
build/add:     file format elf32-tradlittlemips
build/add


Disassembly of section .text:

bfc00000 <main>:
bfc00000:	3c080480 	lui	t0,0x480
bfc00004:	3508ff04 	ori	t0,t0,0xff04
bfc00008:	3c094093 	lui	t1,0x4093
bfc0000c:	35293204 	ori	t1,t1,0x3204
bfc00010:	01098020 	add	s0,t0,t1
bfc00014:	3c124514 	lui	s2,0x4514
bfc00018:	36523108 	ori	s2,s2,0x3108
bfc0001c:	1612085b 	bne	s0,s2,bfc0218c <inst_error>
bfc00020:	00000000 	nop
bfc00024:	3c082a19 	lui	t0,0x2a19
bfc00028:	3508dd40 	ori	t0,t0,0xdd40
bfc0002c:	3c09a879 	lui	t1,0xa879
bfc00030:	352971e0 	ori	t1,t1,0x71e0
bfc00034:	01098020 	add	s0,t0,t1
bfc00038:	3c12d293 	lui	s2,0xd293
bfc0003c:	36524f20 	ori	s2,s2,0x4f20
bfc00040:	16120852 	bne	s0,s2,bfc0218c <inst_error>
bfc00044:	00000000 	nop
bfc00048:	3c088061 	lui	t0,0x8061
bfc0004c:	35083360 	ori	t0,t0,0x3360
bfc00050:	3c0942ad 	lui	t1,0x42ad
bfc00054:	3529f91d 	ori	t1,t1,0xf91d
bfc00058:	01098020 	add	s0,t0,t1
bfc0005c:	3c12c30f 	lui	s2,0xc30f
bfc00060:	36522c7d 	ori	s2,s2,0x2c7d
bfc00064:	16120849 	bne	s0,s2,bfc0218c <inst_error>
bfc00068:	00000000 	nop
bfc0006c:	3c085bec 	lui	t0,0x5bec
bfc00070:	350825e2 	ori	t0,t0,0x25e2
bfc00074:	3c09f96e 	lui	t1,0xf96e
bfc00078:	3529dfe4 	ori	t1,t1,0xdfe4
bfc0007c:	01098020 	add	s0,t0,t1
bfc00080:	3c12555b 	lui	s2,0x555b
bfc00084:	365205c6 	ori	s2,s2,0x5c6
bfc00088:	16120840 	bne	s0,s2,bfc0218c <inst_error>
bfc0008c:	00000000 	nop
bfc00090:	3c0870b9 	lui	t0,0x70b9
bfc00094:	3508a200 	ori	t0,t0,0xa200
bfc00098:	3c09d9bf 	lui	t1,0xd9bf
bfc0009c:	35294900 	ori	t1,t1,0x4900
bfc000a0:	01098020 	add	s0,t0,t1
bfc000a4:	3c124a78 	lui	s2,0x4a78
bfc000a8:	3652eb00 	ori	s2,s2,0xeb00
bfc000ac:	16120837 	bne	s0,s2,bfc0218c <inst_error>
bfc000b0:	00000000 	nop
bfc000b4:	3c08b3b7 	lui	t0,0xb3b7
bfc000b8:	35082934 	ori	t0,t0,0x2934
bfc000bc:	3c093c7e 	lui	t1,0x3c7e
bfc000c0:	3529ad62 	ori	t1,t1,0xad62
bfc000c4:	01098020 	add	s0,t0,t1
bfc000c8:	3c12f035 	lui	s2,0xf035
bfc000cc:	3652d696 	ori	s2,s2,0xd696
bfc000d0:	1612082e 	bne	s0,s2,bfc0218c <inst_error>
bfc000d4:	00000000 	nop
bfc000d8:	3c086d0c 	lui	t0,0x6d0c
bfc000dc:	35084270 	ori	t0,t0,0x4270
bfc000e0:	3c0981b2 	lui	t1,0x81b2
bfc000e4:	3529013c 	ori	t1,t1,0x13c
bfc000e8:	01098020 	add	s0,t0,t1
bfc000ec:	3c12eebe 	lui	s2,0xeebe
bfc000f0:	365243ac 	ori	s2,s2,0x43ac
bfc000f4:	16120825 	bne	s0,s2,bfc0218c <inst_error>
bfc000f8:	00000000 	nop
bfc000fc:	3c083c35 	lui	t0,0x3c35
bfc00100:	3508a398 	ori	t0,t0,0xa398
bfc00104:	3c0918fb 	lui	t1,0x18fb
bfc00108:	35297c38 	ori	t1,t1,0x7c38
bfc0010c:	01098020 	add	s0,t0,t1
bfc00110:	3c125531 	lui	s2,0x5531
bfc00114:	36521fd0 	ori	s2,s2,0x1fd0
bfc00118:	1612081c 	bne	s0,s2,bfc0218c <inst_error>
bfc0011c:	00000000 	nop
bfc00120:	3c08c7ef 	lui	t0,0xc7ef
bfc00124:	350822ec 	ori	t0,t0,0x22ec
bfc00128:	3c0904fe 	lui	t1,0x4fe
bfc0012c:	35296cdb 	ori	t1,t1,0x6cdb
bfc00130:	01098020 	add	s0,t0,t1
bfc00134:	3c12cced 	lui	s2,0xcced
bfc00138:	36528fc7 	ori	s2,s2,0x8fc7
bfc0013c:	16120813 	bne	s0,s2,bfc0218c <inst_error>
bfc00140:	00000000 	nop
bfc00144:	3c087080 	lui	t0,0x7080
bfc00148:	3508076c 	ori	t0,t0,0x76c
bfc0014c:	3c09a343 	lui	t1,0xa343
bfc00150:	3529f990 	ori	t1,t1,0xf990
bfc00154:	01098020 	add	s0,t0,t1
bfc00158:	3c1213c4 	lui	s2,0x13c4
bfc0015c:	365200fc 	ori	s2,s2,0xfc
bfc00160:	1612080a 	bne	s0,s2,bfc0218c <inst_error>
bfc00164:	00000000 	nop
bfc00168:	3c083a1b 	lui	t0,0x3a1b
bfc0016c:	35083c40 	ori	t0,t0,0x3c40
bfc00170:	3c09c5af 	lui	t1,0xc5af
bfc00174:	35294eea 	ori	t1,t1,0x4eea
bfc00178:	01098020 	add	s0,t0,t1
bfc0017c:	3c12ffca 	lui	s2,0xffca
bfc00180:	36528b2a 	ori	s2,s2,0x8b2a
bfc00184:	16120801 	bne	s0,s2,bfc0218c <inst_error>
bfc00188:	00000000 	nop
bfc0018c:	3c082969 	lui	t0,0x2969
bfc00190:	3c098b34 	lui	t1,0x8b34
bfc00194:	3529011c 	ori	t1,t1,0x11c
bfc00198:	01098020 	add	s0,t0,t1
bfc0019c:	3c12b49d 	lui	s2,0xb49d
bfc001a0:	3652011c 	ori	s2,s2,0x11c
bfc001a4:	161207f9 	bne	s0,s2,bfc0218c <inst_error>
bfc001a8:	00000000 	nop
bfc001ac:	3c08b466 	lui	t0,0xb466
bfc001b0:	35087af0 	ori	t0,t0,0x7af0
bfc001b4:	3c0932f3 	lui	t1,0x32f3
bfc001b8:	35296c2c 	ori	t1,t1,0x6c2c
bfc001bc:	01098020 	add	s0,t0,t1
bfc001c0:	3c12e759 	lui	s2,0xe759
bfc001c4:	3652e71c 	ori	s2,s2,0xe71c
bfc001c8:	161207f0 	bne	s0,s2,bfc0218c <inst_error>
bfc001cc:	00000000 	nop
bfc001d0:	3c08e4e7 	lui	t0,0xe4e7
bfc001d4:	350886e2 	ori	t0,t0,0x86e2
bfc001d8:	3c09b3c9 	lui	t1,0xb3c9
bfc001dc:	3529e1ad 	ori	t1,t1,0xe1ad
bfc001e0:	01098020 	add	s0,t0,t1
bfc001e4:	3c1298b1 	lui	s2,0x98b1
bfc001e8:	3652688f 	ori	s2,s2,0x688f
bfc001ec:	161207e7 	bne	s0,s2,bfc0218c <inst_error>
bfc001f0:	00000000 	nop
bfc001f4:	3c08fddf 	lui	t0,0xfddf
bfc001f8:	3508d88a 	ori	t0,t0,0xd88a
bfc001fc:	3c09f06b 	lui	t1,0xf06b
bfc00200:	3529a9f0 	ori	t1,t1,0xa9f0
bfc00204:	01098020 	add	s0,t0,t1
bfc00208:	3c12ee4b 	lui	s2,0xee4b
bfc0020c:	3652827a 	ori	s2,s2,0x827a
bfc00210:	161207de 	bne	s0,s2,bfc0218c <inst_error>
bfc00214:	00000000 	nop
bfc00218:	3c08bf2d 	lui	t0,0xbf2d
bfc0021c:	35086a27 	ori	t0,t0,0x6a27
bfc00220:	3c095976 	lui	t1,0x5976
bfc00224:	35298f20 	ori	t1,t1,0x8f20
bfc00228:	01098020 	add	s0,t0,t1
bfc0022c:	3c1218a3 	lui	s2,0x18a3
bfc00230:	3652f947 	ori	s2,s2,0xf947
bfc00234:	161207d5 	bne	s0,s2,bfc0218c <inst_error>
bfc00238:	00000000 	nop
bfc0023c:	3c0802fa 	lui	t0,0x2fa
bfc00240:	3508b2dc 	ori	t0,t0,0xb2dc
bfc00244:	3c09c1f9 	lui	t1,0xc1f9
bfc00248:	35296840 	ori	t1,t1,0x6840
bfc0024c:	01098020 	add	s0,t0,t1
bfc00250:	3c12c4f4 	lui	s2,0xc4f4
bfc00254:	36521b1c 	ori	s2,s2,0x1b1c
bfc00258:	161207cc 	bne	s0,s2,bfc0218c <inst_error>
bfc0025c:	00000000 	nop
bfc00260:	3c08cb72 	lui	t0,0xcb72
bfc00264:	3508c8d8 	ori	t0,t0,0xc8d8
bfc00268:	3c09c005 	lui	t1,0xc005
bfc0026c:	3529a5a4 	ori	t1,t1,0xa5a4
bfc00270:	01098020 	add	s0,t0,t1
bfc00274:	3c128b78 	lui	s2,0x8b78
bfc00278:	36526e7c 	ori	s2,s2,0x6e7c
bfc0027c:	161207c3 	bne	s0,s2,bfc0218c <inst_error>
bfc00280:	00000000 	nop
bfc00284:	3c080913 	lui	t0,0x913
bfc00288:	3508c7b8 	ori	t0,t0,0xc7b8
bfc0028c:	3c096c5f 	lui	t1,0x6c5f
bfc00290:	3529982c 	ori	t1,t1,0x982c
bfc00294:	01098020 	add	s0,t0,t1
bfc00298:	3c127573 	lui	s2,0x7573
bfc0029c:	36525fe4 	ori	s2,s2,0x5fe4
bfc002a0:	161207ba 	bne	s0,s2,bfc0218c <inst_error>
bfc002a4:	00000000 	nop
bfc002a8:	3c08fb64 	lui	t0,0xfb64
bfc002ac:	3508f900 	ori	t0,t0,0xf900
bfc002b0:	3c099625 	lui	t1,0x9625
bfc002b4:	3529bacc 	ori	t1,t1,0xbacc
bfc002b8:	01098020 	add	s0,t0,t1
bfc002bc:	3c12918a 	lui	s2,0x918a
bfc002c0:	3652b3cc 	ori	s2,s2,0xb3cc
bfc002c4:	161207b1 	bne	s0,s2,bfc0218c <inst_error>
bfc002c8:	00000000 	nop
bfc002cc:	3c08a8f1 	lui	t0,0xa8f1
bfc002d0:	3508f964 	ori	t0,t0,0xf964
bfc002d4:	3c097cd0 	lui	t1,0x7cd0
bfc002d8:	3529bd40 	ori	t1,t1,0xbd40
bfc002dc:	01098020 	add	s0,t0,t1
bfc002e0:	3c1225c2 	lui	s2,0x25c2
bfc002e4:	3652b6a4 	ori	s2,s2,0xb6a4
bfc002e8:	161207a8 	bne	s0,s2,bfc0218c <inst_error>
bfc002ec:	00000000 	nop
bfc002f0:	3c08f603 	lui	t0,0xf603
bfc002f4:	35087818 	ori	t0,t0,0x7818
bfc002f8:	3c096fc0 	lui	t1,0x6fc0
bfc002fc:	3529fc40 	ori	t1,t1,0xfc40
bfc00300:	01098020 	add	s0,t0,t1
bfc00304:	3c1265c4 	lui	s2,0x65c4
bfc00308:	36527458 	ori	s2,s2,0x7458
bfc0030c:	1612079f 	bne	s0,s2,bfc0218c <inst_error>
bfc00310:	00000000 	nop
bfc00314:	3c084a8f 	lui	t0,0x4a8f
bfc00318:	35082a00 	ori	t0,t0,0x2a00
bfc0031c:	3c091b09 	lui	t1,0x1b09
bfc00320:	352931d8 	ori	t1,t1,0x31d8
bfc00324:	01098020 	add	s0,t0,t1
bfc00328:	3c126598 	lui	s2,0x6598
bfc0032c:	36525bd8 	ori	s2,s2,0x5bd8
bfc00330:	16120796 	bne	s0,s2,bfc0218c <inst_error>
bfc00334:	00000000 	nop
bfc00338:	3c08e8d9 	lui	t0,0xe8d9
bfc0033c:	35088fda 	ori	t0,t0,0x8fda
bfc00340:	3c09fff4 	lui	t1,0xfff4
bfc00344:	35297fd0 	ori	t1,t1,0x7fd0
bfc00348:	01098020 	add	s0,t0,t1
bfc0034c:	3c12e8ce 	lui	s2,0xe8ce
bfc00350:	36520faa 	ori	s2,s2,0xfaa
bfc00354:	1612078d 	bne	s0,s2,bfc0218c <inst_error>
bfc00358:	00000000 	nop
bfc0035c:	3c08bde8 	lui	t0,0xbde8
bfc00360:	3508c034 	ori	t0,t0,0xc034
bfc00364:	3c09d7c6 	lui	t1,0xd7c6
bfc00368:	35296c81 	ori	t1,t1,0x6c81
bfc0036c:	01098020 	add	s0,t0,t1
bfc00370:	3c1295af 	lui	s2,0x95af
bfc00374:	36522cb5 	ori	s2,s2,0x2cb5
bfc00378:	16120784 	bne	s0,s2,bfc0218c <inst_error>
bfc0037c:	00000000 	nop
bfc00380:	3c082890 	lui	t0,0x2890
bfc00384:	3508ffb0 	ori	t0,t0,0xffb0
bfc00388:	3c0945d5 	lui	t1,0x45d5
bfc0038c:	3529eda8 	ori	t1,t1,0xeda8
bfc00390:	01098020 	add	s0,t0,t1
bfc00394:	3c126e66 	lui	s2,0x6e66
bfc00398:	3652ed58 	ori	s2,s2,0xed58
bfc0039c:	1612077b 	bne	s0,s2,bfc0218c <inst_error>
bfc003a0:	00000000 	nop
bfc003a4:	3c08d8d4 	lui	t0,0xd8d4
bfc003a8:	35080d50 	ori	t0,t0,0xd50
bfc003ac:	3c091daa 	lui	t1,0x1daa
bfc003b0:	3529bd88 	ori	t1,t1,0xbd88
bfc003b4:	01098020 	add	s0,t0,t1
bfc003b8:	3c12f67e 	lui	s2,0xf67e
bfc003bc:	3652cad8 	ori	s2,s2,0xcad8
bfc003c0:	16120772 	bne	s0,s2,bfc0218c <inst_error>
bfc003c4:	00000000 	nop
bfc003c8:	3c084e39 	lui	t0,0x4e39
bfc003cc:	35086fda 	ori	t0,t0,0x6fda
bfc003d0:	3c098b7f 	lui	t1,0x8b7f
bfc003d4:	35293f2a 	ori	t1,t1,0x3f2a
bfc003d8:	01098020 	add	s0,t0,t1
bfc003dc:	3c12d9b8 	lui	s2,0xd9b8
bfc003e0:	3652af04 	ori	s2,s2,0xaf04
bfc003e4:	16120769 	bne	s0,s2,bfc0218c <inst_error>
bfc003e8:	00000000 	nop
bfc003ec:	3c086e51 	lui	t0,0x6e51
bfc003f0:	3508cc78 	ori	t0,t0,0xcc78
bfc003f4:	3c09db9b 	lui	t1,0xdb9b
bfc003f8:	3529e892 	ori	t1,t1,0xe892
bfc003fc:	01098020 	add	s0,t0,t1
bfc00400:	3c1249ed 	lui	s2,0x49ed
bfc00404:	3652b50a 	ori	s2,s2,0xb50a
bfc00408:	16120760 	bne	s0,s2,bfc0218c <inst_error>
bfc0040c:	00000000 	nop
bfc00410:	3c08e5f5 	lui	t0,0xe5f5
bfc00414:	3508e676 	ori	t0,t0,0xe676
bfc00418:	3c091569 	lui	t1,0x1569
bfc0041c:	35297ab8 	ori	t1,t1,0x7ab8
bfc00420:	01098020 	add	s0,t0,t1
bfc00424:	3c12fb5f 	lui	s2,0xfb5f
bfc00428:	3652612e 	ori	s2,s2,0x612e
bfc0042c:	16120757 	bne	s0,s2,bfc0218c <inst_error>
bfc00430:	00000000 	nop
bfc00434:	3c089382 	lui	t0,0x9382
bfc00438:	3508c800 	ori	t0,t0,0xc800
bfc0043c:	3c095a74 	lui	t1,0x5a74
bfc00440:	3529eb25 	ori	t1,t1,0xeb25
bfc00444:	01098020 	add	s0,t0,t1
bfc00448:	3c12edf7 	lui	s2,0xedf7
bfc0044c:	3652b325 	ori	s2,s2,0xb325
bfc00450:	1612074e 	bne	s0,s2,bfc0218c <inst_error>
bfc00454:	00000000 	nop
bfc00458:	3c08b4c0 	lui	t0,0xb4c0
bfc0045c:	3508b8b1 	ori	t0,t0,0xb8b1
bfc00460:	3c091bb1 	lui	t1,0x1bb1
bfc00464:	3529d280 	ori	t1,t1,0xd280
bfc00468:	01098020 	add	s0,t0,t1
bfc0046c:	3c12d072 	lui	s2,0xd072
bfc00470:	36528b31 	ori	s2,s2,0x8b31
bfc00474:	16120745 	bne	s0,s2,bfc0218c <inst_error>
bfc00478:	00000000 	nop
bfc0047c:	3c0807b5 	lui	t0,0x7b5
bfc00480:	350808fc 	ori	t0,t0,0x8fc
bfc00484:	3c09ba89 	lui	t1,0xba89
bfc00488:	3529d4b0 	ori	t1,t1,0xd4b0
bfc0048c:	01098020 	add	s0,t0,t1
bfc00490:	3c12c23e 	lui	s2,0xc23e
bfc00494:	3652ddac 	ori	s2,s2,0xddac
bfc00498:	1612073c 	bne	s0,s2,bfc0218c <inst_error>
bfc0049c:	00000000 	nop
bfc004a0:	3c08a704 	lui	t0,0xa704
bfc004a4:	35083250 	ori	t0,t0,0x3250
bfc004a8:	3c0962cc 	lui	t1,0x62cc
bfc004ac:	3529ff3c 	ori	t1,t1,0xff3c
bfc004b0:	01098020 	add	s0,t0,t1
bfc004b4:	3c1209d1 	lui	s2,0x9d1
bfc004b8:	3652318c 	ori	s2,s2,0x318c
bfc004bc:	16120733 	bne	s0,s2,bfc0218c <inst_error>
bfc004c0:	00000000 	nop
bfc004c4:	3c085501 	lui	t0,0x5501
bfc004c8:	3508212e 	ori	t0,t0,0x212e
bfc004cc:	3c0988e7 	lui	t1,0x88e7
bfc004d0:	3529310c 	ori	t1,t1,0x310c
bfc004d4:	01098020 	add	s0,t0,t1
bfc004d8:	3c12dde8 	lui	s2,0xdde8
bfc004dc:	3652523a 	ori	s2,s2,0x523a
bfc004e0:	1612072a 	bne	s0,s2,bfc0218c <inst_error>
bfc004e4:	00000000 	nop
bfc004e8:	3c086f85 	lui	t0,0x6f85
bfc004ec:	35085e10 	ori	t0,t0,0x5e10
bfc004f0:	3c09d094 	lui	t1,0xd094
bfc004f4:	352944cc 	ori	t1,t1,0x44cc
bfc004f8:	01098020 	add	s0,t0,t1
bfc004fc:	3c124019 	lui	s2,0x4019
bfc00500:	3652a2dc 	ori	s2,s2,0xa2dc
bfc00504:	16120721 	bne	s0,s2,bfc0218c <inst_error>
bfc00508:	00000000 	nop
bfc0050c:	3c080717 	lui	t0,0x717
bfc00510:	3508db60 	ori	t0,t0,0xdb60
bfc00514:	3c0901c9 	lui	t1,0x1c9
bfc00518:	3529a7d2 	ori	t1,t1,0xa7d2
bfc0051c:	01098020 	add	s0,t0,t1
bfc00520:	3c1208e1 	lui	s2,0x8e1
bfc00524:	36528332 	ori	s2,s2,0x8332
bfc00528:	16120718 	bne	s0,s2,bfc0218c <inst_error>
bfc0052c:	00000000 	nop
bfc00530:	3c086142 	lui	t0,0x6142
bfc00534:	35081240 	ori	t0,t0,0x1240
bfc00538:	3c09a75c 	lui	t1,0xa75c
bfc0053c:	3529b880 	ori	t1,t1,0xb880
bfc00540:	01098020 	add	s0,t0,t1
bfc00544:	3c12089e 	lui	s2,0x89e
bfc00548:	3652cac0 	ori	s2,s2,0xcac0
bfc0054c:	1612070f 	bne	s0,s2,bfc0218c <inst_error>
bfc00550:	00000000 	nop
bfc00554:	3c08b0c4 	lui	t0,0xb0c4
bfc00558:	350853e0 	ori	t0,t0,0x53e0
bfc0055c:	3c09e8e2 	lui	t1,0xe8e2
bfc00560:	3529b0e0 	ori	t1,t1,0xb0e0
bfc00564:	01098020 	add	s0,t0,t1
bfc00568:	3c1299a7 	lui	s2,0x99a7
bfc0056c:	365204c0 	ori	s2,s2,0x4c0
bfc00570:	16120706 	bne	s0,s2,bfc0218c <inst_error>
bfc00574:	00000000 	nop
bfc00578:	3c082c8f 	lui	t0,0x2c8f
bfc0057c:	3508c895 	ori	t0,t0,0xc895
bfc00580:	3c09c0d2 	lui	t1,0xc0d2
bfc00584:	352916c8 	ori	t1,t1,0x16c8
bfc00588:	01098020 	add	s0,t0,t1
bfc0058c:	3c12ed61 	lui	s2,0xed61
bfc00590:	3652df5d 	ori	s2,s2,0xdf5d
bfc00594:	161206fd 	bne	s0,s2,bfc0218c <inst_error>
bfc00598:	00000000 	nop
bfc0059c:	3c082c07 	lui	t0,0x2c07
bfc005a0:	3508a9b4 	ori	t0,t0,0xa9b4
bfc005a4:	3c090456 	lui	t1,0x456
bfc005a8:	352984e0 	ori	t1,t1,0x84e0
bfc005ac:	01098020 	add	s0,t0,t1
bfc005b0:	3c12305e 	lui	s2,0x305e
bfc005b4:	36522e94 	ori	s2,s2,0x2e94
bfc005b8:	161206f4 	bne	s0,s2,bfc0218c <inst_error>
bfc005bc:	00000000 	nop
bfc005c0:	3c08c378 	lui	t0,0xc378
bfc005c4:	3508c630 	ori	t0,t0,0xc630
bfc005c8:	3c092d6f 	lui	t1,0x2d6f
bfc005cc:	3529f8c4 	ori	t1,t1,0xf8c4
bfc005d0:	01098020 	add	s0,t0,t1
bfc005d4:	3c12f0e8 	lui	s2,0xf0e8
bfc005d8:	3652bef4 	ori	s2,s2,0xbef4
bfc005dc:	161206eb 	bne	s0,s2,bfc0218c <inst_error>
bfc005e0:	00000000 	nop
bfc005e4:	3c08654a 	lui	t0,0x654a
bfc005e8:	35086d00 	ori	t0,t0,0x6d00
bfc005ec:	3c09f6d8 	lui	t1,0xf6d8
bfc005f0:	3529fa3c 	ori	t1,t1,0xfa3c
bfc005f4:	01098020 	add	s0,t0,t1
bfc005f8:	3c125c23 	lui	s2,0x5c23
bfc005fc:	3652673c 	ori	s2,s2,0x673c
bfc00600:	161206e2 	bne	s0,s2,bfc0218c <inst_error>
bfc00604:	00000000 	nop
bfc00608:	3c08d8d7 	lui	t0,0xd8d7
bfc0060c:	3508dfb8 	ori	t0,t0,0xdfb8
bfc00610:	3c093646 	lui	t1,0x3646
bfc00614:	3529eb40 	ori	t1,t1,0xeb40
bfc00618:	01098020 	add	s0,t0,t1
bfc0061c:	3c120f1e 	lui	s2,0xf1e
bfc00620:	3652caf8 	ori	s2,s2,0xcaf8
bfc00624:	161206d9 	bne	s0,s2,bfc0218c <inst_error>
bfc00628:	00000000 	nop
bfc0062c:	3c082e46 	lui	t0,0x2e46
bfc00630:	350806cb 	ori	t0,t0,0x6cb
bfc00634:	3c0907c2 	lui	t1,0x7c2
bfc00638:	35292b08 	ori	t1,t1,0x2b08
bfc0063c:	01098020 	add	s0,t0,t1
bfc00640:	3c123608 	lui	s2,0x3608
bfc00644:	365231d3 	ori	s2,s2,0x31d3
bfc00648:	161206d0 	bne	s0,s2,bfc0218c <inst_error>
bfc0064c:	00000000 	nop
bfc00650:	3c081025 	lui	t0,0x1025
bfc00654:	350810e0 	ori	t0,t0,0x10e0
bfc00658:	3c09b846 	lui	t1,0xb846
bfc0065c:	35299a80 	ori	t1,t1,0x9a80
bfc00660:	01098020 	add	s0,t0,t1
bfc00664:	3c12c86b 	lui	s2,0xc86b
bfc00668:	3652ab60 	ori	s2,s2,0xab60
bfc0066c:	161206c7 	bne	s0,s2,bfc0218c <inst_error>
bfc00670:	00000000 	nop
bfc00674:	3c08b466 	lui	t0,0xb466
bfc00678:	35081d44 	ori	t0,t0,0x1d44
bfc0067c:	3c09dab6 	lui	t1,0xdab6
bfc00680:	352944c0 	ori	t1,t1,0x44c0
bfc00684:	01098020 	add	s0,t0,t1
bfc00688:	3c128f1c 	lui	s2,0x8f1c
bfc0068c:	36526204 	ori	s2,s2,0x6204
bfc00690:	161206be 	bne	s0,s2,bfc0218c <inst_error>
bfc00694:	00000000 	nop
bfc00698:	3c083bfc 	lui	t0,0x3bfc
bfc0069c:	350896b0 	ori	t0,t0,0x96b0
bfc006a0:	3c099408 	lui	t1,0x9408
bfc006a4:	35299300 	ori	t1,t1,0x9300
bfc006a8:	01098020 	add	s0,t0,t1
bfc006ac:	3c12d005 	lui	s2,0xd005
bfc006b0:	365229b0 	ori	s2,s2,0x29b0
bfc006b4:	161206b5 	bne	s0,s2,bfc0218c <inst_error>
bfc006b8:	00000000 	nop
bfc006bc:	3c08d257 	lui	t0,0xd257
bfc006c0:	35088988 	ori	t0,t0,0x8988
bfc006c4:	3c095f0c 	lui	t1,0x5f0c
bfc006c8:	35291e7c 	ori	t1,t1,0x1e7c
bfc006cc:	01098020 	add	s0,t0,t1
bfc006d0:	3c123163 	lui	s2,0x3163
bfc006d4:	3652a804 	ori	s2,s2,0xa804
bfc006d8:	161206ac 	bne	s0,s2,bfc0218c <inst_error>
bfc006dc:	00000000 	nop
bfc006e0:	3c081954 	lui	t0,0x1954
bfc006e4:	35083980 	ori	t0,t0,0x3980
bfc006e8:	3c090649 	lui	t1,0x649
bfc006ec:	35290f30 	ori	t1,t1,0xf30
bfc006f0:	01098020 	add	s0,t0,t1
bfc006f4:	3c121f9d 	lui	s2,0x1f9d
bfc006f8:	365248b0 	ori	s2,s2,0x48b0
bfc006fc:	161206a3 	bne	s0,s2,bfc0218c <inst_error>
bfc00700:	00000000 	nop
bfc00704:	3c08db0b 	lui	t0,0xdb0b
bfc00708:	3508c840 	ori	t0,t0,0xc840
bfc0070c:	3c0976bc 	lui	t1,0x76bc
bfc00710:	3529a630 	ori	t1,t1,0xa630
bfc00714:	01098020 	add	s0,t0,t1
bfc00718:	3c1251c8 	lui	s2,0x51c8
bfc0071c:	36526e70 	ori	s2,s2,0x6e70
bfc00720:	1612069a 	bne	s0,s2,bfc0218c <inst_error>
bfc00724:	00000000 	nop
bfc00728:	3c08125b 	lui	t0,0x125b
bfc0072c:	350885d8 	ori	t0,t0,0x85d8
bfc00730:	3c099916 	lui	t1,0x9916
bfc00734:	352956ff 	ori	t1,t1,0x56ff
bfc00738:	01098020 	add	s0,t0,t1
bfc0073c:	3c12ab71 	lui	s2,0xab71
bfc00740:	3652dcd7 	ori	s2,s2,0xdcd7
bfc00744:	16120691 	bne	s0,s2,bfc0218c <inst_error>
bfc00748:	00000000 	nop
bfc0074c:	3c08ee74 	lui	t0,0xee74
bfc00750:	35089ed2 	ori	t0,t0,0x9ed2
bfc00754:	3c09d0ae 	lui	t1,0xd0ae
bfc00758:	35290328 	ori	t1,t1,0x328
bfc0075c:	01098020 	add	s0,t0,t1
bfc00760:	3c12bf22 	lui	s2,0xbf22
bfc00764:	3652a1fa 	ori	s2,s2,0xa1fa
bfc00768:	16120688 	bne	s0,s2,bfc0218c <inst_error>
bfc0076c:	00000000 	nop
bfc00770:	3c08f349 	lui	t0,0xf349
bfc00774:	3508bde8 	ori	t0,t0,0xbde8
bfc00778:	3c09c50f 	lui	t1,0xc50f
bfc0077c:	352959a0 	ori	t1,t1,0x59a0
bfc00780:	01098020 	add	s0,t0,t1
bfc00784:	3c12b859 	lui	s2,0xb859
bfc00788:	36521788 	ori	s2,s2,0x1788
bfc0078c:	1612067f 	bne	s0,s2,bfc0218c <inst_error>
bfc00790:	00000000 	nop
bfc00794:	3c08638d 	lui	t0,0x638d
bfc00798:	3508c380 	ori	t0,t0,0xc380
bfc0079c:	3c09a2bc 	lui	t1,0xa2bc
bfc007a0:	35297b50 	ori	t1,t1,0x7b50
bfc007a4:	01098020 	add	s0,t0,t1
bfc007a8:	3c12064a 	lui	s2,0x64a
bfc007ac:	36523ed0 	ori	s2,s2,0x3ed0
bfc007b0:	16120676 	bne	s0,s2,bfc0218c <inst_error>
bfc007b4:	00000000 	nop
bfc007b8:	3c08d08c 	lui	t0,0xd08c
bfc007bc:	35080ea7 	ori	t0,t0,0xea7
bfc007c0:	3c09289f 	lui	t1,0x289f
bfc007c4:	35292bee 	ori	t1,t1,0x2bee
bfc007c8:	01098020 	add	s0,t0,t1
bfc007cc:	3c12f92b 	lui	s2,0xf92b
bfc007d0:	36523a95 	ori	s2,s2,0x3a95
bfc007d4:	1612066d 	bne	s0,s2,bfc0218c <inst_error>
bfc007d8:	00000000 	nop
bfc007dc:	3c08afa6 	lui	t0,0xafa6
bfc007e0:	3508f5dd 	ori	t0,t0,0xf5dd
bfc007e4:	3c09230a 	lui	t1,0x230a
bfc007e8:	3529e844 	ori	t1,t1,0xe844
bfc007ec:	01098020 	add	s0,t0,t1
bfc007f0:	3c12d2b1 	lui	s2,0xd2b1
bfc007f4:	3652de21 	ori	s2,s2,0xde21
bfc007f8:	16120664 	bne	s0,s2,bfc0218c <inst_error>
bfc007fc:	00000000 	nop
bfc00800:	3c08659a 	lui	t0,0x659a
bfc00804:	35086000 	ori	t0,t0,0x6000
bfc00808:	3c09dac5 	lui	t1,0xdac5
bfc0080c:	3529fc2a 	ori	t1,t1,0xfc2a
bfc00810:	01098020 	add	s0,t0,t1
bfc00814:	3c124060 	lui	s2,0x4060
bfc00818:	36525c2a 	ori	s2,s2,0x5c2a
bfc0081c:	1612065b 	bne	s0,s2,bfc0218c <inst_error>
bfc00820:	00000000 	nop
bfc00824:	3c08130e 	lui	t0,0x130e
bfc00828:	35085c06 	ori	t0,t0,0x5c06
bfc0082c:	3c099fc5 	lui	t1,0x9fc5
bfc00830:	352975b0 	ori	t1,t1,0x75b0
bfc00834:	01098020 	add	s0,t0,t1
bfc00838:	3c12b2d3 	lui	s2,0xb2d3
bfc0083c:	3652d1b6 	ori	s2,s2,0xd1b6
bfc00840:	16120652 	bne	s0,s2,bfc0218c <inst_error>
bfc00844:	00000000 	nop
bfc00848:	3c082543 	lui	t0,0x2543
bfc0084c:	3508a725 	ori	t0,t0,0xa725
bfc00850:	3c091eea 	lui	t1,0x1eea
bfc00854:	3529f0c0 	ori	t1,t1,0xf0c0
bfc00858:	01098020 	add	s0,t0,t1
bfc0085c:	3c12442e 	lui	s2,0x442e
bfc00860:	365297e5 	ori	s2,s2,0x97e5
bfc00864:	16120649 	bne	s0,s2,bfc0218c <inst_error>
bfc00868:	00000000 	nop
bfc0086c:	3c08a34d 	lui	t0,0xa34d
bfc00870:	3508f8e6 	ori	t0,t0,0xf8e6
bfc00874:	3c0974b2 	lui	t1,0x74b2
bfc00878:	35295fe3 	ori	t1,t1,0x5fe3
bfc0087c:	01098020 	add	s0,t0,t1
bfc00880:	3c121800 	lui	s2,0x1800
bfc00884:	365258c9 	ori	s2,s2,0x58c9
bfc00888:	16120640 	bne	s0,s2,bfc0218c <inst_error>
bfc0088c:	00000000 	nop
bfc00890:	3c08894c 	lui	t0,0x894c
bfc00894:	3508b10e 	ori	t0,t0,0xb10e
bfc00898:	3c0928dd 	lui	t1,0x28dd
bfc0089c:	3529c3f0 	ori	t1,t1,0xc3f0
bfc008a0:	01098020 	add	s0,t0,t1
bfc008a4:	3c12b22a 	lui	s2,0xb22a
bfc008a8:	365274fe 	ori	s2,s2,0x74fe
bfc008ac:	16120637 	bne	s0,s2,bfc0218c <inst_error>
bfc008b0:	00000000 	nop
bfc008b4:	3c08c1e6 	lui	t0,0xc1e6
bfc008b8:	350853e8 	ori	t0,t0,0x53e8
bfc008bc:	3c090548 	lui	t1,0x548
bfc008c0:	3529668c 	ori	t1,t1,0x668c
bfc008c4:	01098020 	add	s0,t0,t1
bfc008c8:	3c12c72e 	lui	s2,0xc72e
bfc008cc:	3652ba74 	ori	s2,s2,0xba74
bfc008d0:	1612062e 	bne	s0,s2,bfc0218c <inst_error>
bfc008d4:	00000000 	nop
bfc008d8:	3c08f42e 	lui	t0,0xf42e
bfc008dc:	3508089d 	ori	t0,t0,0x89d
bfc008e0:	3c098c10 	lui	t1,0x8c10
bfc008e4:	3529cbf2 	ori	t1,t1,0xcbf2
bfc008e8:	01098020 	add	s0,t0,t1
bfc008ec:	3c12803e 	lui	s2,0x803e
bfc008f0:	3652d48f 	ori	s2,s2,0xd48f
bfc008f4:	16120625 	bne	s0,s2,bfc0218c <inst_error>
bfc008f8:	00000000 	nop
bfc008fc:	3c0887b2 	lui	t0,0x87b2
bfc00900:	35088080 	ori	t0,t0,0x8080
bfc00904:	3c0914c8 	lui	t1,0x14c8
bfc00908:	3529d33a 	ori	t1,t1,0xd33a
bfc0090c:	01098020 	add	s0,t0,t1
bfc00910:	3c129c7b 	lui	s2,0x9c7b
bfc00914:	365253ba 	ori	s2,s2,0x53ba
bfc00918:	1612061c 	bne	s0,s2,bfc0218c <inst_error>
bfc0091c:	00000000 	nop
bfc00920:	3c089445 	lui	t0,0x9445
bfc00924:	3508a5e8 	ori	t0,t0,0xa5e8
bfc00928:	3c0959d8 	lui	t1,0x59d8
bfc0092c:	35291740 	ori	t1,t1,0x1740
bfc00930:	01098020 	add	s0,t0,t1
bfc00934:	3c12ee1d 	lui	s2,0xee1d
bfc00938:	3652bd28 	ori	s2,s2,0xbd28
bfc0093c:	16120613 	bne	s0,s2,bfc0218c <inst_error>
bfc00940:	00000000 	nop
bfc00944:	3c08ece1 	lui	t0,0xece1
bfc00948:	350866c4 	ori	t0,t0,0x66c4
bfc0094c:	3c090378 	lui	t1,0x378
bfc00950:	352990b8 	ori	t1,t1,0x90b8
bfc00954:	01098020 	add	s0,t0,t1
bfc00958:	3c12f059 	lui	s2,0xf059
bfc0095c:	3652f77c 	ori	s2,s2,0xf77c
bfc00960:	1612060a 	bne	s0,s2,bfc0218c <inst_error>
bfc00964:	00000000 	nop
bfc00968:	3c086f5f 	lui	t0,0x6f5f
bfc0096c:	35088ad8 	ori	t0,t0,0x8ad8
bfc00970:	3c09c428 	lui	t1,0xc428
bfc00974:	3529d407 	ori	t1,t1,0xd407
bfc00978:	01098020 	add	s0,t0,t1
bfc0097c:	3c123388 	lui	s2,0x3388
bfc00980:	36525edf 	ori	s2,s2,0x5edf
bfc00984:	16120601 	bne	s0,s2,bfc0218c <inst_error>
bfc00988:	00000000 	nop
bfc0098c:	3c080fb0 	lui	t0,0xfb0
bfc00990:	350840e4 	ori	t0,t0,0x40e4
bfc00994:	3c0943e9 	lui	t1,0x43e9
bfc00998:	3529fdbe 	ori	t1,t1,0xfdbe
bfc0099c:	01098020 	add	s0,t0,t1
bfc009a0:	3c12539a 	lui	s2,0x539a
bfc009a4:	36523ea2 	ori	s2,s2,0x3ea2
bfc009a8:	161205f8 	bne	s0,s2,bfc0218c <inst_error>
bfc009ac:	00000000 	nop
bfc009b0:	3c0858b1 	lui	t0,0x58b1
bfc009b4:	35080ae6 	ori	t0,t0,0xae6
bfc009b8:	3c099b7c 	lui	t1,0x9b7c
bfc009bc:	352955a6 	ori	t1,t1,0x55a6
bfc009c0:	01098020 	add	s0,t0,t1
bfc009c4:	3c12f42d 	lui	s2,0xf42d
bfc009c8:	3652608c 	ori	s2,s2,0x608c
bfc009cc:	161205ef 	bne	s0,s2,bfc0218c <inst_error>
bfc009d0:	00000000 	nop
bfc009d4:	3c086728 	lui	t0,0x6728
bfc009d8:	35084f30 	ori	t0,t0,0x4f30
bfc009dc:	3c09b43f 	lui	t1,0xb43f
bfc009e0:	352965c8 	ori	t1,t1,0x65c8
bfc009e4:	01098020 	add	s0,t0,t1
bfc009e8:	3c121b67 	lui	s2,0x1b67
bfc009ec:	3652b4f8 	ori	s2,s2,0xb4f8
bfc009f0:	161205e6 	bne	s0,s2,bfc0218c <inst_error>
bfc009f4:	00000000 	nop
bfc009f8:	3c0893e2 	lui	t0,0x93e2
bfc009fc:	35085fd6 	ori	t0,t0,0x5fd6
bfc00a00:	3c0948db 	lui	t1,0x48db
bfc00a04:	35299200 	ori	t1,t1,0x9200
bfc00a08:	01098020 	add	s0,t0,t1
bfc00a0c:	3c12dcbd 	lui	s2,0xdcbd
bfc00a10:	3652f1d6 	ori	s2,s2,0xf1d6
bfc00a14:	161205dd 	bne	s0,s2,bfc0218c <inst_error>
bfc00a18:	00000000 	nop
bfc00a1c:	3c08db38 	lui	t0,0xdb38
bfc00a20:	35081270 	ori	t0,t0,0x1270
bfc00a24:	3c091ee0 	lui	t1,0x1ee0
bfc00a28:	35296388 	ori	t1,t1,0x6388
bfc00a2c:	01098020 	add	s0,t0,t1
bfc00a30:	3c12fa18 	lui	s2,0xfa18
bfc00a34:	365275f8 	ori	s2,s2,0x75f8
bfc00a38:	161205d4 	bne	s0,s2,bfc0218c <inst_error>
bfc00a3c:	00000000 	nop
bfc00a40:	3c081172 	lui	t0,0x1172
bfc00a44:	3508cacc 	ori	t0,t0,0xcacc
bfc00a48:	3c09c155 	lui	t1,0xc155
bfc00a4c:	3529ac94 	ori	t1,t1,0xac94
bfc00a50:	01098020 	add	s0,t0,t1
bfc00a54:	3c12d2c8 	lui	s2,0xd2c8
bfc00a58:	36527760 	ori	s2,s2,0x7760
bfc00a5c:	161205cb 	bne	s0,s2,bfc0218c <inst_error>
bfc00a60:	00000000 	nop
bfc00a64:	3c0824eb 	lui	t0,0x24eb
bfc00a68:	3508e196 	ori	t0,t0,0xe196
bfc00a6c:	3c09abf5 	lui	t1,0xabf5
bfc00a70:	35298f5b 	ori	t1,t1,0x8f5b
bfc00a74:	01098020 	add	s0,t0,t1
bfc00a78:	3c12d0e1 	lui	s2,0xd0e1
bfc00a7c:	365270f1 	ori	s2,s2,0x70f1
bfc00a80:	161205c2 	bne	s0,s2,bfc0218c <inst_error>
bfc00a84:	00000000 	nop
bfc00a88:	3c088629 	lui	t0,0x8629
bfc00a8c:	35088c20 	ori	t0,t0,0x8c20
bfc00a90:	3c094991 	lui	t1,0x4991
bfc00a94:	3529917c 	ori	t1,t1,0x917c
bfc00a98:	01098020 	add	s0,t0,t1
bfc00a9c:	3c12cfbb 	lui	s2,0xcfbb
bfc00aa0:	36521d9c 	ori	s2,s2,0x1d9c
bfc00aa4:	161205b9 	bne	s0,s2,bfc0218c <inst_error>
bfc00aa8:	00000000 	nop
bfc00aac:	3c08d043 	lui	t0,0xd043
bfc00ab0:	35089d20 	ori	t0,t0,0x9d20
bfc00ab4:	3c09210c 	lui	t1,0x210c
bfc00ab8:	35294488 	ori	t1,t1,0x4488
bfc00abc:	01098020 	add	s0,t0,t1
bfc00ac0:	3c12f14f 	lui	s2,0xf14f
bfc00ac4:	3652e1a8 	ori	s2,s2,0xe1a8
bfc00ac8:	161205b0 	bne	s0,s2,bfc0218c <inst_error>
bfc00acc:	00000000 	nop
bfc00ad0:	3c087807 	lui	t0,0x7807
bfc00ad4:	3508fdc4 	ori	t0,t0,0xfdc4
bfc00ad8:	3c09fa71 	lui	t1,0xfa71
bfc00adc:	35291356 	ori	t1,t1,0x1356
bfc00ae0:	01098020 	add	s0,t0,t1
bfc00ae4:	3c127279 	lui	s2,0x7279
bfc00ae8:	3652111a 	ori	s2,s2,0x111a
bfc00aec:	161205a7 	bne	s0,s2,bfc0218c <inst_error>
bfc00af0:	00000000 	nop
bfc00af4:	3c08cc9e 	lui	t0,0xcc9e
bfc00af8:	3508aa56 	ori	t0,t0,0xaa56
bfc00afc:	3c0963b3 	lui	t1,0x63b3
bfc00b00:	352937f0 	ori	t1,t1,0x37f0
bfc00b04:	01098020 	add	s0,t0,t1
bfc00b08:	3c123051 	lui	s2,0x3051
bfc00b0c:	3652e246 	ori	s2,s2,0xe246
bfc00b10:	1612059e 	bne	s0,s2,bfc0218c <inst_error>
bfc00b14:	00000000 	nop
bfc00b18:	3c08c023 	lui	t0,0xc023
bfc00b1c:	35084854 	ori	t0,t0,0x4854
bfc00b20:	3c091d03 	lui	t1,0x1d03
bfc00b24:	3529d95c 	ori	t1,t1,0xd95c
bfc00b28:	01098020 	add	s0,t0,t1
bfc00b2c:	3c12dd27 	lui	s2,0xdd27
bfc00b30:	365221b0 	ori	s2,s2,0x21b0
bfc00b34:	16120595 	bne	s0,s2,bfc0218c <inst_error>
bfc00b38:	00000000 	nop
bfc00b3c:	3c089a02 	lui	t0,0x9a02
bfc00b40:	3508ad94 	ori	t0,t0,0xad94
bfc00b44:	3c0918cf 	lui	t1,0x18cf
bfc00b48:	3529b1be 	ori	t1,t1,0xb1be
bfc00b4c:	01098020 	add	s0,t0,t1
bfc00b50:	3c12b2d2 	lui	s2,0xb2d2
bfc00b54:	36525f52 	ori	s2,s2,0x5f52
bfc00b58:	1612058c 	bne	s0,s2,bfc0218c <inst_error>
bfc00b5c:	00000000 	nop
bfc00b60:	3c08b841 	lui	t0,0xb841
bfc00b64:	3508ce28 	ori	t0,t0,0xce28
bfc00b68:	3c092143 	lui	t1,0x2143
bfc00b6c:	3529a6d8 	ori	t1,t1,0xa6d8
bfc00b70:	01098020 	add	s0,t0,t1
bfc00b74:	3c12d985 	lui	s2,0xd985
bfc00b78:	36527500 	ori	s2,s2,0x7500
bfc00b7c:	16120583 	bne	s0,s2,bfc0218c <inst_error>
bfc00b80:	00000000 	nop
bfc00b84:	3c08b3c4 	lui	t0,0xb3c4
bfc00b88:	35082189 	ori	t0,t0,0x2189
bfc00b8c:	3c0948ae 	lui	t1,0x48ae
bfc00b90:	3529b8d8 	ori	t1,t1,0xb8d8
bfc00b94:	01098020 	add	s0,t0,t1
bfc00b98:	3c12fc72 	lui	s2,0xfc72
bfc00b9c:	3652da61 	ori	s2,s2,0xda61
bfc00ba0:	1612057a 	bne	s0,s2,bfc0218c <inst_error>
bfc00ba4:	00000000 	nop
bfc00ba8:	3c08faff 	lui	t0,0xfaff
bfc00bac:	3508bdc0 	ori	t0,t0,0xbdc0
bfc00bb0:	3c094fe3 	lui	t1,0x4fe3
bfc00bb4:	35292000 	ori	t1,t1,0x2000
bfc00bb8:	01098020 	add	s0,t0,t1
bfc00bbc:	3c124ae2 	lui	s2,0x4ae2
bfc00bc0:	3652ddc0 	ori	s2,s2,0xddc0
bfc00bc4:	16120571 	bne	s0,s2,bfc0218c <inst_error>
bfc00bc8:	00000000 	nop
bfc00bcc:	3c08de7c 	lui	t0,0xde7c
bfc00bd0:	35081570 	ori	t0,t0,0x1570
bfc00bd4:	3c09dda9 	lui	t1,0xdda9
bfc00bd8:	35299466 	ori	t1,t1,0x9466
bfc00bdc:	01098020 	add	s0,t0,t1
bfc00be0:	3c12bc25 	lui	s2,0xbc25
bfc00be4:	3652a9d6 	ori	s2,s2,0xa9d6
bfc00be8:	16120568 	bne	s0,s2,bfc0218c <inst_error>
bfc00bec:	00000000 	nop
bfc00bf0:	3c083fe9 	lui	t0,0x3fe9
bfc00bf4:	350895bc 	ori	t0,t0,0x95bc
bfc00bf8:	3c0927db 	lui	t1,0x27db
bfc00bfc:	3529ab12 	ori	t1,t1,0xab12
bfc00c00:	01098020 	add	s0,t0,t1
bfc00c04:	3c1267c5 	lui	s2,0x67c5
bfc00c08:	365240ce 	ori	s2,s2,0x40ce
bfc00c0c:	1612055f 	bne	s0,s2,bfc0218c <inst_error>
bfc00c10:	00000000 	nop
bfc00c14:	3c08447b 	lui	t0,0x447b
bfc00c18:	35081c9e 	ori	t0,t0,0x1c9e
bfc00c1c:	3c09efd4 	lui	t1,0xefd4
bfc00c20:	352986b6 	ori	t1,t1,0x86b6
bfc00c24:	01098020 	add	s0,t0,t1
bfc00c28:	3c12344f 	lui	s2,0x344f
bfc00c2c:	3652a354 	ori	s2,s2,0xa354
bfc00c30:	16120556 	bne	s0,s2,bfc0218c <inst_error>
bfc00c34:	00000000 	nop
bfc00c38:	3c08b9f9 	lui	t0,0xb9f9
bfc00c3c:	3508b5b5 	ori	t0,t0,0xb5b5
bfc00c40:	3c0964dd 	lui	t1,0x64dd
bfc00c44:	3529b854 	ori	t1,t1,0xb854
bfc00c48:	01098020 	add	s0,t0,t1
bfc00c4c:	3c121ed7 	lui	s2,0x1ed7
bfc00c50:	36526e09 	ori	s2,s2,0x6e09
bfc00c54:	1612054d 	bne	s0,s2,bfc0218c <inst_error>
bfc00c58:	00000000 	nop
bfc00c5c:	3c084124 	lui	t0,0x4124
bfc00c60:	35086f7e 	ori	t0,t0,0x6f7e
bfc00c64:	3c09a659 	lui	t1,0xa659
bfc00c68:	35294438 	ori	t1,t1,0x4438
bfc00c6c:	01098020 	add	s0,t0,t1
bfc00c70:	3c12e77d 	lui	s2,0xe77d
bfc00c74:	3652b3b6 	ori	s2,s2,0xb3b6
bfc00c78:	16120544 	bne	s0,s2,bfc0218c <inst_error>
bfc00c7c:	00000000 	nop
bfc00c80:	3c08e5db 	lui	t0,0xe5db
bfc00c84:	35089814 	ori	t0,t0,0x9814
bfc00c88:	3c09a5a7 	lui	t1,0xa5a7
bfc00c8c:	3529cbb0 	ori	t1,t1,0xcbb0
bfc00c90:	01098020 	add	s0,t0,t1
bfc00c94:	3c128b83 	lui	s2,0x8b83
bfc00c98:	365263c4 	ori	s2,s2,0x63c4
bfc00c9c:	1612053b 	bne	s0,s2,bfc0218c <inst_error>
bfc00ca0:	00000000 	nop
bfc00ca4:	3c0899a7 	lui	t0,0x99a7
bfc00ca8:	35087b00 	ori	t0,t0,0x7b00
bfc00cac:	3c09e872 	lui	t1,0xe872
bfc00cb0:	35297460 	ori	t1,t1,0x7460
bfc00cb4:	01098020 	add	s0,t0,t1
bfc00cb8:	3c128219 	lui	s2,0x8219
bfc00cbc:	3652ef60 	ori	s2,s2,0xef60
bfc00cc0:	16120532 	bne	s0,s2,bfc0218c <inst_error>
bfc00cc4:	00000000 	nop
bfc00cc8:	3c085def 	lui	t0,0x5def
bfc00ccc:	35081400 	ori	t0,t0,0x1400
bfc00cd0:	3c09fe18 	lui	t1,0xfe18
bfc00cd4:	3529c6ce 	ori	t1,t1,0xc6ce
bfc00cd8:	01098020 	add	s0,t0,t1
bfc00cdc:	3c125c07 	lui	s2,0x5c07
bfc00ce0:	3652dace 	ori	s2,s2,0xdace
bfc00ce4:	16120529 	bne	s0,s2,bfc0218c <inst_error>
bfc00ce8:	00000000 	nop
bfc00cec:	3c0837b6 	lui	t0,0x37b6
bfc00cf0:	3508f4e8 	ori	t0,t0,0xf4e8
bfc00cf4:	3c09aae1 	lui	t1,0xaae1
bfc00cf8:	352966b1 	ori	t1,t1,0x66b1
bfc00cfc:	01098020 	add	s0,t0,t1
bfc00d00:	3c12e298 	lui	s2,0xe298
bfc00d04:	36525b99 	ori	s2,s2,0x5b99
bfc00d08:	16120520 	bne	s0,s2,bfc0218c <inst_error>
bfc00d0c:	00000000 	nop
bfc00d10:	3c08dcff 	lui	t0,0xdcff
bfc00d14:	3508e600 	ori	t0,t0,0xe600
bfc00d18:	3c092104 	lui	t1,0x2104
bfc00d1c:	352967fd 	ori	t1,t1,0x67fd
bfc00d20:	01098020 	add	s0,t0,t1
bfc00d24:	3c12fe04 	lui	s2,0xfe04
bfc00d28:	36524dfd 	ori	s2,s2,0x4dfd
bfc00d2c:	16120517 	bne	s0,s2,bfc0218c <inst_error>
bfc00d30:	00000000 	nop
bfc00d34:	3c086098 	lui	t0,0x6098
bfc00d38:	350865a5 	ori	t0,t0,0x65a5
bfc00d3c:	3c09d566 	lui	t1,0xd566
bfc00d40:	35290a0a 	ori	t1,t1,0xa0a
bfc00d44:	01098020 	add	s0,t0,t1
bfc00d48:	3c1235fe 	lui	s2,0x35fe
bfc00d4c:	36526faf 	ori	s2,s2,0x6faf
bfc00d50:	1612050e 	bne	s0,s2,bfc0218c <inst_error>
bfc00d54:	00000000 	nop
bfc00d58:	3c0854a4 	lui	t0,0x54a4
bfc00d5c:	35080d20 	ori	t0,t0,0xd20
bfc00d60:	3c099b39 	lui	t1,0x9b39
bfc00d64:	35292c22 	ori	t1,t1,0x2c22
bfc00d68:	01098020 	add	s0,t0,t1
bfc00d6c:	3c12efdd 	lui	s2,0xefdd
bfc00d70:	36523942 	ori	s2,s2,0x3942
bfc00d74:	16120505 	bne	s0,s2,bfc0218c <inst_error>
bfc00d78:	00000000 	nop
bfc00d7c:	3c081de7 	lui	t0,0x1de7
bfc00d80:	35085ded 	ori	t0,t0,0x5ded
bfc00d84:	3c0930b6 	lui	t1,0x30b6
bfc00d88:	35299371 	ori	t1,t1,0x9371
bfc00d8c:	01098020 	add	s0,t0,t1
bfc00d90:	3c124e9d 	lui	s2,0x4e9d
bfc00d94:	3652f15e 	ori	s2,s2,0xf15e
bfc00d98:	161204fc 	bne	s0,s2,bfc0218c <inst_error>
bfc00d9c:	00000000 	nop
bfc00da0:	3c0827b2 	lui	t0,0x27b2
bfc00da4:	3508c3c0 	ori	t0,t0,0xc3c0
bfc00da8:	3c09c65a 	lui	t1,0xc65a
bfc00dac:	3529c230 	ori	t1,t1,0xc230
bfc00db0:	01098020 	add	s0,t0,t1
bfc00db4:	3c12ee0d 	lui	s2,0xee0d
bfc00db8:	365285f0 	ori	s2,s2,0x85f0
bfc00dbc:	161204f3 	bne	s0,s2,bfc0218c <inst_error>
bfc00dc0:	00000000 	nop
bfc00dc4:	3c081126 	lui	t0,0x1126
bfc00dc8:	35082f28 	ori	t0,t0,0x2f28
bfc00dcc:	3c09a538 	lui	t1,0xa538
bfc00dd0:	35296ec0 	ori	t1,t1,0x6ec0
bfc00dd4:	01098020 	add	s0,t0,t1
bfc00dd8:	3c12b65e 	lui	s2,0xb65e
bfc00ddc:	36529de8 	ori	s2,s2,0x9de8
bfc00de0:	161204ea 	bne	s0,s2,bfc0218c <inst_error>
bfc00de4:	00000000 	nop
bfc00de8:	3c08a7a4 	lui	t0,0xa7a4
bfc00dec:	35081dd0 	ori	t0,t0,0x1dd0
bfc00df0:	3c093946 	lui	t1,0x3946
bfc00df4:	3529369c 	ori	t1,t1,0x369c
bfc00df8:	01098020 	add	s0,t0,t1
bfc00dfc:	3c12e0ea 	lui	s2,0xe0ea
bfc00e00:	3652546c 	ori	s2,s2,0x546c
bfc00e04:	161204e1 	bne	s0,s2,bfc0218c <inst_error>
bfc00e08:	00000000 	nop
bfc00e0c:	3c08e6ef 	lui	t0,0xe6ef
bfc00e10:	35084d40 	ori	t0,t0,0x4d40
bfc00e14:	3c09a259 	lui	t1,0xa259
bfc00e18:	35299058 	ori	t1,t1,0x9058
bfc00e1c:	01098020 	add	s0,t0,t1
bfc00e20:	3c128948 	lui	s2,0x8948
bfc00e24:	3652dd98 	ori	s2,s2,0xdd98
bfc00e28:	161204d8 	bne	s0,s2,bfc0218c <inst_error>
bfc00e2c:	00000000 	nop
bfc00e30:	3c08429e 	lui	t0,0x429e
bfc00e34:	35081470 	ori	t0,t0,0x1470
bfc00e38:	3c09a72c 	lui	t1,0xa72c
bfc00e3c:	3529e8b2 	ori	t1,t1,0xe8b2
bfc00e40:	01098020 	add	s0,t0,t1
bfc00e44:	3c12e9ca 	lui	s2,0xe9ca
bfc00e48:	3652fd22 	ori	s2,s2,0xfd22
bfc00e4c:	161204cf 	bne	s0,s2,bfc0218c <inst_error>
bfc00e50:	00000000 	nop
bfc00e54:	3c082174 	lui	t0,0x2174
bfc00e58:	350892f0 	ori	t0,t0,0x92f0
bfc00e5c:	3c09d3c7 	lui	t1,0xd3c7
bfc00e60:	35291dec 	ori	t1,t1,0x1dec
bfc00e64:	01098020 	add	s0,t0,t1
bfc00e68:	3c12f53b 	lui	s2,0xf53b
bfc00e6c:	3652b0dc 	ori	s2,s2,0xb0dc
bfc00e70:	161204c6 	bne	s0,s2,bfc0218c <inst_error>
bfc00e74:	00000000 	nop
bfc00e78:	3c080f94 	lui	t0,0xf94
bfc00e7c:	35083daa 	ori	t0,t0,0x3daa
bfc00e80:	3c09a5f7 	lui	t1,0xa5f7
bfc00e84:	35299c5c 	ori	t1,t1,0x9c5c
bfc00e88:	01098020 	add	s0,t0,t1
bfc00e8c:	3c12b58b 	lui	s2,0xb58b
bfc00e90:	3652da06 	ori	s2,s2,0xda06
bfc00e94:	161204bd 	bne	s0,s2,bfc0218c <inst_error>
bfc00e98:	00000000 	nop
bfc00e9c:	3c088f4f 	lui	t0,0x8f4f
bfc00ea0:	3508d7a1 	ori	t0,t0,0xd7a1
bfc00ea4:	3c0943eb 	lui	t1,0x43eb
bfc00ea8:	3529fee0 	ori	t1,t1,0xfee0
bfc00eac:	01098020 	add	s0,t0,t1
bfc00eb0:	3c12d33b 	lui	s2,0xd33b
bfc00eb4:	3652d681 	ori	s2,s2,0xd681
bfc00eb8:	161204b4 	bne	s0,s2,bfc0218c <inst_error>
bfc00ebc:	00000000 	nop
bfc00ec0:	3c08956b 	lui	t0,0x956b
bfc00ec4:	3508c990 	ori	t0,t0,0xc990
bfc00ec8:	3c094fcb 	lui	t1,0x4fcb
bfc00ecc:	3529533c 	ori	t1,t1,0x533c
bfc00ed0:	01098020 	add	s0,t0,t1
bfc00ed4:	3c12e537 	lui	s2,0xe537
bfc00ed8:	36521ccc 	ori	s2,s2,0x1ccc
bfc00edc:	161204ab 	bne	s0,s2,bfc0218c <inst_error>
bfc00ee0:	00000000 	nop
bfc00ee4:	3c088144 	lui	t0,0x8144
bfc00ee8:	3508d10c 	ori	t0,t0,0xd10c
bfc00eec:	3c094a12 	lui	t1,0x4a12
bfc00ef0:	35296abf 	ori	t1,t1,0x6abf
bfc00ef4:	01098020 	add	s0,t0,t1
bfc00ef8:	3c12cb57 	lui	s2,0xcb57
bfc00efc:	36523bcb 	ori	s2,s2,0x3bcb
bfc00f00:	161204a2 	bne	s0,s2,bfc0218c <inst_error>
bfc00f04:	00000000 	nop
bfc00f08:	3c087b61 	lui	t0,0x7b61
bfc00f0c:	350897d9 	ori	t0,t0,0x97d9
bfc00f10:	3c0986c2 	lui	t1,0x86c2
bfc00f14:	3529e19c 	ori	t1,t1,0xe19c
bfc00f18:	01098020 	add	s0,t0,t1
bfc00f1c:	3c120224 	lui	s2,0x224
bfc00f20:	36527975 	ori	s2,s2,0x7975
bfc00f24:	16120499 	bne	s0,s2,bfc0218c <inst_error>
bfc00f28:	00000000 	nop
bfc00f2c:	3c085310 	lui	t0,0x5310
bfc00f30:	3508cb33 	ori	t0,t0,0xcb33
bfc00f34:	3c09ccc5 	lui	t1,0xccc5
bfc00f38:	35299f90 	ori	t1,t1,0x9f90
bfc00f3c:	01098020 	add	s0,t0,t1
bfc00f40:	3c121fd6 	lui	s2,0x1fd6
bfc00f44:	36526ac3 	ori	s2,s2,0x6ac3
bfc00f48:	16120490 	bne	s0,s2,bfc0218c <inst_error>
bfc00f4c:	00000000 	nop
bfc00f50:	3c085db2 	lui	t0,0x5db2
bfc00f54:	3508c780 	ori	t0,t0,0xc780
bfc00f58:	3c09b05b 	lui	t1,0xb05b
bfc00f5c:	35294fa0 	ori	t1,t1,0x4fa0
bfc00f60:	01098020 	add	s0,t0,t1
bfc00f64:	3c120e0e 	lui	s2,0xe0e
bfc00f68:	36521720 	ori	s2,s2,0x1720
bfc00f6c:	16120487 	bne	s0,s2,bfc0218c <inst_error>
bfc00f70:	00000000 	nop
bfc00f74:	3c08dcbf 	lui	t0,0xdcbf
bfc00f78:	3508ed68 	ori	t0,t0,0xed68
bfc00f7c:	3c090aa8 	lui	t1,0xaa8
bfc00f80:	35295480 	ori	t1,t1,0x5480
bfc00f84:	01098020 	add	s0,t0,t1
bfc00f88:	3c12e768 	lui	s2,0xe768
bfc00f8c:	365241e8 	ori	s2,s2,0x41e8
bfc00f90:	1612047e 	bne	s0,s2,bfc0218c <inst_error>
bfc00f94:	00000000 	nop
bfc00f98:	3c08cfc4 	lui	t0,0xcfc4
bfc00f9c:	350859fc 	ori	t0,t0,0x59fc
bfc00fa0:	3c097fdc 	lui	t1,0x7fdc
bfc00fa4:	35292bd0 	ori	t1,t1,0x2bd0
bfc00fa8:	01098020 	add	s0,t0,t1
bfc00fac:	3c124fa0 	lui	s2,0x4fa0
bfc00fb0:	365285cc 	ori	s2,s2,0x85cc
bfc00fb4:	16120475 	bne	s0,s2,bfc0218c <inst_error>
bfc00fb8:	00000000 	nop
bfc00fbc:	3c0816da 	lui	t0,0x16da
bfc00fc0:	35083978 	ori	t0,t0,0x3978
bfc00fc4:	3c09fdc7 	lui	t1,0xfdc7
bfc00fc8:	3529d63c 	ori	t1,t1,0xd63c
bfc00fcc:	01098020 	add	s0,t0,t1
bfc00fd0:	3c1214a2 	lui	s2,0x14a2
bfc00fd4:	36520fb4 	ori	s2,s2,0xfb4
bfc00fd8:	1612046c 	bne	s0,s2,bfc0218c <inst_error>
bfc00fdc:	00000000 	nop
bfc00fe0:	3c083dc3 	lui	t0,0x3dc3
bfc00fe4:	3508b03c 	ori	t0,t0,0xb03c
bfc00fe8:	3c0923b1 	lui	t1,0x23b1
bfc00fec:	3529d078 	ori	t1,t1,0xd078
bfc00ff0:	01098020 	add	s0,t0,t1
bfc00ff4:	3c126175 	lui	s2,0x6175
bfc00ff8:	365280b4 	ori	s2,s2,0x80b4
bfc00ffc:	16120463 	bne	s0,s2,bfc0218c <inst_error>
bfc01000:	00000000 	nop
bfc01004:	3c0800a9 	lui	t0,0xa9
bfc01008:	35083035 	ori	t0,t0,0x3035
bfc0100c:	3c096c55 	lui	t1,0x6c55
bfc01010:	3529f880 	ori	t1,t1,0xf880
bfc01014:	01098020 	add	s0,t0,t1
bfc01018:	3c126cff 	lui	s2,0x6cff
bfc0101c:	365228b5 	ori	s2,s2,0x28b5
bfc01020:	1612045a 	bne	s0,s2,bfc0218c <inst_error>
bfc01024:	00000000 	nop
bfc01028:	3c08e573 	lui	t0,0xe573
bfc0102c:	35083fd8 	ori	t0,t0,0x3fd8
bfc01030:	3c09a6fa 	lui	t1,0xa6fa
bfc01034:	35294164 	ori	t1,t1,0x4164
bfc01038:	01098020 	add	s0,t0,t1
bfc0103c:	3c128c6d 	lui	s2,0x8c6d
bfc01040:	3652813c 	ori	s2,s2,0x813c
bfc01044:	16120451 	bne	s0,s2,bfc0218c <inst_error>
bfc01048:	00000000 	nop
bfc0104c:	3c0835a6 	lui	t0,0x35a6
bfc01050:	3508ea20 	ori	t0,t0,0xea20
bfc01054:	3c09b569 	lui	t1,0xb569
bfc01058:	35291b76 	ori	t1,t1,0x1b76
bfc0105c:	01098020 	add	s0,t0,t1
bfc01060:	3c12eb10 	lui	s2,0xeb10
bfc01064:	36520596 	ori	s2,s2,0x596
bfc01068:	16120448 	bne	s0,s2,bfc0218c <inst_error>
bfc0106c:	00000000 	nop
bfc01070:	3c087b9d 	lui	t0,0x7b9d
bfc01074:	3508a3d6 	ori	t0,t0,0xa3d6
bfc01078:	3c099ef1 	lui	t1,0x9ef1
bfc0107c:	35295eb6 	ori	t1,t1,0x5eb6
bfc01080:	01098020 	add	s0,t0,t1
bfc01084:	3c121a8f 	lui	s2,0x1a8f
bfc01088:	3652028c 	ori	s2,s2,0x28c
bfc0108c:	1612043f 	bne	s0,s2,bfc0218c <inst_error>
bfc01090:	00000000 	nop
bfc01094:	3c08e567 	lui	t0,0xe567
bfc01098:	35088dd8 	ori	t0,t0,0x8dd8
bfc0109c:	3c095240 	lui	t1,0x5240
bfc010a0:	35299b00 	ori	t1,t1,0x9b00
bfc010a4:	01098020 	add	s0,t0,t1
bfc010a8:	3c1237a8 	lui	s2,0x37a8
bfc010ac:	365228d8 	ori	s2,s2,0x28d8
bfc010b0:	16120436 	bne	s0,s2,bfc0218c <inst_error>
bfc010b4:	00000000 	nop
bfc010b8:	3c080d3c 	lui	t0,0xd3c
bfc010bc:	3508e538 	ori	t0,t0,0xe538
bfc010c0:	3c09527e 	lui	t1,0x527e
bfc010c4:	352941f2 	ori	t1,t1,0x41f2
bfc010c8:	01098020 	add	s0,t0,t1
bfc010cc:	3c125fbb 	lui	s2,0x5fbb
bfc010d0:	3652272a 	ori	s2,s2,0x272a
bfc010d4:	1612042d 	bne	s0,s2,bfc0218c <inst_error>
bfc010d8:	00000000 	nop
bfc010dc:	3c083637 	lui	t0,0x3637
bfc010e0:	350857cc 	ori	t0,t0,0x57cc
bfc010e4:	3c098a98 	lui	t1,0x8a98
bfc010e8:	3529cdd8 	ori	t1,t1,0xcdd8
bfc010ec:	01098020 	add	s0,t0,t1
bfc010f0:	3c12c0d0 	lui	s2,0xc0d0
bfc010f4:	365225a4 	ori	s2,s2,0x25a4
bfc010f8:	16120424 	bne	s0,s2,bfc0218c <inst_error>
bfc010fc:	00000000 	nop
bfc01100:	3c08287c 	lui	t0,0x287c
bfc01104:	3508f188 	ori	t0,t0,0xf188
bfc01108:	3c09f91b 	lui	t1,0xf91b
bfc0110c:	352974ae 	ori	t1,t1,0x74ae
bfc01110:	01098020 	add	s0,t0,t1
bfc01114:	3c122198 	lui	s2,0x2198
bfc01118:	36526636 	ori	s2,s2,0x6636
bfc0111c:	1612041b 	bne	s0,s2,bfc0218c <inst_error>
bfc01120:	00000000 	nop
bfc01124:	3c0836a0 	lui	t0,0x36a0
bfc01128:	35080a90 	ori	t0,t0,0xa90
bfc0112c:	3c09ec01 	lui	t1,0xec01
bfc01130:	35295018 	ori	t1,t1,0x5018
bfc01134:	01098020 	add	s0,t0,t1
bfc01138:	3c1222a1 	lui	s2,0x22a1
bfc0113c:	36525aa8 	ori	s2,s2,0x5aa8
bfc01140:	16120412 	bne	s0,s2,bfc0218c <inst_error>
bfc01144:	00000000 	nop
bfc01148:	3c080956 	lui	t0,0x956
bfc0114c:	350893f9 	ori	t0,t0,0x93f9
bfc01150:	3c09624e 	lui	t1,0x624e
bfc01154:	35293a55 	ori	t1,t1,0x3a55
bfc01158:	01098020 	add	s0,t0,t1
bfc0115c:	3c126ba4 	lui	s2,0x6ba4
bfc01160:	3652ce4e 	ori	s2,s2,0xce4e
bfc01164:	16120409 	bne	s0,s2,bfc0218c <inst_error>
bfc01168:	00000000 	nop
bfc0116c:	3c08debf 	lui	t0,0xdebf
bfc01170:	35086070 	ori	t0,t0,0x6070
bfc01174:	3c09f718 	lui	t1,0xf718
bfc01178:	3529da20 	ori	t1,t1,0xda20
bfc0117c:	01098020 	add	s0,t0,t1
bfc01180:	3c12d5d8 	lui	s2,0xd5d8
bfc01184:	36523a90 	ori	s2,s2,0x3a90
bfc01188:	16120400 	bne	s0,s2,bfc0218c <inst_error>
bfc0118c:	00000000 	nop
bfc01190:	3c082ce2 	lui	t0,0x2ce2
bfc01194:	350898b8 	ori	t0,t0,0x98b8
bfc01198:	3c09da63 	lui	t1,0xda63
bfc0119c:	35294914 	ori	t1,t1,0x4914
bfc011a0:	01098020 	add	s0,t0,t1
bfc011a4:	3c120745 	lui	s2,0x745
bfc011a8:	3652e1cc 	ori	s2,s2,0xe1cc
bfc011ac:	161203f7 	bne	s0,s2,bfc0218c <inst_error>
bfc011b0:	00000000 	nop
bfc011b4:	3c0806b9 	lui	t0,0x6b9
bfc011b8:	3508ea50 	ori	t0,t0,0xea50
bfc011bc:	3c09d2b2 	lui	t1,0xd2b2
bfc011c0:	3529d100 	ori	t1,t1,0xd100
bfc011c4:	01098020 	add	s0,t0,t1
bfc011c8:	3c12d96c 	lui	s2,0xd96c
bfc011cc:	3652bb50 	ori	s2,s2,0xbb50
bfc011d0:	161203ee 	bne	s0,s2,bfc0218c <inst_error>
bfc011d4:	00000000 	nop
bfc011d8:	3c08493f 	lui	t0,0x493f
bfc011dc:	3508bc87 	ori	t0,t0,0xbc87
bfc011e0:	3c098f6d 	lui	t1,0x8f6d
bfc011e4:	35298850 	ori	t1,t1,0x8850
bfc011e8:	01098020 	add	s0,t0,t1
bfc011ec:	3c12d8ad 	lui	s2,0xd8ad
bfc011f0:	365244d7 	ori	s2,s2,0x44d7
bfc011f4:	161203e5 	bne	s0,s2,bfc0218c <inst_error>
bfc011f8:	00000000 	nop
bfc011fc:	3c087336 	lui	t0,0x7336
bfc01200:	3508c9a6 	ori	t0,t0,0xc9a6
bfc01204:	3c090c99 	lui	t1,0xc99
bfc01208:	3529b200 	ori	t1,t1,0xb200
bfc0120c:	01098020 	add	s0,t0,t1
bfc01210:	3c127fd0 	lui	s2,0x7fd0
bfc01214:	36527ba6 	ori	s2,s2,0x7ba6
bfc01218:	161203dc 	bne	s0,s2,bfc0218c <inst_error>
bfc0121c:	00000000 	nop
bfc01220:	3c083d7e 	lui	t0,0x3d7e
bfc01224:	3508fb3f 	ori	t0,t0,0xfb3f
bfc01228:	3c09fcd2 	lui	t1,0xfcd2
bfc0122c:	35295f3a 	ori	t1,t1,0x5f3a
bfc01230:	01098020 	add	s0,t0,t1
bfc01234:	3c123a51 	lui	s2,0x3a51
bfc01238:	36525a79 	ori	s2,s2,0x5a79
bfc0123c:	161203d3 	bne	s0,s2,bfc0218c <inst_error>
bfc01240:	00000000 	nop
bfc01244:	3c081bed 	lui	t0,0x1bed
bfc01248:	35082920 	ori	t0,t0,0x2920
bfc0124c:	3c0936a6 	lui	t1,0x36a6
bfc01250:	35296558 	ori	t1,t1,0x6558
bfc01254:	01098020 	add	s0,t0,t1
bfc01258:	3c125293 	lui	s2,0x5293
bfc0125c:	36528e78 	ori	s2,s2,0x8e78
bfc01260:	161203ca 	bne	s0,s2,bfc0218c <inst_error>
bfc01264:	00000000 	nop
bfc01268:	3c080f3b 	lui	t0,0xf3b
bfc0126c:	35081014 	ori	t0,t0,0x1014
bfc01270:	3c09a200 	lui	t1,0xa200
bfc01274:	3529954f 	ori	t1,t1,0x954f
bfc01278:	01098020 	add	s0,t0,t1
bfc0127c:	3c12b13b 	lui	s2,0xb13b
bfc01280:	3652a563 	ori	s2,s2,0xa563
bfc01284:	161203c1 	bne	s0,s2,bfc0218c <inst_error>
bfc01288:	00000000 	nop
bfc0128c:	3c080d6e 	lui	t0,0xd6e
bfc01290:	35088886 	ori	t0,t0,0x8886
bfc01294:	3c095b2e 	lui	t1,0x5b2e
bfc01298:	3529074c 	ori	t1,t1,0x74c
bfc0129c:	01098020 	add	s0,t0,t1
bfc012a0:	3c12689c 	lui	s2,0x689c
bfc012a4:	36528fd2 	ori	s2,s2,0x8fd2
bfc012a8:	161203b8 	bne	s0,s2,bfc0218c <inst_error>
bfc012ac:	00000000 	nop
bfc012b0:	3c082deb 	lui	t0,0x2deb
bfc012b4:	350813d0 	ori	t0,t0,0x13d0
bfc012b8:	3c0926fe 	lui	t1,0x26fe
bfc012bc:	3529ddc2 	ori	t1,t1,0xddc2
bfc012c0:	01098020 	add	s0,t0,t1
bfc012c4:	3c1254e9 	lui	s2,0x54e9
bfc012c8:	3652f192 	ori	s2,s2,0xf192
bfc012cc:	161203af 	bne	s0,s2,bfc0218c <inst_error>
bfc012d0:	00000000 	nop
bfc012d4:	3c08e576 	lui	t0,0xe576
bfc012d8:	35084f49 	ori	t0,t0,0x4f49
bfc012dc:	3c092000 	lui	t1,0x2000
bfc012e0:	35290380 	ori	t1,t1,0x380
bfc012e4:	01098020 	add	s0,t0,t1
bfc012e8:	3c120576 	lui	s2,0x576
bfc012ec:	365252c9 	ori	s2,s2,0x52c9
bfc012f0:	161203a6 	bne	s0,s2,bfc0218c <inst_error>
bfc012f4:	00000000 	nop
bfc012f8:	3c089f35 	lui	t0,0x9f35
bfc012fc:	3508bb7c 	ori	t0,t0,0xbb7c
bfc01300:	3c097045 	lui	t1,0x7045
bfc01304:	3529536d 	ori	t1,t1,0x536d
bfc01308:	01098020 	add	s0,t0,t1
bfc0130c:	3c120f7b 	lui	s2,0xf7b
bfc01310:	36520ee9 	ori	s2,s2,0xee9
bfc01314:	1612039d 	bne	s0,s2,bfc0218c <inst_error>
bfc01318:	00000000 	nop
bfc0131c:	3c08ca45 	lui	t0,0xca45
bfc01320:	350844c4 	ori	t0,t0,0x44c4
bfc01324:	3c0925e6 	lui	t1,0x25e6
bfc01328:	3529b2fa 	ori	t1,t1,0xb2fa
bfc0132c:	01098020 	add	s0,t0,t1
bfc01330:	3c12f02b 	lui	s2,0xf02b
bfc01334:	3652f7be 	ori	s2,s2,0xf7be
bfc01338:	16120394 	bne	s0,s2,bfc0218c <inst_error>
bfc0133c:	00000000 	nop
bfc01340:	3c08e86d 	lui	t0,0xe86d
bfc01344:	3508ce88 	ori	t0,t0,0xce88
bfc01348:	3c09eef5 	lui	t1,0xeef5
bfc0134c:	35291a30 	ori	t1,t1,0x1a30
bfc01350:	01098020 	add	s0,t0,t1
bfc01354:	3c12d762 	lui	s2,0xd762
bfc01358:	3652e8b8 	ori	s2,s2,0xe8b8
bfc0135c:	1612038b 	bne	s0,s2,bfc0218c <inst_error>
bfc01360:	00000000 	nop
bfc01364:	3c081a92 	lui	t0,0x1a92
bfc01368:	3508a5a0 	ori	t0,t0,0xa5a0
bfc0136c:	3c09d1ea 	lui	t1,0xd1ea
bfc01370:	3529c31b 	ori	t1,t1,0xc31b
bfc01374:	01098020 	add	s0,t0,t1
bfc01378:	3c12ec7d 	lui	s2,0xec7d
bfc0137c:	365268bb 	ori	s2,s2,0x68bb
bfc01380:	16120382 	bne	s0,s2,bfc0218c <inst_error>
bfc01384:	00000000 	nop
bfc01388:	3c08dec0 	lui	t0,0xdec0
bfc0138c:	3508f040 	ori	t0,t0,0xf040
bfc01390:	3c0959bc 	lui	t1,0x59bc
bfc01394:	35293412 	ori	t1,t1,0x3412
bfc01398:	01098020 	add	s0,t0,t1
bfc0139c:	3c12387d 	lui	s2,0x387d
bfc013a0:	36522452 	ori	s2,s2,0x2452
bfc013a4:	16120379 	bne	s0,s2,bfc0218c <inst_error>
bfc013a8:	00000000 	nop
bfc013ac:	3c08e4b6 	lui	t0,0xe4b6
bfc013b0:	35082124 	ori	t0,t0,0x2124
bfc013b4:	3c096f17 	lui	t1,0x6f17
bfc013b8:	352972b8 	ori	t1,t1,0x72b8
bfc013bc:	01098020 	add	s0,t0,t1
bfc013c0:	3c1253cd 	lui	s2,0x53cd
bfc013c4:	365293dc 	ori	s2,s2,0x93dc
bfc013c8:	16120370 	bne	s0,s2,bfc0218c <inst_error>
bfc013cc:	00000000 	nop
bfc013d0:	3c088e76 	lui	t0,0x8e76
bfc013d4:	35088b29 	ori	t0,t0,0x8b29
bfc013d8:	3c094edd 	lui	t1,0x4edd
bfc013dc:	3529e040 	ori	t1,t1,0xe040
bfc013e0:	01098020 	add	s0,t0,t1
bfc013e4:	3c12dd54 	lui	s2,0xdd54
bfc013e8:	36526b69 	ori	s2,s2,0x6b69
bfc013ec:	16120367 	bne	s0,s2,bfc0218c <inst_error>
bfc013f0:	00000000 	nop
bfc013f4:	3c08bae5 	lui	t0,0xbae5
bfc013f8:	3508f8ae 	ori	t0,t0,0xf8ae
bfc013fc:	3c09690a 	lui	t1,0x690a
bfc01400:	35291ae4 	ori	t1,t1,0x1ae4
bfc01404:	01098020 	add	s0,t0,t1
bfc01408:	3c1223f0 	lui	s2,0x23f0
bfc0140c:	36521392 	ori	s2,s2,0x1392
bfc01410:	1612035e 	bne	s0,s2,bfc0218c <inst_error>
bfc01414:	00000000 	nop
bfc01418:	3c083196 	lui	t0,0x3196
bfc0141c:	35084010 	ori	t0,t0,0x4010
bfc01420:	3c09ae2c 	lui	t1,0xae2c
bfc01424:	35297275 	ori	t1,t1,0x7275
bfc01428:	01098020 	add	s0,t0,t1
bfc0142c:	3c12dfc2 	lui	s2,0xdfc2
bfc01430:	3652b285 	ori	s2,s2,0xb285
bfc01434:	16120355 	bne	s0,s2,bfc0218c <inst_error>
bfc01438:	00000000 	nop
bfc0143c:	3c08195c 	lui	t0,0x195c
bfc01440:	3508f434 	ori	t0,t0,0xf434
bfc01444:	3c098061 	lui	t1,0x8061
bfc01448:	3529cc2c 	ori	t1,t1,0xcc2c
bfc0144c:	01098020 	add	s0,t0,t1
bfc01450:	3c1299be 	lui	s2,0x99be
bfc01454:	3652c060 	ori	s2,s2,0xc060
bfc01458:	1612034c 	bne	s0,s2,bfc0218c <inst_error>
bfc0145c:	00000000 	nop
bfc01460:	3c08a6c1 	lui	t0,0xa6c1
bfc01464:	3508a140 	ori	t0,t0,0xa140
bfc01468:	3c0933fa 	lui	t1,0x33fa
bfc0146c:	35294568 	ori	t1,t1,0x4568
bfc01470:	01098020 	add	s0,t0,t1
bfc01474:	3c12dabb 	lui	s2,0xdabb
bfc01478:	3652e6a8 	ori	s2,s2,0xe6a8
bfc0147c:	16120343 	bne	s0,s2,bfc0218c <inst_error>
bfc01480:	00000000 	nop
bfc01484:	3c0808d7 	lui	t0,0x8d7
bfc01488:	3508e000 	ori	t0,t0,0xe000
bfc0148c:	3c092b22 	lui	t1,0x2b22
bfc01490:	35291251 	ori	t1,t1,0x1251
bfc01494:	01098020 	add	s0,t0,t1
bfc01498:	3c1233f9 	lui	s2,0x33f9
bfc0149c:	3652f251 	ori	s2,s2,0xf251
bfc014a0:	1612033a 	bne	s0,s2,bfc0218c <inst_error>
bfc014a4:	00000000 	nop
bfc014a8:	3c08c48f 	lui	t0,0xc48f
bfc014ac:	35081392 	ori	t0,t0,0x1392
bfc014b0:	3c092d9d 	lui	t1,0x2d9d
bfc014b4:	352931b9 	ori	t1,t1,0x31b9
bfc014b8:	01098020 	add	s0,t0,t1
bfc014bc:	3c12f22c 	lui	s2,0xf22c
bfc014c0:	3652454b 	ori	s2,s2,0x454b
bfc014c4:	16120331 	bne	s0,s2,bfc0218c <inst_error>
bfc014c8:	00000000 	nop
bfc014cc:	3c08bccd 	lui	t0,0xbccd
bfc014d0:	350854c8 	ori	t0,t0,0x54c8
bfc014d4:	3c090a2c 	lui	t1,0xa2c
bfc014d8:	35293b14 	ori	t1,t1,0x3b14
bfc014dc:	01098020 	add	s0,t0,t1
bfc014e0:	3c12c6f9 	lui	s2,0xc6f9
bfc014e4:	36528fdc 	ori	s2,s2,0x8fdc
bfc014e8:	16120328 	bne	s0,s2,bfc0218c <inst_error>
bfc014ec:	00000000 	nop
bfc014f0:	3c0895f0 	lui	t0,0x95f0
bfc014f4:	3508c7b0 	ori	t0,t0,0xc7b0
bfc014f8:	24090000 	li	t1,0
bfc014fc:	01098020 	add	s0,t0,t1
bfc01500:	3c1295f0 	lui	s2,0x95f0
bfc01504:	3652c7b0 	ori	s2,s2,0xc7b0
bfc01508:	16120320 	bne	s0,s2,bfc0218c <inst_error>
bfc0150c:	00000000 	nop
bfc01510:	3c08c417 	lui	t0,0xc417
bfc01514:	35083200 	ori	t0,t0,0x3200
bfc01518:	24090000 	li	t1,0
bfc0151c:	01098020 	add	s0,t0,t1
bfc01520:	3c12c417 	lui	s2,0xc417
bfc01524:	36523200 	ori	s2,s2,0x3200
bfc01528:	16120318 	bne	s0,s2,bfc0218c <inst_error>
bfc0152c:	00000000 	nop
bfc01530:	3c08d930 	lui	t0,0xd930
bfc01534:	35086edd 	ori	t0,t0,0x6edd
bfc01538:	24090000 	li	t1,0
bfc0153c:	01098020 	add	s0,t0,t1
bfc01540:	3c12d930 	lui	s2,0xd930
bfc01544:	36526edd 	ori	s2,s2,0x6edd
bfc01548:	16120310 	bne	s0,s2,bfc0218c <inst_error>
bfc0154c:	00000000 	nop
bfc01550:	3c08c9f8 	lui	t0,0xc9f8
bfc01554:	35088a42 	ori	t0,t0,0x8a42
bfc01558:	24090000 	li	t1,0
bfc0155c:	01098020 	add	s0,t0,t1
bfc01560:	3c12c9f8 	lui	s2,0xc9f8
bfc01564:	36528a42 	ori	s2,s2,0x8a42
bfc01568:	16120308 	bne	s0,s2,bfc0218c <inst_error>
bfc0156c:	00000000 	nop
bfc01570:	3c081cf1 	lui	t0,0x1cf1
bfc01574:	350890aa 	ori	t0,t0,0x90aa
bfc01578:	24090000 	li	t1,0
bfc0157c:	01098020 	add	s0,t0,t1
bfc01580:	3c121cf1 	lui	s2,0x1cf1
bfc01584:	365290aa 	ori	s2,s2,0x90aa
bfc01588:	16120300 	bne	s0,s2,bfc0218c <inst_error>
bfc0158c:	00000000 	nop
bfc01590:	3c080442 	lui	t0,0x442
bfc01594:	35086fba 	ori	t0,t0,0x6fba
bfc01598:	24090000 	li	t1,0
bfc0159c:	01098020 	add	s0,t0,t1
bfc015a0:	3c120442 	lui	s2,0x442
bfc015a4:	36526fba 	ori	s2,s2,0x6fba
bfc015a8:	161202f8 	bne	s0,s2,bfc0218c <inst_error>
bfc015ac:	00000000 	nop
bfc015b0:	3c085290 	lui	t0,0x5290
bfc015b4:	3508f108 	ori	t0,t0,0xf108
bfc015b8:	24090000 	li	t1,0
bfc015bc:	01098020 	add	s0,t0,t1
bfc015c0:	3c125290 	lui	s2,0x5290
bfc015c4:	3652f108 	ori	s2,s2,0xf108
bfc015c8:	161202f0 	bne	s0,s2,bfc0218c <inst_error>
bfc015cc:	00000000 	nop
bfc015d0:	3c08a85a 	lui	t0,0xa85a
bfc015d4:	3508d630 	ori	t0,t0,0xd630
bfc015d8:	24090000 	li	t1,0
bfc015dc:	01098020 	add	s0,t0,t1
bfc015e0:	3c12a85a 	lui	s2,0xa85a
bfc015e4:	3652d630 	ori	s2,s2,0xd630
bfc015e8:	161202e8 	bne	s0,s2,bfc0218c <inst_error>
bfc015ec:	00000000 	nop
bfc015f0:	3c086bb9 	lui	t0,0x6bb9
bfc015f4:	350827f0 	ori	t0,t0,0x27f0
bfc015f8:	24090000 	li	t1,0
bfc015fc:	01098020 	add	s0,t0,t1
bfc01600:	3c126bb9 	lui	s2,0x6bb9
bfc01604:	365227f0 	ori	s2,s2,0x27f0
bfc01608:	161202e0 	bne	s0,s2,bfc0218c <inst_error>
bfc0160c:	00000000 	nop
bfc01610:	3c088397 	lui	t0,0x8397
bfc01614:	350819a0 	ori	t0,t0,0x19a0
bfc01618:	24090000 	li	t1,0
bfc0161c:	01098020 	add	s0,t0,t1
bfc01620:	3c128397 	lui	s2,0x8397
bfc01624:	365219a0 	ori	s2,s2,0x19a0
bfc01628:	161202d8 	bne	s0,s2,bfc0218c <inst_error>
bfc0162c:	00000000 	nop
bfc01630:	3c08c25d 	lui	t0,0xc25d
bfc01634:	3508ccc6 	ori	t0,t0,0xccc6
bfc01638:	24090000 	li	t1,0
bfc0163c:	01098020 	add	s0,t0,t1
bfc01640:	3c12c25d 	lui	s2,0xc25d
bfc01644:	3652ccc6 	ori	s2,s2,0xccc6
bfc01648:	161202d0 	bne	s0,s2,bfc0218c <inst_error>
bfc0164c:	00000000 	nop
bfc01650:	3c08e6c7 	lui	t0,0xe6c7
bfc01654:	3508ae37 	ori	t0,t0,0xae37
bfc01658:	24090000 	li	t1,0
bfc0165c:	01098020 	add	s0,t0,t1
bfc01660:	3c12e6c7 	lui	s2,0xe6c7
bfc01664:	3652ae37 	ori	s2,s2,0xae37
bfc01668:	161202c8 	bne	s0,s2,bfc0218c <inst_error>
bfc0166c:	00000000 	nop
bfc01670:	3c08aca0 	lui	t0,0xaca0
bfc01674:	35083790 	ori	t0,t0,0x3790
bfc01678:	24090000 	li	t1,0
bfc0167c:	01098020 	add	s0,t0,t1
bfc01680:	3c12aca0 	lui	s2,0xaca0
bfc01684:	36523790 	ori	s2,s2,0x3790
bfc01688:	161202c0 	bne	s0,s2,bfc0218c <inst_error>
bfc0168c:	00000000 	nop
bfc01690:	3c085930 	lui	t0,0x5930
bfc01694:	3508eb58 	ori	t0,t0,0xeb58
bfc01698:	24090000 	li	t1,0
bfc0169c:	01098020 	add	s0,t0,t1
bfc016a0:	3c125930 	lui	s2,0x5930
bfc016a4:	3652eb58 	ori	s2,s2,0xeb58
bfc016a8:	161202b8 	bne	s0,s2,bfc0218c <inst_error>
bfc016ac:	00000000 	nop
bfc016b0:	3c0801d8 	lui	t0,0x1d8
bfc016b4:	3508a468 	ori	t0,t0,0xa468
bfc016b8:	24090000 	li	t1,0
bfc016bc:	01098020 	add	s0,t0,t1
bfc016c0:	3c1201d8 	lui	s2,0x1d8
bfc016c4:	3652a468 	ori	s2,s2,0xa468
bfc016c8:	161202b0 	bne	s0,s2,bfc0218c <inst_error>
bfc016cc:	00000000 	nop
bfc016d0:	3c08d451 	lui	t0,0xd451
bfc016d4:	350809f4 	ori	t0,t0,0x9f4
bfc016d8:	24090000 	li	t1,0
bfc016dc:	01098020 	add	s0,t0,t1
bfc016e0:	3c12d451 	lui	s2,0xd451
bfc016e4:	365209f4 	ori	s2,s2,0x9f4
bfc016e8:	161202a8 	bne	s0,s2,bfc0218c <inst_error>
bfc016ec:	00000000 	nop
bfc016f0:	3c082edf 	lui	t0,0x2edf
bfc016f4:	3508beb6 	ori	t0,t0,0xbeb6
bfc016f8:	24090000 	li	t1,0
bfc016fc:	01098020 	add	s0,t0,t1
bfc01700:	3c122edf 	lui	s2,0x2edf
bfc01704:	3652beb6 	ori	s2,s2,0xbeb6
bfc01708:	161202a0 	bne	s0,s2,bfc0218c <inst_error>
bfc0170c:	00000000 	nop
bfc01710:	3c0861f5 	lui	t0,0x61f5
bfc01714:	3508c300 	ori	t0,t0,0xc300
bfc01718:	24090000 	li	t1,0
bfc0171c:	01098020 	add	s0,t0,t1
bfc01720:	3c1261f5 	lui	s2,0x61f5
bfc01724:	3652c300 	ori	s2,s2,0xc300
bfc01728:	16120298 	bne	s0,s2,bfc0218c <inst_error>
bfc0172c:	00000000 	nop
bfc01730:	3c08cd1a 	lui	t0,0xcd1a
bfc01734:	350893d0 	ori	t0,t0,0x93d0
bfc01738:	24090000 	li	t1,0
bfc0173c:	01098020 	add	s0,t0,t1
bfc01740:	3c12cd1a 	lui	s2,0xcd1a
bfc01744:	365293d0 	ori	s2,s2,0x93d0
bfc01748:	16120290 	bne	s0,s2,bfc0218c <inst_error>
bfc0174c:	00000000 	nop
bfc01750:	3c088750 	lui	t0,0x8750
bfc01754:	35087900 	ori	t0,t0,0x7900
bfc01758:	24090000 	li	t1,0
bfc0175c:	01098020 	add	s0,t0,t1
bfc01760:	3c128750 	lui	s2,0x8750
bfc01764:	36527900 	ori	s2,s2,0x7900
bfc01768:	16120288 	bne	s0,s2,bfc0218c <inst_error>
bfc0176c:	00000000 	nop
bfc01770:	3c08d5f2 	lui	t0,0xd5f2
bfc01774:	3508358e 	ori	t0,t0,0x358e
bfc01778:	24090000 	li	t1,0
bfc0177c:	01098020 	add	s0,t0,t1
bfc01780:	3c12d5f2 	lui	s2,0xd5f2
bfc01784:	3652358e 	ori	s2,s2,0x358e
bfc01788:	16120280 	bne	s0,s2,bfc0218c <inst_error>
bfc0178c:	00000000 	nop
bfc01790:	3c0866a2 	lui	t0,0x66a2
bfc01794:	3508afa8 	ori	t0,t0,0xafa8
bfc01798:	24090000 	li	t1,0
bfc0179c:	01098020 	add	s0,t0,t1
bfc017a0:	3c1266a2 	lui	s2,0x66a2
bfc017a4:	3652afa8 	ori	s2,s2,0xafa8
bfc017a8:	16120278 	bne	s0,s2,bfc0218c <inst_error>
bfc017ac:	00000000 	nop
bfc017b0:	3c088b3c 	lui	t0,0x8b3c
bfc017b4:	35082c00 	ori	t0,t0,0x2c00
bfc017b8:	24090000 	li	t1,0
bfc017bc:	01098020 	add	s0,t0,t1
bfc017c0:	3c128b3c 	lui	s2,0x8b3c
bfc017c4:	36522c00 	ori	s2,s2,0x2c00
bfc017c8:	16120270 	bne	s0,s2,bfc0218c <inst_error>
bfc017cc:	00000000 	nop
bfc017d0:	3c088d43 	lui	t0,0x8d43
bfc017d4:	35088a80 	ori	t0,t0,0x8a80
bfc017d8:	24090000 	li	t1,0
bfc017dc:	01098020 	add	s0,t0,t1
bfc017e0:	3c128d43 	lui	s2,0x8d43
bfc017e4:	36528a80 	ori	s2,s2,0x8a80
bfc017e8:	16120268 	bne	s0,s2,bfc0218c <inst_error>
bfc017ec:	00000000 	nop
bfc017f0:	3c0871fb 	lui	t0,0x71fb
bfc017f4:	35086f30 	ori	t0,t0,0x6f30
bfc017f8:	24090000 	li	t1,0
bfc017fc:	01098020 	add	s0,t0,t1
bfc01800:	3c1271fb 	lui	s2,0x71fb
bfc01804:	36526f30 	ori	s2,s2,0x6f30
bfc01808:	16120260 	bne	s0,s2,bfc0218c <inst_error>
bfc0180c:	00000000 	nop
bfc01810:	3c08f76b 	lui	t0,0xf76b
bfc01814:	3508e7b1 	ori	t0,t0,0xe7b1
bfc01818:	24090000 	li	t1,0
bfc0181c:	01098020 	add	s0,t0,t1
bfc01820:	3c12f76b 	lui	s2,0xf76b
bfc01824:	3652e7b1 	ori	s2,s2,0xe7b1
bfc01828:	16120258 	bne	s0,s2,bfc0218c <inst_error>
bfc0182c:	00000000 	nop
bfc01830:	3c086b3a 	lui	t0,0x6b3a
bfc01834:	35082a6e 	ori	t0,t0,0x2a6e
bfc01838:	24090000 	li	t1,0
bfc0183c:	01098020 	add	s0,t0,t1
bfc01840:	3c126b3a 	lui	s2,0x6b3a
bfc01844:	36522a6e 	ori	s2,s2,0x2a6e
bfc01848:	16120250 	bne	s0,s2,bfc0218c <inst_error>
bfc0184c:	00000000 	nop
bfc01850:	3c088ee4 	lui	t0,0x8ee4
bfc01854:	3508975a 	ori	t0,t0,0x975a
bfc01858:	24090000 	li	t1,0
bfc0185c:	01098020 	add	s0,t0,t1
bfc01860:	3c128ee4 	lui	s2,0x8ee4
bfc01864:	3652975a 	ori	s2,s2,0x975a
bfc01868:	16120248 	bne	s0,s2,bfc0218c <inst_error>
bfc0186c:	00000000 	nop
bfc01870:	3c08f70b 	lui	t0,0xf70b
bfc01874:	3508c684 	ori	t0,t0,0xc684
bfc01878:	24090000 	li	t1,0
bfc0187c:	01098020 	add	s0,t0,t1
bfc01880:	3c12f70b 	lui	s2,0xf70b
bfc01884:	3652c684 	ori	s2,s2,0xc684
bfc01888:	16120240 	bne	s0,s2,bfc0218c <inst_error>
bfc0188c:	00000000 	nop
bfc01890:	3c08d888 	lui	t0,0xd888
bfc01894:	350881f7 	ori	t0,t0,0x81f7
bfc01898:	24090000 	li	t1,0
bfc0189c:	01098020 	add	s0,t0,t1
bfc018a0:	3c12d888 	lui	s2,0xd888
bfc018a4:	365281f7 	ori	s2,s2,0x81f7
bfc018a8:	16120238 	bne	s0,s2,bfc0218c <inst_error>
bfc018ac:	00000000 	nop
bfc018b0:	3c08abef 	lui	t0,0xabef
bfc018b4:	3508f090 	ori	t0,t0,0xf090
bfc018b8:	24090000 	li	t1,0
bfc018bc:	01098020 	add	s0,t0,t1
bfc018c0:	3c12abef 	lui	s2,0xabef
bfc018c4:	3652f090 	ori	s2,s2,0xf090
bfc018c8:	16120230 	bne	s0,s2,bfc0218c <inst_error>
bfc018cc:	00000000 	nop
bfc018d0:	3c084ca3 	lui	t0,0x4ca3
bfc018d4:	350887b5 	ori	t0,t0,0x87b5
bfc018d8:	24090000 	li	t1,0
bfc018dc:	01098020 	add	s0,t0,t1
bfc018e0:	3c124ca3 	lui	s2,0x4ca3
bfc018e4:	365287b5 	ori	s2,s2,0x87b5
bfc018e8:	16120228 	bne	s0,s2,bfc0218c <inst_error>
bfc018ec:	00000000 	nop
bfc018f0:	3c08fb35 	lui	t0,0xfb35
bfc018f4:	35085d54 	ori	t0,t0,0x5d54
bfc018f8:	24090000 	li	t1,0
bfc018fc:	01098020 	add	s0,t0,t1
bfc01900:	3c12fb35 	lui	s2,0xfb35
bfc01904:	36525d54 	ori	s2,s2,0x5d54
bfc01908:	16120220 	bne	s0,s2,bfc0218c <inst_error>
bfc0190c:	00000000 	nop
bfc01910:	3c088f71 	lui	t0,0x8f71
bfc01914:	35089220 	ori	t0,t0,0x9220
bfc01918:	24090000 	li	t1,0
bfc0191c:	01098020 	add	s0,t0,t1
bfc01920:	3c128f71 	lui	s2,0x8f71
bfc01924:	36529220 	ori	s2,s2,0x9220
bfc01928:	16120218 	bne	s0,s2,bfc0218c <inst_error>
bfc0192c:	00000000 	nop
bfc01930:	3c086310 	lui	t0,0x6310
bfc01934:	35081805 	ori	t0,t0,0x1805
bfc01938:	24090000 	li	t1,0
bfc0193c:	01098020 	add	s0,t0,t1
bfc01940:	3c126310 	lui	s2,0x6310
bfc01944:	36521805 	ori	s2,s2,0x1805
bfc01948:	16120210 	bne	s0,s2,bfc0218c <inst_error>
bfc0194c:	00000000 	nop
bfc01950:	3c088f8a 	lui	t0,0x8f8a
bfc01954:	35089c94 	ori	t0,t0,0x9c94
bfc01958:	24090000 	li	t1,0
bfc0195c:	01098020 	add	s0,t0,t1
bfc01960:	3c128f8a 	lui	s2,0x8f8a
bfc01964:	36529c94 	ori	s2,s2,0x9c94
bfc01968:	16120208 	bne	s0,s2,bfc0218c <inst_error>
bfc0196c:	00000000 	nop
bfc01970:	3c08c0f0 	lui	t0,0xc0f0
bfc01974:	3508e740 	ori	t0,t0,0xe740
bfc01978:	24090000 	li	t1,0
bfc0197c:	01098020 	add	s0,t0,t1
bfc01980:	3c12c0f0 	lui	s2,0xc0f0
bfc01984:	3652e740 	ori	s2,s2,0xe740
bfc01988:	16120200 	bne	s0,s2,bfc0218c <inst_error>
bfc0198c:	00000000 	nop
bfc01990:	3c08e02a 	lui	t0,0xe02a
bfc01994:	350841e0 	ori	t0,t0,0x41e0
bfc01998:	24090000 	li	t1,0
bfc0199c:	01098020 	add	s0,t0,t1
bfc019a0:	3c12e02a 	lui	s2,0xe02a
bfc019a4:	365241e0 	ori	s2,s2,0x41e0
bfc019a8:	161201f8 	bne	s0,s2,bfc0218c <inst_error>
bfc019ac:	00000000 	nop
bfc019b0:	3c087b59 	lui	t0,0x7b59
bfc019b4:	35081a80 	ori	t0,t0,0x1a80
bfc019b8:	24090000 	li	t1,0
bfc019bc:	01098020 	add	s0,t0,t1
bfc019c0:	3c127b59 	lui	s2,0x7b59
bfc019c4:	36521a80 	ori	s2,s2,0x1a80
bfc019c8:	161201f0 	bne	s0,s2,bfc0218c <inst_error>
bfc019cc:	00000000 	nop
bfc019d0:	3c08e56d 	lui	t0,0xe56d
bfc019d4:	3508f940 	ori	t0,t0,0xf940
bfc019d8:	24090000 	li	t1,0
bfc019dc:	01098020 	add	s0,t0,t1
bfc019e0:	3c12e56d 	lui	s2,0xe56d
bfc019e4:	3652f940 	ori	s2,s2,0xf940
bfc019e8:	161201e8 	bne	s0,s2,bfc0218c <inst_error>
bfc019ec:	00000000 	nop
bfc019f0:	3c087e0e 	lui	t0,0x7e0e
bfc019f4:	35081b60 	ori	t0,t0,0x1b60
bfc019f8:	24090000 	li	t1,0
bfc019fc:	01098020 	add	s0,t0,t1
bfc01a00:	3c127e0e 	lui	s2,0x7e0e
bfc01a04:	36521b60 	ori	s2,s2,0x1b60
bfc01a08:	161201e0 	bne	s0,s2,bfc0218c <inst_error>
bfc01a0c:	00000000 	nop
bfc01a10:	3c084d39 	lui	t0,0x4d39
bfc01a14:	3508ef10 	ori	t0,t0,0xef10
bfc01a18:	24090000 	li	t1,0
bfc01a1c:	01098020 	add	s0,t0,t1
bfc01a20:	3c124d39 	lui	s2,0x4d39
bfc01a24:	3652ef10 	ori	s2,s2,0xef10
bfc01a28:	161201d8 	bne	s0,s2,bfc0218c <inst_error>
bfc01a2c:	00000000 	nop
bfc01a30:	3c0840ca 	lui	t0,0x40ca
bfc01a34:	350880c8 	ori	t0,t0,0x80c8
bfc01a38:	24090000 	li	t1,0
bfc01a3c:	01098020 	add	s0,t0,t1
bfc01a40:	3c1240ca 	lui	s2,0x40ca
bfc01a44:	365280c8 	ori	s2,s2,0x80c8
bfc01a48:	161201d0 	bne	s0,s2,bfc0218c <inst_error>
bfc01a4c:	00000000 	nop
bfc01a50:	3c08dd07 	lui	t0,0xdd07
bfc01a54:	35080424 	ori	t0,t0,0x424
bfc01a58:	24090000 	li	t1,0
bfc01a5c:	01098020 	add	s0,t0,t1
bfc01a60:	3c12dd07 	lui	s2,0xdd07
bfc01a64:	36520424 	ori	s2,s2,0x424
bfc01a68:	161201c8 	bne	s0,s2,bfc0218c <inst_error>
bfc01a6c:	00000000 	nop
bfc01a70:	3c08d8f7 	lui	t0,0xd8f7
bfc01a74:	35088190 	ori	t0,t0,0x8190
bfc01a78:	24090000 	li	t1,0
bfc01a7c:	01098020 	add	s0,t0,t1
bfc01a80:	3c12d8f7 	lui	s2,0xd8f7
bfc01a84:	36528190 	ori	s2,s2,0x8190
bfc01a88:	161201c0 	bne	s0,s2,bfc0218c <inst_error>
bfc01a8c:	00000000 	nop
bfc01a90:	3c08b891 	lui	t0,0xb891
bfc01a94:	35084282 	ori	t0,t0,0x4282
bfc01a98:	24090000 	li	t1,0
bfc01a9c:	01098020 	add	s0,t0,t1
bfc01aa0:	3c12b891 	lui	s2,0xb891
bfc01aa4:	36524282 	ori	s2,s2,0x4282
bfc01aa8:	161201b8 	bne	s0,s2,bfc0218c <inst_error>
bfc01aac:	00000000 	nop
bfc01ab0:	3c0860d9 	lui	t0,0x60d9
bfc01ab4:	3508761c 	ori	t0,t0,0x761c
bfc01ab8:	24090000 	li	t1,0
bfc01abc:	01098020 	add	s0,t0,t1
bfc01ac0:	3c1260d9 	lui	s2,0x60d9
bfc01ac4:	3652761c 	ori	s2,s2,0x761c
bfc01ac8:	161201b0 	bne	s0,s2,bfc0218c <inst_error>
bfc01acc:	00000000 	nop
bfc01ad0:	3c0816d7 	lui	t0,0x16d7
bfc01ad4:	3508c65c 	ori	t0,t0,0xc65c
bfc01ad8:	24090000 	li	t1,0
bfc01adc:	01098020 	add	s0,t0,t1
bfc01ae0:	3c1216d7 	lui	s2,0x16d7
bfc01ae4:	3652c65c 	ori	s2,s2,0xc65c
bfc01ae8:	161201a8 	bne	s0,s2,bfc0218c <inst_error>
bfc01aec:	00000000 	nop
bfc01af0:	3c086b74 	lui	t0,0x6b74
bfc01af4:	35080588 	ori	t0,t0,0x588
bfc01af8:	24090000 	li	t1,0
bfc01afc:	01098020 	add	s0,t0,t1
bfc01b00:	3c126b74 	lui	s2,0x6b74
bfc01b04:	36520588 	ori	s2,s2,0x588
bfc01b08:	161201a0 	bne	s0,s2,bfc0218c <inst_error>
bfc01b0c:	00000000 	nop
bfc01b10:	3c0825e5 	lui	t0,0x25e5
bfc01b14:	3508fad8 	ori	t0,t0,0xfad8
bfc01b18:	24090000 	li	t1,0
bfc01b1c:	01098020 	add	s0,t0,t1
bfc01b20:	3c1225e5 	lui	s2,0x25e5
bfc01b24:	3652fad8 	ori	s2,s2,0xfad8
bfc01b28:	16120198 	bne	s0,s2,bfc0218c <inst_error>
bfc01b2c:	00000000 	nop
bfc01b30:	24080000 	li	t0,0
bfc01b34:	3c09dcaf 	lui	t1,0xdcaf
bfc01b38:	35295e62 	ori	t1,t1,0x5e62
bfc01b3c:	01098020 	add	s0,t0,t1
bfc01b40:	3c12dcaf 	lui	s2,0xdcaf
bfc01b44:	36525e62 	ori	s2,s2,0x5e62
bfc01b48:	16120190 	bne	s0,s2,bfc0218c <inst_error>
bfc01b4c:	00000000 	nop
bfc01b50:	24080000 	li	t0,0
bfc01b54:	3c099cce 	lui	t1,0x9cce
bfc01b58:	3529c250 	ori	t1,t1,0xc250
bfc01b5c:	01098020 	add	s0,t0,t1
bfc01b60:	3c129cce 	lui	s2,0x9cce
bfc01b64:	3652c250 	ori	s2,s2,0xc250
bfc01b68:	16120188 	bne	s0,s2,bfc0218c <inst_error>
bfc01b6c:	00000000 	nop
bfc01b70:	24080000 	li	t0,0
bfc01b74:	3c0927e3 	lui	t1,0x27e3
bfc01b78:	35298688 	ori	t1,t1,0x8688
bfc01b7c:	01098020 	add	s0,t0,t1
bfc01b80:	3c1227e3 	lui	s2,0x27e3
bfc01b84:	36528688 	ori	s2,s2,0x8688
bfc01b88:	16120180 	bne	s0,s2,bfc0218c <inst_error>
bfc01b8c:	00000000 	nop
bfc01b90:	24080000 	li	t0,0
bfc01b94:	3c0927e8 	lui	t1,0x27e8
bfc01b98:	3529ccbe 	ori	t1,t1,0xccbe
bfc01b9c:	01098020 	add	s0,t0,t1
bfc01ba0:	3c1227e8 	lui	s2,0x27e8
bfc01ba4:	3652ccbe 	ori	s2,s2,0xccbe
bfc01ba8:	16120178 	bne	s0,s2,bfc0218c <inst_error>
bfc01bac:	00000000 	nop
bfc01bb0:	24080000 	li	t0,0
bfc01bb4:	3c09c57d 	lui	t1,0xc57d
bfc01bb8:	3529bed0 	ori	t1,t1,0xbed0
bfc01bbc:	01098020 	add	s0,t0,t1
bfc01bc0:	3c12c57d 	lui	s2,0xc57d
bfc01bc4:	3652bed0 	ori	s2,s2,0xbed0
bfc01bc8:	16120170 	bne	s0,s2,bfc0218c <inst_error>
bfc01bcc:	00000000 	nop
bfc01bd0:	24080000 	li	t0,0
bfc01bd4:	3c09fd86 	lui	t1,0xfd86
bfc01bd8:	352988df 	ori	t1,t1,0x88df
bfc01bdc:	01098020 	add	s0,t0,t1
bfc01be0:	3c12fd86 	lui	s2,0xfd86
bfc01be4:	365288df 	ori	s2,s2,0x88df
bfc01be8:	16120168 	bne	s0,s2,bfc0218c <inst_error>
bfc01bec:	00000000 	nop
bfc01bf0:	24080000 	li	t0,0
bfc01bf4:	3c096571 	lui	t1,0x6571
bfc01bf8:	3529faf7 	ori	t1,t1,0xfaf7
bfc01bfc:	01098020 	add	s0,t0,t1
bfc01c00:	3c126571 	lui	s2,0x6571
bfc01c04:	3652faf7 	ori	s2,s2,0xfaf7
bfc01c08:	16120160 	bne	s0,s2,bfc0218c <inst_error>
bfc01c0c:	00000000 	nop
bfc01c10:	24080000 	li	t0,0
bfc01c14:	3c093318 	lui	t1,0x3318
bfc01c18:	352984e0 	ori	t1,t1,0x84e0
bfc01c1c:	01098020 	add	s0,t0,t1
bfc01c20:	3c123318 	lui	s2,0x3318
bfc01c24:	365284e0 	ori	s2,s2,0x84e0
bfc01c28:	16120158 	bne	s0,s2,bfc0218c <inst_error>
bfc01c2c:	00000000 	nop
bfc01c30:	24080000 	li	t0,0
bfc01c34:	3c09cc69 	lui	t1,0xcc69
bfc01c38:	35297f17 	ori	t1,t1,0x7f17
bfc01c3c:	01098020 	add	s0,t0,t1
bfc01c40:	3c12cc69 	lui	s2,0xcc69
bfc01c44:	36527f17 	ori	s2,s2,0x7f17
bfc01c48:	16120150 	bne	s0,s2,bfc0218c <inst_error>
bfc01c4c:	00000000 	nop
bfc01c50:	24080000 	li	t0,0
bfc01c54:	3c091d11 	lui	t1,0x1d11
bfc01c58:	35299540 	ori	t1,t1,0x9540
bfc01c5c:	01098020 	add	s0,t0,t1
bfc01c60:	3c121d11 	lui	s2,0x1d11
bfc01c64:	36529540 	ori	s2,s2,0x9540
bfc01c68:	16120148 	bne	s0,s2,bfc0218c <inst_error>
bfc01c6c:	00000000 	nop
bfc01c70:	24080000 	li	t0,0
bfc01c74:	3c09f38b 	lui	t1,0xf38b
bfc01c78:	35291eb4 	ori	t1,t1,0x1eb4
bfc01c7c:	01098020 	add	s0,t0,t1
bfc01c80:	3c12f38b 	lui	s2,0xf38b
bfc01c84:	36521eb4 	ori	s2,s2,0x1eb4
bfc01c88:	16120140 	bne	s0,s2,bfc0218c <inst_error>
bfc01c8c:	00000000 	nop
bfc01c90:	24080000 	li	t0,0
bfc01c94:	3c09b111 	lui	t1,0xb111
bfc01c98:	35291f18 	ori	t1,t1,0x1f18
bfc01c9c:	01098020 	add	s0,t0,t1
bfc01ca0:	3c12b111 	lui	s2,0xb111
bfc01ca4:	36521f18 	ori	s2,s2,0x1f18
bfc01ca8:	16120138 	bne	s0,s2,bfc0218c <inst_error>
bfc01cac:	00000000 	nop
bfc01cb0:	24080000 	li	t0,0
bfc01cb4:	3c095af9 	lui	t1,0x5af9
bfc01cb8:	3529ecd2 	ori	t1,t1,0xecd2
bfc01cbc:	01098020 	add	s0,t0,t1
bfc01cc0:	3c125af9 	lui	s2,0x5af9
bfc01cc4:	3652ecd2 	ori	s2,s2,0xecd2
bfc01cc8:	16120130 	bne	s0,s2,bfc0218c <inst_error>
bfc01ccc:	00000000 	nop
bfc01cd0:	24080000 	li	t0,0
bfc01cd4:	3c095c50 	lui	t1,0x5c50
bfc01cd8:	35291b02 	ori	t1,t1,0x1b02
bfc01cdc:	01098020 	add	s0,t0,t1
bfc01ce0:	3c125c50 	lui	s2,0x5c50
bfc01ce4:	36521b02 	ori	s2,s2,0x1b02
bfc01ce8:	16120128 	bne	s0,s2,bfc0218c <inst_error>
bfc01cec:	00000000 	nop
bfc01cf0:	24080000 	li	t0,0
bfc01cf4:	3c095f79 	lui	t1,0x5f79
bfc01cf8:	35295d74 	ori	t1,t1,0x5d74
bfc01cfc:	01098020 	add	s0,t0,t1
bfc01d00:	3c125f79 	lui	s2,0x5f79
bfc01d04:	36525d74 	ori	s2,s2,0x5d74
bfc01d08:	16120120 	bne	s0,s2,bfc0218c <inst_error>
bfc01d0c:	00000000 	nop
bfc01d10:	24080000 	li	t0,0
bfc01d14:	3c096798 	lui	t1,0x6798
bfc01d18:	35297f80 	ori	t1,t1,0x7f80
bfc01d1c:	01098020 	add	s0,t0,t1
bfc01d20:	3c126798 	lui	s2,0x6798
bfc01d24:	36527f80 	ori	s2,s2,0x7f80
bfc01d28:	16120118 	bne	s0,s2,bfc0218c <inst_error>
bfc01d2c:	00000000 	nop
bfc01d30:	24080000 	li	t0,0
bfc01d34:	3c09fbe5 	lui	t1,0xfbe5
bfc01d38:	35298fce 	ori	t1,t1,0x8fce
bfc01d3c:	01098020 	add	s0,t0,t1
bfc01d40:	3c12fbe5 	lui	s2,0xfbe5
bfc01d44:	36528fce 	ori	s2,s2,0x8fce
bfc01d48:	16120110 	bne	s0,s2,bfc0218c <inst_error>
bfc01d4c:	00000000 	nop
bfc01d50:	24080000 	li	t0,0
bfc01d54:	3c09371c 	lui	t1,0x371c
bfc01d58:	3529f200 	ori	t1,t1,0xf200
bfc01d5c:	01098020 	add	s0,t0,t1
bfc01d60:	3c12371c 	lui	s2,0x371c
bfc01d64:	3652f200 	ori	s2,s2,0xf200
bfc01d68:	16120108 	bne	s0,s2,bfc0218c <inst_error>
bfc01d6c:	00000000 	nop
bfc01d70:	24080000 	li	t0,0
bfc01d74:	3c099a22 	lui	t1,0x9a22
bfc01d78:	3529a180 	ori	t1,t1,0xa180
bfc01d7c:	01098020 	add	s0,t0,t1
bfc01d80:	3c129a22 	lui	s2,0x9a22
bfc01d84:	3652a180 	ori	s2,s2,0xa180
bfc01d88:	16120100 	bne	s0,s2,bfc0218c <inst_error>
bfc01d8c:	00000000 	nop
bfc01d90:	24080000 	li	t0,0
bfc01d94:	3c093517 	lui	t1,0x3517
bfc01d98:	3529fe00 	ori	t1,t1,0xfe00
bfc01d9c:	01098020 	add	s0,t0,t1
bfc01da0:	3c123517 	lui	s2,0x3517
bfc01da4:	3652fe00 	ori	s2,s2,0xfe00
bfc01da8:	161200f8 	bne	s0,s2,bfc0218c <inst_error>
bfc01dac:	00000000 	nop
bfc01db0:	24080000 	li	t0,0
bfc01db4:	3c0902a0 	lui	t1,0x2a0
bfc01db8:	352979e0 	ori	t1,t1,0x79e0
bfc01dbc:	01098020 	add	s0,t0,t1
bfc01dc0:	3c1202a0 	lui	s2,0x2a0
bfc01dc4:	365279e0 	ori	s2,s2,0x79e0
bfc01dc8:	161200f0 	bne	s0,s2,bfc0218c <inst_error>
bfc01dcc:	00000000 	nop
bfc01dd0:	24080000 	li	t0,0
bfc01dd4:	3c09de7e 	lui	t1,0xde7e
bfc01dd8:	352972e0 	ori	t1,t1,0x72e0
bfc01ddc:	01098020 	add	s0,t0,t1
bfc01de0:	3c12de7e 	lui	s2,0xde7e
bfc01de4:	365272e0 	ori	s2,s2,0x72e0
bfc01de8:	161200e8 	bne	s0,s2,bfc0218c <inst_error>
bfc01dec:	00000000 	nop
bfc01df0:	24080000 	li	t0,0
bfc01df4:	3c09688c 	lui	t1,0x688c
bfc01df8:	35299aae 	ori	t1,t1,0x9aae
bfc01dfc:	01098020 	add	s0,t0,t1
bfc01e00:	3c12688c 	lui	s2,0x688c
bfc01e04:	36529aae 	ori	s2,s2,0x9aae
bfc01e08:	161200e0 	bne	s0,s2,bfc0218c <inst_error>
bfc01e0c:	00000000 	nop
bfc01e10:	24080000 	li	t0,0
bfc01e14:	3c09927d 	lui	t1,0x927d
bfc01e18:	3529ba60 	ori	t1,t1,0xba60
bfc01e1c:	01098020 	add	s0,t0,t1
bfc01e20:	3c12927d 	lui	s2,0x927d
bfc01e24:	3652ba60 	ori	s2,s2,0xba60
bfc01e28:	161200d8 	bne	s0,s2,bfc0218c <inst_error>
bfc01e2c:	00000000 	nop
bfc01e30:	24080000 	li	t0,0
bfc01e34:	3c094339 	lui	t1,0x4339
bfc01e38:	352939c8 	ori	t1,t1,0x39c8
bfc01e3c:	01098020 	add	s0,t0,t1
bfc01e40:	3c124339 	lui	s2,0x4339
bfc01e44:	365239c8 	ori	s2,s2,0x39c8
bfc01e48:	161200d0 	bne	s0,s2,bfc0218c <inst_error>
bfc01e4c:	00000000 	nop
bfc01e50:	24080000 	li	t0,0
bfc01e54:	3c09a68c 	lui	t1,0xa68c
bfc01e58:	35299b88 	ori	t1,t1,0x9b88
bfc01e5c:	01098020 	add	s0,t0,t1
bfc01e60:	3c12a68c 	lui	s2,0xa68c
bfc01e64:	36529b88 	ori	s2,s2,0x9b88
bfc01e68:	161200c8 	bne	s0,s2,bfc0218c <inst_error>
bfc01e6c:	00000000 	nop
bfc01e70:	24080000 	li	t0,0
bfc01e74:	3c09fe36 	lui	t1,0xfe36
bfc01e78:	35295800 	ori	t1,t1,0x5800
bfc01e7c:	01098020 	add	s0,t0,t1
bfc01e80:	3c12fe36 	lui	s2,0xfe36
bfc01e84:	36525800 	ori	s2,s2,0x5800
bfc01e88:	161200c0 	bne	s0,s2,bfc0218c <inst_error>
bfc01e8c:	00000000 	nop
bfc01e90:	24080000 	li	t0,0
bfc01e94:	3c09a258 	lui	t1,0xa258
bfc01e98:	35299558 	ori	t1,t1,0x9558
bfc01e9c:	01098020 	add	s0,t0,t1
bfc01ea0:	3c12a258 	lui	s2,0xa258
bfc01ea4:	36529558 	ori	s2,s2,0x9558
bfc01ea8:	161200b8 	bne	s0,s2,bfc0218c <inst_error>
bfc01eac:	00000000 	nop
bfc01eb0:	24080000 	li	t0,0
bfc01eb4:	3c09a280 	lui	t1,0xa280
bfc01eb8:	3529193c 	ori	t1,t1,0x193c
bfc01ebc:	01098020 	add	s0,t0,t1
bfc01ec0:	3c12a280 	lui	s2,0xa280
bfc01ec4:	3652193c 	ori	s2,s2,0x193c
bfc01ec8:	161200b0 	bne	s0,s2,bfc0218c <inst_error>
bfc01ecc:	00000000 	nop
bfc01ed0:	24080000 	li	t0,0
bfc01ed4:	3c096ba8 	lui	t1,0x6ba8
bfc01ed8:	3529a1e0 	ori	t1,t1,0xa1e0
bfc01edc:	01098020 	add	s0,t0,t1
bfc01ee0:	3c126ba8 	lui	s2,0x6ba8
bfc01ee4:	3652a1e0 	ori	s2,s2,0xa1e0
bfc01ee8:	161200a8 	bne	s0,s2,bfc0218c <inst_error>
bfc01eec:	00000000 	nop
bfc01ef0:	24080000 	li	t0,0
bfc01ef4:	3c093a7d 	lui	t1,0x3a7d
bfc01ef8:	35292c54 	ori	t1,t1,0x2c54
bfc01efc:	01098020 	add	s0,t0,t1
bfc01f00:	3c123a7d 	lui	s2,0x3a7d
bfc01f04:	36522c54 	ori	s2,s2,0x2c54
bfc01f08:	161200a0 	bne	s0,s2,bfc0218c <inst_error>
bfc01f0c:	00000000 	nop
bfc01f10:	24080000 	li	t0,0
bfc01f14:	3c093a76 	lui	t1,0x3a76
bfc01f18:	35290f50 	ori	t1,t1,0xf50
bfc01f1c:	01098020 	add	s0,t0,t1
bfc01f20:	3c123a76 	lui	s2,0x3a76
bfc01f24:	36520f50 	ori	s2,s2,0xf50
bfc01f28:	16120098 	bne	s0,s2,bfc0218c <inst_error>
bfc01f2c:	00000000 	nop
bfc01f30:	24080000 	li	t0,0
bfc01f34:	3c09265c 	lui	t1,0x265c
bfc01f38:	35291a47 	ori	t1,t1,0x1a47
bfc01f3c:	01098020 	add	s0,t0,t1
bfc01f40:	3c12265c 	lui	s2,0x265c
bfc01f44:	36521a47 	ori	s2,s2,0x1a47
bfc01f48:	16120090 	bne	s0,s2,bfc0218c <inst_error>
bfc01f4c:	00000000 	nop
bfc01f50:	24080000 	li	t0,0
bfc01f54:	3c092ab3 	lui	t1,0x2ab3
bfc01f58:	35291958 	ori	t1,t1,0x1958
bfc01f5c:	01098020 	add	s0,t0,t1
bfc01f60:	3c122ab3 	lui	s2,0x2ab3
bfc01f64:	36521958 	ori	s2,s2,0x1958
bfc01f68:	16120088 	bne	s0,s2,bfc0218c <inst_error>
bfc01f6c:	00000000 	nop
bfc01f70:	24080000 	li	t0,0
bfc01f74:	3c09641e 	lui	t1,0x641e
bfc01f78:	35296088 	ori	t1,t1,0x6088
bfc01f7c:	01098020 	add	s0,t0,t1
bfc01f80:	3c12641e 	lui	s2,0x641e
bfc01f84:	36526088 	ori	s2,s2,0x6088
bfc01f88:	16120080 	bne	s0,s2,bfc0218c <inst_error>
bfc01f8c:	00000000 	nop
bfc01f90:	24080000 	li	t0,0
bfc01f94:	3c09c5bc 	lui	t1,0xc5bc
bfc01f98:	3529dbdb 	ori	t1,t1,0xdbdb
bfc01f9c:	01098020 	add	s0,t0,t1
bfc01fa0:	3c12c5bc 	lui	s2,0xc5bc
bfc01fa4:	3652dbdb 	ori	s2,s2,0xdbdb
bfc01fa8:	16120078 	bne	s0,s2,bfc0218c <inst_error>
bfc01fac:	00000000 	nop
bfc01fb0:	24080000 	li	t0,0
bfc01fb4:	3c09beed 	lui	t1,0xbeed
bfc01fb8:	352903d0 	ori	t1,t1,0x3d0
bfc01fbc:	01098020 	add	s0,t0,t1
bfc01fc0:	3c12beed 	lui	s2,0xbeed
bfc01fc4:	365203d0 	ori	s2,s2,0x3d0
bfc01fc8:	16120070 	bne	s0,s2,bfc0218c <inst_error>
bfc01fcc:	00000000 	nop
bfc01fd0:	24080000 	li	t0,0
bfc01fd4:	3c092377 	lui	t1,0x2377
bfc01fd8:	3529b600 	ori	t1,t1,0xb600
bfc01fdc:	01098020 	add	s0,t0,t1
bfc01fe0:	3c122377 	lui	s2,0x2377
bfc01fe4:	3652b600 	ori	s2,s2,0xb600
bfc01fe8:	16120068 	bne	s0,s2,bfc0218c <inst_error>
bfc01fec:	00000000 	nop
bfc01ff0:	24080000 	li	t0,0
bfc01ff4:	3c09f99a 	lui	t1,0xf99a
bfc01ff8:	35293d40 	ori	t1,t1,0x3d40
bfc01ffc:	01098020 	add	s0,t0,t1
bfc02000:	3c12f99a 	lui	s2,0xf99a
bfc02004:	36523d40 	ori	s2,s2,0x3d40
bfc02008:	16120060 	bne	s0,s2,bfc0218c <inst_error>
bfc0200c:	00000000 	nop
bfc02010:	24080000 	li	t0,0
bfc02014:	3c09e005 	lui	t1,0xe005
bfc02018:	3529c4ac 	ori	t1,t1,0xc4ac
bfc0201c:	01098020 	add	s0,t0,t1
bfc02020:	3c12e005 	lui	s2,0xe005
bfc02024:	3652c4ac 	ori	s2,s2,0xc4ac
bfc02028:	16120058 	bne	s0,s2,bfc0218c <inst_error>
bfc0202c:	00000000 	nop
bfc02030:	24080000 	li	t0,0
bfc02034:	3c09ea36 	lui	t1,0xea36
bfc02038:	3529e54f 	ori	t1,t1,0xe54f
bfc0203c:	01098020 	add	s0,t0,t1
bfc02040:	3c12ea36 	lui	s2,0xea36
bfc02044:	3652e54f 	ori	s2,s2,0xe54f
bfc02048:	16120050 	bne	s0,s2,bfc0218c <inst_error>
bfc0204c:	00000000 	nop
bfc02050:	24080000 	li	t0,0
bfc02054:	3c092c7e 	lui	t1,0x2c7e
bfc02058:	3529f160 	ori	t1,t1,0xf160
bfc0205c:	01098020 	add	s0,t0,t1
bfc02060:	3c122c7e 	lui	s2,0x2c7e
bfc02064:	3652f160 	ori	s2,s2,0xf160
bfc02068:	16120048 	bne	s0,s2,bfc0218c <inst_error>
bfc0206c:	00000000 	nop
bfc02070:	24080000 	li	t0,0
bfc02074:	3c099f35 	lui	t1,0x9f35
bfc02078:	35294ce8 	ori	t1,t1,0x4ce8
bfc0207c:	01098020 	add	s0,t0,t1
bfc02080:	3c129f35 	lui	s2,0x9f35
bfc02084:	36524ce8 	ori	s2,s2,0x4ce8
bfc02088:	16120040 	bne	s0,s2,bfc0218c <inst_error>
bfc0208c:	00000000 	nop
bfc02090:	24080000 	li	t0,0
bfc02094:	3c09a5ea 	lui	t1,0xa5ea
bfc02098:	35291069 	ori	t1,t1,0x1069
bfc0209c:	01098020 	add	s0,t0,t1
bfc020a0:	3c12a5ea 	lui	s2,0xa5ea
bfc020a4:	36521069 	ori	s2,s2,0x1069
bfc020a8:	16120038 	bne	s0,s2,bfc0218c <inst_error>
bfc020ac:	00000000 	nop
bfc020b0:	24080000 	li	t0,0
bfc020b4:	3c09d1ee 	lui	t1,0xd1ee
bfc020b8:	35290242 	ori	t1,t1,0x242
bfc020bc:	01098020 	add	s0,t0,t1
bfc020c0:	3c12d1ee 	lui	s2,0xd1ee
bfc020c4:	36520242 	ori	s2,s2,0x242
bfc020c8:	16120030 	bne	s0,s2,bfc0218c <inst_error>
bfc020cc:	00000000 	nop
bfc020d0:	24080000 	li	t0,0
bfc020d4:	3c091fc6 	lui	t1,0x1fc6
bfc020d8:	35290cf8 	ori	t1,t1,0xcf8
bfc020dc:	01098020 	add	s0,t0,t1
bfc020e0:	3c121fc6 	lui	s2,0x1fc6
bfc020e4:	36520cf8 	ori	s2,s2,0xcf8
bfc020e8:	16120028 	bne	s0,s2,bfc0218c <inst_error>
bfc020ec:	00000000 	nop
bfc020f0:	24080000 	li	t0,0
bfc020f4:	3c090f1b 	lui	t1,0xf1b
bfc020f8:	35294000 	ori	t1,t1,0x4000
bfc020fc:	01098020 	add	s0,t0,t1
bfc02100:	3c120f1b 	lui	s2,0xf1b
bfc02104:	36524000 	ori	s2,s2,0x4000
bfc02108:	16120020 	bne	s0,s2,bfc0218c <inst_error>
bfc0210c:	00000000 	nop
bfc02110:	24080000 	li	t0,0
bfc02114:	3c09201c 	lui	t1,0x201c
bfc02118:	3529dee8 	ori	t1,t1,0xdee8
bfc0211c:	01098020 	add	s0,t0,t1
bfc02120:	3c12201c 	lui	s2,0x201c
bfc02124:	3652dee8 	ori	s2,s2,0xdee8
bfc02128:	16120018 	bne	s0,s2,bfc0218c <inst_error>
bfc0212c:	00000000 	nop
bfc02130:	24080000 	li	t0,0
bfc02134:	3c0931c1 	lui	t1,0x31c1
bfc02138:	35294954 	ori	t1,t1,0x4954
bfc0213c:	01098020 	add	s0,t0,t1
bfc02140:	3c1231c1 	lui	s2,0x31c1
bfc02144:	36524954 	ori	s2,s2,0x4954
bfc02148:	16120010 	bne	s0,s2,bfc0218c <inst_error>
bfc0214c:	00000000 	nop
bfc02150:	24080000 	li	t0,0
bfc02154:	3c096e70 	lui	t1,0x6e70
bfc02158:	35291f70 	ori	t1,t1,0x1f70
bfc0215c:	01098020 	add	s0,t0,t1
bfc02160:	3c126e70 	lui	s2,0x6e70
bfc02164:	36521f70 	ori	s2,s2,0x1f70
bfc02168:	16120008 	bne	s0,s2,bfc0218c <inst_error>
bfc0216c:	00000000 	nop
bfc02170:	24080000 	li	t0,0
bfc02174:	24090000 	li	t1,0
bfc02178:	01098020 	add	s0,t0,t1
bfc0217c:	24120000 	li	s2,0
bfc02180:	16120002 	bne	s0,s2,bfc0218c <inst_error>
bfc02184:	00000000 	nop
bfc02188:	4a000000 	c2	0x0

bfc0218c <inst_error>:
inst_error():
bfc0218c:	0000003f 	0x3f

Disassembly of section .reginfo:

00000000 <.reginfo>:
   0:	00050300 	sll	zero,a1,0xc
	...
