
build/addi:     file format elf32-tradlittlemips
build/addi


Disassembly of section .text:

bfc00000 <main>:
bfc00000:	24080001 	li	t0,1
bfc00004:	24090002 	li	t1,2
bfc00008:	21100002 	addi	s0,t0,2
bfc0000c:	24120003 	li	s2,3
bfc00010:	16120904 	bne	s0,s2,bfc02424 <inst_error>
bfc00014:	00000000 	nop
bfc00018:	3c080151 	lui	t0,0x151
bfc0001c:	3508e5c0 	ori	t0,t0,0xe5c0
bfc00020:	3409b945 	li	t1,0xb945
bfc00024:	2110b945 	addi	s0,t0,-18107
bfc00028:	3c120151 	lui	s2,0x151
bfc0002c:	36529f05 	ori	s2,s2,0x9f05
bfc00030:	161208fc 	bne	s0,s2,bfc02424 <inst_error>
bfc00034:	00000000 	nop
bfc00038:	3c086482 	lui	t0,0x6482
bfc0003c:	35081568 	ori	t0,t0,0x1568
bfc00040:	3409e423 	li	t1,0xe423
bfc00044:	2110e423 	addi	s0,t0,-7133
bfc00048:	3c126481 	lui	s2,0x6481
bfc0004c:	3652f98b 	ori	s2,s2,0xf98b
bfc00050:	161208f4 	bne	s0,s2,bfc02424 <inst_error>
bfc00054:	00000000 	nop
bfc00058:	3c08f487 	lui	t0,0xf487
bfc0005c:	35086ad2 	ori	t0,t0,0x6ad2
bfc00060:	3409bd20 	li	t1,0xbd20
bfc00064:	2110bd20 	addi	s0,t0,-17120
bfc00068:	3c12f487 	lui	s2,0xf487
bfc0006c:	365227f2 	ori	s2,s2,0x27f2
bfc00070:	161208ec 	bne	s0,s2,bfc02424 <inst_error>
bfc00074:	00000000 	nop
bfc00078:	3c081fea 	lui	t0,0x1fea
bfc0007c:	35084dca 	ori	t0,t0,0x4dca
bfc00080:	24091b08 	li	t1,6920
bfc00084:	21101b08 	addi	s0,t0,6920
bfc00088:	3c121fea 	lui	s2,0x1fea
bfc0008c:	365268d2 	ori	s2,s2,0x68d2
bfc00090:	161208e4 	bne	s0,s2,bfc02424 <inst_error>
bfc00094:	00000000 	nop
bfc00098:	3c08a139 	lui	t0,0xa139
bfc0009c:	3508a6db 	ori	t0,t0,0xa6db
bfc000a0:	2409039c 	li	t1,924
bfc000a4:	2110039c 	addi	s0,t0,924
bfc000a8:	3c12a139 	lui	s2,0xa139
bfc000ac:	3652aa77 	ori	s2,s2,0xaa77
bfc000b0:	161208dc 	bne	s0,s2,bfc02424 <inst_error>
bfc000b4:	00000000 	nop
bfc000b8:	3c084557 	lui	t0,0x4557
bfc000bc:	35081c50 	ori	t0,t0,0x1c50
bfc000c0:	3409f3a8 	li	t1,0xf3a8
bfc000c4:	2110f3a8 	addi	s0,t0,-3160
bfc000c8:	3c124557 	lui	s2,0x4557
bfc000cc:	36520ff8 	ori	s2,s2,0xff8
bfc000d0:	161208d4 	bne	s0,s2,bfc02424 <inst_error>
bfc000d4:	00000000 	nop
bfc000d8:	3c0851ab 	lui	t0,0x51ab
bfc000dc:	350823a0 	ori	t0,t0,0x23a0
bfc000e0:	3409d270 	li	t1,0xd270
bfc000e4:	2110d270 	addi	s0,t0,-11664
bfc000e8:	3c1251aa 	lui	s2,0x51aa
bfc000ec:	3652f610 	ori	s2,s2,0xf610
bfc000f0:	161208cc 	bne	s0,s2,bfc02424 <inst_error>
bfc000f4:	00000000 	nop
bfc000f8:	3c08d4e4 	lui	t0,0xd4e4
bfc000fc:	35085ee7 	ori	t0,t0,0x5ee7
bfc00100:	24096675 	li	t1,26229
bfc00104:	21106675 	addi	s0,t0,26229
bfc00108:	3c12d4e4 	lui	s2,0xd4e4
bfc0010c:	3652c55c 	ori	s2,s2,0xc55c
bfc00110:	161208c4 	bne	s0,s2,bfc02424 <inst_error>
bfc00114:	00000000 	nop
bfc00118:	3c08d18c 	lui	t0,0xd18c
bfc0011c:	350816f3 	ori	t0,t0,0x16f3
bfc00120:	3409f7a9 	li	t1,0xf7a9
bfc00124:	2110f7a9 	addi	s0,t0,-2135
bfc00128:	3c12d18c 	lui	s2,0xd18c
bfc0012c:	36520e9c 	ori	s2,s2,0xe9c
bfc00130:	161208bc 	bne	s0,s2,bfc02424 <inst_error>
bfc00134:	00000000 	nop
bfc00138:	3c087675 	lui	t0,0x7675
bfc0013c:	3508a804 	ori	t0,t0,0xa804
bfc00140:	34098186 	li	t1,0x8186
bfc00144:	21108186 	addi	s0,t0,-32378
bfc00148:	3c127675 	lui	s2,0x7675
bfc0014c:	3652298a 	ori	s2,s2,0x298a
bfc00150:	161208b4 	bne	s0,s2,bfc02424 <inst_error>
bfc00154:	00000000 	nop
bfc00158:	3c084584 	lui	t0,0x4584
bfc0015c:	350885a8 	ori	t0,t0,0x85a8
bfc00160:	240957a8 	li	t1,22440
bfc00164:	211057a8 	addi	s0,t0,22440
bfc00168:	3c124584 	lui	s2,0x4584
bfc0016c:	3652dd50 	ori	s2,s2,0xdd50
bfc00170:	161208ac 	bne	s0,s2,bfc02424 <inst_error>
bfc00174:	00000000 	nop
bfc00178:	3c0852bd 	lui	t0,0x52bd
bfc0017c:	35088c72 	ori	t0,t0,0x8c72
bfc00180:	240962a0 	li	t1,25248
bfc00184:	211062a0 	addi	s0,t0,25248
bfc00188:	3c1252bd 	lui	s2,0x52bd
bfc0018c:	3652ef12 	ori	s2,s2,0xef12
bfc00190:	161208a4 	bne	s0,s2,bfc02424 <inst_error>
bfc00194:	00000000 	nop
bfc00198:	3c08c96a 	lui	t0,0xc96a
bfc0019c:	3508c0d3 	ori	t0,t0,0xc0d3
bfc001a0:	3409a84a 	li	t1,0xa84a
bfc001a4:	2110a84a 	addi	s0,t0,-22454
bfc001a8:	3c12c96a 	lui	s2,0xc96a
bfc001ac:	3652691d 	ori	s2,s2,0x691d
bfc001b0:	1612089c 	bne	s0,s2,bfc02424 <inst_error>
bfc001b4:	00000000 	nop
bfc001b8:	3c08e9b6 	lui	t0,0xe9b6
bfc001bc:	35088570 	ori	t0,t0,0x8570
bfc001c0:	24096258 	li	t1,25176
bfc001c4:	21106258 	addi	s0,t0,25176
bfc001c8:	3c12e9b6 	lui	s2,0xe9b6
bfc001cc:	3652e7c8 	ori	s2,s2,0xe7c8
bfc001d0:	16120894 	bne	s0,s2,bfc02424 <inst_error>
bfc001d4:	00000000 	nop
bfc001d8:	3c083d8c 	lui	t0,0x3d8c
bfc001dc:	35084400 	ori	t0,t0,0x4400
bfc001e0:	3409c3cd 	li	t1,0xc3cd
bfc001e4:	2110c3cd 	addi	s0,t0,-15411
bfc001e8:	3c123d8c 	lui	s2,0x3d8c
bfc001ec:	365207cd 	ori	s2,s2,0x7cd
bfc001f0:	1612088c 	bne	s0,s2,bfc02424 <inst_error>
bfc001f4:	00000000 	nop
bfc001f8:	3c0867a7 	lui	t0,0x67a7
bfc001fc:	35081a80 	ori	t0,t0,0x1a80
bfc00200:	24095886 	li	t1,22662
bfc00204:	21105886 	addi	s0,t0,22662
bfc00208:	3c1267a7 	lui	s2,0x67a7
bfc0020c:	36527306 	ori	s2,s2,0x7306
bfc00210:	16120884 	bne	s0,s2,bfc02424 <inst_error>
bfc00214:	00000000 	nop
bfc00218:	3c08c4a3 	lui	t0,0xc4a3
bfc0021c:	3508a594 	ori	t0,t0,0xa594
bfc00220:	34098f95 	li	t1,0x8f95
bfc00224:	21108f95 	addi	s0,t0,-28779
bfc00228:	3c12c4a3 	lui	s2,0xc4a3
bfc0022c:	36523529 	ori	s2,s2,0x3529
bfc00230:	1612087c 	bne	s0,s2,bfc02424 <inst_error>
bfc00234:	00000000 	nop
bfc00238:	3c085a7c 	lui	t0,0x5a7c
bfc0023c:	35087374 	ori	t0,t0,0x7374
bfc00240:	3409961d 	li	t1,0x961d
bfc00244:	2110961d 	addi	s0,t0,-27107
bfc00248:	3c125a7c 	lui	s2,0x5a7c
bfc0024c:	36520991 	ori	s2,s2,0x991
bfc00250:	16120874 	bne	s0,s2,bfc02424 <inst_error>
bfc00254:	00000000 	nop
bfc00258:	3c085aab 	lui	t0,0x5aab
bfc0025c:	3508699a 	ori	t0,t0,0x699a
bfc00260:	3409c6c4 	li	t1,0xc6c4
bfc00264:	2110c6c4 	addi	s0,t0,-14652
bfc00268:	3c125aab 	lui	s2,0x5aab
bfc0026c:	3652305e 	ori	s2,s2,0x305e
bfc00270:	1612086c 	bne	s0,s2,bfc02424 <inst_error>
bfc00274:	00000000 	nop
bfc00278:	3c081ff4 	lui	t0,0x1ff4
bfc0027c:	3508330c 	ori	t0,t0,0x330c
bfc00280:	3409e534 	li	t1,0xe534
bfc00284:	2110e534 	addi	s0,t0,-6860
bfc00288:	3c121ff4 	lui	s2,0x1ff4
bfc0028c:	36521840 	ori	s2,s2,0x1840
bfc00290:	16120864 	bne	s0,s2,bfc02424 <inst_error>
bfc00294:	00000000 	nop
bfc00298:	3c08082b 	lui	t0,0x82b
bfc0029c:	3508cd60 	ori	t0,t0,0xcd60
bfc002a0:	24092b78 	li	t1,11128
bfc002a4:	21102b78 	addi	s0,t0,11128
bfc002a8:	3c12082b 	lui	s2,0x82b
bfc002ac:	3652f8d8 	ori	s2,s2,0xf8d8
bfc002b0:	1612085c 	bne	s0,s2,bfc02424 <inst_error>
bfc002b4:	00000000 	nop
bfc002b8:	3c089c9e 	lui	t0,0x9c9e
bfc002bc:	35081220 	ori	t0,t0,0x1220
bfc002c0:	3409ce5e 	li	t1,0xce5e
bfc002c4:	2110ce5e 	addi	s0,t0,-12706
bfc002c8:	3c129c9d 	lui	s2,0x9c9d
bfc002cc:	3652e07e 	ori	s2,s2,0xe07e
bfc002d0:	16120854 	bne	s0,s2,bfc02424 <inst_error>
bfc002d4:	00000000 	nop
bfc002d8:	3c083151 	lui	t0,0x3151
bfc002dc:	3508da50 	ori	t0,t0,0xda50
bfc002e0:	3409a140 	li	t1,0xa140
bfc002e4:	2110a140 	addi	s0,t0,-24256
bfc002e8:	3c123151 	lui	s2,0x3151
bfc002ec:	36527b90 	ori	s2,s2,0x7b90
bfc002f0:	1612084c 	bne	s0,s2,bfc02424 <inst_error>
bfc002f4:	00000000 	nop
bfc002f8:	3c08f3c5 	lui	t0,0xf3c5
bfc002fc:	3508a870 	ori	t0,t0,0xa870
bfc00300:	24094040 	li	t1,16448
bfc00304:	21104040 	addi	s0,t0,16448
bfc00308:	3c12f3c5 	lui	s2,0xf3c5
bfc0030c:	3652e8b0 	ori	s2,s2,0xe8b0
bfc00310:	16120844 	bne	s0,s2,bfc02424 <inst_error>
bfc00314:	00000000 	nop
bfc00318:	3c0873bb 	lui	t0,0x73bb
bfc0031c:	35080fee 	ori	t0,t0,0xfee
bfc00320:	240935a0 	li	t1,13728
bfc00324:	211035a0 	addi	s0,t0,13728
bfc00328:	3c1273bb 	lui	s2,0x73bb
bfc0032c:	3652458e 	ori	s2,s2,0x458e
bfc00330:	1612083c 	bne	s0,s2,bfc02424 <inst_error>
bfc00334:	00000000 	nop
bfc00338:	3c0885d9 	lui	t0,0x85d9
bfc0033c:	3508c268 	ori	t0,t0,0xc268
bfc00340:	240956f8 	li	t1,22264
bfc00344:	211056f8 	addi	s0,t0,22264
bfc00348:	3c1285da 	lui	s2,0x85da
bfc0034c:	36521960 	ori	s2,s2,0x1960
bfc00350:	16120834 	bne	s0,s2,bfc02424 <inst_error>
bfc00354:	00000000 	nop
bfc00358:	3c08bdb8 	lui	t0,0xbdb8
bfc0035c:	35082bd1 	ori	t0,t0,0x2bd1
bfc00360:	24094b50 	li	t1,19280
bfc00364:	21104b50 	addi	s0,t0,19280
bfc00368:	3c12bdb8 	lui	s2,0xbdb8
bfc0036c:	36527721 	ori	s2,s2,0x7721
bfc00370:	1612082c 	bne	s0,s2,bfc02424 <inst_error>
bfc00374:	00000000 	nop
bfc00378:	3c086144 	lui	t0,0x6144
bfc0037c:	35087354 	ori	t0,t0,0x7354
bfc00380:	3409b7e0 	li	t1,0xb7e0
bfc00384:	2110b7e0 	addi	s0,t0,-18464
bfc00388:	3c126144 	lui	s2,0x6144
bfc0038c:	36522b34 	ori	s2,s2,0x2b34
bfc00390:	16120824 	bne	s0,s2,bfc02424 <inst_error>
bfc00394:	00000000 	nop
bfc00398:	3c08c6b1 	lui	t0,0xc6b1
bfc0039c:	35081000 	ori	t0,t0,0x1000
bfc003a0:	340990d4 	li	t1,0x90d4
bfc003a4:	211090d4 	addi	s0,t0,-28460
bfc003a8:	3c12c6b0 	lui	s2,0xc6b0
bfc003ac:	3652a0d4 	ori	s2,s2,0xa0d4
bfc003b0:	1612081c 	bne	s0,s2,bfc02424 <inst_error>
bfc003b4:	00000000 	nop
bfc003b8:	3c08afd1 	lui	t0,0xafd1
bfc003bc:	35082ba4 	ori	t0,t0,0x2ba4
bfc003c0:	24091612 	li	t1,5650
bfc003c4:	21101612 	addi	s0,t0,5650
bfc003c8:	3c12afd1 	lui	s2,0xafd1
bfc003cc:	365241b6 	ori	s2,s2,0x41b6
bfc003d0:	16120814 	bne	s0,s2,bfc02424 <inst_error>
bfc003d4:	00000000 	nop
bfc003d8:	3c089cc9 	lui	t0,0x9cc9
bfc003dc:	3508c1d0 	ori	t0,t0,0xc1d0
bfc003e0:	3409930e 	li	t1,0x930e
bfc003e4:	2110930e 	addi	s0,t0,-27890
bfc003e8:	3c129cc9 	lui	s2,0x9cc9
bfc003ec:	365254de 	ori	s2,s2,0x54de
bfc003f0:	1612080c 	bne	s0,s2,bfc02424 <inst_error>
bfc003f4:	00000000 	nop
bfc003f8:	3c0830b8 	lui	t0,0x30b8
bfc003fc:	35085a68 	ori	t0,t0,0x5a68
bfc00400:	3409c1b0 	li	t1,0xc1b0
bfc00404:	2110c1b0 	addi	s0,t0,-15952
bfc00408:	3c1230b8 	lui	s2,0x30b8
bfc0040c:	36521c18 	ori	s2,s2,0x1c18
bfc00410:	16120804 	bne	s0,s2,bfc02424 <inst_error>
bfc00414:	00000000 	nop
bfc00418:	3c08ec88 	lui	t0,0xec88
bfc0041c:	3508b498 	ori	t0,t0,0xb498
bfc00420:	340988f6 	li	t1,0x88f6
bfc00424:	211088f6 	addi	s0,t0,-30474
bfc00428:	3c12ec88 	lui	s2,0xec88
bfc0042c:	36523d8e 	ori	s2,s2,0x3d8e
bfc00430:	161207fc 	bne	s0,s2,bfc02424 <inst_error>
bfc00434:	00000000 	nop
bfc00438:	3c088265 	lui	t0,0x8265
bfc0043c:	35082c2f 	ori	t0,t0,0x2c2f
bfc00440:	24093ee3 	li	t1,16099
bfc00444:	21103ee3 	addi	s0,t0,16099
bfc00448:	3c128265 	lui	s2,0x8265
bfc0044c:	36526b12 	ori	s2,s2,0x6b12
bfc00450:	161207f4 	bne	s0,s2,bfc02424 <inst_error>
bfc00454:	00000000 	nop
bfc00458:	3c087bf0 	lui	t0,0x7bf0
bfc0045c:	3508a346 	ori	t0,t0,0xa346
bfc00460:	34099a2d 	li	t1,0x9a2d
bfc00464:	21109a2d 	addi	s0,t0,-26067
bfc00468:	3c127bf0 	lui	s2,0x7bf0
bfc0046c:	36523d73 	ori	s2,s2,0x3d73
bfc00470:	161207ec 	bne	s0,s2,bfc02424 <inst_error>
bfc00474:	00000000 	nop
bfc00478:	3c0824fd 	lui	t0,0x24fd
bfc0047c:	3508ce96 	ori	t0,t0,0xce96
bfc00480:	34099400 	li	t1,0x9400
bfc00484:	21109400 	addi	s0,t0,-27648
bfc00488:	3c1224fd 	lui	s2,0x24fd
bfc0048c:	36526296 	ori	s2,s2,0x6296
bfc00490:	161207e4 	bne	s0,s2,bfc02424 <inst_error>
bfc00494:	00000000 	nop
bfc00498:	3c08415d 	lui	t0,0x415d
bfc0049c:	350868a0 	ori	t0,t0,0x68a0
bfc004a0:	24096b44 	li	t1,27460
bfc004a4:	21106b44 	addi	s0,t0,27460
bfc004a8:	3c12415d 	lui	s2,0x415d
bfc004ac:	3652d3e4 	ori	s2,s2,0xd3e4
bfc004b0:	161207dc 	bne	s0,s2,bfc02424 <inst_error>
bfc004b4:	00000000 	nop
bfc004b8:	3c08d39b 	lui	t0,0xd39b
bfc004bc:	350890a4 	ori	t0,t0,0x90a4
bfc004c0:	3409ec14 	li	t1,0xec14
bfc004c4:	2110ec14 	addi	s0,t0,-5100
bfc004c8:	3c12d39b 	lui	s2,0xd39b
bfc004cc:	36527cb8 	ori	s2,s2,0x7cb8
bfc004d0:	161207d4 	bne	s0,s2,bfc02424 <inst_error>
bfc004d4:	00000000 	nop
bfc004d8:	3c08c057 	lui	t0,0xc057
bfc004dc:	3508761c 	ori	t0,t0,0x761c
bfc004e0:	3409f3ea 	li	t1,0xf3ea
bfc004e4:	2110f3ea 	addi	s0,t0,-3094
bfc004e8:	3c12c057 	lui	s2,0xc057
bfc004ec:	36526a06 	ori	s2,s2,0x6a06
bfc004f0:	161207cc 	bne	s0,s2,bfc02424 <inst_error>
bfc004f4:	00000000 	nop
bfc004f8:	3c081dd7 	lui	t0,0x1dd7
bfc004fc:	35089b95 	ori	t0,t0,0x9b95
bfc00500:	24091eb8 	li	t1,7864
bfc00504:	21101eb8 	addi	s0,t0,7864
bfc00508:	3c121dd7 	lui	s2,0x1dd7
bfc0050c:	3652ba4d 	ori	s2,s2,0xba4d
bfc00510:	161207c4 	bne	s0,s2,bfc02424 <inst_error>
bfc00514:	00000000 	nop
bfc00518:	3c08c867 	lui	t0,0xc867
bfc0051c:	3508e930 	ori	t0,t0,0xe930
bfc00520:	34098bee 	li	t1,0x8bee
bfc00524:	21108bee 	addi	s0,t0,-29714
bfc00528:	3c12c867 	lui	s2,0xc867
bfc0052c:	3652751e 	ori	s2,s2,0x751e
bfc00530:	161207bc 	bne	s0,s2,bfc02424 <inst_error>
bfc00534:	00000000 	nop
bfc00538:	3c08b833 	lui	t0,0xb833
bfc0053c:	3508fdf2 	ori	t0,t0,0xfdf2
bfc00540:	240974e0 	li	t1,29920
bfc00544:	211074e0 	addi	s0,t0,29920
bfc00548:	3c12b834 	lui	s2,0xb834
bfc0054c:	365272d2 	ori	s2,s2,0x72d2
bfc00550:	161207b4 	bne	s0,s2,bfc02424 <inst_error>
bfc00554:	00000000 	nop
bfc00558:	3c088b8d 	lui	t0,0x8b8d
bfc0055c:	3508cf70 	ori	t0,t0,0xcf70
bfc00560:	34099775 	li	t1,0x9775
bfc00564:	21109775 	addi	s0,t0,-26763
bfc00568:	3c128b8d 	lui	s2,0x8b8d
bfc0056c:	365266e5 	ori	s2,s2,0x66e5
bfc00570:	161207ac 	bne	s0,s2,bfc02424 <inst_error>
bfc00574:	00000000 	nop
bfc00578:	3c08b675 	lui	t0,0xb675
bfc0057c:	3508c5e0 	ori	t0,t0,0xc5e0
bfc00580:	2409766b 	li	t1,30315
bfc00584:	2110766b 	addi	s0,t0,30315
bfc00588:	3c12b676 	lui	s2,0xb676
bfc0058c:	36523c4b 	ori	s2,s2,0x3c4b
bfc00590:	161207a4 	bne	s0,s2,bfc02424 <inst_error>
bfc00594:	00000000 	nop
bfc00598:	3c08214a 	lui	t0,0x214a
bfc0059c:	3508e000 	ori	t0,t0,0xe000
bfc005a0:	2409386a 	li	t1,14442
bfc005a4:	2110386a 	addi	s0,t0,14442
bfc005a8:	3c12214b 	lui	s2,0x214b
bfc005ac:	3652186a 	ori	s2,s2,0x186a
bfc005b0:	1612079c 	bne	s0,s2,bfc02424 <inst_error>
bfc005b4:	00000000 	nop
bfc005b8:	3c083b1e 	lui	t0,0x3b1e
bfc005bc:	3508e7a0 	ori	t0,t0,0xe7a0
bfc005c0:	24095170 	li	t1,20848
bfc005c4:	21105170 	addi	s0,t0,20848
bfc005c8:	3c123b1f 	lui	s2,0x3b1f
bfc005cc:	36523910 	ori	s2,s2,0x3910
bfc005d0:	16120794 	bne	s0,s2,bfc02424 <inst_error>
bfc005d4:	00000000 	nop
bfc005d8:	3c084434 	lui	t0,0x4434
bfc005dc:	3508d95c 	ori	t0,t0,0xd95c
bfc005e0:	24094444 	li	t1,17476
bfc005e4:	21104444 	addi	s0,t0,17476
bfc005e8:	3c124435 	lui	s2,0x4435
bfc005ec:	36521da0 	ori	s2,s2,0x1da0
bfc005f0:	1612078c 	bne	s0,s2,bfc02424 <inst_error>
bfc005f4:	00000000 	nop
bfc005f8:	3c0829b8 	lui	t0,0x29b8
bfc005fc:	35085e98 	ori	t0,t0,0x5e98
bfc00600:	3409805a 	li	t1,0x805a
bfc00604:	2110805a 	addi	s0,t0,-32678
bfc00608:	3c1229b7 	lui	s2,0x29b7
bfc0060c:	3652def2 	ori	s2,s2,0xdef2
bfc00610:	16120784 	bne	s0,s2,bfc02424 <inst_error>
bfc00614:	00000000 	nop
bfc00618:	3c08ff5f 	lui	t0,0xff5f
bfc0061c:	3508a9cc 	ori	t0,t0,0xa9cc
bfc00620:	24095548 	li	t1,21832
bfc00624:	21105548 	addi	s0,t0,21832
bfc00628:	3c12ff5f 	lui	s2,0xff5f
bfc0062c:	3652ff14 	ori	s2,s2,0xff14
bfc00630:	1612077c 	bne	s0,s2,bfc02424 <inst_error>
bfc00634:	00000000 	nop
bfc00638:	3c083773 	lui	t0,0x3773
bfc0063c:	3508e968 	ori	t0,t0,0xe968
bfc00640:	24096ea8 	li	t1,28328
bfc00644:	21106ea8 	addi	s0,t0,28328
bfc00648:	3c123774 	lui	s2,0x3774
bfc0064c:	36525810 	ori	s2,s2,0x5810
bfc00650:	16120774 	bne	s0,s2,bfc02424 <inst_error>
bfc00654:	00000000 	nop
bfc00658:	3c08fcf8 	lui	t0,0xfcf8
bfc0065c:	3508f94c 	ori	t0,t0,0xf94c
bfc00660:	3409bd9f 	li	t1,0xbd9f
bfc00664:	2110bd9f 	addi	s0,t0,-16993
bfc00668:	3c12fcf8 	lui	s2,0xfcf8
bfc0066c:	3652b6eb 	ori	s2,s2,0xb6eb
bfc00670:	1612076c 	bne	s0,s2,bfc02424 <inst_error>
bfc00674:	00000000 	nop
bfc00678:	3c085926 	lui	t0,0x5926
bfc0067c:	3508be78 	ori	t0,t0,0xbe78
bfc00680:	24091968 	li	t1,6504
bfc00684:	21101968 	addi	s0,t0,6504
bfc00688:	3c125926 	lui	s2,0x5926
bfc0068c:	3652d7e0 	ori	s2,s2,0xd7e0
bfc00690:	16120764 	bne	s0,s2,bfc02424 <inst_error>
bfc00694:	00000000 	nop
bfc00698:	3c08c211 	lui	t0,0xc211
bfc0069c:	350835e4 	ori	t0,t0,0x35e4
bfc006a0:	24092ec1 	li	t1,11969
bfc006a4:	21102ec1 	addi	s0,t0,11969
bfc006a8:	3c12c211 	lui	s2,0xc211
bfc006ac:	365264a5 	ori	s2,s2,0x64a5
bfc006b0:	1612075c 	bne	s0,s2,bfc02424 <inst_error>
bfc006b4:	00000000 	nop
bfc006b8:	3c08d7ad 	lui	t0,0xd7ad
bfc006bc:	3508a528 	ori	t0,t0,0xa528
bfc006c0:	3409c2dd 	li	t1,0xc2dd
bfc006c4:	2110c2dd 	addi	s0,t0,-15651
bfc006c8:	3c12d7ad 	lui	s2,0xd7ad
bfc006cc:	36526805 	ori	s2,s2,0x6805
bfc006d0:	16120754 	bne	s0,s2,bfc02424 <inst_error>
bfc006d4:	00000000 	nop
bfc006d8:	3c087429 	lui	t0,0x7429
bfc006dc:	35089f8a 	ori	t0,t0,0x9f8a
bfc006e0:	24094c1d 	li	t1,19485
bfc006e4:	21104c1d 	addi	s0,t0,19485
bfc006e8:	3c127429 	lui	s2,0x7429
bfc006ec:	3652eba7 	ori	s2,s2,0xeba7
bfc006f0:	1612074c 	bne	s0,s2,bfc02424 <inst_error>
bfc006f4:	00000000 	nop
bfc006f8:	3c08c7b0 	lui	t0,0xc7b0
bfc006fc:	350822b2 	ori	t0,t0,0x22b2
bfc00700:	24090080 	li	t1,128
bfc00704:	21100080 	addi	s0,t0,128
bfc00708:	3c12c7b0 	lui	s2,0xc7b0
bfc0070c:	36522332 	ori	s2,s2,0x2332
bfc00710:	16120744 	bne	s0,s2,bfc02424 <inst_error>
bfc00714:	00000000 	nop
bfc00718:	3c083f9f 	lui	t0,0x3f9f
bfc0071c:	3508fe80 	ori	t0,t0,0xfe80
bfc00720:	3409ec80 	li	t1,0xec80
bfc00724:	2110ec80 	addi	s0,t0,-4992
bfc00728:	3c123f9f 	lui	s2,0x3f9f
bfc0072c:	3652eb00 	ori	s2,s2,0xeb00
bfc00730:	1612073c 	bne	s0,s2,bfc02424 <inst_error>
bfc00734:	00000000 	nop
bfc00738:	3c08fed9 	lui	t0,0xfed9
bfc0073c:	3508c020 	ori	t0,t0,0xc020
bfc00740:	24093f10 	li	t1,16144
bfc00744:	21103f10 	addi	s0,t0,16144
bfc00748:	3c12fed9 	lui	s2,0xfed9
bfc0074c:	3652ff30 	ori	s2,s2,0xff30
bfc00750:	16120734 	bne	s0,s2,bfc02424 <inst_error>
bfc00754:	00000000 	nop
bfc00758:	3c08b803 	lui	t0,0xb803
bfc0075c:	35089474 	ori	t0,t0,0x9474
bfc00760:	2409600f 	li	t1,24591
bfc00764:	2110600f 	addi	s0,t0,24591
bfc00768:	3c12b803 	lui	s2,0xb803
bfc0076c:	3652f483 	ori	s2,s2,0xf483
bfc00770:	1612072c 	bne	s0,s2,bfc02424 <inst_error>
bfc00774:	00000000 	nop
bfc00778:	3c087804 	lui	t0,0x7804
bfc0077c:	350809ce 	ori	t0,t0,0x9ce
bfc00780:	3409a434 	li	t1,0xa434
bfc00784:	2110a434 	addi	s0,t0,-23500
bfc00788:	3c127803 	lui	s2,0x7803
bfc0078c:	3652ae02 	ori	s2,s2,0xae02
bfc00790:	16120724 	bne	s0,s2,bfc02424 <inst_error>
bfc00794:	00000000 	nop
bfc00798:	3c08d6d6 	lui	t0,0xd6d6
bfc0079c:	3508e944 	ori	t0,t0,0xe944
bfc007a0:	3409c796 	li	t1,0xc796
bfc007a4:	2110c796 	addi	s0,t0,-14442
bfc007a8:	3c12d6d6 	lui	s2,0xd6d6
bfc007ac:	3652b0da 	ori	s2,s2,0xb0da
bfc007b0:	1612071c 	bne	s0,s2,bfc02424 <inst_error>
bfc007b4:	00000000 	nop
bfc007b8:	3c0849dc 	lui	t0,0x49dc
bfc007bc:	3508b574 	ori	t0,t0,0xb574
bfc007c0:	24096eb7 	li	t1,28343
bfc007c4:	21106eb7 	addi	s0,t0,28343
bfc007c8:	3c1249dd 	lui	s2,0x49dd
bfc007cc:	3652242b 	ori	s2,s2,0x242b
bfc007d0:	16120714 	bne	s0,s2,bfc02424 <inst_error>
bfc007d4:	00000000 	nop
bfc007d8:	3c08db1d 	lui	t0,0xdb1d
bfc007dc:	35084000 	ori	t0,t0,0x4000
bfc007e0:	3409c136 	li	t1,0xc136
bfc007e4:	2110c136 	addi	s0,t0,-16074
bfc007e8:	3c12db1d 	lui	s2,0xdb1d
bfc007ec:	36520136 	ori	s2,s2,0x136
bfc007f0:	1612070c 	bne	s0,s2,bfc02424 <inst_error>
bfc007f4:	00000000 	nop
bfc007f8:	3c085496 	lui	t0,0x5496
bfc007fc:	350826b2 	ori	t0,t0,0x26b2
bfc00800:	24091320 	li	t1,4896
bfc00804:	21101320 	addi	s0,t0,4896
bfc00808:	3c125496 	lui	s2,0x5496
bfc0080c:	365239d2 	ori	s2,s2,0x39d2
bfc00810:	16120704 	bne	s0,s2,bfc02424 <inst_error>
bfc00814:	00000000 	nop
bfc00818:	3c087377 	lui	t0,0x7377
bfc0081c:	350835c0 	ori	t0,t0,0x35c0
bfc00820:	3409fd0c 	li	t1,0xfd0c
bfc00824:	2110fd0c 	addi	s0,t0,-756
bfc00828:	3c127377 	lui	s2,0x7377
bfc0082c:	365232cc 	ori	s2,s2,0x32cc
bfc00830:	161206fc 	bne	s0,s2,bfc02424 <inst_error>
bfc00834:	00000000 	nop
bfc00838:	3c08fee6 	lui	t0,0xfee6
bfc0083c:	3508ef20 	ori	t0,t0,0xef20
bfc00840:	3409d97c 	li	t1,0xd97c
bfc00844:	2110d97c 	addi	s0,t0,-9860
bfc00848:	3c12fee6 	lui	s2,0xfee6
bfc0084c:	3652c89c 	ori	s2,s2,0xc89c
bfc00850:	161206f4 	bne	s0,s2,bfc02424 <inst_error>
bfc00854:	00000000 	nop
bfc00858:	3c087b17 	lui	t0,0x7b17
bfc0085c:	35088120 	ori	t0,t0,0x8120
bfc00860:	24092396 	li	t1,9110
bfc00864:	21102396 	addi	s0,t0,9110
bfc00868:	3c127b17 	lui	s2,0x7b17
bfc0086c:	3652a4b6 	ori	s2,s2,0xa4b6
bfc00870:	161206ec 	bne	s0,s2,bfc02424 <inst_error>
bfc00874:	00000000 	nop
bfc00878:	3c08c228 	lui	t0,0xc228
bfc0087c:	350838ec 	ori	t0,t0,0x38ec
bfc00880:	3409baf7 	li	t1,0xbaf7
bfc00884:	2110baf7 	addi	s0,t0,-17673
bfc00888:	3c12c227 	lui	s2,0xc227
bfc0088c:	3652f3e3 	ori	s2,s2,0xf3e3
bfc00890:	161206e4 	bne	s0,s2,bfc02424 <inst_error>
bfc00894:	00000000 	nop
bfc00898:	3c08eafc 	lui	t0,0xeafc
bfc0089c:	3508bbc0 	ori	t0,t0,0xbbc0
bfc008a0:	24096610 	li	t1,26128
bfc008a4:	21106610 	addi	s0,t0,26128
bfc008a8:	3c12eafd 	lui	s2,0xeafd
bfc008ac:	365221d0 	ori	s2,s2,0x21d0
bfc008b0:	161206dc 	bne	s0,s2,bfc02424 <inst_error>
bfc008b4:	00000000 	nop
bfc008b8:	3c08d3e8 	lui	t0,0xd3e8
bfc008bc:	35089922 	ori	t0,t0,0x9922
bfc008c0:	24095528 	li	t1,21800
bfc008c4:	21105528 	addi	s0,t0,21800
bfc008c8:	3c12d3e8 	lui	s2,0xd3e8
bfc008cc:	3652ee4a 	ori	s2,s2,0xee4a
bfc008d0:	161206d4 	bne	s0,s2,bfc02424 <inst_error>
bfc008d4:	00000000 	nop
bfc008d8:	3c08d0e1 	lui	t0,0xd0e1
bfc008dc:	3508acd4 	ori	t0,t0,0xacd4
bfc008e0:	34099769 	li	t1,0x9769
bfc008e4:	21109769 	addi	s0,t0,-26775
bfc008e8:	3c12d0e1 	lui	s2,0xd0e1
bfc008ec:	3652443d 	ori	s2,s2,0x443d
bfc008f0:	161206cc 	bne	s0,s2,bfc02424 <inst_error>
bfc008f4:	00000000 	nop
bfc008f8:	3c08719a 	lui	t0,0x719a
bfc008fc:	35088fb2 	ori	t0,t0,0x8fb2
bfc00900:	24091cfc 	li	t1,7420
bfc00904:	21101cfc 	addi	s0,t0,7420
bfc00908:	3c12719a 	lui	s2,0x719a
bfc0090c:	3652acae 	ori	s2,s2,0xacae
bfc00910:	161206c4 	bne	s0,s2,bfc02424 <inst_error>
bfc00914:	00000000 	nop
bfc00918:	3c089d71 	lui	t0,0x9d71
bfc0091c:	35087a82 	ori	t0,t0,0x7a82
bfc00920:	24092374 	li	t1,9076
bfc00924:	21102374 	addi	s0,t0,9076
bfc00928:	3c129d71 	lui	s2,0x9d71
bfc0092c:	36529df6 	ori	s2,s2,0x9df6
bfc00930:	161206bc 	bne	s0,s2,bfc02424 <inst_error>
bfc00934:	00000000 	nop
bfc00938:	3c0869bb 	lui	t0,0x69bb
bfc0093c:	35086dd8 	ori	t0,t0,0x6dd8
bfc00940:	3409cb59 	li	t1,0xcb59
bfc00944:	2110cb59 	addi	s0,t0,-13479
bfc00948:	3c1269bb 	lui	s2,0x69bb
bfc0094c:	36523931 	ori	s2,s2,0x3931
bfc00950:	161206b4 	bne	s0,s2,bfc02424 <inst_error>
bfc00954:	00000000 	nop
bfc00958:	3c0857e2 	lui	t0,0x57e2
bfc0095c:	3508d92c 	ori	t0,t0,0xd92c
bfc00960:	3409ee44 	li	t1,0xee44
bfc00964:	2110ee44 	addi	s0,t0,-4540
bfc00968:	3c1257e2 	lui	s2,0x57e2
bfc0096c:	3652c770 	ori	s2,s2,0xc770
bfc00970:	161206ac 	bne	s0,s2,bfc02424 <inst_error>
bfc00974:	00000000 	nop
bfc00978:	3c082aaf 	lui	t0,0x2aaf
bfc0097c:	3508b760 	ori	t0,t0,0xb760
bfc00980:	24096f18 	li	t1,28440
bfc00984:	21106f18 	addi	s0,t0,28440
bfc00988:	3c122ab0 	lui	s2,0x2ab0
bfc0098c:	36522678 	ori	s2,s2,0x2678
bfc00990:	161206a4 	bne	s0,s2,bfc02424 <inst_error>
bfc00994:	00000000 	nop
bfc00998:	3c08dbd1 	lui	t0,0xdbd1
bfc0099c:	35085be3 	ori	t0,t0,0x5be3
bfc009a0:	24091280 	li	t1,4736
bfc009a4:	21101280 	addi	s0,t0,4736
bfc009a8:	3c12dbd1 	lui	s2,0xdbd1
bfc009ac:	36526e63 	ori	s2,s2,0x6e63
bfc009b0:	1612069c 	bne	s0,s2,bfc02424 <inst_error>
bfc009b4:	00000000 	nop
bfc009b8:	3c087206 	lui	t0,0x7206
bfc009bc:	35086f32 	ori	t0,t0,0x6f32
bfc009c0:	24091d11 	li	t1,7441
bfc009c4:	21101d11 	addi	s0,t0,7441
bfc009c8:	3c127206 	lui	s2,0x7206
bfc009cc:	36528c43 	ori	s2,s2,0x8c43
bfc009d0:	16120694 	bne	s0,s2,bfc02424 <inst_error>
bfc009d4:	00000000 	nop
bfc009d8:	3c0828ae 	lui	t0,0x28ae
bfc009dc:	3508ccb8 	ori	t0,t0,0xccb8
bfc009e0:	3409fd30 	li	t1,0xfd30
bfc009e4:	2110fd30 	addi	s0,t0,-720
bfc009e8:	3c1228ae 	lui	s2,0x28ae
bfc009ec:	3652c9e8 	ori	s2,s2,0xc9e8
bfc009f0:	1612068c 	bne	s0,s2,bfc02424 <inst_error>
bfc009f4:	00000000 	nop
bfc009f8:	3c08d4ff 	lui	t0,0xd4ff
bfc009fc:	3508f733 	ori	t0,t0,0xf733
bfc00a00:	240945d8 	li	t1,17880
bfc00a04:	211045d8 	addi	s0,t0,17880
bfc00a08:	3c12d500 	lui	s2,0xd500
bfc00a0c:	36523d0b 	ori	s2,s2,0x3d0b
bfc00a10:	16120684 	bne	s0,s2,bfc02424 <inst_error>
bfc00a14:	00000000 	nop
bfc00a18:	3c089c2b 	lui	t0,0x9c2b
bfc00a1c:	3508d862 	ori	t0,t0,0xd862
bfc00a20:	34099c0e 	li	t1,0x9c0e
bfc00a24:	21109c0e 	addi	s0,t0,-25586
bfc00a28:	3c129c2b 	lui	s2,0x9c2b
bfc00a2c:	36527470 	ori	s2,s2,0x7470
bfc00a30:	1612067c 	bne	s0,s2,bfc02424 <inst_error>
bfc00a34:	00000000 	nop
bfc00a38:	3c086264 	lui	t0,0x6264
bfc00a3c:	3508e5f0 	ori	t0,t0,0xe5f0
bfc00a40:	3409d3b0 	li	t1,0xd3b0
bfc00a44:	2110d3b0 	addi	s0,t0,-11344
bfc00a48:	3c126264 	lui	s2,0x6264
bfc00a4c:	3652b9a0 	ori	s2,s2,0xb9a0
bfc00a50:	16120674 	bne	s0,s2,bfc02424 <inst_error>
bfc00a54:	00000000 	nop
bfc00a58:	3c081aee 	lui	t0,0x1aee
bfc00a5c:	35082654 	ori	t0,t0,0x2654
bfc00a60:	3409b006 	li	t1,0xb006
bfc00a64:	2110b006 	addi	s0,t0,-20474
bfc00a68:	3c121aed 	lui	s2,0x1aed
bfc00a6c:	3652d65a 	ori	s2,s2,0xd65a
bfc00a70:	1612066c 	bne	s0,s2,bfc02424 <inst_error>
bfc00a74:	00000000 	nop
bfc00a78:	3c08cfe5 	lui	t0,0xcfe5
bfc00a7c:	3508e6f4 	ori	t0,t0,0xe6f4
bfc00a80:	3409be4b 	li	t1,0xbe4b
bfc00a84:	2110be4b 	addi	s0,t0,-16821
bfc00a88:	3c12cfe5 	lui	s2,0xcfe5
bfc00a8c:	3652a53f 	ori	s2,s2,0xa53f
bfc00a90:	16120664 	bne	s0,s2,bfc02424 <inst_error>
bfc00a94:	00000000 	nop
bfc00a98:	3c082926 	lui	t0,0x2926
bfc00a9c:	35087cec 	ori	t0,t0,0x7cec
bfc00aa0:	24093c38 	li	t1,15416
bfc00aa4:	21103c38 	addi	s0,t0,15416
bfc00aa8:	3c122926 	lui	s2,0x2926
bfc00aac:	3652b924 	ori	s2,s2,0xb924
bfc00ab0:	1612065c 	bne	s0,s2,bfc02424 <inst_error>
bfc00ab4:	00000000 	nop
bfc00ab8:	3c082580 	lui	t0,0x2580
bfc00abc:	350849d6 	ori	t0,t0,0x49d6
bfc00ac0:	3409d1bd 	li	t1,0xd1bd
bfc00ac4:	2110d1bd 	addi	s0,t0,-11843
bfc00ac8:	3c122580 	lui	s2,0x2580
bfc00acc:	36521b93 	ori	s2,s2,0x1b93
bfc00ad0:	16120654 	bne	s0,s2,bfc02424 <inst_error>
bfc00ad4:	00000000 	nop
bfc00ad8:	3c08e8dc 	lui	t0,0xe8dc
bfc00adc:	350862c0 	ori	t0,t0,0x62c0
bfc00ae0:	3409ce16 	li	t1,0xce16
bfc00ae4:	2110ce16 	addi	s0,t0,-12778
bfc00ae8:	3c12e8dc 	lui	s2,0xe8dc
bfc00aec:	365230d6 	ori	s2,s2,0x30d6
bfc00af0:	1612064c 	bne	s0,s2,bfc02424 <inst_error>
bfc00af4:	00000000 	nop
bfc00af8:	3c08cc78 	lui	t0,0xcc78
bfc00afc:	3508608c 	ori	t0,t0,0x608c
bfc00b00:	34099790 	li	t1,0x9790
bfc00b04:	21109790 	addi	s0,t0,-26736
bfc00b08:	3c12cc77 	lui	s2,0xcc77
bfc00b0c:	3652f81c 	ori	s2,s2,0xf81c
bfc00b10:	16120644 	bne	s0,s2,bfc02424 <inst_error>
bfc00b14:	00000000 	nop
bfc00b18:	3c085dea 	lui	t0,0x5dea
bfc00b1c:	3508681e 	ori	t0,t0,0x681e
bfc00b20:	24090cb4 	li	t1,3252
bfc00b24:	21100cb4 	addi	s0,t0,3252
bfc00b28:	3c125dea 	lui	s2,0x5dea
bfc00b2c:	365274d2 	ori	s2,s2,0x74d2
bfc00b30:	1612063c 	bne	s0,s2,bfc02424 <inst_error>
bfc00b34:	00000000 	nop
bfc00b38:	3c08c780 	lui	t0,0xc780
bfc00b3c:	35088052 	ori	t0,t0,0x8052
bfc00b40:	24092040 	li	t1,8256
bfc00b44:	21102040 	addi	s0,t0,8256
bfc00b48:	3c12c780 	lui	s2,0xc780
bfc00b4c:	3652a092 	ori	s2,s2,0xa092
bfc00b50:	16120634 	bne	s0,s2,bfc02424 <inst_error>
bfc00b54:	00000000 	nop
bfc00b58:	3c0832a9 	lui	t0,0x32a9
bfc00b5c:	3508bd1a 	ori	t0,t0,0xbd1a
bfc00b60:	3409c61a 	li	t1,0xc61a
bfc00b64:	2110c61a 	addi	s0,t0,-14822
bfc00b68:	3c1232a9 	lui	s2,0x32a9
bfc00b6c:	36528334 	ori	s2,s2,0x8334
bfc00b70:	1612062c 	bne	s0,s2,bfc02424 <inst_error>
bfc00b74:	00000000 	nop
bfc00b78:	3c08215c 	lui	t0,0x215c
bfc00b7c:	35084c38 	ori	t0,t0,0x4c38
bfc00b80:	24096c37 	li	t1,27703
bfc00b84:	21106c37 	addi	s0,t0,27703
bfc00b88:	3c12215c 	lui	s2,0x215c
bfc00b8c:	3652b86f 	ori	s2,s2,0xb86f
bfc00b90:	16120624 	bne	s0,s2,bfc02424 <inst_error>
bfc00b94:	00000000 	nop
bfc00b98:	3c081e55 	lui	t0,0x1e55
bfc00b9c:	35089998 	ori	t0,t0,0x9998
bfc00ba0:	3409c431 	li	t1,0xc431
bfc00ba4:	2110c431 	addi	s0,t0,-15311
bfc00ba8:	3c121e55 	lui	s2,0x1e55
bfc00bac:	36525dc9 	ori	s2,s2,0x5dc9
bfc00bb0:	1612061c 	bne	s0,s2,bfc02424 <inst_error>
bfc00bb4:	00000000 	nop
bfc00bb8:	3c083850 	lui	t0,0x3850
bfc00bbc:	350800c4 	ori	t0,t0,0xc4
bfc00bc0:	24097d68 	li	t1,32104
bfc00bc4:	21107d68 	addi	s0,t0,32104
bfc00bc8:	3c123850 	lui	s2,0x3850
bfc00bcc:	36527e2c 	ori	s2,s2,0x7e2c
bfc00bd0:	16120614 	bne	s0,s2,bfc02424 <inst_error>
bfc00bd4:	00000000 	nop
bfc00bd8:	3c086203 	lui	t0,0x6203
bfc00bdc:	3508d8b0 	ori	t0,t0,0xd8b0
bfc00be0:	24093e16 	li	t1,15894
bfc00be4:	21103e16 	addi	s0,t0,15894
bfc00be8:	3c126204 	lui	s2,0x6204
bfc00bec:	365216c6 	ori	s2,s2,0x16c6
bfc00bf0:	1612060c 	bne	s0,s2,bfc02424 <inst_error>
bfc00bf4:	00000000 	nop
bfc00bf8:	3c08f96e 	lui	t0,0xf96e
bfc00bfc:	35086418 	ori	t0,t0,0x6418
bfc00c00:	34099ca7 	li	t1,0x9ca7
bfc00c04:	21109ca7 	addi	s0,t0,-25433
bfc00c08:	3c12f96e 	lui	s2,0xf96e
bfc00c0c:	365200bf 	ori	s2,s2,0xbf
bfc00c10:	16120604 	bne	s0,s2,bfc02424 <inst_error>
bfc00c14:	00000000 	nop
bfc00c18:	3c08b8b1 	lui	t0,0xb8b1
bfc00c1c:	3508c057 	ori	t0,t0,0xc057
bfc00c20:	24096d06 	li	t1,27910
bfc00c24:	21106d06 	addi	s0,t0,27910
bfc00c28:	3c12b8b2 	lui	s2,0xb8b2
bfc00c2c:	36522d5d 	ori	s2,s2,0x2d5d
bfc00c30:	161205fc 	bne	s0,s2,bfc02424 <inst_error>
bfc00c34:	00000000 	nop
bfc00c38:	3c08145a 	lui	t0,0x145a
bfc00c3c:	3508c108 	ori	t0,t0,0xc108
bfc00c40:	3409bf84 	li	t1,0xbf84
bfc00c44:	2110bf84 	addi	s0,t0,-16508
bfc00c48:	3c12145a 	lui	s2,0x145a
bfc00c4c:	3652808c 	ori	s2,s2,0x808c
bfc00c50:	161205f4 	bne	s0,s2,bfc02424 <inst_error>
bfc00c54:	00000000 	nop
bfc00c58:	3c089693 	lui	t0,0x9693
bfc00c5c:	35080314 	ori	t0,t0,0x314
bfc00c60:	240940aa 	li	t1,16554
bfc00c64:	211040aa 	addi	s0,t0,16554
bfc00c68:	3c129693 	lui	s2,0x9693
bfc00c6c:	365243be 	ori	s2,s2,0x43be
bfc00c70:	161205ec 	bne	s0,s2,bfc02424 <inst_error>
bfc00c74:	00000000 	nop
bfc00c78:	3c083b87 	lui	t0,0x3b87
bfc00c7c:	35088510 	ori	t0,t0,0x8510
bfc00c80:	24097b30 	li	t1,31536
bfc00c84:	21107b30 	addi	s0,t0,31536
bfc00c88:	3c123b88 	lui	s2,0x3b88
bfc00c8c:	36520040 	ori	s2,s2,0x40
bfc00c90:	161205e4 	bne	s0,s2,bfc02424 <inst_error>
bfc00c94:	00000000 	nop
bfc00c98:	3c08a552 	lui	t0,0xa552
bfc00c9c:	3508b361 	ori	t0,t0,0xb361
bfc00ca0:	3409f167 	li	t1,0xf167
bfc00ca4:	2110f167 	addi	s0,t0,-3737
bfc00ca8:	3c12a552 	lui	s2,0xa552
bfc00cac:	3652a4c8 	ori	s2,s2,0xa4c8
bfc00cb0:	161205dc 	bne	s0,s2,bfc02424 <inst_error>
bfc00cb4:	00000000 	nop
bfc00cb8:	3c08ded9 	lui	t0,0xded9
bfc00cbc:	3508f604 	ori	t0,t0,0xf604
bfc00cc0:	24090f49 	li	t1,3913
bfc00cc4:	21100f49 	addi	s0,t0,3913
bfc00cc8:	3c12deda 	lui	s2,0xdeda
bfc00ccc:	3652054d 	ori	s2,s2,0x54d
bfc00cd0:	161205d4 	bne	s0,s2,bfc02424 <inst_error>
bfc00cd4:	00000000 	nop
bfc00cd8:	3c08b299 	lui	t0,0xb299
bfc00cdc:	35080762 	ori	t0,t0,0x762
bfc00ce0:	24096d02 	li	t1,27906
bfc00ce4:	21106d02 	addi	s0,t0,27906
bfc00ce8:	3c12b299 	lui	s2,0xb299
bfc00cec:	36527464 	ori	s2,s2,0x7464
bfc00cf0:	161205cc 	bne	s0,s2,bfc02424 <inst_error>
bfc00cf4:	00000000 	nop
bfc00cf8:	3c08bd4b 	lui	t0,0xbd4b
bfc00cfc:	35089c87 	ori	t0,t0,0x9c87
bfc00d00:	240902d8 	li	t1,728
bfc00d04:	211002d8 	addi	s0,t0,728
bfc00d08:	3c12bd4b 	lui	s2,0xbd4b
bfc00d0c:	36529f5f 	ori	s2,s2,0x9f5f
bfc00d10:	161205c4 	bne	s0,s2,bfc02424 <inst_error>
bfc00d14:	00000000 	nop
bfc00d18:	3c088453 	lui	t0,0x8453
bfc00d1c:	35085734 	ori	t0,t0,0x5734
bfc00d20:	3409bb60 	li	t1,0xbb60
bfc00d24:	2110bb60 	addi	s0,t0,-17568
bfc00d28:	3c128453 	lui	s2,0x8453
bfc00d2c:	36521294 	ori	s2,s2,0x1294
bfc00d30:	161205bc 	bne	s0,s2,bfc02424 <inst_error>
bfc00d34:	00000000 	nop
bfc00d38:	3c081cbe 	lui	t0,0x1cbe
bfc00d3c:	35088e60 	ori	t0,t0,0x8e60
bfc00d40:	24096acc 	li	t1,27340
bfc00d44:	21106acc 	addi	s0,t0,27340
bfc00d48:	3c121cbe 	lui	s2,0x1cbe
bfc00d4c:	3652f92c 	ori	s2,s2,0xf92c
bfc00d50:	161205b4 	bne	s0,s2,bfc02424 <inst_error>
bfc00d54:	00000000 	nop
bfc00d58:	3c0817bd 	lui	t0,0x17bd
bfc00d5c:	3508eef0 	ori	t0,t0,0xeef0
bfc00d60:	24094644 	li	t1,17988
bfc00d64:	21104644 	addi	s0,t0,17988
bfc00d68:	3c1217be 	lui	s2,0x17be
bfc00d6c:	36523534 	ori	s2,s2,0x3534
bfc00d70:	161205ac 	bne	s0,s2,bfc02424 <inst_error>
bfc00d74:	00000000 	nop
bfc00d78:	3c080b15 	lui	t0,0xb15
bfc00d7c:	350805c0 	ori	t0,t0,0x5c0
bfc00d80:	24094000 	li	t1,16384
bfc00d84:	21104000 	addi	s0,t0,16384
bfc00d88:	3c120b15 	lui	s2,0xb15
bfc00d8c:	365245c0 	ori	s2,s2,0x45c0
bfc00d90:	161205a4 	bne	s0,s2,bfc02424 <inst_error>
bfc00d94:	00000000 	nop
bfc00d98:	3c088d45 	lui	t0,0x8d45
bfc00d9c:	35085444 	ori	t0,t0,0x5444
bfc00da0:	3409a0da 	li	t1,0xa0da
bfc00da4:	2110a0da 	addi	s0,t0,-24358
bfc00da8:	3c128d44 	lui	s2,0x8d44
bfc00dac:	3652f51e 	ori	s2,s2,0xf51e
bfc00db0:	1612059c 	bne	s0,s2,bfc02424 <inst_error>
bfc00db4:	00000000 	nop
bfc00db8:	3c083b86 	lui	t0,0x3b86
bfc00dbc:	35085e84 	ori	t0,t0,0x5e84
bfc00dc0:	24095c89 	li	t1,23689
bfc00dc4:	21105c89 	addi	s0,t0,23689
bfc00dc8:	3c123b86 	lui	s2,0x3b86
bfc00dcc:	3652bb0d 	ori	s2,s2,0xbb0d
bfc00dd0:	16120594 	bne	s0,s2,bfc02424 <inst_error>
bfc00dd4:	00000000 	nop
bfc00dd8:	3c08fe2e 	lui	t0,0xfe2e
bfc00ddc:	35089704 	ori	t0,t0,0x9704
bfc00de0:	3409e524 	li	t1,0xe524
bfc00de4:	2110e524 	addi	s0,t0,-6876
bfc00de8:	3c12fe2e 	lui	s2,0xfe2e
bfc00dec:	36527c28 	ori	s2,s2,0x7c28
bfc00df0:	1612058c 	bne	s0,s2,bfc02424 <inst_error>
bfc00df4:	00000000 	nop
bfc00df8:	3c08810f 	lui	t0,0x810f
bfc00dfc:	35089a90 	ori	t0,t0,0x9a90
bfc00e00:	3409d5aa 	li	t1,0xd5aa
bfc00e04:	2110d5aa 	addi	s0,t0,-10838
bfc00e08:	3c12810f 	lui	s2,0x810f
bfc00e0c:	3652703a 	ori	s2,s2,0x703a
bfc00e10:	16120584 	bne	s0,s2,bfc02424 <inst_error>
bfc00e14:	00000000 	nop
bfc00e18:	3c08729a 	lui	t0,0x729a
bfc00e1c:	350855e7 	ori	t0,t0,0x55e7
bfc00e20:	240963d1 	li	t1,25553
bfc00e24:	211063d1 	addi	s0,t0,25553
bfc00e28:	3c12729a 	lui	s2,0x729a
bfc00e2c:	3652b9b8 	ori	s2,s2,0xb9b8
bfc00e30:	1612057c 	bne	s0,s2,bfc02424 <inst_error>
bfc00e34:	00000000 	nop
bfc00e38:	3c087dda 	lui	t0,0x7dda
bfc00e3c:	3508e5cf 	ori	t0,t0,0xe5cf
bfc00e40:	24094d93 	li	t1,19859
bfc00e44:	21104d93 	addi	s0,t0,19859
bfc00e48:	3c127ddb 	lui	s2,0x7ddb
bfc00e4c:	36523362 	ori	s2,s2,0x3362
bfc00e50:	16120574 	bne	s0,s2,bfc02424 <inst_error>
bfc00e54:	00000000 	nop
bfc00e58:	3c084485 	lui	t0,0x4485
bfc00e5c:	3508c05e 	ori	t0,t0,0xc05e
bfc00e60:	3409d0f8 	li	t1,0xd0f8
bfc00e64:	2110d0f8 	addi	s0,t0,-12040
bfc00e68:	3c124485 	lui	s2,0x4485
bfc00e6c:	36529156 	ori	s2,s2,0x9156
bfc00e70:	1612056c 	bne	s0,s2,bfc02424 <inst_error>
bfc00e74:	00000000 	nop
bfc00e78:	3c08a2cd 	lui	t0,0xa2cd
bfc00e7c:	350875d0 	ori	t0,t0,0x75d0
bfc00e80:	3409c43c 	li	t1,0xc43c
bfc00e84:	2110c43c 	addi	s0,t0,-15300
bfc00e88:	3c12a2cd 	lui	s2,0xa2cd
bfc00e8c:	36523a0c 	ori	s2,s2,0x3a0c
bfc00e90:	16120564 	bne	s0,s2,bfc02424 <inst_error>
bfc00e94:	00000000 	nop
bfc00e98:	3c0829dd 	lui	t0,0x29dd
bfc00e9c:	350899fa 	ori	t0,t0,0x99fa
bfc00ea0:	3409854a 	li	t1,0x854a
bfc00ea4:	2110854a 	addi	s0,t0,-31414
bfc00ea8:	3c1229dd 	lui	s2,0x29dd
bfc00eac:	36521f44 	ori	s2,s2,0x1f44
bfc00eb0:	1612055c 	bne	s0,s2,bfc02424 <inst_error>
bfc00eb4:	00000000 	nop
bfc00eb8:	3c08597a 	lui	t0,0x597a
bfc00ebc:	35085200 	ori	t0,t0,0x5200
bfc00ec0:	3409eb96 	li	t1,0xeb96
bfc00ec4:	2110eb96 	addi	s0,t0,-5226
bfc00ec8:	3c12597a 	lui	s2,0x597a
bfc00ecc:	36523d96 	ori	s2,s2,0x3d96
bfc00ed0:	16120554 	bne	s0,s2,bfc02424 <inst_error>
bfc00ed4:	00000000 	nop
bfc00ed8:	3c083f61 	lui	t0,0x3f61
bfc00edc:	3508ed98 	ori	t0,t0,0xed98
bfc00ee0:	2409504c 	li	t1,20556
bfc00ee4:	2110504c 	addi	s0,t0,20556
bfc00ee8:	3c123f62 	lui	s2,0x3f62
bfc00eec:	36523de4 	ori	s2,s2,0x3de4
bfc00ef0:	1612054c 	bne	s0,s2,bfc02424 <inst_error>
bfc00ef4:	00000000 	nop
bfc00ef8:	3c087c03 	lui	t0,0x7c03
bfc00efc:	3508729a 	ori	t0,t0,0x729a
bfc00f00:	3409f80f 	li	t1,0xf80f
bfc00f04:	2110f80f 	addi	s0,t0,-2033
bfc00f08:	3c127c03 	lui	s2,0x7c03
bfc00f0c:	36526aa9 	ori	s2,s2,0x6aa9
bfc00f10:	16120544 	bne	s0,s2,bfc02424 <inst_error>
bfc00f14:	00000000 	nop
bfc00f18:	3c08f998 	lui	t0,0xf998
bfc00f1c:	35089018 	ori	t0,t0,0x9018
bfc00f20:	3409804c 	li	t1,0x804c
bfc00f24:	2110804c 	addi	s0,t0,-32692
bfc00f28:	3c12f998 	lui	s2,0xf998
bfc00f2c:	36521064 	ori	s2,s2,0x1064
bfc00f30:	1612053c 	bne	s0,s2,bfc02424 <inst_error>
bfc00f34:	00000000 	nop
bfc00f38:	3c086c5f 	lui	t0,0x6c5f
bfc00f3c:	3508982c 	ori	t0,t0,0x982c
bfc00f40:	3409b501 	li	t1,0xb501
bfc00f44:	2110b501 	addi	s0,t0,-19199
bfc00f48:	3c126c5f 	lui	s2,0x6c5f
bfc00f4c:	36524d2d 	ori	s2,s2,0x4d2d
bfc00f50:	16120534 	bne	s0,s2,bfc02424 <inst_error>
bfc00f54:	00000000 	nop
bfc00f58:	3c08df25 	lui	t0,0xdf25
bfc00f5c:	3508dc18 	ori	t0,t0,0xdc18
bfc00f60:	24090b85 	li	t1,2949
bfc00f64:	21100b85 	addi	s0,t0,2949
bfc00f68:	3c12df25 	lui	s2,0xdf25
bfc00f6c:	3652e79d 	ori	s2,s2,0xe79d
bfc00f70:	1612052c 	bne	s0,s2,bfc02424 <inst_error>
bfc00f74:	00000000 	nop
bfc00f78:	3c089282 	lui	t0,0x9282
bfc00f7c:	35087704 	ori	t0,t0,0x7704
bfc00f80:	24094d1c 	li	t1,19740
bfc00f84:	21104d1c 	addi	s0,t0,19740
bfc00f88:	3c129282 	lui	s2,0x9282
bfc00f8c:	3652c420 	ori	s2,s2,0xc420
bfc00f90:	16120524 	bne	s0,s2,bfc02424 <inst_error>
bfc00f94:	00000000 	nop
bfc00f98:	3c082fd2 	lui	t0,0x2fd2
bfc00f9c:	3508bbd5 	ori	t0,t0,0xbbd5
bfc00fa0:	3409f294 	li	t1,0xf294
bfc00fa4:	2110f294 	addi	s0,t0,-3436
bfc00fa8:	3c122fd2 	lui	s2,0x2fd2
bfc00fac:	3652ae69 	ori	s2,s2,0xae69
bfc00fb0:	1612051c 	bne	s0,s2,bfc02424 <inst_error>
bfc00fb4:	00000000 	nop
bfc00fb8:	3c088592 	lui	t0,0x8592
bfc00fbc:	3508e65e 	ori	t0,t0,0xe65e
bfc00fc0:	2409475c 	li	t1,18268
bfc00fc4:	2110475c 	addi	s0,t0,18268
bfc00fc8:	3c128593 	lui	s2,0x8593
bfc00fcc:	36522dba 	ori	s2,s2,0x2dba
bfc00fd0:	16120514 	bne	s0,s2,bfc02424 <inst_error>
bfc00fd4:	00000000 	nop
bfc00fd8:	3c08e7b1 	lui	t0,0xe7b1
bfc00fdc:	3508c100 	ori	t0,t0,0xc100
bfc00fe0:	2409781c 	li	t1,30748
bfc00fe4:	2110781c 	addi	s0,t0,30748
bfc00fe8:	3c12e7b2 	lui	s2,0xe7b2
bfc00fec:	3652391c 	ori	s2,s2,0x391c
bfc00ff0:	1612050c 	bne	s0,s2,bfc02424 <inst_error>
bfc00ff4:	00000000 	nop
bfc00ff8:	3c089f92 	lui	t0,0x9f92
bfc00ffc:	3508ef00 	ori	t0,t0,0xef00
bfc01000:	3409daa4 	li	t1,0xdaa4
bfc01004:	2110daa4 	addi	s0,t0,-9564
bfc01008:	3c129f92 	lui	s2,0x9f92
bfc0100c:	3652c9a4 	ori	s2,s2,0xc9a4
bfc01010:	16120504 	bne	s0,s2,bfc02424 <inst_error>
bfc01014:	00000000 	nop
bfc01018:	3c08dd57 	lui	t0,0xdd57
bfc0101c:	3508b6b8 	ori	t0,t0,0xb6b8
bfc01020:	3409f6a9 	li	t1,0xf6a9
bfc01024:	2110f6a9 	addi	s0,t0,-2391
bfc01028:	3c12dd57 	lui	s2,0xdd57
bfc0102c:	3652ad61 	ori	s2,s2,0xad61
bfc01030:	161204fc 	bne	s0,s2,bfc02424 <inst_error>
bfc01034:	00000000 	nop
bfc01038:	3c088167 	lui	t0,0x8167
bfc0103c:	3508e198 	ori	t0,t0,0xe198
bfc01040:	24090fc9 	li	t1,4041
bfc01044:	21100fc9 	addi	s0,t0,4041
bfc01048:	3c128167 	lui	s2,0x8167
bfc0104c:	3652f161 	ori	s2,s2,0xf161
bfc01050:	161204f4 	bne	s0,s2,bfc02424 <inst_error>
bfc01054:	00000000 	nop
bfc01058:	3c084631 	lui	t0,0x4631
bfc0105c:	350886ee 	ori	t0,t0,0x86ee
bfc01060:	3409c3f0 	li	t1,0xc3f0
bfc01064:	2110c3f0 	addi	s0,t0,-15376
bfc01068:	3c124631 	lui	s2,0x4631
bfc0106c:	36524ade 	ori	s2,s2,0x4ade
bfc01070:	161204ec 	bne	s0,s2,bfc02424 <inst_error>
bfc01074:	00000000 	nop
bfc01078:	3c081dbf 	lui	t0,0x1dbf
bfc0107c:	35089f18 	ori	t0,t0,0x9f18
bfc01080:	3409ef14 	li	t1,0xef14
bfc01084:	2110ef14 	addi	s0,t0,-4332
bfc01088:	3c121dbf 	lui	s2,0x1dbf
bfc0108c:	36528e2c 	ori	s2,s2,0x8e2c
bfc01090:	161204e4 	bne	s0,s2,bfc02424 <inst_error>
bfc01094:	00000000 	nop
bfc01098:	3c08526b 	lui	t0,0x526b
bfc0109c:	35081b50 	ori	t0,t0,0x1b50
bfc010a0:	2409174c 	li	t1,5964
bfc010a4:	2110174c 	addi	s0,t0,5964
bfc010a8:	3c12526b 	lui	s2,0x526b
bfc010ac:	3652329c 	ori	s2,s2,0x329c
bfc010b0:	161204dc 	bne	s0,s2,bfc02424 <inst_error>
bfc010b4:	00000000 	nop
bfc010b8:	3c087c24 	lui	t0,0x7c24
bfc010bc:	35089fb9 	ori	t0,t0,0x9fb9
bfc010c0:	24090a88 	li	t1,2696
bfc010c4:	21100a88 	addi	s0,t0,2696
bfc010c8:	3c127c24 	lui	s2,0x7c24
bfc010cc:	3652aa41 	ori	s2,s2,0xaa41
bfc010d0:	161204d4 	bne	s0,s2,bfc02424 <inst_error>
bfc010d4:	00000000 	nop
bfc010d8:	3c08acc1 	lui	t0,0xacc1
bfc010dc:	3508d76c 	ori	t0,t0,0xd76c
bfc010e0:	24093240 	li	t1,12864
bfc010e4:	21103240 	addi	s0,t0,12864
bfc010e8:	3c12acc2 	lui	s2,0xacc2
bfc010ec:	365209ac 	ori	s2,s2,0x9ac
bfc010f0:	161204cc 	bne	s0,s2,bfc02424 <inst_error>
bfc010f4:	00000000 	nop
bfc010f8:	3c08dbcf 	lui	t0,0xdbcf
bfc010fc:	3508a630 	ori	t0,t0,0xa630
bfc01100:	24094536 	li	t1,17718
bfc01104:	21104536 	addi	s0,t0,17718
bfc01108:	3c12dbcf 	lui	s2,0xdbcf
bfc0110c:	3652eb66 	ori	s2,s2,0xeb66
bfc01110:	161204c4 	bne	s0,s2,bfc02424 <inst_error>
bfc01114:	00000000 	nop
bfc01118:	3c08baa5 	lui	t0,0xbaa5
bfc0111c:	35082f90 	ori	t0,t0,0x2f90
bfc01120:	3409b918 	li	t1,0xb918
bfc01124:	2110b918 	addi	s0,t0,-18152
bfc01128:	3c12baa4 	lui	s2,0xbaa4
bfc0112c:	3652e8a8 	ori	s2,s2,0xe8a8
bfc01130:	161204bc 	bne	s0,s2,bfc02424 <inst_error>
bfc01134:	00000000 	nop
bfc01138:	3c08dc9b 	lui	t0,0xdc9b
bfc0113c:	35089fed 	ori	t0,t0,0x9fed
bfc01140:	3409c646 	li	t1,0xc646
bfc01144:	2110c646 	addi	s0,t0,-14778
bfc01148:	3c12dc9b 	lui	s2,0xdc9b
bfc0114c:	36526633 	ori	s2,s2,0x6633
bfc01150:	161204b4 	bne	s0,s2,bfc02424 <inst_error>
bfc01154:	00000000 	nop
bfc01158:	3c086fa1 	lui	t0,0x6fa1
bfc0115c:	350866ac 	ori	t0,t0,0x66ac
bfc01160:	2409170f 	li	t1,5903
bfc01164:	2110170f 	addi	s0,t0,5903
bfc01168:	3c126fa1 	lui	s2,0x6fa1
bfc0116c:	36527dbb 	ori	s2,s2,0x7dbb
bfc01170:	161204ac 	bne	s0,s2,bfc02424 <inst_error>
bfc01174:	00000000 	nop
bfc01178:	3c08345c 	lui	t0,0x345c
bfc0117c:	3508cf3c 	ori	t0,t0,0xcf3c
bfc01180:	34098fd8 	li	t1,0x8fd8
bfc01184:	21108fd8 	addi	s0,t0,-28712
bfc01188:	3c12345c 	lui	s2,0x345c
bfc0118c:	36525f14 	ori	s2,s2,0x5f14
bfc01190:	161204a4 	bne	s0,s2,bfc02424 <inst_error>
bfc01194:	00000000 	nop
bfc01198:	3c08737e 	lui	t0,0x737e
bfc0119c:	35084d08 	ori	t0,t0,0x4d08
bfc011a0:	340998dc 	li	t1,0x98dc
bfc011a4:	211098dc 	addi	s0,t0,-26404
bfc011a8:	3c12737d 	lui	s2,0x737d
bfc011ac:	3652e5e4 	ori	s2,s2,0xe5e4
bfc011b0:	1612049c 	bne	s0,s2,bfc02424 <inst_error>
bfc011b4:	00000000 	nop
bfc011b8:	3c08ff7a 	lui	t0,0xff7a
bfc011bc:	3508fc4d 	ori	t0,t0,0xfc4d
bfc011c0:	34099938 	li	t1,0x9938
bfc011c4:	21109938 	addi	s0,t0,-26312
bfc011c8:	3c12ff7a 	lui	s2,0xff7a
bfc011cc:	36529585 	ori	s2,s2,0x9585
bfc011d0:	16120494 	bne	s0,s2,bfc02424 <inst_error>
bfc011d4:	00000000 	nop
bfc011d8:	3c085677 	lui	t0,0x5677
bfc011dc:	3508bb0f 	ori	t0,t0,0xbb0f
bfc011e0:	34099b4e 	li	t1,0x9b4e
bfc011e4:	21109b4e 	addi	s0,t0,-25778
bfc011e8:	3c125677 	lui	s2,0x5677
bfc011ec:	3652565d 	ori	s2,s2,0x565d
bfc011f0:	1612048c 	bne	s0,s2,bfc02424 <inst_error>
bfc011f4:	00000000 	nop
bfc011f8:	3c084f98 	lui	t0,0x4f98
bfc011fc:	35088da1 	ori	t0,t0,0x8da1
bfc01200:	24090c57 	li	t1,3159
bfc01204:	21100c57 	addi	s0,t0,3159
bfc01208:	3c124f98 	lui	s2,0x4f98
bfc0120c:	365299f8 	ori	s2,s2,0x99f8
bfc01210:	16120484 	bne	s0,s2,bfc02424 <inst_error>
bfc01214:	00000000 	nop
bfc01218:	3c0888f3 	lui	t0,0x88f3
bfc0121c:	3508019a 	ori	t0,t0,0x19a
bfc01220:	3409f7f8 	li	t1,0xf7f8
bfc01224:	2110f7f8 	addi	s0,t0,-2056
bfc01228:	3c1288f2 	lui	s2,0x88f2
bfc0122c:	3652f992 	ori	s2,s2,0xf992
bfc01230:	1612047c 	bne	s0,s2,bfc02424 <inst_error>
bfc01234:	00000000 	nop
bfc01238:	3c080190 	lui	t0,0x190
bfc0123c:	350821c0 	ori	t0,t0,0x21c0
bfc01240:	3409c870 	li	t1,0xc870
bfc01244:	2110c870 	addi	s0,t0,-14224
bfc01248:	3c12018f 	lui	s2,0x18f
bfc0124c:	3652ea30 	ori	s2,s2,0xea30
bfc01250:	16120474 	bne	s0,s2,bfc02424 <inst_error>
bfc01254:	00000000 	nop
bfc01258:	3c08c95a 	lui	t0,0xc95a
bfc0125c:	3508e608 	ori	t0,t0,0xe608
bfc01260:	3409dcc0 	li	t1,0xdcc0
bfc01264:	2110dcc0 	addi	s0,t0,-9024
bfc01268:	3c12c95a 	lui	s2,0xc95a
bfc0126c:	3652c2c8 	ori	s2,s2,0xc2c8
bfc01270:	1612046c 	bne	s0,s2,bfc02424 <inst_error>
bfc01274:	00000000 	nop
bfc01278:	3c084e04 	lui	t0,0x4e04
bfc0127c:	35080790 	ori	t0,t0,0x790
bfc01280:	24095797 	li	t1,22423
bfc01284:	21105797 	addi	s0,t0,22423
bfc01288:	3c124e04 	lui	s2,0x4e04
bfc0128c:	36525f27 	ori	s2,s2,0x5f27
bfc01290:	16120464 	bne	s0,s2,bfc02424 <inst_error>
bfc01294:	00000000 	nop
bfc01298:	3c0805fb 	lui	t0,0x5fb
bfc0129c:	350811f4 	ori	t0,t0,0x11f4
bfc012a0:	24091454 	li	t1,5204
bfc012a4:	21101454 	addi	s0,t0,5204
bfc012a8:	3c1205fb 	lui	s2,0x5fb
bfc012ac:	36522648 	ori	s2,s2,0x2648
bfc012b0:	1612045c 	bne	s0,s2,bfc02424 <inst_error>
bfc012b4:	00000000 	nop
bfc012b8:	3c083c38 	lui	t0,0x3c38
bfc012bc:	350831da 	ori	t0,t0,0x31da
bfc012c0:	240945b4 	li	t1,17844
bfc012c4:	211045b4 	addi	s0,t0,17844
bfc012c8:	3c123c38 	lui	s2,0x3c38
bfc012cc:	3652778e 	ori	s2,s2,0x778e
bfc012d0:	16120454 	bne	s0,s2,bfc02424 <inst_error>
bfc012d4:	00000000 	nop
bfc012d8:	3c08c0d1 	lui	t0,0xc0d1
bfc012dc:	3508d947 	ori	t0,t0,0xd947
bfc012e0:	3409b49c 	li	t1,0xb49c
bfc012e4:	2110b49c 	addi	s0,t0,-19300
bfc012e8:	3c12c0d1 	lui	s2,0xc0d1
bfc012ec:	36528de3 	ori	s2,s2,0x8de3
bfc012f0:	1612044c 	bne	s0,s2,bfc02424 <inst_error>
bfc012f4:	00000000 	nop
bfc012f8:	3c082d9d 	lui	t0,0x2d9d
bfc012fc:	35086978 	ori	t0,t0,0x6978
bfc01300:	3409e42f 	li	t1,0xe42f
bfc01304:	2110e42f 	addi	s0,t0,-7121
bfc01308:	3c122d9d 	lui	s2,0x2d9d
bfc0130c:	36524da7 	ori	s2,s2,0x4da7
bfc01310:	16120444 	bne	s0,s2,bfc02424 <inst_error>
bfc01314:	00000000 	nop
bfc01318:	3c08f670 	lui	t0,0xf670
bfc0131c:	35084b63 	ori	t0,t0,0x4b63
bfc01320:	240930ac 	li	t1,12460
bfc01324:	211030ac 	addi	s0,t0,12460
bfc01328:	3c12f670 	lui	s2,0xf670
bfc0132c:	36527c0f 	ori	s2,s2,0x7c0f
bfc01330:	1612043c 	bne	s0,s2,bfc02424 <inst_error>
bfc01334:	00000000 	nop
bfc01338:	3c08c8f1 	lui	t0,0xc8f1
bfc0133c:	35082ee0 	ori	t0,t0,0x2ee0
bfc01340:	24091349 	li	t1,4937
bfc01344:	21101349 	addi	s0,t0,4937
bfc01348:	3c12c8f1 	lui	s2,0xc8f1
bfc0134c:	36524229 	ori	s2,s2,0x4229
bfc01350:	16120434 	bne	s0,s2,bfc02424 <inst_error>
bfc01354:	00000000 	nop
bfc01358:	3c086235 	lui	t0,0x6235
bfc0135c:	35082180 	ori	t0,t0,0x2180
bfc01360:	240956bb 	li	t1,22203
bfc01364:	211056bb 	addi	s0,t0,22203
bfc01368:	3c126235 	lui	s2,0x6235
bfc0136c:	3652783b 	ori	s2,s2,0x783b
bfc01370:	1612042c 	bne	s0,s2,bfc02424 <inst_error>
bfc01374:	00000000 	nop
bfc01378:	3c084f9f 	lui	t0,0x4f9f
bfc0137c:	350807c0 	ori	t0,t0,0x7c0
bfc01380:	24095048 	li	t1,20552
bfc01384:	21105048 	addi	s0,t0,20552
bfc01388:	3c124f9f 	lui	s2,0x4f9f
bfc0138c:	36525808 	ori	s2,s2,0x5808
bfc01390:	16120424 	bne	s0,s2,bfc02424 <inst_error>
bfc01394:	00000000 	nop
bfc01398:	3c08996b 	lui	t0,0x996b
bfc0139c:	3508ff6f 	ori	t0,t0,0xff6f
bfc013a0:	3409b852 	li	t1,0xb852
bfc013a4:	2110b852 	addi	s0,t0,-18350
bfc013a8:	3c12996b 	lui	s2,0x996b
bfc013ac:	3652b7c1 	ori	s2,s2,0xb7c1
bfc013b0:	1612041c 	bne	s0,s2,bfc02424 <inst_error>
bfc013b4:	00000000 	nop
bfc013b8:	3c086336 	lui	t0,0x6336
bfc013bc:	3508a506 	ori	t0,t0,0xa506
bfc013c0:	2409762d 	li	t1,30253
bfc013c4:	2110762d 	addi	s0,t0,30253
bfc013c8:	3c126337 	lui	s2,0x6337
bfc013cc:	36521b33 	ori	s2,s2,0x1b33
bfc013d0:	16120414 	bne	s0,s2,bfc02424 <inst_error>
bfc013d4:	00000000 	nop
bfc013d8:	3c0846a9 	lui	t0,0x46a9
bfc013dc:	3508a3c8 	ori	t0,t0,0xa3c8
bfc013e0:	24097a10 	li	t1,31248
bfc013e4:	21107a10 	addi	s0,t0,31248
bfc013e8:	3c1246aa 	lui	s2,0x46aa
bfc013ec:	36521dd8 	ori	s2,s2,0x1dd8
bfc013f0:	1612040c 	bne	s0,s2,bfc02424 <inst_error>
bfc013f4:	00000000 	nop
bfc013f8:	3c0864bd 	lui	t0,0x64bd
bfc013fc:	35084600 	ori	t0,t0,0x4600
bfc01400:	3409deb0 	li	t1,0xdeb0
bfc01404:	2110deb0 	addi	s0,t0,-8528
bfc01408:	3c1264bd 	lui	s2,0x64bd
bfc0140c:	365224b0 	ori	s2,s2,0x24b0
bfc01410:	16120404 	bne	s0,s2,bfc02424 <inst_error>
bfc01414:	00000000 	nop
bfc01418:	3c089231 	lui	t0,0x9231
bfc0141c:	35089e67 	ori	t0,t0,0x9e67
bfc01420:	3409af5c 	li	t1,0xaf5c
bfc01424:	2110af5c 	addi	s0,t0,-20644
bfc01428:	3c129231 	lui	s2,0x9231
bfc0142c:	36524dc3 	ori	s2,s2,0x4dc3
bfc01430:	161203fc 	bne	s0,s2,bfc02424 <inst_error>
bfc01434:	00000000 	nop
bfc01438:	3c086cae 	lui	t0,0x6cae
bfc0143c:	3508c316 	ori	t0,t0,0xc316
bfc01440:	24095670 	li	t1,22128
bfc01444:	21105670 	addi	s0,t0,22128
bfc01448:	3c126caf 	lui	s2,0x6caf
bfc0144c:	36521986 	ori	s2,s2,0x1986
bfc01450:	161203f4 	bne	s0,s2,bfc02424 <inst_error>
bfc01454:	00000000 	nop
bfc01458:	3c0855a5 	lui	t0,0x55a5
bfc0145c:	3508eb38 	ori	t0,t0,0xeb38
bfc01460:	3409bb80 	li	t1,0xbb80
bfc01464:	2110bb80 	addi	s0,t0,-17536
bfc01468:	3c1255a5 	lui	s2,0x55a5
bfc0146c:	3652a6b8 	ori	s2,s2,0xa6b8
bfc01470:	161203ec 	bne	s0,s2,bfc02424 <inst_error>
bfc01474:	00000000 	nop
bfc01478:	3c0806fd 	lui	t0,0x6fd
bfc0147c:	3508d3af 	ori	t0,t0,0xd3af
bfc01480:	24092512 	li	t1,9490
bfc01484:	21102512 	addi	s0,t0,9490
bfc01488:	3c1206fd 	lui	s2,0x6fd
bfc0148c:	3652f8c1 	ori	s2,s2,0xf8c1
bfc01490:	161203e4 	bne	s0,s2,bfc02424 <inst_error>
bfc01494:	00000000 	nop
bfc01498:	3c08a3b1 	lui	t0,0xa3b1
bfc0149c:	35089490 	ori	t0,t0,0x9490
bfc014a0:	3409f283 	li	t1,0xf283
bfc014a4:	2110f283 	addi	s0,t0,-3453
bfc014a8:	3c12a3b1 	lui	s2,0xa3b1
bfc014ac:	36528713 	ori	s2,s2,0x8713
bfc014b0:	161203dc 	bne	s0,s2,bfc02424 <inst_error>
bfc014b4:	00000000 	nop
bfc014b8:	3c0882af 	lui	t0,0x82af
bfc014bc:	350831b6 	ori	t0,t0,0x31b6
bfc014c0:	24092f02 	li	t1,12034
bfc014c4:	21102f02 	addi	s0,t0,12034
bfc014c8:	3c1282af 	lui	s2,0x82af
bfc014cc:	365260b8 	ori	s2,s2,0x60b8
bfc014d0:	161203d4 	bne	s0,s2,bfc02424 <inst_error>
bfc014d4:	00000000 	nop
bfc014d8:	3c086708 	lui	t0,0x6708
bfc014dc:	3508baac 	ori	t0,t0,0xbaac
bfc014e0:	340984d0 	li	t1,0x84d0
bfc014e4:	211084d0 	addi	s0,t0,-31536
bfc014e8:	3c126708 	lui	s2,0x6708
bfc014ec:	36523f7c 	ori	s2,s2,0x3f7c
bfc014f0:	161203cc 	bne	s0,s2,bfc02424 <inst_error>
bfc014f4:	00000000 	nop
bfc014f8:	3c08caca 	lui	t0,0xcaca
bfc014fc:	3508acc0 	ori	t0,t0,0xacc0
bfc01500:	24097f70 	li	t1,32624
bfc01504:	21107f70 	addi	s0,t0,32624
bfc01508:	3c12cacb 	lui	s2,0xcacb
bfc0150c:	36522c30 	ori	s2,s2,0x2c30
bfc01510:	161203c4 	bne	s0,s2,bfc02424 <inst_error>
bfc01514:	00000000 	nop
bfc01518:	3c08ad80 	lui	t0,0xad80
bfc0151c:	3508136f 	ori	t0,t0,0x136f
bfc01520:	3409a066 	li	t1,0xa066
bfc01524:	2110a066 	addi	s0,t0,-24474
bfc01528:	3c12ad7f 	lui	s2,0xad7f
bfc0152c:	3652b3d5 	ori	s2,s2,0xb3d5
bfc01530:	161203bc 	bne	s0,s2,bfc02424 <inst_error>
bfc01534:	00000000 	nop
bfc01538:	3c081043 	lui	t0,0x1043
bfc0153c:	35084714 	ori	t0,t0,0x4714
bfc01540:	3409c6e0 	li	t1,0xc6e0
bfc01544:	2110c6e0 	addi	s0,t0,-14624
bfc01548:	3c121043 	lui	s2,0x1043
bfc0154c:	36520df4 	ori	s2,s2,0xdf4
bfc01550:	161203b4 	bne	s0,s2,bfc02424 <inst_error>
bfc01554:	00000000 	nop
bfc01558:	3c081573 	lui	t0,0x1573
bfc0155c:	35088c00 	ori	t0,t0,0x8c00
bfc01560:	3409bb2b 	li	t1,0xbb2b
bfc01564:	2110bb2b 	addi	s0,t0,-17621
bfc01568:	3c121573 	lui	s2,0x1573
bfc0156c:	3652472b 	ori	s2,s2,0x472b
bfc01570:	161203ac 	bne	s0,s2,bfc02424 <inst_error>
bfc01574:	00000000 	nop
bfc01578:	3c0840d9 	lui	t0,0x40d9
bfc0157c:	350818c7 	ori	t0,t0,0x18c7
bfc01580:	3409f8a8 	li	t1,0xf8a8
bfc01584:	2110f8a8 	addi	s0,t0,-1880
bfc01588:	3c1240d9 	lui	s2,0x40d9
bfc0158c:	3652116f 	ori	s2,s2,0x116f
bfc01590:	161203a4 	bne	s0,s2,bfc02424 <inst_error>
bfc01594:	00000000 	nop
bfc01598:	3c084d54 	lui	t0,0x4d54
bfc0159c:	3508c800 	ori	t0,t0,0xc800
bfc015a0:	3409a42c 	li	t1,0xa42c
bfc015a4:	2110a42c 	addi	s0,t0,-23508
bfc015a8:	3c124d54 	lui	s2,0x4d54
bfc015ac:	36526c2c 	ori	s2,s2,0x6c2c
bfc015b0:	1612039c 	bne	s0,s2,bfc02424 <inst_error>
bfc015b4:	00000000 	nop
bfc015b8:	3c08710c 	lui	t0,0x710c
bfc015bc:	3508e180 	ori	t0,t0,0xe180
bfc015c0:	3409d176 	li	t1,0xd176
bfc015c4:	2110d176 	addi	s0,t0,-11914
bfc015c8:	3c12710c 	lui	s2,0x710c
bfc015cc:	3652b2f6 	ori	s2,s2,0xb2f6
bfc015d0:	16120394 	bne	s0,s2,bfc02424 <inst_error>
bfc015d4:	00000000 	nop
bfc015d8:	3c088a0c 	lui	t0,0x8a0c
bfc015dc:	35082d90 	ori	t0,t0,0x2d90
bfc015e0:	24097704 	li	t1,30468
bfc015e4:	21107704 	addi	s0,t0,30468
bfc015e8:	3c128a0c 	lui	s2,0x8a0c
bfc015ec:	3652a494 	ori	s2,s2,0xa494
bfc015f0:	1612038c 	bne	s0,s2,bfc02424 <inst_error>
bfc015f4:	00000000 	nop
bfc015f8:	3c089d03 	lui	t0,0x9d03
bfc015fc:	3508ef78 	ori	t0,t0,0xef78
bfc01600:	24092011 	li	t1,8209
bfc01604:	21102011 	addi	s0,t0,8209
bfc01608:	3c129d04 	lui	s2,0x9d04
bfc0160c:	36520f89 	ori	s2,s2,0xf89
bfc01610:	16120384 	bne	s0,s2,bfc02424 <inst_error>
bfc01614:	00000000 	nop
bfc01618:	3c0800a0 	lui	t0,0xa0
bfc0161c:	3508124c 	ori	t0,t0,0x124c
bfc01620:	24092253 	li	t1,8787
bfc01624:	21102253 	addi	s0,t0,8787
bfc01628:	3c1200a0 	lui	s2,0xa0
bfc0162c:	3652349f 	ori	s2,s2,0x349f
bfc01630:	1612037c 	bne	s0,s2,bfc02424 <inst_error>
bfc01634:	00000000 	nop
bfc01638:	3c08548e 	lui	t0,0x548e
bfc0163c:	3508f2a6 	ori	t0,t0,0xf2a6
bfc01640:	24091ce8 	li	t1,7400
bfc01644:	21101ce8 	addi	s0,t0,7400
bfc01648:	3c12548f 	lui	s2,0x548f
bfc0164c:	36520f8e 	ori	s2,s2,0xf8e
bfc01650:	16120374 	bne	s0,s2,bfc02424 <inst_error>
bfc01654:	00000000 	nop
bfc01658:	3c082267 	lui	t0,0x2267
bfc0165c:	35086612 	ori	t0,t0,0x6612
bfc01660:	240942ff 	li	t1,17151
bfc01664:	211042ff 	addi	s0,t0,17151
bfc01668:	3c122267 	lui	s2,0x2267
bfc0166c:	3652a911 	ori	s2,s2,0xa911
bfc01670:	1612036c 	bne	s0,s2,bfc02424 <inst_error>
bfc01674:	00000000 	nop
bfc01678:	3c088f54 	lui	t0,0x8f54
bfc0167c:	35081d96 	ori	t0,t0,0x1d96
bfc01680:	3409fce4 	li	t1,0xfce4
bfc01684:	2110fce4 	addi	s0,t0,-796
bfc01688:	3c128f54 	lui	s2,0x8f54
bfc0168c:	36521a7a 	ori	s2,s2,0x1a7a
bfc01690:	16120364 	bne	s0,s2,bfc02424 <inst_error>
bfc01694:	00000000 	nop
bfc01698:	3c0848d6 	lui	t0,0x48d6
bfc0169c:	350843e8 	ori	t0,t0,0x43e8
bfc016a0:	3409ce9c 	li	t1,0xce9c
bfc016a4:	2110ce9c 	addi	s0,t0,-12644
bfc016a8:	3c1248d6 	lui	s2,0x48d6
bfc016ac:	36521284 	ori	s2,s2,0x1284
bfc016b0:	1612035c 	bne	s0,s2,bfc02424 <inst_error>
bfc016b4:	00000000 	nop
bfc016b8:	3c083c3a 	lui	t0,0x3c3a
bfc016bc:	35086780 	ori	t0,t0,0x6780
bfc016c0:	24090652 	li	t1,1618
bfc016c4:	21100652 	addi	s0,t0,1618
bfc016c8:	3c123c3a 	lui	s2,0x3c3a
bfc016cc:	36526dd2 	ori	s2,s2,0x6dd2
bfc016d0:	16120354 	bne	s0,s2,bfc02424 <inst_error>
bfc016d4:	00000000 	nop
bfc016d8:	3c08933f 	lui	t0,0x933f
bfc016dc:	350829c2 	ori	t0,t0,0x29c2
bfc016e0:	24090293 	li	t1,659
bfc016e4:	21100293 	addi	s0,t0,659
bfc016e8:	3c12933f 	lui	s2,0x933f
bfc016ec:	36522c55 	ori	s2,s2,0x2c55
bfc016f0:	1612034c 	bne	s0,s2,bfc02424 <inst_error>
bfc016f4:	00000000 	nop
bfc016f8:	3c08759a 	lui	t0,0x759a
bfc016fc:	3508613e 	ori	t0,t0,0x613e
bfc01700:	24096b17 	li	t1,27415
bfc01704:	21106b17 	addi	s0,t0,27415
bfc01708:	3c12759a 	lui	s2,0x759a
bfc0170c:	3652cc55 	ori	s2,s2,0xcc55
bfc01710:	16120344 	bne	s0,s2,bfc02424 <inst_error>
bfc01714:	00000000 	nop
bfc01718:	3c082ca8 	lui	t0,0x2ca8
bfc0171c:	35084503 	ori	t0,t0,0x4503
bfc01720:	24094730 	li	t1,18224
bfc01724:	21104730 	addi	s0,t0,18224
bfc01728:	3c122ca8 	lui	s2,0x2ca8
bfc0172c:	36528c33 	ori	s2,s2,0x8c33
bfc01730:	1612033c 	bne	s0,s2,bfc02424 <inst_error>
bfc01734:	00000000 	nop
bfc01738:	3c086ec8 	lui	t0,0x6ec8
bfc0173c:	3508e770 	ori	t0,t0,0xe770
bfc01740:	3409f721 	li	t1,0xf721
bfc01744:	2110f721 	addi	s0,t0,-2271
bfc01748:	3c126ec8 	lui	s2,0x6ec8
bfc0174c:	3652de91 	ori	s2,s2,0xde91
bfc01750:	16120334 	bne	s0,s2,bfc02424 <inst_error>
bfc01754:	00000000 	nop
bfc01758:	3c0822b5 	lui	t0,0x22b5
bfc0175c:	35087c97 	ori	t0,t0,0x7c97
bfc01760:	24093625 	li	t1,13861
bfc01764:	21103625 	addi	s0,t0,13861
bfc01768:	3c1222b5 	lui	s2,0x22b5
bfc0176c:	3652b2bc 	ori	s2,s2,0xb2bc
bfc01770:	1612032c 	bne	s0,s2,bfc02424 <inst_error>
bfc01774:	00000000 	nop
bfc01778:	3c0805d4 	lui	t0,0x5d4
bfc0177c:	3508b1b4 	ori	t0,t0,0xb1b4
bfc01780:	3409a5ea 	li	t1,0xa5ea
bfc01784:	2110a5ea 	addi	s0,t0,-23062
bfc01788:	3c1205d4 	lui	s2,0x5d4
bfc0178c:	3652579e 	ori	s2,s2,0x579e
bfc01790:	16120324 	bne	s0,s2,bfc02424 <inst_error>
bfc01794:	00000000 	nop
bfc01798:	3c08c610 	lui	t0,0xc610
bfc0179c:	35083de8 	ori	t0,t0,0x3de8
bfc017a0:	3409b62b 	li	t1,0xb62b
bfc017a4:	2110b62b 	addi	s0,t0,-18901
bfc017a8:	3c12c60f 	lui	s2,0xc60f
bfc017ac:	3652f413 	ori	s2,s2,0xf413
bfc017b0:	1612031c 	bne	s0,s2,bfc02424 <inst_error>
bfc017b4:	00000000 	nop
bfc017b8:	3c08cc6c 	lui	t0,0xcc6c
bfc017bc:	3508bc66 	ori	t0,t0,0xbc66
bfc017c0:	24095a81 	li	t1,23169
bfc017c4:	21105a81 	addi	s0,t0,23169
bfc017c8:	3c12cc6d 	lui	s2,0xcc6d
bfc017cc:	365216e7 	ori	s2,s2,0x16e7
bfc017d0:	16120314 	bne	s0,s2,bfc02424 <inst_error>
bfc017d4:	00000000 	nop
bfc017d8:	3c08505e 	lui	t0,0x505e
bfc017dc:	3508d600 	ori	t0,t0,0xd600
bfc017e0:	3409ae0a 	li	t1,0xae0a
bfc017e4:	2110ae0a 	addi	s0,t0,-20982
bfc017e8:	3c12505e 	lui	s2,0x505e
bfc017ec:	3652840a 	ori	s2,s2,0x840a
bfc017f0:	1612030c 	bne	s0,s2,bfc02424 <inst_error>
bfc017f4:	00000000 	nop
bfc017f8:	3c08d969 	lui	t0,0xd969
bfc017fc:	35085bc0 	ori	t0,t0,0x5bc0
bfc01800:	3409ad4c 	li	t1,0xad4c
bfc01804:	2110ad4c 	addi	s0,t0,-21172
bfc01808:	3c12d969 	lui	s2,0xd969
bfc0180c:	3652090c 	ori	s2,s2,0x90c
bfc01810:	16120304 	bne	s0,s2,bfc02424 <inst_error>
bfc01814:	00000000 	nop
bfc01818:	3c08bcf9 	lui	t0,0xbcf9
bfc0181c:	3508a40a 	ori	t0,t0,0xa40a
bfc01820:	24094824 	li	t1,18468
bfc01824:	21104824 	addi	s0,t0,18468
bfc01828:	3c12bcf9 	lui	s2,0xbcf9
bfc0182c:	3652ec2e 	ori	s2,s2,0xec2e
bfc01830:	161202fc 	bne	s0,s2,bfc02424 <inst_error>
bfc01834:	00000000 	nop
bfc01838:	3c0860e2 	lui	t0,0x60e2
bfc0183c:	35081e48 	ori	t0,t0,0x1e48
bfc01840:	24094cad 	li	t1,19629
bfc01844:	21104cad 	addi	s0,t0,19629
bfc01848:	3c1260e2 	lui	s2,0x60e2
bfc0184c:	36526af5 	ori	s2,s2,0x6af5
bfc01850:	161202f4 	bne	s0,s2,bfc02424 <inst_error>
bfc01854:	00000000 	nop
bfc01858:	3c08dbaa 	lui	t0,0xdbaa
bfc0185c:	3508fa0a 	ori	t0,t0,0xfa0a
bfc01860:	24096ab8 	li	t1,27320
bfc01864:	21106ab8 	addi	s0,t0,27320
bfc01868:	3c12dbab 	lui	s2,0xdbab
bfc0186c:	365264c2 	ori	s2,s2,0x64c2
bfc01870:	161202ec 	bne	s0,s2,bfc02424 <inst_error>
bfc01874:	00000000 	nop
bfc01878:	3c0893a1 	lui	t0,0x93a1
bfc0187c:	35089838 	ori	t0,t0,0x9838
bfc01880:	2409446a 	li	t1,17514
bfc01884:	2110446a 	addi	s0,t0,17514
bfc01888:	3c1293a1 	lui	s2,0x93a1
bfc0188c:	3652dca2 	ori	s2,s2,0xdca2
bfc01890:	161202e4 	bne	s0,s2,bfc02424 <inst_error>
bfc01894:	00000000 	nop
bfc01898:	3c08a815 	lui	t0,0xa815
bfc0189c:	350832af 	ori	t0,t0,0x32af
bfc018a0:	24093bf0 	li	t1,15344
bfc018a4:	21103bf0 	addi	s0,t0,15344
bfc018a8:	3c12a815 	lui	s2,0xa815
bfc018ac:	36526e9f 	ori	s2,s2,0x6e9f
bfc018b0:	161202dc 	bne	s0,s2,bfc02424 <inst_error>
bfc018b4:	00000000 	nop
bfc018b8:	3c0895cf 	lui	t0,0x95cf
bfc018bc:	35083f04 	ori	t0,t0,0x3f04
bfc018c0:	3409b007 	li	t1,0xb007
bfc018c4:	2110b007 	addi	s0,t0,-20473
bfc018c8:	3c1295ce 	lui	s2,0x95ce
bfc018cc:	3652ef0b 	ori	s2,s2,0xef0b
bfc018d0:	161202d4 	bne	s0,s2,bfc02424 <inst_error>
bfc018d4:	00000000 	nop
bfc018d8:	3c082493 	lui	t0,0x2493
bfc018dc:	35086e58 	ori	t0,t0,0x6e58
bfc018e0:	34099042 	li	t1,0x9042
bfc018e4:	21109042 	addi	s0,t0,-28606
bfc018e8:	3c122492 	lui	s2,0x2492
bfc018ec:	3652fe9a 	ori	s2,s2,0xfe9a
bfc018f0:	161202cc 	bne	s0,s2,bfc02424 <inst_error>
bfc018f4:	00000000 	nop
bfc018f8:	3c08bcbf 	lui	t0,0xbcbf
bfc018fc:	3508dbe0 	ori	t0,t0,0xdbe0
bfc01900:	3409f6c0 	li	t1,0xf6c0
bfc01904:	2110f6c0 	addi	s0,t0,-2368
bfc01908:	3c12bcbf 	lui	s2,0xbcbf
bfc0190c:	3652d2a0 	ori	s2,s2,0xd2a0
bfc01910:	161202c4 	bne	s0,s2,bfc02424 <inst_error>
bfc01914:	00000000 	nop
bfc01918:	3c08d33b 	lui	t0,0xd33b
bfc0191c:	350801eb 	ori	t0,t0,0x1eb
bfc01920:	24090000 	li	t1,0
bfc01924:	21100000 	addi	s0,t0,0
bfc01928:	3c12d33b 	lui	s2,0xd33b
bfc0192c:	365201eb 	ori	s2,s2,0x1eb
bfc01930:	161202bc 	bne	s0,s2,bfc02424 <inst_error>
bfc01934:	00000000 	nop
bfc01938:	3c08e77f 	lui	t0,0xe77f
bfc0193c:	3508bd50 	ori	t0,t0,0xbd50
bfc01940:	24090000 	li	t1,0
bfc01944:	21100000 	addi	s0,t0,0
bfc01948:	3c12e77f 	lui	s2,0xe77f
bfc0194c:	3652bd50 	ori	s2,s2,0xbd50
bfc01950:	161202b4 	bne	s0,s2,bfc02424 <inst_error>
bfc01954:	00000000 	nop
bfc01958:	3c08048a 	lui	t0,0x48a
bfc0195c:	3508c180 	ori	t0,t0,0xc180
bfc01960:	24090000 	li	t1,0
bfc01964:	21100000 	addi	s0,t0,0
bfc01968:	3c12048a 	lui	s2,0x48a
bfc0196c:	3652c180 	ori	s2,s2,0xc180
bfc01970:	161202ac 	bne	s0,s2,bfc02424 <inst_error>
bfc01974:	00000000 	nop
bfc01978:	3c086b80 	lui	t0,0x6b80
bfc0197c:	35085e70 	ori	t0,t0,0x5e70
bfc01980:	24090000 	li	t1,0
bfc01984:	21100000 	addi	s0,t0,0
bfc01988:	3c126b80 	lui	s2,0x6b80
bfc0198c:	36525e70 	ori	s2,s2,0x5e70
bfc01990:	161202a4 	bne	s0,s2,bfc02424 <inst_error>
bfc01994:	00000000 	nop
bfc01998:	3c080bf6 	lui	t0,0xbf6
bfc0199c:	35082560 	ori	t0,t0,0x2560
bfc019a0:	24090000 	li	t1,0
bfc019a4:	21100000 	addi	s0,t0,0
bfc019a8:	3c120bf6 	lui	s2,0xbf6
bfc019ac:	36522560 	ori	s2,s2,0x2560
bfc019b0:	1612029c 	bne	s0,s2,bfc02424 <inst_error>
bfc019b4:	00000000 	nop
bfc019b8:	3c080f61 	lui	t0,0xf61
bfc019bc:	3508c17a 	ori	t0,t0,0xc17a
bfc019c0:	24090000 	li	t1,0
bfc019c4:	21100000 	addi	s0,t0,0
bfc019c8:	3c120f61 	lui	s2,0xf61
bfc019cc:	3652c17a 	ori	s2,s2,0xc17a
bfc019d0:	16120294 	bne	s0,s2,bfc02424 <inst_error>
bfc019d4:	00000000 	nop
bfc019d8:	3c080129 	lui	t0,0x129
bfc019dc:	350801a0 	ori	t0,t0,0x1a0
bfc019e0:	24090000 	li	t1,0
bfc019e4:	21100000 	addi	s0,t0,0
bfc019e8:	3c120129 	lui	s2,0x129
bfc019ec:	365201a0 	ori	s2,s2,0x1a0
bfc019f0:	1612028c 	bne	s0,s2,bfc02424 <inst_error>
bfc019f4:	00000000 	nop
bfc019f8:	3c0875c7 	lui	t0,0x75c7
bfc019fc:	35081bfc 	ori	t0,t0,0x1bfc
bfc01a00:	24090000 	li	t1,0
bfc01a04:	21100000 	addi	s0,t0,0
bfc01a08:	3c1275c7 	lui	s2,0x75c7
bfc01a0c:	36521bfc 	ori	s2,s2,0x1bfc
bfc01a10:	16120284 	bne	s0,s2,bfc02424 <inst_error>
bfc01a14:	00000000 	nop
bfc01a18:	3c0833c0 	lui	t0,0x33c0
bfc01a1c:	35082734 	ori	t0,t0,0x2734
bfc01a20:	24090000 	li	t1,0
bfc01a24:	21100000 	addi	s0,t0,0
bfc01a28:	3c1233c0 	lui	s2,0x33c0
bfc01a2c:	36522734 	ori	s2,s2,0x2734
bfc01a30:	1612027c 	bne	s0,s2,bfc02424 <inst_error>
bfc01a34:	00000000 	nop
bfc01a38:	3c08acd9 	lui	t0,0xacd9
bfc01a3c:	3508a7a0 	ori	t0,t0,0xa7a0
bfc01a40:	24090000 	li	t1,0
bfc01a44:	21100000 	addi	s0,t0,0
bfc01a48:	3c12acd9 	lui	s2,0xacd9
bfc01a4c:	3652a7a0 	ori	s2,s2,0xa7a0
bfc01a50:	16120274 	bne	s0,s2,bfc02424 <inst_error>
bfc01a54:	00000000 	nop
bfc01a58:	3c08f1f3 	lui	t0,0xf1f3
bfc01a5c:	3508efa4 	ori	t0,t0,0xefa4
bfc01a60:	24090000 	li	t1,0
bfc01a64:	21100000 	addi	s0,t0,0
bfc01a68:	3c12f1f3 	lui	s2,0xf1f3
bfc01a6c:	3652efa4 	ori	s2,s2,0xefa4
bfc01a70:	1612026c 	bne	s0,s2,bfc02424 <inst_error>
bfc01a74:	00000000 	nop
bfc01a78:	3c08b581 	lui	t0,0xb581
bfc01a7c:	350863f6 	ori	t0,t0,0x63f6
bfc01a80:	24090000 	li	t1,0
bfc01a84:	21100000 	addi	s0,t0,0
bfc01a88:	3c12b581 	lui	s2,0xb581
bfc01a8c:	365263f6 	ori	s2,s2,0x63f6
bfc01a90:	16120264 	bne	s0,s2,bfc02424 <inst_error>
bfc01a94:	00000000 	nop
bfc01a98:	3c0890eb 	lui	t0,0x90eb
bfc01a9c:	35089000 	ori	t0,t0,0x9000
bfc01aa0:	24090000 	li	t1,0
bfc01aa4:	21100000 	addi	s0,t0,0
bfc01aa8:	3c1290eb 	lui	s2,0x90eb
bfc01aac:	36529000 	ori	s2,s2,0x9000
bfc01ab0:	1612025c 	bne	s0,s2,bfc02424 <inst_error>
bfc01ab4:	00000000 	nop
bfc01ab8:	3c08f10b 	lui	t0,0xf10b
bfc01abc:	35080ab0 	ori	t0,t0,0xab0
bfc01ac0:	24090000 	li	t1,0
bfc01ac4:	21100000 	addi	s0,t0,0
bfc01ac8:	3c12f10b 	lui	s2,0xf10b
bfc01acc:	36520ab0 	ori	s2,s2,0xab0
bfc01ad0:	16120254 	bne	s0,s2,bfc02424 <inst_error>
bfc01ad4:	00000000 	nop
bfc01ad8:	3c089857 	lui	t0,0x9857
bfc01adc:	3508c6d8 	ori	t0,t0,0xc6d8
bfc01ae0:	24090000 	li	t1,0
bfc01ae4:	21100000 	addi	s0,t0,0
bfc01ae8:	3c129857 	lui	s2,0x9857
bfc01aec:	3652c6d8 	ori	s2,s2,0xc6d8
bfc01af0:	1612024c 	bne	s0,s2,bfc02424 <inst_error>
bfc01af4:	00000000 	nop
bfc01af8:	3c080fae 	lui	t0,0xfae
bfc01afc:	3508514e 	ori	t0,t0,0x514e
bfc01b00:	24090000 	li	t1,0
bfc01b04:	21100000 	addi	s0,t0,0
bfc01b08:	3c120fae 	lui	s2,0xfae
bfc01b0c:	3652514e 	ori	s2,s2,0x514e
bfc01b10:	16120244 	bne	s0,s2,bfc02424 <inst_error>
bfc01b14:	00000000 	nop
bfc01b18:	3c08027a 	lui	t0,0x27a
bfc01b1c:	3508edac 	ori	t0,t0,0xedac
bfc01b20:	24090000 	li	t1,0
bfc01b24:	21100000 	addi	s0,t0,0
bfc01b28:	3c12027a 	lui	s2,0x27a
bfc01b2c:	3652edac 	ori	s2,s2,0xedac
bfc01b30:	1612023c 	bne	s0,s2,bfc02424 <inst_error>
bfc01b34:	00000000 	nop
bfc01b38:	3c0898e5 	lui	t0,0x98e5
bfc01b3c:	35088646 	ori	t0,t0,0x8646
bfc01b40:	24090000 	li	t1,0
bfc01b44:	21100000 	addi	s0,t0,0
bfc01b48:	3c1298e5 	lui	s2,0x98e5
bfc01b4c:	36528646 	ori	s2,s2,0x8646
bfc01b50:	16120234 	bne	s0,s2,bfc02424 <inst_error>
bfc01b54:	00000000 	nop
bfc01b58:	3c084902 	lui	t0,0x4902
bfc01b5c:	35089d00 	ori	t0,t0,0x9d00
bfc01b60:	24090000 	li	t1,0
bfc01b64:	21100000 	addi	s0,t0,0
bfc01b68:	3c124902 	lui	s2,0x4902
bfc01b6c:	36529d00 	ori	s2,s2,0x9d00
bfc01b70:	1612022c 	bne	s0,s2,bfc02424 <inst_error>
bfc01b74:	00000000 	nop
bfc01b78:	3c0830ef 	lui	t0,0x30ef
bfc01b7c:	350889dc 	ori	t0,t0,0x89dc
bfc01b80:	24090000 	li	t1,0
bfc01b84:	21100000 	addi	s0,t0,0
bfc01b88:	3c1230ef 	lui	s2,0x30ef
bfc01b8c:	365289dc 	ori	s2,s2,0x89dc
bfc01b90:	16120224 	bne	s0,s2,bfc02424 <inst_error>
bfc01b94:	00000000 	nop
bfc01b98:	3c08f063 	lui	t0,0xf063
bfc01b9c:	3508c6b4 	ori	t0,t0,0xc6b4
bfc01ba0:	24090000 	li	t1,0
bfc01ba4:	21100000 	addi	s0,t0,0
bfc01ba8:	3c12f063 	lui	s2,0xf063
bfc01bac:	3652c6b4 	ori	s2,s2,0xc6b4
bfc01bb0:	1612021c 	bne	s0,s2,bfc02424 <inst_error>
bfc01bb4:	00000000 	nop
bfc01bb8:	3c086ba4 	lui	t0,0x6ba4
bfc01bbc:	35084dc0 	ori	t0,t0,0x4dc0
bfc01bc0:	24090000 	li	t1,0
bfc01bc4:	21100000 	addi	s0,t0,0
bfc01bc8:	3c126ba4 	lui	s2,0x6ba4
bfc01bcc:	36524dc0 	ori	s2,s2,0x4dc0
bfc01bd0:	16120214 	bne	s0,s2,bfc02424 <inst_error>
bfc01bd4:	00000000 	nop
bfc01bd8:	3c080be2 	lui	t0,0xbe2
bfc01bdc:	35081350 	ori	t0,t0,0x1350
bfc01be0:	24090000 	li	t1,0
bfc01be4:	21100000 	addi	s0,t0,0
bfc01be8:	3c120be2 	lui	s2,0xbe2
bfc01bec:	36521350 	ori	s2,s2,0x1350
bfc01bf0:	1612020c 	bne	s0,s2,bfc02424 <inst_error>
bfc01bf4:	00000000 	nop
bfc01bf8:	3c087697 	lui	t0,0x7697
bfc01bfc:	3508ce00 	ori	t0,t0,0xce00
bfc01c00:	24090000 	li	t1,0
bfc01c04:	21100000 	addi	s0,t0,0
bfc01c08:	3c127697 	lui	s2,0x7697
bfc01c0c:	3652ce00 	ori	s2,s2,0xce00
bfc01c10:	16120204 	bne	s0,s2,bfc02424 <inst_error>
bfc01c14:	00000000 	nop
bfc01c18:	3c08e32b 	lui	t0,0xe32b
bfc01c1c:	35082eb4 	ori	t0,t0,0x2eb4
bfc01c20:	24090000 	li	t1,0
bfc01c24:	21100000 	addi	s0,t0,0
bfc01c28:	3c12e32b 	lui	s2,0xe32b
bfc01c2c:	36522eb4 	ori	s2,s2,0x2eb4
bfc01c30:	161201fc 	bne	s0,s2,bfc02424 <inst_error>
bfc01c34:	00000000 	nop
bfc01c38:	3c08bd35 	lui	t0,0xbd35
bfc01c3c:	3508a8ec 	ori	t0,t0,0xa8ec
bfc01c40:	24090000 	li	t1,0
bfc01c44:	21100000 	addi	s0,t0,0
bfc01c48:	3c12bd35 	lui	s2,0xbd35
bfc01c4c:	3652a8ec 	ori	s2,s2,0xa8ec
bfc01c50:	161201f4 	bne	s0,s2,bfc02424 <inst_error>
bfc01c54:	00000000 	nop
bfc01c58:	3c081a49 	lui	t0,0x1a49
bfc01c5c:	35084b90 	ori	t0,t0,0x4b90
bfc01c60:	24090000 	li	t1,0
bfc01c64:	21100000 	addi	s0,t0,0
bfc01c68:	3c121a49 	lui	s2,0x1a49
bfc01c6c:	36524b90 	ori	s2,s2,0x4b90
bfc01c70:	161201ec 	bne	s0,s2,bfc02424 <inst_error>
bfc01c74:	00000000 	nop
bfc01c78:	3c08194f 	lui	t0,0x194f
bfc01c7c:	35081c52 	ori	t0,t0,0x1c52
bfc01c80:	24090000 	li	t1,0
bfc01c84:	21100000 	addi	s0,t0,0
bfc01c88:	3c12194f 	lui	s2,0x194f
bfc01c8c:	36521c52 	ori	s2,s2,0x1c52
bfc01c90:	161201e4 	bne	s0,s2,bfc02424 <inst_error>
bfc01c94:	00000000 	nop
bfc01c98:	3c0843c7 	lui	t0,0x43c7
bfc01c9c:	35086e00 	ori	t0,t0,0x6e00
bfc01ca0:	24090000 	li	t1,0
bfc01ca4:	21100000 	addi	s0,t0,0
bfc01ca8:	3c1243c7 	lui	s2,0x43c7
bfc01cac:	36526e00 	ori	s2,s2,0x6e00
bfc01cb0:	161201dc 	bne	s0,s2,bfc02424 <inst_error>
bfc01cb4:	00000000 	nop
bfc01cb8:	3c081666 	lui	t0,0x1666
bfc01cbc:	3508c310 	ori	t0,t0,0xc310
bfc01cc0:	24090000 	li	t1,0
bfc01cc4:	21100000 	addi	s0,t0,0
bfc01cc8:	3c121666 	lui	s2,0x1666
bfc01ccc:	3652c310 	ori	s2,s2,0xc310
bfc01cd0:	161201d4 	bne	s0,s2,bfc02424 <inst_error>
bfc01cd4:	00000000 	nop
bfc01cd8:	3c08a44f 	lui	t0,0xa44f
bfc01cdc:	3508bf60 	ori	t0,t0,0xbf60
bfc01ce0:	24090000 	li	t1,0
bfc01ce4:	21100000 	addi	s0,t0,0
bfc01ce8:	3c12a44f 	lui	s2,0xa44f
bfc01cec:	3652bf60 	ori	s2,s2,0xbf60
bfc01cf0:	161201cc 	bne	s0,s2,bfc02424 <inst_error>
bfc01cf4:	00000000 	nop
bfc01cf8:	3c086c9c 	lui	t0,0x6c9c
bfc01cfc:	3508ad6e 	ori	t0,t0,0xad6e
bfc01d00:	24090000 	li	t1,0
bfc01d04:	21100000 	addi	s0,t0,0
bfc01d08:	3c126c9c 	lui	s2,0x6c9c
bfc01d0c:	3652ad6e 	ori	s2,s2,0xad6e
bfc01d10:	161201c4 	bne	s0,s2,bfc02424 <inst_error>
bfc01d14:	00000000 	nop
bfc01d18:	3c0878c8 	lui	t0,0x78c8
bfc01d1c:	3508099c 	ori	t0,t0,0x99c
bfc01d20:	24090000 	li	t1,0
bfc01d24:	21100000 	addi	s0,t0,0
bfc01d28:	3c1278c8 	lui	s2,0x78c8
bfc01d2c:	3652099c 	ori	s2,s2,0x99c
bfc01d30:	161201bc 	bne	s0,s2,bfc02424 <inst_error>
bfc01d34:	00000000 	nop
bfc01d38:	3c086f85 	lui	t0,0x6f85
bfc01d3c:	35085e10 	ori	t0,t0,0x5e10
bfc01d40:	24090000 	li	t1,0
bfc01d44:	21100000 	addi	s0,t0,0
bfc01d48:	3c126f85 	lui	s2,0x6f85
bfc01d4c:	36525e10 	ori	s2,s2,0x5e10
bfc01d50:	161201b4 	bne	s0,s2,bfc02424 <inst_error>
bfc01d54:	00000000 	nop
bfc01d58:	3c083af0 	lui	t0,0x3af0
bfc01d5c:	3508f50c 	ori	t0,t0,0xf50c
bfc01d60:	24090000 	li	t1,0
bfc01d64:	21100000 	addi	s0,t0,0
bfc01d68:	3c123af0 	lui	s2,0x3af0
bfc01d6c:	3652f50c 	ori	s2,s2,0xf50c
bfc01d70:	161201ac 	bne	s0,s2,bfc02424 <inst_error>
bfc01d74:	00000000 	nop
bfc01d78:	3c085aec 	lui	t0,0x5aec
bfc01d7c:	3508f84e 	ori	t0,t0,0xf84e
bfc01d80:	24090000 	li	t1,0
bfc01d84:	21100000 	addi	s0,t0,0
bfc01d88:	3c125aec 	lui	s2,0x5aec
bfc01d8c:	3652f84e 	ori	s2,s2,0xf84e
bfc01d90:	161201a4 	bne	s0,s2,bfc02424 <inst_error>
bfc01d94:	00000000 	nop
bfc01d98:	3c08a5c3 	lui	t0,0xa5c3
bfc01d9c:	35080c48 	ori	t0,t0,0xc48
bfc01da0:	24090000 	li	t1,0
bfc01da4:	21100000 	addi	s0,t0,0
bfc01da8:	3c12a5c3 	lui	s2,0xa5c3
bfc01dac:	36520c48 	ori	s2,s2,0xc48
bfc01db0:	1612019c 	bne	s0,s2,bfc02424 <inst_error>
bfc01db4:	00000000 	nop
bfc01db8:	3c0835a0 	lui	t0,0x35a0
bfc01dbc:	3508c0b4 	ori	t0,t0,0xc0b4
bfc01dc0:	24090000 	li	t1,0
bfc01dc4:	21100000 	addi	s0,t0,0
bfc01dc8:	3c1235a0 	lui	s2,0x35a0
bfc01dcc:	3652c0b4 	ori	s2,s2,0xc0b4
bfc01dd0:	16120194 	bne	s0,s2,bfc02424 <inst_error>
bfc01dd4:	00000000 	nop
bfc01dd8:	3c08b9a0 	lui	t0,0xb9a0
bfc01ddc:	350857d3 	ori	t0,t0,0x57d3
bfc01de0:	24090000 	li	t1,0
bfc01de4:	21100000 	addi	s0,t0,0
bfc01de8:	3c12b9a0 	lui	s2,0xb9a0
bfc01dec:	365257d3 	ori	s2,s2,0x57d3
bfc01df0:	1612018c 	bne	s0,s2,bfc02424 <inst_error>
bfc01df4:	00000000 	nop
bfc01df8:	3c084dec 	lui	t0,0x4dec
bfc01dfc:	35085d00 	ori	t0,t0,0x5d00
bfc01e00:	24090000 	li	t1,0
bfc01e04:	21100000 	addi	s0,t0,0
bfc01e08:	3c124dec 	lui	s2,0x4dec
bfc01e0c:	36525d00 	ori	s2,s2,0x5d00
bfc01e10:	16120184 	bne	s0,s2,bfc02424 <inst_error>
bfc01e14:	00000000 	nop
bfc01e18:	3c08b51d 	lui	t0,0xb51d
bfc01e1c:	35089f68 	ori	t0,t0,0x9f68
bfc01e20:	24090000 	li	t1,0
bfc01e24:	21100000 	addi	s0,t0,0
bfc01e28:	3c12b51d 	lui	s2,0xb51d
bfc01e2c:	36529f68 	ori	s2,s2,0x9f68
bfc01e30:	1612017c 	bne	s0,s2,bfc02424 <inst_error>
bfc01e34:	00000000 	nop
bfc01e38:	3c087bff 	lui	t0,0x7bff
bfc01e3c:	35084ea0 	ori	t0,t0,0x4ea0
bfc01e40:	24090000 	li	t1,0
bfc01e44:	21100000 	addi	s0,t0,0
bfc01e48:	3c127bff 	lui	s2,0x7bff
bfc01e4c:	36524ea0 	ori	s2,s2,0x4ea0
bfc01e50:	16120174 	bne	s0,s2,bfc02424 <inst_error>
bfc01e54:	00000000 	nop
bfc01e58:	3c08019a 	lui	t0,0x19a
bfc01e5c:	350899ac 	ori	t0,t0,0x99ac
bfc01e60:	24090000 	li	t1,0
bfc01e64:	21100000 	addi	s0,t0,0
bfc01e68:	3c12019a 	lui	s2,0x19a
bfc01e6c:	365299ac 	ori	s2,s2,0x99ac
bfc01e70:	1612016c 	bne	s0,s2,bfc02424 <inst_error>
bfc01e74:	00000000 	nop
bfc01e78:	3c08f3f5 	lui	t0,0xf3f5
bfc01e7c:	3508ae48 	ori	t0,t0,0xae48
bfc01e80:	24090000 	li	t1,0
bfc01e84:	21100000 	addi	s0,t0,0
bfc01e88:	3c12f3f5 	lui	s2,0xf3f5
bfc01e8c:	3652ae48 	ori	s2,s2,0xae48
bfc01e90:	16120164 	bne	s0,s2,bfc02424 <inst_error>
bfc01e94:	00000000 	nop
bfc01e98:	3c0883cc 	lui	t0,0x83cc
bfc01e9c:	35089b04 	ori	t0,t0,0x9b04
bfc01ea0:	24090000 	li	t1,0
bfc01ea4:	21100000 	addi	s0,t0,0
bfc01ea8:	3c1283cc 	lui	s2,0x83cc
bfc01eac:	36529b04 	ori	s2,s2,0x9b04
bfc01eb0:	1612015c 	bne	s0,s2,bfc02424 <inst_error>
bfc01eb4:	00000000 	nop
bfc01eb8:	3c081eca 	lui	t0,0x1eca
bfc01ebc:	3508a2e0 	ori	t0,t0,0xa2e0
bfc01ec0:	24090000 	li	t1,0
bfc01ec4:	21100000 	addi	s0,t0,0
bfc01ec8:	3c121eca 	lui	s2,0x1eca
bfc01ecc:	3652a2e0 	ori	s2,s2,0xa2e0
bfc01ed0:	16120154 	bne	s0,s2,bfc02424 <inst_error>
bfc01ed4:	00000000 	nop
bfc01ed8:	3c08ee7b 	lui	t0,0xee7b
bfc01edc:	35086128 	ori	t0,t0,0x6128
bfc01ee0:	24090000 	li	t1,0
bfc01ee4:	21100000 	addi	s0,t0,0
bfc01ee8:	3c12ee7b 	lui	s2,0xee7b
bfc01eec:	36526128 	ori	s2,s2,0x6128
bfc01ef0:	1612014c 	bne	s0,s2,bfc02424 <inst_error>
bfc01ef4:	00000000 	nop
bfc01ef8:	3c08c5b2 	lui	t0,0xc5b2
bfc01efc:	350869aa 	ori	t0,t0,0x69aa
bfc01f00:	24090000 	li	t1,0
bfc01f04:	21100000 	addi	s0,t0,0
bfc01f08:	3c12c5b2 	lui	s2,0xc5b2
bfc01f0c:	365269aa 	ori	s2,s2,0x69aa
bfc01f10:	16120144 	bne	s0,s2,bfc02424 <inst_error>
bfc01f14:	00000000 	nop
bfc01f18:	3c081b6b 	lui	t0,0x1b6b
bfc01f1c:	35082228 	ori	t0,t0,0x2228
bfc01f20:	24090000 	li	t1,0
bfc01f24:	21100000 	addi	s0,t0,0
bfc01f28:	3c121b6b 	lui	s2,0x1b6b
bfc01f2c:	36522228 	ori	s2,s2,0x2228
bfc01f30:	1612013c 	bne	s0,s2,bfc02424 <inst_error>
bfc01f34:	00000000 	nop
bfc01f38:	3c0800d6 	lui	t0,0xd6
bfc01f3c:	35081b80 	ori	t0,t0,0x1b80
bfc01f40:	24090000 	li	t1,0
bfc01f44:	21100000 	addi	s0,t0,0
bfc01f48:	3c1200d6 	lui	s2,0xd6
bfc01f4c:	36521b80 	ori	s2,s2,0x1b80
bfc01f50:	16120134 	bne	s0,s2,bfc02424 <inst_error>
bfc01f54:	00000000 	nop
bfc01f58:	24080000 	li	t0,0
bfc01f5c:	3409af9a 	li	t1,0xaf9a
bfc01f60:	2110af9a 	addi	s0,t0,-20582
bfc01f64:	2412af9a 	li	s2,-20582
bfc01f68:	1612012e 	bne	s0,s2,bfc02424 <inst_error>
bfc01f6c:	00000000 	nop
bfc01f70:	24080000 	li	t0,0
bfc01f74:	240971fe 	li	t1,29182
bfc01f78:	211071fe 	addi	s0,t0,29182
bfc01f7c:	241271fe 	li	s2,29182
bfc01f80:	16120128 	bne	s0,s2,bfc02424 <inst_error>
bfc01f84:	00000000 	nop
bfc01f88:	24080000 	li	t0,0
bfc01f8c:	24096f32 	li	t1,28466
bfc01f90:	21106f32 	addi	s0,t0,28466
bfc01f94:	24126f32 	li	s2,28466
bfc01f98:	16120122 	bne	s0,s2,bfc02424 <inst_error>
bfc01f9c:	00000000 	nop
bfc01fa0:	24080000 	li	t0,0
bfc01fa4:	24093d93 	li	t1,15763
bfc01fa8:	21103d93 	addi	s0,t0,15763
bfc01fac:	24123d93 	li	s2,15763
bfc01fb0:	1612011c 	bne	s0,s2,bfc02424 <inst_error>
bfc01fb4:	00000000 	nop
bfc01fb8:	24080000 	li	t0,0
bfc01fbc:	3409a928 	li	t1,0xa928
bfc01fc0:	2110a928 	addi	s0,t0,-22232
bfc01fc4:	2412a928 	li	s2,-22232
bfc01fc8:	16120116 	bne	s0,s2,bfc02424 <inst_error>
bfc01fcc:	00000000 	nop
bfc01fd0:	24080000 	li	t0,0
bfc01fd4:	3409c461 	li	t1,0xc461
bfc01fd8:	2110c461 	addi	s0,t0,-15263
bfc01fdc:	2412c461 	li	s2,-15263
bfc01fe0:	16120110 	bne	s0,s2,bfc02424 <inst_error>
bfc01fe4:	00000000 	nop
bfc01fe8:	24080000 	li	t0,0
bfc01fec:	240921e0 	li	t1,8672
bfc01ff0:	211021e0 	addi	s0,t0,8672
bfc01ff4:	241221e0 	li	s2,8672
bfc01ff8:	1612010a 	bne	s0,s2,bfc02424 <inst_error>
bfc01ffc:	00000000 	nop
bfc02000:	24080000 	li	t0,0
bfc02004:	3409b114 	li	t1,0xb114
bfc02008:	2110b114 	addi	s0,t0,-20204
bfc0200c:	2412b114 	li	s2,-20204
bfc02010:	16120104 	bne	s0,s2,bfc02424 <inst_error>
bfc02014:	00000000 	nop
bfc02018:	24080000 	li	t0,0
bfc0201c:	24094030 	li	t1,16432
bfc02020:	21104030 	addi	s0,t0,16432
bfc02024:	24124030 	li	s2,16432
bfc02028:	161200fe 	bne	s0,s2,bfc02424 <inst_error>
bfc0202c:	00000000 	nop
bfc02030:	24080000 	li	t0,0
bfc02034:	3409f3cd 	li	t1,0xf3cd
bfc02038:	2110f3cd 	addi	s0,t0,-3123
bfc0203c:	2412f3cd 	li	s2,-3123
bfc02040:	161200f8 	bne	s0,s2,bfc02424 <inst_error>
bfc02044:	00000000 	nop
bfc02048:	24080000 	li	t0,0
bfc0204c:	3409c8e2 	li	t1,0xc8e2
bfc02050:	2110c8e2 	addi	s0,t0,-14110
bfc02054:	2412c8e2 	li	s2,-14110
bfc02058:	161200f2 	bne	s0,s2,bfc02424 <inst_error>
bfc0205c:	00000000 	nop
bfc02060:	24080000 	li	t0,0
bfc02064:	24094d75 	li	t1,19829
bfc02068:	21104d75 	addi	s0,t0,19829
bfc0206c:	24124d75 	li	s2,19829
bfc02070:	161200ec 	bne	s0,s2,bfc02424 <inst_error>
bfc02074:	00000000 	nop
bfc02078:	24080000 	li	t0,0
bfc0207c:	3409be00 	li	t1,0xbe00
bfc02080:	2110be00 	addi	s0,t0,-16896
bfc02084:	2412be00 	li	s2,-16896
bfc02088:	161200e6 	bne	s0,s2,bfc02424 <inst_error>
bfc0208c:	00000000 	nop
bfc02090:	24080000 	li	t0,0
bfc02094:	240970d0 	li	t1,28880
bfc02098:	211070d0 	addi	s0,t0,28880
bfc0209c:	241270d0 	li	s2,28880
bfc020a0:	161200e0 	bne	s0,s2,bfc02424 <inst_error>
bfc020a4:	00000000 	nop
bfc020a8:	24080000 	li	t0,0
bfc020ac:	240909a0 	li	t1,2464
bfc020b0:	211009a0 	addi	s0,t0,2464
bfc020b4:	241209a0 	li	s2,2464
bfc020b8:	161200da 	bne	s0,s2,bfc02424 <inst_error>
bfc020bc:	00000000 	nop
bfc020c0:	24080000 	li	t0,0
bfc020c4:	2409440c 	li	t1,17420
bfc020c8:	2110440c 	addi	s0,t0,17420
bfc020cc:	2412440c 	li	s2,17420
bfc020d0:	161200d4 	bne	s0,s2,bfc02424 <inst_error>
bfc020d4:	00000000 	nop
bfc020d8:	24080000 	li	t0,0
bfc020dc:	24094b97 	li	t1,19351
bfc020e0:	21104b97 	addi	s0,t0,19351
bfc020e4:	24124b97 	li	s2,19351
bfc020e8:	161200ce 	bne	s0,s2,bfc02424 <inst_error>
bfc020ec:	00000000 	nop
bfc020f0:	24080000 	li	t0,0
bfc020f4:	3409a8ca 	li	t1,0xa8ca
bfc020f8:	2110a8ca 	addi	s0,t0,-22326
bfc020fc:	2412a8ca 	li	s2,-22326
bfc02100:	161200c8 	bne	s0,s2,bfc02424 <inst_error>
bfc02104:	00000000 	nop
bfc02108:	24080000 	li	t0,0
bfc0210c:	24095100 	li	t1,20736
bfc02110:	21105100 	addi	s0,t0,20736
bfc02114:	24125100 	li	s2,20736
bfc02118:	161200c2 	bne	s0,s2,bfc02424 <inst_error>
bfc0211c:	00000000 	nop
bfc02120:	24080000 	li	t0,0
bfc02124:	3409c3c4 	li	t1,0xc3c4
bfc02128:	2110c3c4 	addi	s0,t0,-15420
bfc0212c:	2412c3c4 	li	s2,-15420
bfc02130:	161200bc 	bne	s0,s2,bfc02424 <inst_error>
bfc02134:	00000000 	nop
bfc02138:	24080000 	li	t0,0
bfc0213c:	3409f419 	li	t1,0xf419
bfc02140:	2110f419 	addi	s0,t0,-3047
bfc02144:	2412f419 	li	s2,-3047
bfc02148:	161200b6 	bne	s0,s2,bfc02424 <inst_error>
bfc0214c:	00000000 	nop
bfc02150:	24080000 	li	t0,0
bfc02154:	240971ee 	li	t1,29166
bfc02158:	211071ee 	addi	s0,t0,29166
bfc0215c:	241271ee 	li	s2,29166
bfc02160:	161200b0 	bne	s0,s2,bfc02424 <inst_error>
bfc02164:	00000000 	nop
bfc02168:	24080000 	li	t0,0
bfc0216c:	34098808 	li	t1,0x8808
bfc02170:	21108808 	addi	s0,t0,-30712
bfc02174:	24128808 	li	s2,-30712
bfc02178:	161200aa 	bne	s0,s2,bfc02424 <inst_error>
bfc0217c:	00000000 	nop
bfc02180:	24080000 	li	t0,0
bfc02184:	24093648 	li	t1,13896
bfc02188:	21103648 	addi	s0,t0,13896
bfc0218c:	24123648 	li	s2,13896
bfc02190:	161200a4 	bne	s0,s2,bfc02424 <inst_error>
bfc02194:	00000000 	nop
bfc02198:	24080000 	li	t0,0
bfc0219c:	24093e18 	li	t1,15896
bfc021a0:	21103e18 	addi	s0,t0,15896
bfc021a4:	24123e18 	li	s2,15896
bfc021a8:	1612009e 	bne	s0,s2,bfc02424 <inst_error>
bfc021ac:	00000000 	nop
bfc021b0:	24080000 	li	t0,0
bfc021b4:	2409013e 	li	t1,318
bfc021b8:	2110013e 	addi	s0,t0,318
bfc021bc:	2412013e 	li	s2,318
bfc021c0:	16120098 	bne	s0,s2,bfc02424 <inst_error>
bfc021c4:	00000000 	nop
bfc021c8:	24080000 	li	t0,0
bfc021cc:	24097180 	li	t1,29056
bfc021d0:	21107180 	addi	s0,t0,29056
bfc021d4:	24127180 	li	s2,29056
bfc021d8:	16120092 	bne	s0,s2,bfc02424 <inst_error>
bfc021dc:	00000000 	nop
bfc021e0:	24080000 	li	t0,0
bfc021e4:	24094e94 	li	t1,20116
bfc021e8:	21104e94 	addi	s0,t0,20116
bfc021ec:	24124e94 	li	s2,20116
bfc021f0:	1612008c 	bne	s0,s2,bfc02424 <inst_error>
bfc021f4:	00000000 	nop
bfc021f8:	24080000 	li	t0,0
bfc021fc:	2409106d 	li	t1,4205
bfc02200:	2110106d 	addi	s0,t0,4205
bfc02204:	2412106d 	li	s2,4205
bfc02208:	16120086 	bne	s0,s2,bfc02424 <inst_error>
bfc0220c:	00000000 	nop
bfc02210:	24080000 	li	t0,0
bfc02214:	2409222d 	li	t1,8749
bfc02218:	2110222d 	addi	s0,t0,8749
bfc0221c:	2412222d 	li	s2,8749
bfc02220:	16120080 	bne	s0,s2,bfc02424 <inst_error>
bfc02224:	00000000 	nop
bfc02228:	24080000 	li	t0,0
bfc0222c:	24093634 	li	t1,13876
bfc02230:	21103634 	addi	s0,t0,13876
bfc02234:	24123634 	li	s2,13876
bfc02238:	1612007a 	bne	s0,s2,bfc02424 <inst_error>
bfc0223c:	00000000 	nop
bfc02240:	24080000 	li	t0,0
bfc02244:	34099634 	li	t1,0x9634
bfc02248:	21109634 	addi	s0,t0,-27084
bfc0224c:	24129634 	li	s2,-27084
bfc02250:	16120074 	bne	s0,s2,bfc02424 <inst_error>
bfc02254:	00000000 	nop
bfc02258:	24080000 	li	t0,0
bfc0225c:	3409deb4 	li	t1,0xdeb4
bfc02260:	2110deb4 	addi	s0,t0,-8524
bfc02264:	2412deb4 	li	s2,-8524
bfc02268:	1612006e 	bne	s0,s2,bfc02424 <inst_error>
bfc0226c:	00000000 	nop
bfc02270:	24080000 	li	t0,0
bfc02274:	3409a4bd 	li	t1,0xa4bd
bfc02278:	2110a4bd 	addi	s0,t0,-23363
bfc0227c:	2412a4bd 	li	s2,-23363
bfc02280:	16120068 	bne	s0,s2,bfc02424 <inst_error>
bfc02284:	00000000 	nop
bfc02288:	24080000 	li	t0,0
bfc0228c:	24096238 	li	t1,25144
bfc02290:	21106238 	addi	s0,t0,25144
bfc02294:	24126238 	li	s2,25144
bfc02298:	16120062 	bne	s0,s2,bfc02424 <inst_error>
bfc0229c:	00000000 	nop
bfc022a0:	24080000 	li	t0,0
bfc022a4:	3409ef31 	li	t1,0xef31
bfc022a8:	2110ef31 	addi	s0,t0,-4303
bfc022ac:	2412ef31 	li	s2,-4303
bfc022b0:	1612005c 	bne	s0,s2,bfc02424 <inst_error>
bfc022b4:	00000000 	nop
bfc022b8:	24080000 	li	t0,0
bfc022bc:	3409a3a2 	li	t1,0xa3a2
bfc022c0:	2110a3a2 	addi	s0,t0,-23646
bfc022c4:	2412a3a2 	li	s2,-23646
bfc022c8:	16120056 	bne	s0,s2,bfc02424 <inst_error>
bfc022cc:	00000000 	nop
bfc022d0:	24080000 	li	t0,0
bfc022d4:	3409e5c8 	li	t1,0xe5c8
bfc022d8:	2110e5c8 	addi	s0,t0,-6712
bfc022dc:	2412e5c8 	li	s2,-6712
bfc022e0:	16120050 	bne	s0,s2,bfc02424 <inst_error>
bfc022e4:	00000000 	nop
bfc022e8:	24080000 	li	t0,0
bfc022ec:	24096770 	li	t1,26480
bfc022f0:	21106770 	addi	s0,t0,26480
bfc022f4:	24126770 	li	s2,26480
bfc022f8:	1612004a 	bne	s0,s2,bfc02424 <inst_error>
bfc022fc:	00000000 	nop
bfc02300:	24080000 	li	t0,0
bfc02304:	240974a2 	li	t1,29858
bfc02308:	211074a2 	addi	s0,t0,29858
bfc0230c:	241274a2 	li	s2,29858
bfc02310:	16120044 	bne	s0,s2,bfc02424 <inst_error>
bfc02314:	00000000 	nop
bfc02318:	24080000 	li	t0,0
bfc0231c:	3409f010 	li	t1,0xf010
bfc02320:	2110f010 	addi	s0,t0,-4080
bfc02324:	2412f010 	li	s2,-4080
bfc02328:	1612003e 	bne	s0,s2,bfc02424 <inst_error>
bfc0232c:	00000000 	nop
bfc02330:	24080000 	li	t0,0
bfc02334:	2409378a 	li	t1,14218
bfc02338:	2110378a 	addi	s0,t0,14218
bfc0233c:	2412378a 	li	s2,14218
bfc02340:	16120038 	bne	s0,s2,bfc02424 <inst_error>
bfc02344:	00000000 	nop
bfc02348:	24080000 	li	t0,0
bfc0234c:	3409dc3f 	li	t1,0xdc3f
bfc02350:	2110dc3f 	addi	s0,t0,-9153
bfc02354:	2412dc3f 	li	s2,-9153
bfc02358:	16120032 	bne	s0,s2,bfc02424 <inst_error>
bfc0235c:	00000000 	nop
bfc02360:	24080000 	li	t0,0
bfc02364:	3409ad00 	li	t1,0xad00
bfc02368:	2110ad00 	addi	s0,t0,-21248
bfc0236c:	2412ad00 	li	s2,-21248
bfc02370:	1612002c 	bne	s0,s2,bfc02424 <inst_error>
bfc02374:	00000000 	nop
bfc02378:	24080000 	li	t0,0
bfc0237c:	3409f96c 	li	t1,0xf96c
bfc02380:	2110f96c 	addi	s0,t0,-1684
bfc02384:	2412f96c 	li	s2,-1684
bfc02388:	16120026 	bne	s0,s2,bfc02424 <inst_error>
bfc0238c:	00000000 	nop
bfc02390:	24080000 	li	t0,0
bfc02394:	24095e1c 	li	t1,24092
bfc02398:	21105e1c 	addi	s0,t0,24092
bfc0239c:	24125e1c 	li	s2,24092
bfc023a0:	16120020 	bne	s0,s2,bfc02424 <inst_error>
bfc023a4:	00000000 	nop
bfc023a8:	24080000 	li	t0,0
bfc023ac:	24091642 	li	t1,5698
bfc023b0:	21101642 	addi	s0,t0,5698
bfc023b4:	24121642 	li	s2,5698
bfc023b8:	1612001a 	bne	s0,s2,bfc02424 <inst_error>
bfc023bc:	00000000 	nop
bfc023c0:	24080000 	li	t0,0
bfc023c4:	240941a8 	li	t1,16808
bfc023c8:	211041a8 	addi	s0,t0,16808
bfc023cc:	241241a8 	li	s2,16808
bfc023d0:	16120014 	bne	s0,s2,bfc02424 <inst_error>
bfc023d4:	00000000 	nop
bfc023d8:	24080000 	li	t0,0
bfc023dc:	3409dcc1 	li	t1,0xdcc1
bfc023e0:	2110dcc1 	addi	s0,t0,-9023
bfc023e4:	2412dcc1 	li	s2,-9023
bfc023e8:	1612000e 	bne	s0,s2,bfc02424 <inst_error>
bfc023ec:	00000000 	nop
bfc023f0:	24080000 	li	t0,0
bfc023f4:	24093e0c 	li	t1,15884
bfc023f8:	21103e0c 	addi	s0,t0,15884
bfc023fc:	24123e0c 	li	s2,15884
bfc02400:	16120008 	bne	s0,s2,bfc02424 <inst_error>
bfc02404:	00000000 	nop
bfc02408:	24080000 	li	t0,0
bfc0240c:	24090000 	li	t1,0
bfc02410:	21100000 	addi	s0,t0,0
bfc02414:	24120000 	li	s2,0
bfc02418:	16120002 	bne	s0,s2,bfc02424 <inst_error>
bfc0241c:	00000000 	nop
bfc02420:	4a000000 	c2	0x0

bfc02424 <inst_error>:
inst_error():
bfc02424:	0000003f 	0x3f

Disassembly of section .reginfo:

00000000 <.reginfo>:
   0:	00050300 	sll	zero,a1,0xc
	...
