
build/addu:     file format elf32-tradlittlemips
build/addu


Disassembly of section .text:

bfc00000 <main>:
bfc00000:	3c081ade 	lui	t0,0x1ade
bfc00004:	3508f300 	ori	t0,t0,0xf300
bfc00008:	3c0951dd 	lui	t1,0x51dd
bfc0000c:	352958de 	ori	t1,t1,0x58de
bfc00010:	01098021 	addu	s0,t0,t1
bfc00014:	3c126cbc 	lui	s2,0x6cbc
bfc00018:	36524bde 	ori	s2,s2,0x4bde
bfc0001c:	16120a27 	bne	s0,s2,bfc028bc <inst_error>
bfc00020:	00000000 	nop
bfc00024:	3c089674 	lui	t0,0x9674
bfc00028:	3508ea60 	ori	t0,t0,0xea60
bfc0002c:	3c09ab47 	lui	t1,0xab47
bfc00030:	35295792 	ori	t1,t1,0x5792
bfc00034:	01098021 	addu	s0,t0,t1
bfc00038:	3c1241bc 	lui	s2,0x41bc
bfc0003c:	365241f2 	ori	s2,s2,0x41f2
bfc00040:	16120a1e 	bne	s0,s2,bfc028bc <inst_error>
bfc00044:	00000000 	nop
bfc00048:	3c08b60d 	lui	t0,0xb60d
bfc0004c:	3508b986 	ori	t0,t0,0xb986
bfc00050:	3c092e56 	lui	t1,0x2e56
bfc00054:	3529c81a 	ori	t1,t1,0xc81a
bfc00058:	01098021 	addu	s0,t0,t1
bfc0005c:	3c12e464 	lui	s2,0xe464
bfc00060:	365281a0 	ori	s2,s2,0x81a0
bfc00064:	16120a15 	bne	s0,s2,bfc028bc <inst_error>
bfc00068:	00000000 	nop
bfc0006c:	3c08d55e 	lui	t0,0xd55e
bfc00070:	3508dbc0 	ori	t0,t0,0xdbc0
bfc00074:	3c0960f5 	lui	t1,0x60f5
bfc00078:	3529cb0c 	ori	t1,t1,0xcb0c
bfc0007c:	01098021 	addu	s0,t0,t1
bfc00080:	3c123654 	lui	s2,0x3654
bfc00084:	3652a6cc 	ori	s2,s2,0xa6cc
bfc00088:	16120a0c 	bne	s0,s2,bfc028bc <inst_error>
bfc0008c:	00000000 	nop
bfc00090:	3c08a2b8 	lui	t0,0xa2b8
bfc00094:	3508e4e0 	ori	t0,t0,0xe4e0
bfc00098:	3c09c6e6 	lui	t1,0xc6e6
bfc0009c:	35296aa0 	ori	t1,t1,0x6aa0
bfc000a0:	01098021 	addu	s0,t0,t1
bfc000a4:	3c12699f 	lui	s2,0x699f
bfc000a8:	36524f80 	ori	s2,s2,0x4f80
bfc000ac:	16120a03 	bne	s0,s2,bfc028bc <inst_error>
bfc000b0:	00000000 	nop
bfc000b4:	3c08ec05 	lui	t0,0xec05
bfc000b8:	350801a1 	ori	t0,t0,0x1a1
bfc000bc:	3c091826 	lui	t1,0x1826
bfc000c0:	35297926 	ori	t1,t1,0x7926
bfc000c4:	01098021 	addu	s0,t0,t1
bfc000c8:	3c12042b 	lui	s2,0x42b
bfc000cc:	36527ac7 	ori	s2,s2,0x7ac7
bfc000d0:	161209fa 	bne	s0,s2,bfc028bc <inst_error>
bfc000d4:	00000000 	nop
bfc000d8:	3c086ade 	lui	t0,0x6ade
bfc000dc:	350836b0 	ori	t0,t0,0x36b0
bfc000e0:	3c09c01d 	lui	t1,0xc01d
bfc000e4:	35294200 	ori	t1,t1,0x4200
bfc000e8:	01098021 	addu	s0,t0,t1
bfc000ec:	3c122afb 	lui	s2,0x2afb
bfc000f0:	365278b0 	ori	s2,s2,0x78b0
bfc000f4:	161209f1 	bne	s0,s2,bfc028bc <inst_error>
bfc000f8:	00000000 	nop
bfc000fc:	3c086c08 	lui	t0,0x6c08
bfc00100:	35088ce8 	ori	t0,t0,0x8ce8
bfc00104:	3c09a1ce 	lui	t1,0xa1ce
bfc00108:	35294040 	ori	t1,t1,0x4040
bfc0010c:	01098021 	addu	s0,t0,t1
bfc00110:	3c120dd6 	lui	s2,0xdd6
bfc00114:	3652cd28 	ori	s2,s2,0xcd28
bfc00118:	161209e8 	bne	s0,s2,bfc028bc <inst_error>
bfc0011c:	00000000 	nop
bfc00120:	3c084f16 	lui	t0,0x4f16
bfc00124:	3508e8c7 	ori	t0,t0,0xe8c7
bfc00128:	3c092412 	lui	t1,0x2412
bfc0012c:	3529bcd0 	ori	t1,t1,0xbcd0
bfc00130:	01098021 	addu	s0,t0,t1
bfc00134:	3c127329 	lui	s2,0x7329
bfc00138:	3652a597 	ori	s2,s2,0xa597
bfc0013c:	161209df 	bne	s0,s2,bfc028bc <inst_error>
bfc00140:	00000000 	nop
bfc00144:	3c08020a 	lui	t0,0x20a
bfc00148:	350851db 	ori	t0,t0,0x51db
bfc0014c:	3c09b68b 	lui	t1,0xb68b
bfc00150:	3529b4ba 	ori	t1,t1,0xb4ba
bfc00154:	01098021 	addu	s0,t0,t1
bfc00158:	3c12b896 	lui	s2,0xb896
bfc0015c:	36520695 	ori	s2,s2,0x695
bfc00160:	161209d6 	bne	s0,s2,bfc028bc <inst_error>
bfc00164:	00000000 	nop
bfc00168:	3c084079 	lui	t0,0x4079
bfc0016c:	350889a0 	ori	t0,t0,0x89a0
bfc00170:	3c097015 	lui	t1,0x7015
bfc00174:	352956bf 	ori	t1,t1,0x56bf
bfc00178:	01098021 	addu	s0,t0,t1
bfc0017c:	3c12b08e 	lui	s2,0xb08e
bfc00180:	3652e05f 	ori	s2,s2,0xe05f
bfc00184:	161209cd 	bne	s0,s2,bfc028bc <inst_error>
bfc00188:	00000000 	nop
bfc0018c:	3c083c98 	lui	t0,0x3c98
bfc00190:	35081568 	ori	t0,t0,0x1568
bfc00194:	3c0923a8 	lui	t1,0x23a8
bfc00198:	35292600 	ori	t1,t1,0x2600
bfc0019c:	01098021 	addu	s0,t0,t1
bfc001a0:	3c126040 	lui	s2,0x6040
bfc001a4:	36523b68 	ori	s2,s2,0x3b68
bfc001a8:	161209c4 	bne	s0,s2,bfc028bc <inst_error>
bfc001ac:	00000000 	nop
bfc001b0:	3c0892e3 	lui	t0,0x92e3
bfc001b4:	35085540 	ori	t0,t0,0x5540
bfc001b8:	3c0971dd 	lui	t1,0x71dd
bfc001bc:	3529650e 	ori	t1,t1,0x650e
bfc001c0:	01098021 	addu	s0,t0,t1
bfc001c4:	3c1204c0 	lui	s2,0x4c0
bfc001c8:	3652ba4e 	ori	s2,s2,0xba4e
bfc001cc:	161209bb 	bne	s0,s2,bfc028bc <inst_error>
bfc001d0:	00000000 	nop
bfc001d4:	3c083d0e 	lui	t0,0x3d0e
bfc001d8:	3508ae36 	ori	t0,t0,0xae36
bfc001dc:	3c09487b 	lui	t1,0x487b
bfc001e0:	35290ba4 	ori	t1,t1,0xba4
bfc001e4:	01098021 	addu	s0,t0,t1
bfc001e8:	3c128589 	lui	s2,0x8589
bfc001ec:	3652b9da 	ori	s2,s2,0xb9da
bfc001f0:	161209b2 	bne	s0,s2,bfc028bc <inst_error>
bfc001f4:	00000000 	nop
bfc001f8:	3c0854ba 	lui	t0,0x54ba
bfc001fc:	35082860 	ori	t0,t0,0x2860
bfc00200:	3c0960f8 	lui	t1,0x60f8
bfc00204:	35294428 	ori	t1,t1,0x4428
bfc00208:	01098021 	addu	s0,t0,t1
bfc0020c:	3c12b5b2 	lui	s2,0xb5b2
bfc00210:	36526c88 	ori	s2,s2,0x6c88
bfc00214:	161209a9 	bne	s0,s2,bfc028bc <inst_error>
bfc00218:	00000000 	nop
bfc0021c:	3c082fff 	lui	t0,0x2fff
bfc00220:	35086522 	ori	t0,t0,0x6522
bfc00224:	3c0987e3 	lui	t1,0x87e3
bfc00228:	352905b0 	ori	t1,t1,0x5b0
bfc0022c:	01098021 	addu	s0,t0,t1
bfc00230:	3c12b7e2 	lui	s2,0xb7e2
bfc00234:	36526ad2 	ori	s2,s2,0x6ad2
bfc00238:	161209a0 	bne	s0,s2,bfc028bc <inst_error>
bfc0023c:	00000000 	nop
bfc00240:	3c084a66 	lui	t0,0x4a66
bfc00244:	3508f66a 	ori	t0,t0,0xf66a
bfc00248:	3c09d301 	lui	t1,0xd301
bfc0024c:	3529b8d8 	ori	t1,t1,0xb8d8
bfc00250:	01098021 	addu	s0,t0,t1
bfc00254:	3c121d68 	lui	s2,0x1d68
bfc00258:	3652af42 	ori	s2,s2,0xaf42
bfc0025c:	16120997 	bne	s0,s2,bfc028bc <inst_error>
bfc00260:	00000000 	nop
bfc00264:	3c088c45 	lui	t0,0x8c45
bfc00268:	3508dcd0 	ori	t0,t0,0xdcd0
bfc0026c:	3c096920 	lui	t1,0x6920
bfc00270:	3529c5b8 	ori	t1,t1,0xc5b8
bfc00274:	01098021 	addu	s0,t0,t1
bfc00278:	3c12f566 	lui	s2,0xf566
bfc0027c:	3652a288 	ori	s2,s2,0xa288
bfc00280:	1612098e 	bne	s0,s2,bfc028bc <inst_error>
bfc00284:	00000000 	nop
bfc00288:	3c08cb37 	lui	t0,0xcb37
bfc0028c:	35082ca0 	ori	t0,t0,0x2ca0
bfc00290:	3c091e3a 	lui	t1,0x1e3a
bfc00294:	3529a120 	ori	t1,t1,0xa120
bfc00298:	01098021 	addu	s0,t0,t1
bfc0029c:	3c12e971 	lui	s2,0xe971
bfc002a0:	3652cdc0 	ori	s2,s2,0xcdc0
bfc002a4:	16120985 	bne	s0,s2,bfc028bc <inst_error>
bfc002a8:	00000000 	nop
bfc002ac:	3c088c77 	lui	t0,0x8c77
bfc002b0:	35081188 	ori	t0,t0,0x1188
bfc002b4:	3c092549 	lui	t1,0x2549
bfc002b8:	3529adba 	ori	t1,t1,0xadba
bfc002bc:	01098021 	addu	s0,t0,t1
bfc002c0:	3c12b1c0 	lui	s2,0xb1c0
bfc002c4:	3652bf42 	ori	s2,s2,0xbf42
bfc002c8:	1612097c 	bne	s0,s2,bfc028bc <inst_error>
bfc002cc:	00000000 	nop
bfc002d0:	3c080dc9 	lui	t0,0xdc9
bfc002d4:	3508a5f0 	ori	t0,t0,0xa5f0
bfc002d8:	3c096854 	lui	t1,0x6854
bfc002dc:	35290752 	ori	t1,t1,0x752
bfc002e0:	01098021 	addu	s0,t0,t1
bfc002e4:	3c12761d 	lui	s2,0x761d
bfc002e8:	3652ad42 	ori	s2,s2,0xad42
bfc002ec:	16120973 	bne	s0,s2,bfc028bc <inst_error>
bfc002f0:	00000000 	nop
bfc002f4:	3c08c5cd 	lui	t0,0xc5cd
bfc002f8:	3508a1f0 	ori	t0,t0,0xa1f0
bfc002fc:	3c09c7a5 	lui	t1,0xc7a5
bfc00300:	35291930 	ori	t1,t1,0x1930
bfc00304:	01098021 	addu	s0,t0,t1
bfc00308:	3c128d72 	lui	s2,0x8d72
bfc0030c:	3652bb20 	ori	s2,s2,0xbb20
bfc00310:	1612096a 	bne	s0,s2,bfc028bc <inst_error>
bfc00314:	00000000 	nop
bfc00318:	3c08194f 	lui	t0,0x194f
bfc0031c:	35087a4e 	ori	t0,t0,0x7a4e
bfc00320:	3c09d1c2 	lui	t1,0xd1c2
bfc00324:	35295e02 	ori	t1,t1,0x5e02
bfc00328:	01098021 	addu	s0,t0,t1
bfc0032c:	3c12eb11 	lui	s2,0xeb11
bfc00330:	3652d850 	ori	s2,s2,0xd850
bfc00334:	16120961 	bne	s0,s2,bfc028bc <inst_error>
bfc00338:	00000000 	nop
bfc0033c:	3c08fdf9 	lui	t0,0xfdf9
bfc00340:	350875ba 	ori	t0,t0,0x75ba
bfc00344:	3c0973aa 	lui	t1,0x73aa
bfc00348:	35290697 	ori	t1,t1,0x697
bfc0034c:	01098021 	addu	s0,t0,t1
bfc00350:	3c1271a3 	lui	s2,0x71a3
bfc00354:	36527c51 	ori	s2,s2,0x7c51
bfc00358:	16120958 	bne	s0,s2,bfc028bc <inst_error>
bfc0035c:	00000000 	nop
bfc00360:	3c08ecde 	lui	t0,0xecde
bfc00364:	3508ab48 	ori	t0,t0,0xab48
bfc00368:	3c09aa49 	lui	t1,0xaa49
bfc0036c:	35298990 	ori	t1,t1,0x8990
bfc00370:	01098021 	addu	s0,t0,t1
bfc00374:	3c129728 	lui	s2,0x9728
bfc00378:	365234d8 	ori	s2,s2,0x34d8
bfc0037c:	1612094f 	bne	s0,s2,bfc028bc <inst_error>
bfc00380:	00000000 	nop
bfc00384:	3c08233c 	lui	t0,0x233c
bfc00388:	35084034 	ori	t0,t0,0x4034
bfc0038c:	3c09ff55 	lui	t1,0xff55
bfc00390:	352978b8 	ori	t1,t1,0x78b8
bfc00394:	01098021 	addu	s0,t0,t1
bfc00398:	3c122291 	lui	s2,0x2291
bfc0039c:	3652b8ec 	ori	s2,s2,0xb8ec
bfc003a0:	16120946 	bne	s0,s2,bfc028bc <inst_error>
bfc003a4:	00000000 	nop
bfc003a8:	3c0833ae 	lui	t0,0x33ae
bfc003ac:	35086e90 	ori	t0,t0,0x6e90
bfc003b0:	3c09b2dd 	lui	t1,0xb2dd
bfc003b4:	35291830 	ori	t1,t1,0x1830
bfc003b8:	01098021 	addu	s0,t0,t1
bfc003bc:	3c12e68b 	lui	s2,0xe68b
bfc003c0:	365286c0 	ori	s2,s2,0x86c0
bfc003c4:	1612093d 	bne	s0,s2,bfc028bc <inst_error>
bfc003c8:	00000000 	nop
bfc003cc:	3c088c6a 	lui	t0,0x8c6a
bfc003d0:	3508a20a 	ori	t0,t0,0xa20a
bfc003d4:	3c0983df 	lui	t1,0x83df
bfc003d8:	35293d56 	ori	t1,t1,0x3d56
bfc003dc:	01098021 	addu	s0,t0,t1
bfc003e0:	3c121049 	lui	s2,0x1049
bfc003e4:	3652df60 	ori	s2,s2,0xdf60
bfc003e8:	16120934 	bne	s0,s2,bfc028bc <inst_error>
bfc003ec:	00000000 	nop
bfc003f0:	3c080088 	lui	t0,0x88
bfc003f4:	3508ef98 	ori	t0,t0,0xef98
bfc003f8:	3c09af25 	lui	t1,0xaf25
bfc003fc:	35292304 	ori	t1,t1,0x2304
bfc00400:	01098021 	addu	s0,t0,t1
bfc00404:	3c12afae 	lui	s2,0xafae
bfc00408:	3652129c 	ori	s2,s2,0x129c
bfc0040c:	1612092b 	bne	s0,s2,bfc028bc <inst_error>
bfc00410:	00000000 	nop
bfc00414:	3c08d95e 	lui	t0,0xd95e
bfc00418:	35082d30 	ori	t0,t0,0x2d30
bfc0041c:	3c091367 	lui	t1,0x1367
bfc00420:	35296716 	ori	t1,t1,0x6716
bfc00424:	01098021 	addu	s0,t0,t1
bfc00428:	3c12ecc5 	lui	s2,0xecc5
bfc0042c:	36529446 	ori	s2,s2,0x9446
bfc00430:	16120922 	bne	s0,s2,bfc028bc <inst_error>
bfc00434:	00000000 	nop
bfc00438:	3c089cff 	lui	t0,0x9cff
bfc0043c:	3508ad48 	ori	t0,t0,0xad48
bfc00440:	3c09faca 	lui	t1,0xfaca
bfc00444:	35293c1c 	ori	t1,t1,0x3c1c
bfc00448:	01098021 	addu	s0,t0,t1
bfc0044c:	3c1297c9 	lui	s2,0x97c9
bfc00450:	3652e964 	ori	s2,s2,0xe964
bfc00454:	16120919 	bne	s0,s2,bfc028bc <inst_error>
bfc00458:	00000000 	nop
bfc0045c:	3c08342c 	lui	t0,0x342c
bfc00460:	35089df8 	ori	t0,t0,0x9df8
bfc00464:	3c0975ec 	lui	t1,0x75ec
bfc00468:	35295689 	ori	t1,t1,0x5689
bfc0046c:	01098021 	addu	s0,t0,t1
bfc00470:	3c12aa18 	lui	s2,0xaa18
bfc00474:	3652f481 	ori	s2,s2,0xf481
bfc00478:	16120910 	bne	s0,s2,bfc028bc <inst_error>
bfc0047c:	00000000 	nop
bfc00480:	3c0856fd 	lui	t0,0x56fd
bfc00484:	35082b00 	ori	t0,t0,0x2b00
bfc00488:	3c097112 	lui	t1,0x7112
bfc0048c:	3529e207 	ori	t1,t1,0xe207
bfc00490:	01098021 	addu	s0,t0,t1
bfc00494:	3c12c810 	lui	s2,0xc810
bfc00498:	36520d07 	ori	s2,s2,0xd07
bfc0049c:	16120907 	bne	s0,s2,bfc028bc <inst_error>
bfc004a0:	00000000 	nop
bfc004a4:	3c087db3 	lui	t0,0x7db3
bfc004a8:	350880a6 	ori	t0,t0,0x80a6
bfc004ac:	3c09c2fb 	lui	t1,0xc2fb
bfc004b0:	35295cdc 	ori	t1,t1,0x5cdc
bfc004b4:	01098021 	addu	s0,t0,t1
bfc004b8:	3c1240ae 	lui	s2,0x40ae
bfc004bc:	3652dd82 	ori	s2,s2,0xdd82
bfc004c0:	161208fe 	bne	s0,s2,bfc028bc <inst_error>
bfc004c4:	00000000 	nop
bfc004c8:	3c08e63e 	lui	t0,0xe63e
bfc004cc:	350817c0 	ori	t0,t0,0x17c0
bfc004d0:	3c092769 	lui	t1,0x2769
bfc004d4:	3529dd8e 	ori	t1,t1,0xdd8e
bfc004d8:	01098021 	addu	s0,t0,t1
bfc004dc:	3c120da7 	lui	s2,0xda7
bfc004e0:	3652f54e 	ori	s2,s2,0xf54e
bfc004e4:	161208f5 	bne	s0,s2,bfc028bc <inst_error>
bfc004e8:	00000000 	nop
bfc004ec:	3c08e962 	lui	t0,0xe962
bfc004f0:	3508e8cc 	ori	t0,t0,0xe8cc
bfc004f4:	3c09b0fe 	lui	t1,0xb0fe
bfc004f8:	3529fcde 	ori	t1,t1,0xfcde
bfc004fc:	01098021 	addu	s0,t0,t1
bfc00500:	3c129a61 	lui	s2,0x9a61
bfc00504:	3652e5aa 	ori	s2,s2,0xe5aa
bfc00508:	161208ec 	bne	s0,s2,bfc028bc <inst_error>
bfc0050c:	00000000 	nop
bfc00510:	3c087d25 	lui	t0,0x7d25
bfc00514:	35089100 	ori	t0,t0,0x9100
bfc00518:	3c09c89e 	lui	t1,0xc89e
bfc0051c:	3529d9a4 	ori	t1,t1,0xd9a4
bfc00520:	01098021 	addu	s0,t0,t1
bfc00524:	3c1245c4 	lui	s2,0x45c4
bfc00528:	36526aa4 	ori	s2,s2,0x6aa4
bfc0052c:	161208e3 	bne	s0,s2,bfc028bc <inst_error>
bfc00530:	00000000 	nop
bfc00534:	3c0838c2 	lui	t0,0x38c2
bfc00538:	35088800 	ori	t0,t0,0x8800
bfc0053c:	3c0995be 	lui	t1,0x95be
bfc00540:	35297944 	ori	t1,t1,0x7944
bfc00544:	01098021 	addu	s0,t0,t1
bfc00548:	3c12ce81 	lui	s2,0xce81
bfc0054c:	36520144 	ori	s2,s2,0x144
bfc00550:	161208da 	bne	s0,s2,bfc028bc <inst_error>
bfc00554:	00000000 	nop
bfc00558:	3c081a4e 	lui	t0,0x1a4e
bfc0055c:	3508a926 	ori	t0,t0,0xa926
bfc00560:	3c09619d 	lui	t1,0x619d
bfc00564:	3529c7e3 	ori	t1,t1,0xc7e3
bfc00568:	01098021 	addu	s0,t0,t1
bfc0056c:	3c127bec 	lui	s2,0x7bec
bfc00570:	36527109 	ori	s2,s2,0x7109
bfc00574:	161208d1 	bne	s0,s2,bfc028bc <inst_error>
bfc00578:	00000000 	nop
bfc0057c:	3c089df7 	lui	t0,0x9df7
bfc00580:	35084de8 	ori	t0,t0,0x4de8
bfc00584:	3c0947af 	lui	t1,0x47af
bfc00588:	35299418 	ori	t1,t1,0x9418
bfc0058c:	01098021 	addu	s0,t0,t1
bfc00590:	3c12e5a6 	lui	s2,0xe5a6
bfc00594:	3652e200 	ori	s2,s2,0xe200
bfc00598:	161208c8 	bne	s0,s2,bfc028bc <inst_error>
bfc0059c:	00000000 	nop
bfc005a0:	3c080dcf 	lui	t0,0xdcf
bfc005a4:	35082690 	ori	t0,t0,0x2690
bfc005a8:	3c09d202 	lui	t1,0xd202
bfc005ac:	3529f3ea 	ori	t1,t1,0xf3ea
bfc005b0:	01098021 	addu	s0,t0,t1
bfc005b4:	3c12dfd2 	lui	s2,0xdfd2
bfc005b8:	36521a7a 	ori	s2,s2,0x1a7a
bfc005bc:	161208bf 	bne	s0,s2,bfc028bc <inst_error>
bfc005c0:	00000000 	nop
bfc005c4:	3c087ed9 	lui	t0,0x7ed9
bfc005c8:	3508cc90 	ori	t0,t0,0xcc90
bfc005cc:	3c09c30a 	lui	t1,0xc30a
bfc005d0:	35296858 	ori	t1,t1,0x6858
bfc005d4:	01098021 	addu	s0,t0,t1
bfc005d8:	3c1241e4 	lui	s2,0x41e4
bfc005dc:	365234e8 	ori	s2,s2,0x34e8
bfc005e0:	161208b6 	bne	s0,s2,bfc028bc <inst_error>
bfc005e4:	00000000 	nop
bfc005e8:	3c08ccd3 	lui	t0,0xccd3
bfc005ec:	35085173 	ori	t0,t0,0x5173
bfc005f0:	3c09f97d 	lui	t1,0xf97d
bfc005f4:	352915c4 	ori	t1,t1,0x15c4
bfc005f8:	01098021 	addu	s0,t0,t1
bfc005fc:	3c12c650 	lui	s2,0xc650
bfc00600:	36526737 	ori	s2,s2,0x6737
bfc00604:	161208ad 	bne	s0,s2,bfc028bc <inst_error>
bfc00608:	00000000 	nop
bfc0060c:	3c08b392 	lui	t0,0xb392
bfc00610:	35088258 	ori	t0,t0,0x8258
bfc00614:	3c09e989 	lui	t1,0xe989
bfc00618:	35296f40 	ori	t1,t1,0x6f40
bfc0061c:	01098021 	addu	s0,t0,t1
bfc00620:	3c129d1b 	lui	s2,0x9d1b
bfc00624:	3652f198 	ori	s2,s2,0xf198
bfc00628:	161208a4 	bne	s0,s2,bfc028bc <inst_error>
bfc0062c:	00000000 	nop
bfc00630:	3c08311b 	lui	t0,0x311b
bfc00634:	35084e90 	ori	t0,t0,0x4e90
bfc00638:	3c09ad69 	lui	t1,0xad69
bfc0063c:	3529ed90 	ori	t1,t1,0xed90
bfc00640:	01098021 	addu	s0,t0,t1
bfc00644:	3c12de85 	lui	s2,0xde85
bfc00648:	36523c20 	ori	s2,s2,0x3c20
bfc0064c:	1612089b 	bne	s0,s2,bfc028bc <inst_error>
bfc00650:	00000000 	nop
bfc00654:	3c084614 	lui	t0,0x4614
bfc00658:	35083134 	ori	t0,t0,0x3134
bfc0065c:	3c09cec2 	lui	t1,0xcec2
bfc00660:	3529639e 	ori	t1,t1,0x639e
bfc00664:	01098021 	addu	s0,t0,t1
bfc00668:	3c1214d6 	lui	s2,0x14d6
bfc0066c:	365294d2 	ori	s2,s2,0x94d2
bfc00670:	16120892 	bne	s0,s2,bfc028bc <inst_error>
bfc00674:	00000000 	nop
bfc00678:	3c08c466 	lui	t0,0xc466
bfc0067c:	3508c8d4 	ori	t0,t0,0xc8d4
bfc00680:	3c09fa04 	lui	t1,0xfa04
bfc00684:	3529cca6 	ori	t1,t1,0xcca6
bfc00688:	01098021 	addu	s0,t0,t1
bfc0068c:	3c12be6b 	lui	s2,0xbe6b
bfc00690:	3652957a 	ori	s2,s2,0x957a
bfc00694:	16120889 	bne	s0,s2,bfc028bc <inst_error>
bfc00698:	00000000 	nop
bfc0069c:	3c0878e8 	lui	t0,0x78e8
bfc006a0:	350854e0 	ori	t0,t0,0x54e0
bfc006a4:	3c09b215 	lui	t1,0xb215
bfc006a8:	35296670 	ori	t1,t1,0x6670
bfc006ac:	01098021 	addu	s0,t0,t1
bfc006b0:	3c122afd 	lui	s2,0x2afd
bfc006b4:	3652bb50 	ori	s2,s2,0xbb50
bfc006b8:	16120880 	bne	s0,s2,bfc028bc <inst_error>
bfc006bc:	00000000 	nop
bfc006c0:	3c08c86f 	lui	t0,0xc86f
bfc006c4:	350821e0 	ori	t0,t0,0x21e0
bfc006c8:	3c09a93a 	lui	t1,0xa93a
bfc006cc:	35297c78 	ori	t1,t1,0x7c78
bfc006d0:	01098021 	addu	s0,t0,t1
bfc006d4:	3c1271a9 	lui	s2,0x71a9
bfc006d8:	36529e58 	ori	s2,s2,0x9e58
bfc006dc:	16120877 	bne	s0,s2,bfc028bc <inst_error>
bfc006e0:	00000000 	nop
bfc006e4:	3c089485 	lui	t0,0x9485
bfc006e8:	3508c9f0 	ori	t0,t0,0xc9f0
bfc006ec:	3c0953bb 	lui	t1,0x53bb
bfc006f0:	35292bc8 	ori	t1,t1,0x2bc8
bfc006f4:	01098021 	addu	s0,t0,t1
bfc006f8:	3c12e840 	lui	s2,0xe840
bfc006fc:	3652f5b8 	ori	s2,s2,0xf5b8
bfc00700:	1612086e 	bne	s0,s2,bfc028bc <inst_error>
bfc00704:	00000000 	nop
bfc00708:	3c080fce 	lui	t0,0xfce
bfc0070c:	3508e134 	ori	t0,t0,0xe134
bfc00710:	3c092aa3 	lui	t1,0x2aa3
bfc00714:	3529c684 	ori	t1,t1,0xc684
bfc00718:	01098021 	addu	s0,t0,t1
bfc0071c:	3c123a72 	lui	s2,0x3a72
bfc00720:	3652a7b8 	ori	s2,s2,0xa7b8
bfc00724:	16120865 	bne	s0,s2,bfc028bc <inst_error>
bfc00728:	00000000 	nop
bfc0072c:	3c08b610 	lui	t0,0xb610
bfc00730:	35085c03 	ori	t0,t0,0x5c03
bfc00734:	3c09fc3c 	lui	t1,0xfc3c
bfc00738:	3529d85a 	ori	t1,t1,0xd85a
bfc0073c:	01098021 	addu	s0,t0,t1
bfc00740:	3c12b24d 	lui	s2,0xb24d
bfc00744:	3652345d 	ori	s2,s2,0x345d
bfc00748:	1612085c 	bne	s0,s2,bfc028bc <inst_error>
bfc0074c:	00000000 	nop
bfc00750:	3c0877f2 	lui	t0,0x77f2
bfc00754:	35085918 	ori	t0,t0,0x5918
bfc00758:	3c094e90 	lui	t1,0x4e90
bfc0075c:	3529dbe0 	ori	t1,t1,0xdbe0
bfc00760:	01098021 	addu	s0,t0,t1
bfc00764:	3c12c683 	lui	s2,0xc683
bfc00768:	365234f8 	ori	s2,s2,0x34f8
bfc0076c:	16120853 	bne	s0,s2,bfc028bc <inst_error>
bfc00770:	00000000 	nop
bfc00774:	3c08e8a5 	lui	t0,0xe8a5
bfc00778:	35084300 	ori	t0,t0,0x4300
bfc0077c:	3c091eff 	lui	t1,0x1eff
bfc00780:	352938dc 	ori	t1,t1,0x38dc
bfc00784:	01098021 	addu	s0,t0,t1
bfc00788:	3c1207a4 	lui	s2,0x7a4
bfc0078c:	36527bdc 	ori	s2,s2,0x7bdc
bfc00790:	1612084a 	bne	s0,s2,bfc028bc <inst_error>
bfc00794:	00000000 	nop
bfc00798:	3c0878f4 	lui	t0,0x78f4
bfc0079c:	3508529d 	ori	t0,t0,0x529d
bfc007a0:	3c09190c 	lui	t1,0x190c
bfc007a4:	3529fc04 	ori	t1,t1,0xfc04
bfc007a8:	01098021 	addu	s0,t0,t1
bfc007ac:	3c129201 	lui	s2,0x9201
bfc007b0:	36524ea1 	ori	s2,s2,0x4ea1
bfc007b4:	16120841 	bne	s0,s2,bfc028bc <inst_error>
bfc007b8:	00000000 	nop
bfc007bc:	3c08b771 	lui	t0,0xb771
bfc007c0:	3508afe0 	ori	t0,t0,0xafe0
bfc007c4:	3c09972f 	lui	t1,0x972f
bfc007c8:	3529cbc4 	ori	t1,t1,0xcbc4
bfc007cc:	01098021 	addu	s0,t0,t1
bfc007d0:	3c124ea1 	lui	s2,0x4ea1
bfc007d4:	36527ba4 	ori	s2,s2,0x7ba4
bfc007d8:	16120838 	bne	s0,s2,bfc028bc <inst_error>
bfc007dc:	00000000 	nop
bfc007e0:	3c089974 	lui	t0,0x9974
bfc007e4:	35085200 	ori	t0,t0,0x5200
bfc007e8:	3c09ade8 	lui	t1,0xade8
bfc007ec:	3529e029 	ori	t1,t1,0xe029
bfc007f0:	01098021 	addu	s0,t0,t1
bfc007f4:	3c12475d 	lui	s2,0x475d
bfc007f8:	36523229 	ori	s2,s2,0x3229
bfc007fc:	1612082f 	bne	s0,s2,bfc028bc <inst_error>
bfc00800:	00000000 	nop
bfc00804:	3c08426f 	lui	t0,0x426f
bfc00808:	35087c70 	ori	t0,t0,0x7c70
bfc0080c:	3c09b350 	lui	t1,0xb350
bfc00810:	352953d6 	ori	t1,t1,0x53d6
bfc00814:	01098021 	addu	s0,t0,t1
bfc00818:	3c12f5bf 	lui	s2,0xf5bf
bfc0081c:	3652d046 	ori	s2,s2,0xd046
bfc00820:	16120826 	bne	s0,s2,bfc028bc <inst_error>
bfc00824:	00000000 	nop
bfc00828:	3c08977c 	lui	t0,0x977c
bfc0082c:	3508bf3e 	ori	t0,t0,0xbf3e
bfc00830:	3c09a73d 	lui	t1,0xa73d
bfc00834:	35292f77 	ori	t1,t1,0x2f77
bfc00838:	01098021 	addu	s0,t0,t1
bfc0083c:	3c123eb9 	lui	s2,0x3eb9
bfc00840:	3652eeb5 	ori	s2,s2,0xeeb5
bfc00844:	1612081d 	bne	s0,s2,bfc028bc <inst_error>
bfc00848:	00000000 	nop
bfc0084c:	3c085582 	lui	t0,0x5582
bfc00850:	3508389c 	ori	t0,t0,0x389c
bfc00854:	3c09c11d 	lui	t1,0xc11d
bfc00858:	35292f10 	ori	t1,t1,0x2f10
bfc0085c:	01098021 	addu	s0,t0,t1
bfc00860:	3c12169f 	lui	s2,0x169f
bfc00864:	365267ac 	ori	s2,s2,0x67ac
bfc00868:	16120814 	bne	s0,s2,bfc028bc <inst_error>
bfc0086c:	00000000 	nop
bfc00870:	3c08ea59 	lui	t0,0xea59
bfc00874:	35083c9c 	ori	t0,t0,0x3c9c
bfc00878:	3c096bc2 	lui	t1,0x6bc2
bfc0087c:	3529a9ab 	ori	t1,t1,0xa9ab
bfc00880:	01098021 	addu	s0,t0,t1
bfc00884:	3c12561b 	lui	s2,0x561b
bfc00888:	3652e647 	ori	s2,s2,0xe647
bfc0088c:	1612080b 	bne	s0,s2,bfc028bc <inst_error>
bfc00890:	00000000 	nop
bfc00894:	3c085159 	lui	t0,0x5159
bfc00898:	35085f80 	ori	t0,t0,0x5f80
bfc0089c:	3c09fd5a 	lui	t1,0xfd5a
bfc008a0:	3529a46d 	ori	t1,t1,0xa46d
bfc008a4:	01098021 	addu	s0,t0,t1
bfc008a8:	3c124eb4 	lui	s2,0x4eb4
bfc008ac:	365203ed 	ori	s2,s2,0x3ed
bfc008b0:	16120802 	bne	s0,s2,bfc028bc <inst_error>
bfc008b4:	00000000 	nop
bfc008b8:	3c080fb4 	lui	t0,0xfb4
bfc008bc:	3508c2da 	ori	t0,t0,0xc2da
bfc008c0:	3c098314 	lui	t1,0x8314
bfc008c4:	35291a5a 	ori	t1,t1,0x1a5a
bfc008c8:	01098021 	addu	s0,t0,t1
bfc008cc:	3c1292c8 	lui	s2,0x92c8
bfc008d0:	3652dd34 	ori	s2,s2,0xdd34
bfc008d4:	161207f9 	bne	s0,s2,bfc028bc <inst_error>
bfc008d8:	00000000 	nop
bfc008dc:	3c08f03e 	lui	t0,0xf03e
bfc008e0:	35083034 	ori	t0,t0,0x3034
bfc008e4:	3c090b8a 	lui	t1,0xb8a
bfc008e8:	35299700 	ori	t1,t1,0x9700
bfc008ec:	01098021 	addu	s0,t0,t1
bfc008f0:	3c12fbc8 	lui	s2,0xfbc8
bfc008f4:	3652c734 	ori	s2,s2,0xc734
bfc008f8:	161207f0 	bne	s0,s2,bfc028bc <inst_error>
bfc008fc:	00000000 	nop
bfc00900:	3c08ad53 	lui	t0,0xad53
bfc00904:	3508fc4e 	ori	t0,t0,0xfc4e
bfc00908:	3c0996cc 	lui	t1,0x96cc
bfc0090c:	35293368 	ori	t1,t1,0x3368
bfc00910:	01098021 	addu	s0,t0,t1
bfc00914:	3c124420 	lui	s2,0x4420
bfc00918:	36522fb6 	ori	s2,s2,0x2fb6
bfc0091c:	161207e7 	bne	s0,s2,bfc028bc <inst_error>
bfc00920:	00000000 	nop
bfc00924:	3c08798f 	lui	t0,0x798f
bfc00928:	35087e3b 	ori	t0,t0,0x7e3b
bfc0092c:	3c096b3b 	lui	t1,0x6b3b
bfc00930:	35290180 	ori	t1,t1,0x180
bfc00934:	01098021 	addu	s0,t0,t1
bfc00938:	3c12e4ca 	lui	s2,0xe4ca
bfc0093c:	36527fbb 	ori	s2,s2,0x7fbb
bfc00940:	161207de 	bne	s0,s2,bfc028bc <inst_error>
bfc00944:	00000000 	nop
bfc00948:	3c0869b3 	lui	t0,0x69b3
bfc0094c:	350849f8 	ori	t0,t0,0x49f8
bfc00950:	3c09bcf7 	lui	t1,0xbcf7
bfc00954:	35299d98 	ori	t1,t1,0x9d98
bfc00958:	01098021 	addu	s0,t0,t1
bfc0095c:	3c1226aa 	lui	s2,0x26aa
bfc00960:	3652e790 	ori	s2,s2,0xe790
bfc00964:	161207d5 	bne	s0,s2,bfc028bc <inst_error>
bfc00968:	00000000 	nop
bfc0096c:	3c08c1f6 	lui	t0,0xc1f6
bfc00970:	35083730 	ori	t0,t0,0x3730
bfc00974:	3c092d64 	lui	t1,0x2d64
bfc00978:	35293390 	ori	t1,t1,0x3390
bfc0097c:	01098021 	addu	s0,t0,t1
bfc00980:	3c12ef5a 	lui	s2,0xef5a
bfc00984:	36526ac0 	ori	s2,s2,0x6ac0
bfc00988:	161207cc 	bne	s0,s2,bfc028bc <inst_error>
bfc0098c:	00000000 	nop
bfc00990:	3c08fa67 	lui	t0,0xfa67
bfc00994:	35082830 	ori	t0,t0,0x2830
bfc00998:	3c099af9 	lui	t1,0x9af9
bfc0099c:	3529d9a0 	ori	t1,t1,0xd9a0
bfc009a0:	01098021 	addu	s0,t0,t1
bfc009a4:	3c129561 	lui	s2,0x9561
bfc009a8:	365201d0 	ori	s2,s2,0x1d0
bfc009ac:	161207c3 	bne	s0,s2,bfc028bc <inst_error>
bfc009b0:	00000000 	nop
bfc009b4:	3c0892ff 	lui	t0,0x92ff
bfc009b8:	3508eb08 	ori	t0,t0,0xeb08
bfc009bc:	3c095e15 	lui	t1,0x5e15
bfc009c0:	3529c50c 	ori	t1,t1,0xc50c
bfc009c4:	01098021 	addu	s0,t0,t1
bfc009c8:	3c12f115 	lui	s2,0xf115
bfc009cc:	3652b014 	ori	s2,s2,0xb014
bfc009d0:	161207ba 	bne	s0,s2,bfc028bc <inst_error>
bfc009d4:	00000000 	nop
bfc009d8:	3c0824cb 	lui	t0,0x24cb
bfc009dc:	3508322c 	ori	t0,t0,0x322c
bfc009e0:	3c099a73 	lui	t1,0x9a73
bfc009e4:	35292956 	ori	t1,t1,0x2956
bfc009e8:	01098021 	addu	s0,t0,t1
bfc009ec:	3c12bf3e 	lui	s2,0xbf3e
bfc009f0:	36525b82 	ori	s2,s2,0x5b82
bfc009f4:	161207b1 	bne	s0,s2,bfc028bc <inst_error>
bfc009f8:	00000000 	nop
bfc009fc:	3c088b7f 	lui	t0,0x8b7f
bfc00a00:	3508cca0 	ori	t0,t0,0xcca0
bfc00a04:	3c09de7d 	lui	t1,0xde7d
bfc00a08:	35292d30 	ori	t1,t1,0x2d30
bfc00a0c:	01098021 	addu	s0,t0,t1
bfc00a10:	3c1269fc 	lui	s2,0x69fc
bfc00a14:	3652f9d0 	ori	s2,s2,0xf9d0
bfc00a18:	161207a8 	bne	s0,s2,bfc028bc <inst_error>
bfc00a1c:	00000000 	nop
bfc00a20:	3c081a83 	lui	t0,0x1a83
bfc00a24:	35082f70 	ori	t0,t0,0x2f70
bfc00a28:	3c098500 	lui	t1,0x8500
bfc00a2c:	35295ca4 	ori	t1,t1,0x5ca4
bfc00a30:	01098021 	addu	s0,t0,t1
bfc00a34:	3c129f83 	lui	s2,0x9f83
bfc00a38:	36528c14 	ori	s2,s2,0x8c14
bfc00a3c:	1612079f 	bne	s0,s2,bfc028bc <inst_error>
bfc00a40:	00000000 	nop
bfc00a44:	3c086272 	lui	t0,0x6272
bfc00a48:	35089700 	ori	t0,t0,0x9700
bfc00a4c:	3c0938ba 	lui	t1,0x38ba
bfc00a50:	352940f4 	ori	t1,t1,0x40f4
bfc00a54:	01098021 	addu	s0,t0,t1
bfc00a58:	3c129b2c 	lui	s2,0x9b2c
bfc00a5c:	3652d7f4 	ori	s2,s2,0xd7f4
bfc00a60:	16120796 	bne	s0,s2,bfc028bc <inst_error>
bfc00a64:	00000000 	nop
bfc00a68:	3c089529 	lui	t0,0x9529
bfc00a6c:	3508d404 	ori	t0,t0,0xd404
bfc00a70:	3c09c53a 	lui	t1,0xc53a
bfc00a74:	3529bb20 	ori	t1,t1,0xbb20
bfc00a78:	01098021 	addu	s0,t0,t1
bfc00a7c:	3c125a64 	lui	s2,0x5a64
bfc00a80:	36528f24 	ori	s2,s2,0x8f24
bfc00a84:	1612078d 	bne	s0,s2,bfc028bc <inst_error>
bfc00a88:	00000000 	nop
bfc00a8c:	3c08c322 	lui	t0,0xc322
bfc00a90:	35084e73 	ori	t0,t0,0x4e73
bfc00a94:	3c092ab1 	lui	t1,0x2ab1
bfc00a98:	3529e7d0 	ori	t1,t1,0xe7d0
bfc00a9c:	01098021 	addu	s0,t0,t1
bfc00aa0:	3c12edd4 	lui	s2,0xedd4
bfc00aa4:	36523643 	ori	s2,s2,0x3643
bfc00aa8:	16120784 	bne	s0,s2,bfc028bc <inst_error>
bfc00aac:	00000000 	nop
bfc00ab0:	3c0825c5 	lui	t0,0x25c5
bfc00ab4:	350834b0 	ori	t0,t0,0x34b0
bfc00ab8:	3c0970a4 	lui	t1,0x70a4
bfc00abc:	3529d680 	ori	t1,t1,0xd680
bfc00ac0:	01098021 	addu	s0,t0,t1
bfc00ac4:	3c12966a 	lui	s2,0x966a
bfc00ac8:	36520b30 	ori	s2,s2,0xb30
bfc00acc:	1612077b 	bne	s0,s2,bfc028bc <inst_error>
bfc00ad0:	00000000 	nop
bfc00ad4:	3c0885c1 	lui	t0,0x85c1
bfc00ad8:	35085a40 	ori	t0,t0,0x5a40
bfc00adc:	3c097361 	lui	t1,0x7361
bfc00ae0:	3529f223 	ori	t1,t1,0xf223
bfc00ae4:	01098021 	addu	s0,t0,t1
bfc00ae8:	3c12f923 	lui	s2,0xf923
bfc00aec:	36524c63 	ori	s2,s2,0x4c63
bfc00af0:	16120772 	bne	s0,s2,bfc028bc <inst_error>
bfc00af4:	00000000 	nop
bfc00af8:	3c080e56 	lui	t0,0xe56
bfc00afc:	3508f760 	ori	t0,t0,0xf760
bfc00b00:	3c093e59 	lui	t1,0x3e59
bfc00b04:	3529d840 	ori	t1,t1,0xd840
bfc00b08:	01098021 	addu	s0,t0,t1
bfc00b0c:	3c124cb0 	lui	s2,0x4cb0
bfc00b10:	3652cfa0 	ori	s2,s2,0xcfa0
bfc00b14:	16120769 	bne	s0,s2,bfc028bc <inst_error>
bfc00b18:	00000000 	nop
bfc00b1c:	3c083821 	lui	t0,0x3821
bfc00b20:	3508c9c4 	ori	t0,t0,0xc9c4
bfc00b24:	3c09b17f 	lui	t1,0xb17f
bfc00b28:	35297000 	ori	t1,t1,0x7000
bfc00b2c:	01098021 	addu	s0,t0,t1
bfc00b30:	3c12e9a1 	lui	s2,0xe9a1
bfc00b34:	365239c4 	ori	s2,s2,0x39c4
bfc00b38:	16120760 	bne	s0,s2,bfc028bc <inst_error>
bfc00b3c:	00000000 	nop
bfc00b40:	3c08d483 	lui	t0,0xd483
bfc00b44:	350811f0 	ori	t0,t0,0x11f0
bfc00b48:	3c09a60c 	lui	t1,0xa60c
bfc00b4c:	352950f8 	ori	t1,t1,0x50f8
bfc00b50:	01098021 	addu	s0,t0,t1
bfc00b54:	3c127a8f 	lui	s2,0x7a8f
bfc00b58:	365262e8 	ori	s2,s2,0x62e8
bfc00b5c:	16120757 	bne	s0,s2,bfc028bc <inst_error>
bfc00b60:	00000000 	nop
bfc00b64:	3c088787 	lui	t0,0x8787
bfc00b68:	3508758c 	ori	t0,t0,0x758c
bfc00b6c:	3c097659 	lui	t1,0x7659
bfc00b70:	352998cc 	ori	t1,t1,0x98cc
bfc00b74:	01098021 	addu	s0,t0,t1
bfc00b78:	3c12fde1 	lui	s2,0xfde1
bfc00b7c:	36520e58 	ori	s2,s2,0xe58
bfc00b80:	1612074e 	bne	s0,s2,bfc028bc <inst_error>
bfc00b84:	00000000 	nop
bfc00b88:	3c08f7dc 	lui	t0,0xf7dc
bfc00b8c:	3508c188 	ori	t0,t0,0xc188
bfc00b90:	3c09a800 	lui	t1,0xa800
bfc00b94:	3529f8ea 	ori	t1,t1,0xf8ea
bfc00b98:	01098021 	addu	s0,t0,t1
bfc00b9c:	3c129fdd 	lui	s2,0x9fdd
bfc00ba0:	3652ba72 	ori	s2,s2,0xba72
bfc00ba4:	16120745 	bne	s0,s2,bfc028bc <inst_error>
bfc00ba8:	00000000 	nop
bfc00bac:	3c08f529 	lui	t0,0xf529
bfc00bb0:	3508881c 	ori	t0,t0,0x881c
bfc00bb4:	3c09f123 	lui	t1,0xf123
bfc00bb8:	3529d44d 	ori	t1,t1,0xd44d
bfc00bbc:	01098021 	addu	s0,t0,t1
bfc00bc0:	3c12e64d 	lui	s2,0xe64d
bfc00bc4:	36525c69 	ori	s2,s2,0x5c69
bfc00bc8:	1612073c 	bne	s0,s2,bfc028bc <inst_error>
bfc00bcc:	00000000 	nop
bfc00bd0:	3c08f882 	lui	t0,0xf882
bfc00bd4:	35086295 	ori	t0,t0,0x6295
bfc00bd8:	3c09a4b0 	lui	t1,0xa4b0
bfc00bdc:	35295c51 	ori	t1,t1,0x5c51
bfc00be0:	01098021 	addu	s0,t0,t1
bfc00be4:	3c129d32 	lui	s2,0x9d32
bfc00be8:	3652bee6 	ori	s2,s2,0xbee6
bfc00bec:	16120733 	bne	s0,s2,bfc028bc <inst_error>
bfc00bf0:	00000000 	nop
bfc00bf4:	3c08ea68 	lui	t0,0xea68
bfc00bf8:	35089caa 	ori	t0,t0,0x9caa
bfc00bfc:	3c099a0a 	lui	t1,0x9a0a
bfc00c00:	3529c552 	ori	t1,t1,0xc552
bfc00c04:	01098021 	addu	s0,t0,t1
bfc00c08:	3c128473 	lui	s2,0x8473
bfc00c0c:	365261fc 	ori	s2,s2,0x61fc
bfc00c10:	1612072a 	bne	s0,s2,bfc028bc <inst_error>
bfc00c14:	00000000 	nop
bfc00c18:	3c080902 	lui	t0,0x902
bfc00c1c:	35085080 	ori	t0,t0,0x5080
bfc00c20:	3c095f79 	lui	t1,0x5f79
bfc00c24:	352959c5 	ori	t1,t1,0x59c5
bfc00c28:	01098021 	addu	s0,t0,t1
bfc00c2c:	3c12687b 	lui	s2,0x687b
bfc00c30:	3652aa45 	ori	s2,s2,0xaa45
bfc00c34:	16120721 	bne	s0,s2,bfc028bc <inst_error>
bfc00c38:	00000000 	nop
bfc00c3c:	3c08d8c2 	lui	t0,0xd8c2
bfc00c40:	35088555 	ori	t0,t0,0x8555
bfc00c44:	3c098761 	lui	t1,0x8761
bfc00c48:	3529cee0 	ori	t1,t1,0xcee0
bfc00c4c:	01098021 	addu	s0,t0,t1
bfc00c50:	3c126024 	lui	s2,0x6024
bfc00c54:	36525435 	ori	s2,s2,0x5435
bfc00c58:	16120718 	bne	s0,s2,bfc028bc <inst_error>
bfc00c5c:	00000000 	nop
bfc00c60:	3c087d1c 	lui	t0,0x7d1c
bfc00c64:	350884b1 	ori	t0,t0,0x84b1
bfc00c68:	3c09eb46 	lui	t1,0xeb46
bfc00c6c:	3529ff9c 	ori	t1,t1,0xff9c
bfc00c70:	01098021 	addu	s0,t0,t1
bfc00c74:	3c126863 	lui	s2,0x6863
bfc00c78:	3652844d 	ori	s2,s2,0x844d
bfc00c7c:	1612070f 	bne	s0,s2,bfc028bc <inst_error>
bfc00c80:	00000000 	nop
bfc00c84:	3c08e783 	lui	t0,0xe783
bfc00c88:	35082e98 	ori	t0,t0,0x2e98
bfc00c8c:	3c09c6f1 	lui	t1,0xc6f1
bfc00c90:	3529dbb0 	ori	t1,t1,0xdbb0
bfc00c94:	01098021 	addu	s0,t0,t1
bfc00c98:	3c12ae75 	lui	s2,0xae75
bfc00c9c:	36520a48 	ori	s2,s2,0xa48
bfc00ca0:	16120706 	bne	s0,s2,bfc028bc <inst_error>
bfc00ca4:	00000000 	nop
bfc00ca8:	3c08701f 	lui	t0,0x701f
bfc00cac:	3508d5ae 	ori	t0,t0,0xd5ae
bfc00cb0:	3c090a9c 	lui	t1,0xa9c
bfc00cb4:	35297894 	ori	t1,t1,0x7894
bfc00cb8:	01098021 	addu	s0,t0,t1
bfc00cbc:	3c127abc 	lui	s2,0x7abc
bfc00cc0:	36524e42 	ori	s2,s2,0x4e42
bfc00cc4:	161206fd 	bne	s0,s2,bfc028bc <inst_error>
bfc00cc8:	00000000 	nop
bfc00ccc:	3c08bb97 	lui	t0,0xbb97
bfc00cd0:	35086ed0 	ori	t0,t0,0x6ed0
bfc00cd4:	3c0986c3 	lui	t1,0x86c3
bfc00cd8:	3529fae2 	ori	t1,t1,0xfae2
bfc00cdc:	01098021 	addu	s0,t0,t1
bfc00ce0:	3c12425b 	lui	s2,0x425b
bfc00ce4:	365269b2 	ori	s2,s2,0x69b2
bfc00ce8:	161206f4 	bne	s0,s2,bfc028bc <inst_error>
bfc00cec:	00000000 	nop
bfc00cf0:	3c08db7c 	lui	t0,0xdb7c
bfc00cf4:	3508b30c 	ori	t0,t0,0xb30c
bfc00cf8:	3c091212 	lui	t1,0x1212
bfc00cfc:	35295aaa 	ori	t1,t1,0x5aaa
bfc00d00:	01098021 	addu	s0,t0,t1
bfc00d04:	3c12ed8f 	lui	s2,0xed8f
bfc00d08:	36520db6 	ori	s2,s2,0xdb6
bfc00d0c:	161206eb 	bne	s0,s2,bfc028bc <inst_error>
bfc00d10:	00000000 	nop
bfc00d14:	3c080f0e 	lui	t0,0xf0e
bfc00d18:	3508f91f 	ori	t0,t0,0xf91f
bfc00d1c:	3c09f2a7 	lui	t1,0xf2a7
bfc00d20:	35297d3b 	ori	t1,t1,0x7d3b
bfc00d24:	01098021 	addu	s0,t0,t1
bfc00d28:	3c1201b6 	lui	s2,0x1b6
bfc00d2c:	3652765a 	ori	s2,s2,0x765a
bfc00d30:	161206e2 	bne	s0,s2,bfc028bc <inst_error>
bfc00d34:	00000000 	nop
bfc00d38:	3c08c012 	lui	t0,0xc012
bfc00d3c:	35083708 	ori	t0,t0,0x3708
bfc00d40:	3c09a5e7 	lui	t1,0xa5e7
bfc00d44:	3529a578 	ori	t1,t1,0xa578
bfc00d48:	01098021 	addu	s0,t0,t1
bfc00d4c:	3c1265f9 	lui	s2,0x65f9
bfc00d50:	3652dc80 	ori	s2,s2,0xdc80
bfc00d54:	161206d9 	bne	s0,s2,bfc028bc <inst_error>
bfc00d58:	00000000 	nop
bfc00d5c:	3c081cb9 	lui	t0,0x1cb9
bfc00d60:	35084ac1 	ori	t0,t0,0x4ac1
bfc00d64:	3c09cf9d 	lui	t1,0xcf9d
bfc00d68:	35290168 	ori	t1,t1,0x168
bfc00d6c:	01098021 	addu	s0,t0,t1
bfc00d70:	3c12ec56 	lui	s2,0xec56
bfc00d74:	36524c29 	ori	s2,s2,0x4c29
bfc00d78:	161206d0 	bne	s0,s2,bfc028bc <inst_error>
bfc00d7c:	00000000 	nop
bfc00d80:	3c0869ba 	lui	t0,0x69ba
bfc00d84:	35086aea 	ori	t0,t0,0x6aea
bfc00d88:	3c090fd6 	lui	t1,0xfd6
bfc00d8c:	3529a85c 	ori	t1,t1,0xa85c
bfc00d90:	01098021 	addu	s0,t0,t1
bfc00d94:	3c127991 	lui	s2,0x7991
bfc00d98:	36521346 	ori	s2,s2,0x1346
bfc00d9c:	161206c7 	bne	s0,s2,bfc028bc <inst_error>
bfc00da0:	00000000 	nop
bfc00da4:	3c08613b 	lui	t0,0x613b
bfc00da8:	3508cd5c 	ori	t0,t0,0xcd5c
bfc00dac:	3c094483 	lui	t1,0x4483
bfc00db0:	35294706 	ori	t1,t1,0x4706
bfc00db4:	01098021 	addu	s0,t0,t1
bfc00db8:	3c12a5bf 	lui	s2,0xa5bf
bfc00dbc:	36521462 	ori	s2,s2,0x1462
bfc00dc0:	161206be 	bne	s0,s2,bfc028bc <inst_error>
bfc00dc4:	00000000 	nop
bfc00dc8:	3c08a77d 	lui	t0,0xa77d
bfc00dcc:	3508c34d 	ori	t0,t0,0xc34d
bfc00dd0:	3c09161b 	lui	t1,0x161b
bfc00dd4:	35295d78 	ori	t1,t1,0x5d78
bfc00dd8:	01098021 	addu	s0,t0,t1
bfc00ddc:	3c12bd99 	lui	s2,0xbd99
bfc00de0:	365220c5 	ori	s2,s2,0x20c5
bfc00de4:	161206b5 	bne	s0,s2,bfc028bc <inst_error>
bfc00de8:	00000000 	nop
bfc00dec:	3c08ccfb 	lui	t0,0xccfb
bfc00df0:	350880de 	ori	t0,t0,0x80de
bfc00df4:	3c095e65 	lui	t1,0x5e65
bfc00df8:	35293fd8 	ori	t1,t1,0x3fd8
bfc00dfc:	01098021 	addu	s0,t0,t1
bfc00e00:	3c122b60 	lui	s2,0x2b60
bfc00e04:	3652c0b6 	ori	s2,s2,0xc0b6
bfc00e08:	161206ac 	bne	s0,s2,bfc028bc <inst_error>
bfc00e0c:	00000000 	nop
bfc00e10:	3c08484e 	lui	t0,0x484e
bfc00e14:	3508c5c0 	ori	t0,t0,0xc5c0
bfc00e18:	3c09b836 	lui	t1,0xb836
bfc00e1c:	35295a0d 	ori	t1,t1,0x5a0d
bfc00e20:	01098021 	addu	s0,t0,t1
bfc00e24:	3c120085 	lui	s2,0x85
bfc00e28:	36521fcd 	ori	s2,s2,0x1fcd
bfc00e2c:	161206a3 	bne	s0,s2,bfc028bc <inst_error>
bfc00e30:	00000000 	nop
bfc00e34:	3c08c4d8 	lui	t0,0xc4d8
bfc00e38:	350853e0 	ori	t0,t0,0x53e0
bfc00e3c:	3c09100d 	lui	t1,0x100d
bfc00e40:	35291fc0 	ori	t1,t1,0x1fc0
bfc00e44:	01098021 	addu	s0,t0,t1
bfc00e48:	3c12d4e5 	lui	s2,0xd4e5
bfc00e4c:	365273a0 	ori	s2,s2,0x73a0
bfc00e50:	1612069a 	bne	s0,s2,bfc028bc <inst_error>
bfc00e54:	00000000 	nop
bfc00e58:	3c080eb6 	lui	t0,0xeb6
bfc00e5c:	350861cd 	ori	t0,t0,0x61cd
bfc00e60:	3c091c83 	lui	t1,0x1c83
bfc00e64:	3529b94e 	ori	t1,t1,0xb94e
bfc00e68:	01098021 	addu	s0,t0,t1
bfc00e6c:	3c122b3a 	lui	s2,0x2b3a
bfc00e70:	36521b1b 	ori	s2,s2,0x1b1b
bfc00e74:	16120691 	bne	s0,s2,bfc028bc <inst_error>
bfc00e78:	00000000 	nop
bfc00e7c:	3c08e2ef 	lui	t0,0xe2ef
bfc00e80:	35083ea0 	ori	t0,t0,0x3ea0
bfc00e84:	3c0947a8 	lui	t1,0x47a8
bfc00e88:	35294fa4 	ori	t1,t1,0x4fa4
bfc00e8c:	01098021 	addu	s0,t0,t1
bfc00e90:	3c122a97 	lui	s2,0x2a97
bfc00e94:	36528e44 	ori	s2,s2,0x8e44
bfc00e98:	16120688 	bne	s0,s2,bfc028bc <inst_error>
bfc00e9c:	00000000 	nop
bfc00ea0:	3c080c46 	lui	t0,0xc46
bfc00ea4:	35083b3c 	ori	t0,t0,0x3b3c
bfc00ea8:	3c0902ba 	lui	t1,0x2ba
bfc00eac:	3529aecc 	ori	t1,t1,0xaecc
bfc00eb0:	01098021 	addu	s0,t0,t1
bfc00eb4:	3c120f00 	lui	s2,0xf00
bfc00eb8:	3652ea08 	ori	s2,s2,0xea08
bfc00ebc:	1612067f 	bne	s0,s2,bfc028bc <inst_error>
bfc00ec0:	00000000 	nop
bfc00ec4:	3c084ce7 	lui	t0,0x4ce7
bfc00ec8:	3508aed9 	ori	t0,t0,0xaed9
bfc00ecc:	3c09bc5e 	lui	t1,0xbc5e
bfc00ed0:	352917dc 	ori	t1,t1,0x17dc
bfc00ed4:	01098021 	addu	s0,t0,t1
bfc00ed8:	3c120945 	lui	s2,0x945
bfc00edc:	3652c6b5 	ori	s2,s2,0xc6b5
bfc00ee0:	16120676 	bne	s0,s2,bfc028bc <inst_error>
bfc00ee4:	00000000 	nop
bfc00ee8:	3c08dc95 	lui	t0,0xdc95
bfc00eec:	3508c140 	ori	t0,t0,0xc140
bfc00ef0:	3c095947 	lui	t1,0x5947
bfc00ef4:	3529f1b8 	ori	t1,t1,0xf1b8
bfc00ef8:	01098021 	addu	s0,t0,t1
bfc00efc:	3c1235dd 	lui	s2,0x35dd
bfc00f00:	3652b2f8 	ori	s2,s2,0xb2f8
bfc00f04:	1612066d 	bne	s0,s2,bfc028bc <inst_error>
bfc00f08:	00000000 	nop
bfc00f0c:	3c08483f 	lui	t0,0x483f
bfc00f10:	3508f182 	ori	t0,t0,0xf182
bfc00f14:	3c09293c 	lui	t1,0x293c
bfc00f18:	352987e9 	ori	t1,t1,0x87e9
bfc00f1c:	01098021 	addu	s0,t0,t1
bfc00f20:	3c12717c 	lui	s2,0x717c
bfc00f24:	3652796b 	ori	s2,s2,0x796b
bfc00f28:	16120664 	bne	s0,s2,bfc028bc <inst_error>
bfc00f2c:	00000000 	nop
bfc00f30:	3c081975 	lui	t0,0x1975
bfc00f34:	35083bae 	ori	t0,t0,0x3bae
bfc00f38:	3c090ccd 	lui	t1,0xccd
bfc00f3c:	3529f280 	ori	t1,t1,0xf280
bfc00f40:	01098021 	addu	s0,t0,t1
bfc00f44:	3c122643 	lui	s2,0x2643
bfc00f48:	36522e2e 	ori	s2,s2,0x2e2e
bfc00f4c:	1612065b 	bne	s0,s2,bfc028bc <inst_error>
bfc00f50:	00000000 	nop
bfc00f54:	3c08f8d7 	lui	t0,0xf8d7
bfc00f58:	3508a0f0 	ori	t0,t0,0xa0f0
bfc00f5c:	3c09034b 	lui	t1,0x34b
bfc00f60:	3529fa0c 	ori	t1,t1,0xfa0c
bfc00f64:	01098021 	addu	s0,t0,t1
bfc00f68:	3c12fc23 	lui	s2,0xfc23
bfc00f6c:	36529afc 	ori	s2,s2,0x9afc
bfc00f70:	16120652 	bne	s0,s2,bfc028bc <inst_error>
bfc00f74:	00000000 	nop
bfc00f78:	3c0872ab 	lui	t0,0x72ab
bfc00f7c:	3508958c 	ori	t0,t0,0x958c
bfc00f80:	3c099e4a 	lui	t1,0x9e4a
bfc00f84:	3529e4c8 	ori	t1,t1,0xe4c8
bfc00f88:	01098021 	addu	s0,t0,t1
bfc00f8c:	3c1210f6 	lui	s2,0x10f6
bfc00f90:	36527a54 	ori	s2,s2,0x7a54
bfc00f94:	16120649 	bne	s0,s2,bfc028bc <inst_error>
bfc00f98:	00000000 	nop
bfc00f9c:	3c08521d 	lui	t0,0x521d
bfc00fa0:	350806c0 	ori	t0,t0,0x6c0
bfc00fa4:	3c09970d 	lui	t1,0x970d
bfc00fa8:	3529cce0 	ori	t1,t1,0xcce0
bfc00fac:	01098021 	addu	s0,t0,t1
bfc00fb0:	3c12e92a 	lui	s2,0xe92a
bfc00fb4:	3652d3a0 	ori	s2,s2,0xd3a0
bfc00fb8:	16120640 	bne	s0,s2,bfc028bc <inst_error>
bfc00fbc:	00000000 	nop
bfc00fc0:	3c08c450 	lui	t0,0xc450
bfc00fc4:	3508df40 	ori	t0,t0,0xdf40
bfc00fc8:	3c09196f 	lui	t1,0x196f
bfc00fcc:	352962bf 	ori	t1,t1,0x62bf
bfc00fd0:	01098021 	addu	s0,t0,t1
bfc00fd4:	3c12ddc0 	lui	s2,0xddc0
bfc00fd8:	365241ff 	ori	s2,s2,0x41ff
bfc00fdc:	16120637 	bne	s0,s2,bfc028bc <inst_error>
bfc00fe0:	00000000 	nop
bfc00fe4:	3c08f2a3 	lui	t0,0xf2a3
bfc00fe8:	35085c0a 	ori	t0,t0,0x5c0a
bfc00fec:	3c0948c6 	lui	t1,0x48c6
bfc00ff0:	35293448 	ori	t1,t1,0x3448
bfc00ff4:	01098021 	addu	s0,t0,t1
bfc00ff8:	3c123b69 	lui	s2,0x3b69
bfc00ffc:	36529052 	ori	s2,s2,0x9052
bfc01000:	1612062e 	bne	s0,s2,bfc028bc <inst_error>
bfc01004:	00000000 	nop
bfc01008:	3c08b99a 	lui	t0,0xb99a
bfc0100c:	35082cc0 	ori	t0,t0,0x2cc0
bfc01010:	3c09ffaf 	lui	t1,0xffaf
bfc01014:	3529bdd2 	ori	t1,t1,0xbdd2
bfc01018:	01098021 	addu	s0,t0,t1
bfc0101c:	3c12b949 	lui	s2,0xb949
bfc01020:	3652ea92 	ori	s2,s2,0xea92
bfc01024:	16120625 	bne	s0,s2,bfc028bc <inst_error>
bfc01028:	00000000 	nop
bfc0102c:	3c089e85 	lui	t0,0x9e85
bfc01030:	35080500 	ori	t0,t0,0x500
bfc01034:	3c09aa9a 	lui	t1,0xaa9a
bfc01038:	3529e1e8 	ori	t1,t1,0xe1e8
bfc0103c:	01098021 	addu	s0,t0,t1
bfc01040:	3c12491f 	lui	s2,0x491f
bfc01044:	3652e6e8 	ori	s2,s2,0xe6e8
bfc01048:	1612061c 	bne	s0,s2,bfc028bc <inst_error>
bfc0104c:	00000000 	nop
bfc01050:	3c089c93 	lui	t0,0x9c93
bfc01054:	3508a580 	ori	t0,t0,0xa580
bfc01058:	3c09ce1e 	lui	t1,0xce1e
bfc0105c:	3529bcd8 	ori	t1,t1,0xbcd8
bfc01060:	01098021 	addu	s0,t0,t1
bfc01064:	3c126ab2 	lui	s2,0x6ab2
bfc01068:	36526258 	ori	s2,s2,0x6258
bfc0106c:	16120613 	bne	s0,s2,bfc028bc <inst_error>
bfc01070:	00000000 	nop
bfc01074:	3c08f1ad 	lui	t0,0xf1ad
bfc01078:	35083312 	ori	t0,t0,0x3312
bfc0107c:	3c09994f 	lui	t1,0x994f
bfc01080:	3529fae3 	ori	t1,t1,0xfae3
bfc01084:	01098021 	addu	s0,t0,t1
bfc01088:	3c128afd 	lui	s2,0x8afd
bfc0108c:	36522df5 	ori	s2,s2,0x2df5
bfc01090:	1612060a 	bne	s0,s2,bfc028bc <inst_error>
bfc01094:	00000000 	nop
bfc01098:	3c0845ed 	lui	t0,0x45ed
bfc0109c:	35083365 	ori	t0,t0,0x3365
bfc010a0:	3c0979e3 	lui	t1,0x79e3
bfc010a4:	35293cb8 	ori	t1,t1,0x3cb8
bfc010a8:	01098021 	addu	s0,t0,t1
bfc010ac:	3c12bfd0 	lui	s2,0xbfd0
bfc010b0:	3652701d 	ori	s2,s2,0x701d
bfc010b4:	16120601 	bne	s0,s2,bfc028bc <inst_error>
bfc010b8:	00000000 	nop
bfc010bc:	3c08c42c 	lui	t0,0xc42c
bfc010c0:	35083098 	ori	t0,t0,0x3098
bfc010c4:	3c09d034 	lui	t1,0xd034
bfc010c8:	352947f0 	ori	t1,t1,0x47f0
bfc010cc:	01098021 	addu	s0,t0,t1
bfc010d0:	3c129460 	lui	s2,0x9460
bfc010d4:	36527888 	ori	s2,s2,0x7888
bfc010d8:	161205f8 	bne	s0,s2,bfc028bc <inst_error>
bfc010dc:	00000000 	nop
bfc010e0:	3c085087 	lui	t0,0x5087
bfc010e4:	35089fe8 	ori	t0,t0,0x9fe8
bfc010e8:	3c0995c0 	lui	t1,0x95c0
bfc010ec:	3529e370 	ori	t1,t1,0xe370
bfc010f0:	01098021 	addu	s0,t0,t1
bfc010f4:	3c12e648 	lui	s2,0xe648
bfc010f8:	36528358 	ori	s2,s2,0x8358
bfc010fc:	161205ef 	bne	s0,s2,bfc028bc <inst_error>
bfc01100:	00000000 	nop
bfc01104:	3c08d93f 	lui	t0,0xd93f
bfc01108:	35086f71 	ori	t0,t0,0x6f71
bfc0110c:	3c097a15 	lui	t1,0x7a15
bfc01110:	3529abe4 	ori	t1,t1,0xabe4
bfc01114:	01098021 	addu	s0,t0,t1
bfc01118:	3c125355 	lui	s2,0x5355
bfc0111c:	36521b55 	ori	s2,s2,0x1b55
bfc01120:	161205e6 	bne	s0,s2,bfc028bc <inst_error>
bfc01124:	00000000 	nop
bfc01128:	3c08e3e1 	lui	t0,0xe3e1
bfc0112c:	35080968 	ori	t0,t0,0x968
bfc01130:	3c0925fb 	lui	t1,0x25fb
bfc01134:	352921c0 	ori	t1,t1,0x21c0
bfc01138:	01098021 	addu	s0,t0,t1
bfc0113c:	3c1209dc 	lui	s2,0x9dc
bfc01140:	36522b28 	ori	s2,s2,0x2b28
bfc01144:	161205dd 	bne	s0,s2,bfc028bc <inst_error>
bfc01148:	00000000 	nop
bfc0114c:	3c083a37 	lui	t0,0x3a37
bfc01150:	3508fca2 	ori	t0,t0,0xfca2
bfc01154:	3c09cd84 	lui	t1,0xcd84
bfc01158:	3529d118 	ori	t1,t1,0xd118
bfc0115c:	01098021 	addu	s0,t0,t1
bfc01160:	3c1207bc 	lui	s2,0x7bc
bfc01164:	3652cdba 	ori	s2,s2,0xcdba
bfc01168:	161205d4 	bne	s0,s2,bfc028bc <inst_error>
bfc0116c:	00000000 	nop
bfc01170:	3c0866f0 	lui	t0,0x66f0
bfc01174:	3508d6e0 	ori	t0,t0,0xd6e0
bfc01178:	3c098545 	lui	t1,0x8545
bfc0117c:	3529d310 	ori	t1,t1,0xd310
bfc01180:	01098021 	addu	s0,t0,t1
bfc01184:	3c12ec36 	lui	s2,0xec36
bfc01188:	3652a9f0 	ori	s2,s2,0xa9f0
bfc0118c:	161205cb 	bne	s0,s2,bfc028bc <inst_error>
bfc01190:	00000000 	nop
bfc01194:	3c0865dc 	lui	t0,0x65dc
bfc01198:	35080660 	ori	t0,t0,0x660
bfc0119c:	3c090c8a 	lui	t1,0xc8a
bfc011a0:	3529355a 	ori	t1,t1,0x355a
bfc011a4:	01098021 	addu	s0,t0,t1
bfc011a8:	3c127266 	lui	s2,0x7266
bfc011ac:	36523bba 	ori	s2,s2,0x3bba
bfc011b0:	161205c2 	bne	s0,s2,bfc028bc <inst_error>
bfc011b4:	00000000 	nop
bfc011b8:	3c088f68 	lui	t0,0x8f68
bfc011bc:	35082a20 	ori	t0,t0,0x2a20
bfc011c0:	3c090d2f 	lui	t1,0xd2f
bfc011c4:	352996a0 	ori	t1,t1,0x96a0
bfc011c8:	01098021 	addu	s0,t0,t1
bfc011cc:	3c129c97 	lui	s2,0x9c97
bfc011d0:	3652c0c0 	ori	s2,s2,0xc0c0
bfc011d4:	161205b9 	bne	s0,s2,bfc028bc <inst_error>
bfc011d8:	00000000 	nop
bfc011dc:	3c08fd43 	lui	t0,0xfd43
bfc011e0:	35084850 	ori	t0,t0,0x4850
bfc011e4:	3c09d93a 	lui	t1,0xd93a
bfc011e8:	352985f4 	ori	t1,t1,0x85f4
bfc011ec:	01098021 	addu	s0,t0,t1
bfc011f0:	3c12d67d 	lui	s2,0xd67d
bfc011f4:	3652ce44 	ori	s2,s2,0xce44
bfc011f8:	161205b0 	bne	s0,s2,bfc028bc <inst_error>
bfc011fc:	00000000 	nop
bfc01200:	3c088727 	lui	t0,0x8727
bfc01204:	3508cc00 	ori	t0,t0,0xcc00
bfc01208:	3c092f98 	lui	t1,0x2f98
bfc0120c:	3529bb50 	ori	t1,t1,0xbb50
bfc01210:	01098021 	addu	s0,t0,t1
bfc01214:	3c12b6c0 	lui	s2,0xb6c0
bfc01218:	36528750 	ori	s2,s2,0x8750
bfc0121c:	161205a7 	bne	s0,s2,bfc028bc <inst_error>
bfc01220:	00000000 	nop
bfc01224:	3c08fd25 	lui	t0,0xfd25
bfc01228:	3508a0e0 	ori	t0,t0,0xa0e0
bfc0122c:	3c0950fd 	lui	t1,0x50fd
bfc01230:	3529eb78 	ori	t1,t1,0xeb78
bfc01234:	01098021 	addu	s0,t0,t1
bfc01238:	3c124e23 	lui	s2,0x4e23
bfc0123c:	36528c58 	ori	s2,s2,0x8c58
bfc01240:	1612059e 	bne	s0,s2,bfc028bc <inst_error>
bfc01244:	00000000 	nop
bfc01248:	3c0812fd 	lui	t0,0x12fd
bfc0124c:	3508c140 	ori	t0,t0,0xc140
bfc01250:	3c09a20c 	lui	t1,0xa20c
bfc01254:	35293320 	ori	t1,t1,0x3320
bfc01258:	01098021 	addu	s0,t0,t1
bfc0125c:	3c12b509 	lui	s2,0xb509
bfc01260:	3652f460 	ori	s2,s2,0xf460
bfc01264:	16120595 	bne	s0,s2,bfc028bc <inst_error>
bfc01268:	00000000 	nop
bfc0126c:	3c088206 	lui	t0,0x8206
bfc01270:	35086660 	ori	t0,t0,0x6660
bfc01274:	3c09069b 	lui	t1,0x69b
bfc01278:	352927f4 	ori	t1,t1,0x27f4
bfc0127c:	01098021 	addu	s0,t0,t1
bfc01280:	3c1288a1 	lui	s2,0x88a1
bfc01284:	36528e54 	ori	s2,s2,0x8e54
bfc01288:	1612058c 	bne	s0,s2,bfc028bc <inst_error>
bfc0128c:	00000000 	nop
bfc01290:	3c08b258 	lui	t0,0xb258
bfc01294:	35082bc5 	ori	t0,t0,0x2bc5
bfc01298:	3c09bf74 	lui	t1,0xbf74
bfc0129c:	35296194 	ori	t1,t1,0x6194
bfc012a0:	01098021 	addu	s0,t0,t1
bfc012a4:	3c1271cc 	lui	s2,0x71cc
bfc012a8:	36528d59 	ori	s2,s2,0x8d59
bfc012ac:	16120583 	bne	s0,s2,bfc028bc <inst_error>
bfc012b0:	00000000 	nop
bfc012b4:	3c08b12e 	lui	t0,0xb12e
bfc012b8:	3508f34a 	ori	t0,t0,0xf34a
bfc012bc:	3c09e440 	lui	t1,0xe440
bfc012c0:	35293cd0 	ori	t1,t1,0x3cd0
bfc012c4:	01098021 	addu	s0,t0,t1
bfc012c8:	3c12956f 	lui	s2,0x956f
bfc012cc:	3652301a 	ori	s2,s2,0x301a
bfc012d0:	1612057a 	bne	s0,s2,bfc028bc <inst_error>
bfc012d4:	00000000 	nop
bfc012d8:	3c0808b6 	lui	t0,0x8b6
bfc012dc:	3508f17e 	ori	t0,t0,0xf17e
bfc012e0:	3c095b36 	lui	t1,0x5b36
bfc012e4:	35297160 	ori	t1,t1,0x7160
bfc012e8:	01098021 	addu	s0,t0,t1
bfc012ec:	3c1263ed 	lui	s2,0x63ed
bfc012f0:	365262de 	ori	s2,s2,0x62de
bfc012f4:	16120571 	bne	s0,s2,bfc028bc <inst_error>
bfc012f8:	00000000 	nop
bfc012fc:	3c08b4cd 	lui	t0,0xb4cd
bfc01300:	3508964d 	ori	t0,t0,0x964d
bfc01304:	3c09def9 	lui	t1,0xdef9
bfc01308:	35293dc4 	ori	t1,t1,0x3dc4
bfc0130c:	01098021 	addu	s0,t0,t1
bfc01310:	3c1293c6 	lui	s2,0x93c6
bfc01314:	3652d411 	ori	s2,s2,0xd411
bfc01318:	16120568 	bne	s0,s2,bfc028bc <inst_error>
bfc0131c:	00000000 	nop
bfc01320:	3c08f4f8 	lui	t0,0xf4f8
bfc01324:	35084832 	ori	t0,t0,0x4832
bfc01328:	3c09eb08 	lui	t1,0xeb08
bfc0132c:	3529b4c4 	ori	t1,t1,0xb4c4
bfc01330:	01098021 	addu	s0,t0,t1
bfc01334:	3c12e000 	lui	s2,0xe000
bfc01338:	3652fcf6 	ori	s2,s2,0xfcf6
bfc0133c:	1612055f 	bne	s0,s2,bfc028bc <inst_error>
bfc01340:	00000000 	nop
bfc01344:	3c082bf7 	lui	t0,0x2bf7
bfc01348:	35080600 	ori	t0,t0,0x600
bfc0134c:	3c09a2e5 	lui	t1,0xa2e5
bfc01350:	3529fe6c 	ori	t1,t1,0xfe6c
bfc01354:	01098021 	addu	s0,t0,t1
bfc01358:	3c12cedd 	lui	s2,0xcedd
bfc0135c:	3652046c 	ori	s2,s2,0x46c
bfc01360:	16120556 	bne	s0,s2,bfc028bc <inst_error>
bfc01364:	00000000 	nop
bfc01368:	3c0840c2 	lui	t0,0x40c2
bfc0136c:	3508cf98 	ori	t0,t0,0xcf98
bfc01370:	3c09e106 	lui	t1,0xe106
bfc01374:	35291200 	ori	t1,t1,0x1200
bfc01378:	01098021 	addu	s0,t0,t1
bfc0137c:	3c1221c8 	lui	s2,0x21c8
bfc01380:	3652e198 	ori	s2,s2,0xe198
bfc01384:	1612054d 	bne	s0,s2,bfc028bc <inst_error>
bfc01388:	00000000 	nop
bfc0138c:	3c083f20 	lui	t0,0x3f20
bfc01390:	3508c268 	ori	t0,t0,0xc268
bfc01394:	3c09855a 	lui	t1,0x855a
bfc01398:	3529f7e0 	ori	t1,t1,0xf7e0
bfc0139c:	01098021 	addu	s0,t0,t1
bfc013a0:	3c12c47b 	lui	s2,0xc47b
bfc013a4:	3652ba48 	ori	s2,s2,0xba48
bfc013a8:	16120544 	bne	s0,s2,bfc028bc <inst_error>
bfc013ac:	00000000 	nop
bfc013b0:	3c08ceb2 	lui	t0,0xceb2
bfc013b4:	3508edb2 	ori	t0,t0,0xedb2
bfc013b8:	3c095666 	lui	t1,0x5666
bfc013bc:	3529deb0 	ori	t1,t1,0xdeb0
bfc013c0:	01098021 	addu	s0,t0,t1
bfc013c4:	3c122519 	lui	s2,0x2519
bfc013c8:	3652cc62 	ori	s2,s2,0xcc62
bfc013cc:	1612053b 	bne	s0,s2,bfc028bc <inst_error>
bfc013d0:	00000000 	nop
bfc013d4:	3c08cc68 	lui	t0,0xcc68
bfc013d8:	35089f8e 	ori	t0,t0,0x9f8e
bfc013dc:	3c09ff42 	lui	t1,0xff42
bfc013e0:	352951e2 	ori	t1,t1,0x51e2
bfc013e4:	01098021 	addu	s0,t0,t1
bfc013e8:	3c12cbaa 	lui	s2,0xcbaa
bfc013ec:	3652f170 	ori	s2,s2,0xf170
bfc013f0:	16120532 	bne	s0,s2,bfc028bc <inst_error>
bfc013f4:	00000000 	nop
bfc013f8:	3c08b881 	lui	t0,0xb881
bfc013fc:	35084d99 	ori	t0,t0,0x4d99
bfc01400:	3c09d399 	lui	t1,0xd399
bfc01404:	35290374 	ori	t1,t1,0x374
bfc01408:	01098021 	addu	s0,t0,t1
bfc0140c:	3c128c1a 	lui	s2,0x8c1a
bfc01410:	3652510d 	ori	s2,s2,0x510d
bfc01414:	16120529 	bne	s0,s2,bfc028bc <inst_error>
bfc01418:	00000000 	nop
bfc0141c:	3c08b23c 	lui	t0,0xb23c
bfc01420:	35080b92 	ori	t0,t0,0xb92
bfc01424:	3c0938e3 	lui	t1,0x38e3
bfc01428:	35292b3e 	ori	t1,t1,0x2b3e
bfc0142c:	01098021 	addu	s0,t0,t1
bfc01430:	3c12eb1f 	lui	s2,0xeb1f
bfc01434:	365236d0 	ori	s2,s2,0x36d0
bfc01438:	16120520 	bne	s0,s2,bfc028bc <inst_error>
bfc0143c:	00000000 	nop
bfc01440:	3c08bd47 	lui	t0,0xbd47
bfc01444:	3508a8d8 	ori	t0,t0,0xa8d8
bfc01448:	3c093ee9 	lui	t1,0x3ee9
bfc0144c:	3529b870 	ori	t1,t1,0xb870
bfc01450:	01098021 	addu	s0,t0,t1
bfc01454:	3c12fc31 	lui	s2,0xfc31
bfc01458:	36526148 	ori	s2,s2,0x6148
bfc0145c:	16120517 	bne	s0,s2,bfc028bc <inst_error>
bfc01460:	00000000 	nop
bfc01464:	3c08e1ef 	lui	t0,0xe1ef
bfc01468:	3508fd20 	ori	t0,t0,0xfd20
bfc0146c:	3c091387 	lui	t1,0x1387
bfc01470:	3529e740 	ori	t1,t1,0xe740
bfc01474:	01098021 	addu	s0,t0,t1
bfc01478:	3c12f577 	lui	s2,0xf577
bfc0147c:	3652e460 	ori	s2,s2,0xe460
bfc01480:	1612050e 	bne	s0,s2,bfc028bc <inst_error>
bfc01484:	00000000 	nop
bfc01488:	3c08e1b0 	lui	t0,0xe1b0
bfc0148c:	350874ac 	ori	t0,t0,0x74ac
bfc01490:	3c0918c8 	lui	t1,0x18c8
bfc01494:	35293c12 	ori	t1,t1,0x3c12
bfc01498:	01098021 	addu	s0,t0,t1
bfc0149c:	3c12fa78 	lui	s2,0xfa78
bfc014a0:	3652b0be 	ori	s2,s2,0xb0be
bfc014a4:	16120505 	bne	s0,s2,bfc028bc <inst_error>
bfc014a8:	00000000 	nop
bfc014ac:	3c08f17a 	lui	t0,0xf17a
bfc014b0:	35081890 	ori	t0,t0,0x1890
bfc014b4:	3c094a03 	lui	t1,0x4a03
bfc014b8:	35294a3f 	ori	t1,t1,0x4a3f
bfc014bc:	01098021 	addu	s0,t0,t1
bfc014c0:	3c123b7d 	lui	s2,0x3b7d
bfc014c4:	365262cf 	ori	s2,s2,0x62cf
bfc014c8:	161204fc 	bne	s0,s2,bfc028bc <inst_error>
bfc014cc:	00000000 	nop
bfc014d0:	3c080911 	lui	t0,0x911
bfc014d4:	35080120 	ori	t0,t0,0x120
bfc014d8:	3c097297 	lui	t1,0x7297
bfc014dc:	352960f4 	ori	t1,t1,0x60f4
bfc014e0:	01098021 	addu	s0,t0,t1
bfc014e4:	3c127ba8 	lui	s2,0x7ba8
bfc014e8:	36526214 	ori	s2,s2,0x6214
bfc014ec:	161204f3 	bne	s0,s2,bfc028bc <inst_error>
bfc014f0:	00000000 	nop
bfc014f4:	3c08586f 	lui	t0,0x586f
bfc014f8:	35081834 	ori	t0,t0,0x1834
bfc014fc:	3c09f9c7 	lui	t1,0xf9c7
bfc01500:	3529ecc4 	ori	t1,t1,0xecc4
bfc01504:	01098021 	addu	s0,t0,t1
bfc01508:	3c125237 	lui	s2,0x5237
bfc0150c:	365204f8 	ori	s2,s2,0x4f8
bfc01510:	161204ea 	bne	s0,s2,bfc028bc <inst_error>
bfc01514:	00000000 	nop
bfc01518:	3c0831f3 	lui	t0,0x31f3
bfc0151c:	35086e80 	ori	t0,t0,0x6e80
bfc01520:	3c096b47 	lui	t1,0x6b47
bfc01524:	35299f40 	ori	t1,t1,0x9f40
bfc01528:	01098021 	addu	s0,t0,t1
bfc0152c:	3c129d3b 	lui	s2,0x9d3b
bfc01530:	36520dc0 	ori	s2,s2,0xdc0
bfc01534:	161204e1 	bne	s0,s2,bfc028bc <inst_error>
bfc01538:	00000000 	nop
bfc0153c:	3c084358 	lui	t0,0x4358
bfc01540:	3508a85e 	ori	t0,t0,0xa85e
bfc01544:	3c095ccf 	lui	t1,0x5ccf
bfc01548:	35294f60 	ori	t1,t1,0x4f60
bfc0154c:	01098021 	addu	s0,t0,t1
bfc01550:	3c12a027 	lui	s2,0xa027
bfc01554:	3652f7be 	ori	s2,s2,0xf7be
bfc01558:	161204d8 	bne	s0,s2,bfc028bc <inst_error>
bfc0155c:	00000000 	nop
bfc01560:	3c08269f 	lui	t0,0x269f
bfc01564:	35084ca0 	ori	t0,t0,0x4ca0
bfc01568:	3c091b98 	lui	t1,0x1b98
bfc0156c:	3529fa12 	ori	t1,t1,0xfa12
bfc01570:	01098021 	addu	s0,t0,t1
bfc01574:	3c124238 	lui	s2,0x4238
bfc01578:	365246b2 	ori	s2,s2,0x46b2
bfc0157c:	161204cf 	bne	s0,s2,bfc028bc <inst_error>
bfc01580:	00000000 	nop
bfc01584:	3c08c260 	lui	t0,0xc260
bfc01588:	35089300 	ori	t0,t0,0x9300
bfc0158c:	3c095c18 	lui	t1,0x5c18
bfc01590:	3529f700 	ori	t1,t1,0xf700
bfc01594:	01098021 	addu	s0,t0,t1
bfc01598:	3c121e79 	lui	s2,0x1e79
bfc0159c:	36528a00 	ori	s2,s2,0x8a00
bfc015a0:	161204c6 	bne	s0,s2,bfc028bc <inst_error>
bfc015a4:	00000000 	nop
bfc015a8:	3c081d74 	lui	t0,0x1d74
bfc015ac:	350850e0 	ori	t0,t0,0x50e0
bfc015b0:	3c0999e3 	lui	t1,0x99e3
bfc015b4:	3529ba00 	ori	t1,t1,0xba00
bfc015b8:	01098021 	addu	s0,t0,t1
bfc015bc:	3c12b758 	lui	s2,0xb758
bfc015c0:	36520ae0 	ori	s2,s2,0xae0
bfc015c4:	161204bd 	bne	s0,s2,bfc028bc <inst_error>
bfc015c8:	00000000 	nop
bfc015cc:	3c08d9c6 	lui	t0,0xd9c6
bfc015d0:	35088800 	ori	t0,t0,0x8800
bfc015d4:	3c094cb1 	lui	t1,0x4cb1
bfc015d8:	35299f48 	ori	t1,t1,0x9f48
bfc015dc:	01098021 	addu	s0,t0,t1
bfc015e0:	3c122678 	lui	s2,0x2678
bfc015e4:	36522748 	ori	s2,s2,0x2748
bfc015e8:	161204b4 	bne	s0,s2,bfc028bc <inst_error>
bfc015ec:	00000000 	nop
bfc015f0:	3c087735 	lui	t0,0x7735
bfc015f4:	35081304 	ori	t0,t0,0x1304
bfc015f8:	3c09d75d 	lui	t1,0xd75d
bfc015fc:	35299e58 	ori	t1,t1,0x9e58
bfc01600:	01098021 	addu	s0,t0,t1
bfc01604:	3c124e92 	lui	s2,0x4e92
bfc01608:	3652b15c 	ori	s2,s2,0xb15c
bfc0160c:	161204ab 	bne	s0,s2,bfc028bc <inst_error>
bfc01610:	00000000 	nop
bfc01614:	3c081f02 	lui	t0,0x1f02
bfc01618:	3508aa48 	ori	t0,t0,0xaa48
bfc0161c:	3c09b234 	lui	t1,0xb234
bfc01620:	35294e6f 	ori	t1,t1,0x4e6f
bfc01624:	01098021 	addu	s0,t0,t1
bfc01628:	3c12d136 	lui	s2,0xd136
bfc0162c:	3652f8b7 	ori	s2,s2,0xf8b7
bfc01630:	161204a2 	bne	s0,s2,bfc028bc <inst_error>
bfc01634:	00000000 	nop
bfc01638:	3c08faf8 	lui	t0,0xfaf8
bfc0163c:	3508daa8 	ori	t0,t0,0xdaa8
bfc01640:	3c091012 	lui	t1,0x1012
bfc01644:	3529ff56 	ori	t1,t1,0xff56
bfc01648:	01098021 	addu	s0,t0,t1
bfc0164c:	3c120b0b 	lui	s2,0xb0b
bfc01650:	3652d9fe 	ori	s2,s2,0xd9fe
bfc01654:	16120499 	bne	s0,s2,bfc028bc <inst_error>
bfc01658:	00000000 	nop
bfc0165c:	3c08ac34 	lui	t0,0xac34
bfc01660:	3508488e 	ori	t0,t0,0x488e
bfc01664:	3c09327a 	lui	t1,0x327a
bfc01668:	352924f6 	ori	t1,t1,0x24f6
bfc0166c:	01098021 	addu	s0,t0,t1
bfc01670:	3c12deae 	lui	s2,0xdeae
bfc01674:	36526d84 	ori	s2,s2,0x6d84
bfc01678:	16120490 	bne	s0,s2,bfc028bc <inst_error>
bfc0167c:	00000000 	nop
bfc01680:	3c086af4 	lui	t0,0x6af4
bfc01684:	3508d9b0 	ori	t0,t0,0xd9b0
bfc01688:	3c095b15 	lui	t1,0x5b15
bfc0168c:	35291a50 	ori	t1,t1,0x1a50
bfc01690:	01098021 	addu	s0,t0,t1
bfc01694:	3c12c609 	lui	s2,0xc609
bfc01698:	3652f400 	ori	s2,s2,0xf400
bfc0169c:	16120487 	bne	s0,s2,bfc028bc <inst_error>
bfc016a0:	00000000 	nop
bfc016a4:	3c089746 	lui	t0,0x9746
bfc016a8:	35080a00 	ori	t0,t0,0xa00
bfc016ac:	3c093f6a 	lui	t1,0x3f6a
bfc016b0:	3529497c 	ori	t1,t1,0x497c
bfc016b4:	01098021 	addu	s0,t0,t1
bfc016b8:	3c12d6b0 	lui	s2,0xd6b0
bfc016bc:	3652537c 	ori	s2,s2,0x537c
bfc016c0:	1612047e 	bne	s0,s2,bfc028bc <inst_error>
bfc016c4:	00000000 	nop
bfc016c8:	3c0862f6 	lui	t0,0x62f6
bfc016cc:	35089554 	ori	t0,t0,0x9554
bfc016d0:	3c09d9a3 	lui	t1,0xd9a3
bfc016d4:	35299340 	ori	t1,t1,0x9340
bfc016d8:	01098021 	addu	s0,t0,t1
bfc016dc:	3c123c9a 	lui	s2,0x3c9a
bfc016e0:	36522894 	ori	s2,s2,0x2894
bfc016e4:	16120475 	bne	s0,s2,bfc028bc <inst_error>
bfc016e8:	00000000 	nop
bfc016ec:	3c0885f5 	lui	t0,0x85f5
bfc016f0:	3508eb44 	ori	t0,t0,0xeb44
bfc016f4:	3c09dc09 	lui	t1,0xdc09
bfc016f8:	35291d1b 	ori	t1,t1,0x1d1b
bfc016fc:	01098021 	addu	s0,t0,t1
bfc01700:	3c1261ff 	lui	s2,0x61ff
bfc01704:	3652085f 	ori	s2,s2,0x85f
bfc01708:	1612046c 	bne	s0,s2,bfc028bc <inst_error>
bfc0170c:	00000000 	nop
bfc01710:	3c080666 	lui	t0,0x666
bfc01714:	3508656c 	ori	t0,t0,0x656c
bfc01718:	3c0981c5 	lui	t1,0x81c5
bfc0171c:	35290a68 	ori	t1,t1,0xa68
bfc01720:	01098021 	addu	s0,t0,t1
bfc01724:	3c12882b 	lui	s2,0x882b
bfc01728:	36526fd4 	ori	s2,s2,0x6fd4
bfc0172c:	16120463 	bne	s0,s2,bfc028bc <inst_error>
bfc01730:	00000000 	nop
bfc01734:	3c086dba 	lui	t0,0x6dba
bfc01738:	35080db2 	ori	t0,t0,0xdb2
bfc0173c:	3c0972cf 	lui	t1,0x72cf
bfc01740:	35297860 	ori	t1,t1,0x7860
bfc01744:	01098021 	addu	s0,t0,t1
bfc01748:	3c12e089 	lui	s2,0xe089
bfc0174c:	36528612 	ori	s2,s2,0x8612
bfc01750:	1612045a 	bne	s0,s2,bfc028bc <inst_error>
bfc01754:	00000000 	nop
bfc01758:	3c08343c 	lui	t0,0x343c
bfc0175c:	35087a64 	ori	t0,t0,0x7a64
bfc01760:	3c09c3ba 	lui	t1,0xc3ba
bfc01764:	352914f6 	ori	t1,t1,0x14f6
bfc01768:	01098021 	addu	s0,t0,t1
bfc0176c:	3c12f7f6 	lui	s2,0xf7f6
bfc01770:	36528f5a 	ori	s2,s2,0x8f5a
bfc01774:	16120451 	bne	s0,s2,bfc028bc <inst_error>
bfc01778:	00000000 	nop
bfc0177c:	3c08d51f 	lui	t0,0xd51f
bfc01780:	35083a5e 	ori	t0,t0,0x3a5e
bfc01784:	3c09492f 	lui	t1,0x492f
bfc01788:	35293fc0 	ori	t1,t1,0x3fc0
bfc0178c:	01098021 	addu	s0,t0,t1
bfc01790:	3c121e4e 	lui	s2,0x1e4e
bfc01794:	36527a1e 	ori	s2,s2,0x7a1e
bfc01798:	16120448 	bne	s0,s2,bfc028bc <inst_error>
bfc0179c:	00000000 	nop
bfc017a0:	3c08ea48 	lui	t0,0xea48
bfc017a4:	35081678 	ori	t0,t0,0x1678
bfc017a8:	3c09e569 	lui	t1,0xe569
bfc017ac:	35291fc8 	ori	t1,t1,0x1fc8
bfc017b0:	01098021 	addu	s0,t0,t1
bfc017b4:	3c12cfb1 	lui	s2,0xcfb1
bfc017b8:	36523640 	ori	s2,s2,0x3640
bfc017bc:	1612043f 	bne	s0,s2,bfc028bc <inst_error>
bfc017c0:	00000000 	nop
bfc017c4:	3c0898e2 	lui	t0,0x98e2
bfc017c8:	350862f0 	ori	t0,t0,0x62f0
bfc017cc:	3c09c509 	lui	t1,0xc509
bfc017d0:	352933ba 	ori	t1,t1,0x33ba
bfc017d4:	01098021 	addu	s0,t0,t1
bfc017d8:	3c125deb 	lui	s2,0x5deb
bfc017dc:	365296aa 	ori	s2,s2,0x96aa
bfc017e0:	16120436 	bne	s0,s2,bfc028bc <inst_error>
bfc017e4:	00000000 	nop
bfc017e8:	3c08d216 	lui	t0,0xd216
bfc017ec:	3508545c 	ori	t0,t0,0x545c
bfc017f0:	3c09758d 	lui	t1,0x758d
bfc017f4:	3529e170 	ori	t1,t1,0xe170
bfc017f8:	01098021 	addu	s0,t0,t1
bfc017fc:	3c1247a4 	lui	s2,0x47a4
bfc01800:	365235cc 	ori	s2,s2,0x35cc
bfc01804:	1612042d 	bne	s0,s2,bfc028bc <inst_error>
bfc01808:	00000000 	nop
bfc0180c:	3c08c9c9 	lui	t0,0xc9c9
bfc01810:	35087b28 	ori	t0,t0,0x7b28
bfc01814:	3c093ebf 	lui	t1,0x3ebf
bfc01818:	3529486b 	ori	t1,t1,0x486b
bfc0181c:	01098021 	addu	s0,t0,t1
bfc01820:	3c120888 	lui	s2,0x888
bfc01824:	3652c393 	ori	s2,s2,0xc393
bfc01828:	16120424 	bne	s0,s2,bfc028bc <inst_error>
bfc0182c:	00000000 	nop
bfc01830:	3c0880f3 	lui	t0,0x80f3
bfc01834:	3508902f 	ori	t0,t0,0x902f
bfc01838:	3c09edf7 	lui	t1,0xedf7
bfc0183c:	352906e8 	ori	t1,t1,0x6e8
bfc01840:	01098021 	addu	s0,t0,t1
bfc01844:	3c126eea 	lui	s2,0x6eea
bfc01848:	36529717 	ori	s2,s2,0x9717
bfc0184c:	1612041b 	bne	s0,s2,bfc028bc <inst_error>
bfc01850:	00000000 	nop
bfc01854:	3c083e19 	lui	t0,0x3e19
bfc01858:	350820bf 	ori	t0,t0,0x20bf
bfc0185c:	3c09ec08 	lui	t1,0xec08
bfc01860:	3529cc9a 	ori	t1,t1,0xcc9a
bfc01864:	01098021 	addu	s0,t0,t1
bfc01868:	3c122a21 	lui	s2,0x2a21
bfc0186c:	3652ed59 	ori	s2,s2,0xed59
bfc01870:	16120412 	bne	s0,s2,bfc028bc <inst_error>
bfc01874:	00000000 	nop
bfc01878:	3c08d9cf 	lui	t0,0xd9cf
bfc0187c:	35087428 	ori	t0,t0,0x7428
bfc01880:	3c096d71 	lui	t1,0x6d71
bfc01884:	3529cf80 	ori	t1,t1,0xcf80
bfc01888:	01098021 	addu	s0,t0,t1
bfc0188c:	3c124741 	lui	s2,0x4741
bfc01890:	365243a8 	ori	s2,s2,0x43a8
bfc01894:	16120409 	bne	s0,s2,bfc028bc <inst_error>
bfc01898:	00000000 	nop
bfc0189c:	3c08701e 	lui	t0,0x701e
bfc018a0:	3508ce78 	ori	t0,t0,0xce78
bfc018a4:	3c09fa83 	lui	t1,0xfa83
bfc018a8:	352976be 	ori	t1,t1,0x76be
bfc018ac:	01098021 	addu	s0,t0,t1
bfc018b0:	3c126aa2 	lui	s2,0x6aa2
bfc018b4:	36524536 	ori	s2,s2,0x4536
bfc018b8:	16120400 	bne	s0,s2,bfc028bc <inst_error>
bfc018bc:	00000000 	nop
bfc018c0:	3c080f9e 	lui	t0,0xf9e
bfc018c4:	3508b000 	ori	t0,t0,0xb000
bfc018c8:	3c09cccc 	lui	t1,0xcccc
bfc018cc:	3529d650 	ori	t1,t1,0xd650
bfc018d0:	01098021 	addu	s0,t0,t1
bfc018d4:	3c12dc6b 	lui	s2,0xdc6b
bfc018d8:	36528650 	ori	s2,s2,0x8650
bfc018dc:	161203f7 	bne	s0,s2,bfc028bc <inst_error>
bfc018e0:	00000000 	nop
bfc018e4:	3c088db5 	lui	t0,0x8db5
bfc018e8:	35080a70 	ori	t0,t0,0xa70
bfc018ec:	3c097645 	lui	t1,0x7645
bfc018f0:	3529d930 	ori	t1,t1,0xd930
bfc018f4:	01098021 	addu	s0,t0,t1
bfc018f8:	3c1203fa 	lui	s2,0x3fa
bfc018fc:	3652e3a0 	ori	s2,s2,0xe3a0
bfc01900:	161203ee 	bne	s0,s2,bfc028bc <inst_error>
bfc01904:	00000000 	nop
bfc01908:	3c08ffa2 	lui	t0,0xffa2
bfc0190c:	35080e80 	ori	t0,t0,0xe80
bfc01910:	3c09d7fb 	lui	t1,0xd7fb
bfc01914:	35296f9a 	ori	t1,t1,0x6f9a
bfc01918:	01098021 	addu	s0,t0,t1
bfc0191c:	3c12d79d 	lui	s2,0xd79d
bfc01920:	36527e1a 	ori	s2,s2,0x7e1a
bfc01924:	161203e5 	bne	s0,s2,bfc028bc <inst_error>
bfc01928:	00000000 	nop
bfc0192c:	3c088256 	lui	t0,0x8256
bfc01930:	35084134 	ori	t0,t0,0x4134
bfc01934:	3c09cbee 	lui	t1,0xcbee
bfc01938:	35292480 	ori	t1,t1,0x2480
bfc0193c:	01098021 	addu	s0,t0,t1
bfc01940:	3c124e44 	lui	s2,0x4e44
bfc01944:	365265b4 	ori	s2,s2,0x65b4
bfc01948:	161203dc 	bne	s0,s2,bfc028bc <inst_error>
bfc0194c:	00000000 	nop
bfc01950:	3c0840d7 	lui	t0,0x40d7
bfc01954:	3508aa06 	ori	t0,t0,0xaa06
bfc01958:	3c09b790 	lui	t1,0xb790
bfc0195c:	35296e3f 	ori	t1,t1,0x6e3f
bfc01960:	01098021 	addu	s0,t0,t1
bfc01964:	3c12f868 	lui	s2,0xf868
bfc01968:	36521845 	ori	s2,s2,0x1845
bfc0196c:	161203d3 	bne	s0,s2,bfc028bc <inst_error>
bfc01970:	00000000 	nop
bfc01974:	3c083b3c 	lui	t0,0x3b3c
bfc01978:	35086148 	ori	t0,t0,0x6148
bfc0197c:	3c09cf90 	lui	t1,0xcf90
bfc01980:	35298cb0 	ori	t1,t1,0x8cb0
bfc01984:	01098021 	addu	s0,t0,t1
bfc01988:	3c120acc 	lui	s2,0xacc
bfc0198c:	3652edf8 	ori	s2,s2,0xedf8
bfc01990:	161203ca 	bne	s0,s2,bfc028bc <inst_error>
bfc01994:	00000000 	nop
bfc01998:	3c0881a1 	lui	t0,0x81a1
bfc0199c:	35087b0f 	ori	t0,t0,0x7b0f
bfc019a0:	3c091f31 	lui	t1,0x1f31
bfc019a4:	35298824 	ori	t1,t1,0x8824
bfc019a8:	01098021 	addu	s0,t0,t1
bfc019ac:	3c12a0d3 	lui	s2,0xa0d3
bfc019b0:	36520333 	ori	s2,s2,0x333
bfc019b4:	161203c1 	bne	s0,s2,bfc028bc <inst_error>
bfc019b8:	00000000 	nop
bfc019bc:	3c08f060 	lui	t0,0xf060
bfc019c0:	35086cb0 	ori	t0,t0,0x6cb0
bfc019c4:	3c09473e 	lui	t1,0x473e
bfc019c8:	35290080 	ori	t1,t1,0x80
bfc019cc:	01098021 	addu	s0,t0,t1
bfc019d0:	3c12379e 	lui	s2,0x379e
bfc019d4:	36526d30 	ori	s2,s2,0x6d30
bfc019d8:	161203b8 	bne	s0,s2,bfc028bc <inst_error>
bfc019dc:	00000000 	nop
bfc019e0:	3c08fa24 	lui	t0,0xfa24
bfc019e4:	3508749a 	ori	t0,t0,0x749a
bfc019e8:	3c09d205 	lui	t1,0xd205
bfc019ec:	3529fddc 	ori	t1,t1,0xfddc
bfc019f0:	01098021 	addu	s0,t0,t1
bfc019f4:	3c12cc2a 	lui	s2,0xcc2a
bfc019f8:	36527276 	ori	s2,s2,0x7276
bfc019fc:	161203af 	bne	s0,s2,bfc028bc <inst_error>
bfc01a00:	00000000 	nop
bfc01a04:	3c08bdbe 	lui	t0,0xbdbe
bfc01a08:	3508b5d0 	ori	t0,t0,0xb5d0
bfc01a0c:	3c09d0eb 	lui	t1,0xd0eb
bfc01a10:	3529dc20 	ori	t1,t1,0xdc20
bfc01a14:	01098021 	addu	s0,t0,t1
bfc01a18:	3c128eaa 	lui	s2,0x8eaa
bfc01a1c:	365291f0 	ori	s2,s2,0x91f0
bfc01a20:	161203a6 	bne	s0,s2,bfc028bc <inst_error>
bfc01a24:	00000000 	nop
bfc01a28:	3c087562 	lui	t0,0x7562
bfc01a2c:	35082881 	ori	t0,t0,0x2881
bfc01a30:	3c091497 	lui	t1,0x1497
bfc01a34:	3529c4f8 	ori	t1,t1,0xc4f8
bfc01a38:	01098021 	addu	s0,t0,t1
bfc01a3c:	3c1289f9 	lui	s2,0x89f9
bfc01a40:	3652ed79 	ori	s2,s2,0xed79
bfc01a44:	1612039d 	bne	s0,s2,bfc028bc <inst_error>
bfc01a48:	00000000 	nop
bfc01a4c:	3c086bfb 	lui	t0,0x6bfb
bfc01a50:	35084c9c 	ori	t0,t0,0x4c9c
bfc01a54:	3c0903fe 	lui	t1,0x3fe
bfc01a58:	352930e8 	ori	t1,t1,0x30e8
bfc01a5c:	01098021 	addu	s0,t0,t1
bfc01a60:	3c126ff9 	lui	s2,0x6ff9
bfc01a64:	36527d84 	ori	s2,s2,0x7d84
bfc01a68:	16120394 	bne	s0,s2,bfc028bc <inst_error>
bfc01a6c:	00000000 	nop
bfc01a70:	3c08ea96 	lui	t0,0xea96
bfc01a74:	35083504 	ori	t0,t0,0x3504
bfc01a78:	3c094383 	lui	t1,0x4383
bfc01a7c:	3529b5fb 	ori	t1,t1,0xb5fb
bfc01a80:	01098021 	addu	s0,t0,t1
bfc01a84:	3c122e19 	lui	s2,0x2e19
bfc01a88:	3652eaff 	ori	s2,s2,0xeaff
bfc01a8c:	1612038b 	bne	s0,s2,bfc028bc <inst_error>
bfc01a90:	00000000 	nop
bfc01a94:	3c089535 	lui	t0,0x9535
bfc01a98:	35080f70 	ori	t0,t0,0xf70
bfc01a9c:	3c09cf89 	lui	t1,0xcf89
bfc01aa0:	352986c0 	ori	t1,t1,0x86c0
bfc01aa4:	01098021 	addu	s0,t0,t1
bfc01aa8:	3c1264be 	lui	s2,0x64be
bfc01aac:	36529630 	ori	s2,s2,0x9630
bfc01ab0:	16120382 	bne	s0,s2,bfc028bc <inst_error>
bfc01ab4:	00000000 	nop
bfc01ab8:	3c081110 	lui	t0,0x1110
bfc01abc:	3508ccc5 	ori	t0,t0,0xccc5
bfc01ac0:	3c093c3f 	lui	t1,0x3c3f
bfc01ac4:	3529aad0 	ori	t1,t1,0xaad0
bfc01ac8:	01098021 	addu	s0,t0,t1
bfc01acc:	3c124d50 	lui	s2,0x4d50
bfc01ad0:	36527795 	ori	s2,s2,0x7795
bfc01ad4:	16120379 	bne	s0,s2,bfc028bc <inst_error>
bfc01ad8:	00000000 	nop
bfc01adc:	3c08f9cb 	lui	t0,0xf9cb
bfc01ae0:	3508d880 	ori	t0,t0,0xd880
bfc01ae4:	3c09d2a4 	lui	t1,0xd2a4
bfc01ae8:	35296860 	ori	t1,t1,0x6860
bfc01aec:	01098021 	addu	s0,t0,t1
bfc01af0:	3c12cc70 	lui	s2,0xcc70
bfc01af4:	365240e0 	ori	s2,s2,0x40e0
bfc01af8:	16120370 	bne	s0,s2,bfc028bc <inst_error>
bfc01afc:	00000000 	nop
bfc01b00:	3c08331f 	lui	t0,0x331f
bfc01b04:	3508baad 	ori	t0,t0,0xbaad
bfc01b08:	3c09da68 	lui	t1,0xda68
bfc01b0c:	35294d7c 	ori	t1,t1,0x4d7c
bfc01b10:	01098021 	addu	s0,t0,t1
bfc01b14:	3c120d88 	lui	s2,0xd88
bfc01b18:	36520829 	ori	s2,s2,0x829
bfc01b1c:	16120367 	bne	s0,s2,bfc028bc <inst_error>
bfc01b20:	00000000 	nop
bfc01b24:	3c08d2b8 	lui	t0,0xd2b8
bfc01b28:	3508ede0 	ori	t0,t0,0xede0
bfc01b2c:	3c095991 	lui	t1,0x5991
bfc01b30:	35293c64 	ori	t1,t1,0x3c64
bfc01b34:	01098021 	addu	s0,t0,t1
bfc01b38:	3c122c4a 	lui	s2,0x2c4a
bfc01b3c:	36522a44 	ori	s2,s2,0x2a44
bfc01b40:	1612035e 	bne	s0,s2,bfc028bc <inst_error>
bfc01b44:	00000000 	nop
bfc01b48:	3c08f5fa 	lui	t0,0xf5fa
bfc01b4c:	35085ab0 	ori	t0,t0,0x5ab0
bfc01b50:	3c09fd9e 	lui	t1,0xfd9e
bfc01b54:	35293c64 	ori	t1,t1,0x3c64
bfc01b58:	01098021 	addu	s0,t0,t1
bfc01b5c:	3c12f398 	lui	s2,0xf398
bfc01b60:	36529714 	ori	s2,s2,0x9714
bfc01b64:	16120355 	bne	s0,s2,bfc028bc <inst_error>
bfc01b68:	00000000 	nop
bfc01b6c:	3c08b8b2 	lui	t0,0xb8b2
bfc01b70:	350858ec 	ori	t0,t0,0x58ec
bfc01b74:	3c094fec 	lui	t1,0x4fec
bfc01b78:	3529d506 	ori	t1,t1,0xd506
bfc01b7c:	01098021 	addu	s0,t0,t1
bfc01b80:	3c12089f 	lui	s2,0x89f
bfc01b84:	36522df2 	ori	s2,s2,0x2df2
bfc01b88:	1612034c 	bne	s0,s2,bfc028bc <inst_error>
bfc01b8c:	00000000 	nop
bfc01b90:	3c088583 	lui	t0,0x8583
bfc01b94:	35080497 	ori	t0,t0,0x497
bfc01b98:	3c09f9e1 	lui	t1,0xf9e1
bfc01b9c:	3529917c 	ori	t1,t1,0x917c
bfc01ba0:	01098021 	addu	s0,t0,t1
bfc01ba4:	3c127f64 	lui	s2,0x7f64
bfc01ba8:	36529613 	ori	s2,s2,0x9613
bfc01bac:	16120343 	bne	s0,s2,bfc028bc <inst_error>
bfc01bb0:	00000000 	nop
bfc01bb4:	3c08cf90 	lui	t0,0xcf90
bfc01bb8:	35088d90 	ori	t0,t0,0x8d90
bfc01bbc:	3c096cfe 	lui	t1,0x6cfe
bfc01bc0:	35293f0e 	ori	t1,t1,0x3f0e
bfc01bc4:	01098021 	addu	s0,t0,t1
bfc01bc8:	3c123c8e 	lui	s2,0x3c8e
bfc01bcc:	3652cc9e 	ori	s2,s2,0xcc9e
bfc01bd0:	1612033a 	bne	s0,s2,bfc028bc <inst_error>
bfc01bd4:	00000000 	nop
bfc01bd8:	3c084ab7 	lui	t0,0x4ab7
bfc01bdc:	3508f3b1 	ori	t0,t0,0xf3b1
bfc01be0:	3c092edd 	lui	t1,0x2edd
bfc01be4:	35293206 	ori	t1,t1,0x3206
bfc01be8:	01098021 	addu	s0,t0,t1
bfc01bec:	3c127995 	lui	s2,0x7995
bfc01bf0:	365225b7 	ori	s2,s2,0x25b7
bfc01bf4:	16120331 	bne	s0,s2,bfc028bc <inst_error>
bfc01bf8:	00000000 	nop
bfc01bfc:	3c08d5e4 	lui	t0,0xd5e4
bfc01c00:	3508e264 	ori	t0,t0,0xe264
bfc01c04:	3c09332e 	lui	t1,0x332e
bfc01c08:	3529f640 	ori	t1,t1,0xf640
bfc01c0c:	01098021 	addu	s0,t0,t1
bfc01c10:	3c120913 	lui	s2,0x913
bfc01c14:	3652d8a4 	ori	s2,s2,0xd8a4
bfc01c18:	16120328 	bne	s0,s2,bfc028bc <inst_error>
bfc01c1c:	00000000 	nop
bfc01c20:	3c08d47d 	lui	t0,0xd47d
bfc01c24:	3508d056 	ori	t0,t0,0xd056
bfc01c28:	24090000 	li	t1,0
bfc01c2c:	01098021 	addu	s0,t0,t1
bfc01c30:	3c12d47d 	lui	s2,0xd47d
bfc01c34:	3652d056 	ori	s2,s2,0xd056
bfc01c38:	16120320 	bne	s0,s2,bfc028bc <inst_error>
bfc01c3c:	00000000 	nop
bfc01c40:	3c088b0f 	lui	t0,0x8b0f
bfc01c44:	350875c8 	ori	t0,t0,0x75c8
bfc01c48:	24090000 	li	t1,0
bfc01c4c:	01098021 	addu	s0,t0,t1
bfc01c50:	3c128b0f 	lui	s2,0x8b0f
bfc01c54:	365275c8 	ori	s2,s2,0x75c8
bfc01c58:	16120318 	bne	s0,s2,bfc028bc <inst_error>
bfc01c5c:	00000000 	nop
bfc01c60:	3c083868 	lui	t0,0x3868
bfc01c64:	3508003c 	ori	t0,t0,0x3c
bfc01c68:	24090000 	li	t1,0
bfc01c6c:	01098021 	addu	s0,t0,t1
bfc01c70:	3c123868 	lui	s2,0x3868
bfc01c74:	3652003c 	ori	s2,s2,0x3c
bfc01c78:	16120310 	bne	s0,s2,bfc028bc <inst_error>
bfc01c7c:	00000000 	nop
bfc01c80:	3c08704f 	lui	t0,0x704f
bfc01c84:	350849ba 	ori	t0,t0,0x49ba
bfc01c88:	24090000 	li	t1,0
bfc01c8c:	01098021 	addu	s0,t0,t1
bfc01c90:	3c12704f 	lui	s2,0x704f
bfc01c94:	365249ba 	ori	s2,s2,0x49ba
bfc01c98:	16120308 	bne	s0,s2,bfc028bc <inst_error>
bfc01c9c:	00000000 	nop
bfc01ca0:	3c080d61 	lui	t0,0xd61
bfc01ca4:	3508c550 	ori	t0,t0,0xc550
bfc01ca8:	24090000 	li	t1,0
bfc01cac:	01098021 	addu	s0,t0,t1
bfc01cb0:	3c120d61 	lui	s2,0xd61
bfc01cb4:	3652c550 	ori	s2,s2,0xc550
bfc01cb8:	16120300 	bne	s0,s2,bfc028bc <inst_error>
bfc01cbc:	00000000 	nop
bfc01cc0:	3c087449 	lui	t0,0x7449
bfc01cc4:	3508d018 	ori	t0,t0,0xd018
bfc01cc8:	24090000 	li	t1,0
bfc01ccc:	01098021 	addu	s0,t0,t1
bfc01cd0:	3c127449 	lui	s2,0x7449
bfc01cd4:	3652d018 	ori	s2,s2,0xd018
bfc01cd8:	161202f8 	bne	s0,s2,bfc028bc <inst_error>
bfc01cdc:	00000000 	nop
bfc01ce0:	3c0807f8 	lui	t0,0x7f8
bfc01ce4:	35083e80 	ori	t0,t0,0x3e80
bfc01ce8:	24090000 	li	t1,0
bfc01cec:	01098021 	addu	s0,t0,t1
bfc01cf0:	3c1207f8 	lui	s2,0x7f8
bfc01cf4:	36523e80 	ori	s2,s2,0x3e80
bfc01cf8:	161202f0 	bne	s0,s2,bfc028bc <inst_error>
bfc01cfc:	00000000 	nop
bfc01d00:	3c0800bc 	lui	t0,0xbc
bfc01d04:	35084138 	ori	t0,t0,0x4138
bfc01d08:	24090000 	li	t1,0
bfc01d0c:	01098021 	addu	s0,t0,t1
bfc01d10:	3c1200bc 	lui	s2,0xbc
bfc01d14:	36524138 	ori	s2,s2,0x4138
bfc01d18:	161202e8 	bne	s0,s2,bfc028bc <inst_error>
bfc01d1c:	00000000 	nop
bfc01d20:	3c080fb8 	lui	t0,0xfb8
bfc01d24:	35089778 	ori	t0,t0,0x9778
bfc01d28:	24090000 	li	t1,0
bfc01d2c:	01098021 	addu	s0,t0,t1
bfc01d30:	3c120fb8 	lui	s2,0xfb8
bfc01d34:	36529778 	ori	s2,s2,0x9778
bfc01d38:	161202e0 	bne	s0,s2,bfc028bc <inst_error>
bfc01d3c:	00000000 	nop
bfc01d40:	3c08984f 	lui	t0,0x984f
bfc01d44:	350839b0 	ori	t0,t0,0x39b0
bfc01d48:	24090000 	li	t1,0
bfc01d4c:	01098021 	addu	s0,t0,t1
bfc01d50:	3c12984f 	lui	s2,0x984f
bfc01d54:	365239b0 	ori	s2,s2,0x39b0
bfc01d58:	161202d8 	bne	s0,s2,bfc028bc <inst_error>
bfc01d5c:	00000000 	nop
bfc01d60:	3c08461b 	lui	t0,0x461b
bfc01d64:	3508f48c 	ori	t0,t0,0xf48c
bfc01d68:	24090000 	li	t1,0
bfc01d6c:	01098021 	addu	s0,t0,t1
bfc01d70:	3c12461b 	lui	s2,0x461b
bfc01d74:	3652f48c 	ori	s2,s2,0xf48c
bfc01d78:	161202d0 	bne	s0,s2,bfc028bc <inst_error>
bfc01d7c:	00000000 	nop
bfc01d80:	3c081937 	lui	t0,0x1937
bfc01d84:	35084434 	ori	t0,t0,0x4434
bfc01d88:	24090000 	li	t1,0
bfc01d8c:	01098021 	addu	s0,t0,t1
bfc01d90:	3c121937 	lui	s2,0x1937
bfc01d94:	36524434 	ori	s2,s2,0x4434
bfc01d98:	161202c8 	bne	s0,s2,bfc028bc <inst_error>
bfc01d9c:	00000000 	nop
bfc01da0:	3c0866ed 	lui	t0,0x66ed
bfc01da4:	35088800 	ori	t0,t0,0x8800
bfc01da8:	24090000 	li	t1,0
bfc01dac:	01098021 	addu	s0,t0,t1
bfc01db0:	3c1266ed 	lui	s2,0x66ed
bfc01db4:	36528800 	ori	s2,s2,0x8800
bfc01db8:	161202c0 	bne	s0,s2,bfc028bc <inst_error>
bfc01dbc:	00000000 	nop
bfc01dc0:	3c089ea7 	lui	t0,0x9ea7
bfc01dc4:	350898c0 	ori	t0,t0,0x98c0
bfc01dc8:	24090000 	li	t1,0
bfc01dcc:	01098021 	addu	s0,t0,t1
bfc01dd0:	3c129ea7 	lui	s2,0x9ea7
bfc01dd4:	365298c0 	ori	s2,s2,0x98c0
bfc01dd8:	161202b8 	bne	s0,s2,bfc028bc <inst_error>
bfc01ddc:	00000000 	nop
bfc01de0:	3c08c4ed 	lui	t0,0xc4ed
bfc01de4:	35081ad0 	ori	t0,t0,0x1ad0
bfc01de8:	24090000 	li	t1,0
bfc01dec:	01098021 	addu	s0,t0,t1
bfc01df0:	3c12c4ed 	lui	s2,0xc4ed
bfc01df4:	36521ad0 	ori	s2,s2,0x1ad0
bfc01df8:	161202b0 	bne	s0,s2,bfc028bc <inst_error>
bfc01dfc:	00000000 	nop
bfc01e00:	3c0802f8 	lui	t0,0x2f8
bfc01e04:	3508d6a0 	ori	t0,t0,0xd6a0
bfc01e08:	24090000 	li	t1,0
bfc01e0c:	01098021 	addu	s0,t0,t1
bfc01e10:	3c1202f8 	lui	s2,0x2f8
bfc01e14:	3652d6a0 	ori	s2,s2,0xd6a0
bfc01e18:	161202a8 	bne	s0,s2,bfc028bc <inst_error>
bfc01e1c:	00000000 	nop
bfc01e20:	3c08620a 	lui	t0,0x620a
bfc01e24:	35084c00 	ori	t0,t0,0x4c00
bfc01e28:	24090000 	li	t1,0
bfc01e2c:	01098021 	addu	s0,t0,t1
bfc01e30:	3c12620a 	lui	s2,0x620a
bfc01e34:	36524c00 	ori	s2,s2,0x4c00
bfc01e38:	161202a0 	bne	s0,s2,bfc028bc <inst_error>
bfc01e3c:	00000000 	nop
bfc01e40:	3c085164 	lui	t0,0x5164
bfc01e44:	3508da77 	ori	t0,t0,0xda77
bfc01e48:	24090000 	li	t1,0
bfc01e4c:	01098021 	addu	s0,t0,t1
bfc01e50:	3c125164 	lui	s2,0x5164
bfc01e54:	3652da77 	ori	s2,s2,0xda77
bfc01e58:	16120298 	bne	s0,s2,bfc028bc <inst_error>
bfc01e5c:	00000000 	nop
bfc01e60:	3c08f2b3 	lui	t0,0xf2b3
bfc01e64:	35088680 	ori	t0,t0,0x8680
bfc01e68:	24090000 	li	t1,0
bfc01e6c:	01098021 	addu	s0,t0,t1
bfc01e70:	3c12f2b3 	lui	s2,0xf2b3
bfc01e74:	36528680 	ori	s2,s2,0x8680
bfc01e78:	16120290 	bne	s0,s2,bfc028bc <inst_error>
bfc01e7c:	00000000 	nop
bfc01e80:	3c082e71 	lui	t0,0x2e71
bfc01e84:	3508b71d 	ori	t0,t0,0xb71d
bfc01e88:	24090000 	li	t1,0
bfc01e8c:	01098021 	addu	s0,t0,t1
bfc01e90:	3c122e71 	lui	s2,0x2e71
bfc01e94:	3652b71d 	ori	s2,s2,0xb71d
bfc01e98:	16120288 	bne	s0,s2,bfc028bc <inst_error>
bfc01e9c:	00000000 	nop
bfc01ea0:	3c08bc6d 	lui	t0,0xbc6d
bfc01ea4:	35084870 	ori	t0,t0,0x4870
bfc01ea8:	24090000 	li	t1,0
bfc01eac:	01098021 	addu	s0,t0,t1
bfc01eb0:	3c12bc6d 	lui	s2,0xbc6d
bfc01eb4:	36524870 	ori	s2,s2,0x4870
bfc01eb8:	16120280 	bne	s0,s2,bfc028bc <inst_error>
bfc01ebc:	00000000 	nop
bfc01ec0:	3c087193 	lui	t0,0x7193
bfc01ec4:	35089385 	ori	t0,t0,0x9385
bfc01ec8:	24090000 	li	t1,0
bfc01ecc:	01098021 	addu	s0,t0,t1
bfc01ed0:	3c127193 	lui	s2,0x7193
bfc01ed4:	36529385 	ori	s2,s2,0x9385
bfc01ed8:	16120278 	bne	s0,s2,bfc028bc <inst_error>
bfc01edc:	00000000 	nop
bfc01ee0:	3c08e3f1 	lui	t0,0xe3f1
bfc01ee4:	3508d9c0 	ori	t0,t0,0xd9c0
bfc01ee8:	24090000 	li	t1,0
bfc01eec:	01098021 	addu	s0,t0,t1
bfc01ef0:	3c12e3f1 	lui	s2,0xe3f1
bfc01ef4:	3652d9c0 	ori	s2,s2,0xd9c0
bfc01ef8:	16120270 	bne	s0,s2,bfc028bc <inst_error>
bfc01efc:	00000000 	nop
bfc01f00:	3c080903 	lui	t0,0x903
bfc01f04:	35086a40 	ori	t0,t0,0x6a40
bfc01f08:	24090000 	li	t1,0
bfc01f0c:	01098021 	addu	s0,t0,t1
bfc01f10:	3c120903 	lui	s2,0x903
bfc01f14:	36526a40 	ori	s2,s2,0x6a40
bfc01f18:	16120268 	bne	s0,s2,bfc028bc <inst_error>
bfc01f1c:	00000000 	nop
bfc01f20:	3c086ae8 	lui	t0,0x6ae8
bfc01f24:	35088e14 	ori	t0,t0,0x8e14
bfc01f28:	24090000 	li	t1,0
bfc01f2c:	01098021 	addu	s0,t0,t1
bfc01f30:	3c126ae8 	lui	s2,0x6ae8
bfc01f34:	36528e14 	ori	s2,s2,0x8e14
bfc01f38:	16120260 	bne	s0,s2,bfc028bc <inst_error>
bfc01f3c:	00000000 	nop
bfc01f40:	3c083cdf 	lui	t0,0x3cdf
bfc01f44:	35088f3f 	ori	t0,t0,0x8f3f
bfc01f48:	24090000 	li	t1,0
bfc01f4c:	01098021 	addu	s0,t0,t1
bfc01f50:	3c123cdf 	lui	s2,0x3cdf
bfc01f54:	36528f3f 	ori	s2,s2,0x8f3f
bfc01f58:	16120258 	bne	s0,s2,bfc028bc <inst_error>
bfc01f5c:	00000000 	nop
bfc01f60:	3c08379b 	lui	t0,0x379b
bfc01f64:	3508c4f8 	ori	t0,t0,0xc4f8
bfc01f68:	24090000 	li	t1,0
bfc01f6c:	01098021 	addu	s0,t0,t1
bfc01f70:	3c12379b 	lui	s2,0x379b
bfc01f74:	3652c4f8 	ori	s2,s2,0xc4f8
bfc01f78:	16120250 	bne	s0,s2,bfc028bc <inst_error>
bfc01f7c:	00000000 	nop
bfc01f80:	3c08092f 	lui	t0,0x92f
bfc01f84:	3508ade4 	ori	t0,t0,0xade4
bfc01f88:	24090000 	li	t1,0
bfc01f8c:	01098021 	addu	s0,t0,t1
bfc01f90:	3c12092f 	lui	s2,0x92f
bfc01f94:	3652ade4 	ori	s2,s2,0xade4
bfc01f98:	16120248 	bne	s0,s2,bfc028bc <inst_error>
bfc01f9c:	00000000 	nop
bfc01fa0:	3c0816bc 	lui	t0,0x16bc
bfc01fa4:	350825f1 	ori	t0,t0,0x25f1
bfc01fa8:	24090000 	li	t1,0
bfc01fac:	01098021 	addu	s0,t0,t1
bfc01fb0:	3c1216bc 	lui	s2,0x16bc
bfc01fb4:	365225f1 	ori	s2,s2,0x25f1
bfc01fb8:	16120240 	bne	s0,s2,bfc028bc <inst_error>
bfc01fbc:	00000000 	nop
bfc01fc0:	3c081158 	lui	t0,0x1158
bfc01fc4:	3508f422 	ori	t0,t0,0xf422
bfc01fc8:	24090000 	li	t1,0
bfc01fcc:	01098021 	addu	s0,t0,t1
bfc01fd0:	3c121158 	lui	s2,0x1158
bfc01fd4:	3652f422 	ori	s2,s2,0xf422
bfc01fd8:	16120238 	bne	s0,s2,bfc028bc <inst_error>
bfc01fdc:	00000000 	nop
bfc01fe0:	3c08d978 	lui	t0,0xd978
bfc01fe4:	3508731c 	ori	t0,t0,0x731c
bfc01fe8:	24090000 	li	t1,0
bfc01fec:	01098021 	addu	s0,t0,t1
bfc01ff0:	3c12d978 	lui	s2,0xd978
bfc01ff4:	3652731c 	ori	s2,s2,0x731c
bfc01ff8:	16120230 	bne	s0,s2,bfc028bc <inst_error>
bfc01ffc:	00000000 	nop
bfc02000:	3c080c76 	lui	t0,0xc76
bfc02004:	350877c4 	ori	t0,t0,0x77c4
bfc02008:	24090000 	li	t1,0
bfc0200c:	01098021 	addu	s0,t0,t1
bfc02010:	3c120c76 	lui	s2,0xc76
bfc02014:	365277c4 	ori	s2,s2,0x77c4
bfc02018:	16120228 	bne	s0,s2,bfc028bc <inst_error>
bfc0201c:	00000000 	nop
bfc02020:	3c087520 	lui	t0,0x7520
bfc02024:	3508d795 	ori	t0,t0,0xd795
bfc02028:	24090000 	li	t1,0
bfc0202c:	01098021 	addu	s0,t0,t1
bfc02030:	3c127520 	lui	s2,0x7520
bfc02034:	3652d795 	ori	s2,s2,0xd795
bfc02038:	16120220 	bne	s0,s2,bfc028bc <inst_error>
bfc0203c:	00000000 	nop
bfc02040:	3c088a9b 	lui	t0,0x8a9b
bfc02044:	35088610 	ori	t0,t0,0x8610
bfc02048:	24090000 	li	t1,0
bfc0204c:	01098021 	addu	s0,t0,t1
bfc02050:	3c128a9b 	lui	s2,0x8a9b
bfc02054:	36528610 	ori	s2,s2,0x8610
bfc02058:	16120218 	bne	s0,s2,bfc028bc <inst_error>
bfc0205c:	00000000 	nop
bfc02060:	3c08a3ba 	lui	t0,0xa3ba
bfc02064:	35086c16 	ori	t0,t0,0x6c16
bfc02068:	24090000 	li	t1,0
bfc0206c:	01098021 	addu	s0,t0,t1
bfc02070:	3c12a3ba 	lui	s2,0xa3ba
bfc02074:	36526c16 	ori	s2,s2,0x6c16
bfc02078:	16120210 	bne	s0,s2,bfc028bc <inst_error>
bfc0207c:	00000000 	nop
bfc02080:	3c08623b 	lui	t0,0x623b
bfc02084:	35085124 	ori	t0,t0,0x5124
bfc02088:	24090000 	li	t1,0
bfc0208c:	01098021 	addu	s0,t0,t1
bfc02090:	3c12623b 	lui	s2,0x623b
bfc02094:	36525124 	ori	s2,s2,0x5124
bfc02098:	16120208 	bne	s0,s2,bfc028bc <inst_error>
bfc0209c:	00000000 	nop
bfc020a0:	3c08b118 	lui	t0,0xb118
bfc020a4:	350823a4 	ori	t0,t0,0x23a4
bfc020a8:	24090000 	li	t1,0
bfc020ac:	01098021 	addu	s0,t0,t1
bfc020b0:	3c12b118 	lui	s2,0xb118
bfc020b4:	365223a4 	ori	s2,s2,0x23a4
bfc020b8:	16120200 	bne	s0,s2,bfc028bc <inst_error>
bfc020bc:	00000000 	nop
bfc020c0:	3c080506 	lui	t0,0x506
bfc020c4:	3508e4b2 	ori	t0,t0,0xe4b2
bfc020c8:	24090000 	li	t1,0
bfc020cc:	01098021 	addu	s0,t0,t1
bfc020d0:	3c120506 	lui	s2,0x506
bfc020d4:	3652e4b2 	ori	s2,s2,0xe4b2
bfc020d8:	161201f8 	bne	s0,s2,bfc028bc <inst_error>
bfc020dc:	00000000 	nop
bfc020e0:	3c081349 	lui	t0,0x1349
bfc020e4:	3508b420 	ori	t0,t0,0xb420
bfc020e8:	24090000 	li	t1,0
bfc020ec:	01098021 	addu	s0,t0,t1
bfc020f0:	3c121349 	lui	s2,0x1349
bfc020f4:	3652b420 	ori	s2,s2,0xb420
bfc020f8:	161201f0 	bne	s0,s2,bfc028bc <inst_error>
bfc020fc:	00000000 	nop
bfc02100:	3c08a020 	lui	t0,0xa020
bfc02104:	3508b050 	ori	t0,t0,0xb050
bfc02108:	24090000 	li	t1,0
bfc0210c:	01098021 	addu	s0,t0,t1
bfc02110:	3c12a020 	lui	s2,0xa020
bfc02114:	3652b050 	ori	s2,s2,0xb050
bfc02118:	161201e8 	bne	s0,s2,bfc028bc <inst_error>
bfc0211c:	00000000 	nop
bfc02120:	3c080d2b 	lui	t0,0xd2b
bfc02124:	35089000 	ori	t0,t0,0x9000
bfc02128:	24090000 	li	t1,0
bfc0212c:	01098021 	addu	s0,t0,t1
bfc02130:	3c120d2b 	lui	s2,0xd2b
bfc02134:	36529000 	ori	s2,s2,0x9000
bfc02138:	161201e0 	bne	s0,s2,bfc028bc <inst_error>
bfc0213c:	00000000 	nop
bfc02140:	3c08ce57 	lui	t0,0xce57
bfc02144:	350843f0 	ori	t0,t0,0x43f0
bfc02148:	24090000 	li	t1,0
bfc0214c:	01098021 	addu	s0,t0,t1
bfc02150:	3c12ce57 	lui	s2,0xce57
bfc02154:	365243f0 	ori	s2,s2,0x43f0
bfc02158:	161201d8 	bne	s0,s2,bfc028bc <inst_error>
bfc0215c:	00000000 	nop
bfc02160:	3c081d53 	lui	t0,0x1d53
bfc02164:	3508803c 	ori	t0,t0,0x803c
bfc02168:	24090000 	li	t1,0
bfc0216c:	01098021 	addu	s0,t0,t1
bfc02170:	3c121d53 	lui	s2,0x1d53
bfc02174:	3652803c 	ori	s2,s2,0x803c
bfc02178:	161201d0 	bne	s0,s2,bfc028bc <inst_error>
bfc0217c:	00000000 	nop
bfc02180:	3c088134 	lui	t0,0x8134
bfc02184:	35086372 	ori	t0,t0,0x6372
bfc02188:	24090000 	li	t1,0
bfc0218c:	01098021 	addu	s0,t0,t1
bfc02190:	3c128134 	lui	s2,0x8134
bfc02194:	36526372 	ori	s2,s2,0x6372
bfc02198:	161201c8 	bne	s0,s2,bfc028bc <inst_error>
bfc0219c:	00000000 	nop
bfc021a0:	3c082b2e 	lui	t0,0x2b2e
bfc021a4:	350838c2 	ori	t0,t0,0x38c2
bfc021a8:	24090000 	li	t1,0
bfc021ac:	01098021 	addu	s0,t0,t1
bfc021b0:	3c122b2e 	lui	s2,0x2b2e
bfc021b4:	365238c2 	ori	s2,s2,0x38c2
bfc021b8:	161201c0 	bne	s0,s2,bfc028bc <inst_error>
bfc021bc:	00000000 	nop
bfc021c0:	3c0810f0 	lui	t0,0x10f0
bfc021c4:	3508288a 	ori	t0,t0,0x288a
bfc021c8:	24090000 	li	t1,0
bfc021cc:	01098021 	addu	s0,t0,t1
bfc021d0:	3c1210f0 	lui	s2,0x10f0
bfc021d4:	3652288a 	ori	s2,s2,0x288a
bfc021d8:	161201b8 	bne	s0,s2,bfc028bc <inst_error>
bfc021dc:	00000000 	nop
bfc021e0:	3c08cc43 	lui	t0,0xcc43
bfc021e4:	35088150 	ori	t0,t0,0x8150
bfc021e8:	24090000 	li	t1,0
bfc021ec:	01098021 	addu	s0,t0,t1
bfc021f0:	3c12cc43 	lui	s2,0xcc43
bfc021f4:	36528150 	ori	s2,s2,0x8150
bfc021f8:	161201b0 	bne	s0,s2,bfc028bc <inst_error>
bfc021fc:	00000000 	nop
bfc02200:	3c08e154 	lui	t0,0xe154
bfc02204:	3508b4b4 	ori	t0,t0,0xb4b4
bfc02208:	24090000 	li	t1,0
bfc0220c:	01098021 	addu	s0,t0,t1
bfc02210:	3c12e154 	lui	s2,0xe154
bfc02214:	3652b4b4 	ori	s2,s2,0xb4b4
bfc02218:	161201a8 	bne	s0,s2,bfc028bc <inst_error>
bfc0221c:	00000000 	nop
bfc02220:	3c08a69f 	lui	t0,0xa69f
bfc02224:	35084a7c 	ori	t0,t0,0x4a7c
bfc02228:	24090000 	li	t1,0
bfc0222c:	01098021 	addu	s0,t0,t1
bfc02230:	3c12a69f 	lui	s2,0xa69f
bfc02234:	36524a7c 	ori	s2,s2,0x4a7c
bfc02238:	161201a0 	bne	s0,s2,bfc028bc <inst_error>
bfc0223c:	00000000 	nop
bfc02240:	3c08642d 	lui	t0,0x642d
bfc02244:	35088a00 	ori	t0,t0,0x8a00
bfc02248:	24090000 	li	t1,0
bfc0224c:	01098021 	addu	s0,t0,t1
bfc02250:	3c12642d 	lui	s2,0x642d
bfc02254:	36528a00 	ori	s2,s2,0x8a00
bfc02258:	16120198 	bne	s0,s2,bfc028bc <inst_error>
bfc0225c:	00000000 	nop
bfc02260:	24080000 	li	t0,0
bfc02264:	3c099ab8 	lui	t1,0x9ab8
bfc02268:	352976f5 	ori	t1,t1,0x76f5
bfc0226c:	01098021 	addu	s0,t0,t1
bfc02270:	3c129ab8 	lui	s2,0x9ab8
bfc02274:	365276f5 	ori	s2,s2,0x76f5
bfc02278:	16120190 	bne	s0,s2,bfc028bc <inst_error>
bfc0227c:	00000000 	nop
bfc02280:	24080000 	li	t0,0
bfc02284:	3c094fbe 	lui	t1,0x4fbe
bfc02288:	35299680 	ori	t1,t1,0x9680
bfc0228c:	01098021 	addu	s0,t0,t1
bfc02290:	3c124fbe 	lui	s2,0x4fbe
bfc02294:	36529680 	ori	s2,s2,0x9680
bfc02298:	16120188 	bne	s0,s2,bfc028bc <inst_error>
bfc0229c:	00000000 	nop
bfc022a0:	24080000 	li	t0,0
bfc022a4:	3c099029 	lui	t1,0x9029
bfc022a8:	35292684 	ori	t1,t1,0x2684
bfc022ac:	01098021 	addu	s0,t0,t1
bfc022b0:	3c129029 	lui	s2,0x9029
bfc022b4:	36522684 	ori	s2,s2,0x2684
bfc022b8:	16120180 	bne	s0,s2,bfc028bc <inst_error>
bfc022bc:	00000000 	nop
bfc022c0:	24080000 	li	t0,0
bfc022c4:	3c091c79 	lui	t1,0x1c79
bfc022c8:	3529b23e 	ori	t1,t1,0xb23e
bfc022cc:	01098021 	addu	s0,t0,t1
bfc022d0:	3c121c79 	lui	s2,0x1c79
bfc022d4:	3652b23e 	ori	s2,s2,0xb23e
bfc022d8:	16120178 	bne	s0,s2,bfc028bc <inst_error>
bfc022dc:	00000000 	nop
bfc022e0:	24080000 	li	t0,0
bfc022e4:	3c099521 	lui	t1,0x9521
bfc022e8:	35296b71 	ori	t1,t1,0x6b71
bfc022ec:	01098021 	addu	s0,t0,t1
bfc022f0:	3c129521 	lui	s2,0x9521
bfc022f4:	36526b71 	ori	s2,s2,0x6b71
bfc022f8:	16120170 	bne	s0,s2,bfc028bc <inst_error>
bfc022fc:	00000000 	nop
bfc02300:	24080000 	li	t0,0
bfc02304:	3c09c857 	lui	t1,0xc857
bfc02308:	35299b06 	ori	t1,t1,0x9b06
bfc0230c:	01098021 	addu	s0,t0,t1
bfc02310:	3c12c857 	lui	s2,0xc857
bfc02314:	36529b06 	ori	s2,s2,0x9b06
bfc02318:	16120168 	bne	s0,s2,bfc028bc <inst_error>
bfc0231c:	00000000 	nop
bfc02320:	24080000 	li	t0,0
bfc02324:	3c09ada9 	lui	t1,0xada9
bfc02328:	352914bd 	ori	t1,t1,0x14bd
bfc0232c:	01098021 	addu	s0,t0,t1
bfc02330:	3c12ada9 	lui	s2,0xada9
bfc02334:	365214bd 	ori	s2,s2,0x14bd
bfc02338:	16120160 	bne	s0,s2,bfc028bc <inst_error>
bfc0233c:	00000000 	nop
bfc02340:	24080000 	li	t0,0
bfc02344:	3c0953e0 	lui	t1,0x53e0
bfc02348:	352975e4 	ori	t1,t1,0x75e4
bfc0234c:	01098021 	addu	s0,t0,t1
bfc02350:	3c1253e0 	lui	s2,0x53e0
bfc02354:	365275e4 	ori	s2,s2,0x75e4
bfc02358:	16120158 	bne	s0,s2,bfc028bc <inst_error>
bfc0235c:	00000000 	nop
bfc02360:	24080000 	li	t0,0
bfc02364:	3c090004 	lui	t1,0x4
bfc02368:	3529faca 	ori	t1,t1,0xfaca
bfc0236c:	01098021 	addu	s0,t0,t1
bfc02370:	3c120004 	lui	s2,0x4
bfc02374:	3652faca 	ori	s2,s2,0xfaca
bfc02378:	16120150 	bne	s0,s2,bfc028bc <inst_error>
bfc0237c:	00000000 	nop
bfc02380:	24080000 	li	t0,0
bfc02384:	3c096d78 	lui	t1,0x6d78
bfc02388:	352951e0 	ori	t1,t1,0x51e0
bfc0238c:	01098021 	addu	s0,t0,t1
bfc02390:	3c126d78 	lui	s2,0x6d78
bfc02394:	365251e0 	ori	s2,s2,0x51e0
bfc02398:	16120148 	bne	s0,s2,bfc028bc <inst_error>
bfc0239c:	00000000 	nop
bfc023a0:	24080000 	li	t0,0
bfc023a4:	3c094ff9 	lui	t1,0x4ff9
bfc023a8:	35294e72 	ori	t1,t1,0x4e72
bfc023ac:	01098021 	addu	s0,t0,t1
bfc023b0:	3c124ff9 	lui	s2,0x4ff9
bfc023b4:	36524e72 	ori	s2,s2,0x4e72
bfc023b8:	16120140 	bne	s0,s2,bfc028bc <inst_error>
bfc023bc:	00000000 	nop
bfc023c0:	24080000 	li	t0,0
bfc023c4:	3c091f8e 	lui	t1,0x1f8e
bfc023c8:	35298cb8 	ori	t1,t1,0x8cb8
bfc023cc:	01098021 	addu	s0,t0,t1
bfc023d0:	3c121f8e 	lui	s2,0x1f8e
bfc023d4:	36528cb8 	ori	s2,s2,0x8cb8
bfc023d8:	16120138 	bne	s0,s2,bfc028bc <inst_error>
bfc023dc:	00000000 	nop
bfc023e0:	24080000 	li	t0,0
bfc023e4:	3c09140f 	lui	t1,0x140f
bfc023e8:	352958d8 	ori	t1,t1,0x58d8
bfc023ec:	01098021 	addu	s0,t0,t1
bfc023f0:	3c12140f 	lui	s2,0x140f
bfc023f4:	365258d8 	ori	s2,s2,0x58d8
bfc023f8:	16120130 	bne	s0,s2,bfc028bc <inst_error>
bfc023fc:	00000000 	nop
bfc02400:	24080000 	li	t0,0
bfc02404:	3c097028 	lui	t1,0x7028
bfc02408:	3529e438 	ori	t1,t1,0xe438
bfc0240c:	01098021 	addu	s0,t0,t1
bfc02410:	3c127028 	lui	s2,0x7028
bfc02414:	3652e438 	ori	s2,s2,0xe438
bfc02418:	16120128 	bne	s0,s2,bfc028bc <inst_error>
bfc0241c:	00000000 	nop
bfc02420:	24080000 	li	t0,0
bfc02424:	3c0906a6 	lui	t1,0x6a6
bfc02428:	3529303c 	ori	t1,t1,0x303c
bfc0242c:	01098021 	addu	s0,t0,t1
bfc02430:	3c1206a6 	lui	s2,0x6a6
bfc02434:	3652303c 	ori	s2,s2,0x303c
bfc02438:	16120120 	bne	s0,s2,bfc028bc <inst_error>
bfc0243c:	00000000 	nop
bfc02440:	24080000 	li	t0,0
bfc02444:	3c097d95 	lui	t1,0x7d95
bfc02448:	3529119a 	ori	t1,t1,0x119a
bfc0244c:	01098021 	addu	s0,t0,t1
bfc02450:	3c127d95 	lui	s2,0x7d95
bfc02454:	3652119a 	ori	s2,s2,0x119a
bfc02458:	16120118 	bne	s0,s2,bfc028bc <inst_error>
bfc0245c:	00000000 	nop
bfc02460:	24080000 	li	t0,0
bfc02464:	3c09d118 	lui	t1,0xd118
bfc02468:	3529e770 	ori	t1,t1,0xe770
bfc0246c:	01098021 	addu	s0,t0,t1
bfc02470:	3c12d118 	lui	s2,0xd118
bfc02474:	3652e770 	ori	s2,s2,0xe770
bfc02478:	16120110 	bne	s0,s2,bfc028bc <inst_error>
bfc0247c:	00000000 	nop
bfc02480:	24080000 	li	t0,0
bfc02484:	3c092d01 	lui	t1,0x2d01
bfc02488:	3529ab00 	ori	t1,t1,0xab00
bfc0248c:	01098021 	addu	s0,t0,t1
bfc02490:	3c122d01 	lui	s2,0x2d01
bfc02494:	3652ab00 	ori	s2,s2,0xab00
bfc02498:	16120108 	bne	s0,s2,bfc028bc <inst_error>
bfc0249c:	00000000 	nop
bfc024a0:	24080000 	li	t0,0
bfc024a4:	3c097ecc 	lui	t1,0x7ecc
bfc024a8:	352979e0 	ori	t1,t1,0x79e0
bfc024ac:	01098021 	addu	s0,t0,t1
bfc024b0:	3c127ecc 	lui	s2,0x7ecc
bfc024b4:	365279e0 	ori	s2,s2,0x79e0
bfc024b8:	16120100 	bne	s0,s2,bfc028bc <inst_error>
bfc024bc:	00000000 	nop
bfc024c0:	24080000 	li	t0,0
bfc024c4:	3c09c9f8 	lui	t1,0xc9f8
bfc024c8:	3529a444 	ori	t1,t1,0xa444
bfc024cc:	01098021 	addu	s0,t0,t1
bfc024d0:	3c12c9f8 	lui	s2,0xc9f8
bfc024d4:	3652a444 	ori	s2,s2,0xa444
bfc024d8:	161200f8 	bne	s0,s2,bfc028bc <inst_error>
bfc024dc:	00000000 	nop
bfc024e0:	24080000 	li	t0,0
bfc024e4:	3c0917be 	lui	t1,0x17be
bfc024e8:	3529fe40 	ori	t1,t1,0xfe40
bfc024ec:	01098021 	addu	s0,t0,t1
bfc024f0:	3c1217be 	lui	s2,0x17be
bfc024f4:	3652fe40 	ori	s2,s2,0xfe40
bfc024f8:	161200f0 	bne	s0,s2,bfc028bc <inst_error>
bfc024fc:	00000000 	nop
bfc02500:	24080000 	li	t0,0
bfc02504:	3c09105d 	lui	t1,0x105d
bfc02508:	35293124 	ori	t1,t1,0x3124
bfc0250c:	01098021 	addu	s0,t0,t1
bfc02510:	3c12105d 	lui	s2,0x105d
bfc02514:	36523124 	ori	s2,s2,0x3124
bfc02518:	161200e8 	bne	s0,s2,bfc028bc <inst_error>
bfc0251c:	00000000 	nop
bfc02520:	24080000 	li	t0,0
bfc02524:	3c0960a5 	lui	t1,0x60a5
bfc02528:	3529ab64 	ori	t1,t1,0xab64
bfc0252c:	01098021 	addu	s0,t0,t1
bfc02530:	3c1260a5 	lui	s2,0x60a5
bfc02534:	3652ab64 	ori	s2,s2,0xab64
bfc02538:	161200e0 	bne	s0,s2,bfc028bc <inst_error>
bfc0253c:	00000000 	nop
bfc02540:	24080000 	li	t0,0
bfc02544:	3c0954a9 	lui	t1,0x54a9
bfc02548:	352909b0 	ori	t1,t1,0x9b0
bfc0254c:	01098021 	addu	s0,t0,t1
bfc02550:	3c1254a9 	lui	s2,0x54a9
bfc02554:	365209b0 	ori	s2,s2,0x9b0
bfc02558:	161200d8 	bne	s0,s2,bfc028bc <inst_error>
bfc0255c:	00000000 	nop
bfc02560:	24080000 	li	t0,0
bfc02564:	3c0907ce 	lui	t1,0x7ce
bfc02568:	3529a9ac 	ori	t1,t1,0xa9ac
bfc0256c:	01098021 	addu	s0,t0,t1
bfc02570:	3c1207ce 	lui	s2,0x7ce
bfc02574:	3652a9ac 	ori	s2,s2,0xa9ac
bfc02578:	161200d0 	bne	s0,s2,bfc028bc <inst_error>
bfc0257c:	00000000 	nop
bfc02580:	24080000 	li	t0,0
bfc02584:	3c091ba4 	lui	t1,0x1ba4
bfc02588:	352959b0 	ori	t1,t1,0x59b0
bfc0258c:	01098021 	addu	s0,t0,t1
bfc02590:	3c121ba4 	lui	s2,0x1ba4
bfc02594:	365259b0 	ori	s2,s2,0x59b0
bfc02598:	161200c8 	bne	s0,s2,bfc028bc <inst_error>
bfc0259c:	00000000 	nop
bfc025a0:	24080000 	li	t0,0
bfc025a4:	3c09e901 	lui	t1,0xe901
bfc025a8:	3529e79c 	ori	t1,t1,0xe79c
bfc025ac:	01098021 	addu	s0,t0,t1
bfc025b0:	3c12e901 	lui	s2,0xe901
bfc025b4:	3652e79c 	ori	s2,s2,0xe79c
bfc025b8:	161200c0 	bne	s0,s2,bfc028bc <inst_error>
bfc025bc:	00000000 	nop
bfc025c0:	24080000 	li	t0,0
bfc025c4:	3c09d094 	lui	t1,0xd094
bfc025c8:	35291820 	ori	t1,t1,0x1820
bfc025cc:	01098021 	addu	s0,t0,t1
bfc025d0:	3c12d094 	lui	s2,0xd094
bfc025d4:	36521820 	ori	s2,s2,0x1820
bfc025d8:	161200b8 	bne	s0,s2,bfc028bc <inst_error>
bfc025dc:	00000000 	nop
bfc025e0:	24080000 	li	t0,0
bfc025e4:	3c09c74b 	lui	t1,0xc74b
bfc025e8:	35290efc 	ori	t1,t1,0xefc
bfc025ec:	01098021 	addu	s0,t0,t1
bfc025f0:	3c12c74b 	lui	s2,0xc74b
bfc025f4:	36520efc 	ori	s2,s2,0xefc
bfc025f8:	161200b0 	bne	s0,s2,bfc028bc <inst_error>
bfc025fc:	00000000 	nop
bfc02600:	24080000 	li	t0,0
bfc02604:	3c09d114 	lui	t1,0xd114
bfc02608:	35291a90 	ori	t1,t1,0x1a90
bfc0260c:	01098021 	addu	s0,t0,t1
bfc02610:	3c12d114 	lui	s2,0xd114
bfc02614:	36521a90 	ori	s2,s2,0x1a90
bfc02618:	161200a8 	bne	s0,s2,bfc028bc <inst_error>
bfc0261c:	00000000 	nop
bfc02620:	24080000 	li	t0,0
bfc02624:	3c09bad6 	lui	t1,0xbad6
bfc02628:	352962b6 	ori	t1,t1,0x62b6
bfc0262c:	01098021 	addu	s0,t0,t1
bfc02630:	3c12bad6 	lui	s2,0xbad6
bfc02634:	365262b6 	ori	s2,s2,0x62b6
bfc02638:	161200a0 	bne	s0,s2,bfc028bc <inst_error>
bfc0263c:	00000000 	nop
bfc02640:	24080000 	li	t0,0
bfc02644:	3c09e3e0 	lui	t1,0xe3e0
bfc02648:	352935dc 	ori	t1,t1,0x35dc
bfc0264c:	01098021 	addu	s0,t0,t1
bfc02650:	3c12e3e0 	lui	s2,0xe3e0
bfc02654:	365235dc 	ori	s2,s2,0x35dc
bfc02658:	16120098 	bne	s0,s2,bfc028bc <inst_error>
bfc0265c:	00000000 	nop
bfc02660:	24080000 	li	t0,0
bfc02664:	3c098036 	lui	t1,0x8036
bfc02668:	352968e8 	ori	t1,t1,0x68e8
bfc0266c:	01098021 	addu	s0,t0,t1
bfc02670:	3c128036 	lui	s2,0x8036
bfc02674:	365268e8 	ori	s2,s2,0x68e8
bfc02678:	16120090 	bne	s0,s2,bfc028bc <inst_error>
bfc0267c:	00000000 	nop
bfc02680:	24080000 	li	t0,0
bfc02684:	3c099b06 	lui	t1,0x9b06
bfc02688:	35290f64 	ori	t1,t1,0xf64
bfc0268c:	01098021 	addu	s0,t0,t1
bfc02690:	3c129b06 	lui	s2,0x9b06
bfc02694:	36520f64 	ori	s2,s2,0xf64
bfc02698:	16120088 	bne	s0,s2,bfc028bc <inst_error>
bfc0269c:	00000000 	nop
bfc026a0:	24080000 	li	t0,0
bfc026a4:	3c090a23 	lui	t1,0xa23
bfc026a8:	3529d40a 	ori	t1,t1,0xd40a
bfc026ac:	01098021 	addu	s0,t0,t1
bfc026b0:	3c120a23 	lui	s2,0xa23
bfc026b4:	3652d40a 	ori	s2,s2,0xd40a
bfc026b8:	16120080 	bne	s0,s2,bfc028bc <inst_error>
bfc026bc:	00000000 	nop
bfc026c0:	24080000 	li	t0,0
bfc026c4:	3c0908ed 	lui	t1,0x8ed
bfc026c8:	35291541 	ori	t1,t1,0x1541
bfc026cc:	01098021 	addu	s0,t0,t1
bfc026d0:	3c1208ed 	lui	s2,0x8ed
bfc026d4:	36521541 	ori	s2,s2,0x1541
bfc026d8:	16120078 	bne	s0,s2,bfc028bc <inst_error>
bfc026dc:	00000000 	nop
bfc026e0:	24080000 	li	t0,0
bfc026e4:	3c09b0bf 	lui	t1,0xb0bf
bfc026e8:	3529dbe0 	ori	t1,t1,0xdbe0
bfc026ec:	01098021 	addu	s0,t0,t1
bfc026f0:	3c12b0bf 	lui	s2,0xb0bf
bfc026f4:	3652dbe0 	ori	s2,s2,0xdbe0
bfc026f8:	16120070 	bne	s0,s2,bfc028bc <inst_error>
bfc026fc:	00000000 	nop
bfc02700:	24080000 	li	t0,0
bfc02704:	3c099b0d 	lui	t1,0x9b0d
bfc02708:	3529d6b6 	ori	t1,t1,0xd6b6
bfc0270c:	01098021 	addu	s0,t0,t1
bfc02710:	3c129b0d 	lui	s2,0x9b0d
bfc02714:	3652d6b6 	ori	s2,s2,0xd6b6
bfc02718:	16120068 	bne	s0,s2,bfc028bc <inst_error>
bfc0271c:	00000000 	nop
bfc02720:	24080000 	li	t0,0
bfc02724:	3c09944f 	lui	t1,0x944f
bfc02728:	3529d39c 	ori	t1,t1,0xd39c
bfc0272c:	01098021 	addu	s0,t0,t1
bfc02730:	3c12944f 	lui	s2,0x944f
bfc02734:	3652d39c 	ori	s2,s2,0xd39c
bfc02738:	16120060 	bne	s0,s2,bfc028bc <inst_error>
bfc0273c:	00000000 	nop
bfc02740:	24080000 	li	t0,0
bfc02744:	3c09633a 	lui	t1,0x633a
bfc02748:	352977e0 	ori	t1,t1,0x77e0
bfc0274c:	01098021 	addu	s0,t0,t1
bfc02750:	3c12633a 	lui	s2,0x633a
bfc02754:	365277e0 	ori	s2,s2,0x77e0
bfc02758:	16120058 	bne	s0,s2,bfc028bc <inst_error>
bfc0275c:	00000000 	nop
bfc02760:	24080000 	li	t0,0
bfc02764:	3c09fa41 	lui	t1,0xfa41
bfc02768:	35296a96 	ori	t1,t1,0x6a96
bfc0276c:	01098021 	addu	s0,t0,t1
bfc02770:	3c12fa41 	lui	s2,0xfa41
bfc02774:	36526a96 	ori	s2,s2,0x6a96
bfc02778:	16120050 	bne	s0,s2,bfc028bc <inst_error>
bfc0277c:	00000000 	nop
bfc02780:	24080000 	li	t0,0
bfc02784:	3c094c63 	lui	t1,0x4c63
bfc02788:	3529b1ce 	ori	t1,t1,0xb1ce
bfc0278c:	01098021 	addu	s0,t0,t1
bfc02790:	3c124c63 	lui	s2,0x4c63
bfc02794:	3652b1ce 	ori	s2,s2,0xb1ce
bfc02798:	16120048 	bne	s0,s2,bfc028bc <inst_error>
bfc0279c:	00000000 	nop
bfc027a0:	24080000 	li	t0,0
bfc027a4:	3c093da7 	lui	t1,0x3da7
bfc027a8:	3529a838 	ori	t1,t1,0xa838
bfc027ac:	01098021 	addu	s0,t0,t1
bfc027b0:	3c123da7 	lui	s2,0x3da7
bfc027b4:	3652a838 	ori	s2,s2,0xa838
bfc027b8:	16120040 	bne	s0,s2,bfc028bc <inst_error>
bfc027bc:	00000000 	nop
bfc027c0:	24080000 	li	t0,0
bfc027c4:	3c091ce0 	lui	t1,0x1ce0
bfc027c8:	3529f444 	ori	t1,t1,0xf444
bfc027cc:	01098021 	addu	s0,t0,t1
bfc027d0:	3c121ce0 	lui	s2,0x1ce0
bfc027d4:	3652f444 	ori	s2,s2,0xf444
bfc027d8:	16120038 	bne	s0,s2,bfc028bc <inst_error>
bfc027dc:	00000000 	nop
bfc027e0:	24080000 	li	t0,0
bfc027e4:	3c098573 	lui	t1,0x8573
bfc027e8:	3529c0f2 	ori	t1,t1,0xc0f2
bfc027ec:	01098021 	addu	s0,t0,t1
bfc027f0:	3c128573 	lui	s2,0x8573
bfc027f4:	3652c0f2 	ori	s2,s2,0xc0f2
bfc027f8:	16120030 	bne	s0,s2,bfc028bc <inst_error>
bfc027fc:	00000000 	nop
bfc02800:	24080000 	li	t0,0
bfc02804:	3c092a4e 	lui	t1,0x2a4e
bfc02808:	3529b3a0 	ori	t1,t1,0xb3a0
bfc0280c:	01098021 	addu	s0,t0,t1
bfc02810:	3c122a4e 	lui	s2,0x2a4e
bfc02814:	3652b3a0 	ori	s2,s2,0xb3a0
bfc02818:	16120028 	bne	s0,s2,bfc028bc <inst_error>
bfc0281c:	00000000 	nop
bfc02820:	24080000 	li	t0,0
bfc02824:	3c096c38 	lui	t1,0x6c38
bfc02828:	35295f78 	ori	t1,t1,0x5f78
bfc0282c:	01098021 	addu	s0,t0,t1
bfc02830:	3c126c38 	lui	s2,0x6c38
bfc02834:	36525f78 	ori	s2,s2,0x5f78
bfc02838:	16120020 	bne	s0,s2,bfc028bc <inst_error>
bfc0283c:	00000000 	nop
bfc02840:	24080000 	li	t0,0
bfc02844:	3c09c1b4 	lui	t1,0xc1b4
bfc02848:	35299780 	ori	t1,t1,0x9780
bfc0284c:	01098021 	addu	s0,t0,t1
bfc02850:	3c12c1b4 	lui	s2,0xc1b4
bfc02854:	36529780 	ori	s2,s2,0x9780
bfc02858:	16120018 	bne	s0,s2,bfc028bc <inst_error>
bfc0285c:	00000000 	nop
bfc02860:	24080000 	li	t0,0
bfc02864:	3c09ed4a 	lui	t1,0xed4a
bfc02868:	35295381 	ori	t1,t1,0x5381
bfc0286c:	01098021 	addu	s0,t0,t1
bfc02870:	3c12ed4a 	lui	s2,0xed4a
bfc02874:	36525381 	ori	s2,s2,0x5381
bfc02878:	16120010 	bne	s0,s2,bfc028bc <inst_error>
bfc0287c:	00000000 	nop
bfc02880:	24080000 	li	t0,0
bfc02884:	3c093101 	lui	t1,0x3101
bfc02888:	35295100 	ori	t1,t1,0x5100
bfc0288c:	01098021 	addu	s0,t0,t1
bfc02890:	3c123101 	lui	s2,0x3101
bfc02894:	36525100 	ori	s2,s2,0x5100
bfc02898:	16120008 	bne	s0,s2,bfc028bc <inst_error>
bfc0289c:	00000000 	nop
bfc028a0:	24080000 	li	t0,0
bfc028a4:	24090000 	li	t1,0
bfc028a8:	01098021 	addu	s0,t0,t1
bfc028ac:	24120000 	li	s2,0
bfc028b0:	16120002 	bne	s0,s2,bfc028bc <inst_error>
bfc028b4:	00000000 	nop
bfc028b8:	4a000000 	c2	0x0

bfc028bc <inst_error>:
inst_error():
bfc028bc:	0000003f 	0x3f

Disassembly of section .reginfo:

00000000 <.reginfo>:
   0:	00050300 	sll	zero,a1,0xc
	...
