
build/andi:     file format elf32-tradlittlemips
build/andi


Disassembly of section .text:

bfc00000 <main>:
bfc00000:	3c084c23 	lui	t0,0x4c23
bfc00004:	3508cdd4 	ori	t0,t0,0xcdd4
bfc00008:	24095e89 	li	t1,24201
bfc0000c:	31105e89 	andi	s0,t0,0x5e89
bfc00010:	24124c80 	li	s2,19584
bfc00014:	16120803 	bne	s0,s2,bfc02024 <inst_error>
bfc00018:	00000000 	nop
bfc0001c:	3c08a128 	lui	t0,0xa128
bfc00020:	35086600 	ori	t0,t0,0x6600
bfc00024:	240908aa 	li	t1,2218
bfc00028:	311008aa 	andi	s0,t0,0x8aa
bfc0002c:	24120000 	li	s2,0
bfc00030:	161207fc 	bne	s0,s2,bfc02024 <inst_error>
bfc00034:	00000000 	nop
bfc00038:	3c08ea42 	lui	t0,0xea42
bfc0003c:	3508f8c0 	ori	t0,t0,0xf8c0
bfc00040:	34098d3e 	li	t1,0x8d3e
bfc00044:	31108d3e 	andi	s0,t0,0x8d3e
bfc00048:	34128800 	li	s2,0x8800
bfc0004c:	161207f5 	bne	s0,s2,bfc02024 <inst_error>
bfc00050:	00000000 	nop
bfc00054:	3c08fbbe 	lui	t0,0xfbbe
bfc00058:	3508a379 	ori	t0,t0,0xa379
bfc0005c:	34099654 	li	t1,0x9654
bfc00060:	31109654 	andi	s0,t0,0x9654
bfc00064:	34128250 	li	s2,0x8250
bfc00068:	161207ee 	bne	s0,s2,bfc02024 <inst_error>
bfc0006c:	00000000 	nop
bfc00070:	3c08701f 	lui	t0,0x701f
bfc00074:	3508f540 	ori	t0,t0,0xf540
bfc00078:	2409601f 	li	t1,24607
bfc0007c:	3110601f 	andi	s0,t0,0x601f
bfc00080:	24126000 	li	s2,24576
bfc00084:	161207e7 	bne	s0,s2,bfc02024 <inst_error>
bfc00088:	00000000 	nop
bfc0008c:	3c08509b 	lui	t0,0x509b
bfc00090:	35088bd4 	ori	t0,t0,0x8bd4
bfc00094:	3409fd3c 	li	t1,0xfd3c
bfc00098:	3110fd3c 	andi	s0,t0,0xfd3c
bfc0009c:	34128914 	li	s2,0x8914
bfc000a0:	161207e0 	bne	s0,s2,bfc02024 <inst_error>
bfc000a4:	00000000 	nop
bfc000a8:	3c087f92 	lui	t0,0x7f92
bfc000ac:	3508d195 	ori	t0,t0,0xd195
bfc000b0:	240907a0 	li	t1,1952
bfc000b4:	311007a0 	andi	s0,t0,0x7a0
bfc000b8:	24120180 	li	s2,384
bfc000bc:	161207d9 	bne	s0,s2,bfc02024 <inst_error>
bfc000c0:	00000000 	nop
bfc000c4:	3c082e27 	lui	t0,0x2e27
bfc000c8:	35083e78 	ori	t0,t0,0x3e78
bfc000cc:	2409175e 	li	t1,5982
bfc000d0:	3110175e 	andi	s0,t0,0x175e
bfc000d4:	24121658 	li	s2,5720
bfc000d8:	161207d2 	bne	s0,s2,bfc02024 <inst_error>
bfc000dc:	00000000 	nop
bfc000e0:	3c08866d 	lui	t0,0x866d
bfc000e4:	3508cbc0 	ori	t0,t0,0xcbc0
bfc000e8:	3409c84c 	li	t1,0xc84c
bfc000ec:	3110c84c 	andi	s0,t0,0xc84c
bfc000f0:	3412c840 	li	s2,0xc840
bfc000f4:	161207cb 	bne	s0,s2,bfc02024 <inst_error>
bfc000f8:	00000000 	nop
bfc000fc:	3c08d0b3 	lui	t0,0xd0b3
bfc00100:	35085788 	ori	t0,t0,0x5788
bfc00104:	24096224 	li	t1,25124
bfc00108:	31106224 	andi	s0,t0,0x6224
bfc0010c:	24124200 	li	s2,16896
bfc00110:	161207c4 	bne	s0,s2,bfc02024 <inst_error>
bfc00114:	00000000 	nop
bfc00118:	3c0805d1 	lui	t0,0x5d1
bfc0011c:	350843e2 	ori	t0,t0,0x43e2
bfc00120:	3409b37a 	li	t1,0xb37a
bfc00124:	3110b37a 	andi	s0,t0,0xb37a
bfc00128:	24120362 	li	s2,866
bfc0012c:	161207bd 	bne	s0,s2,bfc02024 <inst_error>
bfc00130:	00000000 	nop
bfc00134:	3c087287 	lui	t0,0x7287
bfc00138:	3508ec60 	ori	t0,t0,0xec60
bfc0013c:	24091e2e 	li	t1,7726
bfc00140:	31101e2e 	andi	s0,t0,0x1e2e
bfc00144:	24120c20 	li	s2,3104
bfc00148:	161207b6 	bne	s0,s2,bfc02024 <inst_error>
bfc0014c:	00000000 	nop
bfc00150:	3c080eea 	lui	t0,0xeea
bfc00154:	3508b150 	ori	t0,t0,0xb150
bfc00158:	3409c349 	li	t1,0xc349
bfc0015c:	3110c349 	andi	s0,t0,0xc349
bfc00160:	34128140 	li	s2,0x8140
bfc00164:	161207af 	bne	s0,s2,bfc02024 <inst_error>
bfc00168:	00000000 	nop
bfc0016c:	3c082a3a 	lui	t0,0x2a3a
bfc00170:	35089780 	ori	t0,t0,0x9780
bfc00174:	3409d980 	li	t1,0xd980
bfc00178:	3110d980 	andi	s0,t0,0xd980
bfc0017c:	34129180 	li	s2,0x9180
bfc00180:	161207a8 	bne	s0,s2,bfc02024 <inst_error>
bfc00184:	00000000 	nop
bfc00188:	3c082b7f 	lui	t0,0x2b7f
bfc0018c:	35088e00 	ori	t0,t0,0x8e00
bfc00190:	240906e9 	li	t1,1769
bfc00194:	311006e9 	andi	s0,t0,0x6e9
bfc00198:	24120600 	li	s2,1536
bfc0019c:	161207a1 	bne	s0,s2,bfc02024 <inst_error>
bfc001a0:	00000000 	nop
bfc001a4:	3c081e9a 	lui	t0,0x1e9a
bfc001a8:	3508e240 	ori	t0,t0,0xe240
bfc001ac:	24095505 	li	t1,21765
bfc001b0:	31105505 	andi	s0,t0,0x5505
bfc001b4:	24124000 	li	s2,16384
bfc001b8:	1612079a 	bne	s0,s2,bfc02024 <inst_error>
bfc001bc:	00000000 	nop
bfc001c0:	3c082a4c 	lui	t0,0x2a4c
bfc001c4:	35084ce3 	ori	t0,t0,0x4ce3
bfc001c8:	3409df84 	li	t1,0xdf84
bfc001cc:	3110df84 	andi	s0,t0,0xdf84
bfc001d0:	24124c80 	li	s2,19584
bfc001d4:	16120793 	bne	s0,s2,bfc02024 <inst_error>
bfc001d8:	00000000 	nop
bfc001dc:	3c0803f6 	lui	t0,0x3f6
bfc001e0:	3508e344 	ori	t0,t0,0xe344
bfc001e4:	3409c020 	li	t1,0xc020
bfc001e8:	3110c020 	andi	s0,t0,0xc020
bfc001ec:	3412c000 	li	s2,0xc000
bfc001f0:	1612078c 	bne	s0,s2,bfc02024 <inst_error>
bfc001f4:	00000000 	nop
bfc001f8:	3c08ff64 	lui	t0,0xff64
bfc001fc:	3508c5dd 	ori	t0,t0,0xc5dd
bfc00200:	24095d50 	li	t1,23888
bfc00204:	31105d50 	andi	s0,t0,0x5d50
bfc00208:	24124550 	li	s2,17744
bfc0020c:	16120785 	bne	s0,s2,bfc02024 <inst_error>
bfc00210:	00000000 	nop
bfc00214:	3c08aa1c 	lui	t0,0xaa1c
bfc00218:	3508c200 	ori	t0,t0,0xc200
bfc0021c:	34098ee3 	li	t1,0x8ee3
bfc00220:	31108ee3 	andi	s0,t0,0x8ee3
bfc00224:	34128200 	li	s2,0x8200
bfc00228:	1612077e 	bne	s0,s2,bfc02024 <inst_error>
bfc0022c:	00000000 	nop
bfc00230:	3c086241 	lui	t0,0x6241
bfc00234:	3508b174 	ori	t0,t0,0xb174
bfc00238:	34098170 	li	t1,0x8170
bfc0023c:	31108170 	andi	s0,t0,0x8170
bfc00240:	34128170 	li	s2,0x8170
bfc00244:	16120777 	bne	s0,s2,bfc02024 <inst_error>
bfc00248:	00000000 	nop
bfc0024c:	3c0875d3 	lui	t0,0x75d3
bfc00250:	350868ca 	ori	t0,t0,0x68ca
bfc00254:	3409e336 	li	t1,0xe336
bfc00258:	3110e336 	andi	s0,t0,0xe336
bfc0025c:	24126002 	li	s2,24578
bfc00260:	16120770 	bne	s0,s2,bfc02024 <inst_error>
bfc00264:	00000000 	nop
bfc00268:	3c0896b1 	lui	t0,0x96b1
bfc0026c:	35088fd2 	ori	t0,t0,0x8fd2
bfc00270:	3409dd40 	li	t1,0xdd40
bfc00274:	3110dd40 	andi	s0,t0,0xdd40
bfc00278:	34128d40 	li	s2,0x8d40
bfc0027c:	16120769 	bne	s0,s2,bfc02024 <inst_error>
bfc00280:	00000000 	nop
bfc00284:	3c08a174 	lui	t0,0xa174
bfc00288:	3508a3c8 	ori	t0,t0,0xa3c8
bfc0028c:	24095936 	li	t1,22838
bfc00290:	31105936 	andi	s0,t0,0x5936
bfc00294:	24120100 	li	s2,256
bfc00298:	16120762 	bne	s0,s2,bfc02024 <inst_error>
bfc0029c:	00000000 	nop
bfc002a0:	3c083295 	lui	t0,0x3295
bfc002a4:	350875a8 	ori	t0,t0,0x75a8
bfc002a8:	24091160 	li	t1,4448
bfc002ac:	31101160 	andi	s0,t0,0x1160
bfc002b0:	24121120 	li	s2,4384
bfc002b4:	1612075b 	bne	s0,s2,bfc02024 <inst_error>
bfc002b8:	00000000 	nop
bfc002bc:	3c08c441 	lui	t0,0xc441
bfc002c0:	35085b00 	ori	t0,t0,0x5b00
bfc002c4:	34098b5d 	li	t1,0x8b5d
bfc002c8:	31108b5d 	andi	s0,t0,0x8b5d
bfc002cc:	24120b00 	li	s2,2816
bfc002d0:	16120754 	bne	s0,s2,bfc02024 <inst_error>
bfc002d4:	00000000 	nop
bfc002d8:	3c085572 	lui	t0,0x5572
bfc002dc:	350828b0 	ori	t0,t0,0x28b0
bfc002e0:	24090a48 	li	t1,2632
bfc002e4:	31100a48 	andi	s0,t0,0xa48
bfc002e8:	24120800 	li	s2,2048
bfc002ec:	1612074d 	bne	s0,s2,bfc02024 <inst_error>
bfc002f0:	00000000 	nop
bfc002f4:	3c08c9e3 	lui	t0,0xc9e3
bfc002f8:	35086fbc 	ori	t0,t0,0x6fbc
bfc002fc:	24096a35 	li	t1,27189
bfc00300:	31106a35 	andi	s0,t0,0x6a35
bfc00304:	24126a34 	li	s2,27188
bfc00308:	16120746 	bne	s0,s2,bfc02024 <inst_error>
bfc0030c:	00000000 	nop
bfc00310:	3c086f8b 	lui	t0,0x6f8b
bfc00314:	3508c9dd 	ori	t0,t0,0xc9dd
bfc00318:	3409ae65 	li	t1,0xae65
bfc0031c:	3110ae65 	andi	s0,t0,0xae65
bfc00320:	34128845 	li	s2,0x8845
bfc00324:	1612073f 	bne	s0,s2,bfc02024 <inst_error>
bfc00328:	00000000 	nop
bfc0032c:	3c08e2b0 	lui	t0,0xe2b0
bfc00330:	350858c0 	ori	t0,t0,0x58c0
bfc00334:	3409bcc0 	li	t1,0xbcc0
bfc00338:	3110bcc0 	andi	s0,t0,0xbcc0
bfc0033c:	241218c0 	li	s2,6336
bfc00340:	16120738 	bne	s0,s2,bfc02024 <inst_error>
bfc00344:	00000000 	nop
bfc00348:	3c0871f1 	lui	t0,0x71f1
bfc0034c:	3508c140 	ori	t0,t0,0xc140
bfc00350:	2409219c 	li	t1,8604
bfc00354:	3110219c 	andi	s0,t0,0x219c
bfc00358:	24120100 	li	s2,256
bfc0035c:	16120731 	bne	s0,s2,bfc02024 <inst_error>
bfc00360:	00000000 	nop
bfc00364:	3c08e082 	lui	t0,0xe082
bfc00368:	35087181 	ori	t0,t0,0x7181
bfc0036c:	3409fca6 	li	t1,0xfca6
bfc00370:	3110fca6 	andi	s0,t0,0xfca6
bfc00374:	24127080 	li	s2,28800
bfc00378:	1612072a 	bne	s0,s2,bfc02024 <inst_error>
bfc0037c:	00000000 	nop
bfc00380:	3c080abf 	lui	t0,0xabf
bfc00384:	3508f996 	ori	t0,t0,0xf996
bfc00388:	340988c9 	li	t1,0x88c9
bfc0038c:	311088c9 	andi	s0,t0,0x88c9
bfc00390:	34128880 	li	s2,0x8880
bfc00394:	16120723 	bne	s0,s2,bfc02024 <inst_error>
bfc00398:	00000000 	nop
bfc0039c:	3c08b8ae 	lui	t0,0xb8ae
bfc003a0:	3508d1b6 	ori	t0,t0,0xd1b6
bfc003a4:	2409517f 	li	t1,20863
bfc003a8:	3110517f 	andi	s0,t0,0x517f
bfc003ac:	24125136 	li	s2,20790
bfc003b0:	1612071c 	bne	s0,s2,bfc02024 <inst_error>
bfc003b4:	00000000 	nop
bfc003b8:	3c084d92 	lui	t0,0x4d92
bfc003bc:	3508ee9e 	ori	t0,t0,0xee9e
bfc003c0:	3409c7ce 	li	t1,0xc7ce
bfc003c4:	3110c7ce 	andi	s0,t0,0xc7ce
bfc003c8:	3412c68e 	li	s2,0xc68e
bfc003cc:	16120715 	bne	s0,s2,bfc02024 <inst_error>
bfc003d0:	00000000 	nop
bfc003d4:	3c088d2a 	lui	t0,0x8d2a
bfc003d8:	35087020 	ori	t0,t0,0x7020
bfc003dc:	240901a6 	li	t1,422
bfc003e0:	311001a6 	andi	s0,t0,0x1a6
bfc003e4:	24120020 	li	s2,32
bfc003e8:	1612070e 	bne	s0,s2,bfc02024 <inst_error>
bfc003ec:	00000000 	nop
bfc003f0:	3c08f21a 	lui	t0,0xf21a
bfc003f4:	3508fb20 	ori	t0,t0,0xfb20
bfc003f8:	24090470 	li	t1,1136
bfc003fc:	31100470 	andi	s0,t0,0x470
bfc00400:	24120020 	li	s2,32
bfc00404:	16120707 	bne	s0,s2,bfc02024 <inst_error>
bfc00408:	00000000 	nop
bfc0040c:	3c0809bc 	lui	t0,0x9bc
bfc00410:	35088058 	ori	t0,t0,0x8058
bfc00414:	240962c8 	li	t1,25288
bfc00418:	311062c8 	andi	s0,t0,0x62c8
bfc0041c:	24120048 	li	s2,72
bfc00420:	16120700 	bne	s0,s2,bfc02024 <inst_error>
bfc00424:	00000000 	nop
bfc00428:	3c08941a 	lui	t0,0x941a
bfc0042c:	35085f1d 	ori	t0,t0,0x5f1d
bfc00430:	3409a21c 	li	t1,0xa21c
bfc00434:	3110a21c 	andi	s0,t0,0xa21c
bfc00438:	2412021c 	li	s2,540
bfc0043c:	161206f9 	bne	s0,s2,bfc02024 <inst_error>
bfc00440:	00000000 	nop
bfc00444:	3c085d2c 	lui	t0,0x5d2c
bfc00448:	3508e596 	ori	t0,t0,0xe596
bfc0044c:	24096941 	li	t1,26945
bfc00450:	31106941 	andi	s0,t0,0x6941
bfc00454:	24126100 	li	s2,24832
bfc00458:	161206f2 	bne	s0,s2,bfc02024 <inst_error>
bfc0045c:	00000000 	nop
bfc00460:	3c08237e 	lui	t0,0x237e
bfc00464:	3508e620 	ori	t0,t0,0xe620
bfc00468:	3409f505 	li	t1,0xf505
bfc0046c:	3110f505 	andi	s0,t0,0xf505
bfc00470:	3412e400 	li	s2,0xe400
bfc00474:	161206eb 	bne	s0,s2,bfc02024 <inst_error>
bfc00478:	00000000 	nop
bfc0047c:	3c08a82b 	lui	t0,0xa82b
bfc00480:	350838f0 	ori	t0,t0,0x38f0
bfc00484:	3409ab7a 	li	t1,0xab7a
bfc00488:	3110ab7a 	andi	s0,t0,0xab7a
bfc0048c:	24122870 	li	s2,10352
bfc00490:	161206e4 	bne	s0,s2,bfc02024 <inst_error>
bfc00494:	00000000 	nop
bfc00498:	3c0811bd 	lui	t0,0x11bd
bfc0049c:	3508cf7c 	ori	t0,t0,0xcf7c
bfc004a0:	34098908 	li	t1,0x8908
bfc004a4:	31108908 	andi	s0,t0,0x8908
bfc004a8:	34128908 	li	s2,0x8908
bfc004ac:	161206dd 	bne	s0,s2,bfc02024 <inst_error>
bfc004b0:	00000000 	nop
bfc004b4:	3c0869f1 	lui	t0,0x69f1
bfc004b8:	35084ac2 	ori	t0,t0,0x4ac2
bfc004bc:	24092a6d 	li	t1,10861
bfc004c0:	31102a6d 	andi	s0,t0,0x2a6d
bfc004c4:	24120a40 	li	s2,2624
bfc004c8:	161206d6 	bne	s0,s2,bfc02024 <inst_error>
bfc004cc:	00000000 	nop
bfc004d0:	3c08dd27 	lui	t0,0xdd27
bfc004d4:	3508baac 	ori	t0,t0,0xbaac
bfc004d8:	3409b320 	li	t1,0xb320
bfc004dc:	3110b320 	andi	s0,t0,0xb320
bfc004e0:	3412b220 	li	s2,0xb220
bfc004e4:	161206cf 	bne	s0,s2,bfc02024 <inst_error>
bfc004e8:	00000000 	nop
bfc004ec:	3c08e39e 	lui	t0,0xe39e
bfc004f0:	35089284 	ori	t0,t0,0x9284
bfc004f4:	24092176 	li	t1,8566
bfc004f8:	31102176 	andi	s0,t0,0x2176
bfc004fc:	24120004 	li	s2,4
bfc00500:	161206c8 	bne	s0,s2,bfc02024 <inst_error>
bfc00504:	00000000 	nop
bfc00508:	3c08ed94 	lui	t0,0xed94
bfc0050c:	35088c28 	ori	t0,t0,0x8c28
bfc00510:	24094c6a 	li	t1,19562
bfc00514:	31104c6a 	andi	s0,t0,0x4c6a
bfc00518:	24120c28 	li	s2,3112
bfc0051c:	161206c1 	bne	s0,s2,bfc02024 <inst_error>
bfc00520:	00000000 	nop
bfc00524:	3c088f4f 	lui	t0,0x8f4f
bfc00528:	3508a6a8 	ori	t0,t0,0xa6a8
bfc0052c:	3409e4c0 	li	t1,0xe4c0
bfc00530:	3110e4c0 	andi	s0,t0,0xe4c0
bfc00534:	3412a480 	li	s2,0xa480
bfc00538:	161206ba 	bne	s0,s2,bfc02024 <inst_error>
bfc0053c:	00000000 	nop
bfc00540:	3c08c9bb 	lui	t0,0xc9bb
bfc00544:	35084800 	ori	t0,t0,0x4800
bfc00548:	3409ffac 	li	t1,0xffac
bfc0054c:	3110ffac 	andi	s0,t0,0xffac
bfc00550:	24124800 	li	s2,18432
bfc00554:	161206b3 	bne	s0,s2,bfc02024 <inst_error>
bfc00558:	00000000 	nop
bfc0055c:	3c08acb5 	lui	t0,0xacb5
bfc00560:	3508fb96 	ori	t0,t0,0xfb96
bfc00564:	3409d600 	li	t1,0xd600
bfc00568:	3110d600 	andi	s0,t0,0xd600
bfc0056c:	3412d200 	li	s2,0xd200
bfc00570:	161206ac 	bne	s0,s2,bfc02024 <inst_error>
bfc00574:	00000000 	nop
bfc00578:	3c08df6e 	lui	t0,0xdf6e
bfc0057c:	350823d5 	ori	t0,t0,0x23d5
bfc00580:	3409df38 	li	t1,0xdf38
bfc00584:	3110df38 	andi	s0,t0,0xdf38
bfc00588:	24120310 	li	s2,784
bfc0058c:	161206a5 	bne	s0,s2,bfc02024 <inst_error>
bfc00590:	00000000 	nop
bfc00594:	3c08c105 	lui	t0,0xc105
bfc00598:	350825c0 	ori	t0,t0,0x25c0
bfc0059c:	240915ab 	li	t1,5547
bfc005a0:	311015ab 	andi	s0,t0,0x15ab
bfc005a4:	24120580 	li	s2,1408
bfc005a8:	1612069e 	bne	s0,s2,bfc02024 <inst_error>
bfc005ac:	00000000 	nop
bfc005b0:	3c085add 	lui	t0,0x5add
bfc005b4:	3508c038 	ori	t0,t0,0xc038
bfc005b8:	2409258d 	li	t1,9613
bfc005bc:	3110258d 	andi	s0,t0,0x258d
bfc005c0:	24120008 	li	s2,8
bfc005c4:	16120697 	bne	s0,s2,bfc02024 <inst_error>
bfc005c8:	00000000 	nop
bfc005cc:	3c08be1b 	lui	t0,0xbe1b
bfc005d0:	3508c16c 	ori	t0,t0,0xc16c
bfc005d4:	34098807 	li	t1,0x8807
bfc005d8:	31108807 	andi	s0,t0,0x8807
bfc005dc:	34128004 	li	s2,0x8004
bfc005e0:	16120690 	bne	s0,s2,bfc02024 <inst_error>
bfc005e4:	00000000 	nop
bfc005e8:	3c08c2f2 	lui	t0,0xc2f2
bfc005ec:	3508f240 	ori	t0,t0,0xf240
bfc005f0:	24094648 	li	t1,17992
bfc005f4:	31104648 	andi	s0,t0,0x4648
bfc005f8:	24124240 	li	s2,16960
bfc005fc:	16120689 	bne	s0,s2,bfc02024 <inst_error>
bfc00600:	00000000 	nop
bfc00604:	3c08e62d 	lui	t0,0xe62d
bfc00608:	3508324d 	ori	t0,t0,0x324d
bfc0060c:	24090747 	li	t1,1863
bfc00610:	31100747 	andi	s0,t0,0x747
bfc00614:	24120245 	li	s2,581
bfc00618:	16120682 	bne	s0,s2,bfc02024 <inst_error>
bfc0061c:	00000000 	nop
bfc00620:	3c08f85c 	lui	t0,0xf85c
bfc00624:	35081eac 	ori	t0,t0,0x1eac
bfc00628:	3409fe17 	li	t1,0xfe17
bfc0062c:	3110fe17 	andi	s0,t0,0xfe17
bfc00630:	24121e04 	li	s2,7684
bfc00634:	1612067b 	bne	s0,s2,bfc02024 <inst_error>
bfc00638:	00000000 	nop
bfc0063c:	3c082ad1 	lui	t0,0x2ad1
bfc00640:	3508aed8 	ori	t0,t0,0xaed8
bfc00644:	3409c2c4 	li	t1,0xc2c4
bfc00648:	3110c2c4 	andi	s0,t0,0xc2c4
bfc0064c:	341282c0 	li	s2,0x82c0
bfc00650:	16120674 	bne	s0,s2,bfc02024 <inst_error>
bfc00654:	00000000 	nop
bfc00658:	3c08ff7f 	lui	t0,0xff7f
bfc0065c:	3508abc4 	ori	t0,t0,0xabc4
bfc00660:	24093eb4 	li	t1,16052
bfc00664:	31103eb4 	andi	s0,t0,0x3eb4
bfc00668:	24122a84 	li	s2,10884
bfc0066c:	1612066d 	bne	s0,s2,bfc02024 <inst_error>
bfc00670:	00000000 	nop
bfc00674:	3c089585 	lui	t0,0x9585
bfc00678:	3508f1d2 	ori	t0,t0,0xf1d2
bfc0067c:	3409d660 	li	t1,0xd660
bfc00680:	3110d660 	andi	s0,t0,0xd660
bfc00684:	3412d040 	li	s2,0xd040
bfc00688:	16120666 	bne	s0,s2,bfc02024 <inst_error>
bfc0068c:	00000000 	nop
bfc00690:	3c085a20 	lui	t0,0x5a20
bfc00694:	35082319 	ori	t0,t0,0x2319
bfc00698:	3409da24 	li	t1,0xda24
bfc0069c:	3110da24 	andi	s0,t0,0xda24
bfc006a0:	24120200 	li	s2,512
bfc006a4:	1612065f 	bne	s0,s2,bfc02024 <inst_error>
bfc006a8:	00000000 	nop
bfc006ac:	3c087f2c 	lui	t0,0x7f2c
bfc006b0:	3508baf0 	ori	t0,t0,0xbaf0
bfc006b4:	24090fa0 	li	t1,4000
bfc006b8:	31100fa0 	andi	s0,t0,0xfa0
bfc006bc:	24120aa0 	li	s2,2720
bfc006c0:	16120658 	bne	s0,s2,bfc02024 <inst_error>
bfc006c4:	00000000 	nop
bfc006c8:	3c08f8c8 	lui	t0,0xf8c8
bfc006cc:	3508d908 	ori	t0,t0,0xd908
bfc006d0:	24094eea 	li	t1,20202
bfc006d4:	31104eea 	andi	s0,t0,0x4eea
bfc006d8:	24124808 	li	s2,18440
bfc006dc:	16120651 	bne	s0,s2,bfc02024 <inst_error>
bfc006e0:	00000000 	nop
bfc006e4:	3c0888b9 	lui	t0,0x88b9
bfc006e8:	35089343 	ori	t0,t0,0x9343
bfc006ec:	3409dae0 	li	t1,0xdae0
bfc006f0:	3110dae0 	andi	s0,t0,0xdae0
bfc006f4:	34129240 	li	s2,0x9240
bfc006f8:	1612064a 	bne	s0,s2,bfc02024 <inst_error>
bfc006fc:	00000000 	nop
bfc00700:	3c08acea 	lui	t0,0xacea
bfc00704:	3508571a 	ori	t0,t0,0x571a
bfc00708:	3409f06b 	li	t1,0xf06b
bfc0070c:	3110f06b 	andi	s0,t0,0xf06b
bfc00710:	2412500a 	li	s2,20490
bfc00714:	16120643 	bne	s0,s2,bfc02024 <inst_error>
bfc00718:	00000000 	nop
bfc0071c:	3c088eec 	lui	t0,0x8eec
bfc00720:	350893f0 	ori	t0,t0,0x93f0
bfc00724:	3409cc59 	li	t1,0xcc59
bfc00728:	3110cc59 	andi	s0,t0,0xcc59
bfc0072c:	34128050 	li	s2,0x8050
bfc00730:	1612063c 	bne	s0,s2,bfc02024 <inst_error>
bfc00734:	00000000 	nop
bfc00738:	3c088dae 	lui	t0,0x8dae
bfc0073c:	3508e7e0 	ori	t0,t0,0xe7e0
bfc00740:	24090b40 	li	t1,2880
bfc00744:	31100b40 	andi	s0,t0,0xb40
bfc00748:	24120340 	li	s2,832
bfc0074c:	16120635 	bne	s0,s2,bfc02024 <inst_error>
bfc00750:	00000000 	nop
bfc00754:	3c08c328 	lui	t0,0xc328
bfc00758:	3508f184 	ori	t0,t0,0xf184
bfc0075c:	3409da22 	li	t1,0xda22
bfc00760:	3110da22 	andi	s0,t0,0xda22
bfc00764:	3412d000 	li	s2,0xd000
bfc00768:	1612062e 	bne	s0,s2,bfc02024 <inst_error>
bfc0076c:	00000000 	nop
bfc00770:	3c0846d2 	lui	t0,0x46d2
bfc00774:	3508c0cb 	ori	t0,t0,0xc0cb
bfc00778:	240975db 	li	t1,30171
bfc0077c:	311075db 	andi	s0,t0,0x75db
bfc00780:	241240cb 	li	s2,16587
bfc00784:	16120627 	bne	s0,s2,bfc02024 <inst_error>
bfc00788:	00000000 	nop
bfc0078c:	3c08ffa4 	lui	t0,0xffa4
bfc00790:	3508e240 	ori	t0,t0,0xe240
bfc00794:	3409c88e 	li	t1,0xc88e
bfc00798:	3110c88e 	andi	s0,t0,0xc88e
bfc0079c:	3412c000 	li	s2,0xc000
bfc007a0:	16120620 	bne	s0,s2,bfc02024 <inst_error>
bfc007a4:	00000000 	nop
bfc007a8:	3c08d9c1 	lui	t0,0xd9c1
bfc007ac:	350833b8 	ori	t0,t0,0x33b8
bfc007b0:	24096c88 	li	t1,27784
bfc007b4:	31106c88 	andi	s0,t0,0x6c88
bfc007b8:	24122088 	li	s2,8328
bfc007bc:	16120619 	bne	s0,s2,bfc02024 <inst_error>
bfc007c0:	00000000 	nop
bfc007c4:	3c0850b2 	lui	t0,0x50b2
bfc007c8:	350876c0 	ori	t0,t0,0x76c0
bfc007cc:	3409f64c 	li	t1,0xf64c
bfc007d0:	3110f64c 	andi	s0,t0,0xf64c
bfc007d4:	24127640 	li	s2,30272
bfc007d8:	16120612 	bne	s0,s2,bfc02024 <inst_error>
bfc007dc:	00000000 	nop
bfc007e0:	3c088f87 	lui	t0,0x8f87
bfc007e4:	35081660 	ori	t0,t0,0x1660
bfc007e8:	3409b27c 	li	t1,0xb27c
bfc007ec:	3110b27c 	andi	s0,t0,0xb27c
bfc007f0:	24121260 	li	s2,4704
bfc007f4:	1612060b 	bne	s0,s2,bfc02024 <inst_error>
bfc007f8:	00000000 	nop
bfc007fc:	3c085d4b 	lui	t0,0x5d4b
bfc00800:	35080f1b 	ori	t0,t0,0xf1b
bfc00804:	24095774 	li	t1,22388
bfc00808:	31105774 	andi	s0,t0,0x5774
bfc0080c:	24120710 	li	s2,1808
bfc00810:	16120604 	bne	s0,s2,bfc02024 <inst_error>
bfc00814:	00000000 	nop
bfc00818:	3c08e187 	lui	t0,0xe187
bfc0081c:	35081463 	ori	t0,t0,0x1463
bfc00820:	34099b00 	li	t1,0x9b00
bfc00824:	31109b00 	andi	s0,t0,0x9b00
bfc00828:	24121000 	li	s2,4096
bfc0082c:	161205fd 	bne	s0,s2,bfc02024 <inst_error>
bfc00830:	00000000 	nop
bfc00834:	3c088863 	lui	t0,0x8863
bfc00838:	350867fc 	ori	t0,t0,0x67fc
bfc0083c:	24091539 	li	t1,5433
bfc00840:	31101539 	andi	s0,t0,0x1539
bfc00844:	24120538 	li	s2,1336
bfc00848:	161205f6 	bne	s0,s2,bfc02024 <inst_error>
bfc0084c:	00000000 	nop
bfc00850:	3c08da10 	lui	t0,0xda10
bfc00854:	3508c9e1 	ori	t0,t0,0xc9e1
bfc00858:	24091010 	li	t1,4112
bfc0085c:	31101010 	andi	s0,t0,0x1010
bfc00860:	24120000 	li	s2,0
bfc00864:	161205ef 	bne	s0,s2,bfc02024 <inst_error>
bfc00868:	00000000 	nop
bfc0086c:	3c08d756 	lui	t0,0xd756
bfc00870:	3508e5a8 	ori	t0,t0,0xe5a8
bfc00874:	3409b8ea 	li	t1,0xb8ea
bfc00878:	3110b8ea 	andi	s0,t0,0xb8ea
bfc0087c:	3412a0a8 	li	s2,0xa0a8
bfc00880:	161205e8 	bne	s0,s2,bfc02024 <inst_error>
bfc00884:	00000000 	nop
bfc00888:	3c083037 	lui	t0,0x3037
bfc0088c:	350876a0 	ori	t0,t0,0x76a0
bfc00890:	240965b9 	li	t1,26041
bfc00894:	311065b9 	andi	s0,t0,0x65b9
bfc00898:	241264a0 	li	s2,25760
bfc0089c:	161205e1 	bne	s0,s2,bfc02024 <inst_error>
bfc008a0:	00000000 	nop
bfc008a4:	3c08679f 	lui	t0,0x679f
bfc008a8:	35083538 	ori	t0,t0,0x3538
bfc008ac:	24095c36 	li	t1,23606
bfc008b0:	31105c36 	andi	s0,t0,0x5c36
bfc008b4:	24121430 	li	s2,5168
bfc008b8:	161205da 	bne	s0,s2,bfc02024 <inst_error>
bfc008bc:	00000000 	nop
bfc008c0:	3c083cab 	lui	t0,0x3cab
bfc008c4:	3508a000 	ori	t0,t0,0xa000
bfc008c8:	3409f42b 	li	t1,0xf42b
bfc008cc:	3110f42b 	andi	s0,t0,0xf42b
bfc008d0:	3412a000 	li	s2,0xa000
bfc008d4:	161205d3 	bne	s0,s2,bfc02024 <inst_error>
bfc008d8:	00000000 	nop
bfc008dc:	3c089c3a 	lui	t0,0x9c3a
bfc008e0:	35082af6 	ori	t0,t0,0x2af6
bfc008e4:	3409947a 	li	t1,0x947a
bfc008e8:	3110947a 	andi	s0,t0,0x947a
bfc008ec:	24120072 	li	s2,114
bfc008f0:	161205cc 	bne	s0,s2,bfc02024 <inst_error>
bfc008f4:	00000000 	nop
bfc008f8:	3c083e11 	lui	t0,0x3e11
bfc008fc:	35080120 	ori	t0,t0,0x120
bfc00900:	24090933 	li	t1,2355
bfc00904:	31100933 	andi	s0,t0,0x933
bfc00908:	24120120 	li	s2,288
bfc0090c:	161205c5 	bne	s0,s2,bfc02024 <inst_error>
bfc00910:	00000000 	nop
bfc00914:	3c085b44 	lui	t0,0x5b44
bfc00918:	35084b50 	ori	t0,t0,0x4b50
bfc0091c:	240953fd 	li	t1,21501
bfc00920:	311053fd 	andi	s0,t0,0x53fd
bfc00924:	24124350 	li	s2,17232
bfc00928:	161205be 	bne	s0,s2,bfc02024 <inst_error>
bfc0092c:	00000000 	nop
bfc00930:	3c087bc8 	lui	t0,0x7bc8
bfc00934:	35083792 	ori	t0,t0,0x3792
bfc00938:	24094dca 	li	t1,19914
bfc0093c:	31104dca 	andi	s0,t0,0x4dca
bfc00940:	24120582 	li	s2,1410
bfc00944:	161205b7 	bne	s0,s2,bfc02024 <inst_error>
bfc00948:	00000000 	nop
bfc0094c:	3c0870f5 	lui	t0,0x70f5
bfc00950:	35082ba0 	ori	t0,t0,0x2ba0
bfc00954:	240946ae 	li	t1,18094
bfc00958:	311046ae 	andi	s0,t0,0x46ae
bfc0095c:	241202a0 	li	s2,672
bfc00960:	161205b0 	bne	s0,s2,bfc02024 <inst_error>
bfc00964:	00000000 	nop
bfc00968:	3c0882e0 	lui	t0,0x82e0
bfc0096c:	3508e700 	ori	t0,t0,0xe700
bfc00970:	24091df4 	li	t1,7668
bfc00974:	31101df4 	andi	s0,t0,0x1df4
bfc00978:	24120500 	li	s2,1280
bfc0097c:	161205a9 	bne	s0,s2,bfc02024 <inst_error>
bfc00980:	00000000 	nop
bfc00984:	3c08a4c4 	lui	t0,0xa4c4
bfc00988:	35087db6 	ori	t0,t0,0x7db6
bfc0098c:	3409f31a 	li	t1,0xf31a
bfc00990:	3110f31a 	andi	s0,t0,0xf31a
bfc00994:	24127112 	li	s2,28946
bfc00998:	161205a2 	bne	s0,s2,bfc02024 <inst_error>
bfc0099c:	00000000 	nop
bfc009a0:	3c08ae6b 	lui	t0,0xae6b
bfc009a4:	350872c9 	ori	t0,t0,0x72c9
bfc009a8:	24090704 	li	t1,1796
bfc009ac:	31100704 	andi	s0,t0,0x704
bfc009b0:	24120200 	li	s2,512
bfc009b4:	1612059b 	bne	s0,s2,bfc02024 <inst_error>
bfc009b8:	00000000 	nop
bfc009bc:	3c083193 	lui	t0,0x3193
bfc009c0:	35082830 	ori	t0,t0,0x2830
bfc009c4:	24090cfa 	li	t1,3322
bfc009c8:	31100cfa 	andi	s0,t0,0xcfa
bfc009cc:	24120830 	li	s2,2096
bfc009d0:	16120594 	bne	s0,s2,bfc02024 <inst_error>
bfc009d4:	00000000 	nop
bfc009d8:	3c085f3d 	lui	t0,0x5f3d
bfc009dc:	3508333a 	ori	t0,t0,0x333a
bfc009e0:	240905f0 	li	t1,1520
bfc009e4:	311005f0 	andi	s0,t0,0x5f0
bfc009e8:	24120130 	li	s2,304
bfc009ec:	1612058d 	bne	s0,s2,bfc02024 <inst_error>
bfc009f0:	00000000 	nop
bfc009f4:	3c08fd89 	lui	t0,0xfd89
bfc009f8:	35087e9e 	ori	t0,t0,0x7e9e
bfc009fc:	3409d584 	li	t1,0xd584
bfc00a00:	3110d584 	andi	s0,t0,0xd584
bfc00a04:	24125484 	li	s2,21636
bfc00a08:	16120586 	bne	s0,s2,bfc02024 <inst_error>
bfc00a0c:	00000000 	nop
bfc00a10:	3c08c95c 	lui	t0,0xc95c
bfc00a14:	3508d808 	ori	t0,t0,0xd808
bfc00a18:	3409be7d 	li	t1,0xbe7d
bfc00a1c:	3110be7d 	andi	s0,t0,0xbe7d
bfc00a20:	34129808 	li	s2,0x9808
bfc00a24:	1612057f 	bne	s0,s2,bfc02024 <inst_error>
bfc00a28:	00000000 	nop
bfc00a2c:	3c08ed80 	lui	t0,0xed80
bfc00a30:	3508b6cb 	ori	t0,t0,0xb6cb
bfc00a34:	3409b4f8 	li	t1,0xb4f8
bfc00a38:	3110b4f8 	andi	s0,t0,0xb4f8
bfc00a3c:	3412b4c8 	li	s2,0xb4c8
bfc00a40:	16120578 	bne	s0,s2,bfc02024 <inst_error>
bfc00a44:	00000000 	nop
bfc00a48:	3c0813ad 	lui	t0,0x13ad
bfc00a4c:	35085f46 	ori	t0,t0,0x5f46
bfc00a50:	3409a3ba 	li	t1,0xa3ba
bfc00a54:	3110a3ba 	andi	s0,t0,0xa3ba
bfc00a58:	24120302 	li	s2,770
bfc00a5c:	16120571 	bne	s0,s2,bfc02024 <inst_error>
bfc00a60:	00000000 	nop
bfc00a64:	3c08ddca 	lui	t0,0xddca
bfc00a68:	350889b0 	ori	t0,t0,0x89b0
bfc00a6c:	3409c17d 	li	t1,0xc17d
bfc00a70:	3110c17d 	andi	s0,t0,0xc17d
bfc00a74:	34128130 	li	s2,0x8130
bfc00a78:	1612056a 	bne	s0,s2,bfc02024 <inst_error>
bfc00a7c:	00000000 	nop
bfc00a80:	3c080056 	lui	t0,0x56
bfc00a84:	3508f828 	ori	t0,t0,0xf828
bfc00a88:	3409ac60 	li	t1,0xac60
bfc00a8c:	3110ac60 	andi	s0,t0,0xac60
bfc00a90:	3412a820 	li	s2,0xa820
bfc00a94:	16120563 	bne	s0,s2,bfc02024 <inst_error>
bfc00a98:	00000000 	nop
bfc00a9c:	3c089da4 	lui	t0,0x9da4
bfc00aa0:	350864e2 	ori	t0,t0,0x64e2
bfc00aa4:	34098528 	li	t1,0x8528
bfc00aa8:	31108528 	andi	s0,t0,0x8528
bfc00aac:	24120420 	li	s2,1056
bfc00ab0:	1612055c 	bne	s0,s2,bfc02024 <inst_error>
bfc00ab4:	00000000 	nop
bfc00ab8:	3c086bd8 	lui	t0,0x6bd8
bfc00abc:	35088840 	ori	t0,t0,0x8840
bfc00ac0:	2409552d 	li	t1,21805
bfc00ac4:	3110552d 	andi	s0,t0,0x552d
bfc00ac8:	24120000 	li	s2,0
bfc00acc:	16120555 	bne	s0,s2,bfc02024 <inst_error>
bfc00ad0:	00000000 	nop
bfc00ad4:	3c083078 	lui	t0,0x3078
bfc00ad8:	35082928 	ori	t0,t0,0x2928
bfc00adc:	24095a82 	li	t1,23170
bfc00ae0:	31105a82 	andi	s0,t0,0x5a82
bfc00ae4:	24120800 	li	s2,2048
bfc00ae8:	1612054e 	bne	s0,s2,bfc02024 <inst_error>
bfc00aec:	00000000 	nop
bfc00af0:	3c08d760 	lui	t0,0xd760
bfc00af4:	3508f054 	ori	t0,t0,0xf054
bfc00af8:	340992d4 	li	t1,0x92d4
bfc00afc:	311092d4 	andi	s0,t0,0x92d4
bfc00b00:	34129054 	li	s2,0x9054
bfc00b04:	16120547 	bne	s0,s2,bfc02024 <inst_error>
bfc00b08:	00000000 	nop
bfc00b0c:	3c084592 	lui	t0,0x4592
bfc00b10:	35087f80 	ori	t0,t0,0x7f80
bfc00b14:	3409c0af 	li	t1,0xc0af
bfc00b18:	3110c0af 	andi	s0,t0,0xc0af
bfc00b1c:	24124080 	li	s2,16512
bfc00b20:	16120540 	bne	s0,s2,bfc02024 <inst_error>
bfc00b24:	00000000 	nop
bfc00b28:	3c08d3b7 	lui	t0,0xd3b7
bfc00b2c:	35080800 	ori	t0,t0,0x800
bfc00b30:	24090863 	li	t1,2147
bfc00b34:	31100863 	andi	s0,t0,0x863
bfc00b38:	24120800 	li	s2,2048
bfc00b3c:	16120539 	bne	s0,s2,bfc02024 <inst_error>
bfc00b40:	00000000 	nop
bfc00b44:	3c08a4ff 	lui	t0,0xa4ff
bfc00b48:	35084a18 	ori	t0,t0,0x4a18
bfc00b4c:	24096f1e 	li	t1,28446
bfc00b50:	31106f1e 	andi	s0,t0,0x6f1e
bfc00b54:	24124a18 	li	s2,18968
bfc00b58:	16120532 	bne	s0,s2,bfc02024 <inst_error>
bfc00b5c:	00000000 	nop
bfc00b60:	3c085713 	lui	t0,0x5713
bfc00b64:	3508fefe 	ori	t0,t0,0xfefe
bfc00b68:	3409870e 	li	t1,0x870e
bfc00b6c:	3110870e 	andi	s0,t0,0x870e
bfc00b70:	3412860e 	li	s2,0x860e
bfc00b74:	1612052b 	bne	s0,s2,bfc02024 <inst_error>
bfc00b78:	00000000 	nop
bfc00b7c:	3c08c7cd 	lui	t0,0xc7cd
bfc00b80:	3508d321 	ori	t0,t0,0xd321
bfc00b84:	24096f46 	li	t1,28486
bfc00b88:	31106f46 	andi	s0,t0,0x6f46
bfc00b8c:	24124300 	li	s2,17152
bfc00b90:	16120524 	bne	s0,s2,bfc02024 <inst_error>
bfc00b94:	00000000 	nop
bfc00b98:	3c0874b8 	lui	t0,0x74b8
bfc00b9c:	350899e4 	ori	t0,t0,0x99e4
bfc00ba0:	240902b0 	li	t1,688
bfc00ba4:	311002b0 	andi	s0,t0,0x2b0
bfc00ba8:	241200a0 	li	s2,160
bfc00bac:	1612051d 	bne	s0,s2,bfc02024 <inst_error>
bfc00bb0:	00000000 	nop
bfc00bb4:	3c081c09 	lui	t0,0x1c09
bfc00bb8:	35088ec0 	ori	t0,t0,0x8ec0
bfc00bbc:	3409a488 	li	t1,0xa488
bfc00bc0:	3110a488 	andi	s0,t0,0xa488
bfc00bc4:	34128480 	li	s2,0x8480
bfc00bc8:	16120516 	bne	s0,s2,bfc02024 <inst_error>
bfc00bcc:	00000000 	nop
bfc00bd0:	3c0821b0 	lui	t0,0x21b0
bfc00bd4:	350811c0 	ori	t0,t0,0x11c0
bfc00bd8:	3409a1b3 	li	t1,0xa1b3
bfc00bdc:	3110a1b3 	andi	s0,t0,0xa1b3
bfc00be0:	24120180 	li	s2,384
bfc00be4:	1612050f 	bne	s0,s2,bfc02024 <inst_error>
bfc00be8:	00000000 	nop
bfc00bec:	3c089fa6 	lui	t0,0x9fa6
bfc00bf0:	35089f68 	ori	t0,t0,0x9f68
bfc00bf4:	3409d230 	li	t1,0xd230
bfc00bf8:	3110d230 	andi	s0,t0,0xd230
bfc00bfc:	34129220 	li	s2,0x9220
bfc00c00:	16120508 	bne	s0,s2,bfc02024 <inst_error>
bfc00c04:	00000000 	nop
bfc00c08:	3c087f3c 	lui	t0,0x7f3c
bfc00c0c:	35084c95 	ori	t0,t0,0x4c95
bfc00c10:	24092e4c 	li	t1,11852
bfc00c14:	31102e4c 	andi	s0,t0,0x2e4c
bfc00c18:	24120c04 	li	s2,3076
bfc00c1c:	16120501 	bne	s0,s2,bfc02024 <inst_error>
bfc00c20:	00000000 	nop
bfc00c24:	3c08004c 	lui	t0,0x4c
bfc00c28:	35089682 	ori	t0,t0,0x9682
bfc00c2c:	24091bc0 	li	t1,7104
bfc00c30:	31101bc0 	andi	s0,t0,0x1bc0
bfc00c34:	24121280 	li	s2,4736
bfc00c38:	161204fa 	bne	s0,s2,bfc02024 <inst_error>
bfc00c3c:	00000000 	nop
bfc00c40:	3c08e36c 	lui	t0,0xe36c
bfc00c44:	3508870c 	ori	t0,t0,0x870c
bfc00c48:	3409e354 	li	t1,0xe354
bfc00c4c:	3110e354 	andi	s0,t0,0xe354
bfc00c50:	34128304 	li	s2,0x8304
bfc00c54:	161204f3 	bne	s0,s2,bfc02024 <inst_error>
bfc00c58:	00000000 	nop
bfc00c5c:	3c08b158 	lui	t0,0xb158
bfc00c60:	3508d481 	ori	t0,t0,0xd481
bfc00c64:	24093cd0 	li	t1,15568
bfc00c68:	31103cd0 	andi	s0,t0,0x3cd0
bfc00c6c:	24121480 	li	s2,5248
bfc00c70:	161204ec 	bne	s0,s2,bfc02024 <inst_error>
bfc00c74:	00000000 	nop
bfc00c78:	3c08c926 	lui	t0,0xc926
bfc00c7c:	35085040 	ori	t0,t0,0x5040
bfc00c80:	3409f124 	li	t1,0xf124
bfc00c84:	3110f124 	andi	s0,t0,0xf124
bfc00c88:	24125000 	li	s2,20480
bfc00c8c:	161204e5 	bne	s0,s2,bfc02024 <inst_error>
bfc00c90:	00000000 	nop
bfc00c94:	3c08a9ee 	lui	t0,0xa9ee
bfc00c98:	3508ef7b 	ori	t0,t0,0xef7b
bfc00c9c:	34098af3 	li	t1,0x8af3
bfc00ca0:	31108af3 	andi	s0,t0,0x8af3
bfc00ca4:	34128a73 	li	s2,0x8a73
bfc00ca8:	161204de 	bne	s0,s2,bfc02024 <inst_error>
bfc00cac:	00000000 	nop
bfc00cb0:	3c08bd9c 	lui	t0,0xbd9c
bfc00cb4:	350832aa 	ori	t0,t0,0x32aa
bfc00cb8:	3409fb85 	li	t1,0xfb85
bfc00cbc:	3110fb85 	andi	s0,t0,0xfb85
bfc00cc0:	24123280 	li	s2,12928
bfc00cc4:	161204d7 	bne	s0,s2,bfc02024 <inst_error>
bfc00cc8:	00000000 	nop
bfc00ccc:	3c08d146 	lui	t0,0xd146
bfc00cd0:	3508e020 	ori	t0,t0,0xe020
bfc00cd4:	24095219 	li	t1,21017
bfc00cd8:	31105219 	andi	s0,t0,0x5219
bfc00cdc:	24124000 	li	s2,16384
bfc00ce0:	161204d0 	bne	s0,s2,bfc02024 <inst_error>
bfc00ce4:	00000000 	nop
bfc00ce8:	3c08ec63 	lui	t0,0xec63
bfc00cec:	3508fefa 	ori	t0,t0,0xfefa
bfc00cf0:	24092a02 	li	t1,10754
bfc00cf4:	31102a02 	andi	s0,t0,0x2a02
bfc00cf8:	24122a02 	li	s2,10754
bfc00cfc:	161204c9 	bne	s0,s2,bfc02024 <inst_error>
bfc00d00:	00000000 	nop
bfc00d04:	3c08aad9 	lui	t0,0xaad9
bfc00d08:	3508a6e2 	ori	t0,t0,0xa6e2
bfc00d0c:	3409ee60 	li	t1,0xee60
bfc00d10:	3110ee60 	andi	s0,t0,0xee60
bfc00d14:	3412a660 	li	s2,0xa660
bfc00d18:	161204c2 	bne	s0,s2,bfc02024 <inst_error>
bfc00d1c:	00000000 	nop
bfc00d20:	3c083813 	lui	t0,0x3813
bfc00d24:	350872fc 	ori	t0,t0,0x72fc
bfc00d28:	24093834 	li	t1,14388
bfc00d2c:	31103834 	andi	s0,t0,0x3834
bfc00d30:	24123034 	li	s2,12340
bfc00d34:	161204bb 	bne	s0,s2,bfc02024 <inst_error>
bfc00d38:	00000000 	nop
bfc00d3c:	3c08a2ef 	lui	t0,0xa2ef
bfc00d40:	35085b64 	ori	t0,t0,0x5b64
bfc00d44:	3409ef65 	li	t1,0xef65
bfc00d48:	3110ef65 	andi	s0,t0,0xef65
bfc00d4c:	24124b64 	li	s2,19300
bfc00d50:	161204b4 	bne	s0,s2,bfc02024 <inst_error>
bfc00d54:	00000000 	nop
bfc00d58:	3c08e62e 	lui	t0,0xe62e
bfc00d5c:	3508bb8c 	ori	t0,t0,0xbb8c
bfc00d60:	34099347 	li	t1,0x9347
bfc00d64:	31109347 	andi	s0,t0,0x9347
bfc00d68:	34129304 	li	s2,0x9304
bfc00d6c:	161204ad 	bne	s0,s2,bfc02024 <inst_error>
bfc00d70:	00000000 	nop
bfc00d74:	3c081ac0 	lui	t0,0x1ac0
bfc00d78:	3508fd8d 	ori	t0,t0,0xfd8d
bfc00d7c:	34098670 	li	t1,0x8670
bfc00d80:	31108670 	andi	s0,t0,0x8670
bfc00d84:	34128400 	li	s2,0x8400
bfc00d88:	161204a6 	bne	s0,s2,bfc02024 <inst_error>
bfc00d8c:	00000000 	nop
bfc00d90:	3c08e8ee 	lui	t0,0xe8ee
bfc00d94:	35081820 	ori	t0,t0,0x1820
bfc00d98:	3409ad68 	li	t1,0xad68
bfc00d9c:	3110ad68 	andi	s0,t0,0xad68
bfc00da0:	24120820 	li	s2,2080
bfc00da4:	1612049f 	bne	s0,s2,bfc02024 <inst_error>
bfc00da8:	00000000 	nop
bfc00dac:	3c08c7c7 	lui	t0,0xc7c7
bfc00db0:	350823dc 	ori	t0,t0,0x23dc
bfc00db4:	340993e5 	li	t1,0x93e5
bfc00db8:	311093e5 	andi	s0,t0,0x93e5
bfc00dbc:	241203c4 	li	s2,964
bfc00dc0:	16120498 	bne	s0,s2,bfc02024 <inst_error>
bfc00dc4:	00000000 	nop
bfc00dc8:	3c086b02 	lui	t0,0x6b02
bfc00dcc:	35087aaa 	ori	t0,t0,0x7aaa
bfc00dd0:	24094f68 	li	t1,20328
bfc00dd4:	31104f68 	andi	s0,t0,0x4f68
bfc00dd8:	24124a28 	li	s2,18984
bfc00ddc:	16120491 	bne	s0,s2,bfc02024 <inst_error>
bfc00de0:	00000000 	nop
bfc00de4:	3c080fce 	lui	t0,0xfce
bfc00de8:	35080850 	ori	t0,t0,0x850
bfc00dec:	2409243a 	li	t1,9274
bfc00df0:	3110243a 	andi	s0,t0,0x243a
bfc00df4:	24120010 	li	s2,16
bfc00df8:	1612048a 	bne	s0,s2,bfc02024 <inst_error>
bfc00dfc:	00000000 	nop
bfc00e00:	3c0885d8 	lui	t0,0x85d8
bfc00e04:	350852f8 	ori	t0,t0,0x52f8
bfc00e08:	3409ce83 	li	t1,0xce83
bfc00e0c:	3110ce83 	andi	s0,t0,0xce83
bfc00e10:	24124280 	li	s2,17024
bfc00e14:	16120483 	bne	s0,s2,bfc02024 <inst_error>
bfc00e18:	00000000 	nop
bfc00e1c:	3c087049 	lui	t0,0x7049
bfc00e20:	350886dc 	ori	t0,t0,0x86dc
bfc00e24:	24092eea 	li	t1,12010
bfc00e28:	31102eea 	andi	s0,t0,0x2eea
bfc00e2c:	241206c8 	li	s2,1736
bfc00e30:	1612047c 	bne	s0,s2,bfc02024 <inst_error>
bfc00e34:	00000000 	nop
bfc00e38:	3c080d4d 	lui	t0,0xd4d
bfc00e3c:	35089452 	ori	t0,t0,0x9452
bfc00e40:	3409b4fc 	li	t1,0xb4fc
bfc00e44:	3110b4fc 	andi	s0,t0,0xb4fc
bfc00e48:	34129450 	li	s2,0x9450
bfc00e4c:	16120475 	bne	s0,s2,bfc02024 <inst_error>
bfc00e50:	00000000 	nop
bfc00e54:	3c089afb 	lui	t0,0x9afb
bfc00e58:	35080dcd 	ori	t0,t0,0xdcd
bfc00e5c:	24091020 	li	t1,4128
bfc00e60:	31101020 	andi	s0,t0,0x1020
bfc00e64:	24120000 	li	s2,0
bfc00e68:	1612046e 	bne	s0,s2,bfc02024 <inst_error>
bfc00e6c:	00000000 	nop
bfc00e70:	3c08396a 	lui	t0,0x396a
bfc00e74:	350858de 	ori	t0,t0,0x58de
bfc00e78:	24093e88 	li	t1,16008
bfc00e7c:	31103e88 	andi	s0,t0,0x3e88
bfc00e80:	24121888 	li	s2,6280
bfc00e84:	16120467 	bne	s0,s2,bfc02024 <inst_error>
bfc00e88:	00000000 	nop
bfc00e8c:	3c08bb4a 	lui	t0,0xbb4a
bfc00e90:	3508d310 	ori	t0,t0,0xd310
bfc00e94:	24095276 	li	t1,21110
bfc00e98:	31105276 	andi	s0,t0,0x5276
bfc00e9c:	24125210 	li	s2,21008
bfc00ea0:	16120460 	bne	s0,s2,bfc02024 <inst_error>
bfc00ea4:	00000000 	nop
bfc00ea8:	3c0894b8 	lui	t0,0x94b8
bfc00eac:	350896ba 	ori	t0,t0,0x96ba
bfc00eb0:	3409ebeb 	li	t1,0xebeb
bfc00eb4:	3110ebeb 	andi	s0,t0,0xebeb
bfc00eb8:	341282aa 	li	s2,0x82aa
bfc00ebc:	16120459 	bne	s0,s2,bfc02024 <inst_error>
bfc00ec0:	00000000 	nop
bfc00ec4:	3c08d8ee 	lui	t0,0xd8ee
bfc00ec8:	35082d71 	ori	t0,t0,0x2d71
bfc00ecc:	3409afec 	li	t1,0xafec
bfc00ed0:	3110afec 	andi	s0,t0,0xafec
bfc00ed4:	24122d60 	li	s2,11616
bfc00ed8:	16120452 	bne	s0,s2,bfc02024 <inst_error>
bfc00edc:	00000000 	nop
bfc00ee0:	3c08c079 	lui	t0,0xc079
bfc00ee4:	35088d00 	ori	t0,t0,0x8d00
bfc00ee8:	24094390 	li	t1,17296
bfc00eec:	31104390 	andi	s0,t0,0x4390
bfc00ef0:	24120100 	li	s2,256
bfc00ef4:	1612044b 	bne	s0,s2,bfc02024 <inst_error>
bfc00ef8:	00000000 	nop
bfc00efc:	3c08ea32 	lui	t0,0xea32
bfc00f00:	35085e48 	ori	t0,t0,0x5e48
bfc00f04:	3409d1b4 	li	t1,0xd1b4
bfc00f08:	3110d1b4 	andi	s0,t0,0xd1b4
bfc00f0c:	24125000 	li	s2,20480
bfc00f10:	16120444 	bne	s0,s2,bfc02024 <inst_error>
bfc00f14:	00000000 	nop
bfc00f18:	3c082bac 	lui	t0,0x2bac
bfc00f1c:	35084149 	ori	t0,t0,0x4149
bfc00f20:	24093a30 	li	t1,14896
bfc00f24:	31103a30 	andi	s0,t0,0x3a30
bfc00f28:	24120000 	li	s2,0
bfc00f2c:	1612043d 	bne	s0,s2,bfc02024 <inst_error>
bfc00f30:	00000000 	nop
bfc00f34:	3c08377d 	lui	t0,0x377d
bfc00f38:	35084040 	ori	t0,t0,0x4040
bfc00f3c:	34098ecc 	li	t1,0x8ecc
bfc00f40:	31108ecc 	andi	s0,t0,0x8ecc
bfc00f44:	24120040 	li	s2,64
bfc00f48:	16120436 	bne	s0,s2,bfc02024 <inst_error>
bfc00f4c:	00000000 	nop
bfc00f50:	3c08cdf6 	lui	t0,0xcdf6
bfc00f54:	35082f00 	ori	t0,t0,0x2f00
bfc00f58:	3409b508 	li	t1,0xb508
bfc00f5c:	3110b508 	andi	s0,t0,0xb508
bfc00f60:	24122500 	li	s2,9472
bfc00f64:	1612042f 	bne	s0,s2,bfc02024 <inst_error>
bfc00f68:	00000000 	nop
bfc00f6c:	3c0815c1 	lui	t0,0x15c1
bfc00f70:	3508c13e 	ori	t0,t0,0xc13e
bfc00f74:	2409646c 	li	t1,25708
bfc00f78:	3110646c 	andi	s0,t0,0x646c
bfc00f7c:	2412402c 	li	s2,16428
bfc00f80:	16120428 	bne	s0,s2,bfc02024 <inst_error>
bfc00f84:	00000000 	nop
bfc00f88:	3c08babb 	lui	t0,0xbabb
bfc00f8c:	35085e27 	ori	t0,t0,0x5e27
bfc00f90:	24091d0e 	li	t1,7438
bfc00f94:	31101d0e 	andi	s0,t0,0x1d0e
bfc00f98:	24121c06 	li	s2,7174
bfc00f9c:	16120421 	bne	s0,s2,bfc02024 <inst_error>
bfc00fa0:	00000000 	nop
bfc00fa4:	3c0804d9 	lui	t0,0x4d9
bfc00fa8:	350831c0 	ori	t0,t0,0x31c0
bfc00fac:	24091adc 	li	t1,6876
bfc00fb0:	31101adc 	andi	s0,t0,0x1adc
bfc00fb4:	241210c0 	li	s2,4288
bfc00fb8:	1612041a 	bne	s0,s2,bfc02024 <inst_error>
bfc00fbc:	00000000 	nop
bfc00fc0:	3c084942 	lui	t0,0x4942
bfc00fc4:	35086dd4 	ori	t0,t0,0x6dd4
bfc00fc8:	24097d1e 	li	t1,32030
bfc00fcc:	31107d1e 	andi	s0,t0,0x7d1e
bfc00fd0:	24126d14 	li	s2,27924
bfc00fd4:	16120413 	bne	s0,s2,bfc02024 <inst_error>
bfc00fd8:	00000000 	nop
bfc00fdc:	3c086f24 	lui	t0,0x6f24
bfc00fe0:	3508aeec 	ori	t0,t0,0xaeec
bfc00fe4:	3409f88b 	li	t1,0xf88b
bfc00fe8:	3110f88b 	andi	s0,t0,0xf88b
bfc00fec:	3412a888 	li	s2,0xa888
bfc00ff0:	1612040c 	bne	s0,s2,bfc02024 <inst_error>
bfc00ff4:	00000000 	nop
bfc00ff8:	3c08a5f5 	lui	t0,0xa5f5
bfc00ffc:	3508f200 	ori	t0,t0,0xf200
bfc01000:	240976b8 	li	t1,30392
bfc01004:	311076b8 	andi	s0,t0,0x76b8
bfc01008:	24127200 	li	s2,29184
bfc0100c:	16120405 	bne	s0,s2,bfc02024 <inst_error>
bfc01010:	00000000 	nop
bfc01014:	3c082582 	lui	t0,0x2582
bfc01018:	35086e76 	ori	t0,t0,0x6e76
bfc0101c:	240973d5 	li	t1,29653
bfc01020:	311073d5 	andi	s0,t0,0x73d5
bfc01024:	24126254 	li	s2,25172
bfc01028:	161203fe 	bne	s0,s2,bfc02024 <inst_error>
bfc0102c:	00000000 	nop
bfc01030:	3c08eddc 	lui	t0,0xeddc
bfc01034:	3508d8ec 	ori	t0,t0,0xd8ec
bfc01038:	3409f43a 	li	t1,0xf43a
bfc0103c:	3110f43a 	andi	s0,t0,0xf43a
bfc01040:	3412d028 	li	s2,0xd028
bfc01044:	161203f7 	bne	s0,s2,bfc02024 <inst_error>
bfc01048:	00000000 	nop
bfc0104c:	3c080007 	lui	t0,0x7
bfc01050:	3508e4e4 	ori	t0,t0,0xe4e4
bfc01054:	3409e474 	li	t1,0xe474
bfc01058:	3110e474 	andi	s0,t0,0xe474
bfc0105c:	3412e464 	li	s2,0xe464
bfc01060:	161203f0 	bne	s0,s2,bfc02024 <inst_error>
bfc01064:	00000000 	nop
bfc01068:	3c0862b8 	lui	t0,0x62b8
bfc0106c:	3508ba1c 	ori	t0,t0,0xba1c
bfc01070:	340989d0 	li	t1,0x89d0
bfc01074:	311089d0 	andi	s0,t0,0x89d0
bfc01078:	34128810 	li	s2,0x8810
bfc0107c:	161203e9 	bne	s0,s2,bfc02024 <inst_error>
bfc01080:	00000000 	nop
bfc01084:	3c08cc5c 	lui	t0,0xcc5c
bfc01088:	350834c4 	ori	t0,t0,0x34c4
bfc0108c:	3409cfce 	li	t1,0xcfce
bfc01090:	3110cfce 	andi	s0,t0,0xcfce
bfc01094:	241204c4 	li	s2,1220
bfc01098:	161203e2 	bne	s0,s2,bfc02024 <inst_error>
bfc0109c:	00000000 	nop
bfc010a0:	3c08eb34 	lui	t0,0xeb34
bfc010a4:	35082068 	ori	t0,t0,0x2068
bfc010a8:	3409c734 	li	t1,0xc734
bfc010ac:	3110c734 	andi	s0,t0,0xc734
bfc010b0:	24120020 	li	s2,32
bfc010b4:	161203db 	bne	s0,s2,bfc02024 <inst_error>
bfc010b8:	00000000 	nop
bfc010bc:	3c08c2ca 	lui	t0,0xc2ca
bfc010c0:	3508db00 	ori	t0,t0,0xdb00
bfc010c4:	340982b1 	li	t1,0x82b1
bfc010c8:	311082b1 	andi	s0,t0,0x82b1
bfc010cc:	34128200 	li	s2,0x8200
bfc010d0:	161203d4 	bne	s0,s2,bfc02024 <inst_error>
bfc010d4:	00000000 	nop
bfc010d8:	3c08f168 	lui	t0,0xf168
bfc010dc:	3508f07c 	ori	t0,t0,0xf07c
bfc010e0:	24093e4f 	li	t1,15951
bfc010e4:	31103e4f 	andi	s0,t0,0x3e4f
bfc010e8:	2412304c 	li	s2,12364
bfc010ec:	161203cd 	bne	s0,s2,bfc02024 <inst_error>
bfc010f0:	00000000 	nop
bfc010f4:	3c08b7df 	lui	t0,0xb7df
bfc010f8:	3508c700 	ori	t0,t0,0xc700
bfc010fc:	3409ac0f 	li	t1,0xac0f
bfc01100:	3110ac0f 	andi	s0,t0,0xac0f
bfc01104:	34128400 	li	s2,0x8400
bfc01108:	161203c6 	bne	s0,s2,bfc02024 <inst_error>
bfc0110c:	00000000 	nop
bfc01110:	3c087dcb 	lui	t0,0x7dcb
bfc01114:	3508a54c 	ori	t0,t0,0xa54c
bfc01118:	3409d200 	li	t1,0xd200
bfc0111c:	3110d200 	andi	s0,t0,0xd200
bfc01120:	34128000 	li	s2,0x8000
bfc01124:	161203bf 	bne	s0,s2,bfc02024 <inst_error>
bfc01128:	00000000 	nop
bfc0112c:	3c0898a8 	lui	t0,0x98a8
bfc01130:	3508a1b0 	ori	t0,t0,0xa1b0
bfc01134:	3409f1d2 	li	t1,0xf1d2
bfc01138:	3110f1d2 	andi	s0,t0,0xf1d2
bfc0113c:	3412a190 	li	s2,0xa190
bfc01140:	161203b8 	bne	s0,s2,bfc02024 <inst_error>
bfc01144:	00000000 	nop
bfc01148:	3c08be67 	lui	t0,0xbe67
bfc0114c:	35086615 	ori	t0,t0,0x6615
bfc01150:	3409d896 	li	t1,0xd896
bfc01154:	3110d896 	andi	s0,t0,0xd896
bfc01158:	24124014 	li	s2,16404
bfc0115c:	161203b1 	bne	s0,s2,bfc02024 <inst_error>
bfc01160:	00000000 	nop
bfc01164:	3c080e2d 	lui	t0,0xe2d
bfc01168:	35080dac 	ori	t0,t0,0xdac
bfc0116c:	24092b1e 	li	t1,11038
bfc01170:	31102b1e 	andi	s0,t0,0x2b1e
bfc01174:	2412090c 	li	s2,2316
bfc01178:	161203aa 	bne	s0,s2,bfc02024 <inst_error>
bfc0117c:	00000000 	nop
bfc01180:	3c08ef28 	lui	t0,0xef28
bfc01184:	3508f600 	ori	t0,t0,0xf600
bfc01188:	3409e500 	li	t1,0xe500
bfc0118c:	3110e500 	andi	s0,t0,0xe500
bfc01190:	3412e400 	li	s2,0xe400
bfc01194:	161203a3 	bne	s0,s2,bfc02024 <inst_error>
bfc01198:	00000000 	nop
bfc0119c:	3c08cd0d 	lui	t0,0xcd0d
bfc011a0:	3508570c 	ori	t0,t0,0x570c
bfc011a4:	24090a1a 	li	t1,2586
bfc011a8:	31100a1a 	andi	s0,t0,0xa1a
bfc011ac:	24120208 	li	s2,520
bfc011b0:	1612039c 	bne	s0,s2,bfc02024 <inst_error>
bfc011b4:	00000000 	nop
bfc011b8:	3c08ec25 	lui	t0,0xec25
bfc011bc:	35084b7a 	ori	t0,t0,0x4b7a
bfc011c0:	34098804 	li	t1,0x8804
bfc011c4:	31108804 	andi	s0,t0,0x8804
bfc011c8:	24120800 	li	s2,2048
bfc011cc:	16120395 	bne	s0,s2,bfc02024 <inst_error>
bfc011d0:	00000000 	nop
bfc011d4:	3c083e31 	lui	t0,0x3e31
bfc011d8:	3508b970 	ori	t0,t0,0xb970
bfc011dc:	2409408e 	li	t1,16526
bfc011e0:	3110408e 	andi	s0,t0,0x408e
bfc011e4:	24120000 	li	s2,0
bfc011e8:	1612038e 	bne	s0,s2,bfc02024 <inst_error>
bfc011ec:	00000000 	nop
bfc011f0:	3c081e92 	lui	t0,0x1e92
bfc011f4:	35083138 	ori	t0,t0,0x3138
bfc011f8:	2409636d 	li	t1,25453
bfc011fc:	3110636d 	andi	s0,t0,0x636d
bfc01200:	24122128 	li	s2,8488
bfc01204:	16120387 	bne	s0,s2,bfc02024 <inst_error>
bfc01208:	00000000 	nop
bfc0120c:	3c081853 	lui	t0,0x1853
bfc01210:	3508113b 	ori	t0,t0,0x113b
bfc01214:	3409c1d6 	li	t1,0xc1d6
bfc01218:	3110c1d6 	andi	s0,t0,0xc1d6
bfc0121c:	24120112 	li	s2,274
bfc01220:	16120380 	bne	s0,s2,bfc02024 <inst_error>
bfc01224:	00000000 	nop
bfc01228:	3c0838ec 	lui	t0,0x38ec
bfc0122c:	35080c00 	ori	t0,t0,0xc00
bfc01230:	3409f89b 	li	t1,0xf89b
bfc01234:	3110f89b 	andi	s0,t0,0xf89b
bfc01238:	24120800 	li	s2,2048
bfc0123c:	16120379 	bne	s0,s2,bfc02024 <inst_error>
bfc01240:	00000000 	nop
bfc01244:	3c0890df 	lui	t0,0x90df
bfc01248:	3508c0f4 	ori	t0,t0,0xc0f4
bfc0124c:	3409e980 	li	t1,0xe980
bfc01250:	3110e980 	andi	s0,t0,0xe980
bfc01254:	3412c080 	li	s2,0xc080
bfc01258:	16120372 	bne	s0,s2,bfc02024 <inst_error>
bfc0125c:	00000000 	nop
bfc01260:	3c08f0f2 	lui	t0,0xf0f2
bfc01264:	3508863c 	ori	t0,t0,0x863c
bfc01268:	3409fbd9 	li	t1,0xfbd9
bfc0126c:	3110fbd9 	andi	s0,t0,0xfbd9
bfc01270:	34128218 	li	s2,0x8218
bfc01274:	1612036b 	bne	s0,s2,bfc02024 <inst_error>
bfc01278:	00000000 	nop
bfc0127c:	3c085893 	lui	t0,0x5893
bfc01280:	350805c8 	ori	t0,t0,0x5c8
bfc01284:	24094748 	li	t1,18248
bfc01288:	31104748 	andi	s0,t0,0x4748
bfc0128c:	24120548 	li	s2,1352
bfc01290:	16120364 	bne	s0,s2,bfc02024 <inst_error>
bfc01294:	00000000 	nop
bfc01298:	3c08cb3b 	lui	t0,0xcb3b
bfc0129c:	350843b8 	ori	t0,t0,0x43b8
bfc012a0:	24093bb8 	li	t1,15288
bfc012a4:	31103bb8 	andi	s0,t0,0x3bb8
bfc012a8:	241203b8 	li	s2,952
bfc012ac:	1612035d 	bne	s0,s2,bfc02024 <inst_error>
bfc012b0:	00000000 	nop
bfc012b4:	3c084fdf 	lui	t0,0x4fdf
bfc012b8:	3508a51c 	ori	t0,t0,0xa51c
bfc012bc:	24094eab 	li	t1,20139
bfc012c0:	31104eab 	andi	s0,t0,0x4eab
bfc012c4:	24120408 	li	s2,1032
bfc012c8:	16120356 	bne	s0,s2,bfc02024 <inst_error>
bfc012cc:	00000000 	nop
bfc012d0:	3c08ac86 	lui	t0,0xac86
bfc012d4:	3508fbe0 	ori	t0,t0,0xfbe0
bfc012d8:	24090972 	li	t1,2418
bfc012dc:	31100972 	andi	s0,t0,0x972
bfc012e0:	24120960 	li	s2,2400
bfc012e4:	1612034f 	bne	s0,s2,bfc02024 <inst_error>
bfc012e8:	00000000 	nop
bfc012ec:	3c086247 	lui	t0,0x6247
bfc012f0:	35084c80 	ori	t0,t0,0x4c80
bfc012f4:	24090b5a 	li	t1,2906
bfc012f8:	31100b5a 	andi	s0,t0,0xb5a
bfc012fc:	24120800 	li	s2,2048
bfc01300:	16120348 	bne	s0,s2,bfc02024 <inst_error>
bfc01304:	00000000 	nop
bfc01308:	3c08fef5 	lui	t0,0xfef5
bfc0130c:	35087efc 	ori	t0,t0,0x7efc
bfc01310:	3409ed98 	li	t1,0xed98
bfc01314:	3110ed98 	andi	s0,t0,0xed98
bfc01318:	24126c98 	li	s2,27800
bfc0131c:	16120341 	bne	s0,s2,bfc02024 <inst_error>
bfc01320:	00000000 	nop
bfc01324:	3c0862e5 	lui	t0,0x62e5
bfc01328:	35083c80 	ori	t0,t0,0x3c80
bfc0132c:	34098d5c 	li	t1,0x8d5c
bfc01330:	31108d5c 	andi	s0,t0,0x8d5c
bfc01334:	24120c00 	li	s2,3072
bfc01338:	1612033a 	bne	s0,s2,bfc02024 <inst_error>
bfc0133c:	00000000 	nop
bfc01340:	3c08297f 	lui	t0,0x297f
bfc01344:	35087040 	ori	t0,t0,0x7040
bfc01348:	34098e8f 	li	t1,0x8e8f
bfc0134c:	31108e8f 	andi	s0,t0,0x8e8f
bfc01350:	24120000 	li	s2,0
bfc01354:	16120333 	bne	s0,s2,bfc02024 <inst_error>
bfc01358:	00000000 	nop
bfc0135c:	3c08bdd8 	lui	t0,0xbdd8
bfc01360:	35081cc1 	ori	t0,t0,0x1cc1
bfc01364:	3409e399 	li	t1,0xe399
bfc01368:	3110e399 	andi	s0,t0,0xe399
bfc0136c:	24120081 	li	s2,129
bfc01370:	1612032c 	bne	s0,s2,bfc02024 <inst_error>
bfc01374:	00000000 	nop
bfc01378:	3c08a6cd 	lui	t0,0xa6cd
bfc0137c:	350825d9 	ori	t0,t0,0x25d9
bfc01380:	24092e4c 	li	t1,11852
bfc01384:	31102e4c 	andi	s0,t0,0x2e4c
bfc01388:	24122448 	li	s2,9288
bfc0138c:	16120325 	bne	s0,s2,bfc02024 <inst_error>
bfc01390:	00000000 	nop
bfc01394:	3c081a63 	lui	t0,0x1a63
bfc01398:	35088e63 	ori	t0,t0,0x8e63
bfc0139c:	3409958a 	li	t1,0x958a
bfc013a0:	3110958a 	andi	s0,t0,0x958a
bfc013a4:	34128402 	li	s2,0x8402
bfc013a8:	1612031e 	bne	s0,s2,bfc02024 <inst_error>
bfc013ac:	00000000 	nop
bfc013b0:	3c088dc0 	lui	t0,0x8dc0
bfc013b4:	3508afec 	ori	t0,t0,0xafec
bfc013b8:	340984f0 	li	t1,0x84f0
bfc013bc:	311084f0 	andi	s0,t0,0x84f0
bfc013c0:	341284e0 	li	s2,0x84e0
bfc013c4:	16120317 	bne	s0,s2,bfc02024 <inst_error>
bfc013c8:	00000000 	nop
bfc013cc:	3c086bae 	lui	t0,0x6bae
bfc013d0:	3508246e 	ori	t0,t0,0x246e
bfc013d4:	3409b060 	li	t1,0xb060
bfc013d8:	3110b060 	andi	s0,t0,0xb060
bfc013dc:	24122060 	li	s2,8288
bfc013e0:	16120310 	bne	s0,s2,bfc02024 <inst_error>
bfc013e4:	00000000 	nop
bfc013e8:	3c083cfa 	lui	t0,0x3cfa
bfc013ec:	3508ff80 	ori	t0,t0,0xff80
bfc013f0:	2409275b 	li	t1,10075
bfc013f4:	3110275b 	andi	s0,t0,0x275b
bfc013f8:	24122700 	li	s2,9984
bfc013fc:	16120309 	bne	s0,s2,bfc02024 <inst_error>
bfc01400:	00000000 	nop
bfc01404:	3c085695 	lui	t0,0x5695
bfc01408:	35087cf1 	ori	t0,t0,0x7cf1
bfc0140c:	2409085c 	li	t1,2140
bfc01410:	3110085c 	andi	s0,t0,0x85c
bfc01414:	24120850 	li	s2,2128
bfc01418:	16120302 	bne	s0,s2,bfc02024 <inst_error>
bfc0141c:	00000000 	nop
bfc01420:	3c08ab39 	lui	t0,0xab39
bfc01424:	35089314 	ori	t0,t0,0x9314
bfc01428:	3409c874 	li	t1,0xc874
bfc0142c:	3110c874 	andi	s0,t0,0xc874
bfc01430:	34128014 	li	s2,0x8014
bfc01434:	161202fb 	bne	s0,s2,bfc02024 <inst_error>
bfc01438:	00000000 	nop
bfc0143c:	3c08bb5c 	lui	t0,0xbb5c
bfc01440:	35086f4a 	ori	t0,t0,0x6f4a
bfc01444:	2409228f 	li	t1,8847
bfc01448:	3110228f 	andi	s0,t0,0x228f
bfc0144c:	2412220a 	li	s2,8714
bfc01450:	161202f4 	bne	s0,s2,bfc02024 <inst_error>
bfc01454:	00000000 	nop
bfc01458:	3c0889e8 	lui	t0,0x89e8
bfc0145c:	35084318 	ori	t0,t0,0x4318
bfc01460:	3409cef4 	li	t1,0xcef4
bfc01464:	3110cef4 	andi	s0,t0,0xcef4
bfc01468:	24124210 	li	s2,16912
bfc0146c:	161202ed 	bne	s0,s2,bfc02024 <inst_error>
bfc01470:	00000000 	nop
bfc01474:	3c08dcb8 	lui	t0,0xdcb8
bfc01478:	35088a10 	ori	t0,t0,0x8a10
bfc0147c:	3409d9dc 	li	t1,0xd9dc
bfc01480:	3110d9dc 	andi	s0,t0,0xd9dc
bfc01484:	34128810 	li	s2,0x8810
bfc01488:	161202e6 	bne	s0,s2,bfc02024 <inst_error>
bfc0148c:	00000000 	nop
bfc01490:	3c089c17 	lui	t0,0x9c17
bfc01494:	35088075 	ori	t0,t0,0x8075
bfc01498:	240902ff 	li	t1,767
bfc0149c:	311002ff 	andi	s0,t0,0x2ff
bfc014a0:	24120075 	li	s2,117
bfc014a4:	161202df 	bne	s0,s2,bfc02024 <inst_error>
bfc014a8:	00000000 	nop
bfc014ac:	3c08703d 	lui	t0,0x703d
bfc014b0:	3508ef20 	ori	t0,t0,0xef20
bfc014b4:	24092201 	li	t1,8705
bfc014b8:	31102201 	andi	s0,t0,0x2201
bfc014bc:	24122200 	li	s2,8704
bfc014c0:	161202d8 	bne	s0,s2,bfc02024 <inst_error>
bfc014c4:	00000000 	nop
bfc014c8:	3c08525f 	lui	t0,0x525f
bfc014cc:	35081bc4 	ori	t0,t0,0x1bc4
bfc014d0:	3409ff42 	li	t1,0xff42
bfc014d4:	3110ff42 	andi	s0,t0,0xff42
bfc014d8:	24121b40 	li	s2,6976
bfc014dc:	161202d1 	bne	s0,s2,bfc02024 <inst_error>
bfc014e0:	00000000 	nop
bfc014e4:	3c0840e4 	lui	t0,0x40e4
bfc014e8:	35085ee8 	ori	t0,t0,0x5ee8
bfc014ec:	2409387d 	li	t1,14461
bfc014f0:	3110387d 	andi	s0,t0,0x387d
bfc014f4:	24121868 	li	s2,6248
bfc014f8:	161202ca 	bne	s0,s2,bfc02024 <inst_error>
bfc014fc:	00000000 	nop
bfc01500:	3c08fd12 	lui	t0,0xfd12
bfc01504:	3508c8b8 	ori	t0,t0,0xc8b8
bfc01508:	24093e3d 	li	t1,15933
bfc0150c:	31103e3d 	andi	s0,t0,0x3e3d
bfc01510:	24120838 	li	s2,2104
bfc01514:	161202c3 	bne	s0,s2,bfc02024 <inst_error>
bfc01518:	00000000 	nop
bfc0151c:	3c088dd3 	lui	t0,0x8dd3
bfc01520:	35084660 	ori	t0,t0,0x4660
bfc01524:	3409e6b9 	li	t1,0xe6b9
bfc01528:	3110e6b9 	andi	s0,t0,0xe6b9
bfc0152c:	24124620 	li	s2,17952
bfc01530:	161202bc 	bne	s0,s2,bfc02024 <inst_error>
bfc01534:	00000000 	nop
bfc01538:	3c082d89 	lui	t0,0x2d89
bfc0153c:	35089331 	ori	t0,t0,0x9331
bfc01540:	240902c0 	li	t1,704
bfc01544:	311002c0 	andi	s0,t0,0x2c0
bfc01548:	24120200 	li	s2,512
bfc0154c:	161202b5 	bne	s0,s2,bfc02024 <inst_error>
bfc01550:	00000000 	nop
bfc01554:	3c08c380 	lui	t0,0xc380
bfc01558:	3508bae0 	ori	t0,t0,0xbae0
bfc0155c:	24091ccf 	li	t1,7375
bfc01560:	31101ccf 	andi	s0,t0,0x1ccf
bfc01564:	241218c0 	li	s2,6336
bfc01568:	161202ae 	bne	s0,s2,bfc02024 <inst_error>
bfc0156c:	00000000 	nop
bfc01570:	3c086901 	lui	t0,0x6901
bfc01574:	3508f8aa 	ori	t0,t0,0xf8aa
bfc01578:	3409d7be 	li	t1,0xd7be
bfc0157c:	3110d7be 	andi	s0,t0,0xd7be
bfc01580:	3412d0aa 	li	s2,0xd0aa
bfc01584:	161202a7 	bne	s0,s2,bfc02024 <inst_error>
bfc01588:	00000000 	nop
bfc0158c:	3c08195e 	lui	t0,0x195e
bfc01590:	35085c70 	ori	t0,t0,0x5c70
bfc01594:	3409d28c 	li	t1,0xd28c
bfc01598:	3110d28c 	andi	s0,t0,0xd28c
bfc0159c:	24125000 	li	s2,20480
bfc015a0:	161202a0 	bne	s0,s2,bfc02024 <inst_error>
bfc015a4:	00000000 	nop
bfc015a8:	3c08045d 	lui	t0,0x45d
bfc015ac:	35080d20 	ori	t0,t0,0xd20
bfc015b0:	2409197d 	li	t1,6525
bfc015b4:	3110197d 	andi	s0,t0,0x197d
bfc015b8:	24120920 	li	s2,2336
bfc015bc:	16120299 	bne	s0,s2,bfc02024 <inst_error>
bfc015c0:	00000000 	nop
bfc015c4:	3c085852 	lui	t0,0x5852
bfc015c8:	35083014 	ori	t0,t0,0x3014
bfc015cc:	24096d72 	li	t1,28018
bfc015d0:	31106d72 	andi	s0,t0,0x6d72
bfc015d4:	24122010 	li	s2,8208
bfc015d8:	16120292 	bne	s0,s2,bfc02024 <inst_error>
bfc015dc:	00000000 	nop
bfc015e0:	3c084593 	lui	t0,0x4593
bfc015e4:	3508277c 	ori	t0,t0,0x277c
bfc015e8:	24090000 	li	t1,0
bfc015ec:	31100000 	andi	s0,t0,0x0
bfc015f0:	24120000 	li	s2,0
bfc015f4:	1612028b 	bne	s0,s2,bfc02024 <inst_error>
bfc015f8:	00000000 	nop
bfc015fc:	3c0849b1 	lui	t0,0x49b1
bfc01600:	3508cc7b 	ori	t0,t0,0xcc7b
bfc01604:	24090000 	li	t1,0
bfc01608:	31100000 	andi	s0,t0,0x0
bfc0160c:	24120000 	li	s2,0
bfc01610:	16120284 	bne	s0,s2,bfc02024 <inst_error>
bfc01614:	00000000 	nop
bfc01618:	3c08f03f 	lui	t0,0xf03f
bfc0161c:	35087e70 	ori	t0,t0,0x7e70
bfc01620:	24090000 	li	t1,0
bfc01624:	31100000 	andi	s0,t0,0x0
bfc01628:	24120000 	li	s2,0
bfc0162c:	1612027d 	bne	s0,s2,bfc02024 <inst_error>
bfc01630:	00000000 	nop
bfc01634:	3c0843ea 	lui	t0,0x43ea
bfc01638:	3508e8f0 	ori	t0,t0,0xe8f0
bfc0163c:	24090000 	li	t1,0
bfc01640:	31100000 	andi	s0,t0,0x0
bfc01644:	24120000 	li	s2,0
bfc01648:	16120276 	bne	s0,s2,bfc02024 <inst_error>
bfc0164c:	00000000 	nop
bfc01650:	3c08c5a8 	lui	t0,0xc5a8
bfc01654:	35082940 	ori	t0,t0,0x2940
bfc01658:	24090000 	li	t1,0
bfc0165c:	31100000 	andi	s0,t0,0x0
bfc01660:	24120000 	li	s2,0
bfc01664:	1612026f 	bne	s0,s2,bfc02024 <inst_error>
bfc01668:	00000000 	nop
bfc0166c:	3c08ac1f 	lui	t0,0xac1f
bfc01670:	350835a0 	ori	t0,t0,0x35a0
bfc01674:	24090000 	li	t1,0
bfc01678:	31100000 	andi	s0,t0,0x0
bfc0167c:	24120000 	li	s2,0
bfc01680:	16120268 	bne	s0,s2,bfc02024 <inst_error>
bfc01684:	00000000 	nop
bfc01688:	3c08ac1b 	lui	t0,0xac1b
bfc0168c:	35080623 	ori	t0,t0,0x623
bfc01690:	24090000 	li	t1,0
bfc01694:	31100000 	andi	s0,t0,0x0
bfc01698:	24120000 	li	s2,0
bfc0169c:	16120261 	bne	s0,s2,bfc02024 <inst_error>
bfc016a0:	00000000 	nop
bfc016a4:	3c083abb 	lui	t0,0x3abb
bfc016a8:	350876c0 	ori	t0,t0,0x76c0
bfc016ac:	24090000 	li	t1,0
bfc016b0:	31100000 	andi	s0,t0,0x0
bfc016b4:	24120000 	li	s2,0
bfc016b8:	1612025a 	bne	s0,s2,bfc02024 <inst_error>
bfc016bc:	00000000 	nop
bfc016c0:	3c08cf6b 	lui	t0,0xcf6b
bfc016c4:	3508d3fc 	ori	t0,t0,0xd3fc
bfc016c8:	24090000 	li	t1,0
bfc016cc:	31100000 	andi	s0,t0,0x0
bfc016d0:	24120000 	li	s2,0
bfc016d4:	16120253 	bne	s0,s2,bfc02024 <inst_error>
bfc016d8:	00000000 	nop
bfc016dc:	3c083b7f 	lui	t0,0x3b7f
bfc016e0:	350871f3 	ori	t0,t0,0x71f3
bfc016e4:	24090000 	li	t1,0
bfc016e8:	31100000 	andi	s0,t0,0x0
bfc016ec:	24120000 	li	s2,0
bfc016f0:	1612024c 	bne	s0,s2,bfc02024 <inst_error>
bfc016f4:	00000000 	nop
bfc016f8:	3c089fef 	lui	t0,0x9fef
bfc016fc:	35081a7c 	ori	t0,t0,0x1a7c
bfc01700:	24090000 	li	t1,0
bfc01704:	31100000 	andi	s0,t0,0x0
bfc01708:	24120000 	li	s2,0
bfc0170c:	16120245 	bne	s0,s2,bfc02024 <inst_error>
bfc01710:	00000000 	nop
bfc01714:	3c08b198 	lui	t0,0xb198
bfc01718:	35080f60 	ori	t0,t0,0xf60
bfc0171c:	24090000 	li	t1,0
bfc01720:	31100000 	andi	s0,t0,0x0
bfc01724:	24120000 	li	s2,0
bfc01728:	1612023e 	bne	s0,s2,bfc02024 <inst_error>
bfc0172c:	00000000 	nop
bfc01730:	3c08135f 	lui	t0,0x135f
bfc01734:	35083ae8 	ori	t0,t0,0x3ae8
bfc01738:	24090000 	li	t1,0
bfc0173c:	31100000 	andi	s0,t0,0x0
bfc01740:	24120000 	li	s2,0
bfc01744:	16120237 	bne	s0,s2,bfc02024 <inst_error>
bfc01748:	00000000 	nop
bfc0174c:	3c081638 	lui	t0,0x1638
bfc01750:	3508ddf6 	ori	t0,t0,0xddf6
bfc01754:	24090000 	li	t1,0
bfc01758:	31100000 	andi	s0,t0,0x0
bfc0175c:	24120000 	li	s2,0
bfc01760:	16120230 	bne	s0,s2,bfc02024 <inst_error>
bfc01764:	00000000 	nop
bfc01768:	3c08426d 	lui	t0,0x426d
bfc0176c:	35083664 	ori	t0,t0,0x3664
bfc01770:	24090000 	li	t1,0
bfc01774:	31100000 	andi	s0,t0,0x0
bfc01778:	24120000 	li	s2,0
bfc0177c:	16120229 	bne	s0,s2,bfc02024 <inst_error>
bfc01780:	00000000 	nop
bfc01784:	3c08a164 	lui	t0,0xa164
bfc01788:	3508a7a3 	ori	t0,t0,0xa7a3
bfc0178c:	24090000 	li	t1,0
bfc01790:	31100000 	andi	s0,t0,0x0
bfc01794:	24120000 	li	s2,0
bfc01798:	16120222 	bne	s0,s2,bfc02024 <inst_error>
bfc0179c:	00000000 	nop
bfc017a0:	3c08af15 	lui	t0,0xaf15
bfc017a4:	35089c7a 	ori	t0,t0,0x9c7a
bfc017a8:	24090000 	li	t1,0
bfc017ac:	31100000 	andi	s0,t0,0x0
bfc017b0:	24120000 	li	s2,0
bfc017b4:	1612021b 	bne	s0,s2,bfc02024 <inst_error>
bfc017b8:	00000000 	nop
bfc017bc:	3c086895 	lui	t0,0x6895
bfc017c0:	35080560 	ori	t0,t0,0x560
bfc017c4:	24090000 	li	t1,0
bfc017c8:	31100000 	andi	s0,t0,0x0
bfc017cc:	24120000 	li	s2,0
bfc017d0:	16120214 	bne	s0,s2,bfc02024 <inst_error>
bfc017d4:	00000000 	nop
bfc017d8:	3c08840c 	lui	t0,0x840c
bfc017dc:	3508ef68 	ori	t0,t0,0xef68
bfc017e0:	24090000 	li	t1,0
bfc017e4:	31100000 	andi	s0,t0,0x0
bfc017e8:	24120000 	li	s2,0
bfc017ec:	1612020d 	bne	s0,s2,bfc02024 <inst_error>
bfc017f0:	00000000 	nop
bfc017f4:	3c0865a7 	lui	t0,0x65a7
bfc017f8:	35082314 	ori	t0,t0,0x2314
bfc017fc:	24090000 	li	t1,0
bfc01800:	31100000 	andi	s0,t0,0x0
bfc01804:	24120000 	li	s2,0
bfc01808:	16120206 	bne	s0,s2,bfc02024 <inst_error>
bfc0180c:	00000000 	nop
bfc01810:	3c084372 	lui	t0,0x4372
bfc01814:	3508c5c0 	ori	t0,t0,0xc5c0
bfc01818:	24090000 	li	t1,0
bfc0181c:	31100000 	andi	s0,t0,0x0
bfc01820:	24120000 	li	s2,0
bfc01824:	161201ff 	bne	s0,s2,bfc02024 <inst_error>
bfc01828:	00000000 	nop
bfc0182c:	3c0880f3 	lui	t0,0x80f3
bfc01830:	3508a836 	ori	t0,t0,0xa836
bfc01834:	24090000 	li	t1,0
bfc01838:	31100000 	andi	s0,t0,0x0
bfc0183c:	24120000 	li	s2,0
bfc01840:	161201f8 	bne	s0,s2,bfc02024 <inst_error>
bfc01844:	00000000 	nop
bfc01848:	3c08c617 	lui	t0,0xc617
bfc0184c:	350877fc 	ori	t0,t0,0x77fc
bfc01850:	24090000 	li	t1,0
bfc01854:	31100000 	andi	s0,t0,0x0
bfc01858:	24120000 	li	s2,0
bfc0185c:	161201f1 	bne	s0,s2,bfc02024 <inst_error>
bfc01860:	00000000 	nop
bfc01864:	3c08de35 	lui	t0,0xde35
bfc01868:	3508ed25 	ori	t0,t0,0xed25
bfc0186c:	24090000 	li	t1,0
bfc01870:	31100000 	andi	s0,t0,0x0
bfc01874:	24120000 	li	s2,0
bfc01878:	161201ea 	bne	s0,s2,bfc02024 <inst_error>
bfc0187c:	00000000 	nop
bfc01880:	3c0800f0 	lui	t0,0xf0
bfc01884:	3508ac7a 	ori	t0,t0,0xac7a
bfc01888:	24090000 	li	t1,0
bfc0188c:	31100000 	andi	s0,t0,0x0
bfc01890:	24120000 	li	s2,0
bfc01894:	161201e3 	bne	s0,s2,bfc02024 <inst_error>
bfc01898:	00000000 	nop
bfc0189c:	3c08b0de 	lui	t0,0xb0de
bfc018a0:	350836a8 	ori	t0,t0,0x36a8
bfc018a4:	24090000 	li	t1,0
bfc018a8:	31100000 	andi	s0,t0,0x0
bfc018ac:	24120000 	li	s2,0
bfc018b0:	161201dc 	bne	s0,s2,bfc02024 <inst_error>
bfc018b4:	00000000 	nop
bfc018b8:	3c0808f1 	lui	t0,0x8f1
bfc018bc:	35087adc 	ori	t0,t0,0x7adc
bfc018c0:	24090000 	li	t1,0
bfc018c4:	31100000 	andi	s0,t0,0x0
bfc018c8:	24120000 	li	s2,0
bfc018cc:	161201d5 	bne	s0,s2,bfc02024 <inst_error>
bfc018d0:	00000000 	nop
bfc018d4:	3c0815e1 	lui	t0,0x15e1
bfc018d8:	3508b69c 	ori	t0,t0,0xb69c
bfc018dc:	24090000 	li	t1,0
bfc018e0:	31100000 	andi	s0,t0,0x0
bfc018e4:	24120000 	li	s2,0
bfc018e8:	161201ce 	bne	s0,s2,bfc02024 <inst_error>
bfc018ec:	00000000 	nop
bfc018f0:	3c087b69 	lui	t0,0x7b69
bfc018f4:	350826c4 	ori	t0,t0,0x26c4
bfc018f8:	24090000 	li	t1,0
bfc018fc:	31100000 	andi	s0,t0,0x0
bfc01900:	24120000 	li	s2,0
bfc01904:	161201c7 	bne	s0,s2,bfc02024 <inst_error>
bfc01908:	00000000 	nop
bfc0190c:	3c08cc90 	lui	t0,0xcc90
bfc01910:	3508f600 	ori	t0,t0,0xf600
bfc01914:	24090000 	li	t1,0
bfc01918:	31100000 	andi	s0,t0,0x0
bfc0191c:	24120000 	li	s2,0
bfc01920:	161201c0 	bne	s0,s2,bfc02024 <inst_error>
bfc01924:	00000000 	nop
bfc01928:	3c0848c9 	lui	t0,0x48c9
bfc0192c:	3508e84b 	ori	t0,t0,0xe84b
bfc01930:	24090000 	li	t1,0
bfc01934:	31100000 	andi	s0,t0,0x0
bfc01938:	24120000 	li	s2,0
bfc0193c:	161201b9 	bne	s0,s2,bfc02024 <inst_error>
bfc01940:	00000000 	nop
bfc01944:	3c08146f 	lui	t0,0x146f
bfc01948:	3508da2e 	ori	t0,t0,0xda2e
bfc0194c:	24090000 	li	t1,0
bfc01950:	31100000 	andi	s0,t0,0x0
bfc01954:	24120000 	li	s2,0
bfc01958:	161201b2 	bne	s0,s2,bfc02024 <inst_error>
bfc0195c:	00000000 	nop
bfc01960:	3c08aade 	lui	t0,0xaade
bfc01964:	35083180 	ori	t0,t0,0x3180
bfc01968:	24090000 	li	t1,0
bfc0196c:	31100000 	andi	s0,t0,0x0
bfc01970:	24120000 	li	s2,0
bfc01974:	161201ab 	bne	s0,s2,bfc02024 <inst_error>
bfc01978:	00000000 	nop
bfc0197c:	3c08a6d6 	lui	t0,0xa6d6
bfc01980:	3508f0f0 	ori	t0,t0,0xf0f0
bfc01984:	24090000 	li	t1,0
bfc01988:	31100000 	andi	s0,t0,0x0
bfc0198c:	24120000 	li	s2,0
bfc01990:	161201a4 	bne	s0,s2,bfc02024 <inst_error>
bfc01994:	00000000 	nop
bfc01998:	3c081be7 	lui	t0,0x1be7
bfc0199c:	35086f70 	ori	t0,t0,0x6f70
bfc019a0:	24090000 	li	t1,0
bfc019a4:	31100000 	andi	s0,t0,0x0
bfc019a8:	24120000 	li	s2,0
bfc019ac:	1612019d 	bne	s0,s2,bfc02024 <inst_error>
bfc019b0:	00000000 	nop
bfc019b4:	3c081f49 	lui	t0,0x1f49
bfc019b8:	3508becc 	ori	t0,t0,0xbecc
bfc019bc:	24090000 	li	t1,0
bfc019c0:	31100000 	andi	s0,t0,0x0
bfc019c4:	24120000 	li	s2,0
bfc019c8:	16120196 	bne	s0,s2,bfc02024 <inst_error>
bfc019cc:	00000000 	nop
bfc019d0:	3c08587e 	lui	t0,0x587e
bfc019d4:	35081ec1 	ori	t0,t0,0x1ec1
bfc019d8:	24090000 	li	t1,0
bfc019dc:	31100000 	andi	s0,t0,0x0
bfc019e0:	24120000 	li	s2,0
bfc019e4:	1612018f 	bne	s0,s2,bfc02024 <inst_error>
bfc019e8:	00000000 	nop
bfc019ec:	3c083b1d 	lui	t0,0x3b1d
bfc019f0:	35080ec0 	ori	t0,t0,0xec0
bfc019f4:	24090000 	li	t1,0
bfc019f8:	31100000 	andi	s0,t0,0x0
bfc019fc:	24120000 	li	s2,0
bfc01a00:	16120188 	bne	s0,s2,bfc02024 <inst_error>
bfc01a04:	00000000 	nop
bfc01a08:	3c08d3ac 	lui	t0,0xd3ac
bfc01a0c:	3508c110 	ori	t0,t0,0xc110
bfc01a10:	24090000 	li	t1,0
bfc01a14:	31100000 	andi	s0,t0,0x0
bfc01a18:	24120000 	li	s2,0
bfc01a1c:	16120181 	bne	s0,s2,bfc02024 <inst_error>
bfc01a20:	00000000 	nop
bfc01a24:	3c08e925 	lui	t0,0xe925
bfc01a28:	3508fd50 	ori	t0,t0,0xfd50
bfc01a2c:	24090000 	li	t1,0
bfc01a30:	31100000 	andi	s0,t0,0x0
bfc01a34:	24120000 	li	s2,0
bfc01a38:	1612017a 	bne	s0,s2,bfc02024 <inst_error>
bfc01a3c:	00000000 	nop
bfc01a40:	3c08cf2b 	lui	t0,0xcf2b
bfc01a44:	35088c46 	ori	t0,t0,0x8c46
bfc01a48:	24090000 	li	t1,0
bfc01a4c:	31100000 	andi	s0,t0,0x0
bfc01a50:	24120000 	li	s2,0
bfc01a54:	16120173 	bne	s0,s2,bfc02024 <inst_error>
bfc01a58:	00000000 	nop
bfc01a5c:	3c08368c 	lui	t0,0x368c
bfc01a60:	35085db5 	ori	t0,t0,0x5db5
bfc01a64:	24090000 	li	t1,0
bfc01a68:	31100000 	andi	s0,t0,0x0
bfc01a6c:	24120000 	li	s2,0
bfc01a70:	1612016c 	bne	s0,s2,bfc02024 <inst_error>
bfc01a74:	00000000 	nop
bfc01a78:	3c0800af 	lui	t0,0xaf
bfc01a7c:	3508f7c8 	ori	t0,t0,0xf7c8
bfc01a80:	24090000 	li	t1,0
bfc01a84:	31100000 	andi	s0,t0,0x0
bfc01a88:	24120000 	li	s2,0
bfc01a8c:	16120165 	bne	s0,s2,bfc02024 <inst_error>
bfc01a90:	00000000 	nop
bfc01a94:	3c083ce7 	lui	t0,0x3ce7
bfc01a98:	35084c00 	ori	t0,t0,0x4c00
bfc01a9c:	24090000 	li	t1,0
bfc01aa0:	31100000 	andi	s0,t0,0x0
bfc01aa4:	24120000 	li	s2,0
bfc01aa8:	1612015e 	bne	s0,s2,bfc02024 <inst_error>
bfc01aac:	00000000 	nop
bfc01ab0:	3c083131 	lui	t0,0x3131
bfc01ab4:	35088f60 	ori	t0,t0,0x8f60
bfc01ab8:	24090000 	li	t1,0
bfc01abc:	31100000 	andi	s0,t0,0x0
bfc01ac0:	24120000 	li	s2,0
bfc01ac4:	16120157 	bne	s0,s2,bfc02024 <inst_error>
bfc01ac8:	00000000 	nop
bfc01acc:	3c081b68 	lui	t0,0x1b68
bfc01ad0:	35084480 	ori	t0,t0,0x4480
bfc01ad4:	24090000 	li	t1,0
bfc01ad8:	31100000 	andi	s0,t0,0x0
bfc01adc:	24120000 	li	s2,0
bfc01ae0:	16120150 	bne	s0,s2,bfc02024 <inst_error>
bfc01ae4:	00000000 	nop
bfc01ae8:	3c08cfc9 	lui	t0,0xcfc9
bfc01aec:	3508a7a8 	ori	t0,t0,0xa7a8
bfc01af0:	24090000 	li	t1,0
bfc01af4:	31100000 	andi	s0,t0,0x0
bfc01af8:	24120000 	li	s2,0
bfc01afc:	16120149 	bne	s0,s2,bfc02024 <inst_error>
bfc01b00:	00000000 	nop
bfc01b04:	3c08f34f 	lui	t0,0xf34f
bfc01b08:	35089e20 	ori	t0,t0,0x9e20
bfc01b0c:	24090000 	li	t1,0
bfc01b10:	31100000 	andi	s0,t0,0x0
bfc01b14:	24120000 	li	s2,0
bfc01b18:	16120142 	bne	s0,s2,bfc02024 <inst_error>
bfc01b1c:	00000000 	nop
bfc01b20:	3c081914 	lui	t0,0x1914
bfc01b24:	3508123c 	ori	t0,t0,0x123c
bfc01b28:	24090000 	li	t1,0
bfc01b2c:	31100000 	andi	s0,t0,0x0
bfc01b30:	24120000 	li	s2,0
bfc01b34:	1612013b 	bne	s0,s2,bfc02024 <inst_error>
bfc01b38:	00000000 	nop
bfc01b3c:	3c08daaa 	lui	t0,0xdaaa
bfc01b40:	3508e9aa 	ori	t0,t0,0xe9aa
bfc01b44:	24090000 	li	t1,0
bfc01b48:	31100000 	andi	s0,t0,0x0
bfc01b4c:	24120000 	li	s2,0
bfc01b50:	16120134 	bne	s0,s2,bfc02024 <inst_error>
bfc01b54:	00000000 	nop
bfc01b58:	24080000 	li	t0,0
bfc01b5c:	3409f73c 	li	t1,0xf73c
bfc01b60:	3110f73c 	andi	s0,t0,0xf73c
bfc01b64:	24120000 	li	s2,0
bfc01b68:	1612012e 	bne	s0,s2,bfc02024 <inst_error>
bfc01b6c:	00000000 	nop
bfc01b70:	24080000 	li	t0,0
bfc01b74:	3409c186 	li	t1,0xc186
bfc01b78:	3110c186 	andi	s0,t0,0xc186
bfc01b7c:	24120000 	li	s2,0
bfc01b80:	16120128 	bne	s0,s2,bfc02024 <inst_error>
bfc01b84:	00000000 	nop
bfc01b88:	24080000 	li	t0,0
bfc01b8c:	24097b48 	li	t1,31560
bfc01b90:	31107b48 	andi	s0,t0,0x7b48
bfc01b94:	24120000 	li	s2,0
bfc01b98:	16120122 	bne	s0,s2,bfc02024 <inst_error>
bfc01b9c:	00000000 	nop
bfc01ba0:	24080000 	li	t0,0
bfc01ba4:	3409d5e0 	li	t1,0xd5e0
bfc01ba8:	3110d5e0 	andi	s0,t0,0xd5e0
bfc01bac:	24120000 	li	s2,0
bfc01bb0:	1612011c 	bne	s0,s2,bfc02024 <inst_error>
bfc01bb4:	00000000 	nop
bfc01bb8:	24080000 	li	t0,0
bfc01bbc:	24095495 	li	t1,21653
bfc01bc0:	31105495 	andi	s0,t0,0x5495
bfc01bc4:	24120000 	li	s2,0
bfc01bc8:	16120116 	bne	s0,s2,bfc02024 <inst_error>
bfc01bcc:	00000000 	nop
bfc01bd0:	24080000 	li	t0,0
bfc01bd4:	3409bafc 	li	t1,0xbafc
bfc01bd8:	3110bafc 	andi	s0,t0,0xbafc
bfc01bdc:	24120000 	li	s2,0
bfc01be0:	16120110 	bne	s0,s2,bfc02024 <inst_error>
bfc01be4:	00000000 	nop
bfc01be8:	24080000 	li	t0,0
bfc01bec:	3409b130 	li	t1,0xb130
bfc01bf0:	3110b130 	andi	s0,t0,0xb130
bfc01bf4:	24120000 	li	s2,0
bfc01bf8:	1612010a 	bne	s0,s2,bfc02024 <inst_error>
bfc01bfc:	00000000 	nop
bfc01c00:	24080000 	li	t0,0
bfc01c04:	24097965 	li	t1,31077
bfc01c08:	31107965 	andi	s0,t0,0x7965
bfc01c0c:	24120000 	li	s2,0
bfc01c10:	16120104 	bne	s0,s2,bfc02024 <inst_error>
bfc01c14:	00000000 	nop
bfc01c18:	24080000 	li	t0,0
bfc01c1c:	3409e238 	li	t1,0xe238
bfc01c20:	3110e238 	andi	s0,t0,0xe238
bfc01c24:	24120000 	li	s2,0
bfc01c28:	161200fe 	bne	s0,s2,bfc02024 <inst_error>
bfc01c2c:	00000000 	nop
bfc01c30:	24080000 	li	t0,0
bfc01c34:	34099444 	li	t1,0x9444
bfc01c38:	31109444 	andi	s0,t0,0x9444
bfc01c3c:	24120000 	li	s2,0
bfc01c40:	161200f8 	bne	s0,s2,bfc02024 <inst_error>
bfc01c44:	00000000 	nop
bfc01c48:	24080000 	li	t0,0
bfc01c4c:	24092fc4 	li	t1,12228
bfc01c50:	31102fc4 	andi	s0,t0,0x2fc4
bfc01c54:	24120000 	li	s2,0
bfc01c58:	161200f2 	bne	s0,s2,bfc02024 <inst_error>
bfc01c5c:	00000000 	nop
bfc01c60:	24080000 	li	t0,0
bfc01c64:	3409a378 	li	t1,0xa378
bfc01c68:	3110a378 	andi	s0,t0,0xa378
bfc01c6c:	24120000 	li	s2,0
bfc01c70:	161200ec 	bne	s0,s2,bfc02024 <inst_error>
bfc01c74:	00000000 	nop
bfc01c78:	24080000 	li	t0,0
bfc01c7c:	24091fa6 	li	t1,8102
bfc01c80:	31101fa6 	andi	s0,t0,0x1fa6
bfc01c84:	24120000 	li	s2,0
bfc01c88:	161200e6 	bne	s0,s2,bfc02024 <inst_error>
bfc01c8c:	00000000 	nop
bfc01c90:	24080000 	li	t0,0
bfc01c94:	24095b9e 	li	t1,23454
bfc01c98:	31105b9e 	andi	s0,t0,0x5b9e
bfc01c9c:	24120000 	li	s2,0
bfc01ca0:	161200e0 	bne	s0,s2,bfc02024 <inst_error>
bfc01ca4:	00000000 	nop
bfc01ca8:	24080000 	li	t0,0
bfc01cac:	34099928 	li	t1,0x9928
bfc01cb0:	31109928 	andi	s0,t0,0x9928
bfc01cb4:	24120000 	li	s2,0
bfc01cb8:	161200da 	bne	s0,s2,bfc02024 <inst_error>
bfc01cbc:	00000000 	nop
bfc01cc0:	24080000 	li	t0,0
bfc01cc4:	240933a0 	li	t1,13216
bfc01cc8:	311033a0 	andi	s0,t0,0x33a0
bfc01ccc:	24120000 	li	s2,0
bfc01cd0:	161200d4 	bne	s0,s2,bfc02024 <inst_error>
bfc01cd4:	00000000 	nop
bfc01cd8:	24080000 	li	t0,0
bfc01cdc:	24092f6d 	li	t1,12141
bfc01ce0:	31102f6d 	andi	s0,t0,0x2f6d
bfc01ce4:	24120000 	li	s2,0
bfc01ce8:	161200ce 	bne	s0,s2,bfc02024 <inst_error>
bfc01cec:	00000000 	nop
bfc01cf0:	24080000 	li	t0,0
bfc01cf4:	3409a348 	li	t1,0xa348
bfc01cf8:	3110a348 	andi	s0,t0,0xa348
bfc01cfc:	24120000 	li	s2,0
bfc01d00:	161200c8 	bne	s0,s2,bfc02024 <inst_error>
bfc01d04:	00000000 	nop
bfc01d08:	24080000 	li	t0,0
bfc01d0c:	24096f00 	li	t1,28416
bfc01d10:	31106f00 	andi	s0,t0,0x6f00
bfc01d14:	24120000 	li	s2,0
bfc01d18:	161200c2 	bne	s0,s2,bfc02024 <inst_error>
bfc01d1c:	00000000 	nop
bfc01d20:	24080000 	li	t0,0
bfc01d24:	24090900 	li	t1,2304
bfc01d28:	31100900 	andi	s0,t0,0x900
bfc01d2c:	24120000 	li	s2,0
bfc01d30:	161200bc 	bne	s0,s2,bfc02024 <inst_error>
bfc01d34:	00000000 	nop
bfc01d38:	24080000 	li	t0,0
bfc01d3c:	3409fba0 	li	t1,0xfba0
bfc01d40:	3110fba0 	andi	s0,t0,0xfba0
bfc01d44:	24120000 	li	s2,0
bfc01d48:	161200b6 	bne	s0,s2,bfc02024 <inst_error>
bfc01d4c:	00000000 	nop
bfc01d50:	24080000 	li	t0,0
bfc01d54:	3409d560 	li	t1,0xd560
bfc01d58:	3110d560 	andi	s0,t0,0xd560
bfc01d5c:	24120000 	li	s2,0
bfc01d60:	161200b0 	bne	s0,s2,bfc02024 <inst_error>
bfc01d64:	00000000 	nop
bfc01d68:	24080000 	li	t0,0
bfc01d6c:	24091099 	li	t1,4249
bfc01d70:	31101099 	andi	s0,t0,0x1099
bfc01d74:	24120000 	li	s2,0
bfc01d78:	161200aa 	bne	s0,s2,bfc02024 <inst_error>
bfc01d7c:	00000000 	nop
bfc01d80:	24080000 	li	t0,0
bfc01d84:	24095f98 	li	t1,24472
bfc01d88:	31105f98 	andi	s0,t0,0x5f98
bfc01d8c:	24120000 	li	s2,0
bfc01d90:	161200a4 	bne	s0,s2,bfc02024 <inst_error>
bfc01d94:	00000000 	nop
bfc01d98:	24080000 	li	t0,0
bfc01d9c:	3409fd24 	li	t1,0xfd24
bfc01da0:	3110fd24 	andi	s0,t0,0xfd24
bfc01da4:	24120000 	li	s2,0
bfc01da8:	1612009e 	bne	s0,s2,bfc02024 <inst_error>
bfc01dac:	00000000 	nop
bfc01db0:	24080000 	li	t0,0
bfc01db4:	3409e294 	li	t1,0xe294
bfc01db8:	3110e294 	andi	s0,t0,0xe294
bfc01dbc:	24120000 	li	s2,0
bfc01dc0:	16120098 	bne	s0,s2,bfc02024 <inst_error>
bfc01dc4:	00000000 	nop
bfc01dc8:	24080000 	li	t0,0
bfc01dcc:	340999c8 	li	t1,0x99c8
bfc01dd0:	311099c8 	andi	s0,t0,0x99c8
bfc01dd4:	24120000 	li	s2,0
bfc01dd8:	16120092 	bne	s0,s2,bfc02024 <inst_error>
bfc01ddc:	00000000 	nop
bfc01de0:	24080000 	li	t0,0
bfc01de4:	3409f52f 	li	t1,0xf52f
bfc01de8:	3110f52f 	andi	s0,t0,0xf52f
bfc01dec:	24120000 	li	s2,0
bfc01df0:	1612008c 	bne	s0,s2,bfc02024 <inst_error>
bfc01df4:	00000000 	nop
bfc01df8:	24080000 	li	t0,0
bfc01dfc:	340993e1 	li	t1,0x93e1
bfc01e00:	311093e1 	andi	s0,t0,0x93e1
bfc01e04:	24120000 	li	s2,0
bfc01e08:	16120086 	bne	s0,s2,bfc02024 <inst_error>
bfc01e0c:	00000000 	nop
bfc01e10:	24080000 	li	t0,0
bfc01e14:	240953c7 	li	t1,21447
bfc01e18:	311053c7 	andi	s0,t0,0x53c7
bfc01e1c:	24120000 	li	s2,0
bfc01e20:	16120080 	bne	s0,s2,bfc02024 <inst_error>
bfc01e24:	00000000 	nop
bfc01e28:	24080000 	li	t0,0
bfc01e2c:	34098718 	li	t1,0x8718
bfc01e30:	31108718 	andi	s0,t0,0x8718
bfc01e34:	24120000 	li	s2,0
bfc01e38:	1612007a 	bne	s0,s2,bfc02024 <inst_error>
bfc01e3c:	00000000 	nop
bfc01e40:	24080000 	li	t0,0
bfc01e44:	34099a98 	li	t1,0x9a98
bfc01e48:	31109a98 	andi	s0,t0,0x9a98
bfc01e4c:	24120000 	li	s2,0
bfc01e50:	16120074 	bne	s0,s2,bfc02024 <inst_error>
bfc01e54:	00000000 	nop
bfc01e58:	24080000 	li	t0,0
bfc01e5c:	2409495e 	li	t1,18782
bfc01e60:	3110495e 	andi	s0,t0,0x495e
bfc01e64:	24120000 	li	s2,0
bfc01e68:	1612006e 	bne	s0,s2,bfc02024 <inst_error>
bfc01e6c:	00000000 	nop
bfc01e70:	24080000 	li	t0,0
bfc01e74:	340980d0 	li	t1,0x80d0
bfc01e78:	311080d0 	andi	s0,t0,0x80d0
bfc01e7c:	24120000 	li	s2,0
bfc01e80:	16120068 	bne	s0,s2,bfc02024 <inst_error>
bfc01e84:	00000000 	nop
bfc01e88:	24080000 	li	t0,0
bfc01e8c:	24096cf5 	li	t1,27893
bfc01e90:	31106cf5 	andi	s0,t0,0x6cf5
bfc01e94:	24120000 	li	s2,0
bfc01e98:	16120062 	bne	s0,s2,bfc02024 <inst_error>
bfc01e9c:	00000000 	nop
bfc01ea0:	24080000 	li	t0,0
bfc01ea4:	24096f38 	li	t1,28472
bfc01ea8:	31106f38 	andi	s0,t0,0x6f38
bfc01eac:	24120000 	li	s2,0
bfc01eb0:	1612005c 	bne	s0,s2,bfc02024 <inst_error>
bfc01eb4:	00000000 	nop
bfc01eb8:	24080000 	li	t0,0
bfc01ebc:	34099801 	li	t1,0x9801
bfc01ec0:	31109801 	andi	s0,t0,0x9801
bfc01ec4:	24120000 	li	s2,0
bfc01ec8:	16120056 	bne	s0,s2,bfc02024 <inst_error>
bfc01ecc:	00000000 	nop
bfc01ed0:	24080000 	li	t0,0
bfc01ed4:	24097d32 	li	t1,32050
bfc01ed8:	31107d32 	andi	s0,t0,0x7d32
bfc01edc:	24120000 	li	s2,0
bfc01ee0:	16120050 	bne	s0,s2,bfc02024 <inst_error>
bfc01ee4:	00000000 	nop
bfc01ee8:	24080000 	li	t0,0
bfc01eec:	34099e2c 	li	t1,0x9e2c
bfc01ef0:	31109e2c 	andi	s0,t0,0x9e2c
bfc01ef4:	24120000 	li	s2,0
bfc01ef8:	1612004a 	bne	s0,s2,bfc02024 <inst_error>
bfc01efc:	00000000 	nop
bfc01f00:	24080000 	li	t0,0
bfc01f04:	240978b2 	li	t1,30898
bfc01f08:	311078b2 	andi	s0,t0,0x78b2
bfc01f0c:	24120000 	li	s2,0
bfc01f10:	16120044 	bne	s0,s2,bfc02024 <inst_error>
bfc01f14:	00000000 	nop
bfc01f18:	24080000 	li	t0,0
bfc01f1c:	24097028 	li	t1,28712
bfc01f20:	31107028 	andi	s0,t0,0x7028
bfc01f24:	24120000 	li	s2,0
bfc01f28:	1612003e 	bne	s0,s2,bfc02024 <inst_error>
bfc01f2c:	00000000 	nop
bfc01f30:	24080000 	li	t0,0
bfc01f34:	3409c013 	li	t1,0xc013
bfc01f38:	3110c013 	andi	s0,t0,0xc013
bfc01f3c:	24120000 	li	s2,0
bfc01f40:	16120038 	bne	s0,s2,bfc02024 <inst_error>
bfc01f44:	00000000 	nop
bfc01f48:	24080000 	li	t0,0
bfc01f4c:	3409e000 	li	t1,0xe000
bfc01f50:	3110e000 	andi	s0,t0,0xe000
bfc01f54:	24120000 	li	s2,0
bfc01f58:	16120032 	bne	s0,s2,bfc02024 <inst_error>
bfc01f5c:	00000000 	nop
bfc01f60:	24080000 	li	t0,0
bfc01f64:	3409db02 	li	t1,0xdb02
bfc01f68:	3110db02 	andi	s0,t0,0xdb02
bfc01f6c:	24120000 	li	s2,0
bfc01f70:	1612002c 	bne	s0,s2,bfc02024 <inst_error>
bfc01f74:	00000000 	nop
bfc01f78:	24080000 	li	t0,0
bfc01f7c:	3409cb00 	li	t1,0xcb00
bfc01f80:	3110cb00 	andi	s0,t0,0xcb00
bfc01f84:	24120000 	li	s2,0
bfc01f88:	16120026 	bne	s0,s2,bfc02024 <inst_error>
bfc01f8c:	00000000 	nop
bfc01f90:	24080000 	li	t0,0
bfc01f94:	3409ee05 	li	t1,0xee05
bfc01f98:	3110ee05 	andi	s0,t0,0xee05
bfc01f9c:	24120000 	li	s2,0
bfc01fa0:	16120020 	bne	s0,s2,bfc02024 <inst_error>
bfc01fa4:	00000000 	nop
bfc01fa8:	24080000 	li	t0,0
bfc01fac:	240924ca 	li	t1,9418
bfc01fb0:	311024ca 	andi	s0,t0,0x24ca
bfc01fb4:	24120000 	li	s2,0
bfc01fb8:	1612001a 	bne	s0,s2,bfc02024 <inst_error>
bfc01fbc:	00000000 	nop
bfc01fc0:	24080000 	li	t0,0
bfc01fc4:	240920b2 	li	t1,8370
bfc01fc8:	311020b2 	andi	s0,t0,0x20b2
bfc01fcc:	24120000 	li	s2,0
bfc01fd0:	16120014 	bne	s0,s2,bfc02024 <inst_error>
bfc01fd4:	00000000 	nop
bfc01fd8:	24080000 	li	t0,0
bfc01fdc:	24097bc7 	li	t1,31687
bfc01fe0:	31107bc7 	andi	s0,t0,0x7bc7
bfc01fe4:	24120000 	li	s2,0
bfc01fe8:	1612000e 	bne	s0,s2,bfc02024 <inst_error>
bfc01fec:	00000000 	nop
bfc01ff0:	24080000 	li	t0,0
bfc01ff4:	2409546b 	li	t1,21611
bfc01ff8:	3110546b 	andi	s0,t0,0x546b
bfc01ffc:	24120000 	li	s2,0
bfc02000:	16120008 	bne	s0,s2,bfc02024 <inst_error>
bfc02004:	00000000 	nop
bfc02008:	24080000 	li	t0,0
bfc0200c:	24090000 	li	t1,0
bfc02010:	31100000 	andi	s0,t0,0x0
bfc02014:	24120000 	li	s2,0
bfc02018:	16120002 	bne	s0,s2,bfc02024 <inst_error>
bfc0201c:	00000000 	nop
bfc02020:	4a000000 	c2	0x0

bfc02024 <inst_error>:
inst_error():
bfc02024:	0000003f 	0x3f

Disassembly of section .reginfo:

00000000 <.reginfo>:
   0:	00050300 	sll	zero,a1,0xc
	...
