
build/bne:     file format elf32-tradlittlemips
build/bne


Disassembly of section .text:

bfc00000 <main>:
bfc00000:	3c0c235f 	lui	t4,0x235f
bfc00004:	358cde00 	ori	t4,t4,0xde00
bfc00008:	3c0ddd59 	lui	t5,0xdd59
bfc0000c:	35ad7dde 	ori	t5,t5,0x7dde
bfc00010:	24100000 	li	s0,0
bfc00014:	24120000 	li	s2,0
bfc00018:	10000015 	b	bfc00070 <main+0x70>
bfc0001c:	00000000 	nop
bfc00020:	3c10235f 	lui	s0,0x235f
bfc00024:	3610de00 	ori	s0,s0,0xde00
bfc00028:	15280021 	bne	t1,t0,bfc000b0 <main+0xb0>
bfc0002c:	00000000 	nop
bfc00030:	10000021 	b	bfc000b8 <main+0xb8>
bfc00034:	00000000 	nop
bfc00038:	00000021 	move	zero,zero
bfc0003c:	00000021 	move	zero,zero
bfc00040:	00000021 	move	zero,zero
bfc00044:	00000021 	move	zero,zero
bfc00048:	00000021 	move	zero,zero
bfc0004c:	00000021 	move	zero,zero
bfc00050:	00000021 	move	zero,zero
bfc00054:	00000021 	move	zero,zero
bfc00058:	00000021 	move	zero,zero
bfc0005c:	00000021 	move	zero,zero
bfc00060:	00000021 	move	zero,zero
bfc00064:	00000021 	move	zero,zero
bfc00068:	00000021 	move	zero,zero
bfc0006c:	00000021 	move	zero,zero
bfc00070:	3c08bcaa 	lui	t0,0xbcaa
bfc00074:	3508bd27 	ori	t0,t0,0xbd27
bfc00078:	3c0982a7 	lui	t1,0x82a7
bfc0007c:	35297a9d 	ori	t1,t1,0x7a9d
bfc00080:	1509ffe7 	bne	t0,t1,bfc00020 <main+0x20>
bfc00084:	00000000 	nop
bfc00088:	1000000b 	b	bfc000b8 <main+0xb8>
bfc0008c:	00000000 	nop
bfc00090:	00000021 	move	zero,zero
bfc00094:	00000021 	move	zero,zero
bfc00098:	00000021 	move	zero,zero
bfc0009c:	00000021 	move	zero,zero
bfc000a0:	00000021 	move	zero,zero
bfc000a4:	00000021 	move	zero,zero
bfc000a8:	00000021 	move	zero,zero
bfc000ac:	00000021 	move	zero,zero
bfc000b0:	3c12dd59 	lui	s2,0xdd59
bfc000b4:	36527dde 	ori	s2,s2,0x7dde
bfc000b8:	00000000 	nop
bfc000bc:	3c14235f 	lui	s4,0x235f
bfc000c0:	3694de00 	ori	s4,s4,0xde00
bfc000c4:	16143f48 	bne	s0,s4,bfc0fde8 <inst_error>
bfc000c8:	00000000 	nop
bfc000cc:	3c15dd59 	lui	s5,0xdd59
bfc000d0:	36b57dde 	ori	s5,s5,0x7dde
bfc000d4:	16553f44 	bne	s2,s5,bfc0fde8 <inst_error>
bfc000d8:	00000000 	nop
bfc000dc:	3c0c9466 	lui	t4,0x9466
bfc000e0:	358c8000 	ori	t4,t4,0x8000
bfc000e4:	3c0de393 	lui	t5,0xe393
bfc000e8:	35ad9568 	ori	t5,t5,0x9568
bfc000ec:	24100000 	li	s0,0
bfc000f0:	24120000 	li	s2,0
bfc000f4:	10000015 	b	bfc0014c <main+0x14c>
bfc000f8:	00000000 	nop
bfc000fc:	3c109466 	lui	s0,0x9466
bfc00100:	36108000 	ori	s0,s0,0x8000
bfc00104:	15280021 	bne	t1,t0,bfc0018c <main+0x18c>
bfc00108:	00000000 	nop
bfc0010c:	10000021 	b	bfc00194 <main+0x194>
bfc00110:	00000000 	nop
bfc00114:	00000021 	move	zero,zero
bfc00118:	00000021 	move	zero,zero
bfc0011c:	00000021 	move	zero,zero
bfc00120:	00000021 	move	zero,zero
bfc00124:	00000021 	move	zero,zero
bfc00128:	00000021 	move	zero,zero
bfc0012c:	00000021 	move	zero,zero
bfc00130:	00000021 	move	zero,zero
bfc00134:	00000021 	move	zero,zero
bfc00138:	00000021 	move	zero,zero
bfc0013c:	00000021 	move	zero,zero
bfc00140:	00000021 	move	zero,zero
bfc00144:	00000021 	move	zero,zero
bfc00148:	00000021 	move	zero,zero
bfc0014c:	3c08db38 	lui	t0,0xdb38
bfc00150:	35086042 	ori	t0,t0,0x6042
bfc00154:	3c094f6d 	lui	t1,0x4f6d
bfc00158:	3529035f 	ori	t1,t1,0x35f
bfc0015c:	1509ffe7 	bne	t0,t1,bfc000fc <main+0xfc>
bfc00160:	00000000 	nop
bfc00164:	1000000b 	b	bfc00194 <main+0x194>
bfc00168:	00000000 	nop
bfc0016c:	00000021 	move	zero,zero
bfc00170:	00000021 	move	zero,zero
bfc00174:	00000021 	move	zero,zero
bfc00178:	00000021 	move	zero,zero
bfc0017c:	00000021 	move	zero,zero
bfc00180:	00000021 	move	zero,zero
bfc00184:	00000021 	move	zero,zero
bfc00188:	00000021 	move	zero,zero
bfc0018c:	3c12e393 	lui	s2,0xe393
bfc00190:	36529568 	ori	s2,s2,0x9568
bfc00194:	00000000 	nop
bfc00198:	3c149466 	lui	s4,0x9466
bfc0019c:	36948000 	ori	s4,s4,0x8000
bfc001a0:	16143f11 	bne	s0,s4,bfc0fde8 <inst_error>
bfc001a4:	00000000 	nop
bfc001a8:	3c15e393 	lui	s5,0xe393
bfc001ac:	36b59568 	ori	s5,s5,0x9568
bfc001b0:	16553f0d 	bne	s2,s5,bfc0fde8 <inst_error>
bfc001b4:	00000000 	nop
bfc001b8:	3c0c9d7e 	lui	t4,0x9d7e
bfc001bc:	358c5298 	ori	t4,t4,0x5298
bfc001c0:	3c0dddab 	lui	t5,0xddab
bfc001c4:	35ad2338 	ori	t5,t5,0x2338
bfc001c8:	24100000 	li	s0,0
bfc001cc:	24120000 	li	s2,0
bfc001d0:	10000015 	b	bfc00228 <main+0x228>
bfc001d4:	00000000 	nop
bfc001d8:	3c109d7e 	lui	s0,0x9d7e
bfc001dc:	36105298 	ori	s0,s0,0x5298
bfc001e0:	15280021 	bne	t1,t0,bfc00268 <main+0x268>
bfc001e4:	00000000 	nop
bfc001e8:	10000021 	b	bfc00270 <main+0x270>
bfc001ec:	00000000 	nop
bfc001f0:	00000021 	move	zero,zero
bfc001f4:	00000021 	move	zero,zero
bfc001f8:	00000021 	move	zero,zero
bfc001fc:	00000021 	move	zero,zero
bfc00200:	00000021 	move	zero,zero
bfc00204:	00000021 	move	zero,zero
bfc00208:	00000021 	move	zero,zero
bfc0020c:	00000021 	move	zero,zero
bfc00210:	00000021 	move	zero,zero
bfc00214:	00000021 	move	zero,zero
bfc00218:	00000021 	move	zero,zero
bfc0021c:	00000021 	move	zero,zero
bfc00220:	00000021 	move	zero,zero
bfc00224:	00000021 	move	zero,zero
bfc00228:	3c084d86 	lui	t0,0x4d86
bfc0022c:	3508020c 	ori	t0,t0,0x20c
bfc00230:	3c09a71f 	lui	t1,0xa71f
bfc00234:	35297d80 	ori	t1,t1,0x7d80
bfc00238:	1509ffe7 	bne	t0,t1,bfc001d8 <main+0x1d8>
bfc0023c:	00000000 	nop
bfc00240:	1000000b 	b	bfc00270 <main+0x270>
bfc00244:	00000000 	nop
bfc00248:	00000021 	move	zero,zero
bfc0024c:	00000021 	move	zero,zero
bfc00250:	00000021 	move	zero,zero
bfc00254:	00000021 	move	zero,zero
bfc00258:	00000021 	move	zero,zero
bfc0025c:	00000021 	move	zero,zero
bfc00260:	00000021 	move	zero,zero
bfc00264:	00000021 	move	zero,zero
bfc00268:	3c12ddab 	lui	s2,0xddab
bfc0026c:	36522338 	ori	s2,s2,0x2338
bfc00270:	00000000 	nop
bfc00274:	3c149d7e 	lui	s4,0x9d7e
bfc00278:	36945298 	ori	s4,s4,0x5298
bfc0027c:	16143eda 	bne	s0,s4,bfc0fde8 <inst_error>
bfc00280:	00000000 	nop
bfc00284:	3c15ddab 	lui	s5,0xddab
bfc00288:	36b52338 	ori	s5,s5,0x2338
bfc0028c:	16553ed6 	bne	s2,s5,bfc0fde8 <inst_error>
bfc00290:	00000000 	nop
bfc00294:	3c0c8a16 	lui	t4,0x8a16
bfc00298:	358c2fc0 	ori	t4,t4,0x2fc0
bfc0029c:	3c0ddee6 	lui	t5,0xdee6
bfc002a0:	35adc348 	ori	t5,t5,0xc348
bfc002a4:	24100000 	li	s0,0
bfc002a8:	24120000 	li	s2,0
bfc002ac:	10000015 	b	bfc00304 <main+0x304>
bfc002b0:	00000000 	nop
bfc002b4:	3c108a16 	lui	s0,0x8a16
bfc002b8:	36102fc0 	ori	s0,s0,0x2fc0
bfc002bc:	15280021 	bne	t1,t0,bfc00344 <main+0x344>
bfc002c0:	00000000 	nop
bfc002c4:	10000021 	b	bfc0034c <main+0x34c>
bfc002c8:	00000000 	nop
bfc002cc:	00000021 	move	zero,zero
bfc002d0:	00000021 	move	zero,zero
bfc002d4:	00000021 	move	zero,zero
bfc002d8:	00000021 	move	zero,zero
bfc002dc:	00000021 	move	zero,zero
bfc002e0:	00000021 	move	zero,zero
bfc002e4:	00000021 	move	zero,zero
bfc002e8:	00000021 	move	zero,zero
bfc002ec:	00000021 	move	zero,zero
bfc002f0:	00000021 	move	zero,zero
bfc002f4:	00000021 	move	zero,zero
bfc002f8:	00000021 	move	zero,zero
bfc002fc:	00000021 	move	zero,zero
bfc00300:	00000021 	move	zero,zero
bfc00304:	3c08d522 	lui	t0,0xd522
bfc00308:	350805c8 	ori	t0,t0,0x5c8
bfc0030c:	3c0960eb 	lui	t1,0x60eb
bfc00310:	35292f03 	ori	t1,t1,0x2f03
bfc00314:	1509ffe7 	bne	t0,t1,bfc002b4 <main+0x2b4>
bfc00318:	00000000 	nop
bfc0031c:	1000000b 	b	bfc0034c <main+0x34c>
bfc00320:	00000000 	nop
bfc00324:	00000021 	move	zero,zero
bfc00328:	00000021 	move	zero,zero
bfc0032c:	00000021 	move	zero,zero
bfc00330:	00000021 	move	zero,zero
bfc00334:	00000021 	move	zero,zero
bfc00338:	00000021 	move	zero,zero
bfc0033c:	00000021 	move	zero,zero
bfc00340:	00000021 	move	zero,zero
bfc00344:	3c12dee6 	lui	s2,0xdee6
bfc00348:	3652c348 	ori	s2,s2,0xc348
bfc0034c:	00000000 	nop
bfc00350:	3c148a16 	lui	s4,0x8a16
bfc00354:	36942fc0 	ori	s4,s4,0x2fc0
bfc00358:	16143ea3 	bne	s0,s4,bfc0fde8 <inst_error>
bfc0035c:	00000000 	nop
bfc00360:	3c15dee6 	lui	s5,0xdee6
bfc00364:	36b5c348 	ori	s5,s5,0xc348
bfc00368:	16553e9f 	bne	s2,s5,bfc0fde8 <inst_error>
bfc0036c:	00000000 	nop
bfc00370:	3c0c6019 	lui	t4,0x6019
bfc00374:	358c9ae4 	ori	t4,t4,0x9ae4
bfc00378:	3c0d3307 	lui	t5,0x3307
bfc0037c:	35ad7154 	ori	t5,t5,0x7154
bfc00380:	24100000 	li	s0,0
bfc00384:	24120000 	li	s2,0
bfc00388:	10000015 	b	bfc003e0 <main+0x3e0>
bfc0038c:	00000000 	nop
bfc00390:	3c106019 	lui	s0,0x6019
bfc00394:	36109ae4 	ori	s0,s0,0x9ae4
bfc00398:	15280021 	bne	t1,t0,bfc00420 <main+0x420>
bfc0039c:	00000000 	nop
bfc003a0:	10000021 	b	bfc00428 <main+0x428>
bfc003a4:	00000000 	nop
bfc003a8:	00000021 	move	zero,zero
bfc003ac:	00000021 	move	zero,zero
bfc003b0:	00000021 	move	zero,zero
bfc003b4:	00000021 	move	zero,zero
bfc003b8:	00000021 	move	zero,zero
bfc003bc:	00000021 	move	zero,zero
bfc003c0:	00000021 	move	zero,zero
bfc003c4:	00000021 	move	zero,zero
bfc003c8:	00000021 	move	zero,zero
bfc003cc:	00000021 	move	zero,zero
bfc003d0:	00000021 	move	zero,zero
bfc003d4:	00000021 	move	zero,zero
bfc003d8:	00000021 	move	zero,zero
bfc003dc:	00000021 	move	zero,zero
bfc003e0:	3c08e95a 	lui	t0,0xe95a
bfc003e4:	350809a5 	ori	t0,t0,0x9a5
bfc003e8:	3c0917b9 	lui	t1,0x17b9
bfc003ec:	3529e080 	ori	t1,t1,0xe080
bfc003f0:	1509ffe7 	bne	t0,t1,bfc00390 <main+0x390>
bfc003f4:	00000000 	nop
bfc003f8:	1000000b 	b	bfc00428 <main+0x428>
bfc003fc:	00000000 	nop
bfc00400:	00000021 	move	zero,zero
bfc00404:	00000021 	move	zero,zero
bfc00408:	00000021 	move	zero,zero
bfc0040c:	00000021 	move	zero,zero
bfc00410:	00000021 	move	zero,zero
bfc00414:	00000021 	move	zero,zero
bfc00418:	00000021 	move	zero,zero
bfc0041c:	00000021 	move	zero,zero
bfc00420:	3c123307 	lui	s2,0x3307
bfc00424:	36527154 	ori	s2,s2,0x7154
bfc00428:	00000000 	nop
bfc0042c:	3c146019 	lui	s4,0x6019
bfc00430:	36949ae4 	ori	s4,s4,0x9ae4
bfc00434:	16143e6c 	bne	s0,s4,bfc0fde8 <inst_error>
bfc00438:	00000000 	nop
bfc0043c:	3c153307 	lui	s5,0x3307
bfc00440:	36b57154 	ori	s5,s5,0x7154
bfc00444:	16553e68 	bne	s2,s5,bfc0fde8 <inst_error>
bfc00448:	00000000 	nop
bfc0044c:	3c0c0840 	lui	t4,0x840
bfc00450:	358c80f8 	ori	t4,t4,0x80f8
bfc00454:	3c0d644d 	lui	t5,0x644d
bfc00458:	35ad3e28 	ori	t5,t5,0x3e28
bfc0045c:	24100000 	li	s0,0
bfc00460:	24120000 	li	s2,0
bfc00464:	10000015 	b	bfc004bc <main+0x4bc>
bfc00468:	00000000 	nop
bfc0046c:	3c100840 	lui	s0,0x840
bfc00470:	361080f8 	ori	s0,s0,0x80f8
bfc00474:	15280021 	bne	t1,t0,bfc004fc <main+0x4fc>
bfc00478:	00000000 	nop
bfc0047c:	10000021 	b	bfc00504 <main+0x504>
bfc00480:	00000000 	nop
bfc00484:	00000021 	move	zero,zero
bfc00488:	00000021 	move	zero,zero
bfc0048c:	00000021 	move	zero,zero
bfc00490:	00000021 	move	zero,zero
bfc00494:	00000021 	move	zero,zero
bfc00498:	00000021 	move	zero,zero
bfc0049c:	00000021 	move	zero,zero
bfc004a0:	00000021 	move	zero,zero
bfc004a4:	00000021 	move	zero,zero
bfc004a8:	00000021 	move	zero,zero
bfc004ac:	00000021 	move	zero,zero
bfc004b0:	00000021 	move	zero,zero
bfc004b4:	00000021 	move	zero,zero
bfc004b8:	00000021 	move	zero,zero
bfc004bc:	3c08d0d5 	lui	t0,0xd0d5
bfc004c0:	35086812 	ori	t0,t0,0x6812
bfc004c4:	3c098f52 	lui	t1,0x8f52
bfc004c8:	35297ce0 	ori	t1,t1,0x7ce0
bfc004cc:	1509ffe7 	bne	t0,t1,bfc0046c <main+0x46c>
bfc004d0:	00000000 	nop
bfc004d4:	1000000b 	b	bfc00504 <main+0x504>
bfc004d8:	00000000 	nop
bfc004dc:	00000021 	move	zero,zero
bfc004e0:	00000021 	move	zero,zero
bfc004e4:	00000021 	move	zero,zero
bfc004e8:	00000021 	move	zero,zero
bfc004ec:	00000021 	move	zero,zero
bfc004f0:	00000021 	move	zero,zero
bfc004f4:	00000021 	move	zero,zero
bfc004f8:	00000021 	move	zero,zero
bfc004fc:	3c12644d 	lui	s2,0x644d
bfc00500:	36523e28 	ori	s2,s2,0x3e28
bfc00504:	00000000 	nop
bfc00508:	3c140840 	lui	s4,0x840
bfc0050c:	369480f8 	ori	s4,s4,0x80f8
bfc00510:	16143e35 	bne	s0,s4,bfc0fde8 <inst_error>
bfc00514:	00000000 	nop
bfc00518:	3c15644d 	lui	s5,0x644d
bfc0051c:	36b53e28 	ori	s5,s5,0x3e28
bfc00520:	16553e31 	bne	s2,s5,bfc0fde8 <inst_error>
bfc00524:	00000000 	nop
bfc00528:	3c0cffc9 	lui	t4,0xffc9
bfc0052c:	358c3be4 	ori	t4,t4,0x3be4
bfc00530:	3c0ddb7c 	lui	t5,0xdb7c
bfc00534:	35ad6be4 	ori	t5,t5,0x6be4
bfc00538:	24100000 	li	s0,0
bfc0053c:	24120000 	li	s2,0
bfc00540:	10000015 	b	bfc00598 <main+0x598>
bfc00544:	00000000 	nop
bfc00548:	3c10ffc9 	lui	s0,0xffc9
bfc0054c:	36103be4 	ori	s0,s0,0x3be4
bfc00550:	15280021 	bne	t1,t0,bfc005d8 <main+0x5d8>
bfc00554:	00000000 	nop
bfc00558:	10000021 	b	bfc005e0 <main+0x5e0>
bfc0055c:	00000000 	nop
bfc00560:	00000021 	move	zero,zero
bfc00564:	00000021 	move	zero,zero
bfc00568:	00000021 	move	zero,zero
bfc0056c:	00000021 	move	zero,zero
bfc00570:	00000021 	move	zero,zero
bfc00574:	00000021 	move	zero,zero
bfc00578:	00000021 	move	zero,zero
bfc0057c:	00000021 	move	zero,zero
bfc00580:	00000021 	move	zero,zero
bfc00584:	00000021 	move	zero,zero
bfc00588:	00000021 	move	zero,zero
bfc0058c:	00000021 	move	zero,zero
bfc00590:	00000021 	move	zero,zero
bfc00594:	00000021 	move	zero,zero
bfc00598:	3c083ab2 	lui	t0,0x3ab2
bfc0059c:	35082930 	ori	t0,t0,0x2930
bfc005a0:	3c09a008 	lui	t1,0xa008
bfc005a4:	35291900 	ori	t1,t1,0x1900
bfc005a8:	1509ffe7 	bne	t0,t1,bfc00548 <main+0x548>
bfc005ac:	00000000 	nop
bfc005b0:	1000000b 	b	bfc005e0 <main+0x5e0>
bfc005b4:	00000000 	nop
bfc005b8:	00000021 	move	zero,zero
bfc005bc:	00000021 	move	zero,zero
bfc005c0:	00000021 	move	zero,zero
bfc005c4:	00000021 	move	zero,zero
bfc005c8:	00000021 	move	zero,zero
bfc005cc:	00000021 	move	zero,zero
bfc005d0:	00000021 	move	zero,zero
bfc005d4:	00000021 	move	zero,zero
bfc005d8:	3c12db7c 	lui	s2,0xdb7c
bfc005dc:	36526be4 	ori	s2,s2,0x6be4
bfc005e0:	00000000 	nop
bfc005e4:	3c14ffc9 	lui	s4,0xffc9
bfc005e8:	36943be4 	ori	s4,s4,0x3be4
bfc005ec:	16143dfe 	bne	s0,s4,bfc0fde8 <inst_error>
bfc005f0:	00000000 	nop
bfc005f4:	3c15db7c 	lui	s5,0xdb7c
bfc005f8:	36b56be4 	ori	s5,s5,0x6be4
bfc005fc:	16553dfa 	bne	s2,s5,bfc0fde8 <inst_error>
bfc00600:	00000000 	nop
bfc00604:	3c0c5343 	lui	t4,0x5343
bfc00608:	358c0740 	ori	t4,t4,0x740
bfc0060c:	3c0d3d72 	lui	t5,0x3d72
bfc00610:	35ad4733 	ori	t5,t5,0x4733
bfc00614:	24100000 	li	s0,0
bfc00618:	24120000 	li	s2,0
bfc0061c:	10000015 	b	bfc00674 <main+0x674>
bfc00620:	00000000 	nop
bfc00624:	3c105343 	lui	s0,0x5343
bfc00628:	36100740 	ori	s0,s0,0x740
bfc0062c:	15280021 	bne	t1,t0,bfc006b4 <main+0x6b4>
bfc00630:	00000000 	nop
bfc00634:	10000021 	b	bfc006bc <main+0x6bc>
bfc00638:	00000000 	nop
bfc0063c:	00000021 	move	zero,zero
bfc00640:	00000021 	move	zero,zero
bfc00644:	00000021 	move	zero,zero
bfc00648:	00000021 	move	zero,zero
bfc0064c:	00000021 	move	zero,zero
bfc00650:	00000021 	move	zero,zero
bfc00654:	00000021 	move	zero,zero
bfc00658:	00000021 	move	zero,zero
bfc0065c:	00000021 	move	zero,zero
bfc00660:	00000021 	move	zero,zero
bfc00664:	00000021 	move	zero,zero
bfc00668:	00000021 	move	zero,zero
bfc0066c:	00000021 	move	zero,zero
bfc00670:	00000021 	move	zero,zero
bfc00674:	3c08289a 	lui	t0,0x289a
bfc00678:	35084638 	ori	t0,t0,0x4638
bfc0067c:	3c09301b 	lui	t1,0x301b
bfc00680:	3529f423 	ori	t1,t1,0xf423
bfc00684:	1509ffe7 	bne	t0,t1,bfc00624 <main+0x624>
bfc00688:	00000000 	nop
bfc0068c:	1000000b 	b	bfc006bc <main+0x6bc>
bfc00690:	00000000 	nop
bfc00694:	00000021 	move	zero,zero
bfc00698:	00000021 	move	zero,zero
bfc0069c:	00000021 	move	zero,zero
bfc006a0:	00000021 	move	zero,zero
bfc006a4:	00000021 	move	zero,zero
bfc006a8:	00000021 	move	zero,zero
bfc006ac:	00000021 	move	zero,zero
bfc006b0:	00000021 	move	zero,zero
bfc006b4:	3c123d72 	lui	s2,0x3d72
bfc006b8:	36524733 	ori	s2,s2,0x4733
bfc006bc:	00000000 	nop
bfc006c0:	3c145343 	lui	s4,0x5343
bfc006c4:	36940740 	ori	s4,s4,0x740
bfc006c8:	16143dc7 	bne	s0,s4,bfc0fde8 <inst_error>
bfc006cc:	00000000 	nop
bfc006d0:	3c153d72 	lui	s5,0x3d72
bfc006d4:	36b54733 	ori	s5,s5,0x4733
bfc006d8:	16553dc3 	bne	s2,s5,bfc0fde8 <inst_error>
bfc006dc:	00000000 	nop
bfc006e0:	3c0cc877 	lui	t4,0xc877
bfc006e4:	358c56db 	ori	t4,t4,0x56db
bfc006e8:	3c0d704f 	lui	t5,0x704f
bfc006ec:	35adc138 	ori	t5,t5,0xc138
bfc006f0:	24100000 	li	s0,0
bfc006f4:	24120000 	li	s2,0
bfc006f8:	10000015 	b	bfc00750 <main+0x750>
bfc006fc:	00000000 	nop
bfc00700:	3c10c877 	lui	s0,0xc877
bfc00704:	361056db 	ori	s0,s0,0x56db
bfc00708:	15280021 	bne	t1,t0,bfc00790 <main+0x790>
bfc0070c:	00000000 	nop
bfc00710:	10000021 	b	bfc00798 <main+0x798>
bfc00714:	00000000 	nop
bfc00718:	00000021 	move	zero,zero
bfc0071c:	00000021 	move	zero,zero
bfc00720:	00000021 	move	zero,zero
bfc00724:	00000021 	move	zero,zero
bfc00728:	00000021 	move	zero,zero
bfc0072c:	00000021 	move	zero,zero
bfc00730:	00000021 	move	zero,zero
bfc00734:	00000021 	move	zero,zero
bfc00738:	00000021 	move	zero,zero
bfc0073c:	00000021 	move	zero,zero
bfc00740:	00000021 	move	zero,zero
bfc00744:	00000021 	move	zero,zero
bfc00748:	00000021 	move	zero,zero
bfc0074c:	00000021 	move	zero,zero
bfc00750:	3c08b7c9 	lui	t0,0xb7c9
bfc00754:	35087f09 	ori	t0,t0,0x7f09
bfc00758:	3c09ca21 	lui	t1,0xca21
bfc0075c:	35290b70 	ori	t1,t1,0xb70
bfc00760:	1509ffe7 	bne	t0,t1,bfc00700 <main+0x700>
bfc00764:	00000000 	nop
bfc00768:	1000000b 	b	bfc00798 <main+0x798>
bfc0076c:	00000000 	nop
bfc00770:	00000021 	move	zero,zero
bfc00774:	00000021 	move	zero,zero
bfc00778:	00000021 	move	zero,zero
bfc0077c:	00000021 	move	zero,zero
bfc00780:	00000021 	move	zero,zero
bfc00784:	00000021 	move	zero,zero
bfc00788:	00000021 	move	zero,zero
bfc0078c:	00000021 	move	zero,zero
bfc00790:	3c12704f 	lui	s2,0x704f
bfc00794:	3652c138 	ori	s2,s2,0xc138
bfc00798:	00000000 	nop
bfc0079c:	3c14c877 	lui	s4,0xc877
bfc007a0:	369456db 	ori	s4,s4,0x56db
bfc007a4:	16143d90 	bne	s0,s4,bfc0fde8 <inst_error>
bfc007a8:	00000000 	nop
bfc007ac:	3c15704f 	lui	s5,0x704f
bfc007b0:	36b5c138 	ori	s5,s5,0xc138
bfc007b4:	16553d8c 	bne	s2,s5,bfc0fde8 <inst_error>
bfc007b8:	00000000 	nop
bfc007bc:	3c0c3f55 	lui	t4,0x3f55
bfc007c0:	358cd370 	ori	t4,t4,0xd370
bfc007c4:	3c0ddf6a 	lui	t5,0xdf6a
bfc007c8:	35adb418 	ori	t5,t5,0xb418
bfc007cc:	24100000 	li	s0,0
bfc007d0:	24120000 	li	s2,0
bfc007d4:	10000015 	b	bfc0082c <main+0x82c>
bfc007d8:	00000000 	nop
bfc007dc:	3c103f55 	lui	s0,0x3f55
bfc007e0:	3610d370 	ori	s0,s0,0xd370
bfc007e4:	15280021 	bne	t1,t0,bfc0086c <main+0x86c>
bfc007e8:	00000000 	nop
bfc007ec:	10000021 	b	bfc00874 <main+0x874>
bfc007f0:	00000000 	nop
bfc007f4:	00000021 	move	zero,zero
bfc007f8:	00000021 	move	zero,zero
bfc007fc:	00000021 	move	zero,zero
bfc00800:	00000021 	move	zero,zero
bfc00804:	00000021 	move	zero,zero
bfc00808:	00000021 	move	zero,zero
bfc0080c:	00000021 	move	zero,zero
bfc00810:	00000021 	move	zero,zero
bfc00814:	00000021 	move	zero,zero
bfc00818:	00000021 	move	zero,zero
bfc0081c:	00000021 	move	zero,zero
bfc00820:	00000021 	move	zero,zero
bfc00824:	00000021 	move	zero,zero
bfc00828:	00000021 	move	zero,zero
bfc0082c:	3c085346 	lui	t0,0x5346
bfc00830:	3508185f 	ori	t0,t0,0x185f
bfc00834:	3c09dd68 	lui	t1,0xdd68
bfc00838:	3529806c 	ori	t1,t1,0x806c
bfc0083c:	1509ffe7 	bne	t0,t1,bfc007dc <main+0x7dc>
bfc00840:	00000000 	nop
bfc00844:	1000000b 	b	bfc00874 <main+0x874>
bfc00848:	00000000 	nop
bfc0084c:	00000021 	move	zero,zero
bfc00850:	00000021 	move	zero,zero
bfc00854:	00000021 	move	zero,zero
bfc00858:	00000021 	move	zero,zero
bfc0085c:	00000021 	move	zero,zero
bfc00860:	00000021 	move	zero,zero
bfc00864:	00000021 	move	zero,zero
bfc00868:	00000021 	move	zero,zero
bfc0086c:	3c12df6a 	lui	s2,0xdf6a
bfc00870:	3652b418 	ori	s2,s2,0xb418
bfc00874:	00000000 	nop
bfc00878:	3c143f55 	lui	s4,0x3f55
bfc0087c:	3694d370 	ori	s4,s4,0xd370
bfc00880:	16143d59 	bne	s0,s4,bfc0fde8 <inst_error>
bfc00884:	00000000 	nop
bfc00888:	3c15df6a 	lui	s5,0xdf6a
bfc0088c:	36b5b418 	ori	s5,s5,0xb418
bfc00890:	16553d55 	bne	s2,s5,bfc0fde8 <inst_error>
bfc00894:	00000000 	nop
bfc00898:	3c0c6a68 	lui	t4,0x6a68
bfc0089c:	358cf514 	ori	t4,t4,0xf514
bfc008a0:	3c0df7ea 	lui	t5,0xf7ea
bfc008a4:	35add2e0 	ori	t5,t5,0xd2e0
bfc008a8:	24100000 	li	s0,0
bfc008ac:	24120000 	li	s2,0
bfc008b0:	10000015 	b	bfc00908 <main+0x908>
bfc008b4:	00000000 	nop
bfc008b8:	3c106a68 	lui	s0,0x6a68
bfc008bc:	3610f514 	ori	s0,s0,0xf514
bfc008c0:	15280021 	bne	t1,t0,bfc00948 <main+0x948>
bfc008c4:	00000000 	nop
bfc008c8:	10000021 	b	bfc00950 <main+0x950>
bfc008cc:	00000000 	nop
bfc008d0:	00000021 	move	zero,zero
bfc008d4:	00000021 	move	zero,zero
bfc008d8:	00000021 	move	zero,zero
bfc008dc:	00000021 	move	zero,zero
bfc008e0:	00000021 	move	zero,zero
bfc008e4:	00000021 	move	zero,zero
bfc008e8:	00000021 	move	zero,zero
bfc008ec:	00000021 	move	zero,zero
bfc008f0:	00000021 	move	zero,zero
bfc008f4:	00000021 	move	zero,zero
bfc008f8:	00000021 	move	zero,zero
bfc008fc:	00000021 	move	zero,zero
bfc00900:	00000021 	move	zero,zero
bfc00904:	00000021 	move	zero,zero
bfc00908:	3c08f573 	lui	t0,0xf573
bfc0090c:	3508a38b 	ori	t0,t0,0xa38b
bfc00910:	3c093975 	lui	t1,0x3975
bfc00914:	35295f2c 	ori	t1,t1,0x5f2c
bfc00918:	1509ffe7 	bne	t0,t1,bfc008b8 <main+0x8b8>
bfc0091c:	00000000 	nop
bfc00920:	1000000b 	b	bfc00950 <main+0x950>
bfc00924:	00000000 	nop
bfc00928:	00000021 	move	zero,zero
bfc0092c:	00000021 	move	zero,zero
bfc00930:	00000021 	move	zero,zero
bfc00934:	00000021 	move	zero,zero
bfc00938:	00000021 	move	zero,zero
bfc0093c:	00000021 	move	zero,zero
bfc00940:	00000021 	move	zero,zero
bfc00944:	00000021 	move	zero,zero
bfc00948:	3c12f7ea 	lui	s2,0xf7ea
bfc0094c:	3652d2e0 	ori	s2,s2,0xd2e0
bfc00950:	00000000 	nop
bfc00954:	3c146a68 	lui	s4,0x6a68
bfc00958:	3694f514 	ori	s4,s4,0xf514
bfc0095c:	16143d22 	bne	s0,s4,bfc0fde8 <inst_error>
bfc00960:	00000000 	nop
bfc00964:	3c15f7ea 	lui	s5,0xf7ea
bfc00968:	36b5d2e0 	ori	s5,s5,0xd2e0
bfc0096c:	16553d1e 	bne	s2,s5,bfc0fde8 <inst_error>
bfc00970:	00000000 	nop
bfc00974:	3c0c3dd4 	lui	t4,0x3dd4
bfc00978:	358c7244 	ori	t4,t4,0x7244
bfc0097c:	3c0d54fb 	lui	t5,0x54fb
bfc00980:	35adacca 	ori	t5,t5,0xacca
bfc00984:	24100000 	li	s0,0
bfc00988:	24120000 	li	s2,0
bfc0098c:	10000015 	b	bfc009e4 <main+0x9e4>
bfc00990:	00000000 	nop
bfc00994:	3c103dd4 	lui	s0,0x3dd4
bfc00998:	36107244 	ori	s0,s0,0x7244
bfc0099c:	15280021 	bne	t1,t0,bfc00a24 <main+0xa24>
bfc009a0:	00000000 	nop
bfc009a4:	10000021 	b	bfc00a2c <main+0xa2c>
bfc009a8:	00000000 	nop
bfc009ac:	00000021 	move	zero,zero
bfc009b0:	00000021 	move	zero,zero
bfc009b4:	00000021 	move	zero,zero
bfc009b8:	00000021 	move	zero,zero
bfc009bc:	00000021 	move	zero,zero
bfc009c0:	00000021 	move	zero,zero
bfc009c4:	00000021 	move	zero,zero
bfc009c8:	00000021 	move	zero,zero
bfc009cc:	00000021 	move	zero,zero
bfc009d0:	00000021 	move	zero,zero
bfc009d4:	00000021 	move	zero,zero
bfc009d8:	00000021 	move	zero,zero
bfc009dc:	00000021 	move	zero,zero
bfc009e0:	00000021 	move	zero,zero
bfc009e4:	3c084ae9 	lui	t0,0x4ae9
bfc009e8:	3508d503 	ori	t0,t0,0xd503
bfc009ec:	3c09961d 	lui	t1,0x961d
bfc009f0:	3529f024 	ori	t1,t1,0xf024
bfc009f4:	1509ffe7 	bne	t0,t1,bfc00994 <main+0x994>
bfc009f8:	00000000 	nop
bfc009fc:	1000000b 	b	bfc00a2c <main+0xa2c>
bfc00a00:	00000000 	nop
bfc00a04:	00000021 	move	zero,zero
bfc00a08:	00000021 	move	zero,zero
bfc00a0c:	00000021 	move	zero,zero
bfc00a10:	00000021 	move	zero,zero
bfc00a14:	00000021 	move	zero,zero
bfc00a18:	00000021 	move	zero,zero
bfc00a1c:	00000021 	move	zero,zero
bfc00a20:	00000021 	move	zero,zero
bfc00a24:	3c1254fb 	lui	s2,0x54fb
bfc00a28:	3652acca 	ori	s2,s2,0xacca
bfc00a2c:	00000000 	nop
bfc00a30:	3c143dd4 	lui	s4,0x3dd4
bfc00a34:	36947244 	ori	s4,s4,0x7244
bfc00a38:	16143ceb 	bne	s0,s4,bfc0fde8 <inst_error>
bfc00a3c:	00000000 	nop
bfc00a40:	3c1554fb 	lui	s5,0x54fb
bfc00a44:	36b5acca 	ori	s5,s5,0xacca
bfc00a48:	16553ce7 	bne	s2,s5,bfc0fde8 <inst_error>
bfc00a4c:	00000000 	nop
bfc00a50:	3c0cd110 	lui	t4,0xd110
bfc00a54:	358cbcc0 	ori	t4,t4,0xbcc0
bfc00a58:	3c0d940d 	lui	t5,0x940d
bfc00a5c:	35adba48 	ori	t5,t5,0xba48
bfc00a60:	24100000 	li	s0,0
bfc00a64:	24120000 	li	s2,0
bfc00a68:	10000015 	b	bfc00ac0 <main+0xac0>
bfc00a6c:	00000000 	nop
bfc00a70:	3c10d110 	lui	s0,0xd110
bfc00a74:	3610bcc0 	ori	s0,s0,0xbcc0
bfc00a78:	15280021 	bne	t1,t0,bfc00b00 <main+0xb00>
bfc00a7c:	00000000 	nop
bfc00a80:	10000021 	b	bfc00b08 <main+0xb08>
bfc00a84:	00000000 	nop
bfc00a88:	00000021 	move	zero,zero
bfc00a8c:	00000021 	move	zero,zero
bfc00a90:	00000021 	move	zero,zero
bfc00a94:	00000021 	move	zero,zero
bfc00a98:	00000021 	move	zero,zero
bfc00a9c:	00000021 	move	zero,zero
bfc00aa0:	00000021 	move	zero,zero
bfc00aa4:	00000021 	move	zero,zero
bfc00aa8:	00000021 	move	zero,zero
bfc00aac:	00000021 	move	zero,zero
bfc00ab0:	00000021 	move	zero,zero
bfc00ab4:	00000021 	move	zero,zero
bfc00ab8:	00000021 	move	zero,zero
bfc00abc:	00000021 	move	zero,zero
bfc00ac0:	3c08376e 	lui	t0,0x376e
bfc00ac4:	3508d178 	ori	t0,t0,0xd178
bfc00ac8:	3c09388f 	lui	t1,0x388f
bfc00acc:	35296900 	ori	t1,t1,0x6900
bfc00ad0:	1509ffe7 	bne	t0,t1,bfc00a70 <main+0xa70>
bfc00ad4:	00000000 	nop
bfc00ad8:	1000000b 	b	bfc00b08 <main+0xb08>
bfc00adc:	00000000 	nop
bfc00ae0:	00000021 	move	zero,zero
bfc00ae4:	00000021 	move	zero,zero
bfc00ae8:	00000021 	move	zero,zero
bfc00aec:	00000021 	move	zero,zero
bfc00af0:	00000021 	move	zero,zero
bfc00af4:	00000021 	move	zero,zero
bfc00af8:	00000021 	move	zero,zero
bfc00afc:	00000021 	move	zero,zero
bfc00b00:	3c12940d 	lui	s2,0x940d
bfc00b04:	3652ba48 	ori	s2,s2,0xba48
bfc00b08:	00000000 	nop
bfc00b0c:	3c14d110 	lui	s4,0xd110
bfc00b10:	3694bcc0 	ori	s4,s4,0xbcc0
bfc00b14:	16143cb4 	bne	s0,s4,bfc0fde8 <inst_error>
bfc00b18:	00000000 	nop
bfc00b1c:	3c15940d 	lui	s5,0x940d
bfc00b20:	36b5ba48 	ori	s5,s5,0xba48
bfc00b24:	16553cb0 	bne	s2,s5,bfc0fde8 <inst_error>
bfc00b28:	00000000 	nop
bfc00b2c:	3c0c34d6 	lui	t4,0x34d6
bfc00b30:	358cc010 	ori	t4,t4,0xc010
bfc00b34:	3c0dbbf8 	lui	t5,0xbbf8
bfc00b38:	35ad5d40 	ori	t5,t5,0x5d40
bfc00b3c:	24100000 	li	s0,0
bfc00b40:	24120000 	li	s2,0
bfc00b44:	10000015 	b	bfc00b9c <main+0xb9c>
bfc00b48:	00000000 	nop
bfc00b4c:	3c1034d6 	lui	s0,0x34d6
bfc00b50:	3610c010 	ori	s0,s0,0xc010
bfc00b54:	15280021 	bne	t1,t0,bfc00bdc <main+0xbdc>
bfc00b58:	00000000 	nop
bfc00b5c:	10000021 	b	bfc00be4 <main+0xbe4>
bfc00b60:	00000000 	nop
bfc00b64:	00000021 	move	zero,zero
bfc00b68:	00000021 	move	zero,zero
bfc00b6c:	00000021 	move	zero,zero
bfc00b70:	00000021 	move	zero,zero
bfc00b74:	00000021 	move	zero,zero
bfc00b78:	00000021 	move	zero,zero
bfc00b7c:	00000021 	move	zero,zero
bfc00b80:	00000021 	move	zero,zero
bfc00b84:	00000021 	move	zero,zero
bfc00b88:	00000021 	move	zero,zero
bfc00b8c:	00000021 	move	zero,zero
bfc00b90:	00000021 	move	zero,zero
bfc00b94:	00000021 	move	zero,zero
bfc00b98:	00000021 	move	zero,zero
bfc00b9c:	3c087268 	lui	t0,0x7268
bfc00ba0:	3508b0d9 	ori	t0,t0,0xb0d9
bfc00ba4:	3c094a47 	lui	t1,0x4a47
bfc00ba8:	35295d13 	ori	t1,t1,0x5d13
bfc00bac:	1509ffe7 	bne	t0,t1,bfc00b4c <main+0xb4c>
bfc00bb0:	00000000 	nop
bfc00bb4:	1000000b 	b	bfc00be4 <main+0xbe4>
bfc00bb8:	00000000 	nop
bfc00bbc:	00000021 	move	zero,zero
bfc00bc0:	00000021 	move	zero,zero
bfc00bc4:	00000021 	move	zero,zero
bfc00bc8:	00000021 	move	zero,zero
bfc00bcc:	00000021 	move	zero,zero
bfc00bd0:	00000021 	move	zero,zero
bfc00bd4:	00000021 	move	zero,zero
bfc00bd8:	00000021 	move	zero,zero
bfc00bdc:	3c12bbf8 	lui	s2,0xbbf8
bfc00be0:	36525d40 	ori	s2,s2,0x5d40
bfc00be4:	00000000 	nop
bfc00be8:	3c1434d6 	lui	s4,0x34d6
bfc00bec:	3694c010 	ori	s4,s4,0xc010
bfc00bf0:	16143c7d 	bne	s0,s4,bfc0fde8 <inst_error>
bfc00bf4:	00000000 	nop
bfc00bf8:	3c15bbf8 	lui	s5,0xbbf8
bfc00bfc:	36b55d40 	ori	s5,s5,0x5d40
bfc00c00:	16553c79 	bne	s2,s5,bfc0fde8 <inst_error>
bfc00c04:	00000000 	nop
bfc00c08:	3c0cfe64 	lui	t4,0xfe64
bfc00c0c:	358c48d6 	ori	t4,t4,0x48d6
bfc00c10:	3c0d2c95 	lui	t5,0x2c95
bfc00c14:	35ad0005 	ori	t5,t5,0x5
bfc00c18:	24100000 	li	s0,0
bfc00c1c:	24120000 	li	s2,0
bfc00c20:	10000015 	b	bfc00c78 <main+0xc78>
bfc00c24:	00000000 	nop
bfc00c28:	3c10fe64 	lui	s0,0xfe64
bfc00c2c:	361048d6 	ori	s0,s0,0x48d6
bfc00c30:	15280021 	bne	t1,t0,bfc00cb8 <main+0xcb8>
bfc00c34:	00000000 	nop
bfc00c38:	10000021 	b	bfc00cc0 <main+0xcc0>
bfc00c3c:	00000000 	nop
bfc00c40:	00000021 	move	zero,zero
bfc00c44:	00000021 	move	zero,zero
bfc00c48:	00000021 	move	zero,zero
bfc00c4c:	00000021 	move	zero,zero
bfc00c50:	00000021 	move	zero,zero
bfc00c54:	00000021 	move	zero,zero
bfc00c58:	00000021 	move	zero,zero
bfc00c5c:	00000021 	move	zero,zero
bfc00c60:	00000021 	move	zero,zero
bfc00c64:	00000021 	move	zero,zero
bfc00c68:	00000021 	move	zero,zero
bfc00c6c:	00000021 	move	zero,zero
bfc00c70:	00000021 	move	zero,zero
bfc00c74:	00000021 	move	zero,zero
bfc00c78:	3c0802f7 	lui	t0,0x2f7
bfc00c7c:	3508e8c2 	ori	t0,t0,0xe8c2
bfc00c80:	3c09fa0a 	lui	t1,0xfa0a
bfc00c84:	35295c8a 	ori	t1,t1,0x5c8a
bfc00c88:	1509ffe7 	bne	t0,t1,bfc00c28 <main+0xc28>
bfc00c8c:	00000000 	nop
bfc00c90:	1000000b 	b	bfc00cc0 <main+0xcc0>
bfc00c94:	00000000 	nop
bfc00c98:	00000021 	move	zero,zero
bfc00c9c:	00000021 	move	zero,zero
bfc00ca0:	00000021 	move	zero,zero
bfc00ca4:	00000021 	move	zero,zero
bfc00ca8:	00000021 	move	zero,zero
bfc00cac:	00000021 	move	zero,zero
bfc00cb0:	00000021 	move	zero,zero
bfc00cb4:	00000021 	move	zero,zero
bfc00cb8:	3c122c95 	lui	s2,0x2c95
bfc00cbc:	36520005 	ori	s2,s2,0x5
bfc00cc0:	00000000 	nop
bfc00cc4:	3c14fe64 	lui	s4,0xfe64
bfc00cc8:	369448d6 	ori	s4,s4,0x48d6
bfc00ccc:	16143c46 	bne	s0,s4,bfc0fde8 <inst_error>
bfc00cd0:	00000000 	nop
bfc00cd4:	3c152c95 	lui	s5,0x2c95
bfc00cd8:	36b50005 	ori	s5,s5,0x5
bfc00cdc:	16553c42 	bne	s2,s5,bfc0fde8 <inst_error>
bfc00ce0:	00000000 	nop
bfc00ce4:	3c0c7ced 	lui	t4,0x7ced
bfc00ce8:	358c1018 	ori	t4,t4,0x1018
bfc00cec:	3c0d50b6 	lui	t5,0x50b6
bfc00cf0:	35ada855 	ori	t5,t5,0xa855
bfc00cf4:	24100000 	li	s0,0
bfc00cf8:	24120000 	li	s2,0
bfc00cfc:	10000015 	b	bfc00d54 <main+0xd54>
bfc00d00:	00000000 	nop
bfc00d04:	3c107ced 	lui	s0,0x7ced
bfc00d08:	36101018 	ori	s0,s0,0x1018
bfc00d0c:	15280021 	bne	t1,t0,bfc00d94 <main+0xd94>
bfc00d10:	00000000 	nop
bfc00d14:	10000021 	b	bfc00d9c <main+0xd9c>
bfc00d18:	00000000 	nop
bfc00d1c:	00000021 	move	zero,zero
bfc00d20:	00000021 	move	zero,zero
bfc00d24:	00000021 	move	zero,zero
bfc00d28:	00000021 	move	zero,zero
bfc00d2c:	00000021 	move	zero,zero
bfc00d30:	00000021 	move	zero,zero
bfc00d34:	00000021 	move	zero,zero
bfc00d38:	00000021 	move	zero,zero
bfc00d3c:	00000021 	move	zero,zero
bfc00d40:	00000021 	move	zero,zero
bfc00d44:	00000021 	move	zero,zero
bfc00d48:	00000021 	move	zero,zero
bfc00d4c:	00000021 	move	zero,zero
bfc00d50:	00000021 	move	zero,zero
bfc00d54:	3c08a272 	lui	t0,0xa272
bfc00d58:	35089d72 	ori	t0,t0,0x9d72
bfc00d5c:	3c09ae9f 	lui	t1,0xae9f
bfc00d60:	35290cbc 	ori	t1,t1,0xcbc
bfc00d64:	1509ffe7 	bne	t0,t1,bfc00d04 <main+0xd04>
bfc00d68:	00000000 	nop
bfc00d6c:	1000000b 	b	bfc00d9c <main+0xd9c>
bfc00d70:	00000000 	nop
bfc00d74:	00000021 	move	zero,zero
bfc00d78:	00000021 	move	zero,zero
bfc00d7c:	00000021 	move	zero,zero
bfc00d80:	00000021 	move	zero,zero
bfc00d84:	00000021 	move	zero,zero
bfc00d88:	00000021 	move	zero,zero
bfc00d8c:	00000021 	move	zero,zero
bfc00d90:	00000021 	move	zero,zero
bfc00d94:	3c1250b6 	lui	s2,0x50b6
bfc00d98:	3652a855 	ori	s2,s2,0xa855
bfc00d9c:	00000000 	nop
bfc00da0:	3c147ced 	lui	s4,0x7ced
bfc00da4:	36941018 	ori	s4,s4,0x1018
bfc00da8:	16143c0f 	bne	s0,s4,bfc0fde8 <inst_error>
bfc00dac:	00000000 	nop
bfc00db0:	3c1550b6 	lui	s5,0x50b6
bfc00db4:	36b5a855 	ori	s5,s5,0xa855
bfc00db8:	16553c0b 	bne	s2,s5,bfc0fde8 <inst_error>
bfc00dbc:	00000000 	nop
bfc00dc0:	3c0cf323 	lui	t4,0xf323
bfc00dc4:	358c5580 	ori	t4,t4,0x5580
bfc00dc8:	3c0d4899 	lui	t5,0x4899
bfc00dcc:	35adc954 	ori	t5,t5,0xc954
bfc00dd0:	24100000 	li	s0,0
bfc00dd4:	24120000 	li	s2,0
bfc00dd8:	10000015 	b	bfc00e30 <main+0xe30>
bfc00ddc:	00000000 	nop
bfc00de0:	3c10f323 	lui	s0,0xf323
bfc00de4:	36105580 	ori	s0,s0,0x5580
bfc00de8:	15280021 	bne	t1,t0,bfc00e70 <main+0xe70>
bfc00dec:	00000000 	nop
bfc00df0:	10000021 	b	bfc00e78 <main+0xe78>
bfc00df4:	00000000 	nop
bfc00df8:	00000021 	move	zero,zero
bfc00dfc:	00000021 	move	zero,zero
bfc00e00:	00000021 	move	zero,zero
bfc00e04:	00000021 	move	zero,zero
bfc00e08:	00000021 	move	zero,zero
bfc00e0c:	00000021 	move	zero,zero
bfc00e10:	00000021 	move	zero,zero
bfc00e14:	00000021 	move	zero,zero
bfc00e18:	00000021 	move	zero,zero
bfc00e1c:	00000021 	move	zero,zero
bfc00e20:	00000021 	move	zero,zero
bfc00e24:	00000021 	move	zero,zero
bfc00e28:	00000021 	move	zero,zero
bfc00e2c:	00000021 	move	zero,zero
bfc00e30:	3c085181 	lui	t0,0x5181
bfc00e34:	35086f11 	ori	t0,t0,0x6f11
bfc00e38:	3c0938ac 	lui	t1,0x38ac
bfc00e3c:	352965bd 	ori	t1,t1,0x65bd
bfc00e40:	1509ffe7 	bne	t0,t1,bfc00de0 <main+0xde0>
bfc00e44:	00000000 	nop
bfc00e48:	1000000b 	b	bfc00e78 <main+0xe78>
bfc00e4c:	00000000 	nop
bfc00e50:	00000021 	move	zero,zero
bfc00e54:	00000021 	move	zero,zero
bfc00e58:	00000021 	move	zero,zero
bfc00e5c:	00000021 	move	zero,zero
bfc00e60:	00000021 	move	zero,zero
bfc00e64:	00000021 	move	zero,zero
bfc00e68:	00000021 	move	zero,zero
bfc00e6c:	00000021 	move	zero,zero
bfc00e70:	3c124899 	lui	s2,0x4899
bfc00e74:	3652c954 	ori	s2,s2,0xc954
bfc00e78:	00000000 	nop
bfc00e7c:	3c14f323 	lui	s4,0xf323
bfc00e80:	36945580 	ori	s4,s4,0x5580
bfc00e84:	16143bd8 	bne	s0,s4,bfc0fde8 <inst_error>
bfc00e88:	00000000 	nop
bfc00e8c:	3c154899 	lui	s5,0x4899
bfc00e90:	36b5c954 	ori	s5,s5,0xc954
bfc00e94:	16553bd4 	bne	s2,s5,bfc0fde8 <inst_error>
bfc00e98:	00000000 	nop
bfc00e9c:	3c0cfe75 	lui	t4,0xfe75
bfc00ea0:	358c5684 	ori	t4,t4,0x5684
bfc00ea4:	3c0d8a80 	lui	t5,0x8a80
bfc00ea8:	35adeb35 	ori	t5,t5,0xeb35
bfc00eac:	24100000 	li	s0,0
bfc00eb0:	24120000 	li	s2,0
bfc00eb4:	10000015 	b	bfc00f0c <main+0xf0c>
bfc00eb8:	00000000 	nop
bfc00ebc:	3c10fe75 	lui	s0,0xfe75
bfc00ec0:	36105684 	ori	s0,s0,0x5684
bfc00ec4:	15280021 	bne	t1,t0,bfc00f4c <main+0xf4c>
bfc00ec8:	00000000 	nop
bfc00ecc:	10000021 	b	bfc00f54 <main+0xf54>
bfc00ed0:	00000000 	nop
bfc00ed4:	00000021 	move	zero,zero
bfc00ed8:	00000021 	move	zero,zero
bfc00edc:	00000021 	move	zero,zero
bfc00ee0:	00000021 	move	zero,zero
bfc00ee4:	00000021 	move	zero,zero
bfc00ee8:	00000021 	move	zero,zero
bfc00eec:	00000021 	move	zero,zero
bfc00ef0:	00000021 	move	zero,zero
bfc00ef4:	00000021 	move	zero,zero
bfc00ef8:	00000021 	move	zero,zero
bfc00efc:	00000021 	move	zero,zero
bfc00f00:	00000021 	move	zero,zero
bfc00f04:	00000021 	move	zero,zero
bfc00f08:	00000021 	move	zero,zero
bfc00f0c:	3c086bb4 	lui	t0,0x6bb4
bfc00f10:	35080090 	ori	t0,t0,0x90
bfc00f14:	3c097513 	lui	t1,0x7513
bfc00f18:	35290d00 	ori	t1,t1,0xd00
bfc00f1c:	1509ffe7 	bne	t0,t1,bfc00ebc <main+0xebc>
bfc00f20:	00000000 	nop
bfc00f24:	1000000b 	b	bfc00f54 <main+0xf54>
bfc00f28:	00000000 	nop
bfc00f2c:	00000021 	move	zero,zero
bfc00f30:	00000021 	move	zero,zero
bfc00f34:	00000021 	move	zero,zero
bfc00f38:	00000021 	move	zero,zero
bfc00f3c:	00000021 	move	zero,zero
bfc00f40:	00000021 	move	zero,zero
bfc00f44:	00000021 	move	zero,zero
bfc00f48:	00000021 	move	zero,zero
bfc00f4c:	3c128a80 	lui	s2,0x8a80
bfc00f50:	3652eb35 	ori	s2,s2,0xeb35
bfc00f54:	00000000 	nop
bfc00f58:	3c14fe75 	lui	s4,0xfe75
bfc00f5c:	36945684 	ori	s4,s4,0x5684
bfc00f60:	16143ba1 	bne	s0,s4,bfc0fde8 <inst_error>
bfc00f64:	00000000 	nop
bfc00f68:	3c158a80 	lui	s5,0x8a80
bfc00f6c:	36b5eb35 	ori	s5,s5,0xeb35
bfc00f70:	16553b9d 	bne	s2,s5,bfc0fde8 <inst_error>
bfc00f74:	00000000 	nop
bfc00f78:	3c0c764d 	lui	t4,0x764d
bfc00f7c:	358c5510 	ori	t4,t4,0x5510
bfc00f80:	3c0db6fa 	lui	t5,0xb6fa
bfc00f84:	35adea20 	ori	t5,t5,0xea20
bfc00f88:	24100000 	li	s0,0
bfc00f8c:	24120000 	li	s2,0
bfc00f90:	10000015 	b	bfc00fe8 <main+0xfe8>
bfc00f94:	00000000 	nop
bfc00f98:	3c10764d 	lui	s0,0x764d
bfc00f9c:	36105510 	ori	s0,s0,0x5510
bfc00fa0:	15280021 	bne	t1,t0,bfc01028 <main+0x1028>
bfc00fa4:	00000000 	nop
bfc00fa8:	10000021 	b	bfc01030 <main+0x1030>
bfc00fac:	00000000 	nop
bfc00fb0:	00000021 	move	zero,zero
bfc00fb4:	00000021 	move	zero,zero
bfc00fb8:	00000021 	move	zero,zero
bfc00fbc:	00000021 	move	zero,zero
bfc00fc0:	00000021 	move	zero,zero
bfc00fc4:	00000021 	move	zero,zero
bfc00fc8:	00000021 	move	zero,zero
bfc00fcc:	00000021 	move	zero,zero
bfc00fd0:	00000021 	move	zero,zero
bfc00fd4:	00000021 	move	zero,zero
bfc00fd8:	00000021 	move	zero,zero
bfc00fdc:	00000021 	move	zero,zero
bfc00fe0:	00000021 	move	zero,zero
bfc00fe4:	00000021 	move	zero,zero
bfc00fe8:	3c08c4e1 	lui	t0,0xc4e1
bfc00fec:	3508f320 	ori	t0,t0,0xf320
bfc00ff0:	3c09f6d0 	lui	t1,0xf6d0
bfc00ff4:	35297020 	ori	t1,t1,0x7020
bfc00ff8:	1509ffe7 	bne	t0,t1,bfc00f98 <main+0xf98>
bfc00ffc:	00000000 	nop
bfc01000:	1000000b 	b	bfc01030 <main+0x1030>
bfc01004:	00000000 	nop
bfc01008:	00000021 	move	zero,zero
bfc0100c:	00000021 	move	zero,zero
bfc01010:	00000021 	move	zero,zero
bfc01014:	00000021 	move	zero,zero
bfc01018:	00000021 	move	zero,zero
bfc0101c:	00000021 	move	zero,zero
bfc01020:	00000021 	move	zero,zero
bfc01024:	00000021 	move	zero,zero
bfc01028:	3c12b6fa 	lui	s2,0xb6fa
bfc0102c:	3652ea20 	ori	s2,s2,0xea20
bfc01030:	00000000 	nop
bfc01034:	3c14764d 	lui	s4,0x764d
bfc01038:	36945510 	ori	s4,s4,0x5510
bfc0103c:	16143b6a 	bne	s0,s4,bfc0fde8 <inst_error>
bfc01040:	00000000 	nop
bfc01044:	3c15b6fa 	lui	s5,0xb6fa
bfc01048:	36b5ea20 	ori	s5,s5,0xea20
bfc0104c:	16553b66 	bne	s2,s5,bfc0fde8 <inst_error>
bfc01050:	00000000 	nop
bfc01054:	3c0c8c38 	lui	t4,0x8c38
bfc01058:	358cdde0 	ori	t4,t4,0xdde0
bfc0105c:	3c0dd820 	lui	t5,0xd820
bfc01060:	35ad85a8 	ori	t5,t5,0x85a8
bfc01064:	24100000 	li	s0,0
bfc01068:	24120000 	li	s2,0
bfc0106c:	10000015 	b	bfc010c4 <main+0x10c4>
bfc01070:	00000000 	nop
bfc01074:	3c108c38 	lui	s0,0x8c38
bfc01078:	3610dde0 	ori	s0,s0,0xdde0
bfc0107c:	15280021 	bne	t1,t0,bfc01104 <main+0x1104>
bfc01080:	00000000 	nop
bfc01084:	10000021 	b	bfc0110c <main+0x110c>
bfc01088:	00000000 	nop
bfc0108c:	00000021 	move	zero,zero
bfc01090:	00000021 	move	zero,zero
bfc01094:	00000021 	move	zero,zero
bfc01098:	00000021 	move	zero,zero
bfc0109c:	00000021 	move	zero,zero
bfc010a0:	00000021 	move	zero,zero
bfc010a4:	00000021 	move	zero,zero
bfc010a8:	00000021 	move	zero,zero
bfc010ac:	00000021 	move	zero,zero
bfc010b0:	00000021 	move	zero,zero
bfc010b4:	00000021 	move	zero,zero
bfc010b8:	00000021 	move	zero,zero
bfc010bc:	00000021 	move	zero,zero
bfc010c0:	00000021 	move	zero,zero
bfc010c4:	3c081b1a 	lui	t0,0x1b1a
bfc010c8:	350880c0 	ori	t0,t0,0x80c0
bfc010cc:	3c093fa2 	lui	t1,0x3fa2
bfc010d0:	3529a084 	ori	t1,t1,0xa084
bfc010d4:	1509ffe7 	bne	t0,t1,bfc01074 <main+0x1074>
bfc010d8:	00000000 	nop
bfc010dc:	1000000b 	b	bfc0110c <main+0x110c>
bfc010e0:	00000000 	nop
bfc010e4:	00000021 	move	zero,zero
bfc010e8:	00000021 	move	zero,zero
bfc010ec:	00000021 	move	zero,zero
bfc010f0:	00000021 	move	zero,zero
bfc010f4:	00000021 	move	zero,zero
bfc010f8:	00000021 	move	zero,zero
bfc010fc:	00000021 	move	zero,zero
bfc01100:	00000021 	move	zero,zero
bfc01104:	3c12d820 	lui	s2,0xd820
bfc01108:	365285a8 	ori	s2,s2,0x85a8
bfc0110c:	00000000 	nop
bfc01110:	3c148c38 	lui	s4,0x8c38
bfc01114:	3694dde0 	ori	s4,s4,0xdde0
bfc01118:	16143b33 	bne	s0,s4,bfc0fde8 <inst_error>
bfc0111c:	00000000 	nop
bfc01120:	3c15d820 	lui	s5,0xd820
bfc01124:	36b585a8 	ori	s5,s5,0x85a8
bfc01128:	16553b2f 	bne	s2,s5,bfc0fde8 <inst_error>
bfc0112c:	00000000 	nop
bfc01130:	3c0c5554 	lui	t4,0x5554
bfc01134:	358ccc08 	ori	t4,t4,0xcc08
bfc01138:	3c0dfef9 	lui	t5,0xfef9
bfc0113c:	35adebd0 	ori	t5,t5,0xebd0
bfc01140:	24100000 	li	s0,0
bfc01144:	24120000 	li	s2,0
bfc01148:	10000015 	b	bfc011a0 <main+0x11a0>
bfc0114c:	00000000 	nop
bfc01150:	3c105554 	lui	s0,0x5554
bfc01154:	3610cc08 	ori	s0,s0,0xcc08
bfc01158:	15280021 	bne	t1,t0,bfc011e0 <main+0x11e0>
bfc0115c:	00000000 	nop
bfc01160:	10000021 	b	bfc011e8 <main+0x11e8>
bfc01164:	00000000 	nop
bfc01168:	00000021 	move	zero,zero
bfc0116c:	00000021 	move	zero,zero
bfc01170:	00000021 	move	zero,zero
bfc01174:	00000021 	move	zero,zero
bfc01178:	00000021 	move	zero,zero
bfc0117c:	00000021 	move	zero,zero
bfc01180:	00000021 	move	zero,zero
bfc01184:	00000021 	move	zero,zero
bfc01188:	00000021 	move	zero,zero
bfc0118c:	00000021 	move	zero,zero
bfc01190:	00000021 	move	zero,zero
bfc01194:	00000021 	move	zero,zero
bfc01198:	00000021 	move	zero,zero
bfc0119c:	00000021 	move	zero,zero
bfc011a0:	3c0812ef 	lui	t0,0x12ef
bfc011a4:	3508a34c 	ori	t0,t0,0xa34c
bfc011a8:	3c09afd2 	lui	t1,0xafd2
bfc011ac:	35294c7a 	ori	t1,t1,0x4c7a
bfc011b0:	1509ffe7 	bne	t0,t1,bfc01150 <main+0x1150>
bfc011b4:	00000000 	nop
bfc011b8:	1000000b 	b	bfc011e8 <main+0x11e8>
bfc011bc:	00000000 	nop
bfc011c0:	00000021 	move	zero,zero
bfc011c4:	00000021 	move	zero,zero
bfc011c8:	00000021 	move	zero,zero
bfc011cc:	00000021 	move	zero,zero
bfc011d0:	00000021 	move	zero,zero
bfc011d4:	00000021 	move	zero,zero
bfc011d8:	00000021 	move	zero,zero
bfc011dc:	00000021 	move	zero,zero
bfc011e0:	3c12fef9 	lui	s2,0xfef9
bfc011e4:	3652ebd0 	ori	s2,s2,0xebd0
bfc011e8:	00000000 	nop
bfc011ec:	3c145554 	lui	s4,0x5554
bfc011f0:	3694cc08 	ori	s4,s4,0xcc08
bfc011f4:	16143afc 	bne	s0,s4,bfc0fde8 <inst_error>
bfc011f8:	00000000 	nop
bfc011fc:	3c15fef9 	lui	s5,0xfef9
bfc01200:	36b5ebd0 	ori	s5,s5,0xebd0
bfc01204:	16553af8 	bne	s2,s5,bfc0fde8 <inst_error>
bfc01208:	00000000 	nop
bfc0120c:	3c0cd927 	lui	t4,0xd927
bfc01210:	358c3ed0 	ori	t4,t4,0x3ed0
bfc01214:	3c0d5279 	lui	t5,0x5279
bfc01218:	35ad86c0 	ori	t5,t5,0x86c0
bfc0121c:	24100000 	li	s0,0
bfc01220:	24120000 	li	s2,0
bfc01224:	10000015 	b	bfc0127c <main+0x127c>
bfc01228:	00000000 	nop
bfc0122c:	3c10d927 	lui	s0,0xd927
bfc01230:	36103ed0 	ori	s0,s0,0x3ed0
bfc01234:	15280021 	bne	t1,t0,bfc012bc <main+0x12bc>
bfc01238:	00000000 	nop
bfc0123c:	10000021 	b	bfc012c4 <main+0x12c4>
bfc01240:	00000000 	nop
bfc01244:	00000021 	move	zero,zero
bfc01248:	00000021 	move	zero,zero
bfc0124c:	00000021 	move	zero,zero
bfc01250:	00000021 	move	zero,zero
bfc01254:	00000021 	move	zero,zero
bfc01258:	00000021 	move	zero,zero
bfc0125c:	00000021 	move	zero,zero
bfc01260:	00000021 	move	zero,zero
bfc01264:	00000021 	move	zero,zero
bfc01268:	00000021 	move	zero,zero
bfc0126c:	00000021 	move	zero,zero
bfc01270:	00000021 	move	zero,zero
bfc01274:	00000021 	move	zero,zero
bfc01278:	00000021 	move	zero,zero
bfc0127c:	3c08579c 	lui	t0,0x579c
bfc01280:	35085800 	ori	t0,t0,0x5800
bfc01284:	3c09da05 	lui	t1,0xda05
bfc01288:	3529fc00 	ori	t1,t1,0xfc00
bfc0128c:	1509ffe7 	bne	t0,t1,bfc0122c <main+0x122c>
bfc01290:	00000000 	nop
bfc01294:	1000000b 	b	bfc012c4 <main+0x12c4>
bfc01298:	00000000 	nop
bfc0129c:	00000021 	move	zero,zero
bfc012a0:	00000021 	move	zero,zero
bfc012a4:	00000021 	move	zero,zero
bfc012a8:	00000021 	move	zero,zero
bfc012ac:	00000021 	move	zero,zero
bfc012b0:	00000021 	move	zero,zero
bfc012b4:	00000021 	move	zero,zero
bfc012b8:	00000021 	move	zero,zero
bfc012bc:	3c125279 	lui	s2,0x5279
bfc012c0:	365286c0 	ori	s2,s2,0x86c0
bfc012c4:	00000000 	nop
bfc012c8:	3c14d927 	lui	s4,0xd927
bfc012cc:	36943ed0 	ori	s4,s4,0x3ed0
bfc012d0:	16143ac5 	bne	s0,s4,bfc0fde8 <inst_error>
bfc012d4:	00000000 	nop
bfc012d8:	3c155279 	lui	s5,0x5279
bfc012dc:	36b586c0 	ori	s5,s5,0x86c0
bfc012e0:	16553ac1 	bne	s2,s5,bfc0fde8 <inst_error>
bfc012e4:	00000000 	nop
bfc012e8:	3c0ccac1 	lui	t4,0xcac1
bfc012ec:	358c82b0 	ori	t4,t4,0x82b0
bfc012f0:	3c0df229 	lui	t5,0xf229
bfc012f4:	35ad1c9c 	ori	t5,t5,0x1c9c
bfc012f8:	24100000 	li	s0,0
bfc012fc:	24120000 	li	s2,0
bfc01300:	10000015 	b	bfc01358 <main+0x1358>
bfc01304:	00000000 	nop
bfc01308:	3c10cac1 	lui	s0,0xcac1
bfc0130c:	361082b0 	ori	s0,s0,0x82b0
bfc01310:	15280021 	bne	t1,t0,bfc01398 <main+0x1398>
bfc01314:	00000000 	nop
bfc01318:	10000021 	b	bfc013a0 <main+0x13a0>
bfc0131c:	00000000 	nop
bfc01320:	00000021 	move	zero,zero
bfc01324:	00000021 	move	zero,zero
bfc01328:	00000021 	move	zero,zero
bfc0132c:	00000021 	move	zero,zero
bfc01330:	00000021 	move	zero,zero
bfc01334:	00000021 	move	zero,zero
bfc01338:	00000021 	move	zero,zero
bfc0133c:	00000021 	move	zero,zero
bfc01340:	00000021 	move	zero,zero
bfc01344:	00000021 	move	zero,zero
bfc01348:	00000021 	move	zero,zero
bfc0134c:	00000021 	move	zero,zero
bfc01350:	00000021 	move	zero,zero
bfc01354:	00000021 	move	zero,zero
bfc01358:	3c086ed6 	lui	t0,0x6ed6
bfc0135c:	35089e00 	ori	t0,t0,0x9e00
bfc01360:	3c09c9bc 	lui	t1,0xc9bc
bfc01364:	35299c74 	ori	t1,t1,0x9c74
bfc01368:	1509ffe7 	bne	t0,t1,bfc01308 <main+0x1308>
bfc0136c:	00000000 	nop
bfc01370:	1000000b 	b	bfc013a0 <main+0x13a0>
bfc01374:	00000000 	nop
bfc01378:	00000021 	move	zero,zero
bfc0137c:	00000021 	move	zero,zero
bfc01380:	00000021 	move	zero,zero
bfc01384:	00000021 	move	zero,zero
bfc01388:	00000021 	move	zero,zero
bfc0138c:	00000021 	move	zero,zero
bfc01390:	00000021 	move	zero,zero
bfc01394:	00000021 	move	zero,zero
bfc01398:	3c12f229 	lui	s2,0xf229
bfc0139c:	36521c9c 	ori	s2,s2,0x1c9c
bfc013a0:	00000000 	nop
bfc013a4:	3c14cac1 	lui	s4,0xcac1
bfc013a8:	369482b0 	ori	s4,s4,0x82b0
bfc013ac:	16143a8e 	bne	s0,s4,bfc0fde8 <inst_error>
bfc013b0:	00000000 	nop
bfc013b4:	3c15f229 	lui	s5,0xf229
bfc013b8:	36b51c9c 	ori	s5,s5,0x1c9c
bfc013bc:	16553a8a 	bne	s2,s5,bfc0fde8 <inst_error>
bfc013c0:	00000000 	nop
bfc013c4:	3c0c7c9b 	lui	t4,0x7c9b
bfc013c8:	358c5bbe 	ori	t4,t4,0x5bbe
bfc013cc:	3c0d6855 	lui	t5,0x6855
bfc013d0:	35ad4000 	ori	t5,t5,0x4000
bfc013d4:	24100000 	li	s0,0
bfc013d8:	24120000 	li	s2,0
bfc013dc:	10000015 	b	bfc01434 <main+0x1434>
bfc013e0:	00000000 	nop
bfc013e4:	3c107c9b 	lui	s0,0x7c9b
bfc013e8:	36105bbe 	ori	s0,s0,0x5bbe
bfc013ec:	15280021 	bne	t1,t0,bfc01474 <main+0x1474>
bfc013f0:	00000000 	nop
bfc013f4:	10000021 	b	bfc0147c <main+0x147c>
bfc013f8:	00000000 	nop
bfc013fc:	00000021 	move	zero,zero
bfc01400:	00000021 	move	zero,zero
bfc01404:	00000021 	move	zero,zero
bfc01408:	00000021 	move	zero,zero
bfc0140c:	00000021 	move	zero,zero
bfc01410:	00000021 	move	zero,zero
bfc01414:	00000021 	move	zero,zero
bfc01418:	00000021 	move	zero,zero
bfc0141c:	00000021 	move	zero,zero
bfc01420:	00000021 	move	zero,zero
bfc01424:	00000021 	move	zero,zero
bfc01428:	00000021 	move	zero,zero
bfc0142c:	00000021 	move	zero,zero
bfc01430:	00000021 	move	zero,zero
bfc01434:	3c08ca31 	lui	t0,0xca31
bfc01438:	35084c8f 	ori	t0,t0,0x4c8f
bfc0143c:	3c0908cb 	lui	t1,0x8cb
bfc01440:	35298c40 	ori	t1,t1,0x8c40
bfc01444:	1509ffe7 	bne	t0,t1,bfc013e4 <main+0x13e4>
bfc01448:	00000000 	nop
bfc0144c:	1000000b 	b	bfc0147c <main+0x147c>
bfc01450:	00000000 	nop
bfc01454:	00000021 	move	zero,zero
bfc01458:	00000021 	move	zero,zero
bfc0145c:	00000021 	move	zero,zero
bfc01460:	00000021 	move	zero,zero
bfc01464:	00000021 	move	zero,zero
bfc01468:	00000021 	move	zero,zero
bfc0146c:	00000021 	move	zero,zero
bfc01470:	00000021 	move	zero,zero
bfc01474:	3c126855 	lui	s2,0x6855
bfc01478:	36524000 	ori	s2,s2,0x4000
bfc0147c:	00000000 	nop
bfc01480:	3c147c9b 	lui	s4,0x7c9b
bfc01484:	36945bbe 	ori	s4,s4,0x5bbe
bfc01488:	16143a57 	bne	s0,s4,bfc0fde8 <inst_error>
bfc0148c:	00000000 	nop
bfc01490:	3c156855 	lui	s5,0x6855
bfc01494:	36b54000 	ori	s5,s5,0x4000
bfc01498:	16553a53 	bne	s2,s5,bfc0fde8 <inst_error>
bfc0149c:	00000000 	nop
bfc014a0:	3c0c8b00 	lui	t4,0x8b00
bfc014a4:	358c5dcc 	ori	t4,t4,0x5dcc
bfc014a8:	3c0d1178 	lui	t5,0x1178
bfc014ac:	35ad430a 	ori	t5,t5,0x430a
bfc014b0:	24100000 	li	s0,0
bfc014b4:	24120000 	li	s2,0
bfc014b8:	10000015 	b	bfc01510 <main+0x1510>
bfc014bc:	00000000 	nop
bfc014c0:	3c108b00 	lui	s0,0x8b00
bfc014c4:	36105dcc 	ori	s0,s0,0x5dcc
bfc014c8:	15280021 	bne	t1,t0,bfc01550 <main+0x1550>
bfc014cc:	00000000 	nop
bfc014d0:	10000021 	b	bfc01558 <main+0x1558>
bfc014d4:	00000000 	nop
bfc014d8:	00000021 	move	zero,zero
bfc014dc:	00000021 	move	zero,zero
bfc014e0:	00000021 	move	zero,zero
bfc014e4:	00000021 	move	zero,zero
bfc014e8:	00000021 	move	zero,zero
bfc014ec:	00000021 	move	zero,zero
bfc014f0:	00000021 	move	zero,zero
bfc014f4:	00000021 	move	zero,zero
bfc014f8:	00000021 	move	zero,zero
bfc014fc:	00000021 	move	zero,zero
bfc01500:	00000021 	move	zero,zero
bfc01504:	00000021 	move	zero,zero
bfc01508:	00000021 	move	zero,zero
bfc0150c:	00000021 	move	zero,zero
bfc01510:	3c085b47 	lui	t0,0x5b47
bfc01514:	35080628 	ori	t0,t0,0x628
bfc01518:	3c093ff3 	lui	t1,0x3ff3
bfc0151c:	35299fb8 	ori	t1,t1,0x9fb8
bfc01520:	1509ffe7 	bne	t0,t1,bfc014c0 <main+0x14c0>
bfc01524:	00000000 	nop
bfc01528:	1000000b 	b	bfc01558 <main+0x1558>
bfc0152c:	00000000 	nop
bfc01530:	00000021 	move	zero,zero
bfc01534:	00000021 	move	zero,zero
bfc01538:	00000021 	move	zero,zero
bfc0153c:	00000021 	move	zero,zero
bfc01540:	00000021 	move	zero,zero
bfc01544:	00000021 	move	zero,zero
bfc01548:	00000021 	move	zero,zero
bfc0154c:	00000021 	move	zero,zero
bfc01550:	3c121178 	lui	s2,0x1178
bfc01554:	3652430a 	ori	s2,s2,0x430a
bfc01558:	00000000 	nop
bfc0155c:	3c148b00 	lui	s4,0x8b00
bfc01560:	36945dcc 	ori	s4,s4,0x5dcc
bfc01564:	16143a20 	bne	s0,s4,bfc0fde8 <inst_error>
bfc01568:	00000000 	nop
bfc0156c:	3c151178 	lui	s5,0x1178
bfc01570:	36b5430a 	ori	s5,s5,0x430a
bfc01574:	16553a1c 	bne	s2,s5,bfc0fde8 <inst_error>
bfc01578:	00000000 	nop
bfc0157c:	3c0ce3ad 	lui	t4,0xe3ad
bfc01580:	358c64c8 	ori	t4,t4,0x64c8
bfc01584:	3c0de66d 	lui	t5,0xe66d
bfc01588:	35ad52fc 	ori	t5,t5,0x52fc
bfc0158c:	24100000 	li	s0,0
bfc01590:	24120000 	li	s2,0
bfc01594:	10000015 	b	bfc015ec <main+0x15ec>
bfc01598:	00000000 	nop
bfc0159c:	3c10e3ad 	lui	s0,0xe3ad
bfc015a0:	361064c8 	ori	s0,s0,0x64c8
bfc015a4:	15280021 	bne	t1,t0,bfc0162c <main+0x162c>
bfc015a8:	00000000 	nop
bfc015ac:	10000021 	b	bfc01634 <main+0x1634>
bfc015b0:	00000000 	nop
bfc015b4:	00000021 	move	zero,zero
bfc015b8:	00000021 	move	zero,zero
bfc015bc:	00000021 	move	zero,zero
bfc015c0:	00000021 	move	zero,zero
bfc015c4:	00000021 	move	zero,zero
bfc015c8:	00000021 	move	zero,zero
bfc015cc:	00000021 	move	zero,zero
bfc015d0:	00000021 	move	zero,zero
bfc015d4:	00000021 	move	zero,zero
bfc015d8:	00000021 	move	zero,zero
bfc015dc:	00000021 	move	zero,zero
bfc015e0:	00000021 	move	zero,zero
bfc015e4:	00000021 	move	zero,zero
bfc015e8:	00000021 	move	zero,zero
bfc015ec:	3c086617 	lui	t0,0x6617
bfc015f0:	3508a3ca 	ori	t0,t0,0xa3ca
bfc015f4:	3c094b54 	lui	t1,0x4b54
bfc015f8:	35296b70 	ori	t1,t1,0x6b70
bfc015fc:	1509ffe7 	bne	t0,t1,bfc0159c <main+0x159c>
bfc01600:	00000000 	nop
bfc01604:	1000000b 	b	bfc01634 <main+0x1634>
bfc01608:	00000000 	nop
bfc0160c:	00000021 	move	zero,zero
bfc01610:	00000021 	move	zero,zero
bfc01614:	00000021 	move	zero,zero
bfc01618:	00000021 	move	zero,zero
bfc0161c:	00000021 	move	zero,zero
bfc01620:	00000021 	move	zero,zero
bfc01624:	00000021 	move	zero,zero
bfc01628:	00000021 	move	zero,zero
bfc0162c:	3c12e66d 	lui	s2,0xe66d
bfc01630:	365252fc 	ori	s2,s2,0x52fc
bfc01634:	00000000 	nop
bfc01638:	3c14e3ad 	lui	s4,0xe3ad
bfc0163c:	369464c8 	ori	s4,s4,0x64c8
bfc01640:	161439e9 	bne	s0,s4,bfc0fde8 <inst_error>
bfc01644:	00000000 	nop
bfc01648:	3c15e66d 	lui	s5,0xe66d
bfc0164c:	36b552fc 	ori	s5,s5,0x52fc
bfc01650:	165539e5 	bne	s2,s5,bfc0fde8 <inst_error>
bfc01654:	00000000 	nop
bfc01658:	3c0cec8e 	lui	t4,0xec8e
bfc0165c:	358cd9fe 	ori	t4,t4,0xd9fe
bfc01660:	3c0d2566 	lui	t5,0x2566
bfc01664:	35ad75c0 	ori	t5,t5,0x75c0
bfc01668:	24100000 	li	s0,0
bfc0166c:	24120000 	li	s2,0
bfc01670:	10000015 	b	bfc016c8 <main+0x16c8>
bfc01674:	00000000 	nop
bfc01678:	3c10ec8e 	lui	s0,0xec8e
bfc0167c:	3610d9fe 	ori	s0,s0,0xd9fe
bfc01680:	15280021 	bne	t1,t0,bfc01708 <main+0x1708>
bfc01684:	00000000 	nop
bfc01688:	10000021 	b	bfc01710 <main+0x1710>
bfc0168c:	00000000 	nop
bfc01690:	00000021 	move	zero,zero
bfc01694:	00000021 	move	zero,zero
bfc01698:	00000021 	move	zero,zero
bfc0169c:	00000021 	move	zero,zero
bfc016a0:	00000021 	move	zero,zero
bfc016a4:	00000021 	move	zero,zero
bfc016a8:	00000021 	move	zero,zero
bfc016ac:	00000021 	move	zero,zero
bfc016b0:	00000021 	move	zero,zero
bfc016b4:	00000021 	move	zero,zero
bfc016b8:	00000021 	move	zero,zero
bfc016bc:	00000021 	move	zero,zero
bfc016c0:	00000021 	move	zero,zero
bfc016c4:	00000021 	move	zero,zero
bfc016c8:	3c08c79b 	lui	t0,0xc79b
bfc016cc:	3508cf00 	ori	t0,t0,0xcf00
bfc016d0:	3c09a25e 	lui	t1,0xa25e
bfc016d4:	35297b96 	ori	t1,t1,0x7b96
bfc016d8:	1509ffe7 	bne	t0,t1,bfc01678 <main+0x1678>
bfc016dc:	00000000 	nop
bfc016e0:	1000000b 	b	bfc01710 <main+0x1710>
bfc016e4:	00000000 	nop
bfc016e8:	00000021 	move	zero,zero
bfc016ec:	00000021 	move	zero,zero
bfc016f0:	00000021 	move	zero,zero
bfc016f4:	00000021 	move	zero,zero
bfc016f8:	00000021 	move	zero,zero
bfc016fc:	00000021 	move	zero,zero
bfc01700:	00000021 	move	zero,zero
bfc01704:	00000021 	move	zero,zero
bfc01708:	3c122566 	lui	s2,0x2566
bfc0170c:	365275c0 	ori	s2,s2,0x75c0
bfc01710:	00000000 	nop
bfc01714:	3c14ec8e 	lui	s4,0xec8e
bfc01718:	3694d9fe 	ori	s4,s4,0xd9fe
bfc0171c:	161439b2 	bne	s0,s4,bfc0fde8 <inst_error>
bfc01720:	00000000 	nop
bfc01724:	3c152566 	lui	s5,0x2566
bfc01728:	36b575c0 	ori	s5,s5,0x75c0
bfc0172c:	165539ae 	bne	s2,s5,bfc0fde8 <inst_error>
bfc01730:	00000000 	nop
bfc01734:	3c0cf0b1 	lui	t4,0xf0b1
bfc01738:	358c3320 	ori	t4,t4,0x3320
bfc0173c:	3c0d3260 	lui	t5,0x3260
bfc01740:	35ad0a48 	ori	t5,t5,0xa48
bfc01744:	24100000 	li	s0,0
bfc01748:	24120000 	li	s2,0
bfc0174c:	10000015 	b	bfc017a4 <main+0x17a4>
bfc01750:	00000000 	nop
bfc01754:	3c10f0b1 	lui	s0,0xf0b1
bfc01758:	36103320 	ori	s0,s0,0x3320
bfc0175c:	15280021 	bne	t1,t0,bfc017e4 <main+0x17e4>
bfc01760:	00000000 	nop
bfc01764:	10000021 	b	bfc017ec <main+0x17ec>
bfc01768:	00000000 	nop
bfc0176c:	00000021 	move	zero,zero
bfc01770:	00000021 	move	zero,zero
bfc01774:	00000021 	move	zero,zero
bfc01778:	00000021 	move	zero,zero
bfc0177c:	00000021 	move	zero,zero
bfc01780:	00000021 	move	zero,zero
bfc01784:	00000021 	move	zero,zero
bfc01788:	00000021 	move	zero,zero
bfc0178c:	00000021 	move	zero,zero
bfc01790:	00000021 	move	zero,zero
bfc01794:	00000021 	move	zero,zero
bfc01798:	00000021 	move	zero,zero
bfc0179c:	00000021 	move	zero,zero
bfc017a0:	00000021 	move	zero,zero
bfc017a4:	3c0864f8 	lui	t0,0x64f8
bfc017a8:	3508bd3c 	ori	t0,t0,0xbd3c
bfc017ac:	3c09dd80 	lui	t1,0xdd80
bfc017b0:	35291ec0 	ori	t1,t1,0x1ec0
bfc017b4:	1509ffe7 	bne	t0,t1,bfc01754 <main+0x1754>
bfc017b8:	00000000 	nop
bfc017bc:	1000000b 	b	bfc017ec <main+0x17ec>
bfc017c0:	00000000 	nop
bfc017c4:	00000021 	move	zero,zero
bfc017c8:	00000021 	move	zero,zero
bfc017cc:	00000021 	move	zero,zero
bfc017d0:	00000021 	move	zero,zero
bfc017d4:	00000021 	move	zero,zero
bfc017d8:	00000021 	move	zero,zero
bfc017dc:	00000021 	move	zero,zero
bfc017e0:	00000021 	move	zero,zero
bfc017e4:	3c123260 	lui	s2,0x3260
bfc017e8:	36520a48 	ori	s2,s2,0xa48
bfc017ec:	00000000 	nop
bfc017f0:	3c14f0b1 	lui	s4,0xf0b1
bfc017f4:	36943320 	ori	s4,s4,0x3320
bfc017f8:	1614397b 	bne	s0,s4,bfc0fde8 <inst_error>
bfc017fc:	00000000 	nop
bfc01800:	3c153260 	lui	s5,0x3260
bfc01804:	36b50a48 	ori	s5,s5,0xa48
bfc01808:	16553977 	bne	s2,s5,bfc0fde8 <inst_error>
bfc0180c:	00000000 	nop
bfc01810:	3c0c8276 	lui	t4,0x8276
bfc01814:	358cf040 	ori	t4,t4,0xf040
bfc01818:	3c0da521 	lui	t5,0xa521
bfc0181c:	35ad4741 	ori	t5,t5,0x4741
bfc01820:	24100000 	li	s0,0
bfc01824:	24120000 	li	s2,0
bfc01828:	10000015 	b	bfc01880 <main+0x1880>
bfc0182c:	00000000 	nop
bfc01830:	3c108276 	lui	s0,0x8276
bfc01834:	3610f040 	ori	s0,s0,0xf040
bfc01838:	15280021 	bne	t1,t0,bfc018c0 <main+0x18c0>
bfc0183c:	00000000 	nop
bfc01840:	10000021 	b	bfc018c8 <main+0x18c8>
bfc01844:	00000000 	nop
bfc01848:	00000021 	move	zero,zero
bfc0184c:	00000021 	move	zero,zero
bfc01850:	00000021 	move	zero,zero
bfc01854:	00000021 	move	zero,zero
bfc01858:	00000021 	move	zero,zero
bfc0185c:	00000021 	move	zero,zero
bfc01860:	00000021 	move	zero,zero
bfc01864:	00000021 	move	zero,zero
bfc01868:	00000021 	move	zero,zero
bfc0186c:	00000021 	move	zero,zero
bfc01870:	00000021 	move	zero,zero
bfc01874:	00000021 	move	zero,zero
bfc01878:	00000021 	move	zero,zero
bfc0187c:	00000021 	move	zero,zero
bfc01880:	3c086007 	lui	t0,0x6007
bfc01884:	3508ae32 	ori	t0,t0,0xae32
bfc01888:	3c09e256 	lui	t1,0xe256
bfc0188c:	35292f25 	ori	t1,t1,0x2f25
bfc01890:	1509ffe7 	bne	t0,t1,bfc01830 <main+0x1830>
bfc01894:	00000000 	nop
bfc01898:	1000000b 	b	bfc018c8 <main+0x18c8>
bfc0189c:	00000000 	nop
bfc018a0:	00000021 	move	zero,zero
bfc018a4:	00000021 	move	zero,zero
bfc018a8:	00000021 	move	zero,zero
bfc018ac:	00000021 	move	zero,zero
bfc018b0:	00000021 	move	zero,zero
bfc018b4:	00000021 	move	zero,zero
bfc018b8:	00000021 	move	zero,zero
bfc018bc:	00000021 	move	zero,zero
bfc018c0:	3c12a521 	lui	s2,0xa521
bfc018c4:	36524741 	ori	s2,s2,0x4741
bfc018c8:	00000000 	nop
bfc018cc:	3c148276 	lui	s4,0x8276
bfc018d0:	3694f040 	ori	s4,s4,0xf040
bfc018d4:	16143944 	bne	s0,s4,bfc0fde8 <inst_error>
bfc018d8:	00000000 	nop
bfc018dc:	3c15a521 	lui	s5,0xa521
bfc018e0:	36b54741 	ori	s5,s5,0x4741
bfc018e4:	16553940 	bne	s2,s5,bfc0fde8 <inst_error>
bfc018e8:	00000000 	nop
bfc018ec:	3c0c931c 	lui	t4,0x931c
bfc018f0:	358c95b4 	ori	t4,t4,0x95b4
bfc018f4:	3c0d4054 	lui	t5,0x4054
bfc018f8:	35adf9f0 	ori	t5,t5,0xf9f0
bfc018fc:	24100000 	li	s0,0
bfc01900:	24120000 	li	s2,0
bfc01904:	10000015 	b	bfc0195c <main+0x195c>
bfc01908:	00000000 	nop
bfc0190c:	3c10931c 	lui	s0,0x931c
bfc01910:	361095b4 	ori	s0,s0,0x95b4
bfc01914:	15280021 	bne	t1,t0,bfc0199c <main+0x199c>
bfc01918:	00000000 	nop
bfc0191c:	10000021 	b	bfc019a4 <main+0x19a4>
bfc01920:	00000000 	nop
bfc01924:	00000021 	move	zero,zero
bfc01928:	00000021 	move	zero,zero
bfc0192c:	00000021 	move	zero,zero
bfc01930:	00000021 	move	zero,zero
bfc01934:	00000021 	move	zero,zero
bfc01938:	00000021 	move	zero,zero
bfc0193c:	00000021 	move	zero,zero
bfc01940:	00000021 	move	zero,zero
bfc01944:	00000021 	move	zero,zero
bfc01948:	00000021 	move	zero,zero
bfc0194c:	00000021 	move	zero,zero
bfc01950:	00000021 	move	zero,zero
bfc01954:	00000021 	move	zero,zero
bfc01958:	00000021 	move	zero,zero
bfc0195c:	3c08379b 	lui	t0,0x379b
bfc01960:	35082295 	ori	t0,t0,0x2295
bfc01964:	3c090cfa 	lui	t1,0xcfa
bfc01968:	35298c1c 	ori	t1,t1,0x8c1c
bfc0196c:	1509ffe7 	bne	t0,t1,bfc0190c <main+0x190c>
bfc01970:	00000000 	nop
bfc01974:	1000000b 	b	bfc019a4 <main+0x19a4>
bfc01978:	00000000 	nop
bfc0197c:	00000021 	move	zero,zero
bfc01980:	00000021 	move	zero,zero
bfc01984:	00000021 	move	zero,zero
bfc01988:	00000021 	move	zero,zero
bfc0198c:	00000021 	move	zero,zero
bfc01990:	00000021 	move	zero,zero
bfc01994:	00000021 	move	zero,zero
bfc01998:	00000021 	move	zero,zero
bfc0199c:	3c124054 	lui	s2,0x4054
bfc019a0:	3652f9f0 	ori	s2,s2,0xf9f0
bfc019a4:	00000000 	nop
bfc019a8:	3c14931c 	lui	s4,0x931c
bfc019ac:	369495b4 	ori	s4,s4,0x95b4
bfc019b0:	1614390d 	bne	s0,s4,bfc0fde8 <inst_error>
bfc019b4:	00000000 	nop
bfc019b8:	3c154054 	lui	s5,0x4054
bfc019bc:	36b5f9f0 	ori	s5,s5,0xf9f0
bfc019c0:	16553909 	bne	s2,s5,bfc0fde8 <inst_error>
bfc019c4:	00000000 	nop
bfc019c8:	3c0c3d05 	lui	t4,0x3d05
bfc019cc:	358cdf06 	ori	t4,t4,0xdf06
bfc019d0:	3c0d1f4b 	lui	t5,0x1f4b
bfc019d4:	35ad921c 	ori	t5,t5,0x921c
bfc019d8:	24100000 	li	s0,0
bfc019dc:	24120000 	li	s2,0
bfc019e0:	10000015 	b	bfc01a38 <main+0x1a38>
bfc019e4:	00000000 	nop
bfc019e8:	3c103d05 	lui	s0,0x3d05
bfc019ec:	3610df06 	ori	s0,s0,0xdf06
bfc019f0:	15280021 	bne	t1,t0,bfc01a78 <main+0x1a78>
bfc019f4:	00000000 	nop
bfc019f8:	10000021 	b	bfc01a80 <main+0x1a80>
bfc019fc:	00000000 	nop
bfc01a00:	00000021 	move	zero,zero
bfc01a04:	00000021 	move	zero,zero
bfc01a08:	00000021 	move	zero,zero
bfc01a0c:	00000021 	move	zero,zero
bfc01a10:	00000021 	move	zero,zero
bfc01a14:	00000021 	move	zero,zero
bfc01a18:	00000021 	move	zero,zero
bfc01a1c:	00000021 	move	zero,zero
bfc01a20:	00000021 	move	zero,zero
bfc01a24:	00000021 	move	zero,zero
bfc01a28:	00000021 	move	zero,zero
bfc01a2c:	00000021 	move	zero,zero
bfc01a30:	00000021 	move	zero,zero
bfc01a34:	00000021 	move	zero,zero
bfc01a38:	3c08e1e7 	lui	t0,0xe1e7
bfc01a3c:	35083816 	ori	t0,t0,0x3816
bfc01a40:	3c096ec3 	lui	t1,0x6ec3
bfc01a44:	35298dd8 	ori	t1,t1,0x8dd8
bfc01a48:	1509ffe7 	bne	t0,t1,bfc019e8 <main+0x19e8>
bfc01a4c:	00000000 	nop
bfc01a50:	1000000b 	b	bfc01a80 <main+0x1a80>
bfc01a54:	00000000 	nop
bfc01a58:	00000021 	move	zero,zero
bfc01a5c:	00000021 	move	zero,zero
bfc01a60:	00000021 	move	zero,zero
bfc01a64:	00000021 	move	zero,zero
bfc01a68:	00000021 	move	zero,zero
bfc01a6c:	00000021 	move	zero,zero
bfc01a70:	00000021 	move	zero,zero
bfc01a74:	00000021 	move	zero,zero
bfc01a78:	3c121f4b 	lui	s2,0x1f4b
bfc01a7c:	3652921c 	ori	s2,s2,0x921c
bfc01a80:	00000000 	nop
bfc01a84:	3c143d05 	lui	s4,0x3d05
bfc01a88:	3694df06 	ori	s4,s4,0xdf06
bfc01a8c:	161438d6 	bne	s0,s4,bfc0fde8 <inst_error>
bfc01a90:	00000000 	nop
bfc01a94:	3c151f4b 	lui	s5,0x1f4b
bfc01a98:	36b5921c 	ori	s5,s5,0x921c
bfc01a9c:	165538d2 	bne	s2,s5,bfc0fde8 <inst_error>
bfc01aa0:	00000000 	nop
bfc01aa4:	3c0c6df1 	lui	t4,0x6df1
bfc01aa8:	358ce518 	ori	t4,t4,0xe518
bfc01aac:	3c0de6dc 	lui	t5,0xe6dc
bfc01ab0:	35ad0f4e 	ori	t5,t5,0xf4e
bfc01ab4:	24100000 	li	s0,0
bfc01ab8:	24120000 	li	s2,0
bfc01abc:	10000015 	b	bfc01b14 <main+0x1b14>
bfc01ac0:	00000000 	nop
bfc01ac4:	3c106df1 	lui	s0,0x6df1
bfc01ac8:	3610e518 	ori	s0,s0,0xe518
bfc01acc:	15280021 	bne	t1,t0,bfc01b54 <main+0x1b54>
bfc01ad0:	00000000 	nop
bfc01ad4:	10000021 	b	bfc01b5c <main+0x1b5c>
bfc01ad8:	00000000 	nop
bfc01adc:	00000021 	move	zero,zero
bfc01ae0:	00000021 	move	zero,zero
bfc01ae4:	00000021 	move	zero,zero
bfc01ae8:	00000021 	move	zero,zero
bfc01aec:	00000021 	move	zero,zero
bfc01af0:	00000021 	move	zero,zero
bfc01af4:	00000021 	move	zero,zero
bfc01af8:	00000021 	move	zero,zero
bfc01afc:	00000021 	move	zero,zero
bfc01b00:	00000021 	move	zero,zero
bfc01b04:	00000021 	move	zero,zero
bfc01b08:	00000021 	move	zero,zero
bfc01b0c:	00000021 	move	zero,zero
bfc01b10:	00000021 	move	zero,zero
bfc01b14:	3c08498a 	lui	t0,0x498a
bfc01b18:	3508d0f6 	ori	t0,t0,0xd0f6
bfc01b1c:	3c0922c6 	lui	t1,0x22c6
bfc01b20:	3529c30a 	ori	t1,t1,0xc30a
bfc01b24:	1509ffe7 	bne	t0,t1,bfc01ac4 <main+0x1ac4>
bfc01b28:	00000000 	nop
bfc01b2c:	1000000b 	b	bfc01b5c <main+0x1b5c>
bfc01b30:	00000000 	nop
bfc01b34:	00000021 	move	zero,zero
bfc01b38:	00000021 	move	zero,zero
bfc01b3c:	00000021 	move	zero,zero
bfc01b40:	00000021 	move	zero,zero
bfc01b44:	00000021 	move	zero,zero
bfc01b48:	00000021 	move	zero,zero
bfc01b4c:	00000021 	move	zero,zero
bfc01b50:	00000021 	move	zero,zero
bfc01b54:	3c12e6dc 	lui	s2,0xe6dc
bfc01b58:	36520f4e 	ori	s2,s2,0xf4e
bfc01b5c:	00000000 	nop
bfc01b60:	3c146df1 	lui	s4,0x6df1
bfc01b64:	3694e518 	ori	s4,s4,0xe518
bfc01b68:	1614389f 	bne	s0,s4,bfc0fde8 <inst_error>
bfc01b6c:	00000000 	nop
bfc01b70:	3c15e6dc 	lui	s5,0xe6dc
bfc01b74:	36b50f4e 	ori	s5,s5,0xf4e
bfc01b78:	1655389b 	bne	s2,s5,bfc0fde8 <inst_error>
bfc01b7c:	00000000 	nop
bfc01b80:	3c0c451c 	lui	t4,0x451c
bfc01b84:	358cf0d0 	ori	t4,t4,0xf0d0
bfc01b88:	3c0dd311 	lui	t5,0xd311
bfc01b8c:	35adf9e5 	ori	t5,t5,0xf9e5
bfc01b90:	24100000 	li	s0,0
bfc01b94:	24120000 	li	s2,0
bfc01b98:	10000015 	b	bfc01bf0 <main+0x1bf0>
bfc01b9c:	00000000 	nop
bfc01ba0:	3c10451c 	lui	s0,0x451c
bfc01ba4:	3610f0d0 	ori	s0,s0,0xf0d0
bfc01ba8:	15280021 	bne	t1,t0,bfc01c30 <main+0x1c30>
bfc01bac:	00000000 	nop
bfc01bb0:	10000021 	b	bfc01c38 <main+0x1c38>
bfc01bb4:	00000000 	nop
bfc01bb8:	00000021 	move	zero,zero
bfc01bbc:	00000021 	move	zero,zero
bfc01bc0:	00000021 	move	zero,zero
bfc01bc4:	00000021 	move	zero,zero
bfc01bc8:	00000021 	move	zero,zero
bfc01bcc:	00000021 	move	zero,zero
bfc01bd0:	00000021 	move	zero,zero
bfc01bd4:	00000021 	move	zero,zero
bfc01bd8:	00000021 	move	zero,zero
bfc01bdc:	00000021 	move	zero,zero
bfc01be0:	00000021 	move	zero,zero
bfc01be4:	00000021 	move	zero,zero
bfc01be8:	00000021 	move	zero,zero
bfc01bec:	00000021 	move	zero,zero
bfc01bf0:	3c0851cb 	lui	t0,0x51cb
bfc01bf4:	350827de 	ori	t0,t0,0x27de
bfc01bf8:	3c090dce 	lui	t1,0xdce
bfc01bfc:	35292d00 	ori	t1,t1,0x2d00
bfc01c00:	1509ffe7 	bne	t0,t1,bfc01ba0 <main+0x1ba0>
bfc01c04:	00000000 	nop
bfc01c08:	1000000b 	b	bfc01c38 <main+0x1c38>
bfc01c0c:	00000000 	nop
bfc01c10:	00000021 	move	zero,zero
bfc01c14:	00000021 	move	zero,zero
bfc01c18:	00000021 	move	zero,zero
bfc01c1c:	00000021 	move	zero,zero
bfc01c20:	00000021 	move	zero,zero
bfc01c24:	00000021 	move	zero,zero
bfc01c28:	00000021 	move	zero,zero
bfc01c2c:	00000021 	move	zero,zero
bfc01c30:	3c12d311 	lui	s2,0xd311
bfc01c34:	3652f9e5 	ori	s2,s2,0xf9e5
bfc01c38:	00000000 	nop
bfc01c3c:	3c14451c 	lui	s4,0x451c
bfc01c40:	3694f0d0 	ori	s4,s4,0xf0d0
bfc01c44:	16143868 	bne	s0,s4,bfc0fde8 <inst_error>
bfc01c48:	00000000 	nop
bfc01c4c:	3c15d311 	lui	s5,0xd311
bfc01c50:	36b5f9e5 	ori	s5,s5,0xf9e5
bfc01c54:	16553864 	bne	s2,s5,bfc0fde8 <inst_error>
bfc01c58:	00000000 	nop
bfc01c5c:	3c0ca2c1 	lui	t4,0xa2c1
bfc01c60:	358c5a80 	ori	t4,t4,0x5a80
bfc01c64:	3c0d4299 	lui	t5,0x4299
bfc01c68:	35ad06c8 	ori	t5,t5,0x6c8
bfc01c6c:	24100000 	li	s0,0
bfc01c70:	24120000 	li	s2,0
bfc01c74:	10000015 	b	bfc01ccc <main+0x1ccc>
bfc01c78:	00000000 	nop
bfc01c7c:	3c10a2c1 	lui	s0,0xa2c1
bfc01c80:	36105a80 	ori	s0,s0,0x5a80
bfc01c84:	15280021 	bne	t1,t0,bfc01d0c <main+0x1d0c>
bfc01c88:	00000000 	nop
bfc01c8c:	10000021 	b	bfc01d14 <main+0x1d14>
bfc01c90:	00000000 	nop
bfc01c94:	00000021 	move	zero,zero
bfc01c98:	00000021 	move	zero,zero
bfc01c9c:	00000021 	move	zero,zero
bfc01ca0:	00000021 	move	zero,zero
bfc01ca4:	00000021 	move	zero,zero
bfc01ca8:	00000021 	move	zero,zero
bfc01cac:	00000021 	move	zero,zero
bfc01cb0:	00000021 	move	zero,zero
bfc01cb4:	00000021 	move	zero,zero
bfc01cb8:	00000021 	move	zero,zero
bfc01cbc:	00000021 	move	zero,zero
bfc01cc0:	00000021 	move	zero,zero
bfc01cc4:	00000021 	move	zero,zero
bfc01cc8:	00000021 	move	zero,zero
bfc01ccc:	3c087df6 	lui	t0,0x7df6
bfc01cd0:	35080ae0 	ori	t0,t0,0xae0
bfc01cd4:	3c09a75b 	lui	t1,0xa75b
bfc01cd8:	3529d401 	ori	t1,t1,0xd401
bfc01cdc:	1509ffe7 	bne	t0,t1,bfc01c7c <main+0x1c7c>
bfc01ce0:	00000000 	nop
bfc01ce4:	1000000b 	b	bfc01d14 <main+0x1d14>
bfc01ce8:	00000000 	nop
bfc01cec:	00000021 	move	zero,zero
bfc01cf0:	00000021 	move	zero,zero
bfc01cf4:	00000021 	move	zero,zero
bfc01cf8:	00000021 	move	zero,zero
bfc01cfc:	00000021 	move	zero,zero
bfc01d00:	00000021 	move	zero,zero
bfc01d04:	00000021 	move	zero,zero
bfc01d08:	00000021 	move	zero,zero
bfc01d0c:	3c124299 	lui	s2,0x4299
bfc01d10:	365206c8 	ori	s2,s2,0x6c8
bfc01d14:	00000000 	nop
bfc01d18:	3c14a2c1 	lui	s4,0xa2c1
bfc01d1c:	36945a80 	ori	s4,s4,0x5a80
bfc01d20:	16143831 	bne	s0,s4,bfc0fde8 <inst_error>
bfc01d24:	00000000 	nop
bfc01d28:	3c154299 	lui	s5,0x4299
bfc01d2c:	36b506c8 	ori	s5,s5,0x6c8
bfc01d30:	1655382d 	bne	s2,s5,bfc0fde8 <inst_error>
bfc01d34:	00000000 	nop
bfc01d38:	3c0cbf63 	lui	t4,0xbf63
bfc01d3c:	358c1b72 	ori	t4,t4,0x1b72
bfc01d40:	3c0d8677 	lui	t5,0x8677
bfc01d44:	35ad2cbc 	ori	t5,t5,0x2cbc
bfc01d48:	24100000 	li	s0,0
bfc01d4c:	24120000 	li	s2,0
bfc01d50:	10000015 	b	bfc01da8 <main+0x1da8>
bfc01d54:	00000000 	nop
bfc01d58:	3c10bf63 	lui	s0,0xbf63
bfc01d5c:	36101b72 	ori	s0,s0,0x1b72
bfc01d60:	15280021 	bne	t1,t0,bfc01de8 <main+0x1de8>
bfc01d64:	00000000 	nop
bfc01d68:	10000021 	b	bfc01df0 <main+0x1df0>
bfc01d6c:	00000000 	nop
bfc01d70:	00000021 	move	zero,zero
bfc01d74:	00000021 	move	zero,zero
bfc01d78:	00000021 	move	zero,zero
bfc01d7c:	00000021 	move	zero,zero
bfc01d80:	00000021 	move	zero,zero
bfc01d84:	00000021 	move	zero,zero
bfc01d88:	00000021 	move	zero,zero
bfc01d8c:	00000021 	move	zero,zero
bfc01d90:	00000021 	move	zero,zero
bfc01d94:	00000021 	move	zero,zero
bfc01d98:	00000021 	move	zero,zero
bfc01d9c:	00000021 	move	zero,zero
bfc01da0:	00000021 	move	zero,zero
bfc01da4:	00000021 	move	zero,zero
bfc01da8:	3c088420 	lui	t0,0x8420
bfc01dac:	350871a0 	ori	t0,t0,0x71a0
bfc01db0:	3c09a995 	lui	t1,0xa995
bfc01db4:	3529bea4 	ori	t1,t1,0xbea4
bfc01db8:	1509ffe7 	bne	t0,t1,bfc01d58 <main+0x1d58>
bfc01dbc:	00000000 	nop
bfc01dc0:	1000000b 	b	bfc01df0 <main+0x1df0>
bfc01dc4:	00000000 	nop
bfc01dc8:	00000021 	move	zero,zero
bfc01dcc:	00000021 	move	zero,zero
bfc01dd0:	00000021 	move	zero,zero
bfc01dd4:	00000021 	move	zero,zero
bfc01dd8:	00000021 	move	zero,zero
bfc01ddc:	00000021 	move	zero,zero
bfc01de0:	00000021 	move	zero,zero
bfc01de4:	00000021 	move	zero,zero
bfc01de8:	3c128677 	lui	s2,0x8677
bfc01dec:	36522cbc 	ori	s2,s2,0x2cbc
bfc01df0:	00000000 	nop
bfc01df4:	3c14bf63 	lui	s4,0xbf63
bfc01df8:	36941b72 	ori	s4,s4,0x1b72
bfc01dfc:	161437fa 	bne	s0,s4,bfc0fde8 <inst_error>
bfc01e00:	00000000 	nop
bfc01e04:	3c158677 	lui	s5,0x8677
bfc01e08:	36b52cbc 	ori	s5,s5,0x2cbc
bfc01e0c:	165537f6 	bne	s2,s5,bfc0fde8 <inst_error>
bfc01e10:	00000000 	nop
bfc01e14:	3c0c3735 	lui	t4,0x3735
bfc01e18:	358c6d80 	ori	t4,t4,0x6d80
bfc01e1c:	3c0d3fda 	lui	t5,0x3fda
bfc01e20:	35ad89f8 	ori	t5,t5,0x89f8
bfc01e24:	24100000 	li	s0,0
bfc01e28:	24120000 	li	s2,0
bfc01e2c:	10000015 	b	bfc01e84 <main+0x1e84>
bfc01e30:	00000000 	nop
bfc01e34:	3c103735 	lui	s0,0x3735
bfc01e38:	36106d80 	ori	s0,s0,0x6d80
bfc01e3c:	15280021 	bne	t1,t0,bfc01ec4 <main+0x1ec4>
bfc01e40:	00000000 	nop
bfc01e44:	10000021 	b	bfc01ecc <main+0x1ecc>
bfc01e48:	00000000 	nop
bfc01e4c:	00000021 	move	zero,zero
bfc01e50:	00000021 	move	zero,zero
bfc01e54:	00000021 	move	zero,zero
bfc01e58:	00000021 	move	zero,zero
bfc01e5c:	00000021 	move	zero,zero
bfc01e60:	00000021 	move	zero,zero
bfc01e64:	00000021 	move	zero,zero
bfc01e68:	00000021 	move	zero,zero
bfc01e6c:	00000021 	move	zero,zero
bfc01e70:	00000021 	move	zero,zero
bfc01e74:	00000021 	move	zero,zero
bfc01e78:	00000021 	move	zero,zero
bfc01e7c:	00000021 	move	zero,zero
bfc01e80:	00000021 	move	zero,zero
bfc01e84:	3c08dde8 	lui	t0,0xdde8
bfc01e88:	3508ccf2 	ori	t0,t0,0xccf2
bfc01e8c:	3c098f0c 	lui	t1,0x8f0c
bfc01e90:	3529bb6f 	ori	t1,t1,0xbb6f
bfc01e94:	1509ffe7 	bne	t0,t1,bfc01e34 <main+0x1e34>
bfc01e98:	00000000 	nop
bfc01e9c:	1000000b 	b	bfc01ecc <main+0x1ecc>
bfc01ea0:	00000000 	nop
bfc01ea4:	00000021 	move	zero,zero
bfc01ea8:	00000021 	move	zero,zero
bfc01eac:	00000021 	move	zero,zero
bfc01eb0:	00000021 	move	zero,zero
bfc01eb4:	00000021 	move	zero,zero
bfc01eb8:	00000021 	move	zero,zero
bfc01ebc:	00000021 	move	zero,zero
bfc01ec0:	00000021 	move	zero,zero
bfc01ec4:	3c123fda 	lui	s2,0x3fda
bfc01ec8:	365289f8 	ori	s2,s2,0x89f8
bfc01ecc:	00000000 	nop
bfc01ed0:	3c143735 	lui	s4,0x3735
bfc01ed4:	36946d80 	ori	s4,s4,0x6d80
bfc01ed8:	161437c3 	bne	s0,s4,bfc0fde8 <inst_error>
bfc01edc:	00000000 	nop
bfc01ee0:	3c153fda 	lui	s5,0x3fda
bfc01ee4:	36b589f8 	ori	s5,s5,0x89f8
bfc01ee8:	165537bf 	bne	s2,s5,bfc0fde8 <inst_error>
bfc01eec:	00000000 	nop
bfc01ef0:	3c0c030e 	lui	t4,0x30e
bfc01ef4:	358ceb24 	ori	t4,t4,0xeb24
bfc01ef8:	3c0d148c 	lui	t5,0x148c
bfc01efc:	35ad7301 	ori	t5,t5,0x7301
bfc01f00:	24100000 	li	s0,0
bfc01f04:	24120000 	li	s2,0
bfc01f08:	10000015 	b	bfc01f60 <main+0x1f60>
bfc01f0c:	00000000 	nop
bfc01f10:	3c10030e 	lui	s0,0x30e
bfc01f14:	3610eb24 	ori	s0,s0,0xeb24
bfc01f18:	15280021 	bne	t1,t0,bfc01fa0 <main+0x1fa0>
bfc01f1c:	00000000 	nop
bfc01f20:	10000021 	b	bfc01fa8 <main+0x1fa8>
bfc01f24:	00000000 	nop
bfc01f28:	00000021 	move	zero,zero
bfc01f2c:	00000021 	move	zero,zero
bfc01f30:	00000021 	move	zero,zero
bfc01f34:	00000021 	move	zero,zero
bfc01f38:	00000021 	move	zero,zero
bfc01f3c:	00000021 	move	zero,zero
bfc01f40:	00000021 	move	zero,zero
bfc01f44:	00000021 	move	zero,zero
bfc01f48:	00000021 	move	zero,zero
bfc01f4c:	00000021 	move	zero,zero
bfc01f50:	00000021 	move	zero,zero
bfc01f54:	00000021 	move	zero,zero
bfc01f58:	00000021 	move	zero,zero
bfc01f5c:	00000021 	move	zero,zero
bfc01f60:	3c080765 	lui	t0,0x765
bfc01f64:	3508a5c0 	ori	t0,t0,0xa5c0
bfc01f68:	3c09cfab 	lui	t1,0xcfab
bfc01f6c:	35294ad7 	ori	t1,t1,0x4ad7
bfc01f70:	1509ffe7 	bne	t0,t1,bfc01f10 <main+0x1f10>
bfc01f74:	00000000 	nop
bfc01f78:	1000000b 	b	bfc01fa8 <main+0x1fa8>
bfc01f7c:	00000000 	nop
bfc01f80:	00000021 	move	zero,zero
bfc01f84:	00000021 	move	zero,zero
bfc01f88:	00000021 	move	zero,zero
bfc01f8c:	00000021 	move	zero,zero
bfc01f90:	00000021 	move	zero,zero
bfc01f94:	00000021 	move	zero,zero
bfc01f98:	00000021 	move	zero,zero
bfc01f9c:	00000021 	move	zero,zero
bfc01fa0:	3c12148c 	lui	s2,0x148c
bfc01fa4:	36527301 	ori	s2,s2,0x7301
bfc01fa8:	00000000 	nop
bfc01fac:	3c14030e 	lui	s4,0x30e
bfc01fb0:	3694eb24 	ori	s4,s4,0xeb24
bfc01fb4:	1614378c 	bne	s0,s4,bfc0fde8 <inst_error>
bfc01fb8:	00000000 	nop
bfc01fbc:	3c15148c 	lui	s5,0x148c
bfc01fc0:	36b57301 	ori	s5,s5,0x7301
bfc01fc4:	16553788 	bne	s2,s5,bfc0fde8 <inst_error>
bfc01fc8:	00000000 	nop
bfc01fcc:	3c0ce76b 	lui	t4,0xe76b
bfc01fd0:	358c9dfe 	ori	t4,t4,0x9dfe
bfc01fd4:	3c0ddbaf 	lui	t5,0xdbaf
bfc01fd8:	35ada780 	ori	t5,t5,0xa780
bfc01fdc:	24100000 	li	s0,0
bfc01fe0:	24120000 	li	s2,0
bfc01fe4:	10000015 	b	bfc0203c <main+0x203c>
bfc01fe8:	00000000 	nop
bfc01fec:	3c10e76b 	lui	s0,0xe76b
bfc01ff0:	36109dfe 	ori	s0,s0,0x9dfe
bfc01ff4:	15280021 	bne	t1,t0,bfc0207c <main+0x207c>
bfc01ff8:	00000000 	nop
bfc01ffc:	10000021 	b	bfc02084 <main+0x2084>
bfc02000:	00000000 	nop
bfc02004:	00000021 	move	zero,zero
bfc02008:	00000021 	move	zero,zero
bfc0200c:	00000021 	move	zero,zero
bfc02010:	00000021 	move	zero,zero
bfc02014:	00000021 	move	zero,zero
bfc02018:	00000021 	move	zero,zero
bfc0201c:	00000021 	move	zero,zero
bfc02020:	00000021 	move	zero,zero
bfc02024:	00000021 	move	zero,zero
bfc02028:	00000021 	move	zero,zero
bfc0202c:	00000021 	move	zero,zero
bfc02030:	00000021 	move	zero,zero
bfc02034:	00000021 	move	zero,zero
bfc02038:	00000021 	move	zero,zero
bfc0203c:	3c0806f5 	lui	t0,0x6f5
bfc02040:	350861f8 	ori	t0,t0,0x61f8
bfc02044:	3c09b7b9 	lui	t1,0xb7b9
bfc02048:	35291d7a 	ori	t1,t1,0x1d7a
bfc0204c:	1509ffe7 	bne	t0,t1,bfc01fec <main+0x1fec>
bfc02050:	00000000 	nop
bfc02054:	1000000b 	b	bfc02084 <main+0x2084>
bfc02058:	00000000 	nop
bfc0205c:	00000021 	move	zero,zero
bfc02060:	00000021 	move	zero,zero
bfc02064:	00000021 	move	zero,zero
bfc02068:	00000021 	move	zero,zero
bfc0206c:	00000021 	move	zero,zero
bfc02070:	00000021 	move	zero,zero
bfc02074:	00000021 	move	zero,zero
bfc02078:	00000021 	move	zero,zero
bfc0207c:	3c12dbaf 	lui	s2,0xdbaf
bfc02080:	3652a780 	ori	s2,s2,0xa780
bfc02084:	00000000 	nop
bfc02088:	3c14e76b 	lui	s4,0xe76b
bfc0208c:	36949dfe 	ori	s4,s4,0x9dfe
bfc02090:	16143755 	bne	s0,s4,bfc0fde8 <inst_error>
bfc02094:	00000000 	nop
bfc02098:	3c15dbaf 	lui	s5,0xdbaf
bfc0209c:	36b5a780 	ori	s5,s5,0xa780
bfc020a0:	16553751 	bne	s2,s5,bfc0fde8 <inst_error>
bfc020a4:	00000000 	nop
bfc020a8:	3c0c9d91 	lui	t4,0x9d91
bfc020ac:	358cd900 	ori	t4,t4,0xd900
bfc020b0:	3c0d6eb1 	lui	t5,0x6eb1
bfc020b4:	35ad4fc8 	ori	t5,t5,0x4fc8
bfc020b8:	24100000 	li	s0,0
bfc020bc:	24120000 	li	s2,0
bfc020c0:	10000015 	b	bfc02118 <main+0x2118>
bfc020c4:	00000000 	nop
bfc020c8:	3c109d91 	lui	s0,0x9d91
bfc020cc:	3610d900 	ori	s0,s0,0xd900
bfc020d0:	15280021 	bne	t1,t0,bfc02158 <main+0x2158>
bfc020d4:	00000000 	nop
bfc020d8:	10000021 	b	bfc02160 <main+0x2160>
bfc020dc:	00000000 	nop
bfc020e0:	00000021 	move	zero,zero
bfc020e4:	00000021 	move	zero,zero
bfc020e8:	00000021 	move	zero,zero
bfc020ec:	00000021 	move	zero,zero
bfc020f0:	00000021 	move	zero,zero
bfc020f4:	00000021 	move	zero,zero
bfc020f8:	00000021 	move	zero,zero
bfc020fc:	00000021 	move	zero,zero
bfc02100:	00000021 	move	zero,zero
bfc02104:	00000021 	move	zero,zero
bfc02108:	00000021 	move	zero,zero
bfc0210c:	00000021 	move	zero,zero
bfc02110:	00000021 	move	zero,zero
bfc02114:	00000021 	move	zero,zero
bfc02118:	3c086a4e 	lui	t0,0x6a4e
bfc0211c:	35083a0e 	ori	t0,t0,0x3a0e
bfc02120:	3c0937cf 	lui	t1,0x37cf
bfc02124:	352911c0 	ori	t1,t1,0x11c0
bfc02128:	1509ffe7 	bne	t0,t1,bfc020c8 <main+0x20c8>
bfc0212c:	00000000 	nop
bfc02130:	1000000b 	b	bfc02160 <main+0x2160>
bfc02134:	00000000 	nop
bfc02138:	00000021 	move	zero,zero
bfc0213c:	00000021 	move	zero,zero
bfc02140:	00000021 	move	zero,zero
bfc02144:	00000021 	move	zero,zero
bfc02148:	00000021 	move	zero,zero
bfc0214c:	00000021 	move	zero,zero
bfc02150:	00000021 	move	zero,zero
bfc02154:	00000021 	move	zero,zero
bfc02158:	3c126eb1 	lui	s2,0x6eb1
bfc0215c:	36524fc8 	ori	s2,s2,0x4fc8
bfc02160:	00000000 	nop
bfc02164:	3c149d91 	lui	s4,0x9d91
bfc02168:	3694d900 	ori	s4,s4,0xd900
bfc0216c:	1614371e 	bne	s0,s4,bfc0fde8 <inst_error>
bfc02170:	00000000 	nop
bfc02174:	3c156eb1 	lui	s5,0x6eb1
bfc02178:	36b54fc8 	ori	s5,s5,0x4fc8
bfc0217c:	1655371a 	bne	s2,s5,bfc0fde8 <inst_error>
bfc02180:	00000000 	nop
bfc02184:	3c0cf799 	lui	t4,0xf799
bfc02188:	358c5cb0 	ori	t4,t4,0x5cb0
bfc0218c:	3c0d96c1 	lui	t5,0x96c1
bfc02190:	35ad87b8 	ori	t5,t5,0x87b8
bfc02194:	24100000 	li	s0,0
bfc02198:	24120000 	li	s2,0
bfc0219c:	10000015 	b	bfc021f4 <main+0x21f4>
bfc021a0:	00000000 	nop
bfc021a4:	3c10f799 	lui	s0,0xf799
bfc021a8:	36105cb0 	ori	s0,s0,0x5cb0
bfc021ac:	15280021 	bne	t1,t0,bfc02234 <main+0x2234>
bfc021b0:	00000000 	nop
bfc021b4:	10000021 	b	bfc0223c <main+0x223c>
bfc021b8:	00000000 	nop
bfc021bc:	00000021 	move	zero,zero
bfc021c0:	00000021 	move	zero,zero
bfc021c4:	00000021 	move	zero,zero
bfc021c8:	00000021 	move	zero,zero
bfc021cc:	00000021 	move	zero,zero
bfc021d0:	00000021 	move	zero,zero
bfc021d4:	00000021 	move	zero,zero
bfc021d8:	00000021 	move	zero,zero
bfc021dc:	00000021 	move	zero,zero
bfc021e0:	00000021 	move	zero,zero
bfc021e4:	00000021 	move	zero,zero
bfc021e8:	00000021 	move	zero,zero
bfc021ec:	00000021 	move	zero,zero
bfc021f0:	00000021 	move	zero,zero
bfc021f4:	3c082e15 	lui	t0,0x2e15
bfc021f8:	35088d90 	ori	t0,t0,0x8d90
bfc021fc:	3c09bedb 	lui	t1,0xbedb
bfc02200:	3529266f 	ori	t1,t1,0x266f
bfc02204:	1509ffe7 	bne	t0,t1,bfc021a4 <main+0x21a4>
bfc02208:	00000000 	nop
bfc0220c:	1000000b 	b	bfc0223c <main+0x223c>
bfc02210:	00000000 	nop
bfc02214:	00000021 	move	zero,zero
bfc02218:	00000021 	move	zero,zero
bfc0221c:	00000021 	move	zero,zero
bfc02220:	00000021 	move	zero,zero
bfc02224:	00000021 	move	zero,zero
bfc02228:	00000021 	move	zero,zero
bfc0222c:	00000021 	move	zero,zero
bfc02230:	00000021 	move	zero,zero
bfc02234:	3c1296c1 	lui	s2,0x96c1
bfc02238:	365287b8 	ori	s2,s2,0x87b8
bfc0223c:	00000000 	nop
bfc02240:	3c14f799 	lui	s4,0xf799
bfc02244:	36945cb0 	ori	s4,s4,0x5cb0
bfc02248:	161436e7 	bne	s0,s4,bfc0fde8 <inst_error>
bfc0224c:	00000000 	nop
bfc02250:	3c1596c1 	lui	s5,0x96c1
bfc02254:	36b587b8 	ori	s5,s5,0x87b8
bfc02258:	165536e3 	bne	s2,s5,bfc0fde8 <inst_error>
bfc0225c:	00000000 	nop
bfc02260:	3c0c9cd6 	lui	t4,0x9cd6
bfc02264:	358c6080 	ori	t4,t4,0x6080
bfc02268:	3c0de283 	lui	t5,0xe283
bfc0226c:	35ad1414 	ori	t5,t5,0x1414
bfc02270:	24100000 	li	s0,0
bfc02274:	24120000 	li	s2,0
bfc02278:	10000015 	b	bfc022d0 <main+0x22d0>
bfc0227c:	00000000 	nop
bfc02280:	3c109cd6 	lui	s0,0x9cd6
bfc02284:	36106080 	ori	s0,s0,0x6080
bfc02288:	15280021 	bne	t1,t0,bfc02310 <main+0x2310>
bfc0228c:	00000000 	nop
bfc02290:	10000021 	b	bfc02318 <main+0x2318>
bfc02294:	00000000 	nop
bfc02298:	00000021 	move	zero,zero
bfc0229c:	00000021 	move	zero,zero
bfc022a0:	00000021 	move	zero,zero
bfc022a4:	00000021 	move	zero,zero
bfc022a8:	00000021 	move	zero,zero
bfc022ac:	00000021 	move	zero,zero
bfc022b0:	00000021 	move	zero,zero
bfc022b4:	00000021 	move	zero,zero
bfc022b8:	00000021 	move	zero,zero
bfc022bc:	00000021 	move	zero,zero
bfc022c0:	00000021 	move	zero,zero
bfc022c4:	00000021 	move	zero,zero
bfc022c8:	00000021 	move	zero,zero
bfc022cc:	00000021 	move	zero,zero
bfc022d0:	3c08eda0 	lui	t0,0xeda0
bfc022d4:	35083d68 	ori	t0,t0,0x3d68
bfc022d8:	3c098b59 	lui	t1,0x8b59
bfc022dc:	352913ac 	ori	t1,t1,0x13ac
bfc022e0:	1509ffe7 	bne	t0,t1,bfc02280 <main+0x2280>
bfc022e4:	00000000 	nop
bfc022e8:	1000000b 	b	bfc02318 <main+0x2318>
bfc022ec:	00000000 	nop
bfc022f0:	00000021 	move	zero,zero
bfc022f4:	00000021 	move	zero,zero
bfc022f8:	00000021 	move	zero,zero
bfc022fc:	00000021 	move	zero,zero
bfc02300:	00000021 	move	zero,zero
bfc02304:	00000021 	move	zero,zero
bfc02308:	00000021 	move	zero,zero
bfc0230c:	00000021 	move	zero,zero
bfc02310:	3c12e283 	lui	s2,0xe283
bfc02314:	36521414 	ori	s2,s2,0x1414
bfc02318:	00000000 	nop
bfc0231c:	3c149cd6 	lui	s4,0x9cd6
bfc02320:	36946080 	ori	s4,s4,0x6080
bfc02324:	161436b0 	bne	s0,s4,bfc0fde8 <inst_error>
bfc02328:	00000000 	nop
bfc0232c:	3c15e283 	lui	s5,0xe283
bfc02330:	36b51414 	ori	s5,s5,0x1414
bfc02334:	165536ac 	bne	s2,s5,bfc0fde8 <inst_error>
bfc02338:	00000000 	nop
bfc0233c:	3c0c6b03 	lui	t4,0x6b03
bfc02340:	358cdffe 	ori	t4,t4,0xdffe
bfc02344:	3c0dd22b 	lui	t5,0xd22b
bfc02348:	35ad8118 	ori	t5,t5,0x8118
bfc0234c:	24100000 	li	s0,0
bfc02350:	24120000 	li	s2,0
bfc02354:	10000015 	b	bfc023ac <main+0x23ac>
bfc02358:	00000000 	nop
bfc0235c:	3c106b03 	lui	s0,0x6b03
bfc02360:	3610dffe 	ori	s0,s0,0xdffe
bfc02364:	15280021 	bne	t1,t0,bfc023ec <main+0x23ec>
bfc02368:	00000000 	nop
bfc0236c:	10000021 	b	bfc023f4 <main+0x23f4>
bfc02370:	00000000 	nop
bfc02374:	00000021 	move	zero,zero
bfc02378:	00000021 	move	zero,zero
bfc0237c:	00000021 	move	zero,zero
bfc02380:	00000021 	move	zero,zero
bfc02384:	00000021 	move	zero,zero
bfc02388:	00000021 	move	zero,zero
bfc0238c:	00000021 	move	zero,zero
bfc02390:	00000021 	move	zero,zero
bfc02394:	00000021 	move	zero,zero
bfc02398:	00000021 	move	zero,zero
bfc0239c:	00000021 	move	zero,zero
bfc023a0:	00000021 	move	zero,zero
bfc023a4:	00000021 	move	zero,zero
bfc023a8:	00000021 	move	zero,zero
bfc023ac:	3c085c94 	lui	t0,0x5c94
bfc023b0:	350895a4 	ori	t0,t0,0x95a4
bfc023b4:	3c098b3d 	lui	t1,0x8b3d
bfc023b8:	3529cd68 	ori	t1,t1,0xcd68
bfc023bc:	1509ffe7 	bne	t0,t1,bfc0235c <main+0x235c>
bfc023c0:	00000000 	nop
bfc023c4:	1000000b 	b	bfc023f4 <main+0x23f4>
bfc023c8:	00000000 	nop
bfc023cc:	00000021 	move	zero,zero
bfc023d0:	00000021 	move	zero,zero
bfc023d4:	00000021 	move	zero,zero
bfc023d8:	00000021 	move	zero,zero
bfc023dc:	00000021 	move	zero,zero
bfc023e0:	00000021 	move	zero,zero
bfc023e4:	00000021 	move	zero,zero
bfc023e8:	00000021 	move	zero,zero
bfc023ec:	3c12d22b 	lui	s2,0xd22b
bfc023f0:	36528118 	ori	s2,s2,0x8118
bfc023f4:	00000000 	nop
bfc023f8:	3c146b03 	lui	s4,0x6b03
bfc023fc:	3694dffe 	ori	s4,s4,0xdffe
bfc02400:	16143679 	bne	s0,s4,bfc0fde8 <inst_error>
bfc02404:	00000000 	nop
bfc02408:	3c15d22b 	lui	s5,0xd22b
bfc0240c:	36b58118 	ori	s5,s5,0x8118
bfc02410:	16553675 	bne	s2,s5,bfc0fde8 <inst_error>
bfc02414:	00000000 	nop
bfc02418:	3c0cb95f 	lui	t4,0xb95f
bfc0241c:	358c9100 	ori	t4,t4,0x9100
bfc02420:	3c0d6522 	lui	t5,0x6522
bfc02424:	35ad86ba 	ori	t5,t5,0x86ba
bfc02428:	24100000 	li	s0,0
bfc0242c:	24120000 	li	s2,0
bfc02430:	10000015 	b	bfc02488 <main+0x2488>
bfc02434:	00000000 	nop
bfc02438:	3c10b95f 	lui	s0,0xb95f
bfc0243c:	36109100 	ori	s0,s0,0x9100
bfc02440:	15280021 	bne	t1,t0,bfc024c8 <main+0x24c8>
bfc02444:	00000000 	nop
bfc02448:	10000021 	b	bfc024d0 <main+0x24d0>
bfc0244c:	00000000 	nop
bfc02450:	00000021 	move	zero,zero
bfc02454:	00000021 	move	zero,zero
bfc02458:	00000021 	move	zero,zero
bfc0245c:	00000021 	move	zero,zero
bfc02460:	00000021 	move	zero,zero
bfc02464:	00000021 	move	zero,zero
bfc02468:	00000021 	move	zero,zero
bfc0246c:	00000021 	move	zero,zero
bfc02470:	00000021 	move	zero,zero
bfc02474:	00000021 	move	zero,zero
bfc02478:	00000021 	move	zero,zero
bfc0247c:	00000021 	move	zero,zero
bfc02480:	00000021 	move	zero,zero
bfc02484:	00000021 	move	zero,zero
bfc02488:	3c08ba0e 	lui	t0,0xba0e
bfc0248c:	3508a6fe 	ori	t0,t0,0xa6fe
bfc02490:	3c09861b 	lui	t1,0x861b
bfc02494:	352965a8 	ori	t1,t1,0x65a8
bfc02498:	1509ffe7 	bne	t0,t1,bfc02438 <main+0x2438>
bfc0249c:	00000000 	nop
bfc024a0:	1000000b 	b	bfc024d0 <main+0x24d0>
bfc024a4:	00000000 	nop
bfc024a8:	00000021 	move	zero,zero
bfc024ac:	00000021 	move	zero,zero
bfc024b0:	00000021 	move	zero,zero
bfc024b4:	00000021 	move	zero,zero
bfc024b8:	00000021 	move	zero,zero
bfc024bc:	00000021 	move	zero,zero
bfc024c0:	00000021 	move	zero,zero
bfc024c4:	00000021 	move	zero,zero
bfc024c8:	3c126522 	lui	s2,0x6522
bfc024cc:	365286ba 	ori	s2,s2,0x86ba
bfc024d0:	00000000 	nop
bfc024d4:	3c14b95f 	lui	s4,0xb95f
bfc024d8:	36949100 	ori	s4,s4,0x9100
bfc024dc:	16143642 	bne	s0,s4,bfc0fde8 <inst_error>
bfc024e0:	00000000 	nop
bfc024e4:	3c156522 	lui	s5,0x6522
bfc024e8:	36b586ba 	ori	s5,s5,0x86ba
bfc024ec:	1655363e 	bne	s2,s5,bfc0fde8 <inst_error>
bfc024f0:	00000000 	nop
bfc024f4:	3c0c3437 	lui	t4,0x3437
bfc024f8:	358c3160 	ori	t4,t4,0x3160
bfc024fc:	3c0d37d5 	lui	t5,0x37d5
bfc02500:	35ad6f90 	ori	t5,t5,0x6f90
bfc02504:	24100000 	li	s0,0
bfc02508:	24120000 	li	s2,0
bfc0250c:	10000015 	b	bfc02564 <main+0x2564>
bfc02510:	00000000 	nop
bfc02514:	3c103437 	lui	s0,0x3437
bfc02518:	36103160 	ori	s0,s0,0x3160
bfc0251c:	15280021 	bne	t1,t0,bfc025a4 <main+0x25a4>
bfc02520:	00000000 	nop
bfc02524:	10000021 	b	bfc025ac <main+0x25ac>
bfc02528:	00000000 	nop
bfc0252c:	00000021 	move	zero,zero
bfc02530:	00000021 	move	zero,zero
bfc02534:	00000021 	move	zero,zero
bfc02538:	00000021 	move	zero,zero
bfc0253c:	00000021 	move	zero,zero
bfc02540:	00000021 	move	zero,zero
bfc02544:	00000021 	move	zero,zero
bfc02548:	00000021 	move	zero,zero
bfc0254c:	00000021 	move	zero,zero
bfc02550:	00000021 	move	zero,zero
bfc02554:	00000021 	move	zero,zero
bfc02558:	00000021 	move	zero,zero
bfc0255c:	00000021 	move	zero,zero
bfc02560:	00000021 	move	zero,zero
bfc02564:	3c08cd8e 	lui	t0,0xcd8e
bfc02568:	3508e226 	ori	t0,t0,0xe226
bfc0256c:	3c096e69 	lui	t1,0x6e69
bfc02570:	35292b22 	ori	t1,t1,0x2b22
bfc02574:	1509ffe7 	bne	t0,t1,bfc02514 <main+0x2514>
bfc02578:	00000000 	nop
bfc0257c:	1000000b 	b	bfc025ac <main+0x25ac>
bfc02580:	00000000 	nop
bfc02584:	00000021 	move	zero,zero
bfc02588:	00000021 	move	zero,zero
bfc0258c:	00000021 	move	zero,zero
bfc02590:	00000021 	move	zero,zero
bfc02594:	00000021 	move	zero,zero
bfc02598:	00000021 	move	zero,zero
bfc0259c:	00000021 	move	zero,zero
bfc025a0:	00000021 	move	zero,zero
bfc025a4:	3c1237d5 	lui	s2,0x37d5
bfc025a8:	36526f90 	ori	s2,s2,0x6f90
bfc025ac:	00000000 	nop
bfc025b0:	3c143437 	lui	s4,0x3437
bfc025b4:	36943160 	ori	s4,s4,0x3160
bfc025b8:	1614360b 	bne	s0,s4,bfc0fde8 <inst_error>
bfc025bc:	00000000 	nop
bfc025c0:	3c1537d5 	lui	s5,0x37d5
bfc025c4:	36b56f90 	ori	s5,s5,0x6f90
bfc025c8:	16553607 	bne	s2,s5,bfc0fde8 <inst_error>
bfc025cc:	00000000 	nop
bfc025d0:	3c0c8266 	lui	t4,0x8266
bfc025d4:	358cf858 	ori	t4,t4,0xf858
bfc025d8:	3c0d117a 	lui	t5,0x117a
bfc025dc:	35ad2724 	ori	t5,t5,0x2724
bfc025e0:	24100000 	li	s0,0
bfc025e4:	24120000 	li	s2,0
bfc025e8:	10000015 	b	bfc02640 <main+0x2640>
bfc025ec:	00000000 	nop
bfc025f0:	3c108266 	lui	s0,0x8266
bfc025f4:	3610f858 	ori	s0,s0,0xf858
bfc025f8:	15280021 	bne	t1,t0,bfc02680 <main+0x2680>
bfc025fc:	00000000 	nop
bfc02600:	10000021 	b	bfc02688 <main+0x2688>
bfc02604:	00000000 	nop
bfc02608:	00000021 	move	zero,zero
bfc0260c:	00000021 	move	zero,zero
bfc02610:	00000021 	move	zero,zero
bfc02614:	00000021 	move	zero,zero
bfc02618:	00000021 	move	zero,zero
bfc0261c:	00000021 	move	zero,zero
bfc02620:	00000021 	move	zero,zero
bfc02624:	00000021 	move	zero,zero
bfc02628:	00000021 	move	zero,zero
bfc0262c:	00000021 	move	zero,zero
bfc02630:	00000021 	move	zero,zero
bfc02634:	00000021 	move	zero,zero
bfc02638:	00000021 	move	zero,zero
bfc0263c:	00000021 	move	zero,zero
bfc02640:	3c083b52 	lui	t0,0x3b52
bfc02644:	350821a0 	ori	t0,t0,0x21a0
bfc02648:	3c09eced 	lui	t1,0xeced
bfc0264c:	3529d8e8 	ori	t1,t1,0xd8e8
bfc02650:	1509ffe7 	bne	t0,t1,bfc025f0 <main+0x25f0>
bfc02654:	00000000 	nop
bfc02658:	1000000b 	b	bfc02688 <main+0x2688>
bfc0265c:	00000000 	nop
bfc02660:	00000021 	move	zero,zero
bfc02664:	00000021 	move	zero,zero
bfc02668:	00000021 	move	zero,zero
bfc0266c:	00000021 	move	zero,zero
bfc02670:	00000021 	move	zero,zero
bfc02674:	00000021 	move	zero,zero
bfc02678:	00000021 	move	zero,zero
bfc0267c:	00000021 	move	zero,zero
bfc02680:	3c12117a 	lui	s2,0x117a
bfc02684:	36522724 	ori	s2,s2,0x2724
bfc02688:	00000000 	nop
bfc0268c:	3c148266 	lui	s4,0x8266
bfc02690:	3694f858 	ori	s4,s4,0xf858
bfc02694:	161435d4 	bne	s0,s4,bfc0fde8 <inst_error>
bfc02698:	00000000 	nop
bfc0269c:	3c15117a 	lui	s5,0x117a
bfc026a0:	36b52724 	ori	s5,s5,0x2724
bfc026a4:	165535d0 	bne	s2,s5,bfc0fde8 <inst_error>
bfc026a8:	00000000 	nop
bfc026ac:	3c0cbbc6 	lui	t4,0xbbc6
bfc026b0:	358cc61c 	ori	t4,t4,0xc61c
bfc026b4:	3c0d5916 	lui	t5,0x5916
bfc026b8:	35ad4300 	ori	t5,t5,0x4300
bfc026bc:	24100000 	li	s0,0
bfc026c0:	24120000 	li	s2,0
bfc026c4:	10000015 	b	bfc0271c <main+0x271c>
bfc026c8:	00000000 	nop
bfc026cc:	3c10bbc6 	lui	s0,0xbbc6
bfc026d0:	3610c61c 	ori	s0,s0,0xc61c
bfc026d4:	15280021 	bne	t1,t0,bfc0275c <main+0x275c>
bfc026d8:	00000000 	nop
bfc026dc:	10000021 	b	bfc02764 <main+0x2764>
bfc026e0:	00000000 	nop
bfc026e4:	00000021 	move	zero,zero
bfc026e8:	00000021 	move	zero,zero
bfc026ec:	00000021 	move	zero,zero
bfc026f0:	00000021 	move	zero,zero
bfc026f4:	00000021 	move	zero,zero
bfc026f8:	00000021 	move	zero,zero
bfc026fc:	00000021 	move	zero,zero
bfc02700:	00000021 	move	zero,zero
bfc02704:	00000021 	move	zero,zero
bfc02708:	00000021 	move	zero,zero
bfc0270c:	00000021 	move	zero,zero
bfc02710:	00000021 	move	zero,zero
bfc02714:	00000021 	move	zero,zero
bfc02718:	00000021 	move	zero,zero
bfc0271c:	3c080d47 	lui	t0,0xd47
bfc02720:	35089ce0 	ori	t0,t0,0x9ce0
bfc02724:	3c092a73 	lui	t1,0x2a73
bfc02728:	35292152 	ori	t1,t1,0x2152
bfc0272c:	1509ffe7 	bne	t0,t1,bfc026cc <main+0x26cc>
bfc02730:	00000000 	nop
bfc02734:	1000000b 	b	bfc02764 <main+0x2764>
bfc02738:	00000000 	nop
bfc0273c:	00000021 	move	zero,zero
bfc02740:	00000021 	move	zero,zero
bfc02744:	00000021 	move	zero,zero
bfc02748:	00000021 	move	zero,zero
bfc0274c:	00000021 	move	zero,zero
bfc02750:	00000021 	move	zero,zero
bfc02754:	00000021 	move	zero,zero
bfc02758:	00000021 	move	zero,zero
bfc0275c:	3c125916 	lui	s2,0x5916
bfc02760:	36524300 	ori	s2,s2,0x4300
bfc02764:	00000000 	nop
bfc02768:	3c14bbc6 	lui	s4,0xbbc6
bfc0276c:	3694c61c 	ori	s4,s4,0xc61c
bfc02770:	1614359d 	bne	s0,s4,bfc0fde8 <inst_error>
bfc02774:	00000000 	nop
bfc02778:	3c155916 	lui	s5,0x5916
bfc0277c:	36b54300 	ori	s5,s5,0x4300
bfc02780:	16553599 	bne	s2,s5,bfc0fde8 <inst_error>
bfc02784:	00000000 	nop
bfc02788:	3c0c8048 	lui	t4,0x8048
bfc0278c:	358c2a04 	ori	t4,t4,0x2a04
bfc02790:	3c0d2af1 	lui	t5,0x2af1
bfc02794:	35adaba0 	ori	t5,t5,0xaba0
bfc02798:	24100000 	li	s0,0
bfc0279c:	24120000 	li	s2,0
bfc027a0:	10000015 	b	bfc027f8 <main+0x27f8>
bfc027a4:	00000000 	nop
bfc027a8:	3c108048 	lui	s0,0x8048
bfc027ac:	36102a04 	ori	s0,s0,0x2a04
bfc027b0:	15280021 	bne	t1,t0,bfc02838 <main+0x2838>
bfc027b4:	00000000 	nop
bfc027b8:	10000021 	b	bfc02840 <main+0x2840>
bfc027bc:	00000000 	nop
bfc027c0:	00000021 	move	zero,zero
bfc027c4:	00000021 	move	zero,zero
bfc027c8:	00000021 	move	zero,zero
bfc027cc:	00000021 	move	zero,zero
bfc027d0:	00000021 	move	zero,zero
bfc027d4:	00000021 	move	zero,zero
bfc027d8:	00000021 	move	zero,zero
bfc027dc:	00000021 	move	zero,zero
bfc027e0:	00000021 	move	zero,zero
bfc027e4:	00000021 	move	zero,zero
bfc027e8:	00000021 	move	zero,zero
bfc027ec:	00000021 	move	zero,zero
bfc027f0:	00000021 	move	zero,zero
bfc027f4:	00000021 	move	zero,zero
bfc027f8:	3c083e36 	lui	t0,0x3e36
bfc027fc:	3508c5d0 	ori	t0,t0,0xc5d0
bfc02800:	3c092885 	lui	t1,0x2885
bfc02804:	3529b024 	ori	t1,t1,0xb024
bfc02808:	1509ffe7 	bne	t0,t1,bfc027a8 <main+0x27a8>
bfc0280c:	00000000 	nop
bfc02810:	1000000b 	b	bfc02840 <main+0x2840>
bfc02814:	00000000 	nop
bfc02818:	00000021 	move	zero,zero
bfc0281c:	00000021 	move	zero,zero
bfc02820:	00000021 	move	zero,zero
bfc02824:	00000021 	move	zero,zero
bfc02828:	00000021 	move	zero,zero
bfc0282c:	00000021 	move	zero,zero
bfc02830:	00000021 	move	zero,zero
bfc02834:	00000021 	move	zero,zero
bfc02838:	3c122af1 	lui	s2,0x2af1
bfc0283c:	3652aba0 	ori	s2,s2,0xaba0
bfc02840:	00000000 	nop
bfc02844:	3c148048 	lui	s4,0x8048
bfc02848:	36942a04 	ori	s4,s4,0x2a04
bfc0284c:	16143566 	bne	s0,s4,bfc0fde8 <inst_error>
bfc02850:	00000000 	nop
bfc02854:	3c152af1 	lui	s5,0x2af1
bfc02858:	36b5aba0 	ori	s5,s5,0xaba0
bfc0285c:	16553562 	bne	s2,s5,bfc0fde8 <inst_error>
bfc02860:	00000000 	nop
bfc02864:	3c0cc559 	lui	t4,0xc559
bfc02868:	358cf440 	ori	t4,t4,0xf440
bfc0286c:	3c0d473a 	lui	t5,0x473a
bfc02870:	35ade964 	ori	t5,t5,0xe964
bfc02874:	24100000 	li	s0,0
bfc02878:	24120000 	li	s2,0
bfc0287c:	10000015 	b	bfc028d4 <main+0x28d4>
bfc02880:	00000000 	nop
bfc02884:	3c10c559 	lui	s0,0xc559
bfc02888:	3610f440 	ori	s0,s0,0xf440
bfc0288c:	15280021 	bne	t1,t0,bfc02914 <main+0x2914>
bfc02890:	00000000 	nop
bfc02894:	10000021 	b	bfc0291c <main+0x291c>
bfc02898:	00000000 	nop
bfc0289c:	00000021 	move	zero,zero
bfc028a0:	00000021 	move	zero,zero
bfc028a4:	00000021 	move	zero,zero
bfc028a8:	00000021 	move	zero,zero
bfc028ac:	00000021 	move	zero,zero
bfc028b0:	00000021 	move	zero,zero
bfc028b4:	00000021 	move	zero,zero
bfc028b8:	00000021 	move	zero,zero
bfc028bc:	00000021 	move	zero,zero
bfc028c0:	00000021 	move	zero,zero
bfc028c4:	00000021 	move	zero,zero
bfc028c8:	00000021 	move	zero,zero
bfc028cc:	00000021 	move	zero,zero
bfc028d0:	00000021 	move	zero,zero
bfc028d4:	3c08fadc 	lui	t0,0xfadc
bfc028d8:	35081000 	ori	t0,t0,0x1000
bfc028dc:	3c09b582 	lui	t1,0xb582
bfc028e0:	35290d38 	ori	t1,t1,0xd38
bfc028e4:	1509ffe7 	bne	t0,t1,bfc02884 <main+0x2884>
bfc028e8:	00000000 	nop
bfc028ec:	1000000b 	b	bfc0291c <main+0x291c>
bfc028f0:	00000000 	nop
bfc028f4:	00000021 	move	zero,zero
bfc028f8:	00000021 	move	zero,zero
bfc028fc:	00000021 	move	zero,zero
bfc02900:	00000021 	move	zero,zero
bfc02904:	00000021 	move	zero,zero
bfc02908:	00000021 	move	zero,zero
bfc0290c:	00000021 	move	zero,zero
bfc02910:	00000021 	move	zero,zero
bfc02914:	3c12473a 	lui	s2,0x473a
bfc02918:	3652e964 	ori	s2,s2,0xe964
bfc0291c:	00000000 	nop
bfc02920:	3c14c559 	lui	s4,0xc559
bfc02924:	3694f440 	ori	s4,s4,0xf440
bfc02928:	1614352f 	bne	s0,s4,bfc0fde8 <inst_error>
bfc0292c:	00000000 	nop
bfc02930:	3c15473a 	lui	s5,0x473a
bfc02934:	36b5e964 	ori	s5,s5,0xe964
bfc02938:	1655352b 	bne	s2,s5,bfc0fde8 <inst_error>
bfc0293c:	00000000 	nop
bfc02940:	3c0ca852 	lui	t4,0xa852
bfc02944:	358c715d 	ori	t4,t4,0x715d
bfc02948:	3c0dfb48 	lui	t5,0xfb48
bfc0294c:	35ad4c16 	ori	t5,t5,0x4c16
bfc02950:	24100000 	li	s0,0
bfc02954:	24120000 	li	s2,0
bfc02958:	10000015 	b	bfc029b0 <main+0x29b0>
bfc0295c:	00000000 	nop
bfc02960:	3c10a852 	lui	s0,0xa852
bfc02964:	3610715d 	ori	s0,s0,0x715d
bfc02968:	15280021 	bne	t1,t0,bfc029f0 <main+0x29f0>
bfc0296c:	00000000 	nop
bfc02970:	10000021 	b	bfc029f8 <main+0x29f8>
bfc02974:	00000000 	nop
bfc02978:	00000021 	move	zero,zero
bfc0297c:	00000021 	move	zero,zero
bfc02980:	00000021 	move	zero,zero
bfc02984:	00000021 	move	zero,zero
bfc02988:	00000021 	move	zero,zero
bfc0298c:	00000021 	move	zero,zero
bfc02990:	00000021 	move	zero,zero
bfc02994:	00000021 	move	zero,zero
bfc02998:	00000021 	move	zero,zero
bfc0299c:	00000021 	move	zero,zero
bfc029a0:	00000021 	move	zero,zero
bfc029a4:	00000021 	move	zero,zero
bfc029a8:	00000021 	move	zero,zero
bfc029ac:	00000021 	move	zero,zero
bfc029b0:	3c08ca71 	lui	t0,0xca71
bfc029b4:	350898ec 	ori	t0,t0,0x98ec
bfc029b8:	3c0972d8 	lui	t1,0x72d8
bfc029bc:	352990f4 	ori	t1,t1,0x90f4
bfc029c0:	1509ffe7 	bne	t0,t1,bfc02960 <main+0x2960>
bfc029c4:	00000000 	nop
bfc029c8:	1000000b 	b	bfc029f8 <main+0x29f8>
bfc029cc:	00000000 	nop
bfc029d0:	00000021 	move	zero,zero
bfc029d4:	00000021 	move	zero,zero
bfc029d8:	00000021 	move	zero,zero
bfc029dc:	00000021 	move	zero,zero
bfc029e0:	00000021 	move	zero,zero
bfc029e4:	00000021 	move	zero,zero
bfc029e8:	00000021 	move	zero,zero
bfc029ec:	00000021 	move	zero,zero
bfc029f0:	3c12fb48 	lui	s2,0xfb48
bfc029f4:	36524c16 	ori	s2,s2,0x4c16
bfc029f8:	00000000 	nop
bfc029fc:	3c14a852 	lui	s4,0xa852
bfc02a00:	3694715d 	ori	s4,s4,0x715d
bfc02a04:	161434f8 	bne	s0,s4,bfc0fde8 <inst_error>
bfc02a08:	00000000 	nop
bfc02a0c:	3c15fb48 	lui	s5,0xfb48
bfc02a10:	36b54c16 	ori	s5,s5,0x4c16
bfc02a14:	165534f4 	bne	s2,s5,bfc0fde8 <inst_error>
bfc02a18:	00000000 	nop
bfc02a1c:	3c0c2367 	lui	t4,0x2367
bfc02a20:	358c7418 	ori	t4,t4,0x7418
bfc02a24:	3c0d14a4 	lui	t5,0x14a4
bfc02a28:	35ad1e50 	ori	t5,t5,0x1e50
bfc02a2c:	24100000 	li	s0,0
bfc02a30:	24120000 	li	s2,0
bfc02a34:	10000015 	b	bfc02a8c <main+0x2a8c>
bfc02a38:	00000000 	nop
bfc02a3c:	3c102367 	lui	s0,0x2367
bfc02a40:	36107418 	ori	s0,s0,0x7418
bfc02a44:	15280021 	bne	t1,t0,bfc02acc <main+0x2acc>
bfc02a48:	00000000 	nop
bfc02a4c:	10000021 	b	bfc02ad4 <main+0x2ad4>
bfc02a50:	00000000 	nop
bfc02a54:	00000021 	move	zero,zero
bfc02a58:	00000021 	move	zero,zero
bfc02a5c:	00000021 	move	zero,zero
bfc02a60:	00000021 	move	zero,zero
bfc02a64:	00000021 	move	zero,zero
bfc02a68:	00000021 	move	zero,zero
bfc02a6c:	00000021 	move	zero,zero
bfc02a70:	00000021 	move	zero,zero
bfc02a74:	00000021 	move	zero,zero
bfc02a78:	00000021 	move	zero,zero
bfc02a7c:	00000021 	move	zero,zero
bfc02a80:	00000021 	move	zero,zero
bfc02a84:	00000021 	move	zero,zero
bfc02a88:	00000021 	move	zero,zero
bfc02a8c:	3c084a1a 	lui	t0,0x4a1a
bfc02a90:	35082d02 	ori	t0,t0,0x2d02
bfc02a94:	3c09bfc9 	lui	t1,0xbfc9
bfc02a98:	352959c2 	ori	t1,t1,0x59c2
bfc02a9c:	1509ffe7 	bne	t0,t1,bfc02a3c <main+0x2a3c>
bfc02aa0:	00000000 	nop
bfc02aa4:	1000000b 	b	bfc02ad4 <main+0x2ad4>
bfc02aa8:	00000000 	nop
bfc02aac:	00000021 	move	zero,zero
bfc02ab0:	00000021 	move	zero,zero
bfc02ab4:	00000021 	move	zero,zero
bfc02ab8:	00000021 	move	zero,zero
bfc02abc:	00000021 	move	zero,zero
bfc02ac0:	00000021 	move	zero,zero
bfc02ac4:	00000021 	move	zero,zero
bfc02ac8:	00000021 	move	zero,zero
bfc02acc:	3c1214a4 	lui	s2,0x14a4
bfc02ad0:	36521e50 	ori	s2,s2,0x1e50
bfc02ad4:	00000000 	nop
bfc02ad8:	3c142367 	lui	s4,0x2367
bfc02adc:	36947418 	ori	s4,s4,0x7418
bfc02ae0:	161434c1 	bne	s0,s4,bfc0fde8 <inst_error>
bfc02ae4:	00000000 	nop
bfc02ae8:	3c1514a4 	lui	s5,0x14a4
bfc02aec:	36b51e50 	ori	s5,s5,0x1e50
bfc02af0:	165534bd 	bne	s2,s5,bfc0fde8 <inst_error>
bfc02af4:	00000000 	nop
bfc02af8:	3c0c8e9b 	lui	t4,0x8e9b
bfc02afc:	358ca77c 	ori	t4,t4,0xa77c
bfc02b00:	3c0dfb95 	lui	t5,0xfb95
bfc02b04:	35ad02d0 	ori	t5,t5,0x2d0
bfc02b08:	24100000 	li	s0,0
bfc02b0c:	24120000 	li	s2,0
bfc02b10:	10000015 	b	bfc02b68 <main+0x2b68>
bfc02b14:	00000000 	nop
bfc02b18:	3c108e9b 	lui	s0,0x8e9b
bfc02b1c:	3610a77c 	ori	s0,s0,0xa77c
bfc02b20:	15280021 	bne	t1,t0,bfc02ba8 <main+0x2ba8>
bfc02b24:	00000000 	nop
bfc02b28:	10000021 	b	bfc02bb0 <main+0x2bb0>
bfc02b2c:	00000000 	nop
bfc02b30:	00000021 	move	zero,zero
bfc02b34:	00000021 	move	zero,zero
bfc02b38:	00000021 	move	zero,zero
bfc02b3c:	00000021 	move	zero,zero
bfc02b40:	00000021 	move	zero,zero
bfc02b44:	00000021 	move	zero,zero
bfc02b48:	00000021 	move	zero,zero
bfc02b4c:	00000021 	move	zero,zero
bfc02b50:	00000021 	move	zero,zero
bfc02b54:	00000021 	move	zero,zero
bfc02b58:	00000021 	move	zero,zero
bfc02b5c:	00000021 	move	zero,zero
bfc02b60:	00000021 	move	zero,zero
bfc02b64:	00000021 	move	zero,zero
bfc02b68:	3c0844c7 	lui	t0,0x44c7
bfc02b6c:	3508ec00 	ori	t0,t0,0xec00
bfc02b70:	3c0981ed 	lui	t1,0x81ed
bfc02b74:	3529ef8c 	ori	t1,t1,0xef8c
bfc02b78:	1509ffe7 	bne	t0,t1,bfc02b18 <main+0x2b18>
bfc02b7c:	00000000 	nop
bfc02b80:	1000000b 	b	bfc02bb0 <main+0x2bb0>
bfc02b84:	00000000 	nop
bfc02b88:	00000021 	move	zero,zero
bfc02b8c:	00000021 	move	zero,zero
bfc02b90:	00000021 	move	zero,zero
bfc02b94:	00000021 	move	zero,zero
bfc02b98:	00000021 	move	zero,zero
bfc02b9c:	00000021 	move	zero,zero
bfc02ba0:	00000021 	move	zero,zero
bfc02ba4:	00000021 	move	zero,zero
bfc02ba8:	3c12fb95 	lui	s2,0xfb95
bfc02bac:	365202d0 	ori	s2,s2,0x2d0
bfc02bb0:	00000000 	nop
bfc02bb4:	3c148e9b 	lui	s4,0x8e9b
bfc02bb8:	3694a77c 	ori	s4,s4,0xa77c
bfc02bbc:	1614348a 	bne	s0,s4,bfc0fde8 <inst_error>
bfc02bc0:	00000000 	nop
bfc02bc4:	3c15fb95 	lui	s5,0xfb95
bfc02bc8:	36b502d0 	ori	s5,s5,0x2d0
bfc02bcc:	16553486 	bne	s2,s5,bfc0fde8 <inst_error>
bfc02bd0:	00000000 	nop
bfc02bd4:	3c0c97e3 	lui	t4,0x97e3
bfc02bd8:	358c6390 	ori	t4,t4,0x6390
bfc02bdc:	3c0d5ea5 	lui	t5,0x5ea5
bfc02be0:	35ad57fc 	ori	t5,t5,0x57fc
bfc02be4:	24100000 	li	s0,0
bfc02be8:	24120000 	li	s2,0
bfc02bec:	10000015 	b	bfc02c44 <main+0x2c44>
bfc02bf0:	00000000 	nop
bfc02bf4:	3c1097e3 	lui	s0,0x97e3
bfc02bf8:	36106390 	ori	s0,s0,0x6390
bfc02bfc:	15280021 	bne	t1,t0,bfc02c84 <main+0x2c84>
bfc02c00:	00000000 	nop
bfc02c04:	10000021 	b	bfc02c8c <main+0x2c8c>
bfc02c08:	00000000 	nop
bfc02c0c:	00000021 	move	zero,zero
bfc02c10:	00000021 	move	zero,zero
bfc02c14:	00000021 	move	zero,zero
bfc02c18:	00000021 	move	zero,zero
bfc02c1c:	00000021 	move	zero,zero
bfc02c20:	00000021 	move	zero,zero
bfc02c24:	00000021 	move	zero,zero
bfc02c28:	00000021 	move	zero,zero
bfc02c2c:	00000021 	move	zero,zero
bfc02c30:	00000021 	move	zero,zero
bfc02c34:	00000021 	move	zero,zero
bfc02c38:	00000021 	move	zero,zero
bfc02c3c:	00000021 	move	zero,zero
bfc02c40:	00000021 	move	zero,zero
bfc02c44:	3c0896cf 	lui	t0,0x96cf
bfc02c48:	35080050 	ori	t0,t0,0x50
bfc02c4c:	3c0948a2 	lui	t1,0x48a2
bfc02c50:	35296648 	ori	t1,t1,0x6648
bfc02c54:	1509ffe7 	bne	t0,t1,bfc02bf4 <main+0x2bf4>
bfc02c58:	00000000 	nop
bfc02c5c:	1000000b 	b	bfc02c8c <main+0x2c8c>
bfc02c60:	00000000 	nop
bfc02c64:	00000021 	move	zero,zero
bfc02c68:	00000021 	move	zero,zero
bfc02c6c:	00000021 	move	zero,zero
bfc02c70:	00000021 	move	zero,zero
bfc02c74:	00000021 	move	zero,zero
bfc02c78:	00000021 	move	zero,zero
bfc02c7c:	00000021 	move	zero,zero
bfc02c80:	00000021 	move	zero,zero
bfc02c84:	3c125ea5 	lui	s2,0x5ea5
bfc02c88:	365257fc 	ori	s2,s2,0x57fc
bfc02c8c:	00000000 	nop
bfc02c90:	3c1497e3 	lui	s4,0x97e3
bfc02c94:	36946390 	ori	s4,s4,0x6390
bfc02c98:	16143453 	bne	s0,s4,bfc0fde8 <inst_error>
bfc02c9c:	00000000 	nop
bfc02ca0:	3c155ea5 	lui	s5,0x5ea5
bfc02ca4:	36b557fc 	ori	s5,s5,0x57fc
bfc02ca8:	1655344f 	bne	s2,s5,bfc0fde8 <inst_error>
bfc02cac:	00000000 	nop
bfc02cb0:	3c0c7262 	lui	t4,0x7262
bfc02cb4:	358c95bd 	ori	t4,t4,0x95bd
bfc02cb8:	3c0d0cb5 	lui	t5,0xcb5
bfc02cbc:	35ad5a66 	ori	t5,t5,0x5a66
bfc02cc0:	24100000 	li	s0,0
bfc02cc4:	24120000 	li	s2,0
bfc02cc8:	10000015 	b	bfc02d20 <main+0x2d20>
bfc02ccc:	00000000 	nop
bfc02cd0:	3c107262 	lui	s0,0x7262
bfc02cd4:	361095bd 	ori	s0,s0,0x95bd
bfc02cd8:	15280021 	bne	t1,t0,bfc02d60 <main+0x2d60>
bfc02cdc:	00000000 	nop
bfc02ce0:	10000021 	b	bfc02d68 <main+0x2d68>
bfc02ce4:	00000000 	nop
bfc02ce8:	00000021 	move	zero,zero
bfc02cec:	00000021 	move	zero,zero
bfc02cf0:	00000021 	move	zero,zero
bfc02cf4:	00000021 	move	zero,zero
bfc02cf8:	00000021 	move	zero,zero
bfc02cfc:	00000021 	move	zero,zero
bfc02d00:	00000021 	move	zero,zero
bfc02d04:	00000021 	move	zero,zero
bfc02d08:	00000021 	move	zero,zero
bfc02d0c:	00000021 	move	zero,zero
bfc02d10:	00000021 	move	zero,zero
bfc02d14:	00000021 	move	zero,zero
bfc02d18:	00000021 	move	zero,zero
bfc02d1c:	00000021 	move	zero,zero
bfc02d20:	3c0841d5 	lui	t0,0x41d5
bfc02d24:	35080de8 	ori	t0,t0,0xde8
bfc02d28:	3c09095b 	lui	t1,0x95b
bfc02d2c:	3529ab30 	ori	t1,t1,0xab30
bfc02d30:	1509ffe7 	bne	t0,t1,bfc02cd0 <main+0x2cd0>
bfc02d34:	00000000 	nop
bfc02d38:	1000000b 	b	bfc02d68 <main+0x2d68>
bfc02d3c:	00000000 	nop
bfc02d40:	00000021 	move	zero,zero
bfc02d44:	00000021 	move	zero,zero
bfc02d48:	00000021 	move	zero,zero
bfc02d4c:	00000021 	move	zero,zero
bfc02d50:	00000021 	move	zero,zero
bfc02d54:	00000021 	move	zero,zero
bfc02d58:	00000021 	move	zero,zero
bfc02d5c:	00000021 	move	zero,zero
bfc02d60:	3c120cb5 	lui	s2,0xcb5
bfc02d64:	36525a66 	ori	s2,s2,0x5a66
bfc02d68:	00000000 	nop
bfc02d6c:	3c147262 	lui	s4,0x7262
bfc02d70:	369495bd 	ori	s4,s4,0x95bd
bfc02d74:	1614341c 	bne	s0,s4,bfc0fde8 <inst_error>
bfc02d78:	00000000 	nop
bfc02d7c:	3c150cb5 	lui	s5,0xcb5
bfc02d80:	36b55a66 	ori	s5,s5,0x5a66
bfc02d84:	16553418 	bne	s2,s5,bfc0fde8 <inst_error>
bfc02d88:	00000000 	nop
bfc02d8c:	3c0ce0c0 	lui	t4,0xe0c0
bfc02d90:	358c6b84 	ori	t4,t4,0x6b84
bfc02d94:	3c0d29d1 	lui	t5,0x29d1
bfc02d98:	35ad0a00 	ori	t5,t5,0xa00
bfc02d9c:	24100000 	li	s0,0
bfc02da0:	24120000 	li	s2,0
bfc02da4:	10000015 	b	bfc02dfc <main+0x2dfc>
bfc02da8:	00000000 	nop
bfc02dac:	3c10e0c0 	lui	s0,0xe0c0
bfc02db0:	36106b84 	ori	s0,s0,0x6b84
bfc02db4:	15280021 	bne	t1,t0,bfc02e3c <main+0x2e3c>
bfc02db8:	00000000 	nop
bfc02dbc:	10000021 	b	bfc02e44 <main+0x2e44>
bfc02dc0:	00000000 	nop
bfc02dc4:	00000021 	move	zero,zero
bfc02dc8:	00000021 	move	zero,zero
bfc02dcc:	00000021 	move	zero,zero
bfc02dd0:	00000021 	move	zero,zero
bfc02dd4:	00000021 	move	zero,zero
bfc02dd8:	00000021 	move	zero,zero
bfc02ddc:	00000021 	move	zero,zero
bfc02de0:	00000021 	move	zero,zero
bfc02de4:	00000021 	move	zero,zero
bfc02de8:	00000021 	move	zero,zero
bfc02dec:	00000021 	move	zero,zero
bfc02df0:	00000021 	move	zero,zero
bfc02df4:	00000021 	move	zero,zero
bfc02df8:	00000021 	move	zero,zero
bfc02dfc:	3c08b32e 	lui	t0,0xb32e
bfc02e00:	3508f190 	ori	t0,t0,0xf190
bfc02e04:	3c09820a 	lui	t1,0x820a
bfc02e08:	3529f638 	ori	t1,t1,0xf638
bfc02e0c:	1509ffe7 	bne	t0,t1,bfc02dac <main+0x2dac>
bfc02e10:	00000000 	nop
bfc02e14:	1000000b 	b	bfc02e44 <main+0x2e44>
bfc02e18:	00000000 	nop
bfc02e1c:	00000021 	move	zero,zero
bfc02e20:	00000021 	move	zero,zero
bfc02e24:	00000021 	move	zero,zero
bfc02e28:	00000021 	move	zero,zero
bfc02e2c:	00000021 	move	zero,zero
bfc02e30:	00000021 	move	zero,zero
bfc02e34:	00000021 	move	zero,zero
bfc02e38:	00000021 	move	zero,zero
bfc02e3c:	3c1229d1 	lui	s2,0x29d1
bfc02e40:	36520a00 	ori	s2,s2,0xa00
bfc02e44:	00000000 	nop
bfc02e48:	3c14e0c0 	lui	s4,0xe0c0
bfc02e4c:	36946b84 	ori	s4,s4,0x6b84
bfc02e50:	161433e5 	bne	s0,s4,bfc0fde8 <inst_error>
bfc02e54:	00000000 	nop
bfc02e58:	3c1529d1 	lui	s5,0x29d1
bfc02e5c:	36b50a00 	ori	s5,s5,0xa00
bfc02e60:	165533e1 	bne	s2,s5,bfc0fde8 <inst_error>
bfc02e64:	00000000 	nop
bfc02e68:	3c0ce7e1 	lui	t4,0xe7e1
bfc02e6c:	358c3f77 	ori	t4,t4,0x3f77
bfc02e70:	3c0d0d4a 	lui	t5,0xd4a
bfc02e74:	35ad9678 	ori	t5,t5,0x9678
bfc02e78:	24100000 	li	s0,0
bfc02e7c:	24120000 	li	s2,0
bfc02e80:	10000015 	b	bfc02ed8 <main+0x2ed8>
bfc02e84:	00000000 	nop
bfc02e88:	3c10e7e1 	lui	s0,0xe7e1
bfc02e8c:	36103f77 	ori	s0,s0,0x3f77
bfc02e90:	15280021 	bne	t1,t0,bfc02f18 <main+0x2f18>
bfc02e94:	00000000 	nop
bfc02e98:	10000021 	b	bfc02f20 <main+0x2f20>
bfc02e9c:	00000000 	nop
bfc02ea0:	00000021 	move	zero,zero
bfc02ea4:	00000021 	move	zero,zero
bfc02ea8:	00000021 	move	zero,zero
bfc02eac:	00000021 	move	zero,zero
bfc02eb0:	00000021 	move	zero,zero
bfc02eb4:	00000021 	move	zero,zero
bfc02eb8:	00000021 	move	zero,zero
bfc02ebc:	00000021 	move	zero,zero
bfc02ec0:	00000021 	move	zero,zero
bfc02ec4:	00000021 	move	zero,zero
bfc02ec8:	00000021 	move	zero,zero
bfc02ecc:	00000021 	move	zero,zero
bfc02ed0:	00000021 	move	zero,zero
bfc02ed4:	00000021 	move	zero,zero
bfc02ed8:	3c088c21 	lui	t0,0x8c21
bfc02edc:	3508bb84 	ori	t0,t0,0xbb84
bfc02ee0:	3c092be7 	lui	t1,0x2be7
bfc02ee4:	3529749e 	ori	t1,t1,0x749e
bfc02ee8:	1509ffe7 	bne	t0,t1,bfc02e88 <main+0x2e88>
bfc02eec:	00000000 	nop
bfc02ef0:	1000000b 	b	bfc02f20 <main+0x2f20>
bfc02ef4:	00000000 	nop
bfc02ef8:	00000021 	move	zero,zero
bfc02efc:	00000021 	move	zero,zero
bfc02f00:	00000021 	move	zero,zero
bfc02f04:	00000021 	move	zero,zero
bfc02f08:	00000021 	move	zero,zero
bfc02f0c:	00000021 	move	zero,zero
bfc02f10:	00000021 	move	zero,zero
bfc02f14:	00000021 	move	zero,zero
bfc02f18:	3c120d4a 	lui	s2,0xd4a
bfc02f1c:	36529678 	ori	s2,s2,0x9678
bfc02f20:	00000000 	nop
bfc02f24:	3c14e7e1 	lui	s4,0xe7e1
bfc02f28:	36943f77 	ori	s4,s4,0x3f77
bfc02f2c:	161433ae 	bne	s0,s4,bfc0fde8 <inst_error>
bfc02f30:	00000000 	nop
bfc02f34:	3c150d4a 	lui	s5,0xd4a
bfc02f38:	36b59678 	ori	s5,s5,0x9678
bfc02f3c:	165533aa 	bne	s2,s5,bfc0fde8 <inst_error>
bfc02f40:	00000000 	nop
bfc02f44:	3c0c3581 	lui	t4,0x3581
bfc02f48:	358c3018 	ori	t4,t4,0x3018
bfc02f4c:	3c0dfff2 	lui	t5,0xfff2
bfc02f50:	35ade1bf 	ori	t5,t5,0xe1bf
bfc02f54:	24100000 	li	s0,0
bfc02f58:	24120000 	li	s2,0
bfc02f5c:	10000015 	b	bfc02fb4 <main+0x2fb4>
bfc02f60:	00000000 	nop
bfc02f64:	3c103581 	lui	s0,0x3581
bfc02f68:	36103018 	ori	s0,s0,0x3018
bfc02f6c:	15280021 	bne	t1,t0,bfc02ff4 <main+0x2ff4>
bfc02f70:	00000000 	nop
bfc02f74:	10000021 	b	bfc02ffc <main+0x2ffc>
bfc02f78:	00000000 	nop
bfc02f7c:	00000021 	move	zero,zero
bfc02f80:	00000021 	move	zero,zero
bfc02f84:	00000021 	move	zero,zero
bfc02f88:	00000021 	move	zero,zero
bfc02f8c:	00000021 	move	zero,zero
bfc02f90:	00000021 	move	zero,zero
bfc02f94:	00000021 	move	zero,zero
bfc02f98:	00000021 	move	zero,zero
bfc02f9c:	00000021 	move	zero,zero
bfc02fa0:	00000021 	move	zero,zero
bfc02fa4:	00000021 	move	zero,zero
bfc02fa8:	00000021 	move	zero,zero
bfc02fac:	00000021 	move	zero,zero
bfc02fb0:	00000021 	move	zero,zero
bfc02fb4:	3c084661 	lui	t0,0x4661
bfc02fb8:	35089e38 	ori	t0,t0,0x9e38
bfc02fbc:	3c0916bd 	lui	t1,0x16bd
bfc02fc0:	352940cc 	ori	t1,t1,0x40cc
bfc02fc4:	1509ffe7 	bne	t0,t1,bfc02f64 <main+0x2f64>
bfc02fc8:	00000000 	nop
bfc02fcc:	1000000b 	b	bfc02ffc <main+0x2ffc>
bfc02fd0:	00000000 	nop
bfc02fd4:	00000021 	move	zero,zero
bfc02fd8:	00000021 	move	zero,zero
bfc02fdc:	00000021 	move	zero,zero
bfc02fe0:	00000021 	move	zero,zero
bfc02fe4:	00000021 	move	zero,zero
bfc02fe8:	00000021 	move	zero,zero
bfc02fec:	00000021 	move	zero,zero
bfc02ff0:	00000021 	move	zero,zero
bfc02ff4:	3c12fff2 	lui	s2,0xfff2
bfc02ff8:	3652e1bf 	ori	s2,s2,0xe1bf
bfc02ffc:	00000000 	nop
bfc03000:	3c143581 	lui	s4,0x3581
bfc03004:	36943018 	ori	s4,s4,0x3018
bfc03008:	16143377 	bne	s0,s4,bfc0fde8 <inst_error>
bfc0300c:	00000000 	nop
bfc03010:	3c15fff2 	lui	s5,0xfff2
bfc03014:	36b5e1bf 	ori	s5,s5,0xe1bf
bfc03018:	16553373 	bne	s2,s5,bfc0fde8 <inst_error>
bfc0301c:	00000000 	nop
bfc03020:	3c0c2bc7 	lui	t4,0x2bc7
bfc03024:	358cf410 	ori	t4,t4,0xf410
bfc03028:	3c0d83b0 	lui	t5,0x83b0
bfc0302c:	35adfbff 	ori	t5,t5,0xfbff
bfc03030:	24100000 	li	s0,0
bfc03034:	24120000 	li	s2,0
bfc03038:	10000015 	b	bfc03090 <main+0x3090>
bfc0303c:	00000000 	nop
bfc03040:	3c102bc7 	lui	s0,0x2bc7
bfc03044:	3610f410 	ori	s0,s0,0xf410
bfc03048:	15280021 	bne	t1,t0,bfc030d0 <main+0x30d0>
bfc0304c:	00000000 	nop
bfc03050:	10000021 	b	bfc030d8 <main+0x30d8>
bfc03054:	00000000 	nop
bfc03058:	00000021 	move	zero,zero
bfc0305c:	00000021 	move	zero,zero
bfc03060:	00000021 	move	zero,zero
bfc03064:	00000021 	move	zero,zero
bfc03068:	00000021 	move	zero,zero
bfc0306c:	00000021 	move	zero,zero
bfc03070:	00000021 	move	zero,zero
bfc03074:	00000021 	move	zero,zero
bfc03078:	00000021 	move	zero,zero
bfc0307c:	00000021 	move	zero,zero
bfc03080:	00000021 	move	zero,zero
bfc03084:	00000021 	move	zero,zero
bfc03088:	00000021 	move	zero,zero
bfc0308c:	00000021 	move	zero,zero
bfc03090:	3c082295 	lui	t0,0x2295
bfc03094:	35081764 	ori	t0,t0,0x1764
bfc03098:	3c09404d 	lui	t1,0x404d
bfc0309c:	3529cb49 	ori	t1,t1,0xcb49
bfc030a0:	1509ffe7 	bne	t0,t1,bfc03040 <main+0x3040>
bfc030a4:	00000000 	nop
bfc030a8:	1000000b 	b	bfc030d8 <main+0x30d8>
bfc030ac:	00000000 	nop
bfc030b0:	00000021 	move	zero,zero
bfc030b4:	00000021 	move	zero,zero
bfc030b8:	00000021 	move	zero,zero
bfc030bc:	00000021 	move	zero,zero
bfc030c0:	00000021 	move	zero,zero
bfc030c4:	00000021 	move	zero,zero
bfc030c8:	00000021 	move	zero,zero
bfc030cc:	00000021 	move	zero,zero
bfc030d0:	3c1283b0 	lui	s2,0x83b0
bfc030d4:	3652fbff 	ori	s2,s2,0xfbff
bfc030d8:	00000000 	nop
bfc030dc:	3c142bc7 	lui	s4,0x2bc7
bfc030e0:	3694f410 	ori	s4,s4,0xf410
bfc030e4:	16143340 	bne	s0,s4,bfc0fde8 <inst_error>
bfc030e8:	00000000 	nop
bfc030ec:	3c1583b0 	lui	s5,0x83b0
bfc030f0:	36b5fbff 	ori	s5,s5,0xfbff
bfc030f4:	1655333c 	bne	s2,s5,bfc0fde8 <inst_error>
bfc030f8:	00000000 	nop
bfc030fc:	3c0cc8e3 	lui	t4,0xc8e3
bfc03100:	358c1dd8 	ori	t4,t4,0x1dd8
bfc03104:	3c0de871 	lui	t5,0xe871
bfc03108:	35adca88 	ori	t5,t5,0xca88
bfc0310c:	24100000 	li	s0,0
bfc03110:	24120000 	li	s2,0
bfc03114:	10000015 	b	bfc0316c <main+0x316c>
bfc03118:	00000000 	nop
bfc0311c:	3c10c8e3 	lui	s0,0xc8e3
bfc03120:	36101dd8 	ori	s0,s0,0x1dd8
bfc03124:	15280021 	bne	t1,t0,bfc031ac <main+0x31ac>
bfc03128:	00000000 	nop
bfc0312c:	10000021 	b	bfc031b4 <main+0x31b4>
bfc03130:	00000000 	nop
bfc03134:	00000021 	move	zero,zero
bfc03138:	00000021 	move	zero,zero
bfc0313c:	00000021 	move	zero,zero
bfc03140:	00000021 	move	zero,zero
bfc03144:	00000021 	move	zero,zero
bfc03148:	00000021 	move	zero,zero
bfc0314c:	00000021 	move	zero,zero
bfc03150:	00000021 	move	zero,zero
bfc03154:	00000021 	move	zero,zero
bfc03158:	00000021 	move	zero,zero
bfc0315c:	00000021 	move	zero,zero
bfc03160:	00000021 	move	zero,zero
bfc03164:	00000021 	move	zero,zero
bfc03168:	00000021 	move	zero,zero
bfc0316c:	3c0846d8 	lui	t0,0x46d8
bfc03170:	3508b720 	ori	t0,t0,0xb720
bfc03174:	3c093432 	lui	t1,0x3432
bfc03178:	3529fb00 	ori	t1,t1,0xfb00
bfc0317c:	1509ffe7 	bne	t0,t1,bfc0311c <main+0x311c>
bfc03180:	00000000 	nop
bfc03184:	1000000b 	b	bfc031b4 <main+0x31b4>
bfc03188:	00000000 	nop
bfc0318c:	00000021 	move	zero,zero
bfc03190:	00000021 	move	zero,zero
bfc03194:	00000021 	move	zero,zero
bfc03198:	00000021 	move	zero,zero
bfc0319c:	00000021 	move	zero,zero
bfc031a0:	00000021 	move	zero,zero
bfc031a4:	00000021 	move	zero,zero
bfc031a8:	00000021 	move	zero,zero
bfc031ac:	3c12e871 	lui	s2,0xe871
bfc031b0:	3652ca88 	ori	s2,s2,0xca88
bfc031b4:	00000000 	nop
bfc031b8:	3c14c8e3 	lui	s4,0xc8e3
bfc031bc:	36941dd8 	ori	s4,s4,0x1dd8
bfc031c0:	16143309 	bne	s0,s4,bfc0fde8 <inst_error>
bfc031c4:	00000000 	nop
bfc031c8:	3c15e871 	lui	s5,0xe871
bfc031cc:	36b5ca88 	ori	s5,s5,0xca88
bfc031d0:	16553305 	bne	s2,s5,bfc0fde8 <inst_error>
bfc031d4:	00000000 	nop
bfc031d8:	3c0c1982 	lui	t4,0x1982
bfc031dc:	358c9600 	ori	t4,t4,0x9600
bfc031e0:	3c0d8624 	lui	t5,0x8624
bfc031e4:	35ad6bde 	ori	t5,t5,0x6bde
bfc031e8:	24100000 	li	s0,0
bfc031ec:	24120000 	li	s2,0
bfc031f0:	10000015 	b	bfc03248 <main+0x3248>
bfc031f4:	00000000 	nop
bfc031f8:	3c101982 	lui	s0,0x1982
bfc031fc:	36109600 	ori	s0,s0,0x9600
bfc03200:	15280021 	bne	t1,t0,bfc03288 <main+0x3288>
bfc03204:	00000000 	nop
bfc03208:	10000021 	b	bfc03290 <main+0x3290>
bfc0320c:	00000000 	nop
bfc03210:	00000021 	move	zero,zero
bfc03214:	00000021 	move	zero,zero
bfc03218:	00000021 	move	zero,zero
bfc0321c:	00000021 	move	zero,zero
bfc03220:	00000021 	move	zero,zero
bfc03224:	00000021 	move	zero,zero
bfc03228:	00000021 	move	zero,zero
bfc0322c:	00000021 	move	zero,zero
bfc03230:	00000021 	move	zero,zero
bfc03234:	00000021 	move	zero,zero
bfc03238:	00000021 	move	zero,zero
bfc0323c:	00000021 	move	zero,zero
bfc03240:	00000021 	move	zero,zero
bfc03244:	00000021 	move	zero,zero
bfc03248:	3c084174 	lui	t0,0x4174
bfc0324c:	35085330 	ori	t0,t0,0x5330
bfc03250:	3c092fed 	lui	t1,0x2fed
bfc03254:	3529f25d 	ori	t1,t1,0xf25d
bfc03258:	1509ffe7 	bne	t0,t1,bfc031f8 <main+0x31f8>
bfc0325c:	00000000 	nop
bfc03260:	1000000b 	b	bfc03290 <main+0x3290>
bfc03264:	00000000 	nop
bfc03268:	00000021 	move	zero,zero
bfc0326c:	00000021 	move	zero,zero
bfc03270:	00000021 	move	zero,zero
bfc03274:	00000021 	move	zero,zero
bfc03278:	00000021 	move	zero,zero
bfc0327c:	00000021 	move	zero,zero
bfc03280:	00000021 	move	zero,zero
bfc03284:	00000021 	move	zero,zero
bfc03288:	3c128624 	lui	s2,0x8624
bfc0328c:	36526bde 	ori	s2,s2,0x6bde
bfc03290:	00000000 	nop
bfc03294:	3c141982 	lui	s4,0x1982
bfc03298:	36949600 	ori	s4,s4,0x9600
bfc0329c:	161432d2 	bne	s0,s4,bfc0fde8 <inst_error>
bfc032a0:	00000000 	nop
bfc032a4:	3c158624 	lui	s5,0x8624
bfc032a8:	36b56bde 	ori	s5,s5,0x6bde
bfc032ac:	165532ce 	bne	s2,s5,bfc0fde8 <inst_error>
bfc032b0:	00000000 	nop
bfc032b4:	3c0cc96f 	lui	t4,0xc96f
bfc032b8:	358c916c 	ori	t4,t4,0x916c
bfc032bc:	3c0dbc42 	lui	t5,0xbc42
bfc032c0:	35ade558 	ori	t5,t5,0xe558
bfc032c4:	24100000 	li	s0,0
bfc032c8:	24120000 	li	s2,0
bfc032cc:	10000015 	b	bfc03324 <main+0x3324>
bfc032d0:	00000000 	nop
bfc032d4:	3c10c96f 	lui	s0,0xc96f
bfc032d8:	3610916c 	ori	s0,s0,0x916c
bfc032dc:	15280021 	bne	t1,t0,bfc03364 <main+0x3364>
bfc032e0:	00000000 	nop
bfc032e4:	10000021 	b	bfc0336c <main+0x336c>
bfc032e8:	00000000 	nop
bfc032ec:	00000021 	move	zero,zero
bfc032f0:	00000021 	move	zero,zero
bfc032f4:	00000021 	move	zero,zero
bfc032f8:	00000021 	move	zero,zero
bfc032fc:	00000021 	move	zero,zero
bfc03300:	00000021 	move	zero,zero
bfc03304:	00000021 	move	zero,zero
bfc03308:	00000021 	move	zero,zero
bfc0330c:	00000021 	move	zero,zero
bfc03310:	00000021 	move	zero,zero
bfc03314:	00000021 	move	zero,zero
bfc03318:	00000021 	move	zero,zero
bfc0331c:	00000021 	move	zero,zero
bfc03320:	00000021 	move	zero,zero
bfc03324:	3c082640 	lui	t0,0x2640
bfc03328:	3508e748 	ori	t0,t0,0xe748
bfc0332c:	3c0948f3 	lui	t1,0x48f3
bfc03330:	35299d40 	ori	t1,t1,0x9d40
bfc03334:	1509ffe7 	bne	t0,t1,bfc032d4 <main+0x32d4>
bfc03338:	00000000 	nop
bfc0333c:	1000000b 	b	bfc0336c <main+0x336c>
bfc03340:	00000000 	nop
bfc03344:	00000021 	move	zero,zero
bfc03348:	00000021 	move	zero,zero
bfc0334c:	00000021 	move	zero,zero
bfc03350:	00000021 	move	zero,zero
bfc03354:	00000021 	move	zero,zero
bfc03358:	00000021 	move	zero,zero
bfc0335c:	00000021 	move	zero,zero
bfc03360:	00000021 	move	zero,zero
bfc03364:	3c12bc42 	lui	s2,0xbc42
bfc03368:	3652e558 	ori	s2,s2,0xe558
bfc0336c:	00000000 	nop
bfc03370:	3c14c96f 	lui	s4,0xc96f
bfc03374:	3694916c 	ori	s4,s4,0x916c
bfc03378:	1614329b 	bne	s0,s4,bfc0fde8 <inst_error>
bfc0337c:	00000000 	nop
bfc03380:	3c15bc42 	lui	s5,0xbc42
bfc03384:	36b5e558 	ori	s5,s5,0xe558
bfc03388:	16553297 	bne	s2,s5,bfc0fde8 <inst_error>
bfc0338c:	00000000 	nop
bfc03390:	3c0c5bb9 	lui	t4,0x5bb9
bfc03394:	358cca00 	ori	t4,t4,0xca00
bfc03398:	3c0d3170 	lui	t5,0x3170
bfc0339c:	35adb92d 	ori	t5,t5,0xb92d
bfc033a0:	24100000 	li	s0,0
bfc033a4:	24120000 	li	s2,0
bfc033a8:	10000015 	b	bfc03400 <main+0x3400>
bfc033ac:	00000000 	nop
bfc033b0:	3c105bb9 	lui	s0,0x5bb9
bfc033b4:	3610ca00 	ori	s0,s0,0xca00
bfc033b8:	15280021 	bne	t1,t0,bfc03440 <main+0x3440>
bfc033bc:	00000000 	nop
bfc033c0:	10000021 	b	bfc03448 <main+0x3448>
bfc033c4:	00000000 	nop
bfc033c8:	00000021 	move	zero,zero
bfc033cc:	00000021 	move	zero,zero
bfc033d0:	00000021 	move	zero,zero
bfc033d4:	00000021 	move	zero,zero
bfc033d8:	00000021 	move	zero,zero
bfc033dc:	00000021 	move	zero,zero
bfc033e0:	00000021 	move	zero,zero
bfc033e4:	00000021 	move	zero,zero
bfc033e8:	00000021 	move	zero,zero
bfc033ec:	00000021 	move	zero,zero
bfc033f0:	00000021 	move	zero,zero
bfc033f4:	00000021 	move	zero,zero
bfc033f8:	00000021 	move	zero,zero
bfc033fc:	00000021 	move	zero,zero
bfc03400:	3c0838d0 	lui	t0,0x38d0
bfc03404:	3508acf0 	ori	t0,t0,0xacf0
bfc03408:	3c09e5fc 	lui	t1,0xe5fc
bfc0340c:	35294c68 	ori	t1,t1,0x4c68
bfc03410:	1509ffe7 	bne	t0,t1,bfc033b0 <main+0x33b0>
bfc03414:	00000000 	nop
bfc03418:	1000000b 	b	bfc03448 <main+0x3448>
bfc0341c:	00000000 	nop
bfc03420:	00000021 	move	zero,zero
bfc03424:	00000021 	move	zero,zero
bfc03428:	00000021 	move	zero,zero
bfc0342c:	00000021 	move	zero,zero
bfc03430:	00000021 	move	zero,zero
bfc03434:	00000021 	move	zero,zero
bfc03438:	00000021 	move	zero,zero
bfc0343c:	00000021 	move	zero,zero
bfc03440:	3c123170 	lui	s2,0x3170
bfc03444:	3652b92d 	ori	s2,s2,0xb92d
bfc03448:	00000000 	nop
bfc0344c:	3c145bb9 	lui	s4,0x5bb9
bfc03450:	3694ca00 	ori	s4,s4,0xca00
bfc03454:	16143264 	bne	s0,s4,bfc0fde8 <inst_error>
bfc03458:	00000000 	nop
bfc0345c:	3c153170 	lui	s5,0x3170
bfc03460:	36b5b92d 	ori	s5,s5,0xb92d
bfc03464:	16553260 	bne	s2,s5,bfc0fde8 <inst_error>
bfc03468:	00000000 	nop
bfc0346c:	3c0cc110 	lui	t4,0xc110
bfc03470:	358cedc0 	ori	t4,t4,0xedc0
bfc03474:	3c0d02dc 	lui	t5,0x2dc
bfc03478:	35ad1040 	ori	t5,t5,0x1040
bfc0347c:	24100000 	li	s0,0
bfc03480:	24120000 	li	s2,0
bfc03484:	10000015 	b	bfc034dc <main+0x34dc>
bfc03488:	00000000 	nop
bfc0348c:	3c10c110 	lui	s0,0xc110
bfc03490:	3610edc0 	ori	s0,s0,0xedc0
bfc03494:	15280021 	bne	t1,t0,bfc0351c <main+0x351c>
bfc03498:	00000000 	nop
bfc0349c:	10000021 	b	bfc03524 <main+0x3524>
bfc034a0:	00000000 	nop
bfc034a4:	00000021 	move	zero,zero
bfc034a8:	00000021 	move	zero,zero
bfc034ac:	00000021 	move	zero,zero
bfc034b0:	00000021 	move	zero,zero
bfc034b4:	00000021 	move	zero,zero
bfc034b8:	00000021 	move	zero,zero
bfc034bc:	00000021 	move	zero,zero
bfc034c0:	00000021 	move	zero,zero
bfc034c4:	00000021 	move	zero,zero
bfc034c8:	00000021 	move	zero,zero
bfc034cc:	00000021 	move	zero,zero
bfc034d0:	00000021 	move	zero,zero
bfc034d4:	00000021 	move	zero,zero
bfc034d8:	00000021 	move	zero,zero
bfc034dc:	3c08e06e 	lui	t0,0xe06e
bfc034e0:	35085adc 	ori	t0,t0,0x5adc
bfc034e4:	3c093dae 	lui	t1,0x3dae
bfc034e8:	3529d318 	ori	t1,t1,0xd318
bfc034ec:	1509ffe7 	bne	t0,t1,bfc0348c <main+0x348c>
bfc034f0:	00000000 	nop
bfc034f4:	1000000b 	b	bfc03524 <main+0x3524>
bfc034f8:	00000000 	nop
bfc034fc:	00000021 	move	zero,zero
bfc03500:	00000021 	move	zero,zero
bfc03504:	00000021 	move	zero,zero
bfc03508:	00000021 	move	zero,zero
bfc0350c:	00000021 	move	zero,zero
bfc03510:	00000021 	move	zero,zero
bfc03514:	00000021 	move	zero,zero
bfc03518:	00000021 	move	zero,zero
bfc0351c:	3c1202dc 	lui	s2,0x2dc
bfc03520:	36521040 	ori	s2,s2,0x1040
bfc03524:	00000000 	nop
bfc03528:	3c14c110 	lui	s4,0xc110
bfc0352c:	3694edc0 	ori	s4,s4,0xedc0
bfc03530:	1614322d 	bne	s0,s4,bfc0fde8 <inst_error>
bfc03534:	00000000 	nop
bfc03538:	3c1502dc 	lui	s5,0x2dc
bfc0353c:	36b51040 	ori	s5,s5,0x1040
bfc03540:	16553229 	bne	s2,s5,bfc0fde8 <inst_error>
bfc03544:	00000000 	nop
bfc03548:	3c0cf7e6 	lui	t4,0xf7e6
bfc0354c:	358c1590 	ori	t4,t4,0x1590
bfc03550:	3c0db912 	lui	t5,0xb912
bfc03554:	35ad11e0 	ori	t5,t5,0x11e0
bfc03558:	24100000 	li	s0,0
bfc0355c:	24120000 	li	s2,0
bfc03560:	10000015 	b	bfc035b8 <main+0x35b8>
bfc03564:	00000000 	nop
bfc03568:	3c10f7e6 	lui	s0,0xf7e6
bfc0356c:	36101590 	ori	s0,s0,0x1590
bfc03570:	15280021 	bne	t1,t0,bfc035f8 <main+0x35f8>
bfc03574:	00000000 	nop
bfc03578:	10000021 	b	bfc03600 <main+0x3600>
bfc0357c:	00000000 	nop
bfc03580:	00000021 	move	zero,zero
bfc03584:	00000021 	move	zero,zero
bfc03588:	00000021 	move	zero,zero
bfc0358c:	00000021 	move	zero,zero
bfc03590:	00000021 	move	zero,zero
bfc03594:	00000021 	move	zero,zero
bfc03598:	00000021 	move	zero,zero
bfc0359c:	00000021 	move	zero,zero
bfc035a0:	00000021 	move	zero,zero
bfc035a4:	00000021 	move	zero,zero
bfc035a8:	00000021 	move	zero,zero
bfc035ac:	00000021 	move	zero,zero
bfc035b0:	00000021 	move	zero,zero
bfc035b4:	00000021 	move	zero,zero
bfc035b8:	3c08fa52 	lui	t0,0xfa52
bfc035bc:	350883e2 	ori	t0,t0,0x83e2
bfc035c0:	3c09f3ed 	lui	t1,0xf3ed
bfc035c4:	352999b4 	ori	t1,t1,0x99b4
bfc035c8:	1509ffe7 	bne	t0,t1,bfc03568 <main+0x3568>
bfc035cc:	00000000 	nop
bfc035d0:	1000000b 	b	bfc03600 <main+0x3600>
bfc035d4:	00000000 	nop
bfc035d8:	00000021 	move	zero,zero
bfc035dc:	00000021 	move	zero,zero
bfc035e0:	00000021 	move	zero,zero
bfc035e4:	00000021 	move	zero,zero
bfc035e8:	00000021 	move	zero,zero
bfc035ec:	00000021 	move	zero,zero
bfc035f0:	00000021 	move	zero,zero
bfc035f4:	00000021 	move	zero,zero
bfc035f8:	3c12b912 	lui	s2,0xb912
bfc035fc:	365211e0 	ori	s2,s2,0x11e0
bfc03600:	00000000 	nop
bfc03604:	3c14f7e6 	lui	s4,0xf7e6
bfc03608:	36941590 	ori	s4,s4,0x1590
bfc0360c:	161431f6 	bne	s0,s4,bfc0fde8 <inst_error>
bfc03610:	00000000 	nop
bfc03614:	3c15b912 	lui	s5,0xb912
bfc03618:	36b511e0 	ori	s5,s5,0x11e0
bfc0361c:	165531f2 	bne	s2,s5,bfc0fde8 <inst_error>
bfc03620:	00000000 	nop
bfc03624:	3c0ca2a5 	lui	t4,0xa2a5
bfc03628:	358c98f8 	ori	t4,t4,0x98f8
bfc0362c:	3c0dd039 	lui	t5,0xd039
bfc03630:	35ada9d8 	ori	t5,t5,0xa9d8
bfc03634:	24100000 	li	s0,0
bfc03638:	24120000 	li	s2,0
bfc0363c:	10000015 	b	bfc03694 <main+0x3694>
bfc03640:	00000000 	nop
bfc03644:	3c10a2a5 	lui	s0,0xa2a5
bfc03648:	361098f8 	ori	s0,s0,0x98f8
bfc0364c:	15280021 	bne	t1,t0,bfc036d4 <main+0x36d4>
bfc03650:	00000000 	nop
bfc03654:	10000021 	b	bfc036dc <main+0x36dc>
bfc03658:	00000000 	nop
bfc0365c:	00000021 	move	zero,zero
bfc03660:	00000021 	move	zero,zero
bfc03664:	00000021 	move	zero,zero
bfc03668:	00000021 	move	zero,zero
bfc0366c:	00000021 	move	zero,zero
bfc03670:	00000021 	move	zero,zero
bfc03674:	00000021 	move	zero,zero
bfc03678:	00000021 	move	zero,zero
bfc0367c:	00000021 	move	zero,zero
bfc03680:	00000021 	move	zero,zero
bfc03684:	00000021 	move	zero,zero
bfc03688:	00000021 	move	zero,zero
bfc0368c:	00000021 	move	zero,zero
bfc03690:	00000021 	move	zero,zero
bfc03694:	3c08ec2f 	lui	t0,0xec2f
bfc03698:	350861d2 	ori	t0,t0,0x61d2
bfc0369c:	3c09988b 	lui	t1,0x988b
bfc036a0:	35299bee 	ori	t1,t1,0x9bee
bfc036a4:	1509ffe7 	bne	t0,t1,bfc03644 <main+0x3644>
bfc036a8:	00000000 	nop
bfc036ac:	1000000b 	b	bfc036dc <main+0x36dc>
bfc036b0:	00000000 	nop
bfc036b4:	00000021 	move	zero,zero
bfc036b8:	00000021 	move	zero,zero
bfc036bc:	00000021 	move	zero,zero
bfc036c0:	00000021 	move	zero,zero
bfc036c4:	00000021 	move	zero,zero
bfc036c8:	00000021 	move	zero,zero
bfc036cc:	00000021 	move	zero,zero
bfc036d0:	00000021 	move	zero,zero
bfc036d4:	3c12d039 	lui	s2,0xd039
bfc036d8:	3652a9d8 	ori	s2,s2,0xa9d8
bfc036dc:	00000000 	nop
bfc036e0:	3c14a2a5 	lui	s4,0xa2a5
bfc036e4:	369498f8 	ori	s4,s4,0x98f8
bfc036e8:	161431bf 	bne	s0,s4,bfc0fde8 <inst_error>
bfc036ec:	00000000 	nop
bfc036f0:	3c15d039 	lui	s5,0xd039
bfc036f4:	36b5a9d8 	ori	s5,s5,0xa9d8
bfc036f8:	165531bb 	bne	s2,s5,bfc0fde8 <inst_error>
bfc036fc:	00000000 	nop
bfc03700:	3c0c3e0a 	lui	t4,0x3e0a
bfc03704:	358cd5a0 	ori	t4,t4,0xd5a0
bfc03708:	3c0db487 	lui	t5,0xb487
bfc0370c:	35ad8950 	ori	t5,t5,0x8950
bfc03710:	24100000 	li	s0,0
bfc03714:	24120000 	li	s2,0
bfc03718:	10000015 	b	bfc03770 <main+0x3770>
bfc0371c:	00000000 	nop
bfc03720:	3c103e0a 	lui	s0,0x3e0a
bfc03724:	3610d5a0 	ori	s0,s0,0xd5a0
bfc03728:	15280021 	bne	t1,t0,bfc037b0 <main+0x37b0>
bfc0372c:	00000000 	nop
bfc03730:	10000021 	b	bfc037b8 <main+0x37b8>
bfc03734:	00000000 	nop
bfc03738:	00000021 	move	zero,zero
bfc0373c:	00000021 	move	zero,zero
bfc03740:	00000021 	move	zero,zero
bfc03744:	00000021 	move	zero,zero
bfc03748:	00000021 	move	zero,zero
bfc0374c:	00000021 	move	zero,zero
bfc03750:	00000021 	move	zero,zero
bfc03754:	00000021 	move	zero,zero
bfc03758:	00000021 	move	zero,zero
bfc0375c:	00000021 	move	zero,zero
bfc03760:	00000021 	move	zero,zero
bfc03764:	00000021 	move	zero,zero
bfc03768:	00000021 	move	zero,zero
bfc0376c:	00000021 	move	zero,zero
bfc03770:	3c08cfe8 	lui	t0,0xcfe8
bfc03774:	3508786c 	ori	t0,t0,0x786c
bfc03778:	3c099b7a 	lui	t1,0x9b7a
bfc0377c:	35295560 	ori	t1,t1,0x5560
bfc03780:	1509ffe7 	bne	t0,t1,bfc03720 <main+0x3720>
bfc03784:	00000000 	nop
bfc03788:	1000000b 	b	bfc037b8 <main+0x37b8>
bfc0378c:	00000000 	nop
bfc03790:	00000021 	move	zero,zero
bfc03794:	00000021 	move	zero,zero
bfc03798:	00000021 	move	zero,zero
bfc0379c:	00000021 	move	zero,zero
bfc037a0:	00000021 	move	zero,zero
bfc037a4:	00000021 	move	zero,zero
bfc037a8:	00000021 	move	zero,zero
bfc037ac:	00000021 	move	zero,zero
bfc037b0:	3c12b487 	lui	s2,0xb487
bfc037b4:	36528950 	ori	s2,s2,0x8950
bfc037b8:	00000000 	nop
bfc037bc:	3c143e0a 	lui	s4,0x3e0a
bfc037c0:	3694d5a0 	ori	s4,s4,0xd5a0
bfc037c4:	16143188 	bne	s0,s4,bfc0fde8 <inst_error>
bfc037c8:	00000000 	nop
bfc037cc:	3c15b487 	lui	s5,0xb487
bfc037d0:	36b58950 	ori	s5,s5,0x8950
bfc037d4:	16553184 	bne	s2,s5,bfc0fde8 <inst_error>
bfc037d8:	00000000 	nop
bfc037dc:	3c0cfc93 	lui	t4,0xfc93
bfc037e0:	358cfbc0 	ori	t4,t4,0xfbc0
bfc037e4:	3c0def74 	lui	t5,0xef74
bfc037e8:	35adeeca 	ori	t5,t5,0xeeca
bfc037ec:	24100000 	li	s0,0
bfc037f0:	24120000 	li	s2,0
bfc037f4:	10000015 	b	bfc0384c <main+0x384c>
bfc037f8:	00000000 	nop
bfc037fc:	3c10fc93 	lui	s0,0xfc93
bfc03800:	3610fbc0 	ori	s0,s0,0xfbc0
bfc03804:	15280021 	bne	t1,t0,bfc0388c <main+0x388c>
bfc03808:	00000000 	nop
bfc0380c:	10000021 	b	bfc03894 <main+0x3894>
bfc03810:	00000000 	nop
bfc03814:	00000021 	move	zero,zero
bfc03818:	00000021 	move	zero,zero
bfc0381c:	00000021 	move	zero,zero
bfc03820:	00000021 	move	zero,zero
bfc03824:	00000021 	move	zero,zero
bfc03828:	00000021 	move	zero,zero
bfc0382c:	00000021 	move	zero,zero
bfc03830:	00000021 	move	zero,zero
bfc03834:	00000021 	move	zero,zero
bfc03838:	00000021 	move	zero,zero
bfc0383c:	00000021 	move	zero,zero
bfc03840:	00000021 	move	zero,zero
bfc03844:	00000021 	move	zero,zero
bfc03848:	00000021 	move	zero,zero
bfc0384c:	3c08bb97 	lui	t0,0xbb97
bfc03850:	35087f6a 	ori	t0,t0,0x7f6a
bfc03854:	3c098c30 	lui	t1,0x8c30
bfc03858:	3529c880 	ori	t1,t1,0xc880
bfc0385c:	1509ffe7 	bne	t0,t1,bfc037fc <main+0x37fc>
bfc03860:	00000000 	nop
bfc03864:	1000000b 	b	bfc03894 <main+0x3894>
bfc03868:	00000000 	nop
bfc0386c:	00000021 	move	zero,zero
bfc03870:	00000021 	move	zero,zero
bfc03874:	00000021 	move	zero,zero
bfc03878:	00000021 	move	zero,zero
bfc0387c:	00000021 	move	zero,zero
bfc03880:	00000021 	move	zero,zero
bfc03884:	00000021 	move	zero,zero
bfc03888:	00000021 	move	zero,zero
bfc0388c:	3c12ef74 	lui	s2,0xef74
bfc03890:	3652eeca 	ori	s2,s2,0xeeca
bfc03894:	00000000 	nop
bfc03898:	3c14fc93 	lui	s4,0xfc93
bfc0389c:	3694fbc0 	ori	s4,s4,0xfbc0
bfc038a0:	16143151 	bne	s0,s4,bfc0fde8 <inst_error>
bfc038a4:	00000000 	nop
bfc038a8:	3c15ef74 	lui	s5,0xef74
bfc038ac:	36b5eeca 	ori	s5,s5,0xeeca
bfc038b0:	1655314d 	bne	s2,s5,bfc0fde8 <inst_error>
bfc038b4:	00000000 	nop
bfc038b8:	3c0c4cf6 	lui	t4,0x4cf6
bfc038bc:	358ce712 	ori	t4,t4,0xe712
bfc038c0:	3c0d9480 	lui	t5,0x9480
bfc038c4:	35ad0248 	ori	t5,t5,0x248
bfc038c8:	24100000 	li	s0,0
bfc038cc:	24120000 	li	s2,0
bfc038d0:	10000015 	b	bfc03928 <main+0x3928>
bfc038d4:	00000000 	nop
bfc038d8:	3c104cf6 	lui	s0,0x4cf6
bfc038dc:	3610e712 	ori	s0,s0,0xe712
bfc038e0:	15280021 	bne	t1,t0,bfc03968 <main+0x3968>
bfc038e4:	00000000 	nop
bfc038e8:	10000021 	b	bfc03970 <main+0x3970>
bfc038ec:	00000000 	nop
bfc038f0:	00000021 	move	zero,zero
bfc038f4:	00000021 	move	zero,zero
bfc038f8:	00000021 	move	zero,zero
bfc038fc:	00000021 	move	zero,zero
bfc03900:	00000021 	move	zero,zero
bfc03904:	00000021 	move	zero,zero
bfc03908:	00000021 	move	zero,zero
bfc0390c:	00000021 	move	zero,zero
bfc03910:	00000021 	move	zero,zero
bfc03914:	00000021 	move	zero,zero
bfc03918:	00000021 	move	zero,zero
bfc0391c:	00000021 	move	zero,zero
bfc03920:	00000021 	move	zero,zero
bfc03924:	00000021 	move	zero,zero
bfc03928:	3c08137e 	lui	t0,0x137e
bfc0392c:	3508b568 	ori	t0,t0,0xb568
bfc03930:	3c099c8a 	lui	t1,0x9c8a
bfc03934:	35292100 	ori	t1,t1,0x2100
bfc03938:	1509ffe7 	bne	t0,t1,bfc038d8 <main+0x38d8>
bfc0393c:	00000000 	nop
bfc03940:	1000000b 	b	bfc03970 <main+0x3970>
bfc03944:	00000000 	nop
bfc03948:	00000021 	move	zero,zero
bfc0394c:	00000021 	move	zero,zero
bfc03950:	00000021 	move	zero,zero
bfc03954:	00000021 	move	zero,zero
bfc03958:	00000021 	move	zero,zero
bfc0395c:	00000021 	move	zero,zero
bfc03960:	00000021 	move	zero,zero
bfc03964:	00000021 	move	zero,zero
bfc03968:	3c129480 	lui	s2,0x9480
bfc0396c:	36520248 	ori	s2,s2,0x248
bfc03970:	00000000 	nop
bfc03974:	3c144cf6 	lui	s4,0x4cf6
bfc03978:	3694e712 	ori	s4,s4,0xe712
bfc0397c:	1614311a 	bne	s0,s4,bfc0fde8 <inst_error>
bfc03980:	00000000 	nop
bfc03984:	3c159480 	lui	s5,0x9480
bfc03988:	36b50248 	ori	s5,s5,0x248
bfc0398c:	16553116 	bne	s2,s5,bfc0fde8 <inst_error>
bfc03990:	00000000 	nop
bfc03994:	3c0c8af1 	lui	t4,0x8af1
bfc03998:	358c81c0 	ori	t4,t4,0x81c0
bfc0399c:	3c0d1617 	lui	t5,0x1617
bfc039a0:	35ad4159 	ori	t5,t5,0x4159
bfc039a4:	24100000 	li	s0,0
bfc039a8:	24120000 	li	s2,0
bfc039ac:	10000015 	b	bfc03a04 <main+0x3a04>
bfc039b0:	00000000 	nop
bfc039b4:	3c108af1 	lui	s0,0x8af1
bfc039b8:	361081c0 	ori	s0,s0,0x81c0
bfc039bc:	15280021 	bne	t1,t0,bfc03a44 <main+0x3a44>
bfc039c0:	00000000 	nop
bfc039c4:	10000021 	b	bfc03a4c <main+0x3a4c>
bfc039c8:	00000000 	nop
bfc039cc:	00000021 	move	zero,zero
bfc039d0:	00000021 	move	zero,zero
bfc039d4:	00000021 	move	zero,zero
bfc039d8:	00000021 	move	zero,zero
bfc039dc:	00000021 	move	zero,zero
bfc039e0:	00000021 	move	zero,zero
bfc039e4:	00000021 	move	zero,zero
bfc039e8:	00000021 	move	zero,zero
bfc039ec:	00000021 	move	zero,zero
bfc039f0:	00000021 	move	zero,zero
bfc039f4:	00000021 	move	zero,zero
bfc039f8:	00000021 	move	zero,zero
bfc039fc:	00000021 	move	zero,zero
bfc03a00:	00000021 	move	zero,zero
bfc03a04:	3c089080 	lui	t0,0x9080
bfc03a08:	3508e118 	ori	t0,t0,0xe118
bfc03a0c:	3c09cb05 	lui	t1,0xcb05
bfc03a10:	3529fbe7 	ori	t1,t1,0xfbe7
bfc03a14:	1509ffe7 	bne	t0,t1,bfc039b4 <main+0x39b4>
bfc03a18:	00000000 	nop
bfc03a1c:	1000000b 	b	bfc03a4c <main+0x3a4c>
bfc03a20:	00000000 	nop
bfc03a24:	00000021 	move	zero,zero
bfc03a28:	00000021 	move	zero,zero
bfc03a2c:	00000021 	move	zero,zero
bfc03a30:	00000021 	move	zero,zero
bfc03a34:	00000021 	move	zero,zero
bfc03a38:	00000021 	move	zero,zero
bfc03a3c:	00000021 	move	zero,zero
bfc03a40:	00000021 	move	zero,zero
bfc03a44:	3c121617 	lui	s2,0x1617
bfc03a48:	36524159 	ori	s2,s2,0x4159
bfc03a4c:	00000000 	nop
bfc03a50:	3c148af1 	lui	s4,0x8af1
bfc03a54:	369481c0 	ori	s4,s4,0x81c0
bfc03a58:	161430e3 	bne	s0,s4,bfc0fde8 <inst_error>
bfc03a5c:	00000000 	nop
bfc03a60:	3c151617 	lui	s5,0x1617
bfc03a64:	36b54159 	ori	s5,s5,0x4159
bfc03a68:	165530df 	bne	s2,s5,bfc0fde8 <inst_error>
bfc03a6c:	00000000 	nop
bfc03a70:	3c0c4754 	lui	t4,0x4754
bfc03a74:	358ceb14 	ori	t4,t4,0xeb14
bfc03a78:	3c0d64db 	lui	t5,0x64db
bfc03a7c:	35adbaac 	ori	t5,t5,0xbaac
bfc03a80:	24100000 	li	s0,0
bfc03a84:	24120000 	li	s2,0
bfc03a88:	10000015 	b	bfc03ae0 <main+0x3ae0>
bfc03a8c:	00000000 	nop
bfc03a90:	3c104754 	lui	s0,0x4754
bfc03a94:	3610eb14 	ori	s0,s0,0xeb14
bfc03a98:	15280021 	bne	t1,t0,bfc03b20 <main+0x3b20>
bfc03a9c:	00000000 	nop
bfc03aa0:	10000021 	b	bfc03b28 <main+0x3b28>
bfc03aa4:	00000000 	nop
bfc03aa8:	00000021 	move	zero,zero
bfc03aac:	00000021 	move	zero,zero
bfc03ab0:	00000021 	move	zero,zero
bfc03ab4:	00000021 	move	zero,zero
bfc03ab8:	00000021 	move	zero,zero
bfc03abc:	00000021 	move	zero,zero
bfc03ac0:	00000021 	move	zero,zero
bfc03ac4:	00000021 	move	zero,zero
bfc03ac8:	00000021 	move	zero,zero
bfc03acc:	00000021 	move	zero,zero
bfc03ad0:	00000021 	move	zero,zero
bfc03ad4:	00000021 	move	zero,zero
bfc03ad8:	00000021 	move	zero,zero
bfc03adc:	00000021 	move	zero,zero
bfc03ae0:	3c08fe37 	lui	t0,0xfe37
bfc03ae4:	3508e93a 	ori	t0,t0,0xe93a
bfc03ae8:	3c097c98 	lui	t1,0x7c98
bfc03aec:	3529d980 	ori	t1,t1,0xd980
bfc03af0:	1509ffe7 	bne	t0,t1,bfc03a90 <main+0x3a90>
bfc03af4:	00000000 	nop
bfc03af8:	1000000b 	b	bfc03b28 <main+0x3b28>
bfc03afc:	00000000 	nop
bfc03b00:	00000021 	move	zero,zero
bfc03b04:	00000021 	move	zero,zero
bfc03b08:	00000021 	move	zero,zero
bfc03b0c:	00000021 	move	zero,zero
bfc03b10:	00000021 	move	zero,zero
bfc03b14:	00000021 	move	zero,zero
bfc03b18:	00000021 	move	zero,zero
bfc03b1c:	00000021 	move	zero,zero
bfc03b20:	3c1264db 	lui	s2,0x64db
bfc03b24:	3652baac 	ori	s2,s2,0xbaac
bfc03b28:	00000000 	nop
bfc03b2c:	3c144754 	lui	s4,0x4754
bfc03b30:	3694eb14 	ori	s4,s4,0xeb14
bfc03b34:	161430ac 	bne	s0,s4,bfc0fde8 <inst_error>
bfc03b38:	00000000 	nop
bfc03b3c:	3c1564db 	lui	s5,0x64db
bfc03b40:	36b5baac 	ori	s5,s5,0xbaac
bfc03b44:	165530a8 	bne	s2,s5,bfc0fde8 <inst_error>
bfc03b48:	00000000 	nop
bfc03b4c:	3c0c0df0 	lui	t4,0xdf0
bfc03b50:	358c76d2 	ori	t4,t4,0x76d2
bfc03b54:	3c0df4e7 	lui	t5,0xf4e7
bfc03b58:	35ad7328 	ori	t5,t5,0x7328
bfc03b5c:	24100000 	li	s0,0
bfc03b60:	24120000 	li	s2,0
bfc03b64:	10000015 	b	bfc03bbc <main+0x3bbc>
bfc03b68:	00000000 	nop
bfc03b6c:	3c100df0 	lui	s0,0xdf0
bfc03b70:	361076d2 	ori	s0,s0,0x76d2
bfc03b74:	15280021 	bne	t1,t0,bfc03bfc <main+0x3bfc>
bfc03b78:	00000000 	nop
bfc03b7c:	10000021 	b	bfc03c04 <main+0x3c04>
bfc03b80:	00000000 	nop
bfc03b84:	00000021 	move	zero,zero
bfc03b88:	00000021 	move	zero,zero
bfc03b8c:	00000021 	move	zero,zero
bfc03b90:	00000021 	move	zero,zero
bfc03b94:	00000021 	move	zero,zero
bfc03b98:	00000021 	move	zero,zero
bfc03b9c:	00000021 	move	zero,zero
bfc03ba0:	00000021 	move	zero,zero
bfc03ba4:	00000021 	move	zero,zero
bfc03ba8:	00000021 	move	zero,zero
bfc03bac:	00000021 	move	zero,zero
bfc03bb0:	00000021 	move	zero,zero
bfc03bb4:	00000021 	move	zero,zero
bfc03bb8:	00000021 	move	zero,zero
bfc03bbc:	3c080677 	lui	t0,0x677
bfc03bc0:	3508bcb9 	ori	t0,t0,0xbcb9
bfc03bc4:	3c09a761 	lui	t1,0xa761
bfc03bc8:	3529310e 	ori	t1,t1,0x310e
bfc03bcc:	1509ffe7 	bne	t0,t1,bfc03b6c <main+0x3b6c>
bfc03bd0:	00000000 	nop
bfc03bd4:	1000000b 	b	bfc03c04 <main+0x3c04>
bfc03bd8:	00000000 	nop
bfc03bdc:	00000021 	move	zero,zero
bfc03be0:	00000021 	move	zero,zero
bfc03be4:	00000021 	move	zero,zero
bfc03be8:	00000021 	move	zero,zero
bfc03bec:	00000021 	move	zero,zero
bfc03bf0:	00000021 	move	zero,zero
bfc03bf4:	00000021 	move	zero,zero
bfc03bf8:	00000021 	move	zero,zero
bfc03bfc:	3c12f4e7 	lui	s2,0xf4e7
bfc03c00:	36527328 	ori	s2,s2,0x7328
bfc03c04:	00000000 	nop
bfc03c08:	3c140df0 	lui	s4,0xdf0
bfc03c0c:	369476d2 	ori	s4,s4,0x76d2
bfc03c10:	16143075 	bne	s0,s4,bfc0fde8 <inst_error>
bfc03c14:	00000000 	nop
bfc03c18:	3c15f4e7 	lui	s5,0xf4e7
bfc03c1c:	36b57328 	ori	s5,s5,0x7328
bfc03c20:	16553071 	bne	s2,s5,bfc0fde8 <inst_error>
bfc03c24:	00000000 	nop
bfc03c28:	3c0c82b7 	lui	t4,0x82b7
bfc03c2c:	358cc5a8 	ori	t4,t4,0xc5a8
bfc03c30:	3c0de9d4 	lui	t5,0xe9d4
bfc03c34:	35addb30 	ori	t5,t5,0xdb30
bfc03c38:	24100000 	li	s0,0
bfc03c3c:	24120000 	li	s2,0
bfc03c40:	10000015 	b	bfc03c98 <main+0x3c98>
bfc03c44:	00000000 	nop
bfc03c48:	3c1082b7 	lui	s0,0x82b7
bfc03c4c:	3610c5a8 	ori	s0,s0,0xc5a8
bfc03c50:	15280021 	bne	t1,t0,bfc03cd8 <main+0x3cd8>
bfc03c54:	00000000 	nop
bfc03c58:	10000021 	b	bfc03ce0 <main+0x3ce0>
bfc03c5c:	00000000 	nop
bfc03c60:	00000021 	move	zero,zero
bfc03c64:	00000021 	move	zero,zero
bfc03c68:	00000021 	move	zero,zero
bfc03c6c:	00000021 	move	zero,zero
bfc03c70:	00000021 	move	zero,zero
bfc03c74:	00000021 	move	zero,zero
bfc03c78:	00000021 	move	zero,zero
bfc03c7c:	00000021 	move	zero,zero
bfc03c80:	00000021 	move	zero,zero
bfc03c84:	00000021 	move	zero,zero
bfc03c88:	00000021 	move	zero,zero
bfc03c8c:	00000021 	move	zero,zero
bfc03c90:	00000021 	move	zero,zero
bfc03c94:	00000021 	move	zero,zero
bfc03c98:	3c08b740 	lui	t0,0xb740
bfc03c9c:	3508b108 	ori	t0,t0,0xb108
bfc03ca0:	3c098e0d 	lui	t1,0x8e0d
bfc03ca4:	35294d28 	ori	t1,t1,0x4d28
bfc03ca8:	1509ffe7 	bne	t0,t1,bfc03c48 <main+0x3c48>
bfc03cac:	00000000 	nop
bfc03cb0:	1000000b 	b	bfc03ce0 <main+0x3ce0>
bfc03cb4:	00000000 	nop
bfc03cb8:	00000021 	move	zero,zero
bfc03cbc:	00000021 	move	zero,zero
bfc03cc0:	00000021 	move	zero,zero
bfc03cc4:	00000021 	move	zero,zero
bfc03cc8:	00000021 	move	zero,zero
bfc03ccc:	00000021 	move	zero,zero
bfc03cd0:	00000021 	move	zero,zero
bfc03cd4:	00000021 	move	zero,zero
bfc03cd8:	3c12e9d4 	lui	s2,0xe9d4
bfc03cdc:	3652db30 	ori	s2,s2,0xdb30
bfc03ce0:	00000000 	nop
bfc03ce4:	3c1482b7 	lui	s4,0x82b7
bfc03ce8:	3694c5a8 	ori	s4,s4,0xc5a8
bfc03cec:	1614303e 	bne	s0,s4,bfc0fde8 <inst_error>
bfc03cf0:	00000000 	nop
bfc03cf4:	3c15e9d4 	lui	s5,0xe9d4
bfc03cf8:	36b5db30 	ori	s5,s5,0xdb30
bfc03cfc:	1655303a 	bne	s2,s5,bfc0fde8 <inst_error>
bfc03d00:	00000000 	nop
bfc03d04:	3c0c85d5 	lui	t4,0x85d5
bfc03d08:	358c0384 	ori	t4,t4,0x384
bfc03d0c:	3c0dd56a 	lui	t5,0xd56a
bfc03d10:	35ad0350 	ori	t5,t5,0x350
bfc03d14:	24100000 	li	s0,0
bfc03d18:	24120000 	li	s2,0
bfc03d1c:	10000015 	b	bfc03d74 <main+0x3d74>
bfc03d20:	00000000 	nop
bfc03d24:	3c1085d5 	lui	s0,0x85d5
bfc03d28:	36100384 	ori	s0,s0,0x384
bfc03d2c:	15280021 	bne	t1,t0,bfc03db4 <main+0x3db4>
bfc03d30:	00000000 	nop
bfc03d34:	10000021 	b	bfc03dbc <main+0x3dbc>
bfc03d38:	00000000 	nop
bfc03d3c:	00000021 	move	zero,zero
bfc03d40:	00000021 	move	zero,zero
bfc03d44:	00000021 	move	zero,zero
bfc03d48:	00000021 	move	zero,zero
bfc03d4c:	00000021 	move	zero,zero
bfc03d50:	00000021 	move	zero,zero
bfc03d54:	00000021 	move	zero,zero
bfc03d58:	00000021 	move	zero,zero
bfc03d5c:	00000021 	move	zero,zero
bfc03d60:	00000021 	move	zero,zero
bfc03d64:	00000021 	move	zero,zero
bfc03d68:	00000021 	move	zero,zero
bfc03d6c:	00000021 	move	zero,zero
bfc03d70:	00000021 	move	zero,zero
bfc03d74:	3c0837fb 	lui	t0,0x37fb
bfc03d78:	3508d760 	ori	t0,t0,0xd760
bfc03d7c:	3c0923ba 	lui	t1,0x23ba
bfc03d80:	3529d9d8 	ori	t1,t1,0xd9d8
bfc03d84:	1509ffe7 	bne	t0,t1,bfc03d24 <main+0x3d24>
bfc03d88:	00000000 	nop
bfc03d8c:	1000000b 	b	bfc03dbc <main+0x3dbc>
bfc03d90:	00000000 	nop
bfc03d94:	00000021 	move	zero,zero
bfc03d98:	00000021 	move	zero,zero
bfc03d9c:	00000021 	move	zero,zero
bfc03da0:	00000021 	move	zero,zero
bfc03da4:	00000021 	move	zero,zero
bfc03da8:	00000021 	move	zero,zero
bfc03dac:	00000021 	move	zero,zero
bfc03db0:	00000021 	move	zero,zero
bfc03db4:	3c12d56a 	lui	s2,0xd56a
bfc03db8:	36520350 	ori	s2,s2,0x350
bfc03dbc:	00000000 	nop
bfc03dc0:	3c1485d5 	lui	s4,0x85d5
bfc03dc4:	36940384 	ori	s4,s4,0x384
bfc03dc8:	16143007 	bne	s0,s4,bfc0fde8 <inst_error>
bfc03dcc:	00000000 	nop
bfc03dd0:	3c15d56a 	lui	s5,0xd56a
bfc03dd4:	36b50350 	ori	s5,s5,0x350
bfc03dd8:	16553003 	bne	s2,s5,bfc0fde8 <inst_error>
bfc03ddc:	00000000 	nop
bfc03de0:	3c0c84ee 	lui	t4,0x84ee
bfc03de4:	358cbcfc 	ori	t4,t4,0xbcfc
bfc03de8:	3c0ddccd 	lui	t5,0xdccd
bfc03dec:	35ad8a48 	ori	t5,t5,0x8a48
bfc03df0:	24100000 	li	s0,0
bfc03df4:	24120000 	li	s2,0
bfc03df8:	10000015 	b	bfc03e50 <main+0x3e50>
bfc03dfc:	00000000 	nop
bfc03e00:	3c1084ee 	lui	s0,0x84ee
bfc03e04:	3610bcfc 	ori	s0,s0,0xbcfc
bfc03e08:	15280021 	bne	t1,t0,bfc03e90 <main+0x3e90>
bfc03e0c:	00000000 	nop
bfc03e10:	10000021 	b	bfc03e98 <main+0x3e98>
bfc03e14:	00000000 	nop
bfc03e18:	00000021 	move	zero,zero
bfc03e1c:	00000021 	move	zero,zero
bfc03e20:	00000021 	move	zero,zero
bfc03e24:	00000021 	move	zero,zero
bfc03e28:	00000021 	move	zero,zero
bfc03e2c:	00000021 	move	zero,zero
bfc03e30:	00000021 	move	zero,zero
bfc03e34:	00000021 	move	zero,zero
bfc03e38:	00000021 	move	zero,zero
bfc03e3c:	00000021 	move	zero,zero
bfc03e40:	00000021 	move	zero,zero
bfc03e44:	00000021 	move	zero,zero
bfc03e48:	00000021 	move	zero,zero
bfc03e4c:	00000021 	move	zero,zero
bfc03e50:	3c0812ce 	lui	t0,0x12ce
bfc03e54:	35084958 	ori	t0,t0,0x4958
bfc03e58:	3c091078 	lui	t1,0x1078
bfc03e5c:	35296eb4 	ori	t1,t1,0x6eb4
bfc03e60:	1509ffe7 	bne	t0,t1,bfc03e00 <main+0x3e00>
bfc03e64:	00000000 	nop
bfc03e68:	1000000b 	b	bfc03e98 <main+0x3e98>
bfc03e6c:	00000000 	nop
bfc03e70:	00000021 	move	zero,zero
bfc03e74:	00000021 	move	zero,zero
bfc03e78:	00000021 	move	zero,zero
bfc03e7c:	00000021 	move	zero,zero
bfc03e80:	00000021 	move	zero,zero
bfc03e84:	00000021 	move	zero,zero
bfc03e88:	00000021 	move	zero,zero
bfc03e8c:	00000021 	move	zero,zero
bfc03e90:	3c12dccd 	lui	s2,0xdccd
bfc03e94:	36528a48 	ori	s2,s2,0x8a48
bfc03e98:	00000000 	nop
bfc03e9c:	3c1484ee 	lui	s4,0x84ee
bfc03ea0:	3694bcfc 	ori	s4,s4,0xbcfc
bfc03ea4:	16142fd0 	bne	s0,s4,bfc0fde8 <inst_error>
bfc03ea8:	00000000 	nop
bfc03eac:	3c15dccd 	lui	s5,0xdccd
bfc03eb0:	36b58a48 	ori	s5,s5,0x8a48
bfc03eb4:	16552fcc 	bne	s2,s5,bfc0fde8 <inst_error>
bfc03eb8:	00000000 	nop
bfc03ebc:	3c0cab31 	lui	t4,0xab31
bfc03ec0:	358c9e80 	ori	t4,t4,0x9e80
bfc03ec4:	3c0df742 	lui	t5,0xf742
bfc03ec8:	35adb258 	ori	t5,t5,0xb258
bfc03ecc:	24100000 	li	s0,0
bfc03ed0:	24120000 	li	s2,0
bfc03ed4:	10000015 	b	bfc03f2c <main+0x3f2c>
bfc03ed8:	00000000 	nop
bfc03edc:	3c10ab31 	lui	s0,0xab31
bfc03ee0:	36109e80 	ori	s0,s0,0x9e80
bfc03ee4:	15280021 	bne	t1,t0,bfc03f6c <main+0x3f6c>
bfc03ee8:	00000000 	nop
bfc03eec:	10000021 	b	bfc03f74 <main+0x3f74>
bfc03ef0:	00000000 	nop
bfc03ef4:	00000021 	move	zero,zero
bfc03ef8:	00000021 	move	zero,zero
bfc03efc:	00000021 	move	zero,zero
bfc03f00:	00000021 	move	zero,zero
bfc03f04:	00000021 	move	zero,zero
bfc03f08:	00000021 	move	zero,zero
bfc03f0c:	00000021 	move	zero,zero
bfc03f10:	00000021 	move	zero,zero
bfc03f14:	00000021 	move	zero,zero
bfc03f18:	00000021 	move	zero,zero
bfc03f1c:	00000021 	move	zero,zero
bfc03f20:	00000021 	move	zero,zero
bfc03f24:	00000021 	move	zero,zero
bfc03f28:	00000021 	move	zero,zero
bfc03f2c:	3c080b65 	lui	t0,0xb65
bfc03f30:	35084a30 	ori	t0,t0,0x4a30
bfc03f34:	3c09f345 	lui	t1,0xf345
bfc03f38:	35291ce0 	ori	t1,t1,0x1ce0
bfc03f3c:	1509ffe7 	bne	t0,t1,bfc03edc <main+0x3edc>
bfc03f40:	00000000 	nop
bfc03f44:	1000000b 	b	bfc03f74 <main+0x3f74>
bfc03f48:	00000000 	nop
bfc03f4c:	00000021 	move	zero,zero
bfc03f50:	00000021 	move	zero,zero
bfc03f54:	00000021 	move	zero,zero
bfc03f58:	00000021 	move	zero,zero
bfc03f5c:	00000021 	move	zero,zero
bfc03f60:	00000021 	move	zero,zero
bfc03f64:	00000021 	move	zero,zero
bfc03f68:	00000021 	move	zero,zero
bfc03f6c:	3c12f742 	lui	s2,0xf742
bfc03f70:	3652b258 	ori	s2,s2,0xb258
bfc03f74:	00000000 	nop
bfc03f78:	3c14ab31 	lui	s4,0xab31
bfc03f7c:	36949e80 	ori	s4,s4,0x9e80
bfc03f80:	16142f99 	bne	s0,s4,bfc0fde8 <inst_error>
bfc03f84:	00000000 	nop
bfc03f88:	3c15f742 	lui	s5,0xf742
bfc03f8c:	36b5b258 	ori	s5,s5,0xb258
bfc03f90:	16552f95 	bne	s2,s5,bfc0fde8 <inst_error>
bfc03f94:	00000000 	nop
bfc03f98:	3c0c0313 	lui	t4,0x313
bfc03f9c:	358c17b8 	ori	t4,t4,0x17b8
bfc03fa0:	3c0d3d61 	lui	t5,0x3d61
bfc03fa4:	35adf6b8 	ori	t5,t5,0xf6b8
bfc03fa8:	24100000 	li	s0,0
bfc03fac:	24120000 	li	s2,0
bfc03fb0:	10000015 	b	bfc04008 <main+0x4008>
bfc03fb4:	00000000 	nop
bfc03fb8:	3c100313 	lui	s0,0x313
bfc03fbc:	361017b8 	ori	s0,s0,0x17b8
bfc03fc0:	15280021 	bne	t1,t0,bfc04048 <main+0x4048>
bfc03fc4:	00000000 	nop
bfc03fc8:	10000021 	b	bfc04050 <main+0x4050>
bfc03fcc:	00000000 	nop
bfc03fd0:	00000021 	move	zero,zero
bfc03fd4:	00000021 	move	zero,zero
bfc03fd8:	00000021 	move	zero,zero
bfc03fdc:	00000021 	move	zero,zero
bfc03fe0:	00000021 	move	zero,zero
bfc03fe4:	00000021 	move	zero,zero
bfc03fe8:	00000021 	move	zero,zero
bfc03fec:	00000021 	move	zero,zero
bfc03ff0:	00000021 	move	zero,zero
bfc03ff4:	00000021 	move	zero,zero
bfc03ff8:	00000021 	move	zero,zero
bfc03ffc:	00000021 	move	zero,zero
bfc04000:	00000021 	move	zero,zero
bfc04004:	00000021 	move	zero,zero
bfc04008:	3c08d04f 	lui	t0,0xd04f
bfc0400c:	3508fdc0 	ori	t0,t0,0xfdc0
bfc04010:	3c097503 	lui	t1,0x7503
bfc04014:	3529f772 	ori	t1,t1,0xf772
bfc04018:	1509ffe7 	bne	t0,t1,bfc03fb8 <main+0x3fb8>
bfc0401c:	00000000 	nop
bfc04020:	1000000b 	b	bfc04050 <main+0x4050>
bfc04024:	00000000 	nop
bfc04028:	00000021 	move	zero,zero
bfc0402c:	00000021 	move	zero,zero
bfc04030:	00000021 	move	zero,zero
bfc04034:	00000021 	move	zero,zero
bfc04038:	00000021 	move	zero,zero
bfc0403c:	00000021 	move	zero,zero
bfc04040:	00000021 	move	zero,zero
bfc04044:	00000021 	move	zero,zero
bfc04048:	3c123d61 	lui	s2,0x3d61
bfc0404c:	3652f6b8 	ori	s2,s2,0xf6b8
bfc04050:	00000000 	nop
bfc04054:	3c140313 	lui	s4,0x313
bfc04058:	369417b8 	ori	s4,s4,0x17b8
bfc0405c:	16142f62 	bne	s0,s4,bfc0fde8 <inst_error>
bfc04060:	00000000 	nop
bfc04064:	3c153d61 	lui	s5,0x3d61
bfc04068:	36b5f6b8 	ori	s5,s5,0xf6b8
bfc0406c:	16552f5e 	bne	s2,s5,bfc0fde8 <inst_error>
bfc04070:	00000000 	nop
bfc04074:	3c0c42d4 	lui	t4,0x42d4
bfc04078:	358c3bf0 	ori	t4,t4,0x3bf0
bfc0407c:	3c0dfe45 	lui	t5,0xfe45
bfc04080:	35ad34f0 	ori	t5,t5,0x34f0
bfc04084:	24100000 	li	s0,0
bfc04088:	24120000 	li	s2,0
bfc0408c:	10000015 	b	bfc040e4 <main+0x40e4>
bfc04090:	00000000 	nop
bfc04094:	3c1042d4 	lui	s0,0x42d4
bfc04098:	36103bf0 	ori	s0,s0,0x3bf0
bfc0409c:	15280021 	bne	t1,t0,bfc04124 <main+0x4124>
bfc040a0:	00000000 	nop
bfc040a4:	10000021 	b	bfc0412c <main+0x412c>
bfc040a8:	00000000 	nop
bfc040ac:	00000021 	move	zero,zero
bfc040b0:	00000021 	move	zero,zero
bfc040b4:	00000021 	move	zero,zero
bfc040b8:	00000021 	move	zero,zero
bfc040bc:	00000021 	move	zero,zero
bfc040c0:	00000021 	move	zero,zero
bfc040c4:	00000021 	move	zero,zero
bfc040c8:	00000021 	move	zero,zero
bfc040cc:	00000021 	move	zero,zero
bfc040d0:	00000021 	move	zero,zero
bfc040d4:	00000021 	move	zero,zero
bfc040d8:	00000021 	move	zero,zero
bfc040dc:	00000021 	move	zero,zero
bfc040e0:	00000021 	move	zero,zero
bfc040e4:	3c087f1c 	lui	t0,0x7f1c
bfc040e8:	3508510a 	ori	t0,t0,0x510a
bfc040ec:	3c09836d 	lui	t1,0x836d
bfc040f0:	3529c39a 	ori	t1,t1,0xc39a
bfc040f4:	1509ffe7 	bne	t0,t1,bfc04094 <main+0x4094>
bfc040f8:	00000000 	nop
bfc040fc:	1000000b 	b	bfc0412c <main+0x412c>
bfc04100:	00000000 	nop
bfc04104:	00000021 	move	zero,zero
bfc04108:	00000021 	move	zero,zero
bfc0410c:	00000021 	move	zero,zero
bfc04110:	00000021 	move	zero,zero
bfc04114:	00000021 	move	zero,zero
bfc04118:	00000021 	move	zero,zero
bfc0411c:	00000021 	move	zero,zero
bfc04120:	00000021 	move	zero,zero
bfc04124:	3c12fe45 	lui	s2,0xfe45
bfc04128:	365234f0 	ori	s2,s2,0x34f0
bfc0412c:	00000000 	nop
bfc04130:	3c1442d4 	lui	s4,0x42d4
bfc04134:	36943bf0 	ori	s4,s4,0x3bf0
bfc04138:	16142f2b 	bne	s0,s4,bfc0fde8 <inst_error>
bfc0413c:	00000000 	nop
bfc04140:	3c15fe45 	lui	s5,0xfe45
bfc04144:	36b534f0 	ori	s5,s5,0x34f0
bfc04148:	16552f27 	bne	s2,s5,bfc0fde8 <inst_error>
bfc0414c:	00000000 	nop
bfc04150:	3c0c6d73 	lui	t4,0x6d73
bfc04154:	358c34d0 	ori	t4,t4,0x34d0
bfc04158:	3c0daec2 	lui	t5,0xaec2
bfc0415c:	35ad4144 	ori	t5,t5,0x4144
bfc04160:	24100000 	li	s0,0
bfc04164:	24120000 	li	s2,0
bfc04168:	10000015 	b	bfc041c0 <main+0x41c0>
bfc0416c:	00000000 	nop
bfc04170:	3c106d73 	lui	s0,0x6d73
bfc04174:	361034d0 	ori	s0,s0,0x34d0
bfc04178:	15280021 	bne	t1,t0,bfc04200 <main+0x4200>
bfc0417c:	00000000 	nop
bfc04180:	10000021 	b	bfc04208 <main+0x4208>
bfc04184:	00000000 	nop
bfc04188:	00000021 	move	zero,zero
bfc0418c:	00000021 	move	zero,zero
bfc04190:	00000021 	move	zero,zero
bfc04194:	00000021 	move	zero,zero
bfc04198:	00000021 	move	zero,zero
bfc0419c:	00000021 	move	zero,zero
bfc041a0:	00000021 	move	zero,zero
bfc041a4:	00000021 	move	zero,zero
bfc041a8:	00000021 	move	zero,zero
bfc041ac:	00000021 	move	zero,zero
bfc041b0:	00000021 	move	zero,zero
bfc041b4:	00000021 	move	zero,zero
bfc041b8:	00000021 	move	zero,zero
bfc041bc:	00000021 	move	zero,zero
bfc041c0:	3c080cd5 	lui	t0,0xcd5
bfc041c4:	35086940 	ori	t0,t0,0x6940
bfc041c8:	3c091815 	lui	t1,0x1815
bfc041cc:	35295a16 	ori	t1,t1,0x5a16
bfc041d0:	1509ffe7 	bne	t0,t1,bfc04170 <main+0x4170>
bfc041d4:	00000000 	nop
bfc041d8:	1000000b 	b	bfc04208 <main+0x4208>
bfc041dc:	00000000 	nop
bfc041e0:	00000021 	move	zero,zero
bfc041e4:	00000021 	move	zero,zero
bfc041e8:	00000021 	move	zero,zero
bfc041ec:	00000021 	move	zero,zero
bfc041f0:	00000021 	move	zero,zero
bfc041f4:	00000021 	move	zero,zero
bfc041f8:	00000021 	move	zero,zero
bfc041fc:	00000021 	move	zero,zero
bfc04200:	3c12aec2 	lui	s2,0xaec2
bfc04204:	36524144 	ori	s2,s2,0x4144
bfc04208:	00000000 	nop
bfc0420c:	3c146d73 	lui	s4,0x6d73
bfc04210:	369434d0 	ori	s4,s4,0x34d0
bfc04214:	16142ef4 	bne	s0,s4,bfc0fde8 <inst_error>
bfc04218:	00000000 	nop
bfc0421c:	3c15aec2 	lui	s5,0xaec2
bfc04220:	36b54144 	ori	s5,s5,0x4144
bfc04224:	16552ef0 	bne	s2,s5,bfc0fde8 <inst_error>
bfc04228:	00000000 	nop
bfc0422c:	3c0c7372 	lui	t4,0x7372
bfc04230:	358c6a64 	ori	t4,t4,0x6a64
bfc04234:	3c0d890c 	lui	t5,0x890c
bfc04238:	35ad8224 	ori	t5,t5,0x8224
bfc0423c:	24100000 	li	s0,0
bfc04240:	24120000 	li	s2,0
bfc04244:	10000015 	b	bfc0429c <main+0x429c>
bfc04248:	00000000 	nop
bfc0424c:	3c107372 	lui	s0,0x7372
bfc04250:	36106a64 	ori	s0,s0,0x6a64
bfc04254:	15280021 	bne	t1,t0,bfc042dc <main+0x42dc>
bfc04258:	00000000 	nop
bfc0425c:	10000021 	b	bfc042e4 <main+0x42e4>
bfc04260:	00000000 	nop
bfc04264:	00000021 	move	zero,zero
bfc04268:	00000021 	move	zero,zero
bfc0426c:	00000021 	move	zero,zero
bfc04270:	00000021 	move	zero,zero
bfc04274:	00000021 	move	zero,zero
bfc04278:	00000021 	move	zero,zero
bfc0427c:	00000021 	move	zero,zero
bfc04280:	00000021 	move	zero,zero
bfc04284:	00000021 	move	zero,zero
bfc04288:	00000021 	move	zero,zero
bfc0428c:	00000021 	move	zero,zero
bfc04290:	00000021 	move	zero,zero
bfc04294:	00000021 	move	zero,zero
bfc04298:	00000021 	move	zero,zero
bfc0429c:	3c084b8c 	lui	t0,0x4b8c
bfc042a0:	350859f8 	ori	t0,t0,0x59f8
bfc042a4:	3c092e53 	lui	t1,0x2e53
bfc042a8:	35299b1c 	ori	t1,t1,0x9b1c
bfc042ac:	1509ffe7 	bne	t0,t1,bfc0424c <main+0x424c>
bfc042b0:	00000000 	nop
bfc042b4:	1000000b 	b	bfc042e4 <main+0x42e4>
bfc042b8:	00000000 	nop
bfc042bc:	00000021 	move	zero,zero
bfc042c0:	00000021 	move	zero,zero
bfc042c4:	00000021 	move	zero,zero
bfc042c8:	00000021 	move	zero,zero
bfc042cc:	00000021 	move	zero,zero
bfc042d0:	00000021 	move	zero,zero
bfc042d4:	00000021 	move	zero,zero
bfc042d8:	00000021 	move	zero,zero
bfc042dc:	3c12890c 	lui	s2,0x890c
bfc042e0:	36528224 	ori	s2,s2,0x8224
bfc042e4:	00000000 	nop
bfc042e8:	3c147372 	lui	s4,0x7372
bfc042ec:	36946a64 	ori	s4,s4,0x6a64
bfc042f0:	16142ebd 	bne	s0,s4,bfc0fde8 <inst_error>
bfc042f4:	00000000 	nop
bfc042f8:	3c15890c 	lui	s5,0x890c
bfc042fc:	36b58224 	ori	s5,s5,0x8224
bfc04300:	16552eb9 	bne	s2,s5,bfc0fde8 <inst_error>
bfc04304:	00000000 	nop
bfc04308:	3c0c14b0 	lui	t4,0x14b0
bfc0430c:	358c1cc5 	ori	t4,t4,0x1cc5
bfc04310:	3c0da920 	lui	t5,0xa920
bfc04314:	35ad3830 	ori	t5,t5,0x3830
bfc04318:	24100000 	li	s0,0
bfc0431c:	24120000 	li	s2,0
bfc04320:	10000015 	b	bfc04378 <main+0x4378>
bfc04324:	00000000 	nop
bfc04328:	3c1014b0 	lui	s0,0x14b0
bfc0432c:	36101cc5 	ori	s0,s0,0x1cc5
bfc04330:	15280021 	bne	t1,t0,bfc043b8 <main+0x43b8>
bfc04334:	00000000 	nop
bfc04338:	10000021 	b	bfc043c0 <main+0x43c0>
bfc0433c:	00000000 	nop
bfc04340:	00000021 	move	zero,zero
bfc04344:	00000021 	move	zero,zero
bfc04348:	00000021 	move	zero,zero
bfc0434c:	00000021 	move	zero,zero
bfc04350:	00000021 	move	zero,zero
bfc04354:	00000021 	move	zero,zero
bfc04358:	00000021 	move	zero,zero
bfc0435c:	00000021 	move	zero,zero
bfc04360:	00000021 	move	zero,zero
bfc04364:	00000021 	move	zero,zero
bfc04368:	00000021 	move	zero,zero
bfc0436c:	00000021 	move	zero,zero
bfc04370:	00000021 	move	zero,zero
bfc04374:	00000021 	move	zero,zero
bfc04378:	3c08fa6a 	lui	t0,0xfa6a
bfc0437c:	35085040 	ori	t0,t0,0x5040
bfc04380:	3c0991e5 	lui	t1,0x91e5
bfc04384:	35299182 	ori	t1,t1,0x9182
bfc04388:	1509ffe7 	bne	t0,t1,bfc04328 <main+0x4328>
bfc0438c:	00000000 	nop
bfc04390:	1000000b 	b	bfc043c0 <main+0x43c0>
bfc04394:	00000000 	nop
bfc04398:	00000021 	move	zero,zero
bfc0439c:	00000021 	move	zero,zero
bfc043a0:	00000021 	move	zero,zero
bfc043a4:	00000021 	move	zero,zero
bfc043a8:	00000021 	move	zero,zero
bfc043ac:	00000021 	move	zero,zero
bfc043b0:	00000021 	move	zero,zero
bfc043b4:	00000021 	move	zero,zero
bfc043b8:	3c12a920 	lui	s2,0xa920
bfc043bc:	36523830 	ori	s2,s2,0x3830
bfc043c0:	00000000 	nop
bfc043c4:	3c1414b0 	lui	s4,0x14b0
bfc043c8:	36941cc5 	ori	s4,s4,0x1cc5
bfc043cc:	16142e86 	bne	s0,s4,bfc0fde8 <inst_error>
bfc043d0:	00000000 	nop
bfc043d4:	3c15a920 	lui	s5,0xa920
bfc043d8:	36b53830 	ori	s5,s5,0x3830
bfc043dc:	16552e82 	bne	s2,s5,bfc0fde8 <inst_error>
bfc043e0:	00000000 	nop
bfc043e4:	3c0ce6a9 	lui	t4,0xe6a9
bfc043e8:	358c00fe 	ori	t4,t4,0xfe
bfc043ec:	3c0d6c59 	lui	t5,0x6c59
bfc043f0:	35adba20 	ori	t5,t5,0xba20
bfc043f4:	24100000 	li	s0,0
bfc043f8:	24120000 	li	s2,0
bfc043fc:	10000015 	b	bfc04454 <main+0x4454>
bfc04400:	00000000 	nop
bfc04404:	3c10e6a9 	lui	s0,0xe6a9
bfc04408:	361000fe 	ori	s0,s0,0xfe
bfc0440c:	15280021 	bne	t1,t0,bfc04494 <main+0x4494>
bfc04410:	00000000 	nop
bfc04414:	10000021 	b	bfc0449c <main+0x449c>
bfc04418:	00000000 	nop
bfc0441c:	00000021 	move	zero,zero
bfc04420:	00000021 	move	zero,zero
bfc04424:	00000021 	move	zero,zero
bfc04428:	00000021 	move	zero,zero
bfc0442c:	00000021 	move	zero,zero
bfc04430:	00000021 	move	zero,zero
bfc04434:	00000021 	move	zero,zero
bfc04438:	00000021 	move	zero,zero
bfc0443c:	00000021 	move	zero,zero
bfc04440:	00000021 	move	zero,zero
bfc04444:	00000021 	move	zero,zero
bfc04448:	00000021 	move	zero,zero
bfc0444c:	00000021 	move	zero,zero
bfc04450:	00000021 	move	zero,zero
bfc04454:	3c08a82c 	lui	t0,0xa82c
bfc04458:	35085100 	ori	t0,t0,0x5100
bfc0445c:	3c0992a8 	lui	t1,0x92a8
bfc04460:	35297240 	ori	t1,t1,0x7240
bfc04464:	1509ffe7 	bne	t0,t1,bfc04404 <main+0x4404>
bfc04468:	00000000 	nop
bfc0446c:	1000000b 	b	bfc0449c <main+0x449c>
bfc04470:	00000000 	nop
bfc04474:	00000021 	move	zero,zero
bfc04478:	00000021 	move	zero,zero
bfc0447c:	00000021 	move	zero,zero
bfc04480:	00000021 	move	zero,zero
bfc04484:	00000021 	move	zero,zero
bfc04488:	00000021 	move	zero,zero
bfc0448c:	00000021 	move	zero,zero
bfc04490:	00000021 	move	zero,zero
bfc04494:	3c126c59 	lui	s2,0x6c59
bfc04498:	3652ba20 	ori	s2,s2,0xba20
bfc0449c:	00000000 	nop
bfc044a0:	3c14e6a9 	lui	s4,0xe6a9
bfc044a4:	369400fe 	ori	s4,s4,0xfe
bfc044a8:	16142e4f 	bne	s0,s4,bfc0fde8 <inst_error>
bfc044ac:	00000000 	nop
bfc044b0:	3c156c59 	lui	s5,0x6c59
bfc044b4:	36b5ba20 	ori	s5,s5,0xba20
bfc044b8:	16552e4b 	bne	s2,s5,bfc0fde8 <inst_error>
bfc044bc:	00000000 	nop
bfc044c0:	3c0cdd23 	lui	t4,0xdd23
bfc044c4:	358ce526 	ori	t4,t4,0xe526
bfc044c8:	3c0d91c2 	lui	t5,0x91c2
bfc044cc:	35ad6bd0 	ori	t5,t5,0x6bd0
bfc044d0:	24100000 	li	s0,0
bfc044d4:	24120000 	li	s2,0
bfc044d8:	10000015 	b	bfc04530 <main+0x4530>
bfc044dc:	00000000 	nop
bfc044e0:	3c10dd23 	lui	s0,0xdd23
bfc044e4:	3610e526 	ori	s0,s0,0xe526
bfc044e8:	15280021 	bne	t1,t0,bfc04570 <main+0x4570>
bfc044ec:	00000000 	nop
bfc044f0:	10000021 	b	bfc04578 <main+0x4578>
bfc044f4:	00000000 	nop
bfc044f8:	00000021 	move	zero,zero
bfc044fc:	00000021 	move	zero,zero
bfc04500:	00000021 	move	zero,zero
bfc04504:	00000021 	move	zero,zero
bfc04508:	00000021 	move	zero,zero
bfc0450c:	00000021 	move	zero,zero
bfc04510:	00000021 	move	zero,zero
bfc04514:	00000021 	move	zero,zero
bfc04518:	00000021 	move	zero,zero
bfc0451c:	00000021 	move	zero,zero
bfc04520:	00000021 	move	zero,zero
bfc04524:	00000021 	move	zero,zero
bfc04528:	00000021 	move	zero,zero
bfc0452c:	00000021 	move	zero,zero
bfc04530:	3c080b0c 	lui	t0,0xb0c
bfc04534:	350881e4 	ori	t0,t0,0x81e4
bfc04538:	3c09ab18 	lui	t1,0xab18
bfc0453c:	35294898 	ori	t1,t1,0x4898
bfc04540:	1509ffe7 	bne	t0,t1,bfc044e0 <main+0x44e0>
bfc04544:	00000000 	nop
bfc04548:	1000000b 	b	bfc04578 <main+0x4578>
bfc0454c:	00000000 	nop
bfc04550:	00000021 	move	zero,zero
bfc04554:	00000021 	move	zero,zero
bfc04558:	00000021 	move	zero,zero
bfc0455c:	00000021 	move	zero,zero
bfc04560:	00000021 	move	zero,zero
bfc04564:	00000021 	move	zero,zero
bfc04568:	00000021 	move	zero,zero
bfc0456c:	00000021 	move	zero,zero
bfc04570:	3c1291c2 	lui	s2,0x91c2
bfc04574:	36526bd0 	ori	s2,s2,0x6bd0
bfc04578:	00000000 	nop
bfc0457c:	3c14dd23 	lui	s4,0xdd23
bfc04580:	3694e526 	ori	s4,s4,0xe526
bfc04584:	16142e18 	bne	s0,s4,bfc0fde8 <inst_error>
bfc04588:	00000000 	nop
bfc0458c:	3c1591c2 	lui	s5,0x91c2
bfc04590:	36b56bd0 	ori	s5,s5,0x6bd0
bfc04594:	16552e14 	bne	s2,s5,bfc0fde8 <inst_error>
bfc04598:	00000000 	nop
bfc0459c:	3c0cdac7 	lui	t4,0xdac7
bfc045a0:	358c2590 	ori	t4,t4,0x2590
bfc045a4:	3c0da2c6 	lui	t5,0xa2c6
bfc045a8:	35ada1a4 	ori	t5,t5,0xa1a4
bfc045ac:	24100000 	li	s0,0
bfc045b0:	24120000 	li	s2,0
bfc045b4:	10000015 	b	bfc0460c <main+0x460c>
bfc045b8:	00000000 	nop
bfc045bc:	3c10dac7 	lui	s0,0xdac7
bfc045c0:	36102590 	ori	s0,s0,0x2590
bfc045c4:	15280021 	bne	t1,t0,bfc0464c <main+0x464c>
bfc045c8:	00000000 	nop
bfc045cc:	10000021 	b	bfc04654 <main+0x4654>
bfc045d0:	00000000 	nop
bfc045d4:	00000021 	move	zero,zero
bfc045d8:	00000021 	move	zero,zero
bfc045dc:	00000021 	move	zero,zero
bfc045e0:	00000021 	move	zero,zero
bfc045e4:	00000021 	move	zero,zero
bfc045e8:	00000021 	move	zero,zero
bfc045ec:	00000021 	move	zero,zero
bfc045f0:	00000021 	move	zero,zero
bfc045f4:	00000021 	move	zero,zero
bfc045f8:	00000021 	move	zero,zero
bfc045fc:	00000021 	move	zero,zero
bfc04600:	00000021 	move	zero,zero
bfc04604:	00000021 	move	zero,zero
bfc04608:	00000021 	move	zero,zero
bfc0460c:	3c0897d5 	lui	t0,0x97d5
bfc04610:	35081023 	ori	t0,t0,0x1023
bfc04614:	3c092023 	lui	t1,0x2023
bfc04618:	35297fe8 	ori	t1,t1,0x7fe8
bfc0461c:	1509ffe7 	bne	t0,t1,bfc045bc <main+0x45bc>
bfc04620:	00000000 	nop
bfc04624:	1000000b 	b	bfc04654 <main+0x4654>
bfc04628:	00000000 	nop
bfc0462c:	00000021 	move	zero,zero
bfc04630:	00000021 	move	zero,zero
bfc04634:	00000021 	move	zero,zero
bfc04638:	00000021 	move	zero,zero
bfc0463c:	00000021 	move	zero,zero
bfc04640:	00000021 	move	zero,zero
bfc04644:	00000021 	move	zero,zero
bfc04648:	00000021 	move	zero,zero
bfc0464c:	3c12a2c6 	lui	s2,0xa2c6
bfc04650:	3652a1a4 	ori	s2,s2,0xa1a4
bfc04654:	00000000 	nop
bfc04658:	3c14dac7 	lui	s4,0xdac7
bfc0465c:	36942590 	ori	s4,s4,0x2590
bfc04660:	16142de1 	bne	s0,s4,bfc0fde8 <inst_error>
bfc04664:	00000000 	nop
bfc04668:	3c15a2c6 	lui	s5,0xa2c6
bfc0466c:	36b5a1a4 	ori	s5,s5,0xa1a4
bfc04670:	16552ddd 	bne	s2,s5,bfc0fde8 <inst_error>
bfc04674:	00000000 	nop
bfc04678:	3c0c8e49 	lui	t4,0x8e49
bfc0467c:	358c9699 	ori	t4,t4,0x9699
bfc04680:	3c0de236 	lui	t5,0xe236
bfc04684:	35ade148 	ori	t5,t5,0xe148
bfc04688:	24100000 	li	s0,0
bfc0468c:	24120000 	li	s2,0
bfc04690:	10000015 	b	bfc046e8 <main+0x46e8>
bfc04694:	00000000 	nop
bfc04698:	3c108e49 	lui	s0,0x8e49
bfc0469c:	36109699 	ori	s0,s0,0x9699
bfc046a0:	15280021 	bne	t1,t0,bfc04728 <main+0x4728>
bfc046a4:	00000000 	nop
bfc046a8:	10000021 	b	bfc04730 <main+0x4730>
bfc046ac:	00000000 	nop
bfc046b0:	00000021 	move	zero,zero
bfc046b4:	00000021 	move	zero,zero
bfc046b8:	00000021 	move	zero,zero
bfc046bc:	00000021 	move	zero,zero
bfc046c0:	00000021 	move	zero,zero
bfc046c4:	00000021 	move	zero,zero
bfc046c8:	00000021 	move	zero,zero
bfc046cc:	00000021 	move	zero,zero
bfc046d0:	00000021 	move	zero,zero
bfc046d4:	00000021 	move	zero,zero
bfc046d8:	00000021 	move	zero,zero
bfc046dc:	00000021 	move	zero,zero
bfc046e0:	00000021 	move	zero,zero
bfc046e4:	00000021 	move	zero,zero
bfc046e8:	3c0896db 	lui	t0,0x96db
bfc046ec:	350890b0 	ori	t0,t0,0x90b0
bfc046f0:	3c091d1d 	lui	t1,0x1d1d
bfc046f4:	3529f7e0 	ori	t1,t1,0xf7e0
bfc046f8:	1509ffe7 	bne	t0,t1,bfc04698 <main+0x4698>
bfc046fc:	00000000 	nop
bfc04700:	1000000b 	b	bfc04730 <main+0x4730>
bfc04704:	00000000 	nop
bfc04708:	00000021 	move	zero,zero
bfc0470c:	00000021 	move	zero,zero
bfc04710:	00000021 	move	zero,zero
bfc04714:	00000021 	move	zero,zero
bfc04718:	00000021 	move	zero,zero
bfc0471c:	00000021 	move	zero,zero
bfc04720:	00000021 	move	zero,zero
bfc04724:	00000021 	move	zero,zero
bfc04728:	3c12e236 	lui	s2,0xe236
bfc0472c:	3652e148 	ori	s2,s2,0xe148
bfc04730:	00000000 	nop
bfc04734:	3c148e49 	lui	s4,0x8e49
bfc04738:	36949699 	ori	s4,s4,0x9699
bfc0473c:	16142daa 	bne	s0,s4,bfc0fde8 <inst_error>
bfc04740:	00000000 	nop
bfc04744:	3c15e236 	lui	s5,0xe236
bfc04748:	36b5e148 	ori	s5,s5,0xe148
bfc0474c:	16552da6 	bne	s2,s5,bfc0fde8 <inst_error>
bfc04750:	00000000 	nop
bfc04754:	3c0c887f 	lui	t4,0x887f
bfc04758:	358c0b60 	ori	t4,t4,0xb60
bfc0475c:	3c0df6fd 	lui	t5,0xf6fd
bfc04760:	35ad4de8 	ori	t5,t5,0x4de8
bfc04764:	24100000 	li	s0,0
bfc04768:	24120000 	li	s2,0
bfc0476c:	10000015 	b	bfc047c4 <main+0x47c4>
bfc04770:	00000000 	nop
bfc04774:	3c10887f 	lui	s0,0x887f
bfc04778:	36100b60 	ori	s0,s0,0xb60
bfc0477c:	15280021 	bne	t1,t0,bfc04804 <main+0x4804>
bfc04780:	00000000 	nop
bfc04784:	10000021 	b	bfc0480c <main+0x480c>
bfc04788:	00000000 	nop
bfc0478c:	00000021 	move	zero,zero
bfc04790:	00000021 	move	zero,zero
bfc04794:	00000021 	move	zero,zero
bfc04798:	00000021 	move	zero,zero
bfc0479c:	00000021 	move	zero,zero
bfc047a0:	00000021 	move	zero,zero
bfc047a4:	00000021 	move	zero,zero
bfc047a8:	00000021 	move	zero,zero
bfc047ac:	00000021 	move	zero,zero
bfc047b0:	00000021 	move	zero,zero
bfc047b4:	00000021 	move	zero,zero
bfc047b8:	00000021 	move	zero,zero
bfc047bc:	00000021 	move	zero,zero
bfc047c0:	00000021 	move	zero,zero
bfc047c4:	3c085a54 	lui	t0,0x5a54
bfc047c8:	3508c45a 	ori	t0,t0,0xc45a
bfc047cc:	3c099ba2 	lui	t1,0x9ba2
bfc047d0:	3529015c 	ori	t1,t1,0x15c
bfc047d4:	1509ffe7 	bne	t0,t1,bfc04774 <main+0x4774>
bfc047d8:	00000000 	nop
bfc047dc:	1000000b 	b	bfc0480c <main+0x480c>
bfc047e0:	00000000 	nop
bfc047e4:	00000021 	move	zero,zero
bfc047e8:	00000021 	move	zero,zero
bfc047ec:	00000021 	move	zero,zero
bfc047f0:	00000021 	move	zero,zero
bfc047f4:	00000021 	move	zero,zero
bfc047f8:	00000021 	move	zero,zero
bfc047fc:	00000021 	move	zero,zero
bfc04800:	00000021 	move	zero,zero
bfc04804:	3c12f6fd 	lui	s2,0xf6fd
bfc04808:	36524de8 	ori	s2,s2,0x4de8
bfc0480c:	00000000 	nop
bfc04810:	3c14887f 	lui	s4,0x887f
bfc04814:	36940b60 	ori	s4,s4,0xb60
bfc04818:	16142d73 	bne	s0,s4,bfc0fde8 <inst_error>
bfc0481c:	00000000 	nop
bfc04820:	3c15f6fd 	lui	s5,0xf6fd
bfc04824:	36b54de8 	ori	s5,s5,0x4de8
bfc04828:	16552d6f 	bne	s2,s5,bfc0fde8 <inst_error>
bfc0482c:	00000000 	nop
bfc04830:	3c0ce353 	lui	t4,0xe353
bfc04834:	358c0574 	ori	t4,t4,0x574
bfc04838:	3c0d6556 	lui	t5,0x6556
bfc0483c:	35ada3c0 	ori	t5,t5,0xa3c0
bfc04840:	24100000 	li	s0,0
bfc04844:	24120000 	li	s2,0
bfc04848:	10000015 	b	bfc048a0 <main+0x48a0>
bfc0484c:	00000000 	nop
bfc04850:	3c10e353 	lui	s0,0xe353
bfc04854:	36100574 	ori	s0,s0,0x574
bfc04858:	15280021 	bne	t1,t0,bfc048e0 <main+0x48e0>
bfc0485c:	00000000 	nop
bfc04860:	10000021 	b	bfc048e8 <main+0x48e8>
bfc04864:	00000000 	nop
bfc04868:	00000021 	move	zero,zero
bfc0486c:	00000021 	move	zero,zero
bfc04870:	00000021 	move	zero,zero
bfc04874:	00000021 	move	zero,zero
bfc04878:	00000021 	move	zero,zero
bfc0487c:	00000021 	move	zero,zero
bfc04880:	00000021 	move	zero,zero
bfc04884:	00000021 	move	zero,zero
bfc04888:	00000021 	move	zero,zero
bfc0488c:	00000021 	move	zero,zero
bfc04890:	00000021 	move	zero,zero
bfc04894:	00000021 	move	zero,zero
bfc04898:	00000021 	move	zero,zero
bfc0489c:	00000021 	move	zero,zero
bfc048a0:	3c08264d 	lui	t0,0x264d
bfc048a4:	3508e37a 	ori	t0,t0,0xe37a
bfc048a8:	3c099fa3 	lui	t1,0x9fa3
bfc048ac:	352989ab 	ori	t1,t1,0x89ab
bfc048b0:	1509ffe7 	bne	t0,t1,bfc04850 <main+0x4850>
bfc048b4:	00000000 	nop
bfc048b8:	1000000b 	b	bfc048e8 <main+0x48e8>
bfc048bc:	00000000 	nop
bfc048c0:	00000021 	move	zero,zero
bfc048c4:	00000021 	move	zero,zero
bfc048c8:	00000021 	move	zero,zero
bfc048cc:	00000021 	move	zero,zero
bfc048d0:	00000021 	move	zero,zero
bfc048d4:	00000021 	move	zero,zero
bfc048d8:	00000021 	move	zero,zero
bfc048dc:	00000021 	move	zero,zero
bfc048e0:	3c126556 	lui	s2,0x6556
bfc048e4:	3652a3c0 	ori	s2,s2,0xa3c0
bfc048e8:	00000000 	nop
bfc048ec:	3c14e353 	lui	s4,0xe353
bfc048f0:	36940574 	ori	s4,s4,0x574
bfc048f4:	16142d3c 	bne	s0,s4,bfc0fde8 <inst_error>
bfc048f8:	00000000 	nop
bfc048fc:	3c156556 	lui	s5,0x6556
bfc04900:	36b5a3c0 	ori	s5,s5,0xa3c0
bfc04904:	16552d38 	bne	s2,s5,bfc0fde8 <inst_error>
bfc04908:	00000000 	nop
bfc0490c:	3c0c9509 	lui	t4,0x9509
bfc04910:	358c2f84 	ori	t4,t4,0x2f84
bfc04914:	3c0dccc1 	lui	t5,0xccc1
bfc04918:	35adcfd0 	ori	t5,t5,0xcfd0
bfc0491c:	24100000 	li	s0,0
bfc04920:	24120000 	li	s2,0
bfc04924:	10000015 	b	bfc0497c <main+0x497c>
bfc04928:	00000000 	nop
bfc0492c:	3c109509 	lui	s0,0x9509
bfc04930:	36102f84 	ori	s0,s0,0x2f84
bfc04934:	15280021 	bne	t1,t0,bfc049bc <main+0x49bc>
bfc04938:	00000000 	nop
bfc0493c:	10000021 	b	bfc049c4 <main+0x49c4>
bfc04940:	00000000 	nop
bfc04944:	00000021 	move	zero,zero
bfc04948:	00000021 	move	zero,zero
bfc0494c:	00000021 	move	zero,zero
bfc04950:	00000021 	move	zero,zero
bfc04954:	00000021 	move	zero,zero
bfc04958:	00000021 	move	zero,zero
bfc0495c:	00000021 	move	zero,zero
bfc04960:	00000021 	move	zero,zero
bfc04964:	00000021 	move	zero,zero
bfc04968:	00000021 	move	zero,zero
bfc0496c:	00000021 	move	zero,zero
bfc04970:	00000021 	move	zero,zero
bfc04974:	00000021 	move	zero,zero
bfc04978:	00000021 	move	zero,zero
bfc0497c:	3c0854b4 	lui	t0,0x54b4
bfc04980:	35085b56 	ori	t0,t0,0x5b56
bfc04984:	3c09f8a4 	lui	t1,0xf8a4
bfc04988:	3529a4c0 	ori	t1,t1,0xa4c0
bfc0498c:	1509ffe7 	bne	t0,t1,bfc0492c <main+0x492c>
bfc04990:	00000000 	nop
bfc04994:	1000000b 	b	bfc049c4 <main+0x49c4>
bfc04998:	00000000 	nop
bfc0499c:	00000021 	move	zero,zero
bfc049a0:	00000021 	move	zero,zero
bfc049a4:	00000021 	move	zero,zero
bfc049a8:	00000021 	move	zero,zero
bfc049ac:	00000021 	move	zero,zero
bfc049b0:	00000021 	move	zero,zero
bfc049b4:	00000021 	move	zero,zero
bfc049b8:	00000021 	move	zero,zero
bfc049bc:	3c12ccc1 	lui	s2,0xccc1
bfc049c0:	3652cfd0 	ori	s2,s2,0xcfd0
bfc049c4:	00000000 	nop
bfc049c8:	3c149509 	lui	s4,0x9509
bfc049cc:	36942f84 	ori	s4,s4,0x2f84
bfc049d0:	16142d05 	bne	s0,s4,bfc0fde8 <inst_error>
bfc049d4:	00000000 	nop
bfc049d8:	3c15ccc1 	lui	s5,0xccc1
bfc049dc:	36b5cfd0 	ori	s5,s5,0xcfd0
bfc049e0:	16552d01 	bne	s2,s5,bfc0fde8 <inst_error>
bfc049e4:	00000000 	nop
bfc049e8:	3c0c10d5 	lui	t4,0x10d5
bfc049ec:	358cf260 	ori	t4,t4,0xf260
bfc049f0:	3c0d298e 	lui	t5,0x298e
bfc049f4:	35adcdf0 	ori	t5,t5,0xcdf0
bfc049f8:	24100000 	li	s0,0
bfc049fc:	24120000 	li	s2,0
bfc04a00:	10000015 	b	bfc04a58 <main+0x4a58>
bfc04a04:	00000000 	nop
bfc04a08:	3c1010d5 	lui	s0,0x10d5
bfc04a0c:	3610f260 	ori	s0,s0,0xf260
bfc04a10:	15280021 	bne	t1,t0,bfc04a98 <main+0x4a98>
bfc04a14:	00000000 	nop
bfc04a18:	10000021 	b	bfc04aa0 <main+0x4aa0>
bfc04a1c:	00000000 	nop
bfc04a20:	00000021 	move	zero,zero
bfc04a24:	00000021 	move	zero,zero
bfc04a28:	00000021 	move	zero,zero
bfc04a2c:	00000021 	move	zero,zero
bfc04a30:	00000021 	move	zero,zero
bfc04a34:	00000021 	move	zero,zero
bfc04a38:	00000021 	move	zero,zero
bfc04a3c:	00000021 	move	zero,zero
bfc04a40:	00000021 	move	zero,zero
bfc04a44:	00000021 	move	zero,zero
bfc04a48:	00000021 	move	zero,zero
bfc04a4c:	00000021 	move	zero,zero
bfc04a50:	00000021 	move	zero,zero
bfc04a54:	00000021 	move	zero,zero
bfc04a58:	3c0870e6 	lui	t0,0x70e6
bfc04a5c:	3508db20 	ori	t0,t0,0xdb20
bfc04a60:	3c09df40 	lui	t1,0xdf40
bfc04a64:	35294a88 	ori	t1,t1,0x4a88
bfc04a68:	1509ffe7 	bne	t0,t1,bfc04a08 <main+0x4a08>
bfc04a6c:	00000000 	nop
bfc04a70:	1000000b 	b	bfc04aa0 <main+0x4aa0>
bfc04a74:	00000000 	nop
bfc04a78:	00000021 	move	zero,zero
bfc04a7c:	00000021 	move	zero,zero
bfc04a80:	00000021 	move	zero,zero
bfc04a84:	00000021 	move	zero,zero
bfc04a88:	00000021 	move	zero,zero
bfc04a8c:	00000021 	move	zero,zero
bfc04a90:	00000021 	move	zero,zero
bfc04a94:	00000021 	move	zero,zero
bfc04a98:	3c12298e 	lui	s2,0x298e
bfc04a9c:	3652cdf0 	ori	s2,s2,0xcdf0
bfc04aa0:	00000000 	nop
bfc04aa4:	3c1410d5 	lui	s4,0x10d5
bfc04aa8:	3694f260 	ori	s4,s4,0xf260
bfc04aac:	16142cce 	bne	s0,s4,bfc0fde8 <inst_error>
bfc04ab0:	00000000 	nop
bfc04ab4:	3c15298e 	lui	s5,0x298e
bfc04ab8:	36b5cdf0 	ori	s5,s5,0xcdf0
bfc04abc:	16552cca 	bne	s2,s5,bfc0fde8 <inst_error>
bfc04ac0:	00000000 	nop
bfc04ac4:	3c0cf5dc 	lui	t4,0xf5dc
bfc04ac8:	358c6940 	ori	t4,t4,0x6940
bfc04acc:	3c0dbe6b 	lui	t5,0xbe6b
bfc04ad0:	35adfb60 	ori	t5,t5,0xfb60
bfc04ad4:	24100000 	li	s0,0
bfc04ad8:	24120000 	li	s2,0
bfc04adc:	10000015 	b	bfc04b34 <main+0x4b34>
bfc04ae0:	00000000 	nop
bfc04ae4:	3c10f5dc 	lui	s0,0xf5dc
bfc04ae8:	36106940 	ori	s0,s0,0x6940
bfc04aec:	15280021 	bne	t1,t0,bfc04b74 <main+0x4b74>
bfc04af0:	00000000 	nop
bfc04af4:	10000021 	b	bfc04b7c <main+0x4b7c>
bfc04af8:	00000000 	nop
bfc04afc:	00000021 	move	zero,zero
bfc04b00:	00000021 	move	zero,zero
bfc04b04:	00000021 	move	zero,zero
bfc04b08:	00000021 	move	zero,zero
bfc04b0c:	00000021 	move	zero,zero
bfc04b10:	00000021 	move	zero,zero
bfc04b14:	00000021 	move	zero,zero
bfc04b18:	00000021 	move	zero,zero
bfc04b1c:	00000021 	move	zero,zero
bfc04b20:	00000021 	move	zero,zero
bfc04b24:	00000021 	move	zero,zero
bfc04b28:	00000021 	move	zero,zero
bfc04b2c:	00000021 	move	zero,zero
bfc04b30:	00000021 	move	zero,zero
bfc04b34:	3c082e27 	lui	t0,0x2e27
bfc04b38:	35089cac 	ori	t0,t0,0x9cac
bfc04b3c:	3c094978 	lui	t1,0x4978
bfc04b40:	3529e47a 	ori	t1,t1,0xe47a
bfc04b44:	1509ffe7 	bne	t0,t1,bfc04ae4 <main+0x4ae4>
bfc04b48:	00000000 	nop
bfc04b4c:	1000000b 	b	bfc04b7c <main+0x4b7c>
bfc04b50:	00000000 	nop
bfc04b54:	00000021 	move	zero,zero
bfc04b58:	00000021 	move	zero,zero
bfc04b5c:	00000021 	move	zero,zero
bfc04b60:	00000021 	move	zero,zero
bfc04b64:	00000021 	move	zero,zero
bfc04b68:	00000021 	move	zero,zero
bfc04b6c:	00000021 	move	zero,zero
bfc04b70:	00000021 	move	zero,zero
bfc04b74:	3c12be6b 	lui	s2,0xbe6b
bfc04b78:	3652fb60 	ori	s2,s2,0xfb60
bfc04b7c:	00000000 	nop
bfc04b80:	3c14f5dc 	lui	s4,0xf5dc
bfc04b84:	36946940 	ori	s4,s4,0x6940
bfc04b88:	16142c97 	bne	s0,s4,bfc0fde8 <inst_error>
bfc04b8c:	00000000 	nop
bfc04b90:	3c15be6b 	lui	s5,0xbe6b
bfc04b94:	36b5fb60 	ori	s5,s5,0xfb60
bfc04b98:	16552c93 	bne	s2,s5,bfc0fde8 <inst_error>
bfc04b9c:	00000000 	nop
bfc04ba0:	3c0ceb11 	lui	t4,0xeb11
bfc04ba4:	358cab90 	ori	t4,t4,0xab90
bfc04ba8:	3c0deba0 	lui	t5,0xeba0
bfc04bac:	35ad5310 	ori	t5,t5,0x5310
bfc04bb0:	24100000 	li	s0,0
bfc04bb4:	24120000 	li	s2,0
bfc04bb8:	10000015 	b	bfc04c10 <main+0x4c10>
bfc04bbc:	00000000 	nop
bfc04bc0:	3c10eb11 	lui	s0,0xeb11
bfc04bc4:	3610ab90 	ori	s0,s0,0xab90
bfc04bc8:	15280021 	bne	t1,t0,bfc04c50 <main+0x4c50>
bfc04bcc:	00000000 	nop
bfc04bd0:	10000021 	b	bfc04c58 <main+0x4c58>
bfc04bd4:	00000000 	nop
bfc04bd8:	00000021 	move	zero,zero
bfc04bdc:	00000021 	move	zero,zero
bfc04be0:	00000021 	move	zero,zero
bfc04be4:	00000021 	move	zero,zero
bfc04be8:	00000021 	move	zero,zero
bfc04bec:	00000021 	move	zero,zero
bfc04bf0:	00000021 	move	zero,zero
bfc04bf4:	00000021 	move	zero,zero
bfc04bf8:	00000021 	move	zero,zero
bfc04bfc:	00000021 	move	zero,zero
bfc04c00:	00000021 	move	zero,zero
bfc04c04:	00000021 	move	zero,zero
bfc04c08:	00000021 	move	zero,zero
bfc04c0c:	00000021 	move	zero,zero
bfc04c10:	3c0889fd 	lui	t0,0x89fd
bfc04c14:	35086e58 	ori	t0,t0,0x6e58
bfc04c18:	3c09f88d 	lui	t1,0xf88d
bfc04c1c:	3529daf9 	ori	t1,t1,0xdaf9
bfc04c20:	1509ffe7 	bne	t0,t1,bfc04bc0 <main+0x4bc0>
bfc04c24:	00000000 	nop
bfc04c28:	1000000b 	b	bfc04c58 <main+0x4c58>
bfc04c2c:	00000000 	nop
bfc04c30:	00000021 	move	zero,zero
bfc04c34:	00000021 	move	zero,zero
bfc04c38:	00000021 	move	zero,zero
bfc04c3c:	00000021 	move	zero,zero
bfc04c40:	00000021 	move	zero,zero
bfc04c44:	00000021 	move	zero,zero
bfc04c48:	00000021 	move	zero,zero
bfc04c4c:	00000021 	move	zero,zero
bfc04c50:	3c12eba0 	lui	s2,0xeba0
bfc04c54:	36525310 	ori	s2,s2,0x5310
bfc04c58:	00000000 	nop
bfc04c5c:	3c14eb11 	lui	s4,0xeb11
bfc04c60:	3694ab90 	ori	s4,s4,0xab90
bfc04c64:	16142c60 	bne	s0,s4,bfc0fde8 <inst_error>
bfc04c68:	00000000 	nop
bfc04c6c:	3c15eba0 	lui	s5,0xeba0
bfc04c70:	36b55310 	ori	s5,s5,0x5310
bfc04c74:	16552c5c 	bne	s2,s5,bfc0fde8 <inst_error>
bfc04c78:	00000000 	nop
bfc04c7c:	3c0c41ae 	lui	t4,0x41ae
bfc04c80:	358c3dc0 	ori	t4,t4,0x3dc0
bfc04c84:	3c0d4fe5 	lui	t5,0x4fe5
bfc04c88:	35ad9830 	ori	t5,t5,0x9830
bfc04c8c:	24100000 	li	s0,0
bfc04c90:	24120000 	li	s2,0
bfc04c94:	10000015 	b	bfc04cec <main+0x4cec>
bfc04c98:	00000000 	nop
bfc04c9c:	3c1041ae 	lui	s0,0x41ae
bfc04ca0:	36103dc0 	ori	s0,s0,0x3dc0
bfc04ca4:	15280021 	bne	t1,t0,bfc04d2c <main+0x4d2c>
bfc04ca8:	00000000 	nop
bfc04cac:	10000021 	b	bfc04d34 <main+0x4d34>
bfc04cb0:	00000000 	nop
bfc04cb4:	00000021 	move	zero,zero
bfc04cb8:	00000021 	move	zero,zero
bfc04cbc:	00000021 	move	zero,zero
bfc04cc0:	00000021 	move	zero,zero
bfc04cc4:	00000021 	move	zero,zero
bfc04cc8:	00000021 	move	zero,zero
bfc04ccc:	00000021 	move	zero,zero
bfc04cd0:	00000021 	move	zero,zero
bfc04cd4:	00000021 	move	zero,zero
bfc04cd8:	00000021 	move	zero,zero
bfc04cdc:	00000021 	move	zero,zero
bfc04ce0:	00000021 	move	zero,zero
bfc04ce4:	00000021 	move	zero,zero
bfc04ce8:	00000021 	move	zero,zero
bfc04cec:	3c085ea7 	lui	t0,0x5ea7
bfc04cf0:	35084080 	ori	t0,t0,0x4080
bfc04cf4:	3c09ef2b 	lui	t1,0xef2b
bfc04cf8:	35296a40 	ori	t1,t1,0x6a40
bfc04cfc:	1509ffe7 	bne	t0,t1,bfc04c9c <main+0x4c9c>
bfc04d00:	00000000 	nop
bfc04d04:	1000000b 	b	bfc04d34 <main+0x4d34>
bfc04d08:	00000000 	nop
bfc04d0c:	00000021 	move	zero,zero
bfc04d10:	00000021 	move	zero,zero
bfc04d14:	00000021 	move	zero,zero
bfc04d18:	00000021 	move	zero,zero
bfc04d1c:	00000021 	move	zero,zero
bfc04d20:	00000021 	move	zero,zero
bfc04d24:	00000021 	move	zero,zero
bfc04d28:	00000021 	move	zero,zero
bfc04d2c:	3c124fe5 	lui	s2,0x4fe5
bfc04d30:	36529830 	ori	s2,s2,0x9830
bfc04d34:	00000000 	nop
bfc04d38:	3c1441ae 	lui	s4,0x41ae
bfc04d3c:	36943dc0 	ori	s4,s4,0x3dc0
bfc04d40:	16142c29 	bne	s0,s4,bfc0fde8 <inst_error>
bfc04d44:	00000000 	nop
bfc04d48:	3c154fe5 	lui	s5,0x4fe5
bfc04d4c:	36b59830 	ori	s5,s5,0x9830
bfc04d50:	16552c25 	bne	s2,s5,bfc0fde8 <inst_error>
bfc04d54:	00000000 	nop
bfc04d58:	3c0c6909 	lui	t4,0x6909
bfc04d5c:	358c0b48 	ori	t4,t4,0xb48
bfc04d60:	3c0dd8ad 	lui	t5,0xd8ad
bfc04d64:	35ade460 	ori	t5,t5,0xe460
bfc04d68:	24100000 	li	s0,0
bfc04d6c:	24120000 	li	s2,0
bfc04d70:	10000015 	b	bfc04dc8 <main+0x4dc8>
bfc04d74:	00000000 	nop
bfc04d78:	3c106909 	lui	s0,0x6909
bfc04d7c:	36100b48 	ori	s0,s0,0xb48
bfc04d80:	15280021 	bne	t1,t0,bfc04e08 <main+0x4e08>
bfc04d84:	00000000 	nop
bfc04d88:	10000021 	b	bfc04e10 <main+0x4e10>
bfc04d8c:	00000000 	nop
bfc04d90:	00000021 	move	zero,zero
bfc04d94:	00000021 	move	zero,zero
bfc04d98:	00000021 	move	zero,zero
bfc04d9c:	00000021 	move	zero,zero
bfc04da0:	00000021 	move	zero,zero
bfc04da4:	00000021 	move	zero,zero
bfc04da8:	00000021 	move	zero,zero
bfc04dac:	00000021 	move	zero,zero
bfc04db0:	00000021 	move	zero,zero
bfc04db4:	00000021 	move	zero,zero
bfc04db8:	00000021 	move	zero,zero
bfc04dbc:	00000021 	move	zero,zero
bfc04dc0:	00000021 	move	zero,zero
bfc04dc4:	00000021 	move	zero,zero
bfc04dc8:	3c0886d8 	lui	t0,0x86d8
bfc04dcc:	35087cd1 	ori	t0,t0,0x7cd1
bfc04dd0:	3c09aed3 	lui	t1,0xaed3
bfc04dd4:	3529caec 	ori	t1,t1,0xcaec
bfc04dd8:	1509ffe7 	bne	t0,t1,bfc04d78 <main+0x4d78>
bfc04ddc:	00000000 	nop
bfc04de0:	1000000b 	b	bfc04e10 <main+0x4e10>
bfc04de4:	00000000 	nop
bfc04de8:	00000021 	move	zero,zero
bfc04dec:	00000021 	move	zero,zero
bfc04df0:	00000021 	move	zero,zero
bfc04df4:	00000021 	move	zero,zero
bfc04df8:	00000021 	move	zero,zero
bfc04dfc:	00000021 	move	zero,zero
bfc04e00:	00000021 	move	zero,zero
bfc04e04:	00000021 	move	zero,zero
bfc04e08:	3c12d8ad 	lui	s2,0xd8ad
bfc04e0c:	3652e460 	ori	s2,s2,0xe460
bfc04e10:	00000000 	nop
bfc04e14:	3c146909 	lui	s4,0x6909
bfc04e18:	36940b48 	ori	s4,s4,0xb48
bfc04e1c:	16142bf2 	bne	s0,s4,bfc0fde8 <inst_error>
bfc04e20:	00000000 	nop
bfc04e24:	3c15d8ad 	lui	s5,0xd8ad
bfc04e28:	36b5e460 	ori	s5,s5,0xe460
bfc04e2c:	16552bee 	bne	s2,s5,bfc0fde8 <inst_error>
bfc04e30:	00000000 	nop
bfc04e34:	3c0c1f19 	lui	t4,0x1f19
bfc04e38:	358cc3e0 	ori	t4,t4,0xc3e0
bfc04e3c:	3c0d22b4 	lui	t5,0x22b4
bfc04e40:	35ad0ba8 	ori	t5,t5,0xba8
bfc04e44:	24100000 	li	s0,0
bfc04e48:	24120000 	li	s2,0
bfc04e4c:	10000015 	b	bfc04ea4 <main+0x4ea4>
bfc04e50:	00000000 	nop
bfc04e54:	3c101f19 	lui	s0,0x1f19
bfc04e58:	3610c3e0 	ori	s0,s0,0xc3e0
bfc04e5c:	15280021 	bne	t1,t0,bfc04ee4 <main+0x4ee4>
bfc04e60:	00000000 	nop
bfc04e64:	10000021 	b	bfc04eec <main+0x4eec>
bfc04e68:	00000000 	nop
bfc04e6c:	00000021 	move	zero,zero
bfc04e70:	00000021 	move	zero,zero
bfc04e74:	00000021 	move	zero,zero
bfc04e78:	00000021 	move	zero,zero
bfc04e7c:	00000021 	move	zero,zero
bfc04e80:	00000021 	move	zero,zero
bfc04e84:	00000021 	move	zero,zero
bfc04e88:	00000021 	move	zero,zero
bfc04e8c:	00000021 	move	zero,zero
bfc04e90:	00000021 	move	zero,zero
bfc04e94:	00000021 	move	zero,zero
bfc04e98:	00000021 	move	zero,zero
bfc04e9c:	00000021 	move	zero,zero
bfc04ea0:	00000021 	move	zero,zero
bfc04ea4:	3c08be0e 	lui	t0,0xbe0e
bfc04ea8:	35086070 	ori	t0,t0,0x6070
bfc04eac:	3c09d0d2 	lui	t1,0xd0d2
bfc04eb0:	35292e80 	ori	t1,t1,0x2e80
bfc04eb4:	1509ffe7 	bne	t0,t1,bfc04e54 <main+0x4e54>
bfc04eb8:	00000000 	nop
bfc04ebc:	1000000b 	b	bfc04eec <main+0x4eec>
bfc04ec0:	00000000 	nop
bfc04ec4:	00000021 	move	zero,zero
bfc04ec8:	00000021 	move	zero,zero
bfc04ecc:	00000021 	move	zero,zero
bfc04ed0:	00000021 	move	zero,zero
bfc04ed4:	00000021 	move	zero,zero
bfc04ed8:	00000021 	move	zero,zero
bfc04edc:	00000021 	move	zero,zero
bfc04ee0:	00000021 	move	zero,zero
bfc04ee4:	3c1222b4 	lui	s2,0x22b4
bfc04ee8:	36520ba8 	ori	s2,s2,0xba8
bfc04eec:	00000000 	nop
bfc04ef0:	3c141f19 	lui	s4,0x1f19
bfc04ef4:	3694c3e0 	ori	s4,s4,0xc3e0
bfc04ef8:	16142bbb 	bne	s0,s4,bfc0fde8 <inst_error>
bfc04efc:	00000000 	nop
bfc04f00:	3c1522b4 	lui	s5,0x22b4
bfc04f04:	36b50ba8 	ori	s5,s5,0xba8
bfc04f08:	16552bb7 	bne	s2,s5,bfc0fde8 <inst_error>
bfc04f0c:	00000000 	nop
bfc04f10:	3c0c9a22 	lui	t4,0x9a22
bfc04f14:	358c0ced 	ori	t4,t4,0xced
bfc04f18:	3c0d9dd4 	lui	t5,0x9dd4
bfc04f1c:	35ad57af 	ori	t5,t5,0x57af
bfc04f20:	24100000 	li	s0,0
bfc04f24:	24120000 	li	s2,0
bfc04f28:	10000015 	b	bfc04f80 <main+0x4f80>
bfc04f2c:	00000000 	nop
bfc04f30:	3c109a22 	lui	s0,0x9a22
bfc04f34:	36100ced 	ori	s0,s0,0xced
bfc04f38:	15280021 	bne	t1,t0,bfc04fc0 <main+0x4fc0>
bfc04f3c:	00000000 	nop
bfc04f40:	10000021 	b	bfc04fc8 <main+0x4fc8>
bfc04f44:	00000000 	nop
bfc04f48:	00000021 	move	zero,zero
bfc04f4c:	00000021 	move	zero,zero
bfc04f50:	00000021 	move	zero,zero
bfc04f54:	00000021 	move	zero,zero
bfc04f58:	00000021 	move	zero,zero
bfc04f5c:	00000021 	move	zero,zero
bfc04f60:	00000021 	move	zero,zero
bfc04f64:	00000021 	move	zero,zero
bfc04f68:	00000021 	move	zero,zero
bfc04f6c:	00000021 	move	zero,zero
bfc04f70:	00000021 	move	zero,zero
bfc04f74:	00000021 	move	zero,zero
bfc04f78:	00000021 	move	zero,zero
bfc04f7c:	00000021 	move	zero,zero
bfc04f80:	3c08f97a 	lui	t0,0xf97a
bfc04f84:	350802c8 	ori	t0,t0,0x2c8
bfc04f88:	3c094c95 	lui	t1,0x4c95
bfc04f8c:	35293240 	ori	t1,t1,0x3240
bfc04f90:	1509ffe7 	bne	t0,t1,bfc04f30 <main+0x4f30>
bfc04f94:	00000000 	nop
bfc04f98:	1000000b 	b	bfc04fc8 <main+0x4fc8>
bfc04f9c:	00000000 	nop
bfc04fa0:	00000021 	move	zero,zero
bfc04fa4:	00000021 	move	zero,zero
bfc04fa8:	00000021 	move	zero,zero
bfc04fac:	00000021 	move	zero,zero
bfc04fb0:	00000021 	move	zero,zero
bfc04fb4:	00000021 	move	zero,zero
bfc04fb8:	00000021 	move	zero,zero
bfc04fbc:	00000021 	move	zero,zero
bfc04fc0:	3c129dd4 	lui	s2,0x9dd4
bfc04fc4:	365257af 	ori	s2,s2,0x57af
bfc04fc8:	00000000 	nop
bfc04fcc:	3c149a22 	lui	s4,0x9a22
bfc04fd0:	36940ced 	ori	s4,s4,0xced
bfc04fd4:	16142b84 	bne	s0,s4,bfc0fde8 <inst_error>
bfc04fd8:	00000000 	nop
bfc04fdc:	3c159dd4 	lui	s5,0x9dd4
bfc04fe0:	36b557af 	ori	s5,s5,0x57af
bfc04fe4:	16552b80 	bne	s2,s5,bfc0fde8 <inst_error>
bfc04fe8:	00000000 	nop
bfc04fec:	3c0cd674 	lui	t4,0xd674
bfc04ff0:	358cdaa0 	ori	t4,t4,0xdaa0
bfc04ff4:	3c0dd4a0 	lui	t5,0xd4a0
bfc04ff8:	35adeda9 	ori	t5,t5,0xeda9
bfc04ffc:	24100000 	li	s0,0
bfc05000:	24120000 	li	s2,0
bfc05004:	10000015 	b	bfc0505c <main+0x505c>
bfc05008:	00000000 	nop
bfc0500c:	3c10d674 	lui	s0,0xd674
bfc05010:	3610daa0 	ori	s0,s0,0xdaa0
bfc05014:	15280021 	bne	t1,t0,bfc0509c <main+0x509c>
bfc05018:	00000000 	nop
bfc0501c:	10000021 	b	bfc050a4 <main+0x50a4>
bfc05020:	00000000 	nop
bfc05024:	00000021 	move	zero,zero
bfc05028:	00000021 	move	zero,zero
bfc0502c:	00000021 	move	zero,zero
bfc05030:	00000021 	move	zero,zero
bfc05034:	00000021 	move	zero,zero
bfc05038:	00000021 	move	zero,zero
bfc0503c:	00000021 	move	zero,zero
bfc05040:	00000021 	move	zero,zero
bfc05044:	00000021 	move	zero,zero
bfc05048:	00000021 	move	zero,zero
bfc0504c:	00000021 	move	zero,zero
bfc05050:	00000021 	move	zero,zero
bfc05054:	00000021 	move	zero,zero
bfc05058:	00000021 	move	zero,zero
bfc0505c:	3c084022 	lui	t0,0x4022
bfc05060:	3508e4dc 	ori	t0,t0,0xe4dc
bfc05064:	3c0917b7 	lui	t1,0x17b7
bfc05068:	3529eec0 	ori	t1,t1,0xeec0
bfc0506c:	1509ffe7 	bne	t0,t1,bfc0500c <main+0x500c>
bfc05070:	00000000 	nop
bfc05074:	1000000b 	b	bfc050a4 <main+0x50a4>
bfc05078:	00000000 	nop
bfc0507c:	00000021 	move	zero,zero
bfc05080:	00000021 	move	zero,zero
bfc05084:	00000021 	move	zero,zero
bfc05088:	00000021 	move	zero,zero
bfc0508c:	00000021 	move	zero,zero
bfc05090:	00000021 	move	zero,zero
bfc05094:	00000021 	move	zero,zero
bfc05098:	00000021 	move	zero,zero
bfc0509c:	3c12d4a0 	lui	s2,0xd4a0
bfc050a0:	3652eda9 	ori	s2,s2,0xeda9
bfc050a4:	00000000 	nop
bfc050a8:	3c14d674 	lui	s4,0xd674
bfc050ac:	3694daa0 	ori	s4,s4,0xdaa0
bfc050b0:	16142b4d 	bne	s0,s4,bfc0fde8 <inst_error>
bfc050b4:	00000000 	nop
bfc050b8:	3c15d4a0 	lui	s5,0xd4a0
bfc050bc:	36b5eda9 	ori	s5,s5,0xeda9
bfc050c0:	16552b49 	bne	s2,s5,bfc0fde8 <inst_error>
bfc050c4:	00000000 	nop
bfc050c8:	3c0c6648 	lui	t4,0x6648
bfc050cc:	358cf118 	ori	t4,t4,0xf118
bfc050d0:	3c0dda02 	lui	t5,0xda02
bfc050d4:	35ad2f00 	ori	t5,t5,0x2f00
bfc050d8:	24100000 	li	s0,0
bfc050dc:	24120000 	li	s2,0
bfc050e0:	10000015 	b	bfc05138 <main+0x5138>
bfc050e4:	00000000 	nop
bfc050e8:	3c106648 	lui	s0,0x6648
bfc050ec:	3610f118 	ori	s0,s0,0xf118
bfc050f0:	15280021 	bne	t1,t0,bfc05178 <main+0x5178>
bfc050f4:	00000000 	nop
bfc050f8:	10000021 	b	bfc05180 <main+0x5180>
bfc050fc:	00000000 	nop
bfc05100:	00000021 	move	zero,zero
bfc05104:	00000021 	move	zero,zero
bfc05108:	00000021 	move	zero,zero
bfc0510c:	00000021 	move	zero,zero
bfc05110:	00000021 	move	zero,zero
bfc05114:	00000021 	move	zero,zero
bfc05118:	00000021 	move	zero,zero
bfc0511c:	00000021 	move	zero,zero
bfc05120:	00000021 	move	zero,zero
bfc05124:	00000021 	move	zero,zero
bfc05128:	00000021 	move	zero,zero
bfc0512c:	00000021 	move	zero,zero
bfc05130:	00000021 	move	zero,zero
bfc05134:	00000021 	move	zero,zero
bfc05138:	3c083fc3 	lui	t0,0x3fc3
bfc0513c:	3508c6fc 	ori	t0,t0,0xc6fc
bfc05140:	3c093b71 	lui	t1,0x3b71
bfc05144:	3529c348 	ori	t1,t1,0xc348
bfc05148:	1509ffe7 	bne	t0,t1,bfc050e8 <main+0x50e8>
bfc0514c:	00000000 	nop
bfc05150:	1000000b 	b	bfc05180 <main+0x5180>
bfc05154:	00000000 	nop
bfc05158:	00000021 	move	zero,zero
bfc0515c:	00000021 	move	zero,zero
bfc05160:	00000021 	move	zero,zero
bfc05164:	00000021 	move	zero,zero
bfc05168:	00000021 	move	zero,zero
bfc0516c:	00000021 	move	zero,zero
bfc05170:	00000021 	move	zero,zero
bfc05174:	00000021 	move	zero,zero
bfc05178:	3c12da02 	lui	s2,0xda02
bfc0517c:	36522f00 	ori	s2,s2,0x2f00
bfc05180:	00000000 	nop
bfc05184:	3c146648 	lui	s4,0x6648
bfc05188:	3694f118 	ori	s4,s4,0xf118
bfc0518c:	16142b16 	bne	s0,s4,bfc0fde8 <inst_error>
bfc05190:	00000000 	nop
bfc05194:	3c15da02 	lui	s5,0xda02
bfc05198:	36b52f00 	ori	s5,s5,0x2f00
bfc0519c:	16552b12 	bne	s2,s5,bfc0fde8 <inst_error>
bfc051a0:	00000000 	nop
bfc051a4:	3c0cfe80 	lui	t4,0xfe80
bfc051a8:	358c7950 	ori	t4,t4,0x7950
bfc051ac:	3c0d7706 	lui	t5,0x7706
bfc051b0:	35ad75f8 	ori	t5,t5,0x75f8
bfc051b4:	24100000 	li	s0,0
bfc051b8:	24120000 	li	s2,0
bfc051bc:	10000015 	b	bfc05214 <main+0x5214>
bfc051c0:	00000000 	nop
bfc051c4:	3c10fe80 	lui	s0,0xfe80
bfc051c8:	36107950 	ori	s0,s0,0x7950
bfc051cc:	15280021 	bne	t1,t0,bfc05254 <main+0x5254>
bfc051d0:	00000000 	nop
bfc051d4:	10000021 	b	bfc0525c <main+0x525c>
bfc051d8:	00000000 	nop
bfc051dc:	00000021 	move	zero,zero
bfc051e0:	00000021 	move	zero,zero
bfc051e4:	00000021 	move	zero,zero
bfc051e8:	00000021 	move	zero,zero
bfc051ec:	00000021 	move	zero,zero
bfc051f0:	00000021 	move	zero,zero
bfc051f4:	00000021 	move	zero,zero
bfc051f8:	00000021 	move	zero,zero
bfc051fc:	00000021 	move	zero,zero
bfc05200:	00000021 	move	zero,zero
bfc05204:	00000021 	move	zero,zero
bfc05208:	00000021 	move	zero,zero
bfc0520c:	00000021 	move	zero,zero
bfc05210:	00000021 	move	zero,zero
bfc05214:	3c08275b 	lui	t0,0x275b
bfc05218:	350847d8 	ori	t0,t0,0x47d8
bfc0521c:	3c095f0e 	lui	t1,0x5f0e
bfc05220:	35292a38 	ori	t1,t1,0x2a38
bfc05224:	1509ffe7 	bne	t0,t1,bfc051c4 <main+0x51c4>
bfc05228:	00000000 	nop
bfc0522c:	1000000b 	b	bfc0525c <main+0x525c>
bfc05230:	00000000 	nop
bfc05234:	00000021 	move	zero,zero
bfc05238:	00000021 	move	zero,zero
bfc0523c:	00000021 	move	zero,zero
bfc05240:	00000021 	move	zero,zero
bfc05244:	00000021 	move	zero,zero
bfc05248:	00000021 	move	zero,zero
bfc0524c:	00000021 	move	zero,zero
bfc05250:	00000021 	move	zero,zero
bfc05254:	3c127706 	lui	s2,0x7706
bfc05258:	365275f8 	ori	s2,s2,0x75f8
bfc0525c:	00000000 	nop
bfc05260:	3c14fe80 	lui	s4,0xfe80
bfc05264:	36947950 	ori	s4,s4,0x7950
bfc05268:	16142adf 	bne	s0,s4,bfc0fde8 <inst_error>
bfc0526c:	00000000 	nop
bfc05270:	3c157706 	lui	s5,0x7706
bfc05274:	36b575f8 	ori	s5,s5,0x75f8
bfc05278:	16552adb 	bne	s2,s5,bfc0fde8 <inst_error>
bfc0527c:	00000000 	nop
bfc05280:	3c0c668b 	lui	t4,0x668b
bfc05284:	358ccf90 	ori	t4,t4,0xcf90
bfc05288:	3c0d0d00 	lui	t5,0xd00
bfc0528c:	35ad31a4 	ori	t5,t5,0x31a4
bfc05290:	24100000 	li	s0,0
bfc05294:	24120000 	li	s2,0
bfc05298:	10000015 	b	bfc052f0 <main+0x52f0>
bfc0529c:	00000000 	nop
bfc052a0:	3c10668b 	lui	s0,0x668b
bfc052a4:	3610cf90 	ori	s0,s0,0xcf90
bfc052a8:	15280021 	bne	t1,t0,bfc05330 <main+0x5330>
bfc052ac:	00000000 	nop
bfc052b0:	10000021 	b	bfc05338 <main+0x5338>
bfc052b4:	00000000 	nop
bfc052b8:	00000021 	move	zero,zero
bfc052bc:	00000021 	move	zero,zero
bfc052c0:	00000021 	move	zero,zero
bfc052c4:	00000021 	move	zero,zero
bfc052c8:	00000021 	move	zero,zero
bfc052cc:	00000021 	move	zero,zero
bfc052d0:	00000021 	move	zero,zero
bfc052d4:	00000021 	move	zero,zero
bfc052d8:	00000021 	move	zero,zero
bfc052dc:	00000021 	move	zero,zero
bfc052e0:	00000021 	move	zero,zero
bfc052e4:	00000021 	move	zero,zero
bfc052e8:	00000021 	move	zero,zero
bfc052ec:	00000021 	move	zero,zero
bfc052f0:	3c0899c6 	lui	t0,0x99c6
bfc052f4:	3508d534 	ori	t0,t0,0xd534
bfc052f8:	3c0920e8 	lui	t1,0x20e8
bfc052fc:	35291ebc 	ori	t1,t1,0x1ebc
bfc05300:	1509ffe7 	bne	t0,t1,bfc052a0 <main+0x52a0>
bfc05304:	00000000 	nop
bfc05308:	1000000b 	b	bfc05338 <main+0x5338>
bfc0530c:	00000000 	nop
bfc05310:	00000021 	move	zero,zero
bfc05314:	00000021 	move	zero,zero
bfc05318:	00000021 	move	zero,zero
bfc0531c:	00000021 	move	zero,zero
bfc05320:	00000021 	move	zero,zero
bfc05324:	00000021 	move	zero,zero
bfc05328:	00000021 	move	zero,zero
bfc0532c:	00000021 	move	zero,zero
bfc05330:	3c120d00 	lui	s2,0xd00
bfc05334:	365231a4 	ori	s2,s2,0x31a4
bfc05338:	00000000 	nop
bfc0533c:	3c14668b 	lui	s4,0x668b
bfc05340:	3694cf90 	ori	s4,s4,0xcf90
bfc05344:	16142aa8 	bne	s0,s4,bfc0fde8 <inst_error>
bfc05348:	00000000 	nop
bfc0534c:	3c150d00 	lui	s5,0xd00
bfc05350:	36b531a4 	ori	s5,s5,0x31a4
bfc05354:	16552aa4 	bne	s2,s5,bfc0fde8 <inst_error>
bfc05358:	00000000 	nop
bfc0535c:	3c0c6902 	lui	t4,0x6902
bfc05360:	358cb7a0 	ori	t4,t4,0xb7a0
bfc05364:	3c0ddb29 	lui	t5,0xdb29
bfc05368:	35ada24e 	ori	t5,t5,0xa24e
bfc0536c:	24100000 	li	s0,0
bfc05370:	24120000 	li	s2,0
bfc05374:	10000015 	b	bfc053cc <main+0x53cc>
bfc05378:	00000000 	nop
bfc0537c:	3c106902 	lui	s0,0x6902
bfc05380:	3610b7a0 	ori	s0,s0,0xb7a0
bfc05384:	15280021 	bne	t1,t0,bfc0540c <main+0x540c>
bfc05388:	00000000 	nop
bfc0538c:	10000021 	b	bfc05414 <main+0x5414>
bfc05390:	00000000 	nop
bfc05394:	00000021 	move	zero,zero
bfc05398:	00000021 	move	zero,zero
bfc0539c:	00000021 	move	zero,zero
bfc053a0:	00000021 	move	zero,zero
bfc053a4:	00000021 	move	zero,zero
bfc053a8:	00000021 	move	zero,zero
bfc053ac:	00000021 	move	zero,zero
bfc053b0:	00000021 	move	zero,zero
bfc053b4:	00000021 	move	zero,zero
bfc053b8:	00000021 	move	zero,zero
bfc053bc:	00000021 	move	zero,zero
bfc053c0:	00000021 	move	zero,zero
bfc053c4:	00000021 	move	zero,zero
bfc053c8:	00000021 	move	zero,zero
bfc053cc:	3c08d752 	lui	t0,0xd752
bfc053d0:	3508e630 	ori	t0,t0,0xe630
bfc053d4:	3c096078 	lui	t1,0x6078
bfc053d8:	35296afc 	ori	t1,t1,0x6afc
bfc053dc:	1509ffe7 	bne	t0,t1,bfc0537c <main+0x537c>
bfc053e0:	00000000 	nop
bfc053e4:	1000000b 	b	bfc05414 <main+0x5414>
bfc053e8:	00000000 	nop
bfc053ec:	00000021 	move	zero,zero
bfc053f0:	00000021 	move	zero,zero
bfc053f4:	00000021 	move	zero,zero
bfc053f8:	00000021 	move	zero,zero
bfc053fc:	00000021 	move	zero,zero
bfc05400:	00000021 	move	zero,zero
bfc05404:	00000021 	move	zero,zero
bfc05408:	00000021 	move	zero,zero
bfc0540c:	3c12db29 	lui	s2,0xdb29
bfc05410:	3652a24e 	ori	s2,s2,0xa24e
bfc05414:	00000000 	nop
bfc05418:	3c146902 	lui	s4,0x6902
bfc0541c:	3694b7a0 	ori	s4,s4,0xb7a0
bfc05420:	16142a71 	bne	s0,s4,bfc0fde8 <inst_error>
bfc05424:	00000000 	nop
bfc05428:	3c15db29 	lui	s5,0xdb29
bfc0542c:	36b5a24e 	ori	s5,s5,0xa24e
bfc05430:	16552a6d 	bne	s2,s5,bfc0fde8 <inst_error>
bfc05434:	00000000 	nop
bfc05438:	3c0ce7b3 	lui	t4,0xe7b3
bfc0543c:	358c8d3a 	ori	t4,t4,0x8d3a
bfc05440:	3c0d55c7 	lui	t5,0x55c7
bfc05444:	35ad2bd6 	ori	t5,t5,0x2bd6
bfc05448:	24100000 	li	s0,0
bfc0544c:	24120000 	li	s2,0
bfc05450:	10000015 	b	bfc054a8 <main+0x54a8>
bfc05454:	00000000 	nop
bfc05458:	3c10e7b3 	lui	s0,0xe7b3
bfc0545c:	36108d3a 	ori	s0,s0,0x8d3a
bfc05460:	15280021 	bne	t1,t0,bfc054e8 <main+0x54e8>
bfc05464:	00000000 	nop
bfc05468:	10000021 	b	bfc054f0 <main+0x54f0>
bfc0546c:	00000000 	nop
bfc05470:	00000021 	move	zero,zero
bfc05474:	00000021 	move	zero,zero
bfc05478:	00000021 	move	zero,zero
bfc0547c:	00000021 	move	zero,zero
bfc05480:	00000021 	move	zero,zero
bfc05484:	00000021 	move	zero,zero
bfc05488:	00000021 	move	zero,zero
bfc0548c:	00000021 	move	zero,zero
bfc05490:	00000021 	move	zero,zero
bfc05494:	00000021 	move	zero,zero
bfc05498:	00000021 	move	zero,zero
bfc0549c:	00000021 	move	zero,zero
bfc054a0:	00000021 	move	zero,zero
bfc054a4:	00000021 	move	zero,zero
bfc054a8:	3c08453f 	lui	t0,0x453f
bfc054ac:	35087f9c 	ori	t0,t0,0x7f9c
bfc054b0:	3c095607 	lui	t1,0x5607
bfc054b4:	35295ce0 	ori	t1,t1,0x5ce0
bfc054b8:	1509ffe7 	bne	t0,t1,bfc05458 <main+0x5458>
bfc054bc:	00000000 	nop
bfc054c0:	1000000b 	b	bfc054f0 <main+0x54f0>
bfc054c4:	00000000 	nop
bfc054c8:	00000021 	move	zero,zero
bfc054cc:	00000021 	move	zero,zero
bfc054d0:	00000021 	move	zero,zero
bfc054d4:	00000021 	move	zero,zero
bfc054d8:	00000021 	move	zero,zero
bfc054dc:	00000021 	move	zero,zero
bfc054e0:	00000021 	move	zero,zero
bfc054e4:	00000021 	move	zero,zero
bfc054e8:	3c1255c7 	lui	s2,0x55c7
bfc054ec:	36522bd6 	ori	s2,s2,0x2bd6
bfc054f0:	00000000 	nop
bfc054f4:	3c14e7b3 	lui	s4,0xe7b3
bfc054f8:	36948d3a 	ori	s4,s4,0x8d3a
bfc054fc:	16142a3a 	bne	s0,s4,bfc0fde8 <inst_error>
bfc05500:	00000000 	nop
bfc05504:	3c1555c7 	lui	s5,0x55c7
bfc05508:	36b52bd6 	ori	s5,s5,0x2bd6
bfc0550c:	16552a36 	bne	s2,s5,bfc0fde8 <inst_error>
bfc05510:	00000000 	nop
bfc05514:	3c0cec37 	lui	t4,0xec37
bfc05518:	358cc948 	ori	t4,t4,0xc948
bfc0551c:	3c0da9ad 	lui	t5,0xa9ad
bfc05520:	35ad8b80 	ori	t5,t5,0x8b80
bfc05524:	24100000 	li	s0,0
bfc05528:	24120000 	li	s2,0
bfc0552c:	10000015 	b	bfc05584 <main+0x5584>
bfc05530:	00000000 	nop
bfc05534:	3c10ec37 	lui	s0,0xec37
bfc05538:	3610c948 	ori	s0,s0,0xc948
bfc0553c:	15280021 	bne	t1,t0,bfc055c4 <main+0x55c4>
bfc05540:	00000000 	nop
bfc05544:	10000021 	b	bfc055cc <main+0x55cc>
bfc05548:	00000000 	nop
bfc0554c:	00000021 	move	zero,zero
bfc05550:	00000021 	move	zero,zero
bfc05554:	00000021 	move	zero,zero
bfc05558:	00000021 	move	zero,zero
bfc0555c:	00000021 	move	zero,zero
bfc05560:	00000021 	move	zero,zero
bfc05564:	00000021 	move	zero,zero
bfc05568:	00000021 	move	zero,zero
bfc0556c:	00000021 	move	zero,zero
bfc05570:	00000021 	move	zero,zero
bfc05574:	00000021 	move	zero,zero
bfc05578:	00000021 	move	zero,zero
bfc0557c:	00000021 	move	zero,zero
bfc05580:	00000021 	move	zero,zero
bfc05584:	3c087e5d 	lui	t0,0x7e5d
bfc05588:	350803f5 	ori	t0,t0,0x3f5
bfc0558c:	3c09a749 	lui	t1,0xa749
bfc05590:	35294960 	ori	t1,t1,0x4960
bfc05594:	1509ffe7 	bne	t0,t1,bfc05534 <main+0x5534>
bfc05598:	00000000 	nop
bfc0559c:	1000000b 	b	bfc055cc <main+0x55cc>
bfc055a0:	00000000 	nop
bfc055a4:	00000021 	move	zero,zero
bfc055a8:	00000021 	move	zero,zero
bfc055ac:	00000021 	move	zero,zero
bfc055b0:	00000021 	move	zero,zero
bfc055b4:	00000021 	move	zero,zero
bfc055b8:	00000021 	move	zero,zero
bfc055bc:	00000021 	move	zero,zero
bfc055c0:	00000021 	move	zero,zero
bfc055c4:	3c12a9ad 	lui	s2,0xa9ad
bfc055c8:	36528b80 	ori	s2,s2,0x8b80
bfc055cc:	00000000 	nop
bfc055d0:	3c14ec37 	lui	s4,0xec37
bfc055d4:	3694c948 	ori	s4,s4,0xc948
bfc055d8:	16142a03 	bne	s0,s4,bfc0fde8 <inst_error>
bfc055dc:	00000000 	nop
bfc055e0:	3c15a9ad 	lui	s5,0xa9ad
bfc055e4:	36b58b80 	ori	s5,s5,0x8b80
bfc055e8:	165529ff 	bne	s2,s5,bfc0fde8 <inst_error>
bfc055ec:	00000000 	nop
bfc055f0:	3c0c59c3 	lui	t4,0x59c3
bfc055f4:	358cfe74 	ori	t4,t4,0xfe74
bfc055f8:	3c0d56af 	lui	t5,0x56af
bfc055fc:	35ad4b20 	ori	t5,t5,0x4b20
bfc05600:	24100000 	li	s0,0
bfc05604:	24120000 	li	s2,0
bfc05608:	10000015 	b	bfc05660 <main+0x5660>
bfc0560c:	00000000 	nop
bfc05610:	3c1059c3 	lui	s0,0x59c3
bfc05614:	3610fe74 	ori	s0,s0,0xfe74
bfc05618:	15280021 	bne	t1,t0,bfc056a0 <main+0x56a0>
bfc0561c:	00000000 	nop
bfc05620:	10000021 	b	bfc056a8 <main+0x56a8>
bfc05624:	00000000 	nop
bfc05628:	00000021 	move	zero,zero
bfc0562c:	00000021 	move	zero,zero
bfc05630:	00000021 	move	zero,zero
bfc05634:	00000021 	move	zero,zero
bfc05638:	00000021 	move	zero,zero
bfc0563c:	00000021 	move	zero,zero
bfc05640:	00000021 	move	zero,zero
bfc05644:	00000021 	move	zero,zero
bfc05648:	00000021 	move	zero,zero
bfc0564c:	00000021 	move	zero,zero
bfc05650:	00000021 	move	zero,zero
bfc05654:	00000021 	move	zero,zero
bfc05658:	00000021 	move	zero,zero
bfc0565c:	00000021 	move	zero,zero
bfc05660:	3c0858b1 	lui	t0,0x58b1
bfc05664:	3508dc22 	ori	t0,t0,0xdc22
bfc05668:	3c0958b1 	lui	t1,0x58b1
bfc0566c:	3529dc22 	ori	t1,t1,0xdc22
bfc05670:	1509ffe7 	bne	t0,t1,bfc05610 <main+0x5610>
bfc05674:	00000000 	nop
bfc05678:	1000000b 	b	bfc056a8 <main+0x56a8>
bfc0567c:	00000000 	nop
bfc05680:	00000021 	move	zero,zero
bfc05684:	00000021 	move	zero,zero
bfc05688:	00000021 	move	zero,zero
bfc0568c:	00000021 	move	zero,zero
bfc05690:	00000021 	move	zero,zero
bfc05694:	00000021 	move	zero,zero
bfc05698:	00000021 	move	zero,zero
bfc0569c:	00000021 	move	zero,zero
bfc056a0:	3c1256af 	lui	s2,0x56af
bfc056a4:	36524b20 	ori	s2,s2,0x4b20
bfc056a8:	00000000 	nop
bfc056ac:	24140000 	li	s4,0
bfc056b0:	161429cd 	bne	s0,s4,bfc0fde8 <inst_error>
bfc056b4:	00000000 	nop
bfc056b8:	24150000 	li	s5,0
bfc056bc:	165529ca 	bne	s2,s5,bfc0fde8 <inst_error>
bfc056c0:	00000000 	nop
bfc056c4:	3c0c67ae 	lui	t4,0x67ae
bfc056c8:	358c1e29 	ori	t4,t4,0x1e29
bfc056cc:	3c0dba8a 	lui	t5,0xba8a
bfc056d0:	35adfb9e 	ori	t5,t5,0xfb9e
bfc056d4:	24100000 	li	s0,0
bfc056d8:	24120000 	li	s2,0
bfc056dc:	10000015 	b	bfc05734 <main+0x5734>
bfc056e0:	00000000 	nop
bfc056e4:	3c1067ae 	lui	s0,0x67ae
bfc056e8:	36101e29 	ori	s0,s0,0x1e29
bfc056ec:	15280021 	bne	t1,t0,bfc05774 <main+0x5774>
bfc056f0:	00000000 	nop
bfc056f4:	10000021 	b	bfc0577c <main+0x577c>
bfc056f8:	00000000 	nop
bfc056fc:	00000021 	move	zero,zero
bfc05700:	00000021 	move	zero,zero
bfc05704:	00000021 	move	zero,zero
bfc05708:	00000021 	move	zero,zero
bfc0570c:	00000021 	move	zero,zero
bfc05710:	00000021 	move	zero,zero
bfc05714:	00000021 	move	zero,zero
bfc05718:	00000021 	move	zero,zero
bfc0571c:	00000021 	move	zero,zero
bfc05720:	00000021 	move	zero,zero
bfc05724:	00000021 	move	zero,zero
bfc05728:	00000021 	move	zero,zero
bfc0572c:	00000021 	move	zero,zero
bfc05730:	00000021 	move	zero,zero
bfc05734:	3c086823 	lui	t0,0x6823
bfc05738:	35083e10 	ori	t0,t0,0x3e10
bfc0573c:	3c096823 	lui	t1,0x6823
bfc05740:	35293e10 	ori	t1,t1,0x3e10
bfc05744:	1509ffe7 	bne	t0,t1,bfc056e4 <main+0x56e4>
bfc05748:	00000000 	nop
bfc0574c:	1000000b 	b	bfc0577c <main+0x577c>
bfc05750:	00000000 	nop
bfc05754:	00000021 	move	zero,zero
bfc05758:	00000021 	move	zero,zero
bfc0575c:	00000021 	move	zero,zero
bfc05760:	00000021 	move	zero,zero
bfc05764:	00000021 	move	zero,zero
bfc05768:	00000021 	move	zero,zero
bfc0576c:	00000021 	move	zero,zero
bfc05770:	00000021 	move	zero,zero
bfc05774:	3c12ba8a 	lui	s2,0xba8a
bfc05778:	3652fb9e 	ori	s2,s2,0xfb9e
bfc0577c:	00000000 	nop
bfc05780:	24140000 	li	s4,0
bfc05784:	16142998 	bne	s0,s4,bfc0fde8 <inst_error>
bfc05788:	00000000 	nop
bfc0578c:	24150000 	li	s5,0
bfc05790:	16552995 	bne	s2,s5,bfc0fde8 <inst_error>
bfc05794:	00000000 	nop
bfc05798:	3c0c2109 	lui	t4,0x2109
bfc0579c:	358cd8f0 	ori	t4,t4,0xd8f0
bfc057a0:	3c0defea 	lui	t5,0xefea
bfc057a4:	35ad5e9a 	ori	t5,t5,0x5e9a
bfc057a8:	24100000 	li	s0,0
bfc057ac:	24120000 	li	s2,0
bfc057b0:	10000015 	b	bfc05808 <main+0x5808>
bfc057b4:	00000000 	nop
bfc057b8:	3c102109 	lui	s0,0x2109
bfc057bc:	3610d8f0 	ori	s0,s0,0xd8f0
bfc057c0:	15280021 	bne	t1,t0,bfc05848 <main+0x5848>
bfc057c4:	00000000 	nop
bfc057c8:	10000021 	b	bfc05850 <main+0x5850>
bfc057cc:	00000000 	nop
bfc057d0:	00000021 	move	zero,zero
bfc057d4:	00000021 	move	zero,zero
bfc057d8:	00000021 	move	zero,zero
bfc057dc:	00000021 	move	zero,zero
bfc057e0:	00000021 	move	zero,zero
bfc057e4:	00000021 	move	zero,zero
bfc057e8:	00000021 	move	zero,zero
bfc057ec:	00000021 	move	zero,zero
bfc057f0:	00000021 	move	zero,zero
bfc057f4:	00000021 	move	zero,zero
bfc057f8:	00000021 	move	zero,zero
bfc057fc:	00000021 	move	zero,zero
bfc05800:	00000021 	move	zero,zero
bfc05804:	00000021 	move	zero,zero
bfc05808:	3c08caf4 	lui	t0,0xcaf4
bfc0580c:	3508cd20 	ori	t0,t0,0xcd20
bfc05810:	3c09caf4 	lui	t1,0xcaf4
bfc05814:	3529cd20 	ori	t1,t1,0xcd20
bfc05818:	1509ffe7 	bne	t0,t1,bfc057b8 <main+0x57b8>
bfc0581c:	00000000 	nop
bfc05820:	1000000b 	b	bfc05850 <main+0x5850>
bfc05824:	00000000 	nop
bfc05828:	00000021 	move	zero,zero
bfc0582c:	00000021 	move	zero,zero
bfc05830:	00000021 	move	zero,zero
bfc05834:	00000021 	move	zero,zero
bfc05838:	00000021 	move	zero,zero
bfc0583c:	00000021 	move	zero,zero
bfc05840:	00000021 	move	zero,zero
bfc05844:	00000021 	move	zero,zero
bfc05848:	3c12efea 	lui	s2,0xefea
bfc0584c:	36525e9a 	ori	s2,s2,0x5e9a
bfc05850:	00000000 	nop
bfc05854:	24140000 	li	s4,0
bfc05858:	16142963 	bne	s0,s4,bfc0fde8 <inst_error>
bfc0585c:	00000000 	nop
bfc05860:	24150000 	li	s5,0
bfc05864:	16552960 	bne	s2,s5,bfc0fde8 <inst_error>
bfc05868:	00000000 	nop
bfc0586c:	3c0c8d1d 	lui	t4,0x8d1d
bfc05870:	358c7e07 	ori	t4,t4,0x7e07
bfc05874:	3c0de325 	lui	t5,0xe325
bfc05878:	35adfb8a 	ori	t5,t5,0xfb8a
bfc0587c:	24100000 	li	s0,0
bfc05880:	24120000 	li	s2,0
bfc05884:	10000015 	b	bfc058dc <main+0x58dc>
bfc05888:	00000000 	nop
bfc0588c:	3c108d1d 	lui	s0,0x8d1d
bfc05890:	36107e07 	ori	s0,s0,0x7e07
bfc05894:	15280021 	bne	t1,t0,bfc0591c <main+0x591c>
bfc05898:	00000000 	nop
bfc0589c:	10000021 	b	bfc05924 <main+0x5924>
bfc058a0:	00000000 	nop
bfc058a4:	00000021 	move	zero,zero
bfc058a8:	00000021 	move	zero,zero
bfc058ac:	00000021 	move	zero,zero
bfc058b0:	00000021 	move	zero,zero
bfc058b4:	00000021 	move	zero,zero
bfc058b8:	00000021 	move	zero,zero
bfc058bc:	00000021 	move	zero,zero
bfc058c0:	00000021 	move	zero,zero
bfc058c4:	00000021 	move	zero,zero
bfc058c8:	00000021 	move	zero,zero
bfc058cc:	00000021 	move	zero,zero
bfc058d0:	00000021 	move	zero,zero
bfc058d4:	00000021 	move	zero,zero
bfc058d8:	00000021 	move	zero,zero
bfc058dc:	3c086197 	lui	t0,0x6197
bfc058e0:	35088e20 	ori	t0,t0,0x8e20
bfc058e4:	3c096197 	lui	t1,0x6197
bfc058e8:	35298e20 	ori	t1,t1,0x8e20
bfc058ec:	1509ffe7 	bne	t0,t1,bfc0588c <main+0x588c>
bfc058f0:	00000000 	nop
bfc058f4:	1000000b 	b	bfc05924 <main+0x5924>
bfc058f8:	00000000 	nop
bfc058fc:	00000021 	move	zero,zero
bfc05900:	00000021 	move	zero,zero
bfc05904:	00000021 	move	zero,zero
bfc05908:	00000021 	move	zero,zero
bfc0590c:	00000021 	move	zero,zero
bfc05910:	00000021 	move	zero,zero
bfc05914:	00000021 	move	zero,zero
bfc05918:	00000021 	move	zero,zero
bfc0591c:	3c12e325 	lui	s2,0xe325
bfc05920:	3652fb8a 	ori	s2,s2,0xfb8a
bfc05924:	00000000 	nop
bfc05928:	24140000 	li	s4,0
bfc0592c:	1614292e 	bne	s0,s4,bfc0fde8 <inst_error>
bfc05930:	00000000 	nop
bfc05934:	24150000 	li	s5,0
bfc05938:	1655292b 	bne	s2,s5,bfc0fde8 <inst_error>
bfc0593c:	00000000 	nop
bfc05940:	3c0c563b 	lui	t4,0x563b
bfc05944:	358c08a4 	ori	t4,t4,0x8a4
bfc05948:	3c0d6bbf 	lui	t5,0x6bbf
bfc0594c:	35ad1858 	ori	t5,t5,0x1858
bfc05950:	24100000 	li	s0,0
bfc05954:	24120000 	li	s2,0
bfc05958:	10000015 	b	bfc059b0 <main+0x59b0>
bfc0595c:	00000000 	nop
bfc05960:	3c10563b 	lui	s0,0x563b
bfc05964:	361008a4 	ori	s0,s0,0x8a4
bfc05968:	15280021 	bne	t1,t0,bfc059f0 <main+0x59f0>
bfc0596c:	00000000 	nop
bfc05970:	10000021 	b	bfc059f8 <main+0x59f8>
bfc05974:	00000000 	nop
bfc05978:	00000021 	move	zero,zero
bfc0597c:	00000021 	move	zero,zero
bfc05980:	00000021 	move	zero,zero
bfc05984:	00000021 	move	zero,zero
bfc05988:	00000021 	move	zero,zero
bfc0598c:	00000021 	move	zero,zero
bfc05990:	00000021 	move	zero,zero
bfc05994:	00000021 	move	zero,zero
bfc05998:	00000021 	move	zero,zero
bfc0599c:	00000021 	move	zero,zero
bfc059a0:	00000021 	move	zero,zero
bfc059a4:	00000021 	move	zero,zero
bfc059a8:	00000021 	move	zero,zero
bfc059ac:	00000021 	move	zero,zero
bfc059b0:	3c08cbd4 	lui	t0,0xcbd4
bfc059b4:	3508aed1 	ori	t0,t0,0xaed1
bfc059b8:	3c09cbd4 	lui	t1,0xcbd4
bfc059bc:	3529aed1 	ori	t1,t1,0xaed1
bfc059c0:	1509ffe7 	bne	t0,t1,bfc05960 <main+0x5960>
bfc059c4:	00000000 	nop
bfc059c8:	1000000b 	b	bfc059f8 <main+0x59f8>
bfc059cc:	00000000 	nop
bfc059d0:	00000021 	move	zero,zero
bfc059d4:	00000021 	move	zero,zero
bfc059d8:	00000021 	move	zero,zero
bfc059dc:	00000021 	move	zero,zero
bfc059e0:	00000021 	move	zero,zero
bfc059e4:	00000021 	move	zero,zero
bfc059e8:	00000021 	move	zero,zero
bfc059ec:	00000021 	move	zero,zero
bfc059f0:	3c126bbf 	lui	s2,0x6bbf
bfc059f4:	36521858 	ori	s2,s2,0x1858
bfc059f8:	00000000 	nop
bfc059fc:	24140000 	li	s4,0
bfc05a00:	161428f9 	bne	s0,s4,bfc0fde8 <inst_error>
bfc05a04:	00000000 	nop
bfc05a08:	24150000 	li	s5,0
bfc05a0c:	165528f6 	bne	s2,s5,bfc0fde8 <inst_error>
bfc05a10:	00000000 	nop
bfc05a14:	3c0c3391 	lui	t4,0x3391
bfc05a18:	358c0682 	ori	t4,t4,0x682
bfc05a1c:	3c0de302 	lui	t5,0xe302
bfc05a20:	35ad1dfc 	ori	t5,t5,0x1dfc
bfc05a24:	24100000 	li	s0,0
bfc05a28:	24120000 	li	s2,0
bfc05a2c:	10000015 	b	bfc05a84 <main+0x5a84>
bfc05a30:	00000000 	nop
bfc05a34:	3c103391 	lui	s0,0x3391
bfc05a38:	36100682 	ori	s0,s0,0x682
bfc05a3c:	15280021 	bne	t1,t0,bfc05ac4 <main+0x5ac4>
bfc05a40:	00000000 	nop
bfc05a44:	10000021 	b	bfc05acc <main+0x5acc>
bfc05a48:	00000000 	nop
bfc05a4c:	00000021 	move	zero,zero
bfc05a50:	00000021 	move	zero,zero
bfc05a54:	00000021 	move	zero,zero
bfc05a58:	00000021 	move	zero,zero
bfc05a5c:	00000021 	move	zero,zero
bfc05a60:	00000021 	move	zero,zero
bfc05a64:	00000021 	move	zero,zero
bfc05a68:	00000021 	move	zero,zero
bfc05a6c:	00000021 	move	zero,zero
bfc05a70:	00000021 	move	zero,zero
bfc05a74:	00000021 	move	zero,zero
bfc05a78:	00000021 	move	zero,zero
bfc05a7c:	00000021 	move	zero,zero
bfc05a80:	00000021 	move	zero,zero
bfc05a84:	3c08995b 	lui	t0,0x995b
bfc05a88:	3508a690 	ori	t0,t0,0xa690
bfc05a8c:	3c09995b 	lui	t1,0x995b
bfc05a90:	3529a690 	ori	t1,t1,0xa690
bfc05a94:	1509ffe7 	bne	t0,t1,bfc05a34 <main+0x5a34>
bfc05a98:	00000000 	nop
bfc05a9c:	1000000b 	b	bfc05acc <main+0x5acc>
bfc05aa0:	00000000 	nop
bfc05aa4:	00000021 	move	zero,zero
bfc05aa8:	00000021 	move	zero,zero
bfc05aac:	00000021 	move	zero,zero
bfc05ab0:	00000021 	move	zero,zero
bfc05ab4:	00000021 	move	zero,zero
bfc05ab8:	00000021 	move	zero,zero
bfc05abc:	00000021 	move	zero,zero
bfc05ac0:	00000021 	move	zero,zero
bfc05ac4:	3c12e302 	lui	s2,0xe302
bfc05ac8:	36521dfc 	ori	s2,s2,0x1dfc
bfc05acc:	00000000 	nop
bfc05ad0:	24140000 	li	s4,0
bfc05ad4:	161428c4 	bne	s0,s4,bfc0fde8 <inst_error>
bfc05ad8:	00000000 	nop
bfc05adc:	24150000 	li	s5,0
bfc05ae0:	165528c1 	bne	s2,s5,bfc0fde8 <inst_error>
bfc05ae4:	00000000 	nop
bfc05ae8:	3c0cedbc 	lui	t4,0xedbc
bfc05aec:	358c8ea0 	ori	t4,t4,0x8ea0
bfc05af0:	3c0d3102 	lui	t5,0x3102
bfc05af4:	35ad1800 	ori	t5,t5,0x1800
bfc05af8:	24100000 	li	s0,0
bfc05afc:	24120000 	li	s2,0
bfc05b00:	10000015 	b	bfc05b58 <main+0x5b58>
bfc05b04:	00000000 	nop
bfc05b08:	3c10edbc 	lui	s0,0xedbc
bfc05b0c:	36108ea0 	ori	s0,s0,0x8ea0
bfc05b10:	15280021 	bne	t1,t0,bfc05b98 <main+0x5b98>
bfc05b14:	00000000 	nop
bfc05b18:	10000021 	b	bfc05ba0 <main+0x5ba0>
bfc05b1c:	00000000 	nop
bfc05b20:	00000021 	move	zero,zero
bfc05b24:	00000021 	move	zero,zero
bfc05b28:	00000021 	move	zero,zero
bfc05b2c:	00000021 	move	zero,zero
bfc05b30:	00000021 	move	zero,zero
bfc05b34:	00000021 	move	zero,zero
bfc05b38:	00000021 	move	zero,zero
bfc05b3c:	00000021 	move	zero,zero
bfc05b40:	00000021 	move	zero,zero
bfc05b44:	00000021 	move	zero,zero
bfc05b48:	00000021 	move	zero,zero
bfc05b4c:	00000021 	move	zero,zero
bfc05b50:	00000021 	move	zero,zero
bfc05b54:	00000021 	move	zero,zero
bfc05b58:	3c08ac36 	lui	t0,0xac36
bfc05b5c:	3508da6a 	ori	t0,t0,0xda6a
bfc05b60:	3c09ac36 	lui	t1,0xac36
bfc05b64:	3529da6a 	ori	t1,t1,0xda6a
bfc05b68:	1509ffe7 	bne	t0,t1,bfc05b08 <main+0x5b08>
bfc05b6c:	00000000 	nop
bfc05b70:	1000000b 	b	bfc05ba0 <main+0x5ba0>
bfc05b74:	00000000 	nop
bfc05b78:	00000021 	move	zero,zero
bfc05b7c:	00000021 	move	zero,zero
bfc05b80:	00000021 	move	zero,zero
bfc05b84:	00000021 	move	zero,zero
bfc05b88:	00000021 	move	zero,zero
bfc05b8c:	00000021 	move	zero,zero
bfc05b90:	00000021 	move	zero,zero
bfc05b94:	00000021 	move	zero,zero
bfc05b98:	3c123102 	lui	s2,0x3102
bfc05b9c:	36521800 	ori	s2,s2,0x1800
bfc05ba0:	00000000 	nop
bfc05ba4:	24140000 	li	s4,0
bfc05ba8:	1614288f 	bne	s0,s4,bfc0fde8 <inst_error>
bfc05bac:	00000000 	nop
bfc05bb0:	24150000 	li	s5,0
bfc05bb4:	1655288c 	bne	s2,s5,bfc0fde8 <inst_error>
bfc05bb8:	00000000 	nop
bfc05bbc:	3c0c6120 	lui	t4,0x6120
bfc05bc0:	358c0d30 	ori	t4,t4,0xd30
bfc05bc4:	3c0d958d 	lui	t5,0x958d
bfc05bc8:	35adb914 	ori	t5,t5,0xb914
bfc05bcc:	24100000 	li	s0,0
bfc05bd0:	24120000 	li	s2,0
bfc05bd4:	10000015 	b	bfc05c2c <main+0x5c2c>
bfc05bd8:	00000000 	nop
bfc05bdc:	3c106120 	lui	s0,0x6120
bfc05be0:	36100d30 	ori	s0,s0,0xd30
bfc05be4:	15280021 	bne	t1,t0,bfc05c6c <main+0x5c6c>
bfc05be8:	00000000 	nop
bfc05bec:	10000021 	b	bfc05c74 <main+0x5c74>
bfc05bf0:	00000000 	nop
bfc05bf4:	00000021 	move	zero,zero
bfc05bf8:	00000021 	move	zero,zero
bfc05bfc:	00000021 	move	zero,zero
bfc05c00:	00000021 	move	zero,zero
bfc05c04:	00000021 	move	zero,zero
bfc05c08:	00000021 	move	zero,zero
bfc05c0c:	00000021 	move	zero,zero
bfc05c10:	00000021 	move	zero,zero
bfc05c14:	00000021 	move	zero,zero
bfc05c18:	00000021 	move	zero,zero
bfc05c1c:	00000021 	move	zero,zero
bfc05c20:	00000021 	move	zero,zero
bfc05c24:	00000021 	move	zero,zero
bfc05c28:	00000021 	move	zero,zero
bfc05c2c:	3c08af9d 	lui	t0,0xaf9d
bfc05c30:	3508c450 	ori	t0,t0,0xc450
bfc05c34:	3c09af9d 	lui	t1,0xaf9d
bfc05c38:	3529c450 	ori	t1,t1,0xc450
bfc05c3c:	1509ffe7 	bne	t0,t1,bfc05bdc <main+0x5bdc>
bfc05c40:	00000000 	nop
bfc05c44:	1000000b 	b	bfc05c74 <main+0x5c74>
bfc05c48:	00000000 	nop
bfc05c4c:	00000021 	move	zero,zero
bfc05c50:	00000021 	move	zero,zero
bfc05c54:	00000021 	move	zero,zero
bfc05c58:	00000021 	move	zero,zero
bfc05c5c:	00000021 	move	zero,zero
bfc05c60:	00000021 	move	zero,zero
bfc05c64:	00000021 	move	zero,zero
bfc05c68:	00000021 	move	zero,zero
bfc05c6c:	3c12958d 	lui	s2,0x958d
bfc05c70:	3652b914 	ori	s2,s2,0xb914
bfc05c74:	00000000 	nop
bfc05c78:	24140000 	li	s4,0
bfc05c7c:	1614285a 	bne	s0,s4,bfc0fde8 <inst_error>
bfc05c80:	00000000 	nop
bfc05c84:	24150000 	li	s5,0
bfc05c88:	16552857 	bne	s2,s5,bfc0fde8 <inst_error>
bfc05c8c:	00000000 	nop
bfc05c90:	3c0c39aa 	lui	t4,0x39aa
bfc05c94:	358c7698 	ori	t4,t4,0x7698
bfc05c98:	3c0dab1b 	lui	t5,0xab1b
bfc05c9c:	35adccf0 	ori	t5,t5,0xccf0
bfc05ca0:	24100000 	li	s0,0
bfc05ca4:	24120000 	li	s2,0
bfc05ca8:	10000015 	b	bfc05d00 <main+0x5d00>
bfc05cac:	00000000 	nop
bfc05cb0:	3c1039aa 	lui	s0,0x39aa
bfc05cb4:	36107698 	ori	s0,s0,0x7698
bfc05cb8:	15280021 	bne	t1,t0,bfc05d40 <main+0x5d40>
bfc05cbc:	00000000 	nop
bfc05cc0:	10000021 	b	bfc05d48 <main+0x5d48>
bfc05cc4:	00000000 	nop
bfc05cc8:	00000021 	move	zero,zero
bfc05ccc:	00000021 	move	zero,zero
bfc05cd0:	00000021 	move	zero,zero
bfc05cd4:	00000021 	move	zero,zero
bfc05cd8:	00000021 	move	zero,zero
bfc05cdc:	00000021 	move	zero,zero
bfc05ce0:	00000021 	move	zero,zero
bfc05ce4:	00000021 	move	zero,zero
bfc05ce8:	00000021 	move	zero,zero
bfc05cec:	00000021 	move	zero,zero
bfc05cf0:	00000021 	move	zero,zero
bfc05cf4:	00000021 	move	zero,zero
bfc05cf8:	00000021 	move	zero,zero
bfc05cfc:	00000021 	move	zero,zero
bfc05d00:	3c084da6 	lui	t0,0x4da6
bfc05d04:	35083b66 	ori	t0,t0,0x3b66
bfc05d08:	3c094da6 	lui	t1,0x4da6
bfc05d0c:	35293b66 	ori	t1,t1,0x3b66
bfc05d10:	1509ffe7 	bne	t0,t1,bfc05cb0 <main+0x5cb0>
bfc05d14:	00000000 	nop
bfc05d18:	1000000b 	b	bfc05d48 <main+0x5d48>
bfc05d1c:	00000000 	nop
bfc05d20:	00000021 	move	zero,zero
bfc05d24:	00000021 	move	zero,zero
bfc05d28:	00000021 	move	zero,zero
bfc05d2c:	00000021 	move	zero,zero
bfc05d30:	00000021 	move	zero,zero
bfc05d34:	00000021 	move	zero,zero
bfc05d38:	00000021 	move	zero,zero
bfc05d3c:	00000021 	move	zero,zero
bfc05d40:	3c12ab1b 	lui	s2,0xab1b
bfc05d44:	3652ccf0 	ori	s2,s2,0xccf0
bfc05d48:	00000000 	nop
bfc05d4c:	24140000 	li	s4,0
bfc05d50:	16142825 	bne	s0,s4,bfc0fde8 <inst_error>
bfc05d54:	00000000 	nop
bfc05d58:	24150000 	li	s5,0
bfc05d5c:	16552822 	bne	s2,s5,bfc0fde8 <inst_error>
bfc05d60:	00000000 	nop
bfc05d64:	3c0cdb5f 	lui	t4,0xdb5f
bfc05d68:	358c3f6a 	ori	t4,t4,0x3f6a
bfc05d6c:	3c0d5702 	lui	t5,0x5702
bfc05d70:	35ad1f00 	ori	t5,t5,0x1f00
bfc05d74:	24100000 	li	s0,0
bfc05d78:	24120000 	li	s2,0
bfc05d7c:	10000015 	b	bfc05dd4 <main+0x5dd4>
bfc05d80:	00000000 	nop
bfc05d84:	3c10db5f 	lui	s0,0xdb5f
bfc05d88:	36103f6a 	ori	s0,s0,0x3f6a
bfc05d8c:	15280021 	bne	t1,t0,bfc05e14 <main+0x5e14>
bfc05d90:	00000000 	nop
bfc05d94:	10000021 	b	bfc05e1c <main+0x5e1c>
bfc05d98:	00000000 	nop
bfc05d9c:	00000021 	move	zero,zero
bfc05da0:	00000021 	move	zero,zero
bfc05da4:	00000021 	move	zero,zero
bfc05da8:	00000021 	move	zero,zero
bfc05dac:	00000021 	move	zero,zero
bfc05db0:	00000021 	move	zero,zero
bfc05db4:	00000021 	move	zero,zero
bfc05db8:	00000021 	move	zero,zero
bfc05dbc:	00000021 	move	zero,zero
bfc05dc0:	00000021 	move	zero,zero
bfc05dc4:	00000021 	move	zero,zero
bfc05dc8:	00000021 	move	zero,zero
bfc05dcc:	00000021 	move	zero,zero
bfc05dd0:	00000021 	move	zero,zero
bfc05dd4:	3c08ea36 	lui	t0,0xea36
bfc05dd8:	3508a755 	ori	t0,t0,0xa755
bfc05ddc:	3c09ea36 	lui	t1,0xea36
bfc05de0:	3529a755 	ori	t1,t1,0xa755
bfc05de4:	1509ffe7 	bne	t0,t1,bfc05d84 <main+0x5d84>
bfc05de8:	00000000 	nop
bfc05dec:	1000000b 	b	bfc05e1c <main+0x5e1c>
bfc05df0:	00000000 	nop
bfc05df4:	00000021 	move	zero,zero
bfc05df8:	00000021 	move	zero,zero
bfc05dfc:	00000021 	move	zero,zero
bfc05e00:	00000021 	move	zero,zero
bfc05e04:	00000021 	move	zero,zero
bfc05e08:	00000021 	move	zero,zero
bfc05e0c:	00000021 	move	zero,zero
bfc05e10:	00000021 	move	zero,zero
bfc05e14:	3c125702 	lui	s2,0x5702
bfc05e18:	36521f00 	ori	s2,s2,0x1f00
bfc05e1c:	00000000 	nop
bfc05e20:	24140000 	li	s4,0
bfc05e24:	161427f0 	bne	s0,s4,bfc0fde8 <inst_error>
bfc05e28:	00000000 	nop
bfc05e2c:	24150000 	li	s5,0
bfc05e30:	165527ed 	bne	s2,s5,bfc0fde8 <inst_error>
bfc05e34:	00000000 	nop
bfc05e38:	3c0cf195 	lui	t4,0xf195
bfc05e3c:	358c6200 	ori	t4,t4,0x6200
bfc05e40:	3c0d71fe 	lui	t5,0x71fe
bfc05e44:	35ad0a80 	ori	t5,t5,0xa80
bfc05e48:	24100000 	li	s0,0
bfc05e4c:	24120000 	li	s2,0
bfc05e50:	10000015 	b	bfc05ea8 <main+0x5ea8>
bfc05e54:	00000000 	nop
bfc05e58:	3c10f195 	lui	s0,0xf195
bfc05e5c:	36106200 	ori	s0,s0,0x6200
bfc05e60:	15280021 	bne	t1,t0,bfc05ee8 <main+0x5ee8>
bfc05e64:	00000000 	nop
bfc05e68:	10000021 	b	bfc05ef0 <main+0x5ef0>
bfc05e6c:	00000000 	nop
bfc05e70:	00000021 	move	zero,zero
bfc05e74:	00000021 	move	zero,zero
bfc05e78:	00000021 	move	zero,zero
bfc05e7c:	00000021 	move	zero,zero
bfc05e80:	00000021 	move	zero,zero
bfc05e84:	00000021 	move	zero,zero
bfc05e88:	00000021 	move	zero,zero
bfc05e8c:	00000021 	move	zero,zero
bfc05e90:	00000021 	move	zero,zero
bfc05e94:	00000021 	move	zero,zero
bfc05e98:	00000021 	move	zero,zero
bfc05e9c:	00000021 	move	zero,zero
bfc05ea0:	00000021 	move	zero,zero
bfc05ea4:	00000021 	move	zero,zero
bfc05ea8:	3c08992d 	lui	t0,0x992d
bfc05eac:	35084718 	ori	t0,t0,0x4718
bfc05eb0:	3c09992d 	lui	t1,0x992d
bfc05eb4:	35294718 	ori	t1,t1,0x4718
bfc05eb8:	1509ffe7 	bne	t0,t1,bfc05e58 <main+0x5e58>
bfc05ebc:	00000000 	nop
bfc05ec0:	1000000b 	b	bfc05ef0 <main+0x5ef0>
bfc05ec4:	00000000 	nop
bfc05ec8:	00000021 	move	zero,zero
bfc05ecc:	00000021 	move	zero,zero
bfc05ed0:	00000021 	move	zero,zero
bfc05ed4:	00000021 	move	zero,zero
bfc05ed8:	00000021 	move	zero,zero
bfc05edc:	00000021 	move	zero,zero
bfc05ee0:	00000021 	move	zero,zero
bfc05ee4:	00000021 	move	zero,zero
bfc05ee8:	3c1271fe 	lui	s2,0x71fe
bfc05eec:	36520a80 	ori	s2,s2,0xa80
bfc05ef0:	00000000 	nop
bfc05ef4:	24140000 	li	s4,0
bfc05ef8:	161427bb 	bne	s0,s4,bfc0fde8 <inst_error>
bfc05efc:	00000000 	nop
bfc05f00:	24150000 	li	s5,0
bfc05f04:	165527b8 	bne	s2,s5,bfc0fde8 <inst_error>
bfc05f08:	00000000 	nop
bfc05f0c:	3c0c8ebf 	lui	t4,0x8ebf
bfc05f10:	358c96fc 	ori	t4,t4,0x96fc
bfc05f14:	3c0d31e2 	lui	t5,0x31e2
bfc05f18:	35add860 	ori	t5,t5,0xd860
bfc05f1c:	24100000 	li	s0,0
bfc05f20:	24120000 	li	s2,0
bfc05f24:	10000015 	b	bfc05f7c <main+0x5f7c>
bfc05f28:	00000000 	nop
bfc05f2c:	3c108ebf 	lui	s0,0x8ebf
bfc05f30:	361096fc 	ori	s0,s0,0x96fc
bfc05f34:	15280021 	bne	t1,t0,bfc05fbc <main+0x5fbc>
bfc05f38:	00000000 	nop
bfc05f3c:	10000021 	b	bfc05fc4 <main+0x5fc4>
bfc05f40:	00000000 	nop
bfc05f44:	00000021 	move	zero,zero
bfc05f48:	00000021 	move	zero,zero
bfc05f4c:	00000021 	move	zero,zero
bfc05f50:	00000021 	move	zero,zero
bfc05f54:	00000021 	move	zero,zero
bfc05f58:	00000021 	move	zero,zero
bfc05f5c:	00000021 	move	zero,zero
bfc05f60:	00000021 	move	zero,zero
bfc05f64:	00000021 	move	zero,zero
bfc05f68:	00000021 	move	zero,zero
bfc05f6c:	00000021 	move	zero,zero
bfc05f70:	00000021 	move	zero,zero
bfc05f74:	00000021 	move	zero,zero
bfc05f78:	00000021 	move	zero,zero
bfc05f7c:	3c08b54b 	lui	t0,0xb54b
bfc05f80:	350896e8 	ori	t0,t0,0x96e8
bfc05f84:	3c09b54b 	lui	t1,0xb54b
bfc05f88:	352996e8 	ori	t1,t1,0x96e8
bfc05f8c:	1509ffe7 	bne	t0,t1,bfc05f2c <main+0x5f2c>
bfc05f90:	00000000 	nop
bfc05f94:	1000000b 	b	bfc05fc4 <main+0x5fc4>
bfc05f98:	00000000 	nop
bfc05f9c:	00000021 	move	zero,zero
bfc05fa0:	00000021 	move	zero,zero
bfc05fa4:	00000021 	move	zero,zero
bfc05fa8:	00000021 	move	zero,zero
bfc05fac:	00000021 	move	zero,zero
bfc05fb0:	00000021 	move	zero,zero
bfc05fb4:	00000021 	move	zero,zero
bfc05fb8:	00000021 	move	zero,zero
bfc05fbc:	3c1231e2 	lui	s2,0x31e2
bfc05fc0:	3652d860 	ori	s2,s2,0xd860
bfc05fc4:	00000000 	nop
bfc05fc8:	24140000 	li	s4,0
bfc05fcc:	16142786 	bne	s0,s4,bfc0fde8 <inst_error>
bfc05fd0:	00000000 	nop
bfc05fd4:	24150000 	li	s5,0
bfc05fd8:	16552783 	bne	s2,s5,bfc0fde8 <inst_error>
bfc05fdc:	00000000 	nop
bfc05fe0:	3c0cca90 	lui	t4,0xca90
bfc05fe4:	358cbaa6 	ori	t4,t4,0xbaa6
bfc05fe8:	3c0d4091 	lui	t5,0x4091
bfc05fec:	35adcd6c 	ori	t5,t5,0xcd6c
bfc05ff0:	24100000 	li	s0,0
bfc05ff4:	24120000 	li	s2,0
bfc05ff8:	10000015 	b	bfc06050 <main+0x6050>
bfc05ffc:	00000000 	nop
bfc06000:	3c10ca90 	lui	s0,0xca90
bfc06004:	3610baa6 	ori	s0,s0,0xbaa6
bfc06008:	15280021 	bne	t1,t0,bfc06090 <main+0x6090>
bfc0600c:	00000000 	nop
bfc06010:	10000021 	b	bfc06098 <main+0x6098>
bfc06014:	00000000 	nop
bfc06018:	00000021 	move	zero,zero
bfc0601c:	00000021 	move	zero,zero
bfc06020:	00000021 	move	zero,zero
bfc06024:	00000021 	move	zero,zero
bfc06028:	00000021 	move	zero,zero
bfc0602c:	00000021 	move	zero,zero
bfc06030:	00000021 	move	zero,zero
bfc06034:	00000021 	move	zero,zero
bfc06038:	00000021 	move	zero,zero
bfc0603c:	00000021 	move	zero,zero
bfc06040:	00000021 	move	zero,zero
bfc06044:	00000021 	move	zero,zero
bfc06048:	00000021 	move	zero,zero
bfc0604c:	00000021 	move	zero,zero
bfc06050:	3c08c536 	lui	t0,0xc536
bfc06054:	350890c4 	ori	t0,t0,0x90c4
bfc06058:	3c09c536 	lui	t1,0xc536
bfc0605c:	352990c4 	ori	t1,t1,0x90c4
bfc06060:	1509ffe7 	bne	t0,t1,bfc06000 <main+0x6000>
bfc06064:	00000000 	nop
bfc06068:	1000000b 	b	bfc06098 <main+0x6098>
bfc0606c:	00000000 	nop
bfc06070:	00000021 	move	zero,zero
bfc06074:	00000021 	move	zero,zero
bfc06078:	00000021 	move	zero,zero
bfc0607c:	00000021 	move	zero,zero
bfc06080:	00000021 	move	zero,zero
bfc06084:	00000021 	move	zero,zero
bfc06088:	00000021 	move	zero,zero
bfc0608c:	00000021 	move	zero,zero
bfc06090:	3c124091 	lui	s2,0x4091
bfc06094:	3652cd6c 	ori	s2,s2,0xcd6c
bfc06098:	00000000 	nop
bfc0609c:	24140000 	li	s4,0
bfc060a0:	16142751 	bne	s0,s4,bfc0fde8 <inst_error>
bfc060a4:	00000000 	nop
bfc060a8:	24150000 	li	s5,0
bfc060ac:	1655274e 	bne	s2,s5,bfc0fde8 <inst_error>
bfc060b0:	00000000 	nop
bfc060b4:	3c0c67fc 	lui	t4,0x67fc
bfc060b8:	358cc470 	ori	t4,t4,0xc470
bfc060bc:	3c0daf74 	lui	t5,0xaf74
bfc060c0:	35ad8ec8 	ori	t5,t5,0x8ec8
bfc060c4:	24100000 	li	s0,0
bfc060c8:	24120000 	li	s2,0
bfc060cc:	10000015 	b	bfc06124 <main+0x6124>
bfc060d0:	00000000 	nop
bfc060d4:	3c1067fc 	lui	s0,0x67fc
bfc060d8:	3610c470 	ori	s0,s0,0xc470
bfc060dc:	15280021 	bne	t1,t0,bfc06164 <main+0x6164>
bfc060e0:	00000000 	nop
bfc060e4:	10000021 	b	bfc0616c <main+0x616c>
bfc060e8:	00000000 	nop
bfc060ec:	00000021 	move	zero,zero
bfc060f0:	00000021 	move	zero,zero
bfc060f4:	00000021 	move	zero,zero
bfc060f8:	00000021 	move	zero,zero
bfc060fc:	00000021 	move	zero,zero
bfc06100:	00000021 	move	zero,zero
bfc06104:	00000021 	move	zero,zero
bfc06108:	00000021 	move	zero,zero
bfc0610c:	00000021 	move	zero,zero
bfc06110:	00000021 	move	zero,zero
bfc06114:	00000021 	move	zero,zero
bfc06118:	00000021 	move	zero,zero
bfc0611c:	00000021 	move	zero,zero
bfc06120:	00000021 	move	zero,zero
bfc06124:	3c082fc3 	lui	t0,0x2fc3
bfc06128:	3508dbde 	ori	t0,t0,0xdbde
bfc0612c:	3c092fc3 	lui	t1,0x2fc3
bfc06130:	3529dbde 	ori	t1,t1,0xdbde
bfc06134:	1509ffe7 	bne	t0,t1,bfc060d4 <main+0x60d4>
bfc06138:	00000000 	nop
bfc0613c:	1000000b 	b	bfc0616c <main+0x616c>
bfc06140:	00000000 	nop
bfc06144:	00000021 	move	zero,zero
bfc06148:	00000021 	move	zero,zero
bfc0614c:	00000021 	move	zero,zero
bfc06150:	00000021 	move	zero,zero
bfc06154:	00000021 	move	zero,zero
bfc06158:	00000021 	move	zero,zero
bfc0615c:	00000021 	move	zero,zero
bfc06160:	00000021 	move	zero,zero
bfc06164:	3c12af74 	lui	s2,0xaf74
bfc06168:	36528ec8 	ori	s2,s2,0x8ec8
bfc0616c:	00000000 	nop
bfc06170:	24140000 	li	s4,0
bfc06174:	1614271c 	bne	s0,s4,bfc0fde8 <inst_error>
bfc06178:	00000000 	nop
bfc0617c:	24150000 	li	s5,0
bfc06180:	16552719 	bne	s2,s5,bfc0fde8 <inst_error>
bfc06184:	00000000 	nop
bfc06188:	3c0cea5e 	lui	t4,0xea5e
bfc0618c:	358c83e8 	ori	t4,t4,0x83e8
bfc06190:	3c0dc6aa 	lui	t5,0xc6aa
bfc06194:	35ad58f8 	ori	t5,t5,0x58f8
bfc06198:	24100000 	li	s0,0
bfc0619c:	24120000 	li	s2,0
bfc061a0:	10000015 	b	bfc061f8 <main+0x61f8>
bfc061a4:	00000000 	nop
bfc061a8:	3c10ea5e 	lui	s0,0xea5e
bfc061ac:	361083e8 	ori	s0,s0,0x83e8
bfc061b0:	15280021 	bne	t1,t0,bfc06238 <main+0x6238>
bfc061b4:	00000000 	nop
bfc061b8:	10000021 	b	bfc06240 <main+0x6240>
bfc061bc:	00000000 	nop
bfc061c0:	00000021 	move	zero,zero
bfc061c4:	00000021 	move	zero,zero
bfc061c8:	00000021 	move	zero,zero
bfc061cc:	00000021 	move	zero,zero
bfc061d0:	00000021 	move	zero,zero
bfc061d4:	00000021 	move	zero,zero
bfc061d8:	00000021 	move	zero,zero
bfc061dc:	00000021 	move	zero,zero
bfc061e0:	00000021 	move	zero,zero
bfc061e4:	00000021 	move	zero,zero
bfc061e8:	00000021 	move	zero,zero
bfc061ec:	00000021 	move	zero,zero
bfc061f0:	00000021 	move	zero,zero
bfc061f4:	00000021 	move	zero,zero
bfc061f8:	3c081c06 	lui	t0,0x1c06
bfc061fc:	35084560 	ori	t0,t0,0x4560
bfc06200:	3c091c06 	lui	t1,0x1c06
bfc06204:	35294560 	ori	t1,t1,0x4560
bfc06208:	1509ffe7 	bne	t0,t1,bfc061a8 <main+0x61a8>
bfc0620c:	00000000 	nop
bfc06210:	1000000b 	b	bfc06240 <main+0x6240>
bfc06214:	00000000 	nop
bfc06218:	00000021 	move	zero,zero
bfc0621c:	00000021 	move	zero,zero
bfc06220:	00000021 	move	zero,zero
bfc06224:	00000021 	move	zero,zero
bfc06228:	00000021 	move	zero,zero
bfc0622c:	00000021 	move	zero,zero
bfc06230:	00000021 	move	zero,zero
bfc06234:	00000021 	move	zero,zero
bfc06238:	3c12c6aa 	lui	s2,0xc6aa
bfc0623c:	365258f8 	ori	s2,s2,0x58f8
bfc06240:	00000000 	nop
bfc06244:	24140000 	li	s4,0
bfc06248:	161426e7 	bne	s0,s4,bfc0fde8 <inst_error>
bfc0624c:	00000000 	nop
bfc06250:	24150000 	li	s5,0
bfc06254:	165526e4 	bne	s2,s5,bfc0fde8 <inst_error>
bfc06258:	00000000 	nop
bfc0625c:	3c0c3f66 	lui	t4,0x3f66
bfc06260:	358c76c0 	ori	t4,t4,0x76c0
bfc06264:	3c0d7efd 	lui	t5,0x7efd
bfc06268:	35adfee7 	ori	t5,t5,0xfee7
bfc0626c:	24100000 	li	s0,0
bfc06270:	24120000 	li	s2,0
bfc06274:	10000015 	b	bfc062cc <main+0x62cc>
bfc06278:	00000000 	nop
bfc0627c:	3c103f66 	lui	s0,0x3f66
bfc06280:	361076c0 	ori	s0,s0,0x76c0
bfc06284:	15280021 	bne	t1,t0,bfc0630c <main+0x630c>
bfc06288:	00000000 	nop
bfc0628c:	10000021 	b	bfc06314 <main+0x6314>
bfc06290:	00000000 	nop
bfc06294:	00000021 	move	zero,zero
bfc06298:	00000021 	move	zero,zero
bfc0629c:	00000021 	move	zero,zero
bfc062a0:	00000021 	move	zero,zero
bfc062a4:	00000021 	move	zero,zero
bfc062a8:	00000021 	move	zero,zero
bfc062ac:	00000021 	move	zero,zero
bfc062b0:	00000021 	move	zero,zero
bfc062b4:	00000021 	move	zero,zero
bfc062b8:	00000021 	move	zero,zero
bfc062bc:	00000021 	move	zero,zero
bfc062c0:	00000021 	move	zero,zero
bfc062c4:	00000021 	move	zero,zero
bfc062c8:	00000021 	move	zero,zero
bfc062cc:	3c08c12b 	lui	t0,0xc12b
bfc062d0:	35084332 	ori	t0,t0,0x4332
bfc062d4:	3c09c12b 	lui	t1,0xc12b
bfc062d8:	35294332 	ori	t1,t1,0x4332
bfc062dc:	1509ffe7 	bne	t0,t1,bfc0627c <main+0x627c>
bfc062e0:	00000000 	nop
bfc062e4:	1000000b 	b	bfc06314 <main+0x6314>
bfc062e8:	00000000 	nop
bfc062ec:	00000021 	move	zero,zero
bfc062f0:	00000021 	move	zero,zero
bfc062f4:	00000021 	move	zero,zero
bfc062f8:	00000021 	move	zero,zero
bfc062fc:	00000021 	move	zero,zero
bfc06300:	00000021 	move	zero,zero
bfc06304:	00000021 	move	zero,zero
bfc06308:	00000021 	move	zero,zero
bfc0630c:	3c127efd 	lui	s2,0x7efd
bfc06310:	3652fee7 	ori	s2,s2,0xfee7
bfc06314:	00000000 	nop
bfc06318:	24140000 	li	s4,0
bfc0631c:	161426b2 	bne	s0,s4,bfc0fde8 <inst_error>
bfc06320:	00000000 	nop
bfc06324:	24150000 	li	s5,0
bfc06328:	165526af 	bne	s2,s5,bfc0fde8 <inst_error>
bfc0632c:	00000000 	nop
bfc06330:	3c0c5e7f 	lui	t4,0x5e7f
bfc06334:	358ca680 	ori	t4,t4,0xa680
bfc06338:	3c0d4595 	lui	t5,0x4595
bfc0633c:	35add750 	ori	t5,t5,0xd750
bfc06340:	24100000 	li	s0,0
bfc06344:	24120000 	li	s2,0
bfc06348:	10000015 	b	bfc063a0 <main+0x63a0>
bfc0634c:	00000000 	nop
bfc06350:	3c105e7f 	lui	s0,0x5e7f
bfc06354:	3610a680 	ori	s0,s0,0xa680
bfc06358:	15280021 	bne	t1,t0,bfc063e0 <main+0x63e0>
bfc0635c:	00000000 	nop
bfc06360:	10000021 	b	bfc063e8 <main+0x63e8>
bfc06364:	00000000 	nop
bfc06368:	00000021 	move	zero,zero
bfc0636c:	00000021 	move	zero,zero
bfc06370:	00000021 	move	zero,zero
bfc06374:	00000021 	move	zero,zero
bfc06378:	00000021 	move	zero,zero
bfc0637c:	00000021 	move	zero,zero
bfc06380:	00000021 	move	zero,zero
bfc06384:	00000021 	move	zero,zero
bfc06388:	00000021 	move	zero,zero
bfc0638c:	00000021 	move	zero,zero
bfc06390:	00000021 	move	zero,zero
bfc06394:	00000021 	move	zero,zero
bfc06398:	00000021 	move	zero,zero
bfc0639c:	00000021 	move	zero,zero
bfc063a0:	3c089759 	lui	t0,0x9759
bfc063a4:	35081c86 	ori	t0,t0,0x1c86
bfc063a8:	3c099759 	lui	t1,0x9759
bfc063ac:	35291c86 	ori	t1,t1,0x1c86
bfc063b0:	1509ffe7 	bne	t0,t1,bfc06350 <main+0x6350>
bfc063b4:	00000000 	nop
bfc063b8:	1000000b 	b	bfc063e8 <main+0x63e8>
bfc063bc:	00000000 	nop
bfc063c0:	00000021 	move	zero,zero
bfc063c4:	00000021 	move	zero,zero
bfc063c8:	00000021 	move	zero,zero
bfc063cc:	00000021 	move	zero,zero
bfc063d0:	00000021 	move	zero,zero
bfc063d4:	00000021 	move	zero,zero
bfc063d8:	00000021 	move	zero,zero
bfc063dc:	00000021 	move	zero,zero
bfc063e0:	3c124595 	lui	s2,0x4595
bfc063e4:	3652d750 	ori	s2,s2,0xd750
bfc063e8:	00000000 	nop
bfc063ec:	24140000 	li	s4,0
bfc063f0:	1614267d 	bne	s0,s4,bfc0fde8 <inst_error>
bfc063f4:	00000000 	nop
bfc063f8:	24150000 	li	s5,0
bfc063fc:	1655267a 	bne	s2,s5,bfc0fde8 <inst_error>
bfc06400:	00000000 	nop
bfc06404:	3c0c846d 	lui	t4,0x846d
bfc06408:	358c8928 	ori	t4,t4,0x8928
bfc0640c:	3c0da920 	lui	t5,0xa920
bfc06410:	35ada654 	ori	t5,t5,0xa654
bfc06414:	24100000 	li	s0,0
bfc06418:	24120000 	li	s2,0
bfc0641c:	10000015 	b	bfc06474 <main+0x6474>
bfc06420:	00000000 	nop
bfc06424:	3c10846d 	lui	s0,0x846d
bfc06428:	36108928 	ori	s0,s0,0x8928
bfc0642c:	15280021 	bne	t1,t0,bfc064b4 <main+0x64b4>
bfc06430:	00000000 	nop
bfc06434:	10000021 	b	bfc064bc <main+0x64bc>
bfc06438:	00000000 	nop
bfc0643c:	00000021 	move	zero,zero
bfc06440:	00000021 	move	zero,zero
bfc06444:	00000021 	move	zero,zero
bfc06448:	00000021 	move	zero,zero
bfc0644c:	00000021 	move	zero,zero
bfc06450:	00000021 	move	zero,zero
bfc06454:	00000021 	move	zero,zero
bfc06458:	00000021 	move	zero,zero
bfc0645c:	00000021 	move	zero,zero
bfc06460:	00000021 	move	zero,zero
bfc06464:	00000021 	move	zero,zero
bfc06468:	00000021 	move	zero,zero
bfc0646c:	00000021 	move	zero,zero
bfc06470:	00000021 	move	zero,zero
bfc06474:	3c08dbd8 	lui	t0,0xdbd8
bfc06478:	3508b1e0 	ori	t0,t0,0xb1e0
bfc0647c:	3c09dbd8 	lui	t1,0xdbd8
bfc06480:	3529b1e0 	ori	t1,t1,0xb1e0
bfc06484:	1509ffe7 	bne	t0,t1,bfc06424 <main+0x6424>
bfc06488:	00000000 	nop
bfc0648c:	1000000b 	b	bfc064bc <main+0x64bc>
bfc06490:	00000000 	nop
bfc06494:	00000021 	move	zero,zero
bfc06498:	00000021 	move	zero,zero
bfc0649c:	00000021 	move	zero,zero
bfc064a0:	00000021 	move	zero,zero
bfc064a4:	00000021 	move	zero,zero
bfc064a8:	00000021 	move	zero,zero
bfc064ac:	00000021 	move	zero,zero
bfc064b0:	00000021 	move	zero,zero
bfc064b4:	3c12a920 	lui	s2,0xa920
bfc064b8:	3652a654 	ori	s2,s2,0xa654
bfc064bc:	00000000 	nop
bfc064c0:	24140000 	li	s4,0
bfc064c4:	16142648 	bne	s0,s4,bfc0fde8 <inst_error>
bfc064c8:	00000000 	nop
bfc064cc:	24150000 	li	s5,0
bfc064d0:	16552645 	bne	s2,s5,bfc0fde8 <inst_error>
bfc064d4:	00000000 	nop
bfc064d8:	3c0cbe9e 	lui	t4,0xbe9e
bfc064dc:	358c2d88 	ori	t4,t4,0x2d88
bfc064e0:	3c0d46cf 	lui	t5,0x46cf
bfc064e4:	35ad3c58 	ori	t5,t5,0x3c58
bfc064e8:	24100000 	li	s0,0
bfc064ec:	24120000 	li	s2,0
bfc064f0:	10000015 	b	bfc06548 <main+0x6548>
bfc064f4:	00000000 	nop
bfc064f8:	3c10be9e 	lui	s0,0xbe9e
bfc064fc:	36102d88 	ori	s0,s0,0x2d88
bfc06500:	15280021 	bne	t1,t0,bfc06588 <main+0x6588>
bfc06504:	00000000 	nop
bfc06508:	10000021 	b	bfc06590 <main+0x6590>
bfc0650c:	00000000 	nop
bfc06510:	00000021 	move	zero,zero
bfc06514:	00000021 	move	zero,zero
bfc06518:	00000021 	move	zero,zero
bfc0651c:	00000021 	move	zero,zero
bfc06520:	00000021 	move	zero,zero
bfc06524:	00000021 	move	zero,zero
bfc06528:	00000021 	move	zero,zero
bfc0652c:	00000021 	move	zero,zero
bfc06530:	00000021 	move	zero,zero
bfc06534:	00000021 	move	zero,zero
bfc06538:	00000021 	move	zero,zero
bfc0653c:	00000021 	move	zero,zero
bfc06540:	00000021 	move	zero,zero
bfc06544:	00000021 	move	zero,zero
bfc06548:	3c0855d0 	lui	t0,0x55d0
bfc0654c:	3508c9a0 	ori	t0,t0,0xc9a0
bfc06550:	3c0955d0 	lui	t1,0x55d0
bfc06554:	3529c9a0 	ori	t1,t1,0xc9a0
bfc06558:	1509ffe7 	bne	t0,t1,bfc064f8 <main+0x64f8>
bfc0655c:	00000000 	nop
bfc06560:	1000000b 	b	bfc06590 <main+0x6590>
bfc06564:	00000000 	nop
bfc06568:	00000021 	move	zero,zero
bfc0656c:	00000021 	move	zero,zero
bfc06570:	00000021 	move	zero,zero
bfc06574:	00000021 	move	zero,zero
bfc06578:	00000021 	move	zero,zero
bfc0657c:	00000021 	move	zero,zero
bfc06580:	00000021 	move	zero,zero
bfc06584:	00000021 	move	zero,zero
bfc06588:	3c1246cf 	lui	s2,0x46cf
bfc0658c:	36523c58 	ori	s2,s2,0x3c58
bfc06590:	00000000 	nop
bfc06594:	24140000 	li	s4,0
bfc06598:	16142613 	bne	s0,s4,bfc0fde8 <inst_error>
bfc0659c:	00000000 	nop
bfc065a0:	24150000 	li	s5,0
bfc065a4:	16552610 	bne	s2,s5,bfc0fde8 <inst_error>
bfc065a8:	00000000 	nop
bfc065ac:	3c0c1d26 	lui	t4,0x1d26
bfc065b0:	358c7b08 	ori	t4,t4,0x7b08
bfc065b4:	3c0d6302 	lui	t5,0x6302
bfc065b8:	35ad8f40 	ori	t5,t5,0x8f40
bfc065bc:	24100000 	li	s0,0
bfc065c0:	24120000 	li	s2,0
bfc065c4:	10000015 	b	bfc0661c <main+0x661c>
bfc065c8:	00000000 	nop
bfc065cc:	3c101d26 	lui	s0,0x1d26
bfc065d0:	36107b08 	ori	s0,s0,0x7b08
bfc065d4:	15280021 	bne	t1,t0,bfc0665c <main+0x665c>
bfc065d8:	00000000 	nop
bfc065dc:	10000021 	b	bfc06664 <main+0x6664>
bfc065e0:	00000000 	nop
bfc065e4:	00000021 	move	zero,zero
bfc065e8:	00000021 	move	zero,zero
bfc065ec:	00000021 	move	zero,zero
bfc065f0:	00000021 	move	zero,zero
bfc065f4:	00000021 	move	zero,zero
bfc065f8:	00000021 	move	zero,zero
bfc065fc:	00000021 	move	zero,zero
bfc06600:	00000021 	move	zero,zero
bfc06604:	00000021 	move	zero,zero
bfc06608:	00000021 	move	zero,zero
bfc0660c:	00000021 	move	zero,zero
bfc06610:	00000021 	move	zero,zero
bfc06614:	00000021 	move	zero,zero
bfc06618:	00000021 	move	zero,zero
bfc0661c:	3c08c1f1 	lui	t0,0xc1f1
bfc06620:	3508857c 	ori	t0,t0,0x857c
bfc06624:	3c09c1f1 	lui	t1,0xc1f1
bfc06628:	3529857c 	ori	t1,t1,0x857c
bfc0662c:	1509ffe7 	bne	t0,t1,bfc065cc <main+0x65cc>
bfc06630:	00000000 	nop
bfc06634:	1000000b 	b	bfc06664 <main+0x6664>
bfc06638:	00000000 	nop
bfc0663c:	00000021 	move	zero,zero
bfc06640:	00000021 	move	zero,zero
bfc06644:	00000021 	move	zero,zero
bfc06648:	00000021 	move	zero,zero
bfc0664c:	00000021 	move	zero,zero
bfc06650:	00000021 	move	zero,zero
bfc06654:	00000021 	move	zero,zero
bfc06658:	00000021 	move	zero,zero
bfc0665c:	3c126302 	lui	s2,0x6302
bfc06660:	36528f40 	ori	s2,s2,0x8f40
bfc06664:	00000000 	nop
bfc06668:	24140000 	li	s4,0
bfc0666c:	161425de 	bne	s0,s4,bfc0fde8 <inst_error>
bfc06670:	00000000 	nop
bfc06674:	24150000 	li	s5,0
bfc06678:	165525db 	bne	s2,s5,bfc0fde8 <inst_error>
bfc0667c:	00000000 	nop
bfc06680:	3c0ccc8e 	lui	t4,0xcc8e
bfc06684:	358c0db8 	ori	t4,t4,0xdb8
bfc06688:	3c0de45d 	lui	t5,0xe45d
bfc0668c:	35ad15fe 	ori	t5,t5,0x15fe
bfc06690:	24100000 	li	s0,0
bfc06694:	24120000 	li	s2,0
bfc06698:	10000015 	b	bfc066f0 <main+0x66f0>
bfc0669c:	00000000 	nop
bfc066a0:	3c10cc8e 	lui	s0,0xcc8e
bfc066a4:	36100db8 	ori	s0,s0,0xdb8
bfc066a8:	15280021 	bne	t1,t0,bfc06730 <main+0x6730>
bfc066ac:	00000000 	nop
bfc066b0:	10000021 	b	bfc06738 <main+0x6738>
bfc066b4:	00000000 	nop
bfc066b8:	00000021 	move	zero,zero
bfc066bc:	00000021 	move	zero,zero
bfc066c0:	00000021 	move	zero,zero
bfc066c4:	00000021 	move	zero,zero
bfc066c8:	00000021 	move	zero,zero
bfc066cc:	00000021 	move	zero,zero
bfc066d0:	00000021 	move	zero,zero
bfc066d4:	00000021 	move	zero,zero
bfc066d8:	00000021 	move	zero,zero
bfc066dc:	00000021 	move	zero,zero
bfc066e0:	00000021 	move	zero,zero
bfc066e4:	00000021 	move	zero,zero
bfc066e8:	00000021 	move	zero,zero
bfc066ec:	00000021 	move	zero,zero
bfc066f0:	3c083ea0 	lui	t0,0x3ea0
bfc066f4:	35086ca0 	ori	t0,t0,0x6ca0
bfc066f8:	3c093ea0 	lui	t1,0x3ea0
bfc066fc:	35296ca0 	ori	t1,t1,0x6ca0
bfc06700:	1509ffe7 	bne	t0,t1,bfc066a0 <main+0x66a0>
bfc06704:	00000000 	nop
bfc06708:	1000000b 	b	bfc06738 <main+0x6738>
bfc0670c:	00000000 	nop
bfc06710:	00000021 	move	zero,zero
bfc06714:	00000021 	move	zero,zero
bfc06718:	00000021 	move	zero,zero
bfc0671c:	00000021 	move	zero,zero
bfc06720:	00000021 	move	zero,zero
bfc06724:	00000021 	move	zero,zero
bfc06728:	00000021 	move	zero,zero
bfc0672c:	00000021 	move	zero,zero
bfc06730:	3c12e45d 	lui	s2,0xe45d
bfc06734:	365215fe 	ori	s2,s2,0x15fe
bfc06738:	00000000 	nop
bfc0673c:	24140000 	li	s4,0
bfc06740:	161425a9 	bne	s0,s4,bfc0fde8 <inst_error>
bfc06744:	00000000 	nop
bfc06748:	24150000 	li	s5,0
bfc0674c:	165525a6 	bne	s2,s5,bfc0fde8 <inst_error>
bfc06750:	00000000 	nop
bfc06754:	3c0c13a1 	lui	t4,0x13a1
bfc06758:	358c6f06 	ori	t4,t4,0x6f06
bfc0675c:	3c0de367 	lui	t5,0xe367
bfc06760:	35adbc2c 	ori	t5,t5,0xbc2c
bfc06764:	24100000 	li	s0,0
bfc06768:	24120000 	li	s2,0
bfc0676c:	10000015 	b	bfc067c4 <main+0x67c4>
bfc06770:	00000000 	nop
bfc06774:	3c1013a1 	lui	s0,0x13a1
bfc06778:	36106f06 	ori	s0,s0,0x6f06
bfc0677c:	15280021 	bne	t1,t0,bfc06804 <main+0x6804>
bfc06780:	00000000 	nop
bfc06784:	10000021 	b	bfc0680c <main+0x680c>
bfc06788:	00000000 	nop
bfc0678c:	00000021 	move	zero,zero
bfc06790:	00000021 	move	zero,zero
bfc06794:	00000021 	move	zero,zero
bfc06798:	00000021 	move	zero,zero
bfc0679c:	00000021 	move	zero,zero
bfc067a0:	00000021 	move	zero,zero
bfc067a4:	00000021 	move	zero,zero
bfc067a8:	00000021 	move	zero,zero
bfc067ac:	00000021 	move	zero,zero
bfc067b0:	00000021 	move	zero,zero
bfc067b4:	00000021 	move	zero,zero
bfc067b8:	00000021 	move	zero,zero
bfc067bc:	00000021 	move	zero,zero
bfc067c0:	00000021 	move	zero,zero
bfc067c4:	3c08d020 	lui	t0,0xd020
bfc067c8:	35081a70 	ori	t0,t0,0x1a70
bfc067cc:	3c09d020 	lui	t1,0xd020
bfc067d0:	35291a70 	ori	t1,t1,0x1a70
bfc067d4:	1509ffe7 	bne	t0,t1,bfc06774 <main+0x6774>
bfc067d8:	00000000 	nop
bfc067dc:	1000000b 	b	bfc0680c <main+0x680c>
bfc067e0:	00000000 	nop
bfc067e4:	00000021 	move	zero,zero
bfc067e8:	00000021 	move	zero,zero
bfc067ec:	00000021 	move	zero,zero
bfc067f0:	00000021 	move	zero,zero
bfc067f4:	00000021 	move	zero,zero
bfc067f8:	00000021 	move	zero,zero
bfc067fc:	00000021 	move	zero,zero
bfc06800:	00000021 	move	zero,zero
bfc06804:	3c12e367 	lui	s2,0xe367
bfc06808:	3652bc2c 	ori	s2,s2,0xbc2c
bfc0680c:	00000000 	nop
bfc06810:	24140000 	li	s4,0
bfc06814:	16142574 	bne	s0,s4,bfc0fde8 <inst_error>
bfc06818:	00000000 	nop
bfc0681c:	24150000 	li	s5,0
bfc06820:	16552571 	bne	s2,s5,bfc0fde8 <inst_error>
bfc06824:	00000000 	nop
bfc06828:	3c0cb6b2 	lui	t4,0xb6b2
bfc0682c:	358c2fbb 	ori	t4,t4,0x2fbb
bfc06830:	3c0d3744 	lui	t5,0x3744
bfc06834:	35ad6a48 	ori	t5,t5,0x6a48
bfc06838:	24100000 	li	s0,0
bfc0683c:	24120000 	li	s2,0
bfc06840:	10000015 	b	bfc06898 <main+0x6898>
bfc06844:	00000000 	nop
bfc06848:	3c10b6b2 	lui	s0,0xb6b2
bfc0684c:	36102fbb 	ori	s0,s0,0x2fbb
bfc06850:	15280021 	bne	t1,t0,bfc068d8 <main+0x68d8>
bfc06854:	00000000 	nop
bfc06858:	10000021 	b	bfc068e0 <main+0x68e0>
bfc0685c:	00000000 	nop
bfc06860:	00000021 	move	zero,zero
bfc06864:	00000021 	move	zero,zero
bfc06868:	00000021 	move	zero,zero
bfc0686c:	00000021 	move	zero,zero
bfc06870:	00000021 	move	zero,zero
bfc06874:	00000021 	move	zero,zero
bfc06878:	00000021 	move	zero,zero
bfc0687c:	00000021 	move	zero,zero
bfc06880:	00000021 	move	zero,zero
bfc06884:	00000021 	move	zero,zero
bfc06888:	00000021 	move	zero,zero
bfc0688c:	00000021 	move	zero,zero
bfc06890:	00000021 	move	zero,zero
bfc06894:	00000021 	move	zero,zero
bfc06898:	3c08cd66 	lui	t0,0xcd66
bfc0689c:	3508d7d9 	ori	t0,t0,0xd7d9
bfc068a0:	3c09cd66 	lui	t1,0xcd66
bfc068a4:	3529d7d9 	ori	t1,t1,0xd7d9
bfc068a8:	1509ffe7 	bne	t0,t1,bfc06848 <main+0x6848>
bfc068ac:	00000000 	nop
bfc068b0:	1000000b 	b	bfc068e0 <main+0x68e0>
bfc068b4:	00000000 	nop
bfc068b8:	00000021 	move	zero,zero
bfc068bc:	00000021 	move	zero,zero
bfc068c0:	00000021 	move	zero,zero
bfc068c4:	00000021 	move	zero,zero
bfc068c8:	00000021 	move	zero,zero
bfc068cc:	00000021 	move	zero,zero
bfc068d0:	00000021 	move	zero,zero
bfc068d4:	00000021 	move	zero,zero
bfc068d8:	3c123744 	lui	s2,0x3744
bfc068dc:	36526a48 	ori	s2,s2,0x6a48
bfc068e0:	00000000 	nop
bfc068e4:	24140000 	li	s4,0
bfc068e8:	1614253f 	bne	s0,s4,bfc0fde8 <inst_error>
bfc068ec:	00000000 	nop
bfc068f0:	24150000 	li	s5,0
bfc068f4:	1655253c 	bne	s2,s5,bfc0fde8 <inst_error>
bfc068f8:	00000000 	nop
bfc068fc:	3c0cbcc8 	lui	t4,0xbcc8
bfc06900:	358c6ba8 	ori	t4,t4,0x6ba8
bfc06904:	3c0d596a 	lui	t5,0x596a
bfc06908:	35adbb80 	ori	t5,t5,0xbb80
bfc0690c:	24100000 	li	s0,0
bfc06910:	24120000 	li	s2,0
bfc06914:	10000015 	b	bfc0696c <main+0x696c>
bfc06918:	00000000 	nop
bfc0691c:	3c10bcc8 	lui	s0,0xbcc8
bfc06920:	36106ba8 	ori	s0,s0,0x6ba8
bfc06924:	15280021 	bne	t1,t0,bfc069ac <main+0x69ac>
bfc06928:	00000000 	nop
bfc0692c:	10000021 	b	bfc069b4 <main+0x69b4>
bfc06930:	00000000 	nop
bfc06934:	00000021 	move	zero,zero
bfc06938:	00000021 	move	zero,zero
bfc0693c:	00000021 	move	zero,zero
bfc06940:	00000021 	move	zero,zero
bfc06944:	00000021 	move	zero,zero
bfc06948:	00000021 	move	zero,zero
bfc0694c:	00000021 	move	zero,zero
bfc06950:	00000021 	move	zero,zero
bfc06954:	00000021 	move	zero,zero
bfc06958:	00000021 	move	zero,zero
bfc0695c:	00000021 	move	zero,zero
bfc06960:	00000021 	move	zero,zero
bfc06964:	00000021 	move	zero,zero
bfc06968:	00000021 	move	zero,zero
bfc0696c:	3c08e4e9 	lui	t0,0xe4e9
bfc06970:	3508b0ec 	ori	t0,t0,0xb0ec
bfc06974:	3c09e4e9 	lui	t1,0xe4e9
bfc06978:	3529b0ec 	ori	t1,t1,0xb0ec
bfc0697c:	1509ffe7 	bne	t0,t1,bfc0691c <main+0x691c>
bfc06980:	00000000 	nop
bfc06984:	1000000b 	b	bfc069b4 <main+0x69b4>
bfc06988:	00000000 	nop
bfc0698c:	00000021 	move	zero,zero
bfc06990:	00000021 	move	zero,zero
bfc06994:	00000021 	move	zero,zero
bfc06998:	00000021 	move	zero,zero
bfc0699c:	00000021 	move	zero,zero
bfc069a0:	00000021 	move	zero,zero
bfc069a4:	00000021 	move	zero,zero
bfc069a8:	00000021 	move	zero,zero
bfc069ac:	3c12596a 	lui	s2,0x596a
bfc069b0:	3652bb80 	ori	s2,s2,0xbb80
bfc069b4:	00000000 	nop
bfc069b8:	24140000 	li	s4,0
bfc069bc:	1614250a 	bne	s0,s4,bfc0fde8 <inst_error>
bfc069c0:	00000000 	nop
bfc069c4:	24150000 	li	s5,0
bfc069c8:	16552507 	bne	s2,s5,bfc0fde8 <inst_error>
bfc069cc:	00000000 	nop
bfc069d0:	3c0caa4a 	lui	t4,0xaa4a
bfc069d4:	358cee40 	ori	t4,t4,0xee40
bfc069d8:	3c0da1fe 	lui	t5,0xa1fe
bfc069dc:	35adc8b8 	ori	t5,t5,0xc8b8
bfc069e0:	24100000 	li	s0,0
bfc069e4:	24120000 	li	s2,0
bfc069e8:	10000015 	b	bfc06a40 <main+0x6a40>
bfc069ec:	00000000 	nop
bfc069f0:	3c10aa4a 	lui	s0,0xaa4a
bfc069f4:	3610ee40 	ori	s0,s0,0xee40
bfc069f8:	15280021 	bne	t1,t0,bfc06a80 <main+0x6a80>
bfc069fc:	00000000 	nop
bfc06a00:	10000021 	b	bfc06a88 <main+0x6a88>
bfc06a04:	00000000 	nop
bfc06a08:	00000021 	move	zero,zero
bfc06a0c:	00000021 	move	zero,zero
bfc06a10:	00000021 	move	zero,zero
bfc06a14:	00000021 	move	zero,zero
bfc06a18:	00000021 	move	zero,zero
bfc06a1c:	00000021 	move	zero,zero
bfc06a20:	00000021 	move	zero,zero
bfc06a24:	00000021 	move	zero,zero
bfc06a28:	00000021 	move	zero,zero
bfc06a2c:	00000021 	move	zero,zero
bfc06a30:	00000021 	move	zero,zero
bfc06a34:	00000021 	move	zero,zero
bfc06a38:	00000021 	move	zero,zero
bfc06a3c:	00000021 	move	zero,zero
bfc06a40:	3c082478 	lui	t0,0x2478
bfc06a44:	350815c0 	ori	t0,t0,0x15c0
bfc06a48:	3c092478 	lui	t1,0x2478
bfc06a4c:	352915c0 	ori	t1,t1,0x15c0
bfc06a50:	1509ffe7 	bne	t0,t1,bfc069f0 <main+0x69f0>
bfc06a54:	00000000 	nop
bfc06a58:	1000000b 	b	bfc06a88 <main+0x6a88>
bfc06a5c:	00000000 	nop
bfc06a60:	00000021 	move	zero,zero
bfc06a64:	00000021 	move	zero,zero
bfc06a68:	00000021 	move	zero,zero
bfc06a6c:	00000021 	move	zero,zero
bfc06a70:	00000021 	move	zero,zero
bfc06a74:	00000021 	move	zero,zero
bfc06a78:	00000021 	move	zero,zero
bfc06a7c:	00000021 	move	zero,zero
bfc06a80:	3c12a1fe 	lui	s2,0xa1fe
bfc06a84:	3652c8b8 	ori	s2,s2,0xc8b8
bfc06a88:	00000000 	nop
bfc06a8c:	24140000 	li	s4,0
bfc06a90:	161424d5 	bne	s0,s4,bfc0fde8 <inst_error>
bfc06a94:	00000000 	nop
bfc06a98:	24150000 	li	s5,0
bfc06a9c:	165524d2 	bne	s2,s5,bfc0fde8 <inst_error>
bfc06aa0:	00000000 	nop
bfc06aa4:	3c0c8b0d 	lui	t4,0x8b0d
bfc06aa8:	358c4ef8 	ori	t4,t4,0x4ef8
bfc06aac:	3c0d58cd 	lui	t5,0x58cd
bfc06ab0:	35ad80d8 	ori	t5,t5,0x80d8
bfc06ab4:	24100000 	li	s0,0
bfc06ab8:	24120000 	li	s2,0
bfc06abc:	10000015 	b	bfc06b14 <main+0x6b14>
bfc06ac0:	00000000 	nop
bfc06ac4:	3c108b0d 	lui	s0,0x8b0d
bfc06ac8:	36104ef8 	ori	s0,s0,0x4ef8
bfc06acc:	15280021 	bne	t1,t0,bfc06b54 <main+0x6b54>
bfc06ad0:	00000000 	nop
bfc06ad4:	10000021 	b	bfc06b5c <main+0x6b5c>
bfc06ad8:	00000000 	nop
bfc06adc:	00000021 	move	zero,zero
bfc06ae0:	00000021 	move	zero,zero
bfc06ae4:	00000021 	move	zero,zero
bfc06ae8:	00000021 	move	zero,zero
bfc06aec:	00000021 	move	zero,zero
bfc06af0:	00000021 	move	zero,zero
bfc06af4:	00000021 	move	zero,zero
bfc06af8:	00000021 	move	zero,zero
bfc06afc:	00000021 	move	zero,zero
bfc06b00:	00000021 	move	zero,zero
bfc06b04:	00000021 	move	zero,zero
bfc06b08:	00000021 	move	zero,zero
bfc06b0c:	00000021 	move	zero,zero
bfc06b10:	00000021 	move	zero,zero
bfc06b14:	3c08d7f4 	lui	t0,0xd7f4
bfc06b18:	3508fae0 	ori	t0,t0,0xfae0
bfc06b1c:	3c09d7f4 	lui	t1,0xd7f4
bfc06b20:	3529fae0 	ori	t1,t1,0xfae0
bfc06b24:	1509ffe7 	bne	t0,t1,bfc06ac4 <main+0x6ac4>
bfc06b28:	00000000 	nop
bfc06b2c:	1000000b 	b	bfc06b5c <main+0x6b5c>
bfc06b30:	00000000 	nop
bfc06b34:	00000021 	move	zero,zero
bfc06b38:	00000021 	move	zero,zero
bfc06b3c:	00000021 	move	zero,zero
bfc06b40:	00000021 	move	zero,zero
bfc06b44:	00000021 	move	zero,zero
bfc06b48:	00000021 	move	zero,zero
bfc06b4c:	00000021 	move	zero,zero
bfc06b50:	00000021 	move	zero,zero
bfc06b54:	3c1258cd 	lui	s2,0x58cd
bfc06b58:	365280d8 	ori	s2,s2,0x80d8
bfc06b5c:	00000000 	nop
bfc06b60:	24140000 	li	s4,0
bfc06b64:	161424a0 	bne	s0,s4,bfc0fde8 <inst_error>
bfc06b68:	00000000 	nop
bfc06b6c:	24150000 	li	s5,0
bfc06b70:	1655249d 	bne	s2,s5,bfc0fde8 <inst_error>
bfc06b74:	00000000 	nop
bfc06b78:	3c0c2f4e 	lui	t4,0x2f4e
bfc06b7c:	358c9f7e 	ori	t4,t4,0x9f7e
bfc06b80:	3c0d7bd9 	lui	t5,0x7bd9
bfc06b84:	35adb7e6 	ori	t5,t5,0xb7e6
bfc06b88:	24100000 	li	s0,0
bfc06b8c:	24120000 	li	s2,0
bfc06b90:	10000015 	b	bfc06be8 <main+0x6be8>
bfc06b94:	00000000 	nop
bfc06b98:	3c102f4e 	lui	s0,0x2f4e
bfc06b9c:	36109f7e 	ori	s0,s0,0x9f7e
bfc06ba0:	15280021 	bne	t1,t0,bfc06c28 <main+0x6c28>
bfc06ba4:	00000000 	nop
bfc06ba8:	10000021 	b	bfc06c30 <main+0x6c30>
bfc06bac:	00000000 	nop
bfc06bb0:	00000021 	move	zero,zero
bfc06bb4:	00000021 	move	zero,zero
bfc06bb8:	00000021 	move	zero,zero
bfc06bbc:	00000021 	move	zero,zero
bfc06bc0:	00000021 	move	zero,zero
bfc06bc4:	00000021 	move	zero,zero
bfc06bc8:	00000021 	move	zero,zero
bfc06bcc:	00000021 	move	zero,zero
bfc06bd0:	00000021 	move	zero,zero
bfc06bd4:	00000021 	move	zero,zero
bfc06bd8:	00000021 	move	zero,zero
bfc06bdc:	00000021 	move	zero,zero
bfc06be0:	00000021 	move	zero,zero
bfc06be4:	00000021 	move	zero,zero
bfc06be8:	3c08aef5 	lui	t0,0xaef5
bfc06bec:	3508cb00 	ori	t0,t0,0xcb00
bfc06bf0:	3c09aef5 	lui	t1,0xaef5
bfc06bf4:	3529cb00 	ori	t1,t1,0xcb00
bfc06bf8:	1509ffe7 	bne	t0,t1,bfc06b98 <main+0x6b98>
bfc06bfc:	00000000 	nop
bfc06c00:	1000000b 	b	bfc06c30 <main+0x6c30>
bfc06c04:	00000000 	nop
bfc06c08:	00000021 	move	zero,zero
bfc06c0c:	00000021 	move	zero,zero
bfc06c10:	00000021 	move	zero,zero
bfc06c14:	00000021 	move	zero,zero
bfc06c18:	00000021 	move	zero,zero
bfc06c1c:	00000021 	move	zero,zero
bfc06c20:	00000021 	move	zero,zero
bfc06c24:	00000021 	move	zero,zero
bfc06c28:	3c127bd9 	lui	s2,0x7bd9
bfc06c2c:	3652b7e6 	ori	s2,s2,0xb7e6
bfc06c30:	00000000 	nop
bfc06c34:	24140000 	li	s4,0
bfc06c38:	1614246b 	bne	s0,s4,bfc0fde8 <inst_error>
bfc06c3c:	00000000 	nop
bfc06c40:	24150000 	li	s5,0
bfc06c44:	16552468 	bne	s2,s5,bfc0fde8 <inst_error>
bfc06c48:	00000000 	nop
bfc06c4c:	3c0cbbf7 	lui	t4,0xbbf7
bfc06c50:	358c5228 	ori	t4,t4,0x5228
bfc06c54:	3c0d7d68 	lui	t5,0x7d68
bfc06c58:	35add3c7 	ori	t5,t5,0xd3c7
bfc06c5c:	24100000 	li	s0,0
bfc06c60:	24120000 	li	s2,0
bfc06c64:	10000015 	b	bfc06cbc <main+0x6cbc>
bfc06c68:	00000000 	nop
bfc06c6c:	3c10bbf7 	lui	s0,0xbbf7
bfc06c70:	36105228 	ori	s0,s0,0x5228
bfc06c74:	15280021 	bne	t1,t0,bfc06cfc <main+0x6cfc>
bfc06c78:	00000000 	nop
bfc06c7c:	10000021 	b	bfc06d04 <main+0x6d04>
bfc06c80:	00000000 	nop
bfc06c84:	00000021 	move	zero,zero
bfc06c88:	00000021 	move	zero,zero
bfc06c8c:	00000021 	move	zero,zero
bfc06c90:	00000021 	move	zero,zero
bfc06c94:	00000021 	move	zero,zero
bfc06c98:	00000021 	move	zero,zero
bfc06c9c:	00000021 	move	zero,zero
bfc06ca0:	00000021 	move	zero,zero
bfc06ca4:	00000021 	move	zero,zero
bfc06ca8:	00000021 	move	zero,zero
bfc06cac:	00000021 	move	zero,zero
bfc06cb0:	00000021 	move	zero,zero
bfc06cb4:	00000021 	move	zero,zero
bfc06cb8:	00000021 	move	zero,zero
bfc06cbc:	3c081c9e 	lui	t0,0x1c9e
bfc06cc0:	350845ab 	ori	t0,t0,0x45ab
bfc06cc4:	3c091c9e 	lui	t1,0x1c9e
bfc06cc8:	352945ab 	ori	t1,t1,0x45ab
bfc06ccc:	1509ffe7 	bne	t0,t1,bfc06c6c <main+0x6c6c>
bfc06cd0:	00000000 	nop
bfc06cd4:	1000000b 	b	bfc06d04 <main+0x6d04>
bfc06cd8:	00000000 	nop
bfc06cdc:	00000021 	move	zero,zero
bfc06ce0:	00000021 	move	zero,zero
bfc06ce4:	00000021 	move	zero,zero
bfc06ce8:	00000021 	move	zero,zero
bfc06cec:	00000021 	move	zero,zero
bfc06cf0:	00000021 	move	zero,zero
bfc06cf4:	00000021 	move	zero,zero
bfc06cf8:	00000021 	move	zero,zero
bfc06cfc:	3c127d68 	lui	s2,0x7d68
bfc06d00:	3652d3c7 	ori	s2,s2,0xd3c7
bfc06d04:	00000000 	nop
bfc06d08:	24140000 	li	s4,0
bfc06d0c:	16142436 	bne	s0,s4,bfc0fde8 <inst_error>
bfc06d10:	00000000 	nop
bfc06d14:	24150000 	li	s5,0
bfc06d18:	16552433 	bne	s2,s5,bfc0fde8 <inst_error>
bfc06d1c:	00000000 	nop
bfc06d20:	3c0c35f4 	lui	t4,0x35f4
bfc06d24:	358c89d4 	ori	t4,t4,0x89d4
bfc06d28:	3c0d4622 	lui	t5,0x4622
bfc06d2c:	35ad3883 	ori	t5,t5,0x3883
bfc06d30:	24100000 	li	s0,0
bfc06d34:	24120000 	li	s2,0
bfc06d38:	10000015 	b	bfc06d90 <main+0x6d90>
bfc06d3c:	00000000 	nop
bfc06d40:	3c1035f4 	lui	s0,0x35f4
bfc06d44:	361089d4 	ori	s0,s0,0x89d4
bfc06d48:	15280021 	bne	t1,t0,bfc06dd0 <main+0x6dd0>
bfc06d4c:	00000000 	nop
bfc06d50:	10000021 	b	bfc06dd8 <main+0x6dd8>
bfc06d54:	00000000 	nop
bfc06d58:	00000021 	move	zero,zero
bfc06d5c:	00000021 	move	zero,zero
bfc06d60:	00000021 	move	zero,zero
bfc06d64:	00000021 	move	zero,zero
bfc06d68:	00000021 	move	zero,zero
bfc06d6c:	00000021 	move	zero,zero
bfc06d70:	00000021 	move	zero,zero
bfc06d74:	00000021 	move	zero,zero
bfc06d78:	00000021 	move	zero,zero
bfc06d7c:	00000021 	move	zero,zero
bfc06d80:	00000021 	move	zero,zero
bfc06d84:	00000021 	move	zero,zero
bfc06d88:	00000021 	move	zero,zero
bfc06d8c:	00000021 	move	zero,zero
bfc06d90:	3c084646 	lui	t0,0x4646
bfc06d94:	3508bd73 	ori	t0,t0,0xbd73
bfc06d98:	3c094646 	lui	t1,0x4646
bfc06d9c:	3529bd73 	ori	t1,t1,0xbd73
bfc06da0:	1509ffe7 	bne	t0,t1,bfc06d40 <main+0x6d40>
bfc06da4:	00000000 	nop
bfc06da8:	1000000b 	b	bfc06dd8 <main+0x6dd8>
bfc06dac:	00000000 	nop
bfc06db0:	00000021 	move	zero,zero
bfc06db4:	00000021 	move	zero,zero
bfc06db8:	00000021 	move	zero,zero
bfc06dbc:	00000021 	move	zero,zero
bfc06dc0:	00000021 	move	zero,zero
bfc06dc4:	00000021 	move	zero,zero
bfc06dc8:	00000021 	move	zero,zero
bfc06dcc:	00000021 	move	zero,zero
bfc06dd0:	3c124622 	lui	s2,0x4622
bfc06dd4:	36523883 	ori	s2,s2,0x3883
bfc06dd8:	00000000 	nop
bfc06ddc:	24140000 	li	s4,0
bfc06de0:	16142401 	bne	s0,s4,bfc0fde8 <inst_error>
bfc06de4:	00000000 	nop
bfc06de8:	24150000 	li	s5,0
bfc06dec:	165523fe 	bne	s2,s5,bfc0fde8 <inst_error>
bfc06df0:	00000000 	nop
bfc06df4:	3c0cca85 	lui	t4,0xca85
bfc06df8:	358cb4c0 	ori	t4,t4,0xb4c0
bfc06dfc:	3c0d0e04 	lui	t5,0xe04
bfc06e00:	35ad0ee8 	ori	t5,t5,0xee8
bfc06e04:	24100000 	li	s0,0
bfc06e08:	24120000 	li	s2,0
bfc06e0c:	10000015 	b	bfc06e64 <main+0x6e64>
bfc06e10:	00000000 	nop
bfc06e14:	3c10ca85 	lui	s0,0xca85
bfc06e18:	3610b4c0 	ori	s0,s0,0xb4c0
bfc06e1c:	15280021 	bne	t1,t0,bfc06ea4 <main+0x6ea4>
bfc06e20:	00000000 	nop
bfc06e24:	10000021 	b	bfc06eac <main+0x6eac>
bfc06e28:	00000000 	nop
bfc06e2c:	00000021 	move	zero,zero
bfc06e30:	00000021 	move	zero,zero
bfc06e34:	00000021 	move	zero,zero
bfc06e38:	00000021 	move	zero,zero
bfc06e3c:	00000021 	move	zero,zero
bfc06e40:	00000021 	move	zero,zero
bfc06e44:	00000021 	move	zero,zero
bfc06e48:	00000021 	move	zero,zero
bfc06e4c:	00000021 	move	zero,zero
bfc06e50:	00000021 	move	zero,zero
bfc06e54:	00000021 	move	zero,zero
bfc06e58:	00000021 	move	zero,zero
bfc06e5c:	00000021 	move	zero,zero
bfc06e60:	00000021 	move	zero,zero
bfc06e64:	3c08b501 	lui	t0,0xb501
bfc06e68:	35087ebb 	ori	t0,t0,0x7ebb
bfc06e6c:	3c09b501 	lui	t1,0xb501
bfc06e70:	35297ebb 	ori	t1,t1,0x7ebb
bfc06e74:	1509ffe7 	bne	t0,t1,bfc06e14 <main+0x6e14>
bfc06e78:	00000000 	nop
bfc06e7c:	1000000b 	b	bfc06eac <main+0x6eac>
bfc06e80:	00000000 	nop
bfc06e84:	00000021 	move	zero,zero
bfc06e88:	00000021 	move	zero,zero
bfc06e8c:	00000021 	move	zero,zero
bfc06e90:	00000021 	move	zero,zero
bfc06e94:	00000021 	move	zero,zero
bfc06e98:	00000021 	move	zero,zero
bfc06e9c:	00000021 	move	zero,zero
bfc06ea0:	00000021 	move	zero,zero
bfc06ea4:	3c120e04 	lui	s2,0xe04
bfc06ea8:	36520ee8 	ori	s2,s2,0xee8
bfc06eac:	00000000 	nop
bfc06eb0:	24140000 	li	s4,0
bfc06eb4:	161423cc 	bne	s0,s4,bfc0fde8 <inst_error>
bfc06eb8:	00000000 	nop
bfc06ebc:	24150000 	li	s5,0
bfc06ec0:	165523c9 	bne	s2,s5,bfc0fde8 <inst_error>
bfc06ec4:	00000000 	nop
bfc06ec8:	3c0c4e29 	lui	t4,0x4e29
bfc06ecc:	358cb20c 	ori	t4,t4,0xb20c
bfc06ed0:	3c0d8015 	lui	t5,0x8015
bfc06ed4:	35ad4d9c 	ori	t5,t5,0x4d9c
bfc06ed8:	24100000 	li	s0,0
bfc06edc:	24120000 	li	s2,0
bfc06ee0:	10000015 	b	bfc06f38 <main+0x6f38>
bfc06ee4:	00000000 	nop
bfc06ee8:	3c104e29 	lui	s0,0x4e29
bfc06eec:	3610b20c 	ori	s0,s0,0xb20c
bfc06ef0:	15280021 	bne	t1,t0,bfc06f78 <main+0x6f78>
bfc06ef4:	00000000 	nop
bfc06ef8:	10000021 	b	bfc06f80 <main+0x6f80>
bfc06efc:	00000000 	nop
bfc06f00:	00000021 	move	zero,zero
bfc06f04:	00000021 	move	zero,zero
bfc06f08:	00000021 	move	zero,zero
bfc06f0c:	00000021 	move	zero,zero
bfc06f10:	00000021 	move	zero,zero
bfc06f14:	00000021 	move	zero,zero
bfc06f18:	00000021 	move	zero,zero
bfc06f1c:	00000021 	move	zero,zero
bfc06f20:	00000021 	move	zero,zero
bfc06f24:	00000021 	move	zero,zero
bfc06f28:	00000021 	move	zero,zero
bfc06f2c:	00000021 	move	zero,zero
bfc06f30:	00000021 	move	zero,zero
bfc06f34:	00000021 	move	zero,zero
bfc06f38:	3c08e297 	lui	t0,0xe297
bfc06f3c:	3508d40f 	ori	t0,t0,0xd40f
bfc06f40:	3c09e297 	lui	t1,0xe297
bfc06f44:	3529d40f 	ori	t1,t1,0xd40f
bfc06f48:	1509ffe7 	bne	t0,t1,bfc06ee8 <main+0x6ee8>
bfc06f4c:	00000000 	nop
bfc06f50:	1000000b 	b	bfc06f80 <main+0x6f80>
bfc06f54:	00000000 	nop
bfc06f58:	00000021 	move	zero,zero
bfc06f5c:	00000021 	move	zero,zero
bfc06f60:	00000021 	move	zero,zero
bfc06f64:	00000021 	move	zero,zero
bfc06f68:	00000021 	move	zero,zero
bfc06f6c:	00000021 	move	zero,zero
bfc06f70:	00000021 	move	zero,zero
bfc06f74:	00000021 	move	zero,zero
bfc06f78:	3c128015 	lui	s2,0x8015
bfc06f7c:	36524d9c 	ori	s2,s2,0x4d9c
bfc06f80:	00000000 	nop
bfc06f84:	24140000 	li	s4,0
bfc06f88:	16142397 	bne	s0,s4,bfc0fde8 <inst_error>
bfc06f8c:	00000000 	nop
bfc06f90:	24150000 	li	s5,0
bfc06f94:	16552394 	bne	s2,s5,bfc0fde8 <inst_error>
bfc06f98:	00000000 	nop
bfc06f9c:	3c0c49a2 	lui	t4,0x49a2
bfc06fa0:	358c5280 	ori	t4,t4,0x5280
bfc06fa4:	3c0dc812 	lui	t5,0xc812
bfc06fa8:	35adb400 	ori	t5,t5,0xb400
bfc06fac:	24100000 	li	s0,0
bfc06fb0:	24120000 	li	s2,0
bfc06fb4:	10000015 	b	bfc0700c <main+0x700c>
bfc06fb8:	00000000 	nop
bfc06fbc:	3c1049a2 	lui	s0,0x49a2
bfc06fc0:	36105280 	ori	s0,s0,0x5280
bfc06fc4:	15280021 	bne	t1,t0,bfc0704c <main+0x704c>
bfc06fc8:	00000000 	nop
bfc06fcc:	10000021 	b	bfc07054 <main+0x7054>
bfc06fd0:	00000000 	nop
bfc06fd4:	00000021 	move	zero,zero
bfc06fd8:	00000021 	move	zero,zero
bfc06fdc:	00000021 	move	zero,zero
bfc06fe0:	00000021 	move	zero,zero
bfc06fe4:	00000021 	move	zero,zero
bfc06fe8:	00000021 	move	zero,zero
bfc06fec:	00000021 	move	zero,zero
bfc06ff0:	00000021 	move	zero,zero
bfc06ff4:	00000021 	move	zero,zero
bfc06ff8:	00000021 	move	zero,zero
bfc06ffc:	00000021 	move	zero,zero
bfc07000:	00000021 	move	zero,zero
bfc07004:	00000021 	move	zero,zero
bfc07008:	00000021 	move	zero,zero
bfc0700c:	3c088b78 	lui	t0,0x8b78
bfc07010:	3508f900 	ori	t0,t0,0xf900
bfc07014:	3c098b78 	lui	t1,0x8b78
bfc07018:	3529f900 	ori	t1,t1,0xf900
bfc0701c:	1509ffe7 	bne	t0,t1,bfc06fbc <main+0x6fbc>
bfc07020:	00000000 	nop
bfc07024:	1000000b 	b	bfc07054 <main+0x7054>
bfc07028:	00000000 	nop
bfc0702c:	00000021 	move	zero,zero
bfc07030:	00000021 	move	zero,zero
bfc07034:	00000021 	move	zero,zero
bfc07038:	00000021 	move	zero,zero
bfc0703c:	00000021 	move	zero,zero
bfc07040:	00000021 	move	zero,zero
bfc07044:	00000021 	move	zero,zero
bfc07048:	00000021 	move	zero,zero
bfc0704c:	3c12c812 	lui	s2,0xc812
bfc07050:	3652b400 	ori	s2,s2,0xb400
bfc07054:	00000000 	nop
bfc07058:	24140000 	li	s4,0
bfc0705c:	16142362 	bne	s0,s4,bfc0fde8 <inst_error>
bfc07060:	00000000 	nop
bfc07064:	24150000 	li	s5,0
bfc07068:	1655235f 	bne	s2,s5,bfc0fde8 <inst_error>
bfc0706c:	00000000 	nop
bfc07070:	3c0cdb29 	lui	t4,0xdb29
bfc07074:	358ccfb0 	ori	t4,t4,0xcfb0
bfc07078:	3c0d15f2 	lui	t5,0x15f2
bfc0707c:	35adc27c 	ori	t5,t5,0xc27c
bfc07080:	24100000 	li	s0,0
bfc07084:	24120000 	li	s2,0
bfc07088:	10000015 	b	bfc070e0 <main+0x70e0>
bfc0708c:	00000000 	nop
bfc07090:	3c10db29 	lui	s0,0xdb29
bfc07094:	3610cfb0 	ori	s0,s0,0xcfb0
bfc07098:	15280021 	bne	t1,t0,bfc07120 <main+0x7120>
bfc0709c:	00000000 	nop
bfc070a0:	10000021 	b	bfc07128 <main+0x7128>
bfc070a4:	00000000 	nop
bfc070a8:	00000021 	move	zero,zero
bfc070ac:	00000021 	move	zero,zero
bfc070b0:	00000021 	move	zero,zero
bfc070b4:	00000021 	move	zero,zero
bfc070b8:	00000021 	move	zero,zero
bfc070bc:	00000021 	move	zero,zero
bfc070c0:	00000021 	move	zero,zero
bfc070c4:	00000021 	move	zero,zero
bfc070c8:	00000021 	move	zero,zero
bfc070cc:	00000021 	move	zero,zero
bfc070d0:	00000021 	move	zero,zero
bfc070d4:	00000021 	move	zero,zero
bfc070d8:	00000021 	move	zero,zero
bfc070dc:	00000021 	move	zero,zero
bfc070e0:	3c0831aa 	lui	t0,0x31aa
bfc070e4:	35082e48 	ori	t0,t0,0x2e48
bfc070e8:	3c0931aa 	lui	t1,0x31aa
bfc070ec:	35292e48 	ori	t1,t1,0x2e48
bfc070f0:	1509ffe7 	bne	t0,t1,bfc07090 <main+0x7090>
bfc070f4:	00000000 	nop
bfc070f8:	1000000b 	b	bfc07128 <main+0x7128>
bfc070fc:	00000000 	nop
bfc07100:	00000021 	move	zero,zero
bfc07104:	00000021 	move	zero,zero
bfc07108:	00000021 	move	zero,zero
bfc0710c:	00000021 	move	zero,zero
bfc07110:	00000021 	move	zero,zero
bfc07114:	00000021 	move	zero,zero
bfc07118:	00000021 	move	zero,zero
bfc0711c:	00000021 	move	zero,zero
bfc07120:	3c1215f2 	lui	s2,0x15f2
bfc07124:	3652c27c 	ori	s2,s2,0xc27c
bfc07128:	00000000 	nop
bfc0712c:	24140000 	li	s4,0
bfc07130:	1614232d 	bne	s0,s4,bfc0fde8 <inst_error>
bfc07134:	00000000 	nop
bfc07138:	24150000 	li	s5,0
bfc0713c:	1655232a 	bne	s2,s5,bfc0fde8 <inst_error>
bfc07140:	00000000 	nop
bfc07144:	3c0c53f8 	lui	t4,0x53f8
bfc07148:	358c2f94 	ori	t4,t4,0x2f94
bfc0714c:	3c0d4c94 	lui	t5,0x4c94
bfc07150:	35ad2030 	ori	t5,t5,0x2030
bfc07154:	24100000 	li	s0,0
bfc07158:	24120000 	li	s2,0
bfc0715c:	10000015 	b	bfc071b4 <main+0x71b4>
bfc07160:	00000000 	nop
bfc07164:	3c1053f8 	lui	s0,0x53f8
bfc07168:	36102f94 	ori	s0,s0,0x2f94
bfc0716c:	15280021 	bne	t1,t0,bfc071f4 <main+0x71f4>
bfc07170:	00000000 	nop
bfc07174:	10000021 	b	bfc071fc <main+0x71fc>
bfc07178:	00000000 	nop
bfc0717c:	00000021 	move	zero,zero
bfc07180:	00000021 	move	zero,zero
bfc07184:	00000021 	move	zero,zero
bfc07188:	00000021 	move	zero,zero
bfc0718c:	00000021 	move	zero,zero
bfc07190:	00000021 	move	zero,zero
bfc07194:	00000021 	move	zero,zero
bfc07198:	00000021 	move	zero,zero
bfc0719c:	00000021 	move	zero,zero
bfc071a0:	00000021 	move	zero,zero
bfc071a4:	00000021 	move	zero,zero
bfc071a8:	00000021 	move	zero,zero
bfc071ac:	00000021 	move	zero,zero
bfc071b0:	00000021 	move	zero,zero
bfc071b4:	3c08552c 	lui	t0,0x552c
bfc071b8:	3508a6aa 	ori	t0,t0,0xa6aa
bfc071bc:	3c09552c 	lui	t1,0x552c
bfc071c0:	3529a6aa 	ori	t1,t1,0xa6aa
bfc071c4:	1509ffe7 	bne	t0,t1,bfc07164 <main+0x7164>
bfc071c8:	00000000 	nop
bfc071cc:	1000000b 	b	bfc071fc <main+0x71fc>
bfc071d0:	00000000 	nop
bfc071d4:	00000021 	move	zero,zero
bfc071d8:	00000021 	move	zero,zero
bfc071dc:	00000021 	move	zero,zero
bfc071e0:	00000021 	move	zero,zero
bfc071e4:	00000021 	move	zero,zero
bfc071e8:	00000021 	move	zero,zero
bfc071ec:	00000021 	move	zero,zero
bfc071f0:	00000021 	move	zero,zero
bfc071f4:	3c124c94 	lui	s2,0x4c94
bfc071f8:	36522030 	ori	s2,s2,0x2030
bfc071fc:	00000000 	nop
bfc07200:	24140000 	li	s4,0
bfc07204:	161422f8 	bne	s0,s4,bfc0fde8 <inst_error>
bfc07208:	00000000 	nop
bfc0720c:	24150000 	li	s5,0
bfc07210:	165522f5 	bne	s2,s5,bfc0fde8 <inst_error>
bfc07214:	00000000 	nop
bfc07218:	3c0c6cef 	lui	t4,0x6cef
bfc0721c:	358c8800 	ori	t4,t4,0x8800
bfc07220:	3c0dd717 	lui	t5,0xd717
bfc07224:	35adc5ec 	ori	t5,t5,0xc5ec
bfc07228:	24100000 	li	s0,0
bfc0722c:	24120000 	li	s2,0
bfc07230:	10000015 	b	bfc07288 <main+0x7288>
bfc07234:	00000000 	nop
bfc07238:	3c106cef 	lui	s0,0x6cef
bfc0723c:	36108800 	ori	s0,s0,0x8800
bfc07240:	15280021 	bne	t1,t0,bfc072c8 <main+0x72c8>
bfc07244:	00000000 	nop
bfc07248:	10000021 	b	bfc072d0 <main+0x72d0>
bfc0724c:	00000000 	nop
bfc07250:	00000021 	move	zero,zero
bfc07254:	00000021 	move	zero,zero
bfc07258:	00000021 	move	zero,zero
bfc0725c:	00000021 	move	zero,zero
bfc07260:	00000021 	move	zero,zero
bfc07264:	00000021 	move	zero,zero
bfc07268:	00000021 	move	zero,zero
bfc0726c:	00000021 	move	zero,zero
bfc07270:	00000021 	move	zero,zero
bfc07274:	00000021 	move	zero,zero
bfc07278:	00000021 	move	zero,zero
bfc0727c:	00000021 	move	zero,zero
bfc07280:	00000021 	move	zero,zero
bfc07284:	00000021 	move	zero,zero
bfc07288:	3c088095 	lui	t0,0x8095
bfc0728c:	3508cf14 	ori	t0,t0,0xcf14
bfc07290:	3c098095 	lui	t1,0x8095
bfc07294:	3529cf14 	ori	t1,t1,0xcf14
bfc07298:	1509ffe7 	bne	t0,t1,bfc07238 <main+0x7238>
bfc0729c:	00000000 	nop
bfc072a0:	1000000b 	b	bfc072d0 <main+0x72d0>
bfc072a4:	00000000 	nop
bfc072a8:	00000021 	move	zero,zero
bfc072ac:	00000021 	move	zero,zero
bfc072b0:	00000021 	move	zero,zero
bfc072b4:	00000021 	move	zero,zero
bfc072b8:	00000021 	move	zero,zero
bfc072bc:	00000021 	move	zero,zero
bfc072c0:	00000021 	move	zero,zero
bfc072c4:	00000021 	move	zero,zero
bfc072c8:	3c12d717 	lui	s2,0xd717
bfc072cc:	3652c5ec 	ori	s2,s2,0xc5ec
bfc072d0:	00000000 	nop
bfc072d4:	24140000 	li	s4,0
bfc072d8:	161422c3 	bne	s0,s4,bfc0fde8 <inst_error>
bfc072dc:	00000000 	nop
bfc072e0:	24150000 	li	s5,0
bfc072e4:	165522c0 	bne	s2,s5,bfc0fde8 <inst_error>
bfc072e8:	00000000 	nop
bfc072ec:	3c0c01bc 	lui	t4,0x1bc
bfc072f0:	358c39dc 	ori	t4,t4,0x39dc
bfc072f4:	3c0d839a 	lui	t5,0x839a
bfc072f8:	35ad9e28 	ori	t5,t5,0x9e28
bfc072fc:	24100000 	li	s0,0
bfc07300:	24120000 	li	s2,0
bfc07304:	10000015 	b	bfc0735c <main+0x735c>
bfc07308:	00000000 	nop
bfc0730c:	3c1001bc 	lui	s0,0x1bc
bfc07310:	361039dc 	ori	s0,s0,0x39dc
bfc07314:	15280021 	bne	t1,t0,bfc0739c <main+0x739c>
bfc07318:	00000000 	nop
bfc0731c:	10000021 	b	bfc073a4 <main+0x73a4>
bfc07320:	00000000 	nop
bfc07324:	00000021 	move	zero,zero
bfc07328:	00000021 	move	zero,zero
bfc0732c:	00000021 	move	zero,zero
bfc07330:	00000021 	move	zero,zero
bfc07334:	00000021 	move	zero,zero
bfc07338:	00000021 	move	zero,zero
bfc0733c:	00000021 	move	zero,zero
bfc07340:	00000021 	move	zero,zero
bfc07344:	00000021 	move	zero,zero
bfc07348:	00000021 	move	zero,zero
bfc0734c:	00000021 	move	zero,zero
bfc07350:	00000021 	move	zero,zero
bfc07354:	00000021 	move	zero,zero
bfc07358:	00000021 	move	zero,zero
bfc0735c:	3c08a7e1 	lui	t0,0xa7e1
bfc07360:	3508bbb2 	ori	t0,t0,0xbbb2
bfc07364:	3c09a7e1 	lui	t1,0xa7e1
bfc07368:	3529bbb2 	ori	t1,t1,0xbbb2
bfc0736c:	1509ffe7 	bne	t0,t1,bfc0730c <main+0x730c>
bfc07370:	00000000 	nop
bfc07374:	1000000b 	b	bfc073a4 <main+0x73a4>
bfc07378:	00000000 	nop
bfc0737c:	00000021 	move	zero,zero
bfc07380:	00000021 	move	zero,zero
bfc07384:	00000021 	move	zero,zero
bfc07388:	00000021 	move	zero,zero
bfc0738c:	00000021 	move	zero,zero
bfc07390:	00000021 	move	zero,zero
bfc07394:	00000021 	move	zero,zero
bfc07398:	00000021 	move	zero,zero
bfc0739c:	3c12839a 	lui	s2,0x839a
bfc073a0:	36529e28 	ori	s2,s2,0x9e28
bfc073a4:	00000000 	nop
bfc073a8:	24140000 	li	s4,0
bfc073ac:	1614228e 	bne	s0,s4,bfc0fde8 <inst_error>
bfc073b0:	00000000 	nop
bfc073b4:	24150000 	li	s5,0
bfc073b8:	1655228b 	bne	s2,s5,bfc0fde8 <inst_error>
bfc073bc:	00000000 	nop
bfc073c0:	3c0cd74b 	lui	t4,0xd74b
bfc073c4:	358ced4a 	ori	t4,t4,0xed4a
bfc073c8:	3c0d1ead 	lui	t5,0x1ead
bfc073cc:	35adde00 	ori	t5,t5,0xde00
bfc073d0:	24100000 	li	s0,0
bfc073d4:	24120000 	li	s2,0
bfc073d8:	10000015 	b	bfc07430 <main+0x7430>
bfc073dc:	00000000 	nop
bfc073e0:	3c10d74b 	lui	s0,0xd74b
bfc073e4:	3610ed4a 	ori	s0,s0,0xed4a
bfc073e8:	15280021 	bne	t1,t0,bfc07470 <main+0x7470>
bfc073ec:	00000000 	nop
bfc073f0:	10000021 	b	bfc07478 <main+0x7478>
bfc073f4:	00000000 	nop
bfc073f8:	00000021 	move	zero,zero
bfc073fc:	00000021 	move	zero,zero
bfc07400:	00000021 	move	zero,zero
bfc07404:	00000021 	move	zero,zero
bfc07408:	00000021 	move	zero,zero
bfc0740c:	00000021 	move	zero,zero
bfc07410:	00000021 	move	zero,zero
bfc07414:	00000021 	move	zero,zero
bfc07418:	00000021 	move	zero,zero
bfc0741c:	00000021 	move	zero,zero
bfc07420:	00000021 	move	zero,zero
bfc07424:	00000021 	move	zero,zero
bfc07428:	00000021 	move	zero,zero
bfc0742c:	00000021 	move	zero,zero
bfc07430:	3c088d4c 	lui	t0,0x8d4c
bfc07434:	35087b7a 	ori	t0,t0,0x7b7a
bfc07438:	3c098d4c 	lui	t1,0x8d4c
bfc0743c:	35297b7a 	ori	t1,t1,0x7b7a
bfc07440:	1509ffe7 	bne	t0,t1,bfc073e0 <main+0x73e0>
bfc07444:	00000000 	nop
bfc07448:	1000000b 	b	bfc07478 <main+0x7478>
bfc0744c:	00000000 	nop
bfc07450:	00000021 	move	zero,zero
bfc07454:	00000021 	move	zero,zero
bfc07458:	00000021 	move	zero,zero
bfc0745c:	00000021 	move	zero,zero
bfc07460:	00000021 	move	zero,zero
bfc07464:	00000021 	move	zero,zero
bfc07468:	00000021 	move	zero,zero
bfc0746c:	00000021 	move	zero,zero
bfc07470:	3c121ead 	lui	s2,0x1ead
bfc07474:	3652de00 	ori	s2,s2,0xde00
bfc07478:	00000000 	nop
bfc0747c:	24140000 	li	s4,0
bfc07480:	16142259 	bne	s0,s4,bfc0fde8 <inst_error>
bfc07484:	00000000 	nop
bfc07488:	24150000 	li	s5,0
bfc0748c:	16552256 	bne	s2,s5,bfc0fde8 <inst_error>
bfc07490:	00000000 	nop
bfc07494:	3c0c578e 	lui	t4,0x578e
bfc07498:	358c41e6 	ori	t4,t4,0x41e6
bfc0749c:	3c0d1f53 	lui	t5,0x1f53
bfc074a0:	35adbc86 	ori	t5,t5,0xbc86
bfc074a4:	24100000 	li	s0,0
bfc074a8:	24120000 	li	s2,0
bfc074ac:	10000015 	b	bfc07504 <main+0x7504>
bfc074b0:	00000000 	nop
bfc074b4:	3c10578e 	lui	s0,0x578e
bfc074b8:	361041e6 	ori	s0,s0,0x41e6
bfc074bc:	15280021 	bne	t1,t0,bfc07544 <main+0x7544>
bfc074c0:	00000000 	nop
bfc074c4:	10000021 	b	bfc0754c <main+0x754c>
bfc074c8:	00000000 	nop
bfc074cc:	00000021 	move	zero,zero
bfc074d0:	00000021 	move	zero,zero
bfc074d4:	00000021 	move	zero,zero
bfc074d8:	00000021 	move	zero,zero
bfc074dc:	00000021 	move	zero,zero
bfc074e0:	00000021 	move	zero,zero
bfc074e4:	00000021 	move	zero,zero
bfc074e8:	00000021 	move	zero,zero
bfc074ec:	00000021 	move	zero,zero
bfc074f0:	00000021 	move	zero,zero
bfc074f4:	00000021 	move	zero,zero
bfc074f8:	00000021 	move	zero,zero
bfc074fc:	00000021 	move	zero,zero
bfc07500:	00000021 	move	zero,zero
bfc07504:	3c087791 	lui	t0,0x7791
bfc07508:	35089958 	ori	t0,t0,0x9958
bfc0750c:	3c097791 	lui	t1,0x7791
bfc07510:	35299958 	ori	t1,t1,0x9958
bfc07514:	1509ffe7 	bne	t0,t1,bfc074b4 <main+0x74b4>
bfc07518:	00000000 	nop
bfc0751c:	1000000b 	b	bfc0754c <main+0x754c>
bfc07520:	00000000 	nop
bfc07524:	00000021 	move	zero,zero
bfc07528:	00000021 	move	zero,zero
bfc0752c:	00000021 	move	zero,zero
bfc07530:	00000021 	move	zero,zero
bfc07534:	00000021 	move	zero,zero
bfc07538:	00000021 	move	zero,zero
bfc0753c:	00000021 	move	zero,zero
bfc07540:	00000021 	move	zero,zero
bfc07544:	3c121f53 	lui	s2,0x1f53
bfc07548:	3652bc86 	ori	s2,s2,0xbc86
bfc0754c:	00000000 	nop
bfc07550:	24140000 	li	s4,0
bfc07554:	16142224 	bne	s0,s4,bfc0fde8 <inst_error>
bfc07558:	00000000 	nop
bfc0755c:	24150000 	li	s5,0
bfc07560:	16552221 	bne	s2,s5,bfc0fde8 <inst_error>
bfc07564:	00000000 	nop
bfc07568:	3c0c3b4c 	lui	t4,0x3b4c
bfc0756c:	358ca5f8 	ori	t4,t4,0xa5f8
bfc07570:	3c0df4e5 	lui	t5,0xf4e5
bfc07574:	35adcea0 	ori	t5,t5,0xcea0
bfc07578:	24100000 	li	s0,0
bfc0757c:	24120000 	li	s2,0
bfc07580:	10000015 	b	bfc075d8 <main+0x75d8>
bfc07584:	00000000 	nop
bfc07588:	3c103b4c 	lui	s0,0x3b4c
bfc0758c:	3610a5f8 	ori	s0,s0,0xa5f8
bfc07590:	15280021 	bne	t1,t0,bfc07618 <main+0x7618>
bfc07594:	00000000 	nop
bfc07598:	10000021 	b	bfc07620 <main+0x7620>
bfc0759c:	00000000 	nop
bfc075a0:	00000021 	move	zero,zero
bfc075a4:	00000021 	move	zero,zero
bfc075a8:	00000021 	move	zero,zero
bfc075ac:	00000021 	move	zero,zero
bfc075b0:	00000021 	move	zero,zero
bfc075b4:	00000021 	move	zero,zero
bfc075b8:	00000021 	move	zero,zero
bfc075bc:	00000021 	move	zero,zero
bfc075c0:	00000021 	move	zero,zero
bfc075c4:	00000021 	move	zero,zero
bfc075c8:	00000021 	move	zero,zero
bfc075cc:	00000021 	move	zero,zero
bfc075d0:	00000021 	move	zero,zero
bfc075d4:	00000021 	move	zero,zero
bfc075d8:	3c085c97 	lui	t0,0x5c97
bfc075dc:	35089db6 	ori	t0,t0,0x9db6
bfc075e0:	3c095c97 	lui	t1,0x5c97
bfc075e4:	35299db6 	ori	t1,t1,0x9db6
bfc075e8:	1509ffe7 	bne	t0,t1,bfc07588 <main+0x7588>
bfc075ec:	00000000 	nop
bfc075f0:	1000000b 	b	bfc07620 <main+0x7620>
bfc075f4:	00000000 	nop
bfc075f8:	00000021 	move	zero,zero
bfc075fc:	00000021 	move	zero,zero
bfc07600:	00000021 	move	zero,zero
bfc07604:	00000021 	move	zero,zero
bfc07608:	00000021 	move	zero,zero
bfc0760c:	00000021 	move	zero,zero
bfc07610:	00000021 	move	zero,zero
bfc07614:	00000021 	move	zero,zero
bfc07618:	3c12f4e5 	lui	s2,0xf4e5
bfc0761c:	3652cea0 	ori	s2,s2,0xcea0
bfc07620:	00000000 	nop
bfc07624:	24140000 	li	s4,0
bfc07628:	161421ef 	bne	s0,s4,bfc0fde8 <inst_error>
bfc0762c:	00000000 	nop
bfc07630:	24150000 	li	s5,0
bfc07634:	165521ec 	bne	s2,s5,bfc0fde8 <inst_error>
bfc07638:	00000000 	nop
bfc0763c:	3c0c4cf3 	lui	t4,0x4cf3
bfc07640:	358c42c0 	ori	t4,t4,0x42c0
bfc07644:	3c0d108d 	lui	t5,0x108d
bfc07648:	35ad1140 	ori	t5,t5,0x1140
bfc0764c:	24100000 	li	s0,0
bfc07650:	24120000 	li	s2,0
bfc07654:	10000015 	b	bfc076ac <main+0x76ac>
bfc07658:	00000000 	nop
bfc0765c:	3c104cf3 	lui	s0,0x4cf3
bfc07660:	361042c0 	ori	s0,s0,0x42c0
bfc07664:	15280021 	bne	t1,t0,bfc076ec <main+0x76ec>
bfc07668:	00000000 	nop
bfc0766c:	10000021 	b	bfc076f4 <main+0x76f4>
bfc07670:	00000000 	nop
bfc07674:	00000021 	move	zero,zero
bfc07678:	00000021 	move	zero,zero
bfc0767c:	00000021 	move	zero,zero
bfc07680:	00000021 	move	zero,zero
bfc07684:	00000021 	move	zero,zero
bfc07688:	00000021 	move	zero,zero
bfc0768c:	00000021 	move	zero,zero
bfc07690:	00000021 	move	zero,zero
bfc07694:	00000021 	move	zero,zero
bfc07698:	00000021 	move	zero,zero
bfc0769c:	00000021 	move	zero,zero
bfc076a0:	00000021 	move	zero,zero
bfc076a4:	00000021 	move	zero,zero
bfc076a8:	00000021 	move	zero,zero
bfc076ac:	3c083ca2 	lui	t0,0x3ca2
bfc076b0:	35084c26 	ori	t0,t0,0x4c26
bfc076b4:	3c093ca2 	lui	t1,0x3ca2
bfc076b8:	35294c26 	ori	t1,t1,0x4c26
bfc076bc:	1509ffe7 	bne	t0,t1,bfc0765c <main+0x765c>
bfc076c0:	00000000 	nop
bfc076c4:	1000000b 	b	bfc076f4 <main+0x76f4>
bfc076c8:	00000000 	nop
bfc076cc:	00000021 	move	zero,zero
bfc076d0:	00000021 	move	zero,zero
bfc076d4:	00000021 	move	zero,zero
bfc076d8:	00000021 	move	zero,zero
bfc076dc:	00000021 	move	zero,zero
bfc076e0:	00000021 	move	zero,zero
bfc076e4:	00000021 	move	zero,zero
bfc076e8:	00000021 	move	zero,zero
bfc076ec:	3c12108d 	lui	s2,0x108d
bfc076f0:	36521140 	ori	s2,s2,0x1140
bfc076f4:	00000000 	nop
bfc076f8:	24140000 	li	s4,0
bfc076fc:	161421ba 	bne	s0,s4,bfc0fde8 <inst_error>
bfc07700:	00000000 	nop
bfc07704:	24150000 	li	s5,0
bfc07708:	165521b7 	bne	s2,s5,bfc0fde8 <inst_error>
bfc0770c:	00000000 	nop
bfc07710:	3c0c8e87 	lui	t4,0x8e87
bfc07714:	358c7120 	ori	t4,t4,0x7120
bfc07718:	3c0da8d9 	lui	t5,0xa8d9
bfc0771c:	35ad95c0 	ori	t5,t5,0x95c0
bfc07720:	24100000 	li	s0,0
bfc07724:	24120000 	li	s2,0
bfc07728:	10000015 	b	bfc07780 <main+0x7780>
bfc0772c:	00000000 	nop
bfc07730:	3c108e87 	lui	s0,0x8e87
bfc07734:	36107120 	ori	s0,s0,0x7120
bfc07738:	15280021 	bne	t1,t0,bfc077c0 <main+0x77c0>
bfc0773c:	00000000 	nop
bfc07740:	10000021 	b	bfc077c8 <main+0x77c8>
bfc07744:	00000000 	nop
bfc07748:	00000021 	move	zero,zero
bfc0774c:	00000021 	move	zero,zero
bfc07750:	00000021 	move	zero,zero
bfc07754:	00000021 	move	zero,zero
bfc07758:	00000021 	move	zero,zero
bfc0775c:	00000021 	move	zero,zero
bfc07760:	00000021 	move	zero,zero
bfc07764:	00000021 	move	zero,zero
bfc07768:	00000021 	move	zero,zero
bfc0776c:	00000021 	move	zero,zero
bfc07770:	00000021 	move	zero,zero
bfc07774:	00000021 	move	zero,zero
bfc07778:	00000021 	move	zero,zero
bfc0777c:	00000021 	move	zero,zero
bfc07780:	3c08f752 	lui	t0,0xf752
bfc07784:	35086ede 	ori	t0,t0,0x6ede
bfc07788:	3c09f752 	lui	t1,0xf752
bfc0778c:	35296ede 	ori	t1,t1,0x6ede
bfc07790:	1509ffe7 	bne	t0,t1,bfc07730 <main+0x7730>
bfc07794:	00000000 	nop
bfc07798:	1000000b 	b	bfc077c8 <main+0x77c8>
bfc0779c:	00000000 	nop
bfc077a0:	00000021 	move	zero,zero
bfc077a4:	00000021 	move	zero,zero
bfc077a8:	00000021 	move	zero,zero
bfc077ac:	00000021 	move	zero,zero
bfc077b0:	00000021 	move	zero,zero
bfc077b4:	00000021 	move	zero,zero
bfc077b8:	00000021 	move	zero,zero
bfc077bc:	00000021 	move	zero,zero
bfc077c0:	3c12a8d9 	lui	s2,0xa8d9
bfc077c4:	365295c0 	ori	s2,s2,0x95c0
bfc077c8:	00000000 	nop
bfc077cc:	24140000 	li	s4,0
bfc077d0:	16142185 	bne	s0,s4,bfc0fde8 <inst_error>
bfc077d4:	00000000 	nop
bfc077d8:	24150000 	li	s5,0
bfc077dc:	16552182 	bne	s2,s5,bfc0fde8 <inst_error>
bfc077e0:	00000000 	nop
bfc077e4:	3c0c7cc2 	lui	t4,0x7cc2
bfc077e8:	358c09cc 	ori	t4,t4,0x9cc
bfc077ec:	3c0d5b33 	lui	t5,0x5b33
bfc077f0:	35adaf05 	ori	t5,t5,0xaf05
bfc077f4:	24100000 	li	s0,0
bfc077f8:	24120000 	li	s2,0
bfc077fc:	10000015 	b	bfc07854 <main+0x7854>
bfc07800:	00000000 	nop
bfc07804:	3c107cc2 	lui	s0,0x7cc2
bfc07808:	361009cc 	ori	s0,s0,0x9cc
bfc0780c:	15280021 	bne	t1,t0,bfc07894 <main+0x7894>
bfc07810:	00000000 	nop
bfc07814:	10000021 	b	bfc0789c <main+0x789c>
bfc07818:	00000000 	nop
bfc0781c:	00000021 	move	zero,zero
bfc07820:	00000021 	move	zero,zero
bfc07824:	00000021 	move	zero,zero
bfc07828:	00000021 	move	zero,zero
bfc0782c:	00000021 	move	zero,zero
bfc07830:	00000021 	move	zero,zero
bfc07834:	00000021 	move	zero,zero
bfc07838:	00000021 	move	zero,zero
bfc0783c:	00000021 	move	zero,zero
bfc07840:	00000021 	move	zero,zero
bfc07844:	00000021 	move	zero,zero
bfc07848:	00000021 	move	zero,zero
bfc0784c:	00000021 	move	zero,zero
bfc07850:	00000021 	move	zero,zero
bfc07854:	3c08c2d7 	lui	t0,0xc2d7
bfc07858:	3508c380 	ori	t0,t0,0xc380
bfc0785c:	3c09c2d7 	lui	t1,0xc2d7
bfc07860:	3529c380 	ori	t1,t1,0xc380
bfc07864:	1509ffe7 	bne	t0,t1,bfc07804 <main+0x7804>
bfc07868:	00000000 	nop
bfc0786c:	1000000b 	b	bfc0789c <main+0x789c>
bfc07870:	00000000 	nop
bfc07874:	00000021 	move	zero,zero
bfc07878:	00000021 	move	zero,zero
bfc0787c:	00000021 	move	zero,zero
bfc07880:	00000021 	move	zero,zero
bfc07884:	00000021 	move	zero,zero
bfc07888:	00000021 	move	zero,zero
bfc0788c:	00000021 	move	zero,zero
bfc07890:	00000021 	move	zero,zero
bfc07894:	3c125b33 	lui	s2,0x5b33
bfc07898:	3652af05 	ori	s2,s2,0xaf05
bfc0789c:	00000000 	nop
bfc078a0:	24140000 	li	s4,0
bfc078a4:	16142150 	bne	s0,s4,bfc0fde8 <inst_error>
bfc078a8:	00000000 	nop
bfc078ac:	24150000 	li	s5,0
bfc078b0:	1655214d 	bne	s2,s5,bfc0fde8 <inst_error>
bfc078b4:	00000000 	nop
bfc078b8:	3c0c2f31 	lui	t4,0x2f31
bfc078bc:	358cfb40 	ori	t4,t4,0xfb40
bfc078c0:	3c0da23c 	lui	t5,0xa23c
bfc078c4:	35adad23 	ori	t5,t5,0xad23
bfc078c8:	24100000 	li	s0,0
bfc078cc:	24120000 	li	s2,0
bfc078d0:	10000015 	b	bfc07928 <main+0x7928>
bfc078d4:	00000000 	nop
bfc078d8:	3c102f31 	lui	s0,0x2f31
bfc078dc:	3610fb40 	ori	s0,s0,0xfb40
bfc078e0:	15280021 	bne	t1,t0,bfc07968 <main+0x7968>
bfc078e4:	00000000 	nop
bfc078e8:	10000021 	b	bfc07970 <main+0x7970>
bfc078ec:	00000000 	nop
bfc078f0:	00000021 	move	zero,zero
bfc078f4:	00000021 	move	zero,zero
bfc078f8:	00000021 	move	zero,zero
bfc078fc:	00000021 	move	zero,zero
bfc07900:	00000021 	move	zero,zero
bfc07904:	00000021 	move	zero,zero
bfc07908:	00000021 	move	zero,zero
bfc0790c:	00000021 	move	zero,zero
bfc07910:	00000021 	move	zero,zero
bfc07914:	00000021 	move	zero,zero
bfc07918:	00000021 	move	zero,zero
bfc0791c:	00000021 	move	zero,zero
bfc07920:	00000021 	move	zero,zero
bfc07924:	00000021 	move	zero,zero
bfc07928:	3c084f88 	lui	t0,0x4f88
bfc0792c:	35088d40 	ori	t0,t0,0x8d40
bfc07930:	3c094f88 	lui	t1,0x4f88
bfc07934:	35298d40 	ori	t1,t1,0x8d40
bfc07938:	1509ffe7 	bne	t0,t1,bfc078d8 <main+0x78d8>
bfc0793c:	00000000 	nop
bfc07940:	1000000b 	b	bfc07970 <main+0x7970>
bfc07944:	00000000 	nop
bfc07948:	00000021 	move	zero,zero
bfc0794c:	00000021 	move	zero,zero
bfc07950:	00000021 	move	zero,zero
bfc07954:	00000021 	move	zero,zero
bfc07958:	00000021 	move	zero,zero
bfc0795c:	00000021 	move	zero,zero
bfc07960:	00000021 	move	zero,zero
bfc07964:	00000021 	move	zero,zero
bfc07968:	3c12a23c 	lui	s2,0xa23c
bfc0796c:	3652ad23 	ori	s2,s2,0xad23
bfc07970:	00000000 	nop
bfc07974:	24140000 	li	s4,0
bfc07978:	1614211b 	bne	s0,s4,bfc0fde8 <inst_error>
bfc0797c:	00000000 	nop
bfc07980:	24150000 	li	s5,0
bfc07984:	16552118 	bne	s2,s5,bfc0fde8 <inst_error>
bfc07988:	00000000 	nop
bfc0798c:	3c0c075c 	lui	t4,0x75c
bfc07990:	358c5a20 	ori	t4,t4,0x5a20
bfc07994:	3c0d7dfe 	lui	t5,0x7dfe
bfc07998:	35ad2100 	ori	t5,t5,0x2100
bfc0799c:	24100000 	li	s0,0
bfc079a0:	24120000 	li	s2,0
bfc079a4:	10000015 	b	bfc079fc <main+0x79fc>
bfc079a8:	00000000 	nop
bfc079ac:	3c10075c 	lui	s0,0x75c
bfc079b0:	36105a20 	ori	s0,s0,0x5a20
bfc079b4:	15280021 	bne	t1,t0,bfc07a3c <main+0x7a3c>
bfc079b8:	00000000 	nop
bfc079bc:	10000021 	b	bfc07a44 <main+0x7a44>
bfc079c0:	00000000 	nop
bfc079c4:	00000021 	move	zero,zero
bfc079c8:	00000021 	move	zero,zero
bfc079cc:	00000021 	move	zero,zero
bfc079d0:	00000021 	move	zero,zero
bfc079d4:	00000021 	move	zero,zero
bfc079d8:	00000021 	move	zero,zero
bfc079dc:	00000021 	move	zero,zero
bfc079e0:	00000021 	move	zero,zero
bfc079e4:	00000021 	move	zero,zero
bfc079e8:	00000021 	move	zero,zero
bfc079ec:	00000021 	move	zero,zero
bfc079f0:	00000021 	move	zero,zero
bfc079f4:	00000021 	move	zero,zero
bfc079f8:	00000021 	move	zero,zero
bfc079fc:	3c087aff 	lui	t0,0x7aff
bfc07a00:	35083880 	ori	t0,t0,0x3880
bfc07a04:	3c097aff 	lui	t1,0x7aff
bfc07a08:	35293880 	ori	t1,t1,0x3880
bfc07a0c:	1509ffe7 	bne	t0,t1,bfc079ac <main+0x79ac>
bfc07a10:	00000000 	nop
bfc07a14:	1000000b 	b	bfc07a44 <main+0x7a44>
bfc07a18:	00000000 	nop
bfc07a1c:	00000021 	move	zero,zero
bfc07a20:	00000021 	move	zero,zero
bfc07a24:	00000021 	move	zero,zero
bfc07a28:	00000021 	move	zero,zero
bfc07a2c:	00000021 	move	zero,zero
bfc07a30:	00000021 	move	zero,zero
bfc07a34:	00000021 	move	zero,zero
bfc07a38:	00000021 	move	zero,zero
bfc07a3c:	3c127dfe 	lui	s2,0x7dfe
bfc07a40:	36522100 	ori	s2,s2,0x2100
bfc07a44:	00000000 	nop
bfc07a48:	24140000 	li	s4,0
bfc07a4c:	161420e6 	bne	s0,s4,bfc0fde8 <inst_error>
bfc07a50:	00000000 	nop
bfc07a54:	24150000 	li	s5,0
bfc07a58:	165520e3 	bne	s2,s5,bfc0fde8 <inst_error>
bfc07a5c:	00000000 	nop
bfc07a60:	3c0c7942 	lui	t4,0x7942
bfc07a64:	358c8800 	ori	t4,t4,0x8800
bfc07a68:	3c0d95ac 	lui	t5,0x95ac
bfc07a6c:	35ad9da4 	ori	t5,t5,0x9da4
bfc07a70:	24100000 	li	s0,0
bfc07a74:	24120000 	li	s2,0
bfc07a78:	10000015 	b	bfc07ad0 <main+0x7ad0>
bfc07a7c:	00000000 	nop
bfc07a80:	3c107942 	lui	s0,0x7942
bfc07a84:	36108800 	ori	s0,s0,0x8800
bfc07a88:	15280021 	bne	t1,t0,bfc07b10 <main+0x7b10>
bfc07a8c:	00000000 	nop
bfc07a90:	10000021 	b	bfc07b18 <main+0x7b18>
bfc07a94:	00000000 	nop
bfc07a98:	00000021 	move	zero,zero
bfc07a9c:	00000021 	move	zero,zero
bfc07aa0:	00000021 	move	zero,zero
bfc07aa4:	00000021 	move	zero,zero
bfc07aa8:	00000021 	move	zero,zero
bfc07aac:	00000021 	move	zero,zero
bfc07ab0:	00000021 	move	zero,zero
bfc07ab4:	00000021 	move	zero,zero
bfc07ab8:	00000021 	move	zero,zero
bfc07abc:	00000021 	move	zero,zero
bfc07ac0:	00000021 	move	zero,zero
bfc07ac4:	00000021 	move	zero,zero
bfc07ac8:	00000021 	move	zero,zero
bfc07acc:	00000021 	move	zero,zero
bfc07ad0:	3c081cca 	lui	t0,0x1cca
bfc07ad4:	3508de40 	ori	t0,t0,0xde40
bfc07ad8:	3c091cca 	lui	t1,0x1cca
bfc07adc:	3529de40 	ori	t1,t1,0xde40
bfc07ae0:	1509ffe7 	bne	t0,t1,bfc07a80 <main+0x7a80>
bfc07ae4:	00000000 	nop
bfc07ae8:	1000000b 	b	bfc07b18 <main+0x7b18>
bfc07aec:	00000000 	nop
bfc07af0:	00000021 	move	zero,zero
bfc07af4:	00000021 	move	zero,zero
bfc07af8:	00000021 	move	zero,zero
bfc07afc:	00000021 	move	zero,zero
bfc07b00:	00000021 	move	zero,zero
bfc07b04:	00000021 	move	zero,zero
bfc07b08:	00000021 	move	zero,zero
bfc07b0c:	00000021 	move	zero,zero
bfc07b10:	3c1295ac 	lui	s2,0x95ac
bfc07b14:	36529da4 	ori	s2,s2,0x9da4
bfc07b18:	00000000 	nop
bfc07b1c:	24140000 	li	s4,0
bfc07b20:	161420b1 	bne	s0,s4,bfc0fde8 <inst_error>
bfc07b24:	00000000 	nop
bfc07b28:	24150000 	li	s5,0
bfc07b2c:	165520ae 	bne	s2,s5,bfc0fde8 <inst_error>
bfc07b30:	00000000 	nop
bfc07b34:	3c0c2acf 	lui	t4,0x2acf
bfc07b38:	358c8dc0 	ori	t4,t4,0x8dc0
bfc07b3c:	3c0da2dd 	lui	t5,0xa2dd
bfc07b40:	35ad393b 	ori	t5,t5,0x393b
bfc07b44:	24100000 	li	s0,0
bfc07b48:	24120000 	li	s2,0
bfc07b4c:	10000015 	b	bfc07ba4 <main+0x7ba4>
bfc07b50:	00000000 	nop
bfc07b54:	3c102acf 	lui	s0,0x2acf
bfc07b58:	36108dc0 	ori	s0,s0,0x8dc0
bfc07b5c:	15280021 	bne	t1,t0,bfc07be4 <main+0x7be4>
bfc07b60:	00000000 	nop
bfc07b64:	10000021 	b	bfc07bec <main+0x7bec>
bfc07b68:	00000000 	nop
bfc07b6c:	00000021 	move	zero,zero
bfc07b70:	00000021 	move	zero,zero
bfc07b74:	00000021 	move	zero,zero
bfc07b78:	00000021 	move	zero,zero
bfc07b7c:	00000021 	move	zero,zero
bfc07b80:	00000021 	move	zero,zero
bfc07b84:	00000021 	move	zero,zero
bfc07b88:	00000021 	move	zero,zero
bfc07b8c:	00000021 	move	zero,zero
bfc07b90:	00000021 	move	zero,zero
bfc07b94:	00000021 	move	zero,zero
bfc07b98:	00000021 	move	zero,zero
bfc07b9c:	00000021 	move	zero,zero
bfc07ba0:	00000021 	move	zero,zero
bfc07ba4:	3c081ae1 	lui	t0,0x1ae1
bfc07ba8:	35089e48 	ori	t0,t0,0x9e48
bfc07bac:	3c091ae1 	lui	t1,0x1ae1
bfc07bb0:	35299e48 	ori	t1,t1,0x9e48
bfc07bb4:	1509ffe7 	bne	t0,t1,bfc07b54 <main+0x7b54>
bfc07bb8:	00000000 	nop
bfc07bbc:	1000000b 	b	bfc07bec <main+0x7bec>
bfc07bc0:	00000000 	nop
bfc07bc4:	00000021 	move	zero,zero
bfc07bc8:	00000021 	move	zero,zero
bfc07bcc:	00000021 	move	zero,zero
bfc07bd0:	00000021 	move	zero,zero
bfc07bd4:	00000021 	move	zero,zero
bfc07bd8:	00000021 	move	zero,zero
bfc07bdc:	00000021 	move	zero,zero
bfc07be0:	00000021 	move	zero,zero
bfc07be4:	3c12a2dd 	lui	s2,0xa2dd
bfc07be8:	3652393b 	ori	s2,s2,0x393b
bfc07bec:	00000000 	nop
bfc07bf0:	24140000 	li	s4,0
bfc07bf4:	1614207c 	bne	s0,s4,bfc0fde8 <inst_error>
bfc07bf8:	00000000 	nop
bfc07bfc:	24150000 	li	s5,0
bfc07c00:	16552079 	bne	s2,s5,bfc0fde8 <inst_error>
bfc07c04:	00000000 	nop
bfc07c08:	3c0cd0f5 	lui	t4,0xd0f5
bfc07c0c:	358cf880 	ori	t4,t4,0xf880
bfc07c10:	3c0dd28d 	lui	t5,0xd28d
bfc07c14:	35ad2030 	ori	t5,t5,0x2030
bfc07c18:	24100000 	li	s0,0
bfc07c1c:	24120000 	li	s2,0
bfc07c20:	10000015 	b	bfc07c78 <main+0x7c78>
bfc07c24:	00000000 	nop
bfc07c28:	3c10d0f5 	lui	s0,0xd0f5
bfc07c2c:	3610f880 	ori	s0,s0,0xf880
bfc07c30:	15280021 	bne	t1,t0,bfc07cb8 <main+0x7cb8>
bfc07c34:	00000000 	nop
bfc07c38:	10000021 	b	bfc07cc0 <main+0x7cc0>
bfc07c3c:	00000000 	nop
bfc07c40:	00000021 	move	zero,zero
bfc07c44:	00000021 	move	zero,zero
bfc07c48:	00000021 	move	zero,zero
bfc07c4c:	00000021 	move	zero,zero
bfc07c50:	00000021 	move	zero,zero
bfc07c54:	00000021 	move	zero,zero
bfc07c58:	00000021 	move	zero,zero
bfc07c5c:	00000021 	move	zero,zero
bfc07c60:	00000021 	move	zero,zero
bfc07c64:	00000021 	move	zero,zero
bfc07c68:	00000021 	move	zero,zero
bfc07c6c:	00000021 	move	zero,zero
bfc07c70:	00000021 	move	zero,zero
bfc07c74:	00000021 	move	zero,zero
bfc07c78:	3c08b011 	lui	t0,0xb011
bfc07c7c:	3508c65a 	ori	t0,t0,0xc65a
bfc07c80:	3c09b011 	lui	t1,0xb011
bfc07c84:	3529c65a 	ori	t1,t1,0xc65a
bfc07c88:	1509ffe7 	bne	t0,t1,bfc07c28 <main+0x7c28>
bfc07c8c:	00000000 	nop
bfc07c90:	1000000b 	b	bfc07cc0 <main+0x7cc0>
bfc07c94:	00000000 	nop
bfc07c98:	00000021 	move	zero,zero
bfc07c9c:	00000021 	move	zero,zero
bfc07ca0:	00000021 	move	zero,zero
bfc07ca4:	00000021 	move	zero,zero
bfc07ca8:	00000021 	move	zero,zero
bfc07cac:	00000021 	move	zero,zero
bfc07cb0:	00000021 	move	zero,zero
bfc07cb4:	00000021 	move	zero,zero
bfc07cb8:	3c12d28d 	lui	s2,0xd28d
bfc07cbc:	36522030 	ori	s2,s2,0x2030
bfc07cc0:	00000000 	nop
bfc07cc4:	24140000 	li	s4,0
bfc07cc8:	16142047 	bne	s0,s4,bfc0fde8 <inst_error>
bfc07ccc:	00000000 	nop
bfc07cd0:	24150000 	li	s5,0
bfc07cd4:	16552044 	bne	s2,s5,bfc0fde8 <inst_error>
bfc07cd8:	00000000 	nop
bfc07cdc:	3c0c2908 	lui	t4,0x2908
bfc07ce0:	358c16b0 	ori	t4,t4,0x16b0
bfc07ce4:	3c0d0f95 	lui	t5,0xf95
bfc07ce8:	35ad8490 	ori	t5,t5,0x8490
bfc07cec:	24100000 	li	s0,0
bfc07cf0:	24120000 	li	s2,0
bfc07cf4:	10000015 	b	bfc07d4c <main+0x7d4c>
bfc07cf8:	00000000 	nop
bfc07cfc:	3c102908 	lui	s0,0x2908
bfc07d00:	361016b0 	ori	s0,s0,0x16b0
bfc07d04:	15280021 	bne	t1,t0,bfc07d8c <main+0x7d8c>
bfc07d08:	00000000 	nop
bfc07d0c:	10000021 	b	bfc07d94 <main+0x7d94>
bfc07d10:	00000000 	nop
bfc07d14:	00000021 	move	zero,zero
bfc07d18:	00000021 	move	zero,zero
bfc07d1c:	00000021 	move	zero,zero
bfc07d20:	00000021 	move	zero,zero
bfc07d24:	00000021 	move	zero,zero
bfc07d28:	00000021 	move	zero,zero
bfc07d2c:	00000021 	move	zero,zero
bfc07d30:	00000021 	move	zero,zero
bfc07d34:	00000021 	move	zero,zero
bfc07d38:	00000021 	move	zero,zero
bfc07d3c:	00000021 	move	zero,zero
bfc07d40:	00000021 	move	zero,zero
bfc07d44:	00000021 	move	zero,zero
bfc07d48:	00000021 	move	zero,zero
bfc07d4c:	3c089d82 	lui	t0,0x9d82
bfc07d50:	35081b80 	ori	t0,t0,0x1b80
bfc07d54:	3c099d82 	lui	t1,0x9d82
bfc07d58:	35291b80 	ori	t1,t1,0x1b80
bfc07d5c:	1509ffe7 	bne	t0,t1,bfc07cfc <main+0x7cfc>
bfc07d60:	00000000 	nop
bfc07d64:	1000000b 	b	bfc07d94 <main+0x7d94>
bfc07d68:	00000000 	nop
bfc07d6c:	00000021 	move	zero,zero
bfc07d70:	00000021 	move	zero,zero
bfc07d74:	00000021 	move	zero,zero
bfc07d78:	00000021 	move	zero,zero
bfc07d7c:	00000021 	move	zero,zero
bfc07d80:	00000021 	move	zero,zero
bfc07d84:	00000021 	move	zero,zero
bfc07d88:	00000021 	move	zero,zero
bfc07d8c:	3c120f95 	lui	s2,0xf95
bfc07d90:	36528490 	ori	s2,s2,0x8490
bfc07d94:	00000000 	nop
bfc07d98:	24140000 	li	s4,0
bfc07d9c:	16142012 	bne	s0,s4,bfc0fde8 <inst_error>
bfc07da0:	00000000 	nop
bfc07da4:	24150000 	li	s5,0
bfc07da8:	1655200f 	bne	s2,s5,bfc0fde8 <inst_error>
bfc07dac:	00000000 	nop
bfc07db0:	3c0c48d4 	lui	t4,0x48d4
bfc07db4:	358c4a40 	ori	t4,t4,0x4a40
bfc07db8:	3c0d47bc 	lui	t5,0x47bc
bfc07dbc:	35ad856c 	ori	t5,t5,0x856c
bfc07dc0:	24100000 	li	s0,0
bfc07dc4:	24120000 	li	s2,0
bfc07dc8:	10000015 	b	bfc07e20 <main+0x7e20>
bfc07dcc:	00000000 	nop
bfc07dd0:	3c1048d4 	lui	s0,0x48d4
bfc07dd4:	36104a40 	ori	s0,s0,0x4a40
bfc07dd8:	15280021 	bne	t1,t0,bfc07e60 <main+0x7e60>
bfc07ddc:	00000000 	nop
bfc07de0:	10000021 	b	bfc07e68 <main+0x7e68>
bfc07de4:	00000000 	nop
bfc07de8:	00000021 	move	zero,zero
bfc07dec:	00000021 	move	zero,zero
bfc07df0:	00000021 	move	zero,zero
bfc07df4:	00000021 	move	zero,zero
bfc07df8:	00000021 	move	zero,zero
bfc07dfc:	00000021 	move	zero,zero
bfc07e00:	00000021 	move	zero,zero
bfc07e04:	00000021 	move	zero,zero
bfc07e08:	00000021 	move	zero,zero
bfc07e0c:	00000021 	move	zero,zero
bfc07e10:	00000021 	move	zero,zero
bfc07e14:	00000021 	move	zero,zero
bfc07e18:	00000021 	move	zero,zero
bfc07e1c:	00000021 	move	zero,zero
bfc07e20:	3c0856a2 	lui	t0,0x56a2
bfc07e24:	3508a476 	ori	t0,t0,0xa476
bfc07e28:	3c0956a2 	lui	t1,0x56a2
bfc07e2c:	3529a476 	ori	t1,t1,0xa476
bfc07e30:	1509ffe7 	bne	t0,t1,bfc07dd0 <main+0x7dd0>
bfc07e34:	00000000 	nop
bfc07e38:	1000000b 	b	bfc07e68 <main+0x7e68>
bfc07e3c:	00000000 	nop
bfc07e40:	00000021 	move	zero,zero
bfc07e44:	00000021 	move	zero,zero
bfc07e48:	00000021 	move	zero,zero
bfc07e4c:	00000021 	move	zero,zero
bfc07e50:	00000021 	move	zero,zero
bfc07e54:	00000021 	move	zero,zero
bfc07e58:	00000021 	move	zero,zero
bfc07e5c:	00000021 	move	zero,zero
bfc07e60:	3c1247bc 	lui	s2,0x47bc
bfc07e64:	3652856c 	ori	s2,s2,0x856c
bfc07e68:	00000000 	nop
bfc07e6c:	24140000 	li	s4,0
bfc07e70:	16141fdd 	bne	s0,s4,bfc0fde8 <inst_error>
bfc07e74:	00000000 	nop
bfc07e78:	24150000 	li	s5,0
bfc07e7c:	16551fda 	bne	s2,s5,bfc0fde8 <inst_error>
bfc07e80:	00000000 	nop
bfc07e84:	3c0c3a3b 	lui	t4,0x3a3b
bfc07e88:	358c4ca0 	ori	t4,t4,0x4ca0
bfc07e8c:	3c0d078c 	lui	t5,0x78c
bfc07e90:	35ad4c63 	ori	t5,t5,0x4c63
bfc07e94:	24100000 	li	s0,0
bfc07e98:	24120000 	li	s2,0
bfc07e9c:	10000015 	b	bfc07ef4 <main+0x7ef4>
bfc07ea0:	00000000 	nop
bfc07ea4:	3c103a3b 	lui	s0,0x3a3b
bfc07ea8:	36104ca0 	ori	s0,s0,0x4ca0
bfc07eac:	15280021 	bne	t1,t0,bfc07f34 <main+0x7f34>
bfc07eb0:	00000000 	nop
bfc07eb4:	10000021 	b	bfc07f3c <main+0x7f3c>
bfc07eb8:	00000000 	nop
bfc07ebc:	00000021 	move	zero,zero
bfc07ec0:	00000021 	move	zero,zero
bfc07ec4:	00000021 	move	zero,zero
bfc07ec8:	00000021 	move	zero,zero
bfc07ecc:	00000021 	move	zero,zero
bfc07ed0:	00000021 	move	zero,zero
bfc07ed4:	00000021 	move	zero,zero
bfc07ed8:	00000021 	move	zero,zero
bfc07edc:	00000021 	move	zero,zero
bfc07ee0:	00000021 	move	zero,zero
bfc07ee4:	00000021 	move	zero,zero
bfc07ee8:	00000021 	move	zero,zero
bfc07eec:	00000021 	move	zero,zero
bfc07ef0:	00000021 	move	zero,zero
bfc07ef4:	3c0860d4 	lui	t0,0x60d4
bfc07ef8:	3508c3f8 	ori	t0,t0,0xc3f8
bfc07efc:	3c0960d4 	lui	t1,0x60d4
bfc07f00:	3529c3f8 	ori	t1,t1,0xc3f8
bfc07f04:	1509ffe7 	bne	t0,t1,bfc07ea4 <main+0x7ea4>
bfc07f08:	00000000 	nop
bfc07f0c:	1000000b 	b	bfc07f3c <main+0x7f3c>
bfc07f10:	00000000 	nop
bfc07f14:	00000021 	move	zero,zero
bfc07f18:	00000021 	move	zero,zero
bfc07f1c:	00000021 	move	zero,zero
bfc07f20:	00000021 	move	zero,zero
bfc07f24:	00000021 	move	zero,zero
bfc07f28:	00000021 	move	zero,zero
bfc07f2c:	00000021 	move	zero,zero
bfc07f30:	00000021 	move	zero,zero
bfc07f34:	3c12078c 	lui	s2,0x78c
bfc07f38:	36524c63 	ori	s2,s2,0x4c63
bfc07f3c:	00000000 	nop
bfc07f40:	24140000 	li	s4,0
bfc07f44:	16141fa8 	bne	s0,s4,bfc0fde8 <inst_error>
bfc07f48:	00000000 	nop
bfc07f4c:	24150000 	li	s5,0
bfc07f50:	16551fa5 	bne	s2,s5,bfc0fde8 <inst_error>
bfc07f54:	00000000 	nop
bfc07f58:	3c0ce7f1 	lui	t4,0xe7f1
bfc07f5c:	358c6407 	ori	t4,t4,0x6407
bfc07f60:	3c0d9394 	lui	t5,0x9394
bfc07f64:	35ad1160 	ori	t5,t5,0x1160
bfc07f68:	24100000 	li	s0,0
bfc07f6c:	24120000 	li	s2,0
bfc07f70:	10000015 	b	bfc07fc8 <main+0x7fc8>
bfc07f74:	00000000 	nop
bfc07f78:	3c10e7f1 	lui	s0,0xe7f1
bfc07f7c:	36106407 	ori	s0,s0,0x6407
bfc07f80:	15280021 	bne	t1,t0,bfc08008 <main+0x8008>
bfc07f84:	00000000 	nop
bfc07f88:	10000021 	b	bfc08010 <main+0x8010>
bfc07f8c:	00000000 	nop
bfc07f90:	00000021 	move	zero,zero
bfc07f94:	00000021 	move	zero,zero
bfc07f98:	00000021 	move	zero,zero
bfc07f9c:	00000021 	move	zero,zero
bfc07fa0:	00000021 	move	zero,zero
bfc07fa4:	00000021 	move	zero,zero
bfc07fa8:	00000021 	move	zero,zero
bfc07fac:	00000021 	move	zero,zero
bfc07fb0:	00000021 	move	zero,zero
bfc07fb4:	00000021 	move	zero,zero
bfc07fb8:	00000021 	move	zero,zero
bfc07fbc:	00000021 	move	zero,zero
bfc07fc0:	00000021 	move	zero,zero
bfc07fc4:	00000021 	move	zero,zero
bfc07fc8:	3c08cea5 	lui	t0,0xcea5
bfc07fcc:	35087950 	ori	t0,t0,0x7950
bfc07fd0:	3c09cea5 	lui	t1,0xcea5
bfc07fd4:	35297950 	ori	t1,t1,0x7950
bfc07fd8:	1509ffe7 	bne	t0,t1,bfc07f78 <main+0x7f78>
bfc07fdc:	00000000 	nop
bfc07fe0:	1000000b 	b	bfc08010 <main+0x8010>
bfc07fe4:	00000000 	nop
bfc07fe8:	00000021 	move	zero,zero
bfc07fec:	00000021 	move	zero,zero
bfc07ff0:	00000021 	move	zero,zero
bfc07ff4:	00000021 	move	zero,zero
bfc07ff8:	00000021 	move	zero,zero
bfc07ffc:	00000021 	move	zero,zero
bfc08000:	00000021 	move	zero,zero
bfc08004:	00000021 	move	zero,zero
bfc08008:	3c129394 	lui	s2,0x9394
bfc0800c:	36521160 	ori	s2,s2,0x1160
bfc08010:	00000000 	nop
bfc08014:	24140000 	li	s4,0
bfc08018:	16141f73 	bne	s0,s4,bfc0fde8 <inst_error>
bfc0801c:	00000000 	nop
bfc08020:	24150000 	li	s5,0
bfc08024:	16551f70 	bne	s2,s5,bfc0fde8 <inst_error>
bfc08028:	00000000 	nop
bfc0802c:	3c0cfb77 	lui	t4,0xfb77
bfc08030:	358c1004 	ori	t4,t4,0x1004
bfc08034:	3c0d5141 	lui	t5,0x5141
bfc08038:	35ad5156 	ori	t5,t5,0x5156
bfc0803c:	24100000 	li	s0,0
bfc08040:	24120000 	li	s2,0
bfc08044:	10000015 	b	bfc0809c <main+0x809c>
bfc08048:	00000000 	nop
bfc0804c:	3c10fb77 	lui	s0,0xfb77
bfc08050:	36101004 	ori	s0,s0,0x1004
bfc08054:	15280021 	bne	t1,t0,bfc080dc <main+0x80dc>
bfc08058:	00000000 	nop
bfc0805c:	10000021 	b	bfc080e4 <main+0x80e4>
bfc08060:	00000000 	nop
bfc08064:	00000021 	move	zero,zero
bfc08068:	00000021 	move	zero,zero
bfc0806c:	00000021 	move	zero,zero
bfc08070:	00000021 	move	zero,zero
bfc08074:	00000021 	move	zero,zero
bfc08078:	00000021 	move	zero,zero
bfc0807c:	00000021 	move	zero,zero
bfc08080:	00000021 	move	zero,zero
bfc08084:	00000021 	move	zero,zero
bfc08088:	00000021 	move	zero,zero
bfc0808c:	00000021 	move	zero,zero
bfc08090:	00000021 	move	zero,zero
bfc08094:	00000021 	move	zero,zero
bfc08098:	00000021 	move	zero,zero
bfc0809c:	3c084bea 	lui	t0,0x4bea
bfc080a0:	35087c0c 	ori	t0,t0,0x7c0c
bfc080a4:	3c094bea 	lui	t1,0x4bea
bfc080a8:	35297c0c 	ori	t1,t1,0x7c0c
bfc080ac:	1509ffe7 	bne	t0,t1,bfc0804c <main+0x804c>
bfc080b0:	00000000 	nop
bfc080b4:	1000000b 	b	bfc080e4 <main+0x80e4>
bfc080b8:	00000000 	nop
bfc080bc:	00000021 	move	zero,zero
bfc080c0:	00000021 	move	zero,zero
bfc080c4:	00000021 	move	zero,zero
bfc080c8:	00000021 	move	zero,zero
bfc080cc:	00000021 	move	zero,zero
bfc080d0:	00000021 	move	zero,zero
bfc080d4:	00000021 	move	zero,zero
bfc080d8:	00000021 	move	zero,zero
bfc080dc:	3c125141 	lui	s2,0x5141
bfc080e0:	36525156 	ori	s2,s2,0x5156
bfc080e4:	00000000 	nop
bfc080e8:	24140000 	li	s4,0
bfc080ec:	16141f3e 	bne	s0,s4,bfc0fde8 <inst_error>
bfc080f0:	00000000 	nop
bfc080f4:	24150000 	li	s5,0
bfc080f8:	16551f3b 	bne	s2,s5,bfc0fde8 <inst_error>
bfc080fc:	00000000 	nop
bfc08100:	3c0cd27c 	lui	t4,0xd27c
bfc08104:	358c1000 	ori	t4,t4,0x1000
bfc08108:	3c0deb29 	lui	t5,0xeb29
bfc0810c:	35ad72e0 	ori	t5,t5,0x72e0
bfc08110:	24100000 	li	s0,0
bfc08114:	24120000 	li	s2,0
bfc08118:	10000015 	b	bfc08170 <main+0x8170>
bfc0811c:	00000000 	nop
bfc08120:	3c10d27c 	lui	s0,0xd27c
bfc08124:	36101000 	ori	s0,s0,0x1000
bfc08128:	15280021 	bne	t1,t0,bfc081b0 <main+0x81b0>
bfc0812c:	00000000 	nop
bfc08130:	10000021 	b	bfc081b8 <main+0x81b8>
bfc08134:	00000000 	nop
bfc08138:	00000021 	move	zero,zero
bfc0813c:	00000021 	move	zero,zero
bfc08140:	00000021 	move	zero,zero
bfc08144:	00000021 	move	zero,zero
bfc08148:	00000021 	move	zero,zero
bfc0814c:	00000021 	move	zero,zero
bfc08150:	00000021 	move	zero,zero
bfc08154:	00000021 	move	zero,zero
bfc08158:	00000021 	move	zero,zero
bfc0815c:	00000021 	move	zero,zero
bfc08160:	00000021 	move	zero,zero
bfc08164:	00000021 	move	zero,zero
bfc08168:	00000021 	move	zero,zero
bfc0816c:	00000021 	move	zero,zero
bfc08170:	3c088d01 	lui	t0,0x8d01
bfc08174:	35086c01 	ori	t0,t0,0x6c01
bfc08178:	3c098d01 	lui	t1,0x8d01
bfc0817c:	35296c01 	ori	t1,t1,0x6c01
bfc08180:	1509ffe7 	bne	t0,t1,bfc08120 <main+0x8120>
bfc08184:	00000000 	nop
bfc08188:	1000000b 	b	bfc081b8 <main+0x81b8>
bfc0818c:	00000000 	nop
bfc08190:	00000021 	move	zero,zero
bfc08194:	00000021 	move	zero,zero
bfc08198:	00000021 	move	zero,zero
bfc0819c:	00000021 	move	zero,zero
bfc081a0:	00000021 	move	zero,zero
bfc081a4:	00000021 	move	zero,zero
bfc081a8:	00000021 	move	zero,zero
bfc081ac:	00000021 	move	zero,zero
bfc081b0:	3c12eb29 	lui	s2,0xeb29
bfc081b4:	365272e0 	ori	s2,s2,0x72e0
bfc081b8:	00000000 	nop
bfc081bc:	24140000 	li	s4,0
bfc081c0:	16141f09 	bne	s0,s4,bfc0fde8 <inst_error>
bfc081c4:	00000000 	nop
bfc081c8:	24150000 	li	s5,0
bfc081cc:	16551f06 	bne	s2,s5,bfc0fde8 <inst_error>
bfc081d0:	00000000 	nop
bfc081d4:	3c0c892b 	lui	t4,0x892b
bfc081d8:	358c7a57 	ori	t4,t4,0x7a57
bfc081dc:	3c0d7a38 	lui	t5,0x7a38
bfc081e0:	35adc5a0 	ori	t5,t5,0xc5a0
bfc081e4:	24100000 	li	s0,0
bfc081e8:	24120000 	li	s2,0
bfc081ec:	10000015 	b	bfc08244 <main+0x8244>
bfc081f0:	00000000 	nop
bfc081f4:	3c10892b 	lui	s0,0x892b
bfc081f8:	36107a57 	ori	s0,s0,0x7a57
bfc081fc:	15280021 	bne	t1,t0,bfc08284 <main+0x8284>
bfc08200:	00000000 	nop
bfc08204:	10000021 	b	bfc0828c <main+0x828c>
bfc08208:	00000000 	nop
bfc0820c:	00000021 	move	zero,zero
bfc08210:	00000021 	move	zero,zero
bfc08214:	00000021 	move	zero,zero
bfc08218:	00000021 	move	zero,zero
bfc0821c:	00000021 	move	zero,zero
bfc08220:	00000021 	move	zero,zero
bfc08224:	00000021 	move	zero,zero
bfc08228:	00000021 	move	zero,zero
bfc0822c:	00000021 	move	zero,zero
bfc08230:	00000021 	move	zero,zero
bfc08234:	00000021 	move	zero,zero
bfc08238:	00000021 	move	zero,zero
bfc0823c:	00000021 	move	zero,zero
bfc08240:	00000021 	move	zero,zero
bfc08244:	3c0861b9 	lui	t0,0x61b9
bfc08248:	350870a6 	ori	t0,t0,0x70a6
bfc0824c:	3c0961b9 	lui	t1,0x61b9
bfc08250:	352970a6 	ori	t1,t1,0x70a6
bfc08254:	1509ffe7 	bne	t0,t1,bfc081f4 <main+0x81f4>
bfc08258:	00000000 	nop
bfc0825c:	1000000b 	b	bfc0828c <main+0x828c>
bfc08260:	00000000 	nop
bfc08264:	00000021 	move	zero,zero
bfc08268:	00000021 	move	zero,zero
bfc0826c:	00000021 	move	zero,zero
bfc08270:	00000021 	move	zero,zero
bfc08274:	00000021 	move	zero,zero
bfc08278:	00000021 	move	zero,zero
bfc0827c:	00000021 	move	zero,zero
bfc08280:	00000021 	move	zero,zero
bfc08284:	3c127a38 	lui	s2,0x7a38
bfc08288:	3652c5a0 	ori	s2,s2,0xc5a0
bfc0828c:	00000000 	nop
bfc08290:	24140000 	li	s4,0
bfc08294:	16141ed4 	bne	s0,s4,bfc0fde8 <inst_error>
bfc08298:	00000000 	nop
bfc0829c:	24150000 	li	s5,0
bfc082a0:	16551ed1 	bne	s2,s5,bfc0fde8 <inst_error>
bfc082a4:	00000000 	nop
bfc082a8:	3c0c2f76 	lui	t4,0x2f76
bfc082ac:	358c9205 	ori	t4,t4,0x9205
bfc082b0:	3c0dbc57 	lui	t5,0xbc57
bfc082b4:	35adb538 	ori	t5,t5,0xb538
bfc082b8:	24100000 	li	s0,0
bfc082bc:	24120000 	li	s2,0
bfc082c0:	10000015 	b	bfc08318 <main+0x8318>
bfc082c4:	00000000 	nop
bfc082c8:	3c102f76 	lui	s0,0x2f76
bfc082cc:	36109205 	ori	s0,s0,0x9205
bfc082d0:	15280021 	bne	t1,t0,bfc08358 <main+0x8358>
bfc082d4:	00000000 	nop
bfc082d8:	10000021 	b	bfc08360 <main+0x8360>
bfc082dc:	00000000 	nop
bfc082e0:	00000021 	move	zero,zero
bfc082e4:	00000021 	move	zero,zero
bfc082e8:	00000021 	move	zero,zero
bfc082ec:	00000021 	move	zero,zero
bfc082f0:	00000021 	move	zero,zero
bfc082f4:	00000021 	move	zero,zero
bfc082f8:	00000021 	move	zero,zero
bfc082fc:	00000021 	move	zero,zero
bfc08300:	00000021 	move	zero,zero
bfc08304:	00000021 	move	zero,zero
bfc08308:	00000021 	move	zero,zero
bfc0830c:	00000021 	move	zero,zero
bfc08310:	00000021 	move	zero,zero
bfc08314:	00000021 	move	zero,zero
bfc08318:	3c083519 	lui	t0,0x3519
bfc0831c:	35083060 	ori	t0,t0,0x3060
bfc08320:	3c093519 	lui	t1,0x3519
bfc08324:	35293060 	ori	t1,t1,0x3060
bfc08328:	1509ffe7 	bne	t0,t1,bfc082c8 <main+0x82c8>
bfc0832c:	00000000 	nop
bfc08330:	1000000b 	b	bfc08360 <main+0x8360>
bfc08334:	00000000 	nop
bfc08338:	00000021 	move	zero,zero
bfc0833c:	00000021 	move	zero,zero
bfc08340:	00000021 	move	zero,zero
bfc08344:	00000021 	move	zero,zero
bfc08348:	00000021 	move	zero,zero
bfc0834c:	00000021 	move	zero,zero
bfc08350:	00000021 	move	zero,zero
bfc08354:	00000021 	move	zero,zero
bfc08358:	3c12bc57 	lui	s2,0xbc57
bfc0835c:	3652b538 	ori	s2,s2,0xb538
bfc08360:	00000000 	nop
bfc08364:	24140000 	li	s4,0
bfc08368:	16141e9f 	bne	s0,s4,bfc0fde8 <inst_error>
bfc0836c:	00000000 	nop
bfc08370:	24150000 	li	s5,0
bfc08374:	16551e9c 	bne	s2,s5,bfc0fde8 <inst_error>
bfc08378:	00000000 	nop
bfc0837c:	3c0cc1fe 	lui	t4,0xc1fe
bfc08380:	358cd10a 	ori	t4,t4,0xd10a
bfc08384:	3c0da6df 	lui	t5,0xa6df
bfc08388:	35ad7480 	ori	t5,t5,0x7480
bfc0838c:	24100000 	li	s0,0
bfc08390:	24120000 	li	s2,0
bfc08394:	10000015 	b	bfc083ec <main+0x83ec>
bfc08398:	00000000 	nop
bfc0839c:	3c10c1fe 	lui	s0,0xc1fe
bfc083a0:	3610d10a 	ori	s0,s0,0xd10a
bfc083a4:	15280021 	bne	t1,t0,bfc0842c <main+0x842c>
bfc083a8:	00000000 	nop
bfc083ac:	10000021 	b	bfc08434 <main+0x8434>
bfc083b0:	00000000 	nop
bfc083b4:	00000021 	move	zero,zero
bfc083b8:	00000021 	move	zero,zero
bfc083bc:	00000021 	move	zero,zero
bfc083c0:	00000021 	move	zero,zero
bfc083c4:	00000021 	move	zero,zero
bfc083c8:	00000021 	move	zero,zero
bfc083cc:	00000021 	move	zero,zero
bfc083d0:	00000021 	move	zero,zero
bfc083d4:	00000021 	move	zero,zero
bfc083d8:	00000021 	move	zero,zero
bfc083dc:	00000021 	move	zero,zero
bfc083e0:	00000021 	move	zero,zero
bfc083e4:	00000021 	move	zero,zero
bfc083e8:	00000021 	move	zero,zero
bfc083ec:	3c084f47 	lui	t0,0x4f47
bfc083f0:	350842b2 	ori	t0,t0,0x42b2
bfc083f4:	3c094f47 	lui	t1,0x4f47
bfc083f8:	352942b2 	ori	t1,t1,0x42b2
bfc083fc:	1509ffe7 	bne	t0,t1,bfc0839c <main+0x839c>
bfc08400:	00000000 	nop
bfc08404:	1000000b 	b	bfc08434 <main+0x8434>
bfc08408:	00000000 	nop
bfc0840c:	00000021 	move	zero,zero
bfc08410:	00000021 	move	zero,zero
bfc08414:	00000021 	move	zero,zero
bfc08418:	00000021 	move	zero,zero
bfc0841c:	00000021 	move	zero,zero
bfc08420:	00000021 	move	zero,zero
bfc08424:	00000021 	move	zero,zero
bfc08428:	00000021 	move	zero,zero
bfc0842c:	3c12a6df 	lui	s2,0xa6df
bfc08430:	36527480 	ori	s2,s2,0x7480
bfc08434:	00000000 	nop
bfc08438:	24140000 	li	s4,0
bfc0843c:	16141e6a 	bne	s0,s4,bfc0fde8 <inst_error>
bfc08440:	00000000 	nop
bfc08444:	24150000 	li	s5,0
bfc08448:	16551e67 	bne	s2,s5,bfc0fde8 <inst_error>
bfc0844c:	00000000 	nop
bfc08450:	3c0ca349 	lui	t4,0xa349
bfc08454:	358cc9d0 	ori	t4,t4,0xc9d0
bfc08458:	3c0dee92 	lui	t5,0xee92
bfc0845c:	35adb690 	ori	t5,t5,0xb690
bfc08460:	24100000 	li	s0,0
bfc08464:	24120000 	li	s2,0
bfc08468:	10000015 	b	bfc084c0 <main+0x84c0>
bfc0846c:	00000000 	nop
bfc08470:	3c10a349 	lui	s0,0xa349
bfc08474:	3610c9d0 	ori	s0,s0,0xc9d0
bfc08478:	15280021 	bne	t1,t0,bfc08500 <main+0x8500>
bfc0847c:	00000000 	nop
bfc08480:	10000021 	b	bfc08508 <main+0x8508>
bfc08484:	00000000 	nop
bfc08488:	00000021 	move	zero,zero
bfc0848c:	00000021 	move	zero,zero
bfc08490:	00000021 	move	zero,zero
bfc08494:	00000021 	move	zero,zero
bfc08498:	00000021 	move	zero,zero
bfc0849c:	00000021 	move	zero,zero
bfc084a0:	00000021 	move	zero,zero
bfc084a4:	00000021 	move	zero,zero
bfc084a8:	00000021 	move	zero,zero
bfc084ac:	00000021 	move	zero,zero
bfc084b0:	00000021 	move	zero,zero
bfc084b4:	00000021 	move	zero,zero
bfc084b8:	00000021 	move	zero,zero
bfc084bc:	00000021 	move	zero,zero
bfc084c0:	3c0834ff 	lui	t0,0x34ff
bfc084c4:	35086015 	ori	t0,t0,0x6015
bfc084c8:	3c0934ff 	lui	t1,0x34ff
bfc084cc:	35296015 	ori	t1,t1,0x6015
bfc084d0:	1509ffe7 	bne	t0,t1,bfc08470 <main+0x8470>
bfc084d4:	00000000 	nop
bfc084d8:	1000000b 	b	bfc08508 <main+0x8508>
bfc084dc:	00000000 	nop
bfc084e0:	00000021 	move	zero,zero
bfc084e4:	00000021 	move	zero,zero
bfc084e8:	00000021 	move	zero,zero
bfc084ec:	00000021 	move	zero,zero
bfc084f0:	00000021 	move	zero,zero
bfc084f4:	00000021 	move	zero,zero
bfc084f8:	00000021 	move	zero,zero
bfc084fc:	00000021 	move	zero,zero
bfc08500:	3c12ee92 	lui	s2,0xee92
bfc08504:	3652b690 	ori	s2,s2,0xb690
bfc08508:	00000000 	nop
bfc0850c:	24140000 	li	s4,0
bfc08510:	16141e35 	bne	s0,s4,bfc0fde8 <inst_error>
bfc08514:	00000000 	nop
bfc08518:	24150000 	li	s5,0
bfc0851c:	16551e32 	bne	s2,s5,bfc0fde8 <inst_error>
bfc08520:	00000000 	nop
bfc08524:	3c0c2362 	lui	t4,0x2362
bfc08528:	358c6e88 	ori	t4,t4,0x6e88
bfc0852c:	3c0dbc5d 	lui	t5,0xbc5d
bfc08530:	35ad8560 	ori	t5,t5,0x8560
bfc08534:	24100000 	li	s0,0
bfc08538:	24120000 	li	s2,0
bfc0853c:	10000015 	b	bfc08594 <main+0x8594>
bfc08540:	00000000 	nop
bfc08544:	3c102362 	lui	s0,0x2362
bfc08548:	36106e88 	ori	s0,s0,0x6e88
bfc0854c:	15280021 	bne	t1,t0,bfc085d4 <main+0x85d4>
bfc08550:	00000000 	nop
bfc08554:	10000021 	b	bfc085dc <main+0x85dc>
bfc08558:	00000000 	nop
bfc0855c:	00000021 	move	zero,zero
bfc08560:	00000021 	move	zero,zero
bfc08564:	00000021 	move	zero,zero
bfc08568:	00000021 	move	zero,zero
bfc0856c:	00000021 	move	zero,zero
bfc08570:	00000021 	move	zero,zero
bfc08574:	00000021 	move	zero,zero
bfc08578:	00000021 	move	zero,zero
bfc0857c:	00000021 	move	zero,zero
bfc08580:	00000021 	move	zero,zero
bfc08584:	00000021 	move	zero,zero
bfc08588:	00000021 	move	zero,zero
bfc0858c:	00000021 	move	zero,zero
bfc08590:	00000021 	move	zero,zero
bfc08594:	3c08e30d 	lui	t0,0xe30d
bfc08598:	3508c982 	ori	t0,t0,0xc982
bfc0859c:	3c09e30d 	lui	t1,0xe30d
bfc085a0:	3529c982 	ori	t1,t1,0xc982
bfc085a4:	1509ffe7 	bne	t0,t1,bfc08544 <main+0x8544>
bfc085a8:	00000000 	nop
bfc085ac:	1000000b 	b	bfc085dc <main+0x85dc>
bfc085b0:	00000000 	nop
bfc085b4:	00000021 	move	zero,zero
bfc085b8:	00000021 	move	zero,zero
bfc085bc:	00000021 	move	zero,zero
bfc085c0:	00000021 	move	zero,zero
bfc085c4:	00000021 	move	zero,zero
bfc085c8:	00000021 	move	zero,zero
bfc085cc:	00000021 	move	zero,zero
bfc085d0:	00000021 	move	zero,zero
bfc085d4:	3c12bc5d 	lui	s2,0xbc5d
bfc085d8:	36528560 	ori	s2,s2,0x8560
bfc085dc:	00000000 	nop
bfc085e0:	24140000 	li	s4,0
bfc085e4:	16141e00 	bne	s0,s4,bfc0fde8 <inst_error>
bfc085e8:	00000000 	nop
bfc085ec:	24150000 	li	s5,0
bfc085f0:	16551dfd 	bne	s2,s5,bfc0fde8 <inst_error>
bfc085f4:	00000000 	nop
bfc085f8:	3c0c8c06 	lui	t4,0x8c06
bfc085fc:	358ce6e0 	ori	t4,t4,0xe6e0
bfc08600:	3c0d2b87 	lui	t5,0x2b87
bfc08604:	35ad2fc0 	ori	t5,t5,0x2fc0
bfc08608:	24100000 	li	s0,0
bfc0860c:	24120000 	li	s2,0
bfc08610:	10000015 	b	bfc08668 <main+0x8668>
bfc08614:	00000000 	nop
bfc08618:	3c108c06 	lui	s0,0x8c06
bfc0861c:	3610e6e0 	ori	s0,s0,0xe6e0
bfc08620:	15280021 	bne	t1,t0,bfc086a8 <main+0x86a8>
bfc08624:	00000000 	nop
bfc08628:	10000021 	b	bfc086b0 <main+0x86b0>
bfc0862c:	00000000 	nop
bfc08630:	00000021 	move	zero,zero
bfc08634:	00000021 	move	zero,zero
bfc08638:	00000021 	move	zero,zero
bfc0863c:	00000021 	move	zero,zero
bfc08640:	00000021 	move	zero,zero
bfc08644:	00000021 	move	zero,zero
bfc08648:	00000021 	move	zero,zero
bfc0864c:	00000021 	move	zero,zero
bfc08650:	00000021 	move	zero,zero
bfc08654:	00000021 	move	zero,zero
bfc08658:	00000021 	move	zero,zero
bfc0865c:	00000021 	move	zero,zero
bfc08660:	00000021 	move	zero,zero
bfc08664:	00000021 	move	zero,zero
bfc08668:	3c0802c3 	lui	t0,0x2c3
bfc0866c:	3508561e 	ori	t0,t0,0x561e
bfc08670:	3c0902c3 	lui	t1,0x2c3
bfc08674:	3529561e 	ori	t1,t1,0x561e
bfc08678:	1509ffe7 	bne	t0,t1,bfc08618 <main+0x8618>
bfc0867c:	00000000 	nop
bfc08680:	1000000b 	b	bfc086b0 <main+0x86b0>
bfc08684:	00000000 	nop
bfc08688:	00000021 	move	zero,zero
bfc0868c:	00000021 	move	zero,zero
bfc08690:	00000021 	move	zero,zero
bfc08694:	00000021 	move	zero,zero
bfc08698:	00000021 	move	zero,zero
bfc0869c:	00000021 	move	zero,zero
bfc086a0:	00000021 	move	zero,zero
bfc086a4:	00000021 	move	zero,zero
bfc086a8:	3c122b87 	lui	s2,0x2b87
bfc086ac:	36522fc0 	ori	s2,s2,0x2fc0
bfc086b0:	00000000 	nop
bfc086b4:	24140000 	li	s4,0
bfc086b8:	16141dcb 	bne	s0,s4,bfc0fde8 <inst_error>
bfc086bc:	00000000 	nop
bfc086c0:	24150000 	li	s5,0
bfc086c4:	16551dc8 	bne	s2,s5,bfc0fde8 <inst_error>
bfc086c8:	00000000 	nop
bfc086cc:	3c0cfecd 	lui	t4,0xfecd
bfc086d0:	358caf9e 	ori	t4,t4,0xaf9e
bfc086d4:	3c0db8cf 	lui	t5,0xb8cf
bfc086d8:	35adfea3 	ori	t5,t5,0xfea3
bfc086dc:	24100000 	li	s0,0
bfc086e0:	24120000 	li	s2,0
bfc086e4:	10000015 	b	bfc0873c <main+0x873c>
bfc086e8:	00000000 	nop
bfc086ec:	3c10fecd 	lui	s0,0xfecd
bfc086f0:	3610af9e 	ori	s0,s0,0xaf9e
bfc086f4:	15280021 	bne	t1,t0,bfc0877c <main+0x877c>
bfc086f8:	00000000 	nop
bfc086fc:	10000021 	b	bfc08784 <main+0x8784>
bfc08700:	00000000 	nop
bfc08704:	00000021 	move	zero,zero
bfc08708:	00000021 	move	zero,zero
bfc0870c:	00000021 	move	zero,zero
bfc08710:	00000021 	move	zero,zero
bfc08714:	00000021 	move	zero,zero
bfc08718:	00000021 	move	zero,zero
bfc0871c:	00000021 	move	zero,zero
bfc08720:	00000021 	move	zero,zero
bfc08724:	00000021 	move	zero,zero
bfc08728:	00000021 	move	zero,zero
bfc0872c:	00000021 	move	zero,zero
bfc08730:	00000021 	move	zero,zero
bfc08734:	00000021 	move	zero,zero
bfc08738:	00000021 	move	zero,zero
bfc0873c:	3c08ed55 	lui	t0,0xed55
bfc08740:	350810e4 	ori	t0,t0,0x10e4
bfc08744:	3c09ed55 	lui	t1,0xed55
bfc08748:	352910e4 	ori	t1,t1,0x10e4
bfc0874c:	1509ffe7 	bne	t0,t1,bfc086ec <main+0x86ec>
bfc08750:	00000000 	nop
bfc08754:	1000000b 	b	bfc08784 <main+0x8784>
bfc08758:	00000000 	nop
bfc0875c:	00000021 	move	zero,zero
bfc08760:	00000021 	move	zero,zero
bfc08764:	00000021 	move	zero,zero
bfc08768:	00000021 	move	zero,zero
bfc0876c:	00000021 	move	zero,zero
bfc08770:	00000021 	move	zero,zero
bfc08774:	00000021 	move	zero,zero
bfc08778:	00000021 	move	zero,zero
bfc0877c:	3c12b8cf 	lui	s2,0xb8cf
bfc08780:	3652fea3 	ori	s2,s2,0xfea3
bfc08784:	00000000 	nop
bfc08788:	24140000 	li	s4,0
bfc0878c:	16141d96 	bne	s0,s4,bfc0fde8 <inst_error>
bfc08790:	00000000 	nop
bfc08794:	24150000 	li	s5,0
bfc08798:	16551d93 	bne	s2,s5,bfc0fde8 <inst_error>
bfc0879c:	00000000 	nop
bfc087a0:	3c0c91ad 	lui	t4,0x91ad
bfc087a4:	358c998b 	ori	t4,t4,0x998b
bfc087a8:	3c0d7325 	lui	t5,0x7325
bfc087ac:	35ad7eb8 	ori	t5,t5,0x7eb8
bfc087b0:	24100000 	li	s0,0
bfc087b4:	24120000 	li	s2,0
bfc087b8:	10000015 	b	bfc08810 <main+0x8810>
bfc087bc:	00000000 	nop
bfc087c0:	3c1091ad 	lui	s0,0x91ad
bfc087c4:	3610998b 	ori	s0,s0,0x998b
bfc087c8:	15280021 	bne	t1,t0,bfc08850 <main+0x8850>
bfc087cc:	00000000 	nop
bfc087d0:	10000021 	b	bfc08858 <main+0x8858>
bfc087d4:	00000000 	nop
bfc087d8:	00000021 	move	zero,zero
bfc087dc:	00000021 	move	zero,zero
bfc087e0:	00000021 	move	zero,zero
bfc087e4:	00000021 	move	zero,zero
bfc087e8:	00000021 	move	zero,zero
bfc087ec:	00000021 	move	zero,zero
bfc087f0:	00000021 	move	zero,zero
bfc087f4:	00000021 	move	zero,zero
bfc087f8:	00000021 	move	zero,zero
bfc087fc:	00000021 	move	zero,zero
bfc08800:	00000021 	move	zero,zero
bfc08804:	00000021 	move	zero,zero
bfc08808:	00000021 	move	zero,zero
bfc0880c:	00000021 	move	zero,zero
bfc08810:	3c0866b9 	lui	t0,0x66b9
bfc08814:	3508f9a3 	ori	t0,t0,0xf9a3
bfc08818:	3c0966b9 	lui	t1,0x66b9
bfc0881c:	3529f9a3 	ori	t1,t1,0xf9a3
bfc08820:	1509ffe7 	bne	t0,t1,bfc087c0 <main+0x87c0>
bfc08824:	00000000 	nop
bfc08828:	1000000b 	b	bfc08858 <main+0x8858>
bfc0882c:	00000000 	nop
bfc08830:	00000021 	move	zero,zero
bfc08834:	00000021 	move	zero,zero
bfc08838:	00000021 	move	zero,zero
bfc0883c:	00000021 	move	zero,zero
bfc08840:	00000021 	move	zero,zero
bfc08844:	00000021 	move	zero,zero
bfc08848:	00000021 	move	zero,zero
bfc0884c:	00000021 	move	zero,zero
bfc08850:	3c127325 	lui	s2,0x7325
bfc08854:	36527eb8 	ori	s2,s2,0x7eb8
bfc08858:	00000000 	nop
bfc0885c:	24140000 	li	s4,0
bfc08860:	16141d61 	bne	s0,s4,bfc0fde8 <inst_error>
bfc08864:	00000000 	nop
bfc08868:	24150000 	li	s5,0
bfc0886c:	16551d5e 	bne	s2,s5,bfc0fde8 <inst_error>
bfc08870:	00000000 	nop
bfc08874:	3c0c0cf1 	lui	t4,0xcf1
bfc08878:	358cb018 	ori	t4,t4,0xb018
bfc0887c:	3c0d0cf0 	lui	t5,0xcf0
bfc08880:	35ad25a4 	ori	t5,t5,0x25a4
bfc08884:	24100000 	li	s0,0
bfc08888:	24120000 	li	s2,0
bfc0888c:	10000015 	b	bfc088e4 <main+0x88e4>
bfc08890:	00000000 	nop
bfc08894:	3c100cf1 	lui	s0,0xcf1
bfc08898:	3610b018 	ori	s0,s0,0xb018
bfc0889c:	15280021 	bne	t1,t0,bfc08924 <main+0x8924>
bfc088a0:	00000000 	nop
bfc088a4:	10000021 	b	bfc0892c <main+0x892c>
bfc088a8:	00000000 	nop
bfc088ac:	00000021 	move	zero,zero
bfc088b0:	00000021 	move	zero,zero
bfc088b4:	00000021 	move	zero,zero
bfc088b8:	00000021 	move	zero,zero
bfc088bc:	00000021 	move	zero,zero
bfc088c0:	00000021 	move	zero,zero
bfc088c4:	00000021 	move	zero,zero
bfc088c8:	00000021 	move	zero,zero
bfc088cc:	00000021 	move	zero,zero
bfc088d0:	00000021 	move	zero,zero
bfc088d4:	00000021 	move	zero,zero
bfc088d8:	00000021 	move	zero,zero
bfc088dc:	00000021 	move	zero,zero
bfc088e0:	00000021 	move	zero,zero
bfc088e4:	3c08228a 	lui	t0,0x228a
bfc088e8:	35081f40 	ori	t0,t0,0x1f40
bfc088ec:	3c09228a 	lui	t1,0x228a
bfc088f0:	35291f40 	ori	t1,t1,0x1f40
bfc088f4:	1509ffe7 	bne	t0,t1,bfc08894 <main+0x8894>
bfc088f8:	00000000 	nop
bfc088fc:	1000000b 	b	bfc0892c <main+0x892c>
bfc08900:	00000000 	nop
bfc08904:	00000021 	move	zero,zero
bfc08908:	00000021 	move	zero,zero
bfc0890c:	00000021 	move	zero,zero
bfc08910:	00000021 	move	zero,zero
bfc08914:	00000021 	move	zero,zero
bfc08918:	00000021 	move	zero,zero
bfc0891c:	00000021 	move	zero,zero
bfc08920:	00000021 	move	zero,zero
bfc08924:	3c120cf0 	lui	s2,0xcf0
bfc08928:	365225a4 	ori	s2,s2,0x25a4
bfc0892c:	00000000 	nop
bfc08930:	24140000 	li	s4,0
bfc08934:	16141d2c 	bne	s0,s4,bfc0fde8 <inst_error>
bfc08938:	00000000 	nop
bfc0893c:	24150000 	li	s5,0
bfc08940:	16551d29 	bne	s2,s5,bfc0fde8 <inst_error>
bfc08944:	00000000 	nop
bfc08948:	3c0cfe38 	lui	t4,0xfe38
bfc0894c:	358cac95 	ori	t4,t4,0xac95
bfc08950:	3c0d507d 	lui	t5,0x507d
bfc08954:	35ad2ca0 	ori	t5,t5,0x2ca0
bfc08958:	24100000 	li	s0,0
bfc0895c:	24120000 	li	s2,0
bfc08960:	10000015 	b	bfc089b8 <main+0x89b8>
bfc08964:	00000000 	nop
bfc08968:	3c10fe38 	lui	s0,0xfe38
bfc0896c:	3610ac95 	ori	s0,s0,0xac95
bfc08970:	15280021 	bne	t1,t0,bfc089f8 <main+0x89f8>
bfc08974:	00000000 	nop
bfc08978:	10000021 	b	bfc08a00 <main+0x8a00>
bfc0897c:	00000000 	nop
bfc08980:	00000021 	move	zero,zero
bfc08984:	00000021 	move	zero,zero
bfc08988:	00000021 	move	zero,zero
bfc0898c:	00000021 	move	zero,zero
bfc08990:	00000021 	move	zero,zero
bfc08994:	00000021 	move	zero,zero
bfc08998:	00000021 	move	zero,zero
bfc0899c:	00000021 	move	zero,zero
bfc089a0:	00000021 	move	zero,zero
bfc089a4:	00000021 	move	zero,zero
bfc089a8:	00000021 	move	zero,zero
bfc089ac:	00000021 	move	zero,zero
bfc089b0:	00000021 	move	zero,zero
bfc089b4:	00000021 	move	zero,zero
bfc089b8:	3c08bc2c 	lui	t0,0xbc2c
bfc089bc:	3508c696 	ori	t0,t0,0xc696
bfc089c0:	3c09bc2c 	lui	t1,0xbc2c
bfc089c4:	3529c696 	ori	t1,t1,0xc696
bfc089c8:	1509ffe7 	bne	t0,t1,bfc08968 <main+0x8968>
bfc089cc:	00000000 	nop
bfc089d0:	1000000b 	b	bfc08a00 <main+0x8a00>
bfc089d4:	00000000 	nop
bfc089d8:	00000021 	move	zero,zero
bfc089dc:	00000021 	move	zero,zero
bfc089e0:	00000021 	move	zero,zero
bfc089e4:	00000021 	move	zero,zero
bfc089e8:	00000021 	move	zero,zero
bfc089ec:	00000021 	move	zero,zero
bfc089f0:	00000021 	move	zero,zero
bfc089f4:	00000021 	move	zero,zero
bfc089f8:	3c12507d 	lui	s2,0x507d
bfc089fc:	36522ca0 	ori	s2,s2,0x2ca0
bfc08a00:	00000000 	nop
bfc08a04:	24140000 	li	s4,0
bfc08a08:	16141cf7 	bne	s0,s4,bfc0fde8 <inst_error>
bfc08a0c:	00000000 	nop
bfc08a10:	24150000 	li	s5,0
bfc08a14:	16551cf4 	bne	s2,s5,bfc0fde8 <inst_error>
bfc08a18:	00000000 	nop
bfc08a1c:	3c0c89bd 	lui	t4,0x89bd
bfc08a20:	358c1878 	ori	t4,t4,0x1878
bfc08a24:	3c0d039f 	lui	t5,0x39f
bfc08a28:	35add030 	ori	t5,t5,0xd030
bfc08a2c:	24100000 	li	s0,0
bfc08a30:	24120000 	li	s2,0
bfc08a34:	10000015 	b	bfc08a8c <main+0x8a8c>
bfc08a38:	00000000 	nop
bfc08a3c:	3c1089bd 	lui	s0,0x89bd
bfc08a40:	36101878 	ori	s0,s0,0x1878
bfc08a44:	15280021 	bne	t1,t0,bfc08acc <main+0x8acc>
bfc08a48:	00000000 	nop
bfc08a4c:	10000021 	b	bfc08ad4 <main+0x8ad4>
bfc08a50:	00000000 	nop
bfc08a54:	00000021 	move	zero,zero
bfc08a58:	00000021 	move	zero,zero
bfc08a5c:	00000021 	move	zero,zero
bfc08a60:	00000021 	move	zero,zero
bfc08a64:	00000021 	move	zero,zero
bfc08a68:	00000021 	move	zero,zero
bfc08a6c:	00000021 	move	zero,zero
bfc08a70:	00000021 	move	zero,zero
bfc08a74:	00000021 	move	zero,zero
bfc08a78:	00000021 	move	zero,zero
bfc08a7c:	00000021 	move	zero,zero
bfc08a80:	00000021 	move	zero,zero
bfc08a84:	00000021 	move	zero,zero
bfc08a88:	00000021 	move	zero,zero
bfc08a8c:	3c08e04d 	lui	t0,0xe04d
bfc08a90:	3508f6d0 	ori	t0,t0,0xf6d0
bfc08a94:	3c09e04d 	lui	t1,0xe04d
bfc08a98:	3529f6d0 	ori	t1,t1,0xf6d0
bfc08a9c:	1509ffe7 	bne	t0,t1,bfc08a3c <main+0x8a3c>
bfc08aa0:	00000000 	nop
bfc08aa4:	1000000b 	b	bfc08ad4 <main+0x8ad4>
bfc08aa8:	00000000 	nop
bfc08aac:	00000021 	move	zero,zero
bfc08ab0:	00000021 	move	zero,zero
bfc08ab4:	00000021 	move	zero,zero
bfc08ab8:	00000021 	move	zero,zero
bfc08abc:	00000021 	move	zero,zero
bfc08ac0:	00000021 	move	zero,zero
bfc08ac4:	00000021 	move	zero,zero
bfc08ac8:	00000021 	move	zero,zero
bfc08acc:	3c12039f 	lui	s2,0x39f
bfc08ad0:	3652d030 	ori	s2,s2,0xd030
bfc08ad4:	00000000 	nop
bfc08ad8:	24140000 	li	s4,0
bfc08adc:	16141cc2 	bne	s0,s4,bfc0fde8 <inst_error>
bfc08ae0:	00000000 	nop
bfc08ae4:	24150000 	li	s5,0
bfc08ae8:	16551cbf 	bne	s2,s5,bfc0fde8 <inst_error>
bfc08aec:	00000000 	nop
bfc08af0:	3c0cb124 	lui	t4,0xb124
bfc08af4:	358c9e00 	ori	t4,t4,0x9e00
bfc08af8:	3c0d9eaa 	lui	t5,0x9eaa
bfc08afc:	35ad76f4 	ori	t5,t5,0x76f4
bfc08b00:	24100000 	li	s0,0
bfc08b04:	24120000 	li	s2,0
bfc08b08:	10000015 	b	bfc08b60 <main+0x8b60>
bfc08b0c:	00000000 	nop
bfc08b10:	3c10b124 	lui	s0,0xb124
bfc08b14:	36109e00 	ori	s0,s0,0x9e00
bfc08b18:	15280021 	bne	t1,t0,bfc08ba0 <main+0x8ba0>
bfc08b1c:	00000000 	nop
bfc08b20:	10000021 	b	bfc08ba8 <main+0x8ba8>
bfc08b24:	00000000 	nop
bfc08b28:	00000021 	move	zero,zero
bfc08b2c:	00000021 	move	zero,zero
bfc08b30:	00000021 	move	zero,zero
bfc08b34:	00000021 	move	zero,zero
bfc08b38:	00000021 	move	zero,zero
bfc08b3c:	00000021 	move	zero,zero
bfc08b40:	00000021 	move	zero,zero
bfc08b44:	00000021 	move	zero,zero
bfc08b48:	00000021 	move	zero,zero
bfc08b4c:	00000021 	move	zero,zero
bfc08b50:	00000021 	move	zero,zero
bfc08b54:	00000021 	move	zero,zero
bfc08b58:	00000021 	move	zero,zero
bfc08b5c:	00000021 	move	zero,zero
bfc08b60:	3c08a642 	lui	t0,0xa642
bfc08b64:	3508eba0 	ori	t0,t0,0xeba0
bfc08b68:	3c09a642 	lui	t1,0xa642
bfc08b6c:	3529eba0 	ori	t1,t1,0xeba0
bfc08b70:	1509ffe7 	bne	t0,t1,bfc08b10 <main+0x8b10>
bfc08b74:	00000000 	nop
bfc08b78:	1000000b 	b	bfc08ba8 <main+0x8ba8>
bfc08b7c:	00000000 	nop
bfc08b80:	00000021 	move	zero,zero
bfc08b84:	00000021 	move	zero,zero
bfc08b88:	00000021 	move	zero,zero
bfc08b8c:	00000021 	move	zero,zero
bfc08b90:	00000021 	move	zero,zero
bfc08b94:	00000021 	move	zero,zero
bfc08b98:	00000021 	move	zero,zero
bfc08b9c:	00000021 	move	zero,zero
bfc08ba0:	3c129eaa 	lui	s2,0x9eaa
bfc08ba4:	365276f4 	ori	s2,s2,0x76f4
bfc08ba8:	00000000 	nop
bfc08bac:	24140000 	li	s4,0
bfc08bb0:	16141c8d 	bne	s0,s4,bfc0fde8 <inst_error>
bfc08bb4:	00000000 	nop
bfc08bb8:	24150000 	li	s5,0
bfc08bbc:	16551c8a 	bne	s2,s5,bfc0fde8 <inst_error>
bfc08bc0:	00000000 	nop
bfc08bc4:	3c0c9da9 	lui	t4,0x9da9
bfc08bc8:	358cfb7c 	ori	t4,t4,0xfb7c
bfc08bcc:	3c0d7263 	lui	t5,0x7263
bfc08bd0:	35ad3556 	ori	t5,t5,0x3556
bfc08bd4:	24100000 	li	s0,0
bfc08bd8:	24120000 	li	s2,0
bfc08bdc:	10000015 	b	bfc08c34 <main+0x8c34>
bfc08be0:	00000000 	nop
bfc08be4:	3c109da9 	lui	s0,0x9da9
bfc08be8:	3610fb7c 	ori	s0,s0,0xfb7c
bfc08bec:	15280021 	bne	t1,t0,bfc08c74 <main+0x8c74>
bfc08bf0:	00000000 	nop
bfc08bf4:	10000021 	b	bfc08c7c <main+0x8c7c>
bfc08bf8:	00000000 	nop
bfc08bfc:	00000021 	move	zero,zero
bfc08c00:	00000021 	move	zero,zero
bfc08c04:	00000021 	move	zero,zero
bfc08c08:	00000021 	move	zero,zero
bfc08c0c:	00000021 	move	zero,zero
bfc08c10:	00000021 	move	zero,zero
bfc08c14:	00000021 	move	zero,zero
bfc08c18:	00000021 	move	zero,zero
bfc08c1c:	00000021 	move	zero,zero
bfc08c20:	00000021 	move	zero,zero
bfc08c24:	00000021 	move	zero,zero
bfc08c28:	00000021 	move	zero,zero
bfc08c2c:	00000021 	move	zero,zero
bfc08c30:	00000021 	move	zero,zero
bfc08c34:	3c084f37 	lui	t0,0x4f37
bfc08c38:	35084f58 	ori	t0,t0,0x4f58
bfc08c3c:	3c094f37 	lui	t1,0x4f37
bfc08c40:	35294f58 	ori	t1,t1,0x4f58
bfc08c44:	1509ffe7 	bne	t0,t1,bfc08be4 <main+0x8be4>
bfc08c48:	00000000 	nop
bfc08c4c:	1000000b 	b	bfc08c7c <main+0x8c7c>
bfc08c50:	00000000 	nop
bfc08c54:	00000021 	move	zero,zero
bfc08c58:	00000021 	move	zero,zero
bfc08c5c:	00000021 	move	zero,zero
bfc08c60:	00000021 	move	zero,zero
bfc08c64:	00000021 	move	zero,zero
bfc08c68:	00000021 	move	zero,zero
bfc08c6c:	00000021 	move	zero,zero
bfc08c70:	00000021 	move	zero,zero
bfc08c74:	3c127263 	lui	s2,0x7263
bfc08c78:	36523556 	ori	s2,s2,0x3556
bfc08c7c:	00000000 	nop
bfc08c80:	24140000 	li	s4,0
bfc08c84:	16141c58 	bne	s0,s4,bfc0fde8 <inst_error>
bfc08c88:	00000000 	nop
bfc08c8c:	24150000 	li	s5,0
bfc08c90:	16551c55 	bne	s2,s5,bfc0fde8 <inst_error>
bfc08c94:	00000000 	nop
bfc08c98:	3c0c6eff 	lui	t4,0x6eff
bfc08c9c:	358c3a5a 	ori	t4,t4,0x3a5a
bfc08ca0:	3c0d8f49 	lui	t5,0x8f49
bfc08ca4:	35ade5c8 	ori	t5,t5,0xe5c8
bfc08ca8:	24100000 	li	s0,0
bfc08cac:	24120000 	li	s2,0
bfc08cb0:	10000015 	b	bfc08d08 <main+0x8d08>
bfc08cb4:	00000000 	nop
bfc08cb8:	3c106eff 	lui	s0,0x6eff
bfc08cbc:	36103a5a 	ori	s0,s0,0x3a5a
bfc08cc0:	15280021 	bne	t1,t0,bfc08d48 <main+0x8d48>
bfc08cc4:	00000000 	nop
bfc08cc8:	10000021 	b	bfc08d50 <main+0x8d50>
bfc08ccc:	00000000 	nop
bfc08cd0:	00000021 	move	zero,zero
bfc08cd4:	00000021 	move	zero,zero
bfc08cd8:	00000021 	move	zero,zero
bfc08cdc:	00000021 	move	zero,zero
bfc08ce0:	00000021 	move	zero,zero
bfc08ce4:	00000021 	move	zero,zero
bfc08ce8:	00000021 	move	zero,zero
bfc08cec:	00000021 	move	zero,zero
bfc08cf0:	00000021 	move	zero,zero
bfc08cf4:	00000021 	move	zero,zero
bfc08cf8:	00000021 	move	zero,zero
bfc08cfc:	00000021 	move	zero,zero
bfc08d00:	00000021 	move	zero,zero
bfc08d04:	00000021 	move	zero,zero
bfc08d08:	3c0804d4 	lui	t0,0x4d4
bfc08d0c:	35080200 	ori	t0,t0,0x200
bfc08d10:	3c0904d4 	lui	t1,0x4d4
bfc08d14:	35290200 	ori	t1,t1,0x200
bfc08d18:	1509ffe7 	bne	t0,t1,bfc08cb8 <main+0x8cb8>
bfc08d1c:	00000000 	nop
bfc08d20:	1000000b 	b	bfc08d50 <main+0x8d50>
bfc08d24:	00000000 	nop
bfc08d28:	00000021 	move	zero,zero
bfc08d2c:	00000021 	move	zero,zero
bfc08d30:	00000021 	move	zero,zero
bfc08d34:	00000021 	move	zero,zero
bfc08d38:	00000021 	move	zero,zero
bfc08d3c:	00000021 	move	zero,zero
bfc08d40:	00000021 	move	zero,zero
bfc08d44:	00000021 	move	zero,zero
bfc08d48:	3c128f49 	lui	s2,0x8f49
bfc08d4c:	3652e5c8 	ori	s2,s2,0xe5c8
bfc08d50:	00000000 	nop
bfc08d54:	24140000 	li	s4,0
bfc08d58:	16141c23 	bne	s0,s4,bfc0fde8 <inst_error>
bfc08d5c:	00000000 	nop
bfc08d60:	24150000 	li	s5,0
bfc08d64:	16551c20 	bne	s2,s5,bfc0fde8 <inst_error>
bfc08d68:	00000000 	nop
bfc08d6c:	3c0c1d6d 	lui	t4,0x1d6d
bfc08d70:	358c3640 	ori	t4,t4,0x3640
bfc08d74:	3c0da38f 	lui	t5,0xa38f
bfc08d78:	35ada240 	ori	t5,t5,0xa240
bfc08d7c:	24100000 	li	s0,0
bfc08d80:	24120000 	li	s2,0
bfc08d84:	10000015 	b	bfc08ddc <main+0x8ddc>
bfc08d88:	00000000 	nop
bfc08d8c:	3c101d6d 	lui	s0,0x1d6d
bfc08d90:	36103640 	ori	s0,s0,0x3640
bfc08d94:	15280021 	bne	t1,t0,bfc08e1c <main+0x8e1c>
bfc08d98:	00000000 	nop
bfc08d9c:	10000021 	b	bfc08e24 <main+0x8e24>
bfc08da0:	00000000 	nop
bfc08da4:	00000021 	move	zero,zero
bfc08da8:	00000021 	move	zero,zero
bfc08dac:	00000021 	move	zero,zero
bfc08db0:	00000021 	move	zero,zero
bfc08db4:	00000021 	move	zero,zero
bfc08db8:	00000021 	move	zero,zero
bfc08dbc:	00000021 	move	zero,zero
bfc08dc0:	00000021 	move	zero,zero
bfc08dc4:	00000021 	move	zero,zero
bfc08dc8:	00000021 	move	zero,zero
bfc08dcc:	00000021 	move	zero,zero
bfc08dd0:	00000021 	move	zero,zero
bfc08dd4:	00000021 	move	zero,zero
bfc08dd8:	00000021 	move	zero,zero
bfc08ddc:	3c08f397 	lui	t0,0xf397
bfc08de0:	35087c84 	ori	t0,t0,0x7c84
bfc08de4:	3c09f397 	lui	t1,0xf397
bfc08de8:	35297c84 	ori	t1,t1,0x7c84
bfc08dec:	1509ffe7 	bne	t0,t1,bfc08d8c <main+0x8d8c>
bfc08df0:	00000000 	nop
bfc08df4:	1000000b 	b	bfc08e24 <main+0x8e24>
bfc08df8:	00000000 	nop
bfc08dfc:	00000021 	move	zero,zero
bfc08e00:	00000021 	move	zero,zero
bfc08e04:	00000021 	move	zero,zero
bfc08e08:	00000021 	move	zero,zero
bfc08e0c:	00000021 	move	zero,zero
bfc08e10:	00000021 	move	zero,zero
bfc08e14:	00000021 	move	zero,zero
bfc08e18:	00000021 	move	zero,zero
bfc08e1c:	3c12a38f 	lui	s2,0xa38f
bfc08e20:	3652a240 	ori	s2,s2,0xa240
bfc08e24:	00000000 	nop
bfc08e28:	24140000 	li	s4,0
bfc08e2c:	16141bee 	bne	s0,s4,bfc0fde8 <inst_error>
bfc08e30:	00000000 	nop
bfc08e34:	24150000 	li	s5,0
bfc08e38:	16551beb 	bne	s2,s5,bfc0fde8 <inst_error>
bfc08e3c:	00000000 	nop
bfc08e40:	3c0cfd24 	lui	t4,0xfd24
bfc08e44:	358c9f76 	ori	t4,t4,0x9f76
bfc08e48:	3c0d25e3 	lui	t5,0x25e3
bfc08e4c:	35ad2ba0 	ori	t5,t5,0x2ba0
bfc08e50:	24100000 	li	s0,0
bfc08e54:	24120000 	li	s2,0
bfc08e58:	10000015 	b	bfc08eb0 <main+0x8eb0>
bfc08e5c:	00000000 	nop
bfc08e60:	3c10fd24 	lui	s0,0xfd24
bfc08e64:	36109f76 	ori	s0,s0,0x9f76
bfc08e68:	15280021 	bne	t1,t0,bfc08ef0 <main+0x8ef0>
bfc08e6c:	00000000 	nop
bfc08e70:	10000021 	b	bfc08ef8 <main+0x8ef8>
bfc08e74:	00000000 	nop
bfc08e78:	00000021 	move	zero,zero
bfc08e7c:	00000021 	move	zero,zero
bfc08e80:	00000021 	move	zero,zero
bfc08e84:	00000021 	move	zero,zero
bfc08e88:	00000021 	move	zero,zero
bfc08e8c:	00000021 	move	zero,zero
bfc08e90:	00000021 	move	zero,zero
bfc08e94:	00000021 	move	zero,zero
bfc08e98:	00000021 	move	zero,zero
bfc08e9c:	00000021 	move	zero,zero
bfc08ea0:	00000021 	move	zero,zero
bfc08ea4:	00000021 	move	zero,zero
bfc08ea8:	00000021 	move	zero,zero
bfc08eac:	00000021 	move	zero,zero
bfc08eb0:	3c087bb1 	lui	t0,0x7bb1
bfc08eb4:	3508fa14 	ori	t0,t0,0xfa14
bfc08eb8:	3c097bb1 	lui	t1,0x7bb1
bfc08ebc:	3529fa14 	ori	t1,t1,0xfa14
bfc08ec0:	1509ffe7 	bne	t0,t1,bfc08e60 <main+0x8e60>
bfc08ec4:	00000000 	nop
bfc08ec8:	1000000b 	b	bfc08ef8 <main+0x8ef8>
bfc08ecc:	00000000 	nop
bfc08ed0:	00000021 	move	zero,zero
bfc08ed4:	00000021 	move	zero,zero
bfc08ed8:	00000021 	move	zero,zero
bfc08edc:	00000021 	move	zero,zero
bfc08ee0:	00000021 	move	zero,zero
bfc08ee4:	00000021 	move	zero,zero
bfc08ee8:	00000021 	move	zero,zero
bfc08eec:	00000021 	move	zero,zero
bfc08ef0:	3c1225e3 	lui	s2,0x25e3
bfc08ef4:	36522ba0 	ori	s2,s2,0x2ba0
bfc08ef8:	00000000 	nop
bfc08efc:	24140000 	li	s4,0
bfc08f00:	16141bb9 	bne	s0,s4,bfc0fde8 <inst_error>
bfc08f04:	00000000 	nop
bfc08f08:	24150000 	li	s5,0
bfc08f0c:	16551bb6 	bne	s2,s5,bfc0fde8 <inst_error>
bfc08f10:	00000000 	nop
bfc08f14:	3c0ca0d2 	lui	t4,0xa0d2
bfc08f18:	358c1208 	ori	t4,t4,0x1208
bfc08f1c:	3c0d5478 	lui	t5,0x5478
bfc08f20:	35adbbf8 	ori	t5,t5,0xbbf8
bfc08f24:	24100000 	li	s0,0
bfc08f28:	24120000 	li	s2,0
bfc08f2c:	10000015 	b	bfc08f84 <main+0x8f84>
bfc08f30:	00000000 	nop
bfc08f34:	3c10a0d2 	lui	s0,0xa0d2
bfc08f38:	36101208 	ori	s0,s0,0x1208
bfc08f3c:	15280021 	bne	t1,t0,bfc08fc4 <main+0x8fc4>
bfc08f40:	00000000 	nop
bfc08f44:	10000021 	b	bfc08fcc <main+0x8fcc>
bfc08f48:	00000000 	nop
bfc08f4c:	00000021 	move	zero,zero
bfc08f50:	00000021 	move	zero,zero
bfc08f54:	00000021 	move	zero,zero
bfc08f58:	00000021 	move	zero,zero
bfc08f5c:	00000021 	move	zero,zero
bfc08f60:	00000021 	move	zero,zero
bfc08f64:	00000021 	move	zero,zero
bfc08f68:	00000021 	move	zero,zero
bfc08f6c:	00000021 	move	zero,zero
bfc08f70:	00000021 	move	zero,zero
bfc08f74:	00000021 	move	zero,zero
bfc08f78:	00000021 	move	zero,zero
bfc08f7c:	00000021 	move	zero,zero
bfc08f80:	00000021 	move	zero,zero
bfc08f84:	3c0877d9 	lui	t0,0x77d9
bfc08f88:	35083460 	ori	t0,t0,0x3460
bfc08f8c:	3c0977d9 	lui	t1,0x77d9
bfc08f90:	35293460 	ori	t1,t1,0x3460
bfc08f94:	1509ffe7 	bne	t0,t1,bfc08f34 <main+0x8f34>
bfc08f98:	00000000 	nop
bfc08f9c:	1000000b 	b	bfc08fcc <main+0x8fcc>
bfc08fa0:	00000000 	nop
bfc08fa4:	00000021 	move	zero,zero
bfc08fa8:	00000021 	move	zero,zero
bfc08fac:	00000021 	move	zero,zero
bfc08fb0:	00000021 	move	zero,zero
bfc08fb4:	00000021 	move	zero,zero
bfc08fb8:	00000021 	move	zero,zero
bfc08fbc:	00000021 	move	zero,zero
bfc08fc0:	00000021 	move	zero,zero
bfc08fc4:	3c125478 	lui	s2,0x5478
bfc08fc8:	3652bbf8 	ori	s2,s2,0xbbf8
bfc08fcc:	00000000 	nop
bfc08fd0:	24140000 	li	s4,0
bfc08fd4:	16141b84 	bne	s0,s4,bfc0fde8 <inst_error>
bfc08fd8:	00000000 	nop
bfc08fdc:	24150000 	li	s5,0
bfc08fe0:	16551b81 	bne	s2,s5,bfc0fde8 <inst_error>
bfc08fe4:	00000000 	nop
bfc08fe8:	3c0c65b9 	lui	t4,0x65b9
bfc08fec:	358c53c4 	ori	t4,t4,0x53c4
bfc08ff0:	3c0db4e7 	lui	t5,0xb4e7
bfc08ff4:	35add230 	ori	t5,t5,0xd230
bfc08ff8:	24100000 	li	s0,0
bfc08ffc:	24120000 	li	s2,0
bfc09000:	10000015 	b	bfc09058 <main+0x9058>
bfc09004:	00000000 	nop
bfc09008:	3c1065b9 	lui	s0,0x65b9
bfc0900c:	361053c4 	ori	s0,s0,0x53c4
bfc09010:	15280021 	bne	t1,t0,bfc09098 <main+0x9098>
bfc09014:	00000000 	nop
bfc09018:	10000021 	b	bfc090a0 <main+0x90a0>
bfc0901c:	00000000 	nop
bfc09020:	00000021 	move	zero,zero
bfc09024:	00000021 	move	zero,zero
bfc09028:	00000021 	move	zero,zero
bfc0902c:	00000021 	move	zero,zero
bfc09030:	00000021 	move	zero,zero
bfc09034:	00000021 	move	zero,zero
bfc09038:	00000021 	move	zero,zero
bfc0903c:	00000021 	move	zero,zero
bfc09040:	00000021 	move	zero,zero
bfc09044:	00000021 	move	zero,zero
bfc09048:	00000021 	move	zero,zero
bfc0904c:	00000021 	move	zero,zero
bfc09050:	00000021 	move	zero,zero
bfc09054:	00000021 	move	zero,zero
bfc09058:	3c0817ce 	lui	t0,0x17ce
bfc0905c:	3508e700 	ori	t0,t0,0xe700
bfc09060:	3c0917ce 	lui	t1,0x17ce
bfc09064:	3529e700 	ori	t1,t1,0xe700
bfc09068:	1509ffe7 	bne	t0,t1,bfc09008 <main+0x9008>
bfc0906c:	00000000 	nop
bfc09070:	1000000b 	b	bfc090a0 <main+0x90a0>
bfc09074:	00000000 	nop
bfc09078:	00000021 	move	zero,zero
bfc0907c:	00000021 	move	zero,zero
bfc09080:	00000021 	move	zero,zero
bfc09084:	00000021 	move	zero,zero
bfc09088:	00000021 	move	zero,zero
bfc0908c:	00000021 	move	zero,zero
bfc09090:	00000021 	move	zero,zero
bfc09094:	00000021 	move	zero,zero
bfc09098:	3c12b4e7 	lui	s2,0xb4e7
bfc0909c:	3652d230 	ori	s2,s2,0xd230
bfc090a0:	00000000 	nop
bfc090a4:	24140000 	li	s4,0
bfc090a8:	16141b4f 	bne	s0,s4,bfc0fde8 <inst_error>
bfc090ac:	00000000 	nop
bfc090b0:	24150000 	li	s5,0
bfc090b4:	16551b4c 	bne	s2,s5,bfc0fde8 <inst_error>
bfc090b8:	00000000 	nop
bfc090bc:	3c0c9801 	lui	t4,0x9801
bfc090c0:	358c2b58 	ori	t4,t4,0x2b58
bfc090c4:	3c0dc20d 	lui	t5,0xc20d
bfc090c8:	35adacd0 	ori	t5,t5,0xacd0
bfc090cc:	24100000 	li	s0,0
bfc090d0:	24120000 	li	s2,0
bfc090d4:	10000015 	b	bfc0912c <main+0x912c>
bfc090d8:	00000000 	nop
bfc090dc:	3c109801 	lui	s0,0x9801
bfc090e0:	36102b58 	ori	s0,s0,0x2b58
bfc090e4:	15280021 	bne	t1,t0,bfc0916c <main+0x916c>
bfc090e8:	00000000 	nop
bfc090ec:	10000021 	b	bfc09174 <main+0x9174>
bfc090f0:	00000000 	nop
bfc090f4:	00000021 	move	zero,zero
bfc090f8:	00000021 	move	zero,zero
bfc090fc:	00000021 	move	zero,zero
bfc09100:	00000021 	move	zero,zero
bfc09104:	00000021 	move	zero,zero
bfc09108:	00000021 	move	zero,zero
bfc0910c:	00000021 	move	zero,zero
bfc09110:	00000021 	move	zero,zero
bfc09114:	00000021 	move	zero,zero
bfc09118:	00000021 	move	zero,zero
bfc0911c:	00000021 	move	zero,zero
bfc09120:	00000021 	move	zero,zero
bfc09124:	00000021 	move	zero,zero
bfc09128:	00000021 	move	zero,zero
bfc0912c:	3c08797a 	lui	t0,0x797a
bfc09130:	3508a904 	ori	t0,t0,0xa904
bfc09134:	3c09797a 	lui	t1,0x797a
bfc09138:	3529a904 	ori	t1,t1,0xa904
bfc0913c:	1509ffe7 	bne	t0,t1,bfc090dc <main+0x90dc>
bfc09140:	00000000 	nop
bfc09144:	1000000b 	b	bfc09174 <main+0x9174>
bfc09148:	00000000 	nop
bfc0914c:	00000021 	move	zero,zero
bfc09150:	00000021 	move	zero,zero
bfc09154:	00000021 	move	zero,zero
bfc09158:	00000021 	move	zero,zero
bfc0915c:	00000021 	move	zero,zero
bfc09160:	00000021 	move	zero,zero
bfc09164:	00000021 	move	zero,zero
bfc09168:	00000021 	move	zero,zero
bfc0916c:	3c12c20d 	lui	s2,0xc20d
bfc09170:	3652acd0 	ori	s2,s2,0xacd0
bfc09174:	00000000 	nop
bfc09178:	24140000 	li	s4,0
bfc0917c:	16141b1a 	bne	s0,s4,bfc0fde8 <inst_error>
bfc09180:	00000000 	nop
bfc09184:	24150000 	li	s5,0
bfc09188:	16551b17 	bne	s2,s5,bfc0fde8 <inst_error>
bfc0918c:	00000000 	nop
bfc09190:	3c0c6375 	lui	t4,0x6375
bfc09194:	358c2176 	ori	t4,t4,0x2176
bfc09198:	3c0d034c 	lui	t5,0x34c
bfc0919c:	35ad9358 	ori	t5,t5,0x9358
bfc091a0:	24100000 	li	s0,0
bfc091a4:	24120000 	li	s2,0
bfc091a8:	10000015 	b	bfc09200 <main+0x9200>
bfc091ac:	00000000 	nop
bfc091b0:	3c106375 	lui	s0,0x6375
bfc091b4:	36102176 	ori	s0,s0,0x2176
bfc091b8:	15280021 	bne	t1,t0,bfc09240 <main+0x9240>
bfc091bc:	00000000 	nop
bfc091c0:	10000021 	b	bfc09248 <main+0x9248>
bfc091c4:	00000000 	nop
bfc091c8:	00000021 	move	zero,zero
bfc091cc:	00000021 	move	zero,zero
bfc091d0:	00000021 	move	zero,zero
bfc091d4:	00000021 	move	zero,zero
bfc091d8:	00000021 	move	zero,zero
bfc091dc:	00000021 	move	zero,zero
bfc091e0:	00000021 	move	zero,zero
bfc091e4:	00000021 	move	zero,zero
bfc091e8:	00000021 	move	zero,zero
bfc091ec:	00000021 	move	zero,zero
bfc091f0:	00000021 	move	zero,zero
bfc091f4:	00000021 	move	zero,zero
bfc091f8:	00000021 	move	zero,zero
bfc091fc:	00000021 	move	zero,zero
bfc09200:	3c08834b 	lui	t0,0x834b
bfc09204:	3508907e 	ori	t0,t0,0x907e
bfc09208:	3c09834b 	lui	t1,0x834b
bfc0920c:	3529907e 	ori	t1,t1,0x907e
bfc09210:	1509ffe7 	bne	t0,t1,bfc091b0 <main+0x91b0>
bfc09214:	00000000 	nop
bfc09218:	1000000b 	b	bfc09248 <main+0x9248>
bfc0921c:	00000000 	nop
bfc09220:	00000021 	move	zero,zero
bfc09224:	00000021 	move	zero,zero
bfc09228:	00000021 	move	zero,zero
bfc0922c:	00000021 	move	zero,zero
bfc09230:	00000021 	move	zero,zero
bfc09234:	00000021 	move	zero,zero
bfc09238:	00000021 	move	zero,zero
bfc0923c:	00000021 	move	zero,zero
bfc09240:	3c12034c 	lui	s2,0x34c
bfc09244:	36529358 	ori	s2,s2,0x9358
bfc09248:	00000000 	nop
bfc0924c:	24140000 	li	s4,0
bfc09250:	16141ae5 	bne	s0,s4,bfc0fde8 <inst_error>
bfc09254:	00000000 	nop
bfc09258:	24150000 	li	s5,0
bfc0925c:	16551ae2 	bne	s2,s5,bfc0fde8 <inst_error>
bfc09260:	00000000 	nop
bfc09264:	3c0c740b 	lui	t4,0x740b
bfc09268:	358c9cf6 	ori	t4,t4,0x9cf6
bfc0926c:	3c0dd7e4 	lui	t5,0xd7e4
bfc09270:	35adcc9c 	ori	t5,t5,0xcc9c
bfc09274:	24100000 	li	s0,0
bfc09278:	24120000 	li	s2,0
bfc0927c:	10000015 	b	bfc092d4 <main+0x92d4>
bfc09280:	00000000 	nop
bfc09284:	3c10740b 	lui	s0,0x740b
bfc09288:	36109cf6 	ori	s0,s0,0x9cf6
bfc0928c:	15280021 	bne	t1,t0,bfc09314 <main+0x9314>
bfc09290:	00000000 	nop
bfc09294:	10000021 	b	bfc0931c <main+0x931c>
bfc09298:	00000000 	nop
bfc0929c:	00000021 	move	zero,zero
bfc092a0:	00000021 	move	zero,zero
bfc092a4:	00000021 	move	zero,zero
bfc092a8:	00000021 	move	zero,zero
bfc092ac:	00000021 	move	zero,zero
bfc092b0:	00000021 	move	zero,zero
bfc092b4:	00000021 	move	zero,zero
bfc092b8:	00000021 	move	zero,zero
bfc092bc:	00000021 	move	zero,zero
bfc092c0:	00000021 	move	zero,zero
bfc092c4:	00000021 	move	zero,zero
bfc092c8:	00000021 	move	zero,zero
bfc092cc:	00000021 	move	zero,zero
bfc092d0:	00000021 	move	zero,zero
bfc092d4:	3c08458b 	lui	t0,0x458b
bfc092d8:	35087e94 	ori	t0,t0,0x7e94
bfc092dc:	3c09458b 	lui	t1,0x458b
bfc092e0:	35297e94 	ori	t1,t1,0x7e94
bfc092e4:	1509ffe7 	bne	t0,t1,bfc09284 <main+0x9284>
bfc092e8:	00000000 	nop
bfc092ec:	1000000b 	b	bfc0931c <main+0x931c>
bfc092f0:	00000000 	nop
bfc092f4:	00000021 	move	zero,zero
bfc092f8:	00000021 	move	zero,zero
bfc092fc:	00000021 	move	zero,zero
bfc09300:	00000021 	move	zero,zero
bfc09304:	00000021 	move	zero,zero
bfc09308:	00000021 	move	zero,zero
bfc0930c:	00000021 	move	zero,zero
bfc09310:	00000021 	move	zero,zero
bfc09314:	3c12d7e4 	lui	s2,0xd7e4
bfc09318:	3652cc9c 	ori	s2,s2,0xcc9c
bfc0931c:	00000000 	nop
bfc09320:	24140000 	li	s4,0
bfc09324:	16141ab0 	bne	s0,s4,bfc0fde8 <inst_error>
bfc09328:	00000000 	nop
bfc0932c:	24150000 	li	s5,0
bfc09330:	16551aad 	bne	s2,s5,bfc0fde8 <inst_error>
bfc09334:	00000000 	nop
bfc09338:	3c0ce7d7 	lui	t4,0xe7d7
bfc0933c:	358c3f60 	ori	t4,t4,0x3f60
bfc09340:	3c0d3b2d 	lui	t5,0x3b2d
bfc09344:	35ad0138 	ori	t5,t5,0x138
bfc09348:	24100000 	li	s0,0
bfc0934c:	24120000 	li	s2,0
bfc09350:	10000015 	b	bfc093a8 <main+0x93a8>
bfc09354:	00000000 	nop
bfc09358:	3c10e7d7 	lui	s0,0xe7d7
bfc0935c:	36103f60 	ori	s0,s0,0x3f60
bfc09360:	15280021 	bne	t1,t0,bfc093e8 <main+0x93e8>
bfc09364:	00000000 	nop
bfc09368:	10000021 	b	bfc093f0 <main+0x93f0>
bfc0936c:	00000000 	nop
bfc09370:	00000021 	move	zero,zero
bfc09374:	00000021 	move	zero,zero
bfc09378:	00000021 	move	zero,zero
bfc0937c:	00000021 	move	zero,zero
bfc09380:	00000021 	move	zero,zero
bfc09384:	00000021 	move	zero,zero
bfc09388:	00000021 	move	zero,zero
bfc0938c:	00000021 	move	zero,zero
bfc09390:	00000021 	move	zero,zero
bfc09394:	00000021 	move	zero,zero
bfc09398:	00000021 	move	zero,zero
bfc0939c:	00000021 	move	zero,zero
bfc093a0:	00000021 	move	zero,zero
bfc093a4:	00000021 	move	zero,zero
bfc093a8:	3c0879cc 	lui	t0,0x79cc
bfc093ac:	35088e64 	ori	t0,t0,0x8e64
bfc093b0:	3c0979cc 	lui	t1,0x79cc
bfc093b4:	35298e64 	ori	t1,t1,0x8e64
bfc093b8:	1509ffe7 	bne	t0,t1,bfc09358 <main+0x9358>
bfc093bc:	00000000 	nop
bfc093c0:	1000000b 	b	bfc093f0 <main+0x93f0>
bfc093c4:	00000000 	nop
bfc093c8:	00000021 	move	zero,zero
bfc093cc:	00000021 	move	zero,zero
bfc093d0:	00000021 	move	zero,zero
bfc093d4:	00000021 	move	zero,zero
bfc093d8:	00000021 	move	zero,zero
bfc093dc:	00000021 	move	zero,zero
bfc093e0:	00000021 	move	zero,zero
bfc093e4:	00000021 	move	zero,zero
bfc093e8:	3c123b2d 	lui	s2,0x3b2d
bfc093ec:	36520138 	ori	s2,s2,0x138
bfc093f0:	00000000 	nop
bfc093f4:	24140000 	li	s4,0
bfc093f8:	16141a7b 	bne	s0,s4,bfc0fde8 <inst_error>
bfc093fc:	00000000 	nop
bfc09400:	24150000 	li	s5,0
bfc09404:	16551a78 	bne	s2,s5,bfc0fde8 <inst_error>
bfc09408:	00000000 	nop
bfc0940c:	3c0c4e1d 	lui	t4,0x4e1d
bfc09410:	358c55fa 	ori	t4,t4,0x55fa
bfc09414:	3c0d3a1b 	lui	t5,0x3a1b
bfc09418:	35adb7f8 	ori	t5,t5,0xb7f8
bfc0941c:	24100000 	li	s0,0
bfc09420:	24120000 	li	s2,0
bfc09424:	10000015 	b	bfc0947c <main+0x947c>
bfc09428:	00000000 	nop
bfc0942c:	3c104e1d 	lui	s0,0x4e1d
bfc09430:	361055fa 	ori	s0,s0,0x55fa
bfc09434:	15280021 	bne	t1,t0,bfc094bc <main+0x94bc>
bfc09438:	00000000 	nop
bfc0943c:	10000021 	b	bfc094c4 <main+0x94c4>
bfc09440:	00000000 	nop
bfc09444:	00000021 	move	zero,zero
bfc09448:	00000021 	move	zero,zero
bfc0944c:	00000021 	move	zero,zero
bfc09450:	00000021 	move	zero,zero
bfc09454:	00000021 	move	zero,zero
bfc09458:	00000021 	move	zero,zero
bfc0945c:	00000021 	move	zero,zero
bfc09460:	00000021 	move	zero,zero
bfc09464:	00000021 	move	zero,zero
bfc09468:	00000021 	move	zero,zero
bfc0946c:	00000021 	move	zero,zero
bfc09470:	00000021 	move	zero,zero
bfc09474:	00000021 	move	zero,zero
bfc09478:	00000021 	move	zero,zero
bfc0947c:	3c08a7d9 	lui	t0,0xa7d9
bfc09480:	3508d150 	ori	t0,t0,0xd150
bfc09484:	3c09a7d9 	lui	t1,0xa7d9
bfc09488:	3529d150 	ori	t1,t1,0xd150
bfc0948c:	1509ffe7 	bne	t0,t1,bfc0942c <main+0x942c>
bfc09490:	00000000 	nop
bfc09494:	1000000b 	b	bfc094c4 <main+0x94c4>
bfc09498:	00000000 	nop
bfc0949c:	00000021 	move	zero,zero
bfc094a0:	00000021 	move	zero,zero
bfc094a4:	00000021 	move	zero,zero
bfc094a8:	00000021 	move	zero,zero
bfc094ac:	00000021 	move	zero,zero
bfc094b0:	00000021 	move	zero,zero
bfc094b4:	00000021 	move	zero,zero
bfc094b8:	00000021 	move	zero,zero
bfc094bc:	3c123a1b 	lui	s2,0x3a1b
bfc094c0:	3652b7f8 	ori	s2,s2,0xb7f8
bfc094c4:	00000000 	nop
bfc094c8:	24140000 	li	s4,0
bfc094cc:	16141a46 	bne	s0,s4,bfc0fde8 <inst_error>
bfc094d0:	00000000 	nop
bfc094d4:	24150000 	li	s5,0
bfc094d8:	16551a43 	bne	s2,s5,bfc0fde8 <inst_error>
bfc094dc:	00000000 	nop
bfc094e0:	3c0c103f 	lui	t4,0x103f
bfc094e4:	358c9ab8 	ori	t4,t4,0x9ab8
bfc094e8:	3c0d9f85 	lui	t5,0x9f85
bfc094ec:	35ad7da0 	ori	t5,t5,0x7da0
bfc094f0:	24100000 	li	s0,0
bfc094f4:	24120000 	li	s2,0
bfc094f8:	10000015 	b	bfc09550 <main+0x9550>
bfc094fc:	00000000 	nop
bfc09500:	3c10103f 	lui	s0,0x103f
bfc09504:	36109ab8 	ori	s0,s0,0x9ab8
bfc09508:	15280021 	bne	t1,t0,bfc09590 <main+0x9590>
bfc0950c:	00000000 	nop
bfc09510:	10000021 	b	bfc09598 <main+0x9598>
bfc09514:	00000000 	nop
bfc09518:	00000021 	move	zero,zero
bfc0951c:	00000021 	move	zero,zero
bfc09520:	00000021 	move	zero,zero
bfc09524:	00000021 	move	zero,zero
bfc09528:	00000021 	move	zero,zero
bfc0952c:	00000021 	move	zero,zero
bfc09530:	00000021 	move	zero,zero
bfc09534:	00000021 	move	zero,zero
bfc09538:	00000021 	move	zero,zero
bfc0953c:	00000021 	move	zero,zero
bfc09540:	00000021 	move	zero,zero
bfc09544:	00000021 	move	zero,zero
bfc09548:	00000021 	move	zero,zero
bfc0954c:	00000021 	move	zero,zero
bfc09550:	3c081062 	lui	t0,0x1062
bfc09554:	35085c2f 	ori	t0,t0,0x5c2f
bfc09558:	3c091062 	lui	t1,0x1062
bfc0955c:	35295c2f 	ori	t1,t1,0x5c2f
bfc09560:	1509ffe7 	bne	t0,t1,bfc09500 <main+0x9500>
bfc09564:	00000000 	nop
bfc09568:	1000000b 	b	bfc09598 <main+0x9598>
bfc0956c:	00000000 	nop
bfc09570:	00000021 	move	zero,zero
bfc09574:	00000021 	move	zero,zero
bfc09578:	00000021 	move	zero,zero
bfc0957c:	00000021 	move	zero,zero
bfc09580:	00000021 	move	zero,zero
bfc09584:	00000021 	move	zero,zero
bfc09588:	00000021 	move	zero,zero
bfc0958c:	00000021 	move	zero,zero
bfc09590:	3c129f85 	lui	s2,0x9f85
bfc09594:	36527da0 	ori	s2,s2,0x7da0
bfc09598:	00000000 	nop
bfc0959c:	24140000 	li	s4,0
bfc095a0:	16141a11 	bne	s0,s4,bfc0fde8 <inst_error>
bfc095a4:	00000000 	nop
bfc095a8:	24150000 	li	s5,0
bfc095ac:	16551a0e 	bne	s2,s5,bfc0fde8 <inst_error>
bfc095b0:	00000000 	nop
bfc095b4:	3c0c0aa8 	lui	t4,0xaa8
bfc095b8:	358c8500 	ori	t4,t4,0x8500
bfc095bc:	3c0d120f 	lui	t5,0x120f
bfc095c0:	35ad06d8 	ori	t5,t5,0x6d8
bfc095c4:	24100000 	li	s0,0
bfc095c8:	24120000 	li	s2,0
bfc095cc:	10000015 	b	bfc09624 <main+0x9624>
bfc095d0:	00000000 	nop
bfc095d4:	3c100aa8 	lui	s0,0xaa8
bfc095d8:	36108500 	ori	s0,s0,0x8500
bfc095dc:	15280021 	bne	t1,t0,bfc09664 <main+0x9664>
bfc095e0:	00000000 	nop
bfc095e4:	10000021 	b	bfc0966c <main+0x966c>
bfc095e8:	00000000 	nop
bfc095ec:	00000021 	move	zero,zero
bfc095f0:	00000021 	move	zero,zero
bfc095f4:	00000021 	move	zero,zero
bfc095f8:	00000021 	move	zero,zero
bfc095fc:	00000021 	move	zero,zero
bfc09600:	00000021 	move	zero,zero
bfc09604:	00000021 	move	zero,zero
bfc09608:	00000021 	move	zero,zero
bfc0960c:	00000021 	move	zero,zero
bfc09610:	00000021 	move	zero,zero
bfc09614:	00000021 	move	zero,zero
bfc09618:	00000021 	move	zero,zero
bfc0961c:	00000021 	move	zero,zero
bfc09620:	00000021 	move	zero,zero
bfc09624:	3c084a23 	lui	t0,0x4a23
bfc09628:	3508aee0 	ori	t0,t0,0xaee0
bfc0962c:	3c094a23 	lui	t1,0x4a23
bfc09630:	3529aee0 	ori	t1,t1,0xaee0
bfc09634:	1509ffe7 	bne	t0,t1,bfc095d4 <main+0x95d4>
bfc09638:	00000000 	nop
bfc0963c:	1000000b 	b	bfc0966c <main+0x966c>
bfc09640:	00000000 	nop
bfc09644:	00000021 	move	zero,zero
bfc09648:	00000021 	move	zero,zero
bfc0964c:	00000021 	move	zero,zero
bfc09650:	00000021 	move	zero,zero
bfc09654:	00000021 	move	zero,zero
bfc09658:	00000021 	move	zero,zero
bfc0965c:	00000021 	move	zero,zero
bfc09660:	00000021 	move	zero,zero
bfc09664:	3c12120f 	lui	s2,0x120f
bfc09668:	365206d8 	ori	s2,s2,0x6d8
bfc0966c:	00000000 	nop
bfc09670:	24140000 	li	s4,0
bfc09674:	161419dc 	bne	s0,s4,bfc0fde8 <inst_error>
bfc09678:	00000000 	nop
bfc0967c:	24150000 	li	s5,0
bfc09680:	165519d9 	bne	s2,s5,bfc0fde8 <inst_error>
bfc09684:	00000000 	nop
bfc09688:	3c0cf555 	lui	t4,0xf555
bfc0968c:	358c67e9 	ori	t4,t4,0x67e9
bfc09690:	3c0d4cb1 	lui	t5,0x4cb1
bfc09694:	35ad3f68 	ori	t5,t5,0x3f68
bfc09698:	24100000 	li	s0,0
bfc0969c:	24120000 	li	s2,0
bfc096a0:	10000015 	b	bfc096f8 <main+0x96f8>
bfc096a4:	00000000 	nop
bfc096a8:	3c10f555 	lui	s0,0xf555
bfc096ac:	361067e9 	ori	s0,s0,0x67e9
bfc096b0:	15280021 	bne	t1,t0,bfc09738 <main+0x9738>
bfc096b4:	00000000 	nop
bfc096b8:	10000021 	b	bfc09740 <main+0x9740>
bfc096bc:	00000000 	nop
bfc096c0:	00000021 	move	zero,zero
bfc096c4:	00000021 	move	zero,zero
bfc096c8:	00000021 	move	zero,zero
bfc096cc:	00000021 	move	zero,zero
bfc096d0:	00000021 	move	zero,zero
bfc096d4:	00000021 	move	zero,zero
bfc096d8:	00000021 	move	zero,zero
bfc096dc:	00000021 	move	zero,zero
bfc096e0:	00000021 	move	zero,zero
bfc096e4:	00000021 	move	zero,zero
bfc096e8:	00000021 	move	zero,zero
bfc096ec:	00000021 	move	zero,zero
bfc096f0:	00000021 	move	zero,zero
bfc096f4:	00000021 	move	zero,zero
bfc096f8:	3c08ec67 	lui	t0,0xec67
bfc096fc:	35088030 	ori	t0,t0,0x8030
bfc09700:	3c09ec67 	lui	t1,0xec67
bfc09704:	35298030 	ori	t1,t1,0x8030
bfc09708:	1509ffe7 	bne	t0,t1,bfc096a8 <main+0x96a8>
bfc0970c:	00000000 	nop
bfc09710:	1000000b 	b	bfc09740 <main+0x9740>
bfc09714:	00000000 	nop
bfc09718:	00000021 	move	zero,zero
bfc0971c:	00000021 	move	zero,zero
bfc09720:	00000021 	move	zero,zero
bfc09724:	00000021 	move	zero,zero
bfc09728:	00000021 	move	zero,zero
bfc0972c:	00000021 	move	zero,zero
bfc09730:	00000021 	move	zero,zero
bfc09734:	00000021 	move	zero,zero
bfc09738:	3c124cb1 	lui	s2,0x4cb1
bfc0973c:	36523f68 	ori	s2,s2,0x3f68
bfc09740:	00000000 	nop
bfc09744:	24140000 	li	s4,0
bfc09748:	161419a7 	bne	s0,s4,bfc0fde8 <inst_error>
bfc0974c:	00000000 	nop
bfc09750:	24150000 	li	s5,0
bfc09754:	165519a4 	bne	s2,s5,bfc0fde8 <inst_error>
bfc09758:	00000000 	nop
bfc0975c:	3c0cc656 	lui	t4,0xc656
bfc09760:	358c4b1c 	ori	t4,t4,0x4b1c
bfc09764:	3c0d6172 	lui	t5,0x6172
bfc09768:	35ad21e0 	ori	t5,t5,0x21e0
bfc0976c:	24100000 	li	s0,0
bfc09770:	24120000 	li	s2,0
bfc09774:	10000015 	b	bfc097cc <main+0x97cc>
bfc09778:	00000000 	nop
bfc0977c:	3c10c656 	lui	s0,0xc656
bfc09780:	36104b1c 	ori	s0,s0,0x4b1c
bfc09784:	15280021 	bne	t1,t0,bfc0980c <main+0x980c>
bfc09788:	00000000 	nop
bfc0978c:	10000021 	b	bfc09814 <main+0x9814>
bfc09790:	00000000 	nop
bfc09794:	00000021 	move	zero,zero
bfc09798:	00000021 	move	zero,zero
bfc0979c:	00000021 	move	zero,zero
bfc097a0:	00000021 	move	zero,zero
bfc097a4:	00000021 	move	zero,zero
bfc097a8:	00000021 	move	zero,zero
bfc097ac:	00000021 	move	zero,zero
bfc097b0:	00000021 	move	zero,zero
bfc097b4:	00000021 	move	zero,zero
bfc097b8:	00000021 	move	zero,zero
bfc097bc:	00000021 	move	zero,zero
bfc097c0:	00000021 	move	zero,zero
bfc097c4:	00000021 	move	zero,zero
bfc097c8:	00000021 	move	zero,zero
bfc097cc:	3c087a85 	lui	t0,0x7a85
bfc097d0:	3508dea0 	ori	t0,t0,0xdea0
bfc097d4:	3c097a85 	lui	t1,0x7a85
bfc097d8:	3529dea0 	ori	t1,t1,0xdea0
bfc097dc:	1509ffe7 	bne	t0,t1,bfc0977c <main+0x977c>
bfc097e0:	00000000 	nop
bfc097e4:	1000000b 	b	bfc09814 <main+0x9814>
bfc097e8:	00000000 	nop
bfc097ec:	00000021 	move	zero,zero
bfc097f0:	00000021 	move	zero,zero
bfc097f4:	00000021 	move	zero,zero
bfc097f8:	00000021 	move	zero,zero
bfc097fc:	00000021 	move	zero,zero
bfc09800:	00000021 	move	zero,zero
bfc09804:	00000021 	move	zero,zero
bfc09808:	00000021 	move	zero,zero
bfc0980c:	3c126172 	lui	s2,0x6172
bfc09810:	365221e0 	ori	s2,s2,0x21e0
bfc09814:	00000000 	nop
bfc09818:	24140000 	li	s4,0
bfc0981c:	16141972 	bne	s0,s4,bfc0fde8 <inst_error>
bfc09820:	00000000 	nop
bfc09824:	24150000 	li	s5,0
bfc09828:	1655196f 	bne	s2,s5,bfc0fde8 <inst_error>
bfc0982c:	00000000 	nop
bfc09830:	3c0c0e56 	lui	t4,0xe56
bfc09834:	358c1800 	ori	t4,t4,0x1800
bfc09838:	3c0dc039 	lui	t5,0xc039
bfc0983c:	35adbe20 	ori	t5,t5,0xbe20
bfc09840:	24100000 	li	s0,0
bfc09844:	24120000 	li	s2,0
bfc09848:	10000015 	b	bfc098a0 <main+0x98a0>
bfc0984c:	00000000 	nop
bfc09850:	3c100e56 	lui	s0,0xe56
bfc09854:	36101800 	ori	s0,s0,0x1800
bfc09858:	15280021 	bne	t1,t0,bfc098e0 <main+0x98e0>
bfc0985c:	00000000 	nop
bfc09860:	10000021 	b	bfc098e8 <main+0x98e8>
bfc09864:	00000000 	nop
bfc09868:	00000021 	move	zero,zero
bfc0986c:	00000021 	move	zero,zero
bfc09870:	00000021 	move	zero,zero
bfc09874:	00000021 	move	zero,zero
bfc09878:	00000021 	move	zero,zero
bfc0987c:	00000021 	move	zero,zero
bfc09880:	00000021 	move	zero,zero
bfc09884:	00000021 	move	zero,zero
bfc09888:	00000021 	move	zero,zero
bfc0988c:	00000021 	move	zero,zero
bfc09890:	00000021 	move	zero,zero
bfc09894:	00000021 	move	zero,zero
bfc09898:	00000021 	move	zero,zero
bfc0989c:	00000021 	move	zero,zero
bfc098a0:	3c084f6b 	lui	t0,0x4f6b
bfc098a4:	35084036 	ori	t0,t0,0x4036
bfc098a8:	3c094f6b 	lui	t1,0x4f6b
bfc098ac:	35294036 	ori	t1,t1,0x4036
bfc098b0:	1509ffe7 	bne	t0,t1,bfc09850 <main+0x9850>
bfc098b4:	00000000 	nop
bfc098b8:	1000000b 	b	bfc098e8 <main+0x98e8>
bfc098bc:	00000000 	nop
bfc098c0:	00000021 	move	zero,zero
bfc098c4:	00000021 	move	zero,zero
bfc098c8:	00000021 	move	zero,zero
bfc098cc:	00000021 	move	zero,zero
bfc098d0:	00000021 	move	zero,zero
bfc098d4:	00000021 	move	zero,zero
bfc098d8:	00000021 	move	zero,zero
bfc098dc:	00000021 	move	zero,zero
bfc098e0:	3c12c039 	lui	s2,0xc039
bfc098e4:	3652be20 	ori	s2,s2,0xbe20
bfc098e8:	00000000 	nop
bfc098ec:	24140000 	li	s4,0
bfc098f0:	1614193d 	bne	s0,s4,bfc0fde8 <inst_error>
bfc098f4:	00000000 	nop
bfc098f8:	24150000 	li	s5,0
bfc098fc:	1655193a 	bne	s2,s5,bfc0fde8 <inst_error>
bfc09900:	00000000 	nop
bfc09904:	3c0cc985 	lui	t4,0xc985
bfc09908:	358cb518 	ori	t4,t4,0xb518
bfc0990c:	3c0d8917 	lui	t5,0x8917
bfc09910:	35ad3a28 	ori	t5,t5,0x3a28
bfc09914:	24100000 	li	s0,0
bfc09918:	24120000 	li	s2,0
bfc0991c:	10000015 	b	bfc09974 <main+0x9974>
bfc09920:	00000000 	nop
bfc09924:	3c10c985 	lui	s0,0xc985
bfc09928:	3610b518 	ori	s0,s0,0xb518
bfc0992c:	15280021 	bne	t1,t0,bfc099b4 <main+0x99b4>
bfc09930:	00000000 	nop
bfc09934:	10000021 	b	bfc099bc <main+0x99bc>
bfc09938:	00000000 	nop
bfc0993c:	00000021 	move	zero,zero
bfc09940:	00000021 	move	zero,zero
bfc09944:	00000021 	move	zero,zero
bfc09948:	00000021 	move	zero,zero
bfc0994c:	00000021 	move	zero,zero
bfc09950:	00000021 	move	zero,zero
bfc09954:	00000021 	move	zero,zero
bfc09958:	00000021 	move	zero,zero
bfc0995c:	00000021 	move	zero,zero
bfc09960:	00000021 	move	zero,zero
bfc09964:	00000021 	move	zero,zero
bfc09968:	00000021 	move	zero,zero
bfc0996c:	00000021 	move	zero,zero
bfc09970:	00000021 	move	zero,zero
bfc09974:	3c083143 	lui	t0,0x3143
bfc09978:	350841ca 	ori	t0,t0,0x41ca
bfc0997c:	3c093143 	lui	t1,0x3143
bfc09980:	352941ca 	ori	t1,t1,0x41ca
bfc09984:	1509ffe7 	bne	t0,t1,bfc09924 <main+0x9924>
bfc09988:	00000000 	nop
bfc0998c:	1000000b 	b	bfc099bc <main+0x99bc>
bfc09990:	00000000 	nop
bfc09994:	00000021 	move	zero,zero
bfc09998:	00000021 	move	zero,zero
bfc0999c:	00000021 	move	zero,zero
bfc099a0:	00000021 	move	zero,zero
bfc099a4:	00000021 	move	zero,zero
bfc099a8:	00000021 	move	zero,zero
bfc099ac:	00000021 	move	zero,zero
bfc099b0:	00000021 	move	zero,zero
bfc099b4:	3c128917 	lui	s2,0x8917
bfc099b8:	36523a28 	ori	s2,s2,0x3a28
bfc099bc:	00000000 	nop
bfc099c0:	24140000 	li	s4,0
bfc099c4:	16141908 	bne	s0,s4,bfc0fde8 <inst_error>
bfc099c8:	00000000 	nop
bfc099cc:	24150000 	li	s5,0
bfc099d0:	16551905 	bne	s2,s5,bfc0fde8 <inst_error>
bfc099d4:	00000000 	nop
bfc099d8:	3c0c653c 	lui	t4,0x653c
bfc099dc:	358cb30c 	ori	t4,t4,0xb30c
bfc099e0:	3c0dc469 	lui	t5,0xc469
bfc099e4:	35ad87cc 	ori	t5,t5,0x87cc
bfc099e8:	24100000 	li	s0,0
bfc099ec:	24120000 	li	s2,0
bfc099f0:	10000015 	b	bfc09a48 <main+0x9a48>
bfc099f4:	00000000 	nop
bfc099f8:	3c10653c 	lui	s0,0x653c
bfc099fc:	3610b30c 	ori	s0,s0,0xb30c
bfc09a00:	15280021 	bne	t1,t0,bfc09a88 <main+0x9a88>
bfc09a04:	00000000 	nop
bfc09a08:	10000021 	b	bfc09a90 <main+0x9a90>
bfc09a0c:	00000000 	nop
bfc09a10:	00000021 	move	zero,zero
bfc09a14:	00000021 	move	zero,zero
bfc09a18:	00000021 	move	zero,zero
bfc09a1c:	00000021 	move	zero,zero
bfc09a20:	00000021 	move	zero,zero
bfc09a24:	00000021 	move	zero,zero
bfc09a28:	00000021 	move	zero,zero
bfc09a2c:	00000021 	move	zero,zero
bfc09a30:	00000021 	move	zero,zero
bfc09a34:	00000021 	move	zero,zero
bfc09a38:	00000021 	move	zero,zero
bfc09a3c:	00000021 	move	zero,zero
bfc09a40:	00000021 	move	zero,zero
bfc09a44:	00000021 	move	zero,zero
bfc09a48:	3c087bd7 	lui	t0,0x7bd7
bfc09a4c:	3508a60e 	ori	t0,t0,0xa60e
bfc09a50:	3c097bd7 	lui	t1,0x7bd7
bfc09a54:	3529a60e 	ori	t1,t1,0xa60e
bfc09a58:	1509ffe7 	bne	t0,t1,bfc099f8 <main+0x99f8>
bfc09a5c:	00000000 	nop
bfc09a60:	1000000b 	b	bfc09a90 <main+0x9a90>
bfc09a64:	00000000 	nop
bfc09a68:	00000021 	move	zero,zero
bfc09a6c:	00000021 	move	zero,zero
bfc09a70:	00000021 	move	zero,zero
bfc09a74:	00000021 	move	zero,zero
bfc09a78:	00000021 	move	zero,zero
bfc09a7c:	00000021 	move	zero,zero
bfc09a80:	00000021 	move	zero,zero
bfc09a84:	00000021 	move	zero,zero
bfc09a88:	3c12c469 	lui	s2,0xc469
bfc09a8c:	365287cc 	ori	s2,s2,0x87cc
bfc09a90:	00000000 	nop
bfc09a94:	24140000 	li	s4,0
bfc09a98:	161418d3 	bne	s0,s4,bfc0fde8 <inst_error>
bfc09a9c:	00000000 	nop
bfc09aa0:	24150000 	li	s5,0
bfc09aa4:	165518d0 	bne	s2,s5,bfc0fde8 <inst_error>
bfc09aa8:	00000000 	nop
bfc09aac:	3c0ce1b6 	lui	t4,0xe1b6
bfc09ab0:	358c06d4 	ori	t4,t4,0x6d4
bfc09ab4:	3c0d6be2 	lui	t5,0x6be2
bfc09ab8:	35ad2cf0 	ori	t5,t5,0x2cf0
bfc09abc:	24100000 	li	s0,0
bfc09ac0:	24120000 	li	s2,0
bfc09ac4:	10000015 	b	bfc09b1c <main+0x9b1c>
bfc09ac8:	00000000 	nop
bfc09acc:	3c10e1b6 	lui	s0,0xe1b6
bfc09ad0:	361006d4 	ori	s0,s0,0x6d4
bfc09ad4:	15280021 	bne	t1,t0,bfc09b5c <main+0x9b5c>
bfc09ad8:	00000000 	nop
bfc09adc:	10000021 	b	bfc09b64 <main+0x9b64>
bfc09ae0:	00000000 	nop
bfc09ae4:	00000021 	move	zero,zero
bfc09ae8:	00000021 	move	zero,zero
bfc09aec:	00000021 	move	zero,zero
bfc09af0:	00000021 	move	zero,zero
bfc09af4:	00000021 	move	zero,zero
bfc09af8:	00000021 	move	zero,zero
bfc09afc:	00000021 	move	zero,zero
bfc09b00:	00000021 	move	zero,zero
bfc09b04:	00000021 	move	zero,zero
bfc09b08:	00000021 	move	zero,zero
bfc09b0c:	00000021 	move	zero,zero
bfc09b10:	00000021 	move	zero,zero
bfc09b14:	00000021 	move	zero,zero
bfc09b18:	00000021 	move	zero,zero
bfc09b1c:	3c08e6e7 	lui	t0,0xe6e7
bfc09b20:	3508a560 	ori	t0,t0,0xa560
bfc09b24:	3c09e6e7 	lui	t1,0xe6e7
bfc09b28:	3529a560 	ori	t1,t1,0xa560
bfc09b2c:	1509ffe7 	bne	t0,t1,bfc09acc <main+0x9acc>
bfc09b30:	00000000 	nop
bfc09b34:	1000000b 	b	bfc09b64 <main+0x9b64>
bfc09b38:	00000000 	nop
bfc09b3c:	00000021 	move	zero,zero
bfc09b40:	00000021 	move	zero,zero
bfc09b44:	00000021 	move	zero,zero
bfc09b48:	00000021 	move	zero,zero
bfc09b4c:	00000021 	move	zero,zero
bfc09b50:	00000021 	move	zero,zero
bfc09b54:	00000021 	move	zero,zero
bfc09b58:	00000021 	move	zero,zero
bfc09b5c:	3c126be2 	lui	s2,0x6be2
bfc09b60:	36522cf0 	ori	s2,s2,0x2cf0
bfc09b64:	00000000 	nop
bfc09b68:	24140000 	li	s4,0
bfc09b6c:	1614189e 	bne	s0,s4,bfc0fde8 <inst_error>
bfc09b70:	00000000 	nop
bfc09b74:	24150000 	li	s5,0
bfc09b78:	1655189b 	bne	s2,s5,bfc0fde8 <inst_error>
bfc09b7c:	00000000 	nop
bfc09b80:	3c0ca6d7 	lui	t4,0xa6d7
bfc09b84:	358cec3c 	ori	t4,t4,0xec3c
bfc09b88:	3c0d7622 	lui	t5,0x7622
bfc09b8c:	35ad5f60 	ori	t5,t5,0x5f60
bfc09b90:	24100000 	li	s0,0
bfc09b94:	24120000 	li	s2,0
bfc09b98:	10000015 	b	bfc09bf0 <main+0x9bf0>
bfc09b9c:	00000000 	nop
bfc09ba0:	3c10a6d7 	lui	s0,0xa6d7
bfc09ba4:	3610ec3c 	ori	s0,s0,0xec3c
bfc09ba8:	15280021 	bne	t1,t0,bfc09c30 <main+0x9c30>
bfc09bac:	00000000 	nop
bfc09bb0:	10000021 	b	bfc09c38 <main+0x9c38>
bfc09bb4:	00000000 	nop
bfc09bb8:	00000021 	move	zero,zero
bfc09bbc:	00000021 	move	zero,zero
bfc09bc0:	00000021 	move	zero,zero
bfc09bc4:	00000021 	move	zero,zero
bfc09bc8:	00000021 	move	zero,zero
bfc09bcc:	00000021 	move	zero,zero
bfc09bd0:	00000021 	move	zero,zero
bfc09bd4:	00000021 	move	zero,zero
bfc09bd8:	00000021 	move	zero,zero
bfc09bdc:	00000021 	move	zero,zero
bfc09be0:	00000021 	move	zero,zero
bfc09be4:	00000021 	move	zero,zero
bfc09be8:	00000021 	move	zero,zero
bfc09bec:	00000021 	move	zero,zero
bfc09bf0:	3c086fa7 	lui	t0,0x6fa7
bfc09bf4:	35080c9e 	ori	t0,t0,0xc9e
bfc09bf8:	3c096fa7 	lui	t1,0x6fa7
bfc09bfc:	35290c9e 	ori	t1,t1,0xc9e
bfc09c00:	1509ffe7 	bne	t0,t1,bfc09ba0 <main+0x9ba0>
bfc09c04:	00000000 	nop
bfc09c08:	1000000b 	b	bfc09c38 <main+0x9c38>
bfc09c0c:	00000000 	nop
bfc09c10:	00000021 	move	zero,zero
bfc09c14:	00000021 	move	zero,zero
bfc09c18:	00000021 	move	zero,zero
bfc09c1c:	00000021 	move	zero,zero
bfc09c20:	00000021 	move	zero,zero
bfc09c24:	00000021 	move	zero,zero
bfc09c28:	00000021 	move	zero,zero
bfc09c2c:	00000021 	move	zero,zero
bfc09c30:	3c127622 	lui	s2,0x7622
bfc09c34:	36525f60 	ori	s2,s2,0x5f60
bfc09c38:	00000000 	nop
bfc09c3c:	24140000 	li	s4,0
bfc09c40:	16141869 	bne	s0,s4,bfc0fde8 <inst_error>
bfc09c44:	00000000 	nop
bfc09c48:	24150000 	li	s5,0
bfc09c4c:	16551866 	bne	s2,s5,bfc0fde8 <inst_error>
bfc09c50:	00000000 	nop
bfc09c54:	3c0ccf6c 	lui	t4,0xcf6c
bfc09c58:	358c8ab8 	ori	t4,t4,0x8ab8
bfc09c5c:	3c0de2cb 	lui	t5,0xe2cb
bfc09c60:	35ad10ee 	ori	t5,t5,0x10ee
bfc09c64:	24100000 	li	s0,0
bfc09c68:	24120000 	li	s2,0
bfc09c6c:	10000015 	b	bfc09cc4 <main+0x9cc4>
bfc09c70:	00000000 	nop
bfc09c74:	3c10cf6c 	lui	s0,0xcf6c
bfc09c78:	36108ab8 	ori	s0,s0,0x8ab8
bfc09c7c:	15280021 	bne	t1,t0,bfc09d04 <main+0x9d04>
bfc09c80:	00000000 	nop
bfc09c84:	10000021 	b	bfc09d0c <main+0x9d0c>
bfc09c88:	00000000 	nop
bfc09c8c:	00000021 	move	zero,zero
bfc09c90:	00000021 	move	zero,zero
bfc09c94:	00000021 	move	zero,zero
bfc09c98:	00000021 	move	zero,zero
bfc09c9c:	00000021 	move	zero,zero
bfc09ca0:	00000021 	move	zero,zero
bfc09ca4:	00000021 	move	zero,zero
bfc09ca8:	00000021 	move	zero,zero
bfc09cac:	00000021 	move	zero,zero
bfc09cb0:	00000021 	move	zero,zero
bfc09cb4:	00000021 	move	zero,zero
bfc09cb8:	00000021 	move	zero,zero
bfc09cbc:	00000021 	move	zero,zero
bfc09cc0:	00000021 	move	zero,zero
bfc09cc4:	3c088d1a 	lui	t0,0x8d1a
bfc09cc8:	350838fe 	ori	t0,t0,0x38fe
bfc09ccc:	3c098d1a 	lui	t1,0x8d1a
bfc09cd0:	352938fe 	ori	t1,t1,0x38fe
bfc09cd4:	1509ffe7 	bne	t0,t1,bfc09c74 <main+0x9c74>
bfc09cd8:	00000000 	nop
bfc09cdc:	1000000b 	b	bfc09d0c <main+0x9d0c>
bfc09ce0:	00000000 	nop
bfc09ce4:	00000021 	move	zero,zero
bfc09ce8:	00000021 	move	zero,zero
bfc09cec:	00000021 	move	zero,zero
bfc09cf0:	00000021 	move	zero,zero
bfc09cf4:	00000021 	move	zero,zero
bfc09cf8:	00000021 	move	zero,zero
bfc09cfc:	00000021 	move	zero,zero
bfc09d00:	00000021 	move	zero,zero
bfc09d04:	3c12e2cb 	lui	s2,0xe2cb
bfc09d08:	365210ee 	ori	s2,s2,0x10ee
bfc09d0c:	00000000 	nop
bfc09d10:	24140000 	li	s4,0
bfc09d14:	16141834 	bne	s0,s4,bfc0fde8 <inst_error>
bfc09d18:	00000000 	nop
bfc09d1c:	24150000 	li	s5,0
bfc09d20:	16551831 	bne	s2,s5,bfc0fde8 <inst_error>
bfc09d24:	00000000 	nop
bfc09d28:	3c0cefa4 	lui	t4,0xefa4
bfc09d2c:	358cf26d 	ori	t4,t4,0xf26d
bfc09d30:	3c0d8847 	lui	t5,0x8847
bfc09d34:	35ad972e 	ori	t5,t5,0x972e
bfc09d38:	24100000 	li	s0,0
bfc09d3c:	24120000 	li	s2,0
bfc09d40:	10000015 	b	bfc09d98 <main+0x9d98>
bfc09d44:	00000000 	nop
bfc09d48:	3c10efa4 	lui	s0,0xefa4
bfc09d4c:	3610f26d 	ori	s0,s0,0xf26d
bfc09d50:	15280021 	bne	t1,t0,bfc09dd8 <main+0x9dd8>
bfc09d54:	00000000 	nop
bfc09d58:	10000021 	b	bfc09de0 <main+0x9de0>
bfc09d5c:	00000000 	nop
bfc09d60:	00000021 	move	zero,zero
bfc09d64:	00000021 	move	zero,zero
bfc09d68:	00000021 	move	zero,zero
bfc09d6c:	00000021 	move	zero,zero
bfc09d70:	00000021 	move	zero,zero
bfc09d74:	00000021 	move	zero,zero
bfc09d78:	00000021 	move	zero,zero
bfc09d7c:	00000021 	move	zero,zero
bfc09d80:	00000021 	move	zero,zero
bfc09d84:	00000021 	move	zero,zero
bfc09d88:	00000021 	move	zero,zero
bfc09d8c:	00000021 	move	zero,zero
bfc09d90:	00000021 	move	zero,zero
bfc09d94:	00000021 	move	zero,zero
bfc09d98:	3c08e97b 	lui	t0,0xe97b
bfc09d9c:	3508eec0 	ori	t0,t0,0xeec0
bfc09da0:	3c09e97b 	lui	t1,0xe97b
bfc09da4:	3529eec0 	ori	t1,t1,0xeec0
bfc09da8:	1509ffe7 	bne	t0,t1,bfc09d48 <main+0x9d48>
bfc09dac:	00000000 	nop
bfc09db0:	1000000b 	b	bfc09de0 <main+0x9de0>
bfc09db4:	00000000 	nop
bfc09db8:	00000021 	move	zero,zero
bfc09dbc:	00000021 	move	zero,zero
bfc09dc0:	00000021 	move	zero,zero
bfc09dc4:	00000021 	move	zero,zero
bfc09dc8:	00000021 	move	zero,zero
bfc09dcc:	00000021 	move	zero,zero
bfc09dd0:	00000021 	move	zero,zero
bfc09dd4:	00000021 	move	zero,zero
bfc09dd8:	3c128847 	lui	s2,0x8847
bfc09ddc:	3652972e 	ori	s2,s2,0x972e
bfc09de0:	00000000 	nop
bfc09de4:	24140000 	li	s4,0
bfc09de8:	161417ff 	bne	s0,s4,bfc0fde8 <inst_error>
bfc09dec:	00000000 	nop
bfc09df0:	24150000 	li	s5,0
bfc09df4:	165517fc 	bne	s2,s5,bfc0fde8 <inst_error>
bfc09df8:	00000000 	nop
bfc09dfc:	3c0c41f6 	lui	t4,0x41f6
bfc09e00:	358c3748 	ori	t4,t4,0x3748
bfc09e04:	3c0da409 	lui	t5,0xa409
bfc09e08:	35ada87d 	ori	t5,t5,0xa87d
bfc09e0c:	24100000 	li	s0,0
bfc09e10:	24120000 	li	s2,0
bfc09e14:	10000015 	b	bfc09e6c <main+0x9e6c>
bfc09e18:	00000000 	nop
bfc09e1c:	3c1041f6 	lui	s0,0x41f6
bfc09e20:	36103748 	ori	s0,s0,0x3748
bfc09e24:	15280021 	bne	t1,t0,bfc09eac <main+0x9eac>
bfc09e28:	00000000 	nop
bfc09e2c:	10000021 	b	bfc09eb4 <main+0x9eb4>
bfc09e30:	00000000 	nop
bfc09e34:	00000021 	move	zero,zero
bfc09e38:	00000021 	move	zero,zero
bfc09e3c:	00000021 	move	zero,zero
bfc09e40:	00000021 	move	zero,zero
bfc09e44:	00000021 	move	zero,zero
bfc09e48:	00000021 	move	zero,zero
bfc09e4c:	00000021 	move	zero,zero
bfc09e50:	00000021 	move	zero,zero
bfc09e54:	00000021 	move	zero,zero
bfc09e58:	00000021 	move	zero,zero
bfc09e5c:	00000021 	move	zero,zero
bfc09e60:	00000021 	move	zero,zero
bfc09e64:	00000021 	move	zero,zero
bfc09e68:	00000021 	move	zero,zero
bfc09e6c:	3c08dd07 	lui	t0,0xdd07
bfc09e70:	35085d7f 	ori	t0,t0,0x5d7f
bfc09e74:	3c09dd07 	lui	t1,0xdd07
bfc09e78:	35295d7f 	ori	t1,t1,0x5d7f
bfc09e7c:	1509ffe7 	bne	t0,t1,bfc09e1c <main+0x9e1c>
bfc09e80:	00000000 	nop
bfc09e84:	1000000b 	b	bfc09eb4 <main+0x9eb4>
bfc09e88:	00000000 	nop
bfc09e8c:	00000021 	move	zero,zero
bfc09e90:	00000021 	move	zero,zero
bfc09e94:	00000021 	move	zero,zero
bfc09e98:	00000021 	move	zero,zero
bfc09e9c:	00000021 	move	zero,zero
bfc09ea0:	00000021 	move	zero,zero
bfc09ea4:	00000021 	move	zero,zero
bfc09ea8:	00000021 	move	zero,zero
bfc09eac:	3c12a409 	lui	s2,0xa409
bfc09eb0:	3652a87d 	ori	s2,s2,0xa87d
bfc09eb4:	00000000 	nop
bfc09eb8:	24140000 	li	s4,0
bfc09ebc:	161417ca 	bne	s0,s4,bfc0fde8 <inst_error>
bfc09ec0:	00000000 	nop
bfc09ec4:	24150000 	li	s5,0
bfc09ec8:	165517c7 	bne	s2,s5,bfc0fde8 <inst_error>
bfc09ecc:	00000000 	nop
bfc09ed0:	3c0c4d0d 	lui	t4,0x4d0d
bfc09ed4:	358cd608 	ori	t4,t4,0xd608
bfc09ed8:	3c0dde6b 	lui	t5,0xde6b
bfc09edc:	35ad9fe0 	ori	t5,t5,0x9fe0
bfc09ee0:	24100000 	li	s0,0
bfc09ee4:	24120000 	li	s2,0
bfc09ee8:	10000015 	b	bfc09f40 <main+0x9f40>
bfc09eec:	00000000 	nop
bfc09ef0:	3c104d0d 	lui	s0,0x4d0d
bfc09ef4:	3610d608 	ori	s0,s0,0xd608
bfc09ef8:	15280021 	bne	t1,t0,bfc09f80 <main+0x9f80>
bfc09efc:	00000000 	nop
bfc09f00:	10000021 	b	bfc09f88 <main+0x9f88>
bfc09f04:	00000000 	nop
bfc09f08:	00000021 	move	zero,zero
bfc09f0c:	00000021 	move	zero,zero
bfc09f10:	00000021 	move	zero,zero
bfc09f14:	00000021 	move	zero,zero
bfc09f18:	00000021 	move	zero,zero
bfc09f1c:	00000021 	move	zero,zero
bfc09f20:	00000021 	move	zero,zero
bfc09f24:	00000021 	move	zero,zero
bfc09f28:	00000021 	move	zero,zero
bfc09f2c:	00000021 	move	zero,zero
bfc09f30:	00000021 	move	zero,zero
bfc09f34:	00000021 	move	zero,zero
bfc09f38:	00000021 	move	zero,zero
bfc09f3c:	00000021 	move	zero,zero
bfc09f40:	3c08fe0e 	lui	t0,0xfe0e
bfc09f44:	35088813 	ori	t0,t0,0x8813
bfc09f48:	3c09fe0e 	lui	t1,0xfe0e
bfc09f4c:	35298813 	ori	t1,t1,0x8813
bfc09f50:	1509ffe7 	bne	t0,t1,bfc09ef0 <main+0x9ef0>
bfc09f54:	00000000 	nop
bfc09f58:	1000000b 	b	bfc09f88 <main+0x9f88>
bfc09f5c:	00000000 	nop
bfc09f60:	00000021 	move	zero,zero
bfc09f64:	00000021 	move	zero,zero
bfc09f68:	00000021 	move	zero,zero
bfc09f6c:	00000021 	move	zero,zero
bfc09f70:	00000021 	move	zero,zero
bfc09f74:	00000021 	move	zero,zero
bfc09f78:	00000021 	move	zero,zero
bfc09f7c:	00000021 	move	zero,zero
bfc09f80:	3c12de6b 	lui	s2,0xde6b
bfc09f84:	36529fe0 	ori	s2,s2,0x9fe0
bfc09f88:	00000000 	nop
bfc09f8c:	24140000 	li	s4,0
bfc09f90:	16141795 	bne	s0,s4,bfc0fde8 <inst_error>
bfc09f94:	00000000 	nop
bfc09f98:	24150000 	li	s5,0
bfc09f9c:	16551792 	bne	s2,s5,bfc0fde8 <inst_error>
bfc09fa0:	00000000 	nop
bfc09fa4:	3c0c38df 	lui	t4,0x38df
bfc09fa8:	358c4e4c 	ori	t4,t4,0x4e4c
bfc09fac:	3c0d65dd 	lui	t5,0x65dd
bfc09fb0:	35ad29f8 	ori	t5,t5,0x29f8
bfc09fb4:	24100000 	li	s0,0
bfc09fb8:	24120000 	li	s2,0
bfc09fbc:	10000015 	b	bfc0a014 <main+0xa014>
bfc09fc0:	00000000 	nop
bfc09fc4:	3c1038df 	lui	s0,0x38df
bfc09fc8:	36104e4c 	ori	s0,s0,0x4e4c
bfc09fcc:	15280021 	bne	t1,t0,bfc0a054 <main+0xa054>
bfc09fd0:	00000000 	nop
bfc09fd4:	10000021 	b	bfc0a05c <main+0xa05c>
bfc09fd8:	00000000 	nop
bfc09fdc:	00000021 	move	zero,zero
bfc09fe0:	00000021 	move	zero,zero
bfc09fe4:	00000021 	move	zero,zero
bfc09fe8:	00000021 	move	zero,zero
bfc09fec:	00000021 	move	zero,zero
bfc09ff0:	00000021 	move	zero,zero
bfc09ff4:	00000021 	move	zero,zero
bfc09ff8:	00000021 	move	zero,zero
bfc09ffc:	00000021 	move	zero,zero
bfc0a000:	00000021 	move	zero,zero
bfc0a004:	00000021 	move	zero,zero
bfc0a008:	00000021 	move	zero,zero
bfc0a00c:	00000021 	move	zero,zero
bfc0a010:	00000021 	move	zero,zero
bfc0a014:	3c08ede0 	lui	t0,0xede0
bfc0a018:	350874e0 	ori	t0,t0,0x74e0
bfc0a01c:	3c09ede0 	lui	t1,0xede0
bfc0a020:	352974e0 	ori	t1,t1,0x74e0
bfc0a024:	1509ffe7 	bne	t0,t1,bfc09fc4 <main+0x9fc4>
bfc0a028:	00000000 	nop
bfc0a02c:	1000000b 	b	bfc0a05c <main+0xa05c>
bfc0a030:	00000000 	nop
bfc0a034:	00000021 	move	zero,zero
bfc0a038:	00000021 	move	zero,zero
bfc0a03c:	00000021 	move	zero,zero
bfc0a040:	00000021 	move	zero,zero
bfc0a044:	00000021 	move	zero,zero
bfc0a048:	00000021 	move	zero,zero
bfc0a04c:	00000021 	move	zero,zero
bfc0a050:	00000021 	move	zero,zero
bfc0a054:	3c1265dd 	lui	s2,0x65dd
bfc0a058:	365229f8 	ori	s2,s2,0x29f8
bfc0a05c:	00000000 	nop
bfc0a060:	24140000 	li	s4,0
bfc0a064:	16141760 	bne	s0,s4,bfc0fde8 <inst_error>
bfc0a068:	00000000 	nop
bfc0a06c:	24150000 	li	s5,0
bfc0a070:	1655175d 	bne	s2,s5,bfc0fde8 <inst_error>
bfc0a074:	00000000 	nop
bfc0a078:	3c0c570b 	lui	t4,0x570b
bfc0a07c:	358cf47c 	ori	t4,t4,0xf47c
bfc0a080:	3c0d28ce 	lui	t5,0x28ce
bfc0a084:	35ad6e66 	ori	t5,t5,0x6e66
bfc0a088:	24100000 	li	s0,0
bfc0a08c:	24120000 	li	s2,0
bfc0a090:	10000015 	b	bfc0a0e8 <main+0xa0e8>
bfc0a094:	00000000 	nop
bfc0a098:	3c10570b 	lui	s0,0x570b
bfc0a09c:	3610f47c 	ori	s0,s0,0xf47c
bfc0a0a0:	15280021 	bne	t1,t0,bfc0a128 <main+0xa128>
bfc0a0a4:	00000000 	nop
bfc0a0a8:	10000021 	b	bfc0a130 <main+0xa130>
bfc0a0ac:	00000000 	nop
bfc0a0b0:	00000021 	move	zero,zero
bfc0a0b4:	00000021 	move	zero,zero
bfc0a0b8:	00000021 	move	zero,zero
bfc0a0bc:	00000021 	move	zero,zero
bfc0a0c0:	00000021 	move	zero,zero
bfc0a0c4:	00000021 	move	zero,zero
bfc0a0c8:	00000021 	move	zero,zero
bfc0a0cc:	00000021 	move	zero,zero
bfc0a0d0:	00000021 	move	zero,zero
bfc0a0d4:	00000021 	move	zero,zero
bfc0a0d8:	00000021 	move	zero,zero
bfc0a0dc:	00000021 	move	zero,zero
bfc0a0e0:	00000021 	move	zero,zero
bfc0a0e4:	00000021 	move	zero,zero
bfc0a0e8:	3c085a2b 	lui	t0,0x5a2b
bfc0a0ec:	3508b954 	ori	t0,t0,0xb954
bfc0a0f0:	3c095a2b 	lui	t1,0x5a2b
bfc0a0f4:	3529b954 	ori	t1,t1,0xb954
bfc0a0f8:	1509ffe7 	bne	t0,t1,bfc0a098 <main+0xa098>
bfc0a0fc:	00000000 	nop
bfc0a100:	1000000b 	b	bfc0a130 <main+0xa130>
bfc0a104:	00000000 	nop
bfc0a108:	00000021 	move	zero,zero
bfc0a10c:	00000021 	move	zero,zero
bfc0a110:	00000021 	move	zero,zero
bfc0a114:	00000021 	move	zero,zero
bfc0a118:	00000021 	move	zero,zero
bfc0a11c:	00000021 	move	zero,zero
bfc0a120:	00000021 	move	zero,zero
bfc0a124:	00000021 	move	zero,zero
bfc0a128:	3c1228ce 	lui	s2,0x28ce
bfc0a12c:	36526e66 	ori	s2,s2,0x6e66
bfc0a130:	00000000 	nop
bfc0a134:	24140000 	li	s4,0
bfc0a138:	1614172b 	bne	s0,s4,bfc0fde8 <inst_error>
bfc0a13c:	00000000 	nop
bfc0a140:	24150000 	li	s5,0
bfc0a144:	16551728 	bne	s2,s5,bfc0fde8 <inst_error>
bfc0a148:	00000000 	nop
bfc0a14c:	3c0c3770 	lui	t4,0x3770
bfc0a150:	358cfb08 	ori	t4,t4,0xfb08
bfc0a154:	3c0dbbbf 	lui	t5,0xbbbf
bfc0a158:	35adbef8 	ori	t5,t5,0xbef8
bfc0a15c:	24100000 	li	s0,0
bfc0a160:	24120000 	li	s2,0
bfc0a164:	10000015 	b	bfc0a1bc <main+0xa1bc>
bfc0a168:	00000000 	nop
bfc0a16c:	3c103770 	lui	s0,0x3770
bfc0a170:	3610fb08 	ori	s0,s0,0xfb08
bfc0a174:	15280021 	bne	t1,t0,bfc0a1fc <main+0xa1fc>
bfc0a178:	00000000 	nop
bfc0a17c:	10000021 	b	bfc0a204 <main+0xa204>
bfc0a180:	00000000 	nop
bfc0a184:	00000021 	move	zero,zero
bfc0a188:	00000021 	move	zero,zero
bfc0a18c:	00000021 	move	zero,zero
bfc0a190:	00000021 	move	zero,zero
bfc0a194:	00000021 	move	zero,zero
bfc0a198:	00000021 	move	zero,zero
bfc0a19c:	00000021 	move	zero,zero
bfc0a1a0:	00000021 	move	zero,zero
bfc0a1a4:	00000021 	move	zero,zero
bfc0a1a8:	00000021 	move	zero,zero
bfc0a1ac:	00000021 	move	zero,zero
bfc0a1b0:	00000021 	move	zero,zero
bfc0a1b4:	00000021 	move	zero,zero
bfc0a1b8:	00000021 	move	zero,zero
bfc0a1bc:	3c08ea36 	lui	t0,0xea36
bfc0a1c0:	3508ddd8 	ori	t0,t0,0xddd8
bfc0a1c4:	3c09ea36 	lui	t1,0xea36
bfc0a1c8:	3529ddd8 	ori	t1,t1,0xddd8
bfc0a1cc:	1509ffe7 	bne	t0,t1,bfc0a16c <main+0xa16c>
bfc0a1d0:	00000000 	nop
bfc0a1d4:	1000000b 	b	bfc0a204 <main+0xa204>
bfc0a1d8:	00000000 	nop
bfc0a1dc:	00000021 	move	zero,zero
bfc0a1e0:	00000021 	move	zero,zero
bfc0a1e4:	00000021 	move	zero,zero
bfc0a1e8:	00000021 	move	zero,zero
bfc0a1ec:	00000021 	move	zero,zero
bfc0a1f0:	00000021 	move	zero,zero
bfc0a1f4:	00000021 	move	zero,zero
bfc0a1f8:	00000021 	move	zero,zero
bfc0a1fc:	3c12bbbf 	lui	s2,0xbbbf
bfc0a200:	3652bef8 	ori	s2,s2,0xbef8
bfc0a204:	00000000 	nop
bfc0a208:	24140000 	li	s4,0
bfc0a20c:	161416f6 	bne	s0,s4,bfc0fde8 <inst_error>
bfc0a210:	00000000 	nop
bfc0a214:	24150000 	li	s5,0
bfc0a218:	165516f3 	bne	s2,s5,bfc0fde8 <inst_error>
bfc0a21c:	00000000 	nop
bfc0a220:	3c0cff5a 	lui	t4,0xff5a
bfc0a224:	358ce000 	ori	t4,t4,0xe000
bfc0a228:	3c0d266f 	lui	t5,0x266f
bfc0a22c:	35ad499e 	ori	t5,t5,0x499e
bfc0a230:	24100000 	li	s0,0
bfc0a234:	24120000 	li	s2,0
bfc0a238:	10000015 	b	bfc0a290 <main+0xa290>
bfc0a23c:	00000000 	nop
bfc0a240:	3c10ff5a 	lui	s0,0xff5a
bfc0a244:	3610e000 	ori	s0,s0,0xe000
bfc0a248:	15280021 	bne	t1,t0,bfc0a2d0 <main+0xa2d0>
bfc0a24c:	00000000 	nop
bfc0a250:	10000021 	b	bfc0a2d8 <main+0xa2d8>
bfc0a254:	00000000 	nop
bfc0a258:	00000021 	move	zero,zero
bfc0a25c:	00000021 	move	zero,zero
bfc0a260:	00000021 	move	zero,zero
bfc0a264:	00000021 	move	zero,zero
bfc0a268:	00000021 	move	zero,zero
bfc0a26c:	00000021 	move	zero,zero
bfc0a270:	00000021 	move	zero,zero
bfc0a274:	00000021 	move	zero,zero
bfc0a278:	00000021 	move	zero,zero
bfc0a27c:	00000021 	move	zero,zero
bfc0a280:	00000021 	move	zero,zero
bfc0a284:	00000021 	move	zero,zero
bfc0a288:	00000021 	move	zero,zero
bfc0a28c:	00000021 	move	zero,zero
bfc0a290:	3c0859c4 	lui	t0,0x59c4
bfc0a294:	3508a701 	ori	t0,t0,0xa701
bfc0a298:	3c0959c4 	lui	t1,0x59c4
bfc0a29c:	3529a701 	ori	t1,t1,0xa701
bfc0a2a0:	1509ffe7 	bne	t0,t1,bfc0a240 <main+0xa240>
bfc0a2a4:	00000000 	nop
bfc0a2a8:	1000000b 	b	bfc0a2d8 <main+0xa2d8>
bfc0a2ac:	00000000 	nop
bfc0a2b0:	00000021 	move	zero,zero
bfc0a2b4:	00000021 	move	zero,zero
bfc0a2b8:	00000021 	move	zero,zero
bfc0a2bc:	00000021 	move	zero,zero
bfc0a2c0:	00000021 	move	zero,zero
bfc0a2c4:	00000021 	move	zero,zero
bfc0a2c8:	00000021 	move	zero,zero
bfc0a2cc:	00000021 	move	zero,zero
bfc0a2d0:	3c12266f 	lui	s2,0x266f
bfc0a2d4:	3652499e 	ori	s2,s2,0x499e
bfc0a2d8:	00000000 	nop
bfc0a2dc:	24140000 	li	s4,0
bfc0a2e0:	161416c1 	bne	s0,s4,bfc0fde8 <inst_error>
bfc0a2e4:	00000000 	nop
bfc0a2e8:	24150000 	li	s5,0
bfc0a2ec:	165516be 	bne	s2,s5,bfc0fde8 <inst_error>
bfc0a2f0:	00000000 	nop
bfc0a2f4:	3c0c5f42 	lui	t4,0x5f42
bfc0a2f8:	358cc0be 	ori	t4,t4,0xc0be
bfc0a2fc:	3c0d0d62 	lui	t5,0xd62
bfc0a300:	35ad6708 	ori	t5,t5,0x6708
bfc0a304:	24100000 	li	s0,0
bfc0a308:	24120000 	li	s2,0
bfc0a30c:	10000015 	b	bfc0a364 <main+0xa364>
bfc0a310:	00000000 	nop
bfc0a314:	3c105f42 	lui	s0,0x5f42
bfc0a318:	3610c0be 	ori	s0,s0,0xc0be
bfc0a31c:	15280021 	bne	t1,t0,bfc0a3a4 <main+0xa3a4>
bfc0a320:	00000000 	nop
bfc0a324:	10000021 	b	bfc0a3ac <main+0xa3ac>
bfc0a328:	00000000 	nop
bfc0a32c:	00000021 	move	zero,zero
bfc0a330:	00000021 	move	zero,zero
bfc0a334:	00000021 	move	zero,zero
bfc0a338:	00000021 	move	zero,zero
bfc0a33c:	00000021 	move	zero,zero
bfc0a340:	00000021 	move	zero,zero
bfc0a344:	00000021 	move	zero,zero
bfc0a348:	00000021 	move	zero,zero
bfc0a34c:	00000021 	move	zero,zero
bfc0a350:	00000021 	move	zero,zero
bfc0a354:	00000021 	move	zero,zero
bfc0a358:	00000021 	move	zero,zero
bfc0a35c:	00000021 	move	zero,zero
bfc0a360:	00000021 	move	zero,zero
bfc0a364:	3c087843 	lui	t0,0x7843
bfc0a368:	35083560 	ori	t0,t0,0x3560
bfc0a36c:	3c097843 	lui	t1,0x7843
bfc0a370:	35293560 	ori	t1,t1,0x3560
bfc0a374:	1509ffe7 	bne	t0,t1,bfc0a314 <main+0xa314>
bfc0a378:	00000000 	nop
bfc0a37c:	1000000b 	b	bfc0a3ac <main+0xa3ac>
bfc0a380:	00000000 	nop
bfc0a384:	00000021 	move	zero,zero
bfc0a388:	00000021 	move	zero,zero
bfc0a38c:	00000021 	move	zero,zero
bfc0a390:	00000021 	move	zero,zero
bfc0a394:	00000021 	move	zero,zero
bfc0a398:	00000021 	move	zero,zero
bfc0a39c:	00000021 	move	zero,zero
bfc0a3a0:	00000021 	move	zero,zero
bfc0a3a4:	3c120d62 	lui	s2,0xd62
bfc0a3a8:	36526708 	ori	s2,s2,0x6708
bfc0a3ac:	00000000 	nop
bfc0a3b0:	24140000 	li	s4,0
bfc0a3b4:	1614168c 	bne	s0,s4,bfc0fde8 <inst_error>
bfc0a3b8:	00000000 	nop
bfc0a3bc:	24150000 	li	s5,0
bfc0a3c0:	16551689 	bne	s2,s5,bfc0fde8 <inst_error>
bfc0a3c4:	00000000 	nop
bfc0a3c8:	3c0c577d 	lui	t4,0x577d
bfc0a3cc:	358c3f9c 	ori	t4,t4,0x3f9c
bfc0a3d0:	3c0d1963 	lui	t5,0x1963
bfc0a3d4:	35ad9580 	ori	t5,t5,0x9580
bfc0a3d8:	24100000 	li	s0,0
bfc0a3dc:	24120000 	li	s2,0
bfc0a3e0:	10000015 	b	bfc0a438 <main+0xa438>
bfc0a3e4:	00000000 	nop
bfc0a3e8:	3c10577d 	lui	s0,0x577d
bfc0a3ec:	36103f9c 	ori	s0,s0,0x3f9c
bfc0a3f0:	15280021 	bne	t1,t0,bfc0a478 <main+0xa478>
bfc0a3f4:	00000000 	nop
bfc0a3f8:	10000021 	b	bfc0a480 <main+0xa480>
bfc0a3fc:	00000000 	nop
bfc0a400:	00000021 	move	zero,zero
bfc0a404:	00000021 	move	zero,zero
bfc0a408:	00000021 	move	zero,zero
bfc0a40c:	00000021 	move	zero,zero
bfc0a410:	00000021 	move	zero,zero
bfc0a414:	00000021 	move	zero,zero
bfc0a418:	00000021 	move	zero,zero
bfc0a41c:	00000021 	move	zero,zero
bfc0a420:	00000021 	move	zero,zero
bfc0a424:	00000021 	move	zero,zero
bfc0a428:	00000021 	move	zero,zero
bfc0a42c:	00000021 	move	zero,zero
bfc0a430:	00000021 	move	zero,zero
bfc0a434:	00000021 	move	zero,zero
bfc0a438:	3c08fa04 	lui	t0,0xfa04
bfc0a43c:	35088400 	ori	t0,t0,0x8400
bfc0a440:	3c09fa04 	lui	t1,0xfa04
bfc0a444:	35298400 	ori	t1,t1,0x8400
bfc0a448:	1509ffe7 	bne	t0,t1,bfc0a3e8 <main+0xa3e8>
bfc0a44c:	00000000 	nop
bfc0a450:	1000000b 	b	bfc0a480 <main+0xa480>
bfc0a454:	00000000 	nop
bfc0a458:	00000021 	move	zero,zero
bfc0a45c:	00000021 	move	zero,zero
bfc0a460:	00000021 	move	zero,zero
bfc0a464:	00000021 	move	zero,zero
bfc0a468:	00000021 	move	zero,zero
bfc0a46c:	00000021 	move	zero,zero
bfc0a470:	00000021 	move	zero,zero
bfc0a474:	00000021 	move	zero,zero
bfc0a478:	3c121963 	lui	s2,0x1963
bfc0a47c:	36529580 	ori	s2,s2,0x9580
bfc0a480:	00000000 	nop
bfc0a484:	24140000 	li	s4,0
bfc0a488:	16141657 	bne	s0,s4,bfc0fde8 <inst_error>
bfc0a48c:	00000000 	nop
bfc0a490:	24150000 	li	s5,0
bfc0a494:	16551654 	bne	s2,s5,bfc0fde8 <inst_error>
bfc0a498:	00000000 	nop
bfc0a49c:	3c0ce1bb 	lui	t4,0xe1bb
bfc0a4a0:	358caa30 	ori	t4,t4,0xaa30
bfc0a4a4:	3c0d6f70 	lui	t5,0x6f70
bfc0a4a8:	35ad86d8 	ori	t5,t5,0x86d8
bfc0a4ac:	24100000 	li	s0,0
bfc0a4b0:	24120000 	li	s2,0
bfc0a4b4:	10000015 	b	bfc0a50c <main+0xa50c>
bfc0a4b8:	00000000 	nop
bfc0a4bc:	3c10e1bb 	lui	s0,0xe1bb
bfc0a4c0:	3610aa30 	ori	s0,s0,0xaa30
bfc0a4c4:	15280021 	bne	t1,t0,bfc0a54c <main+0xa54c>
bfc0a4c8:	00000000 	nop
bfc0a4cc:	10000021 	b	bfc0a554 <main+0xa554>
bfc0a4d0:	00000000 	nop
bfc0a4d4:	00000021 	move	zero,zero
bfc0a4d8:	00000021 	move	zero,zero
bfc0a4dc:	00000021 	move	zero,zero
bfc0a4e0:	00000021 	move	zero,zero
bfc0a4e4:	00000021 	move	zero,zero
bfc0a4e8:	00000021 	move	zero,zero
bfc0a4ec:	00000021 	move	zero,zero
bfc0a4f0:	00000021 	move	zero,zero
bfc0a4f4:	00000021 	move	zero,zero
bfc0a4f8:	00000021 	move	zero,zero
bfc0a4fc:	00000021 	move	zero,zero
bfc0a500:	00000021 	move	zero,zero
bfc0a504:	00000021 	move	zero,zero
bfc0a508:	00000021 	move	zero,zero
bfc0a50c:	3c080c3b 	lui	t0,0xc3b
bfc0a510:	35087e40 	ori	t0,t0,0x7e40
bfc0a514:	3c090c3b 	lui	t1,0xc3b
bfc0a518:	35297e40 	ori	t1,t1,0x7e40
bfc0a51c:	1509ffe7 	bne	t0,t1,bfc0a4bc <main+0xa4bc>
bfc0a520:	00000000 	nop
bfc0a524:	1000000b 	b	bfc0a554 <main+0xa554>
bfc0a528:	00000000 	nop
bfc0a52c:	00000021 	move	zero,zero
bfc0a530:	00000021 	move	zero,zero
bfc0a534:	00000021 	move	zero,zero
bfc0a538:	00000021 	move	zero,zero
bfc0a53c:	00000021 	move	zero,zero
bfc0a540:	00000021 	move	zero,zero
bfc0a544:	00000021 	move	zero,zero
bfc0a548:	00000021 	move	zero,zero
bfc0a54c:	3c126f70 	lui	s2,0x6f70
bfc0a550:	365286d8 	ori	s2,s2,0x86d8
bfc0a554:	00000000 	nop
bfc0a558:	24140000 	li	s4,0
bfc0a55c:	16141622 	bne	s0,s4,bfc0fde8 <inst_error>
bfc0a560:	00000000 	nop
bfc0a564:	24150000 	li	s5,0
bfc0a568:	1655161f 	bne	s2,s5,bfc0fde8 <inst_error>
bfc0a56c:	00000000 	nop
bfc0a570:	3c0c8988 	lui	t4,0x8988
bfc0a574:	358c455c 	ori	t4,t4,0x455c
bfc0a578:	3c0d009f 	lui	t5,0x9f
bfc0a57c:	35ad91a4 	ori	t5,t5,0x91a4
bfc0a580:	24100000 	li	s0,0
bfc0a584:	24120000 	li	s2,0
bfc0a588:	10000015 	b	bfc0a5e0 <main+0xa5e0>
bfc0a58c:	00000000 	nop
bfc0a590:	3c108988 	lui	s0,0x8988
bfc0a594:	3610455c 	ori	s0,s0,0x455c
bfc0a598:	15280021 	bne	t1,t0,bfc0a620 <main+0xa620>
bfc0a59c:	00000000 	nop
bfc0a5a0:	10000021 	b	bfc0a628 <main+0xa628>
bfc0a5a4:	00000000 	nop
bfc0a5a8:	00000021 	move	zero,zero
bfc0a5ac:	00000021 	move	zero,zero
bfc0a5b0:	00000021 	move	zero,zero
bfc0a5b4:	00000021 	move	zero,zero
bfc0a5b8:	00000021 	move	zero,zero
bfc0a5bc:	00000021 	move	zero,zero
bfc0a5c0:	00000021 	move	zero,zero
bfc0a5c4:	00000021 	move	zero,zero
bfc0a5c8:	00000021 	move	zero,zero
bfc0a5cc:	00000021 	move	zero,zero
bfc0a5d0:	00000021 	move	zero,zero
bfc0a5d4:	00000021 	move	zero,zero
bfc0a5d8:	00000021 	move	zero,zero
bfc0a5dc:	00000021 	move	zero,zero
bfc0a5e0:	3c08d27e 	lui	t0,0xd27e
bfc0a5e4:	35085a00 	ori	t0,t0,0x5a00
bfc0a5e8:	3c09d27e 	lui	t1,0xd27e
bfc0a5ec:	35295a00 	ori	t1,t1,0x5a00
bfc0a5f0:	1509ffe7 	bne	t0,t1,bfc0a590 <main+0xa590>
bfc0a5f4:	00000000 	nop
bfc0a5f8:	1000000b 	b	bfc0a628 <main+0xa628>
bfc0a5fc:	00000000 	nop
bfc0a600:	00000021 	move	zero,zero
bfc0a604:	00000021 	move	zero,zero
bfc0a608:	00000021 	move	zero,zero
bfc0a60c:	00000021 	move	zero,zero
bfc0a610:	00000021 	move	zero,zero
bfc0a614:	00000021 	move	zero,zero
bfc0a618:	00000021 	move	zero,zero
bfc0a61c:	00000021 	move	zero,zero
bfc0a620:	3c12009f 	lui	s2,0x9f
bfc0a624:	365291a4 	ori	s2,s2,0x91a4
bfc0a628:	00000000 	nop
bfc0a62c:	24140000 	li	s4,0
bfc0a630:	161415ed 	bne	s0,s4,bfc0fde8 <inst_error>
bfc0a634:	00000000 	nop
bfc0a638:	24150000 	li	s5,0
bfc0a63c:	165515ea 	bne	s2,s5,bfc0fde8 <inst_error>
bfc0a640:	00000000 	nop
bfc0a644:	3c0c4ad4 	lui	t4,0x4ad4
bfc0a648:	358c4d00 	ori	t4,t4,0x4d00
bfc0a64c:	3c0dbb62 	lui	t5,0xbb62
bfc0a650:	35adaa40 	ori	t5,t5,0xaa40
bfc0a654:	24100000 	li	s0,0
bfc0a658:	24120000 	li	s2,0
bfc0a65c:	10000015 	b	bfc0a6b4 <main+0xa6b4>
bfc0a660:	00000000 	nop
bfc0a664:	3c104ad4 	lui	s0,0x4ad4
bfc0a668:	36104d00 	ori	s0,s0,0x4d00
bfc0a66c:	15280021 	bne	t1,t0,bfc0a6f4 <main+0xa6f4>
bfc0a670:	00000000 	nop
bfc0a674:	10000021 	b	bfc0a6fc <main+0xa6fc>
bfc0a678:	00000000 	nop
bfc0a67c:	00000021 	move	zero,zero
bfc0a680:	00000021 	move	zero,zero
bfc0a684:	00000021 	move	zero,zero
bfc0a688:	00000021 	move	zero,zero
bfc0a68c:	00000021 	move	zero,zero
bfc0a690:	00000021 	move	zero,zero
bfc0a694:	00000021 	move	zero,zero
bfc0a698:	00000021 	move	zero,zero
bfc0a69c:	00000021 	move	zero,zero
bfc0a6a0:	00000021 	move	zero,zero
bfc0a6a4:	00000021 	move	zero,zero
bfc0a6a8:	00000021 	move	zero,zero
bfc0a6ac:	00000021 	move	zero,zero
bfc0a6b0:	00000021 	move	zero,zero
bfc0a6b4:	3c08dc08 	lui	t0,0xdc08
bfc0a6b8:	3508df40 	ori	t0,t0,0xdf40
bfc0a6bc:	3c09dc08 	lui	t1,0xdc08
bfc0a6c0:	3529df40 	ori	t1,t1,0xdf40
bfc0a6c4:	1509ffe7 	bne	t0,t1,bfc0a664 <main+0xa664>
bfc0a6c8:	00000000 	nop
bfc0a6cc:	1000000b 	b	bfc0a6fc <main+0xa6fc>
bfc0a6d0:	00000000 	nop
bfc0a6d4:	00000021 	move	zero,zero
bfc0a6d8:	00000021 	move	zero,zero
bfc0a6dc:	00000021 	move	zero,zero
bfc0a6e0:	00000021 	move	zero,zero
bfc0a6e4:	00000021 	move	zero,zero
bfc0a6e8:	00000021 	move	zero,zero
bfc0a6ec:	00000021 	move	zero,zero
bfc0a6f0:	00000021 	move	zero,zero
bfc0a6f4:	3c12bb62 	lui	s2,0xbb62
bfc0a6f8:	3652aa40 	ori	s2,s2,0xaa40
bfc0a6fc:	00000000 	nop
bfc0a700:	24140000 	li	s4,0
bfc0a704:	161415b8 	bne	s0,s4,bfc0fde8 <inst_error>
bfc0a708:	00000000 	nop
bfc0a70c:	24150000 	li	s5,0
bfc0a710:	165515b5 	bne	s2,s5,bfc0fde8 <inst_error>
bfc0a714:	00000000 	nop
bfc0a718:	3c0c4dc9 	lui	t4,0x4dc9
bfc0a71c:	358c1b40 	ori	t4,t4,0x1b40
bfc0a720:	3c0d9613 	lui	t5,0x9613
bfc0a724:	35ade98e 	ori	t5,t5,0xe98e
bfc0a728:	24100000 	li	s0,0
bfc0a72c:	24120000 	li	s2,0
bfc0a730:	10000015 	b	bfc0a788 <main+0xa788>
bfc0a734:	00000000 	nop
bfc0a738:	3c104dc9 	lui	s0,0x4dc9
bfc0a73c:	36101b40 	ori	s0,s0,0x1b40
bfc0a740:	15280021 	bne	t1,t0,bfc0a7c8 <main+0xa7c8>
bfc0a744:	00000000 	nop
bfc0a748:	10000021 	b	bfc0a7d0 <main+0xa7d0>
bfc0a74c:	00000000 	nop
bfc0a750:	00000021 	move	zero,zero
bfc0a754:	00000021 	move	zero,zero
bfc0a758:	00000021 	move	zero,zero
bfc0a75c:	00000021 	move	zero,zero
bfc0a760:	00000021 	move	zero,zero
bfc0a764:	00000021 	move	zero,zero
bfc0a768:	00000021 	move	zero,zero
bfc0a76c:	00000021 	move	zero,zero
bfc0a770:	00000021 	move	zero,zero
bfc0a774:	00000021 	move	zero,zero
bfc0a778:	00000021 	move	zero,zero
bfc0a77c:	00000021 	move	zero,zero
bfc0a780:	00000021 	move	zero,zero
bfc0a784:	00000021 	move	zero,zero
bfc0a788:	3c08f3d5 	lui	t0,0xf3d5
bfc0a78c:	3508dd00 	ori	t0,t0,0xdd00
bfc0a790:	3c09f3d5 	lui	t1,0xf3d5
bfc0a794:	3529dd00 	ori	t1,t1,0xdd00
bfc0a798:	1509ffe7 	bne	t0,t1,bfc0a738 <main+0xa738>
bfc0a79c:	00000000 	nop
bfc0a7a0:	1000000b 	b	bfc0a7d0 <main+0xa7d0>
bfc0a7a4:	00000000 	nop
bfc0a7a8:	00000021 	move	zero,zero
bfc0a7ac:	00000021 	move	zero,zero
bfc0a7b0:	00000021 	move	zero,zero
bfc0a7b4:	00000021 	move	zero,zero
bfc0a7b8:	00000021 	move	zero,zero
bfc0a7bc:	00000021 	move	zero,zero
bfc0a7c0:	00000021 	move	zero,zero
bfc0a7c4:	00000021 	move	zero,zero
bfc0a7c8:	3c129613 	lui	s2,0x9613
bfc0a7cc:	3652e98e 	ori	s2,s2,0xe98e
bfc0a7d0:	00000000 	nop
bfc0a7d4:	24140000 	li	s4,0
bfc0a7d8:	16141583 	bne	s0,s4,bfc0fde8 <inst_error>
bfc0a7dc:	00000000 	nop
bfc0a7e0:	24150000 	li	s5,0
bfc0a7e4:	16551580 	bne	s2,s5,bfc0fde8 <inst_error>
bfc0a7e8:	00000000 	nop
bfc0a7ec:	3c0cc7f7 	lui	t4,0xc7f7
bfc0a7f0:	358c4069 	ori	t4,t4,0x4069
bfc0a7f4:	3c0dd22b 	lui	t5,0xd22b
bfc0a7f8:	35ad57c8 	ori	t5,t5,0x57c8
bfc0a7fc:	24100000 	li	s0,0
bfc0a800:	24120000 	li	s2,0
bfc0a804:	10000015 	b	bfc0a85c <main+0xa85c>
bfc0a808:	00000000 	nop
bfc0a80c:	3c10c7f7 	lui	s0,0xc7f7
bfc0a810:	36104069 	ori	s0,s0,0x4069
bfc0a814:	15280021 	bne	t1,t0,bfc0a89c <main+0xa89c>
bfc0a818:	00000000 	nop
bfc0a81c:	10000021 	b	bfc0a8a4 <main+0xa8a4>
bfc0a820:	00000000 	nop
bfc0a824:	00000021 	move	zero,zero
bfc0a828:	00000021 	move	zero,zero
bfc0a82c:	00000021 	move	zero,zero
bfc0a830:	00000021 	move	zero,zero
bfc0a834:	00000021 	move	zero,zero
bfc0a838:	00000021 	move	zero,zero
bfc0a83c:	00000021 	move	zero,zero
bfc0a840:	00000021 	move	zero,zero
bfc0a844:	00000021 	move	zero,zero
bfc0a848:	00000021 	move	zero,zero
bfc0a84c:	00000021 	move	zero,zero
bfc0a850:	00000021 	move	zero,zero
bfc0a854:	00000021 	move	zero,zero
bfc0a858:	00000021 	move	zero,zero
bfc0a85c:	3c087cb1 	lui	t0,0x7cb1
bfc0a860:	3508dcd4 	ori	t0,t0,0xdcd4
bfc0a864:	3c097cb1 	lui	t1,0x7cb1
bfc0a868:	3529dcd4 	ori	t1,t1,0xdcd4
bfc0a86c:	1509ffe7 	bne	t0,t1,bfc0a80c <main+0xa80c>
bfc0a870:	00000000 	nop
bfc0a874:	1000000b 	b	bfc0a8a4 <main+0xa8a4>
bfc0a878:	00000000 	nop
bfc0a87c:	00000021 	move	zero,zero
bfc0a880:	00000021 	move	zero,zero
bfc0a884:	00000021 	move	zero,zero
bfc0a888:	00000021 	move	zero,zero
bfc0a88c:	00000021 	move	zero,zero
bfc0a890:	00000021 	move	zero,zero
bfc0a894:	00000021 	move	zero,zero
bfc0a898:	00000021 	move	zero,zero
bfc0a89c:	3c12d22b 	lui	s2,0xd22b
bfc0a8a0:	365257c8 	ori	s2,s2,0x57c8
bfc0a8a4:	00000000 	nop
bfc0a8a8:	24140000 	li	s4,0
bfc0a8ac:	1614154e 	bne	s0,s4,bfc0fde8 <inst_error>
bfc0a8b0:	00000000 	nop
bfc0a8b4:	24150000 	li	s5,0
bfc0a8b8:	1655154b 	bne	s2,s5,bfc0fde8 <inst_error>
bfc0a8bc:	00000000 	nop
bfc0a8c0:	3c0cb206 	lui	t4,0xb206
bfc0a8c4:	358cba26 	ori	t4,t4,0xba26
bfc0a8c8:	3c0dbdee 	lui	t5,0xbdee
bfc0a8cc:	35add800 	ori	t5,t5,0xd800
bfc0a8d0:	24100000 	li	s0,0
bfc0a8d4:	24120000 	li	s2,0
bfc0a8d8:	10000015 	b	bfc0a930 <main+0xa930>
bfc0a8dc:	00000000 	nop
bfc0a8e0:	3c10b206 	lui	s0,0xb206
bfc0a8e4:	3610ba26 	ori	s0,s0,0xba26
bfc0a8e8:	15280020 	bne	t1,t0,bfc0a96c <main+0xa96c>
bfc0a8ec:	00000000 	nop
bfc0a8f0:	10000020 	b	bfc0a974 <main+0xa974>
bfc0a8f4:	00000000 	nop
bfc0a8f8:	00000021 	move	zero,zero
bfc0a8fc:	00000021 	move	zero,zero
bfc0a900:	00000021 	move	zero,zero
bfc0a904:	00000021 	move	zero,zero
bfc0a908:	00000021 	move	zero,zero
bfc0a90c:	00000021 	move	zero,zero
bfc0a910:	00000021 	move	zero,zero
bfc0a914:	00000021 	move	zero,zero
bfc0a918:	00000021 	move	zero,zero
bfc0a91c:	00000021 	move	zero,zero
bfc0a920:	00000021 	move	zero,zero
bfc0a924:	00000021 	move	zero,zero
bfc0a928:	00000021 	move	zero,zero
bfc0a92c:	00000021 	move	zero,zero
bfc0a930:	3c08aa8b 	lui	t0,0xaa8b
bfc0a934:	35087550 	ori	t0,t0,0x7550
bfc0a938:	24090000 	li	t1,0
bfc0a93c:	1509ffe8 	bne	t0,t1,bfc0a8e0 <main+0xa8e0>
bfc0a940:	00000000 	nop
bfc0a944:	1000000b 	b	bfc0a974 <main+0xa974>
bfc0a948:	00000000 	nop
bfc0a94c:	00000021 	move	zero,zero
bfc0a950:	00000021 	move	zero,zero
bfc0a954:	00000021 	move	zero,zero
bfc0a958:	00000021 	move	zero,zero
bfc0a95c:	00000021 	move	zero,zero
bfc0a960:	00000021 	move	zero,zero
bfc0a964:	00000021 	move	zero,zero
bfc0a968:	00000021 	move	zero,zero
bfc0a96c:	3c12bdee 	lui	s2,0xbdee
bfc0a970:	3652d800 	ori	s2,s2,0xd800
bfc0a974:	00000000 	nop
bfc0a978:	3c14b206 	lui	s4,0xb206
bfc0a97c:	3694ba26 	ori	s4,s4,0xba26
bfc0a980:	16141519 	bne	s0,s4,bfc0fde8 <inst_error>
bfc0a984:	00000000 	nop
bfc0a988:	3c15bdee 	lui	s5,0xbdee
bfc0a98c:	36b5d800 	ori	s5,s5,0xd800
bfc0a990:	16551515 	bne	s2,s5,bfc0fde8 <inst_error>
bfc0a994:	00000000 	nop
bfc0a998:	3c0ceeff 	lui	t4,0xeeff
bfc0a99c:	358c8e78 	ori	t4,t4,0x8e78
bfc0a9a0:	3c0d99be 	lui	t5,0x99be
bfc0a9a4:	35ad0628 	ori	t5,t5,0x628
bfc0a9a8:	24100000 	li	s0,0
bfc0a9ac:	24120000 	li	s2,0
bfc0a9b0:	10000015 	b	bfc0aa08 <main+0xaa08>
bfc0a9b4:	00000000 	nop
bfc0a9b8:	3c10eeff 	lui	s0,0xeeff
bfc0a9bc:	36108e78 	ori	s0,s0,0x8e78
bfc0a9c0:	15280020 	bne	t1,t0,bfc0aa44 <main+0xaa44>
bfc0a9c4:	00000000 	nop
bfc0a9c8:	10000020 	b	bfc0aa4c <main+0xaa4c>
bfc0a9cc:	00000000 	nop
bfc0a9d0:	00000021 	move	zero,zero
bfc0a9d4:	00000021 	move	zero,zero
bfc0a9d8:	00000021 	move	zero,zero
bfc0a9dc:	00000021 	move	zero,zero
bfc0a9e0:	00000021 	move	zero,zero
bfc0a9e4:	00000021 	move	zero,zero
bfc0a9e8:	00000021 	move	zero,zero
bfc0a9ec:	00000021 	move	zero,zero
bfc0a9f0:	00000021 	move	zero,zero
bfc0a9f4:	00000021 	move	zero,zero
bfc0a9f8:	00000021 	move	zero,zero
bfc0a9fc:	00000021 	move	zero,zero
bfc0aa00:	00000021 	move	zero,zero
bfc0aa04:	00000021 	move	zero,zero
bfc0aa08:	3c08cf8a 	lui	t0,0xcf8a
bfc0aa0c:	35084898 	ori	t0,t0,0x4898
bfc0aa10:	24090000 	li	t1,0
bfc0aa14:	1509ffe8 	bne	t0,t1,bfc0a9b8 <main+0xa9b8>
bfc0aa18:	00000000 	nop
bfc0aa1c:	1000000b 	b	bfc0aa4c <main+0xaa4c>
bfc0aa20:	00000000 	nop
bfc0aa24:	00000021 	move	zero,zero
bfc0aa28:	00000021 	move	zero,zero
bfc0aa2c:	00000021 	move	zero,zero
bfc0aa30:	00000021 	move	zero,zero
bfc0aa34:	00000021 	move	zero,zero
bfc0aa38:	00000021 	move	zero,zero
bfc0aa3c:	00000021 	move	zero,zero
bfc0aa40:	00000021 	move	zero,zero
bfc0aa44:	3c1299be 	lui	s2,0x99be
bfc0aa48:	36520628 	ori	s2,s2,0x628
bfc0aa4c:	00000000 	nop
bfc0aa50:	3c14eeff 	lui	s4,0xeeff
bfc0aa54:	36948e78 	ori	s4,s4,0x8e78
bfc0aa58:	161414e3 	bne	s0,s4,bfc0fde8 <inst_error>
bfc0aa5c:	00000000 	nop
bfc0aa60:	3c1599be 	lui	s5,0x99be
bfc0aa64:	36b50628 	ori	s5,s5,0x628
bfc0aa68:	165514df 	bne	s2,s5,bfc0fde8 <inst_error>
bfc0aa6c:	00000000 	nop
bfc0aa70:	3c0c8de2 	lui	t4,0x8de2
bfc0aa74:	358ca8f8 	ori	t4,t4,0xa8f8
bfc0aa78:	3c0d4666 	lui	t5,0x4666
bfc0aa7c:	35adff30 	ori	t5,t5,0xff30
bfc0aa80:	24100000 	li	s0,0
bfc0aa84:	24120000 	li	s2,0
bfc0aa88:	10000015 	b	bfc0aae0 <main+0xaae0>
bfc0aa8c:	00000000 	nop
bfc0aa90:	3c108de2 	lui	s0,0x8de2
bfc0aa94:	3610a8f8 	ori	s0,s0,0xa8f8
bfc0aa98:	15280020 	bne	t1,t0,bfc0ab1c <main+0xab1c>
bfc0aa9c:	00000000 	nop
bfc0aaa0:	10000020 	b	bfc0ab24 <main+0xab24>
bfc0aaa4:	00000000 	nop
bfc0aaa8:	00000021 	move	zero,zero
bfc0aaac:	00000021 	move	zero,zero
bfc0aab0:	00000021 	move	zero,zero
bfc0aab4:	00000021 	move	zero,zero
bfc0aab8:	00000021 	move	zero,zero
bfc0aabc:	00000021 	move	zero,zero
bfc0aac0:	00000021 	move	zero,zero
bfc0aac4:	00000021 	move	zero,zero
bfc0aac8:	00000021 	move	zero,zero
bfc0aacc:	00000021 	move	zero,zero
bfc0aad0:	00000021 	move	zero,zero
bfc0aad4:	00000021 	move	zero,zero
bfc0aad8:	00000021 	move	zero,zero
bfc0aadc:	00000021 	move	zero,zero
bfc0aae0:	3c089169 	lui	t0,0x9169
bfc0aae4:	3508d4e6 	ori	t0,t0,0xd4e6
bfc0aae8:	24090000 	li	t1,0
bfc0aaec:	1509ffe8 	bne	t0,t1,bfc0aa90 <main+0xaa90>
bfc0aaf0:	00000000 	nop
bfc0aaf4:	1000000b 	b	bfc0ab24 <main+0xab24>
bfc0aaf8:	00000000 	nop
bfc0aafc:	00000021 	move	zero,zero
bfc0ab00:	00000021 	move	zero,zero
bfc0ab04:	00000021 	move	zero,zero
bfc0ab08:	00000021 	move	zero,zero
bfc0ab0c:	00000021 	move	zero,zero
bfc0ab10:	00000021 	move	zero,zero
bfc0ab14:	00000021 	move	zero,zero
bfc0ab18:	00000021 	move	zero,zero
bfc0ab1c:	3c124666 	lui	s2,0x4666
bfc0ab20:	3652ff30 	ori	s2,s2,0xff30
bfc0ab24:	00000000 	nop
bfc0ab28:	3c148de2 	lui	s4,0x8de2
bfc0ab2c:	3694a8f8 	ori	s4,s4,0xa8f8
bfc0ab30:	161414ad 	bne	s0,s4,bfc0fde8 <inst_error>
bfc0ab34:	00000000 	nop
bfc0ab38:	3c154666 	lui	s5,0x4666
bfc0ab3c:	36b5ff30 	ori	s5,s5,0xff30
bfc0ab40:	165514a9 	bne	s2,s5,bfc0fde8 <inst_error>
bfc0ab44:	00000000 	nop
bfc0ab48:	3c0cf914 	lui	t4,0xf914
bfc0ab4c:	358ce5f0 	ori	t4,t4,0xe5f0
bfc0ab50:	3c0dbfc0 	lui	t5,0xbfc0
bfc0ab54:	35ad2728 	ori	t5,t5,0x2728
bfc0ab58:	24100000 	li	s0,0
bfc0ab5c:	24120000 	li	s2,0
bfc0ab60:	10000015 	b	bfc0abb8 <main+0xabb8>
bfc0ab64:	00000000 	nop
bfc0ab68:	3c10f914 	lui	s0,0xf914
bfc0ab6c:	3610e5f0 	ori	s0,s0,0xe5f0
bfc0ab70:	15280020 	bne	t1,t0,bfc0abf4 <main+0xabf4>
bfc0ab74:	00000000 	nop
bfc0ab78:	10000020 	b	bfc0abfc <main+0xabfc>
bfc0ab7c:	00000000 	nop
bfc0ab80:	00000021 	move	zero,zero
bfc0ab84:	00000021 	move	zero,zero
bfc0ab88:	00000021 	move	zero,zero
bfc0ab8c:	00000021 	move	zero,zero
bfc0ab90:	00000021 	move	zero,zero
bfc0ab94:	00000021 	move	zero,zero
bfc0ab98:	00000021 	move	zero,zero
bfc0ab9c:	00000021 	move	zero,zero
bfc0aba0:	00000021 	move	zero,zero
bfc0aba4:	00000021 	move	zero,zero
bfc0aba8:	00000021 	move	zero,zero
bfc0abac:	00000021 	move	zero,zero
bfc0abb0:	00000021 	move	zero,zero
bfc0abb4:	00000021 	move	zero,zero
bfc0abb8:	3c088c72 	lui	t0,0x8c72
bfc0abbc:	35087392 	ori	t0,t0,0x7392
bfc0abc0:	24090000 	li	t1,0
bfc0abc4:	1509ffe8 	bne	t0,t1,bfc0ab68 <main+0xab68>
bfc0abc8:	00000000 	nop
bfc0abcc:	1000000b 	b	bfc0abfc <main+0xabfc>
bfc0abd0:	00000000 	nop
bfc0abd4:	00000021 	move	zero,zero
bfc0abd8:	00000021 	move	zero,zero
bfc0abdc:	00000021 	move	zero,zero
bfc0abe0:	00000021 	move	zero,zero
bfc0abe4:	00000021 	move	zero,zero
bfc0abe8:	00000021 	move	zero,zero
bfc0abec:	00000021 	move	zero,zero
bfc0abf0:	00000021 	move	zero,zero
bfc0abf4:	3c12bfc0 	lui	s2,0xbfc0
bfc0abf8:	36522728 	ori	s2,s2,0x2728
bfc0abfc:	00000000 	nop
bfc0ac00:	3c14f914 	lui	s4,0xf914
bfc0ac04:	3694e5f0 	ori	s4,s4,0xe5f0
bfc0ac08:	16141477 	bne	s0,s4,bfc0fde8 <inst_error>
bfc0ac0c:	00000000 	nop
bfc0ac10:	3c15bfc0 	lui	s5,0xbfc0
bfc0ac14:	36b52728 	ori	s5,s5,0x2728
bfc0ac18:	16551473 	bne	s2,s5,bfc0fde8 <inst_error>
bfc0ac1c:	00000000 	nop
bfc0ac20:	3c0cf0b7 	lui	t4,0xf0b7
bfc0ac24:	358cfb80 	ori	t4,t4,0xfb80
bfc0ac28:	3c0d34d4 	lui	t5,0x34d4
bfc0ac2c:	35ad39e0 	ori	t5,t5,0x39e0
bfc0ac30:	24100000 	li	s0,0
bfc0ac34:	24120000 	li	s2,0
bfc0ac38:	10000015 	b	bfc0ac90 <main+0xac90>
bfc0ac3c:	00000000 	nop
bfc0ac40:	3c10f0b7 	lui	s0,0xf0b7
bfc0ac44:	3610fb80 	ori	s0,s0,0xfb80
bfc0ac48:	15280020 	bne	t1,t0,bfc0accc <main+0xaccc>
bfc0ac4c:	00000000 	nop
bfc0ac50:	10000020 	b	bfc0acd4 <main+0xacd4>
bfc0ac54:	00000000 	nop
bfc0ac58:	00000021 	move	zero,zero
bfc0ac5c:	00000021 	move	zero,zero
bfc0ac60:	00000021 	move	zero,zero
bfc0ac64:	00000021 	move	zero,zero
bfc0ac68:	00000021 	move	zero,zero
bfc0ac6c:	00000021 	move	zero,zero
bfc0ac70:	00000021 	move	zero,zero
bfc0ac74:	00000021 	move	zero,zero
bfc0ac78:	00000021 	move	zero,zero
bfc0ac7c:	00000021 	move	zero,zero
bfc0ac80:	00000021 	move	zero,zero
bfc0ac84:	00000021 	move	zero,zero
bfc0ac88:	00000021 	move	zero,zero
bfc0ac8c:	00000021 	move	zero,zero
bfc0ac90:	3c08b4e2 	lui	t0,0xb4e2
bfc0ac94:	3508d6c0 	ori	t0,t0,0xd6c0
bfc0ac98:	24090000 	li	t1,0
bfc0ac9c:	1509ffe8 	bne	t0,t1,bfc0ac40 <main+0xac40>
bfc0aca0:	00000000 	nop
bfc0aca4:	1000000b 	b	bfc0acd4 <main+0xacd4>
bfc0aca8:	00000000 	nop
bfc0acac:	00000021 	move	zero,zero
bfc0acb0:	00000021 	move	zero,zero
bfc0acb4:	00000021 	move	zero,zero
bfc0acb8:	00000021 	move	zero,zero
bfc0acbc:	00000021 	move	zero,zero
bfc0acc0:	00000021 	move	zero,zero
bfc0acc4:	00000021 	move	zero,zero
bfc0acc8:	00000021 	move	zero,zero
bfc0accc:	3c1234d4 	lui	s2,0x34d4
bfc0acd0:	365239e0 	ori	s2,s2,0x39e0
bfc0acd4:	00000000 	nop
bfc0acd8:	3c14f0b7 	lui	s4,0xf0b7
bfc0acdc:	3694fb80 	ori	s4,s4,0xfb80
bfc0ace0:	16141441 	bne	s0,s4,bfc0fde8 <inst_error>
bfc0ace4:	00000000 	nop
bfc0ace8:	3c1534d4 	lui	s5,0x34d4
bfc0acec:	36b539e0 	ori	s5,s5,0x39e0
bfc0acf0:	1655143d 	bne	s2,s5,bfc0fde8 <inst_error>
bfc0acf4:	00000000 	nop
bfc0acf8:	3c0c3aa0 	lui	t4,0x3aa0
bfc0acfc:	358c2880 	ori	t4,t4,0x2880
bfc0ad00:	3c0d9516 	lui	t5,0x9516
bfc0ad04:	35ad1fc6 	ori	t5,t5,0x1fc6
bfc0ad08:	24100000 	li	s0,0
bfc0ad0c:	24120000 	li	s2,0
bfc0ad10:	10000015 	b	bfc0ad68 <main+0xad68>
bfc0ad14:	00000000 	nop
bfc0ad18:	3c103aa0 	lui	s0,0x3aa0
bfc0ad1c:	36102880 	ori	s0,s0,0x2880
bfc0ad20:	15280020 	bne	t1,t0,bfc0ada4 <main+0xada4>
bfc0ad24:	00000000 	nop
bfc0ad28:	10000020 	b	bfc0adac <main+0xadac>
bfc0ad2c:	00000000 	nop
bfc0ad30:	00000021 	move	zero,zero
bfc0ad34:	00000021 	move	zero,zero
bfc0ad38:	00000021 	move	zero,zero
bfc0ad3c:	00000021 	move	zero,zero
bfc0ad40:	00000021 	move	zero,zero
bfc0ad44:	00000021 	move	zero,zero
bfc0ad48:	00000021 	move	zero,zero
bfc0ad4c:	00000021 	move	zero,zero
bfc0ad50:	00000021 	move	zero,zero
bfc0ad54:	00000021 	move	zero,zero
bfc0ad58:	00000021 	move	zero,zero
bfc0ad5c:	00000021 	move	zero,zero
bfc0ad60:	00000021 	move	zero,zero
bfc0ad64:	00000021 	move	zero,zero
bfc0ad68:	3c08c0d9 	lui	t0,0xc0d9
bfc0ad6c:	35082060 	ori	t0,t0,0x2060
bfc0ad70:	24090000 	li	t1,0
bfc0ad74:	1509ffe8 	bne	t0,t1,bfc0ad18 <main+0xad18>
bfc0ad78:	00000000 	nop
bfc0ad7c:	1000000b 	b	bfc0adac <main+0xadac>
bfc0ad80:	00000000 	nop
bfc0ad84:	00000021 	move	zero,zero
bfc0ad88:	00000021 	move	zero,zero
bfc0ad8c:	00000021 	move	zero,zero
bfc0ad90:	00000021 	move	zero,zero
bfc0ad94:	00000021 	move	zero,zero
bfc0ad98:	00000021 	move	zero,zero
bfc0ad9c:	00000021 	move	zero,zero
bfc0ada0:	00000021 	move	zero,zero
bfc0ada4:	3c129516 	lui	s2,0x9516
bfc0ada8:	36521fc6 	ori	s2,s2,0x1fc6
bfc0adac:	00000000 	nop
bfc0adb0:	3c143aa0 	lui	s4,0x3aa0
bfc0adb4:	36942880 	ori	s4,s4,0x2880
bfc0adb8:	1614140b 	bne	s0,s4,bfc0fde8 <inst_error>
bfc0adbc:	00000000 	nop
bfc0adc0:	3c159516 	lui	s5,0x9516
bfc0adc4:	36b51fc6 	ori	s5,s5,0x1fc6
bfc0adc8:	16551407 	bne	s2,s5,bfc0fde8 <inst_error>
bfc0adcc:	00000000 	nop
bfc0add0:	3c0cf7f4 	lui	t4,0xf7f4
bfc0add4:	358c49fb 	ori	t4,t4,0x49fb
bfc0add8:	3c0dbd54 	lui	t5,0xbd54
bfc0addc:	35adfd00 	ori	t5,t5,0xfd00
bfc0ade0:	24100000 	li	s0,0
bfc0ade4:	24120000 	li	s2,0
bfc0ade8:	10000015 	b	bfc0ae40 <main+0xae40>
bfc0adec:	00000000 	nop
bfc0adf0:	3c10f7f4 	lui	s0,0xf7f4
bfc0adf4:	361049fb 	ori	s0,s0,0x49fb
bfc0adf8:	15280020 	bne	t1,t0,bfc0ae7c <main+0xae7c>
bfc0adfc:	00000000 	nop
bfc0ae00:	10000020 	b	bfc0ae84 <main+0xae84>
bfc0ae04:	00000000 	nop
bfc0ae08:	00000021 	move	zero,zero
bfc0ae0c:	00000021 	move	zero,zero
bfc0ae10:	00000021 	move	zero,zero
bfc0ae14:	00000021 	move	zero,zero
bfc0ae18:	00000021 	move	zero,zero
bfc0ae1c:	00000021 	move	zero,zero
bfc0ae20:	00000021 	move	zero,zero
bfc0ae24:	00000021 	move	zero,zero
bfc0ae28:	00000021 	move	zero,zero
bfc0ae2c:	00000021 	move	zero,zero
bfc0ae30:	00000021 	move	zero,zero
bfc0ae34:	00000021 	move	zero,zero
bfc0ae38:	00000021 	move	zero,zero
bfc0ae3c:	00000021 	move	zero,zero
bfc0ae40:	3c08e583 	lui	t0,0xe583
bfc0ae44:	35084417 	ori	t0,t0,0x4417
bfc0ae48:	24090000 	li	t1,0
bfc0ae4c:	1509ffe8 	bne	t0,t1,bfc0adf0 <main+0xadf0>
bfc0ae50:	00000000 	nop
bfc0ae54:	1000000b 	b	bfc0ae84 <main+0xae84>
bfc0ae58:	00000000 	nop
bfc0ae5c:	00000021 	move	zero,zero
bfc0ae60:	00000021 	move	zero,zero
bfc0ae64:	00000021 	move	zero,zero
bfc0ae68:	00000021 	move	zero,zero
bfc0ae6c:	00000021 	move	zero,zero
bfc0ae70:	00000021 	move	zero,zero
bfc0ae74:	00000021 	move	zero,zero
bfc0ae78:	00000021 	move	zero,zero
bfc0ae7c:	3c12bd54 	lui	s2,0xbd54
bfc0ae80:	3652fd00 	ori	s2,s2,0xfd00
bfc0ae84:	00000000 	nop
bfc0ae88:	3c14f7f4 	lui	s4,0xf7f4
bfc0ae8c:	369449fb 	ori	s4,s4,0x49fb
bfc0ae90:	161413d5 	bne	s0,s4,bfc0fde8 <inst_error>
bfc0ae94:	00000000 	nop
bfc0ae98:	3c15bd54 	lui	s5,0xbd54
bfc0ae9c:	36b5fd00 	ori	s5,s5,0xfd00
bfc0aea0:	165513d1 	bne	s2,s5,bfc0fde8 <inst_error>
bfc0aea4:	00000000 	nop
bfc0aea8:	3c0c7dbc 	lui	t4,0x7dbc
bfc0aeac:	358c8068 	ori	t4,t4,0x8068
bfc0aeb0:	3c0d4efa 	lui	t5,0x4efa
bfc0aeb4:	35adda60 	ori	t5,t5,0xda60
bfc0aeb8:	24100000 	li	s0,0
bfc0aebc:	24120000 	li	s2,0
bfc0aec0:	10000015 	b	bfc0af18 <main+0xaf18>
bfc0aec4:	00000000 	nop
bfc0aec8:	3c107dbc 	lui	s0,0x7dbc
bfc0aecc:	36108068 	ori	s0,s0,0x8068
bfc0aed0:	15280020 	bne	t1,t0,bfc0af54 <main+0xaf54>
bfc0aed4:	00000000 	nop
bfc0aed8:	10000020 	b	bfc0af5c <main+0xaf5c>
bfc0aedc:	00000000 	nop
bfc0aee0:	00000021 	move	zero,zero
bfc0aee4:	00000021 	move	zero,zero
bfc0aee8:	00000021 	move	zero,zero
bfc0aeec:	00000021 	move	zero,zero
bfc0aef0:	00000021 	move	zero,zero
bfc0aef4:	00000021 	move	zero,zero
bfc0aef8:	00000021 	move	zero,zero
bfc0aefc:	00000021 	move	zero,zero
bfc0af00:	00000021 	move	zero,zero
bfc0af04:	00000021 	move	zero,zero
bfc0af08:	00000021 	move	zero,zero
bfc0af0c:	00000021 	move	zero,zero
bfc0af10:	00000021 	move	zero,zero
bfc0af14:	00000021 	move	zero,zero
bfc0af18:	3c08d557 	lui	t0,0xd557
bfc0af1c:	3508e6e4 	ori	t0,t0,0xe6e4
bfc0af20:	24090000 	li	t1,0
bfc0af24:	1509ffe8 	bne	t0,t1,bfc0aec8 <main+0xaec8>
bfc0af28:	00000000 	nop
bfc0af2c:	1000000b 	b	bfc0af5c <main+0xaf5c>
bfc0af30:	00000000 	nop
bfc0af34:	00000021 	move	zero,zero
bfc0af38:	00000021 	move	zero,zero
bfc0af3c:	00000021 	move	zero,zero
bfc0af40:	00000021 	move	zero,zero
bfc0af44:	00000021 	move	zero,zero
bfc0af48:	00000021 	move	zero,zero
bfc0af4c:	00000021 	move	zero,zero
bfc0af50:	00000021 	move	zero,zero
bfc0af54:	3c124efa 	lui	s2,0x4efa
bfc0af58:	3652da60 	ori	s2,s2,0xda60
bfc0af5c:	00000000 	nop
bfc0af60:	3c147dbc 	lui	s4,0x7dbc
bfc0af64:	36948068 	ori	s4,s4,0x8068
bfc0af68:	1614139f 	bne	s0,s4,bfc0fde8 <inst_error>
bfc0af6c:	00000000 	nop
bfc0af70:	3c154efa 	lui	s5,0x4efa
bfc0af74:	36b5da60 	ori	s5,s5,0xda60
bfc0af78:	1655139b 	bne	s2,s5,bfc0fde8 <inst_error>
bfc0af7c:	00000000 	nop
bfc0af80:	3c0cac9f 	lui	t4,0xac9f
bfc0af84:	358ca100 	ori	t4,t4,0xa100
bfc0af88:	3c0d1901 	lui	t5,0x1901
bfc0af8c:	35ad87e8 	ori	t5,t5,0x87e8
bfc0af90:	24100000 	li	s0,0
bfc0af94:	24120000 	li	s2,0
bfc0af98:	10000015 	b	bfc0aff0 <main+0xaff0>
bfc0af9c:	00000000 	nop
bfc0afa0:	3c10ac9f 	lui	s0,0xac9f
bfc0afa4:	3610a100 	ori	s0,s0,0xa100
bfc0afa8:	15280020 	bne	t1,t0,bfc0b02c <main+0xb02c>
bfc0afac:	00000000 	nop
bfc0afb0:	10000020 	b	bfc0b034 <main+0xb034>
bfc0afb4:	00000000 	nop
bfc0afb8:	00000021 	move	zero,zero
bfc0afbc:	00000021 	move	zero,zero
bfc0afc0:	00000021 	move	zero,zero
bfc0afc4:	00000021 	move	zero,zero
bfc0afc8:	00000021 	move	zero,zero
bfc0afcc:	00000021 	move	zero,zero
bfc0afd0:	00000021 	move	zero,zero
bfc0afd4:	00000021 	move	zero,zero
bfc0afd8:	00000021 	move	zero,zero
bfc0afdc:	00000021 	move	zero,zero
bfc0afe0:	00000021 	move	zero,zero
bfc0afe4:	00000021 	move	zero,zero
bfc0afe8:	00000021 	move	zero,zero
bfc0afec:	00000021 	move	zero,zero
bfc0aff0:	3c08b437 	lui	t0,0xb437
bfc0aff4:	3508f388 	ori	t0,t0,0xf388
bfc0aff8:	24090000 	li	t1,0
bfc0affc:	1509ffe8 	bne	t0,t1,bfc0afa0 <main+0xafa0>
bfc0b000:	00000000 	nop
bfc0b004:	1000000b 	b	bfc0b034 <main+0xb034>
bfc0b008:	00000000 	nop
bfc0b00c:	00000021 	move	zero,zero
bfc0b010:	00000021 	move	zero,zero
bfc0b014:	00000021 	move	zero,zero
bfc0b018:	00000021 	move	zero,zero
bfc0b01c:	00000021 	move	zero,zero
bfc0b020:	00000021 	move	zero,zero
bfc0b024:	00000021 	move	zero,zero
bfc0b028:	00000021 	move	zero,zero
bfc0b02c:	3c121901 	lui	s2,0x1901
bfc0b030:	365287e8 	ori	s2,s2,0x87e8
bfc0b034:	00000000 	nop
bfc0b038:	3c14ac9f 	lui	s4,0xac9f
bfc0b03c:	3694a100 	ori	s4,s4,0xa100
bfc0b040:	16141369 	bne	s0,s4,bfc0fde8 <inst_error>
bfc0b044:	00000000 	nop
bfc0b048:	3c151901 	lui	s5,0x1901
bfc0b04c:	36b587e8 	ori	s5,s5,0x87e8
bfc0b050:	16551365 	bne	s2,s5,bfc0fde8 <inst_error>
bfc0b054:	00000000 	nop
bfc0b058:	3c0ce0cb 	lui	t4,0xe0cb
bfc0b05c:	358ccfc0 	ori	t4,t4,0xcfc0
bfc0b060:	3c0d9635 	lui	t5,0x9635
bfc0b064:	35ad82be 	ori	t5,t5,0x82be
bfc0b068:	24100000 	li	s0,0
bfc0b06c:	24120000 	li	s2,0
bfc0b070:	10000015 	b	bfc0b0c8 <main+0xb0c8>
bfc0b074:	00000000 	nop
bfc0b078:	3c10e0cb 	lui	s0,0xe0cb
bfc0b07c:	3610cfc0 	ori	s0,s0,0xcfc0
bfc0b080:	15280020 	bne	t1,t0,bfc0b104 <main+0xb104>
bfc0b084:	00000000 	nop
bfc0b088:	10000020 	b	bfc0b10c <main+0xb10c>
bfc0b08c:	00000000 	nop
bfc0b090:	00000021 	move	zero,zero
bfc0b094:	00000021 	move	zero,zero
bfc0b098:	00000021 	move	zero,zero
bfc0b09c:	00000021 	move	zero,zero
bfc0b0a0:	00000021 	move	zero,zero
bfc0b0a4:	00000021 	move	zero,zero
bfc0b0a8:	00000021 	move	zero,zero
bfc0b0ac:	00000021 	move	zero,zero
bfc0b0b0:	00000021 	move	zero,zero
bfc0b0b4:	00000021 	move	zero,zero
bfc0b0b8:	00000021 	move	zero,zero
bfc0b0bc:	00000021 	move	zero,zero
bfc0b0c0:	00000021 	move	zero,zero
bfc0b0c4:	00000021 	move	zero,zero
bfc0b0c8:	3c08e822 	lui	t0,0xe822
bfc0b0cc:	3508ca21 	ori	t0,t0,0xca21
bfc0b0d0:	24090000 	li	t1,0
bfc0b0d4:	1509ffe8 	bne	t0,t1,bfc0b078 <main+0xb078>
bfc0b0d8:	00000000 	nop
bfc0b0dc:	1000000b 	b	bfc0b10c <main+0xb10c>
bfc0b0e0:	00000000 	nop
bfc0b0e4:	00000021 	move	zero,zero
bfc0b0e8:	00000021 	move	zero,zero
bfc0b0ec:	00000021 	move	zero,zero
bfc0b0f0:	00000021 	move	zero,zero
bfc0b0f4:	00000021 	move	zero,zero
bfc0b0f8:	00000021 	move	zero,zero
bfc0b0fc:	00000021 	move	zero,zero
bfc0b100:	00000021 	move	zero,zero
bfc0b104:	3c129635 	lui	s2,0x9635
bfc0b108:	365282be 	ori	s2,s2,0x82be
bfc0b10c:	00000000 	nop
bfc0b110:	3c14e0cb 	lui	s4,0xe0cb
bfc0b114:	3694cfc0 	ori	s4,s4,0xcfc0
bfc0b118:	16141333 	bne	s0,s4,bfc0fde8 <inst_error>
bfc0b11c:	00000000 	nop
bfc0b120:	3c159635 	lui	s5,0x9635
bfc0b124:	36b582be 	ori	s5,s5,0x82be
bfc0b128:	1655132f 	bne	s2,s5,bfc0fde8 <inst_error>
bfc0b12c:	00000000 	nop
bfc0b130:	3c0c32a9 	lui	t4,0x32a9
bfc0b134:	358c6121 	ori	t4,t4,0x6121
bfc0b138:	3c0d780c 	lui	t5,0x780c
bfc0b13c:	35adfcb0 	ori	t5,t5,0xfcb0
bfc0b140:	24100000 	li	s0,0
bfc0b144:	24120000 	li	s2,0
bfc0b148:	10000015 	b	bfc0b1a0 <main+0xb1a0>
bfc0b14c:	00000000 	nop
bfc0b150:	3c1032a9 	lui	s0,0x32a9
bfc0b154:	36106121 	ori	s0,s0,0x6121
bfc0b158:	15280020 	bne	t1,t0,bfc0b1dc <main+0xb1dc>
bfc0b15c:	00000000 	nop
bfc0b160:	10000020 	b	bfc0b1e4 <main+0xb1e4>
bfc0b164:	00000000 	nop
bfc0b168:	00000021 	move	zero,zero
bfc0b16c:	00000021 	move	zero,zero
bfc0b170:	00000021 	move	zero,zero
bfc0b174:	00000021 	move	zero,zero
bfc0b178:	00000021 	move	zero,zero
bfc0b17c:	00000021 	move	zero,zero
bfc0b180:	00000021 	move	zero,zero
bfc0b184:	00000021 	move	zero,zero
bfc0b188:	00000021 	move	zero,zero
bfc0b18c:	00000021 	move	zero,zero
bfc0b190:	00000021 	move	zero,zero
bfc0b194:	00000021 	move	zero,zero
bfc0b198:	00000021 	move	zero,zero
bfc0b19c:	00000021 	move	zero,zero
bfc0b1a0:	3c083374 	lui	t0,0x3374
bfc0b1a4:	3508510c 	ori	t0,t0,0x510c
bfc0b1a8:	24090000 	li	t1,0
bfc0b1ac:	1509ffe8 	bne	t0,t1,bfc0b150 <main+0xb150>
bfc0b1b0:	00000000 	nop
bfc0b1b4:	1000000b 	b	bfc0b1e4 <main+0xb1e4>
bfc0b1b8:	00000000 	nop
bfc0b1bc:	00000021 	move	zero,zero
bfc0b1c0:	00000021 	move	zero,zero
bfc0b1c4:	00000021 	move	zero,zero
bfc0b1c8:	00000021 	move	zero,zero
bfc0b1cc:	00000021 	move	zero,zero
bfc0b1d0:	00000021 	move	zero,zero
bfc0b1d4:	00000021 	move	zero,zero
bfc0b1d8:	00000021 	move	zero,zero
bfc0b1dc:	3c12780c 	lui	s2,0x780c
bfc0b1e0:	3652fcb0 	ori	s2,s2,0xfcb0
bfc0b1e4:	00000000 	nop
bfc0b1e8:	3c1432a9 	lui	s4,0x32a9
bfc0b1ec:	36946121 	ori	s4,s4,0x6121
bfc0b1f0:	161412fd 	bne	s0,s4,bfc0fde8 <inst_error>
bfc0b1f4:	00000000 	nop
bfc0b1f8:	3c15780c 	lui	s5,0x780c
bfc0b1fc:	36b5fcb0 	ori	s5,s5,0xfcb0
bfc0b200:	165512f9 	bne	s2,s5,bfc0fde8 <inst_error>
bfc0b204:	00000000 	nop
bfc0b208:	3c0cff9f 	lui	t4,0xff9f
bfc0b20c:	358cd4d2 	ori	t4,t4,0xd4d2
bfc0b210:	3c0d36f3 	lui	t5,0x36f3
bfc0b214:	35ade0ee 	ori	t5,t5,0xe0ee
bfc0b218:	24100000 	li	s0,0
bfc0b21c:	24120000 	li	s2,0
bfc0b220:	10000015 	b	bfc0b278 <main+0xb278>
bfc0b224:	00000000 	nop
bfc0b228:	3c10ff9f 	lui	s0,0xff9f
bfc0b22c:	3610d4d2 	ori	s0,s0,0xd4d2
bfc0b230:	15280020 	bne	t1,t0,bfc0b2b4 <main+0xb2b4>
bfc0b234:	00000000 	nop
bfc0b238:	10000020 	b	bfc0b2bc <main+0xb2bc>
bfc0b23c:	00000000 	nop
bfc0b240:	00000021 	move	zero,zero
bfc0b244:	00000021 	move	zero,zero
bfc0b248:	00000021 	move	zero,zero
bfc0b24c:	00000021 	move	zero,zero
bfc0b250:	00000021 	move	zero,zero
bfc0b254:	00000021 	move	zero,zero
bfc0b258:	00000021 	move	zero,zero
bfc0b25c:	00000021 	move	zero,zero
bfc0b260:	00000021 	move	zero,zero
bfc0b264:	00000021 	move	zero,zero
bfc0b268:	00000021 	move	zero,zero
bfc0b26c:	00000021 	move	zero,zero
bfc0b270:	00000021 	move	zero,zero
bfc0b274:	00000021 	move	zero,zero
bfc0b278:	3c08a10f 	lui	t0,0xa10f
bfc0b27c:	350823f0 	ori	t0,t0,0x23f0
bfc0b280:	24090000 	li	t1,0
bfc0b284:	1509ffe8 	bne	t0,t1,bfc0b228 <main+0xb228>
bfc0b288:	00000000 	nop
bfc0b28c:	1000000b 	b	bfc0b2bc <main+0xb2bc>
bfc0b290:	00000000 	nop
bfc0b294:	00000021 	move	zero,zero
bfc0b298:	00000021 	move	zero,zero
bfc0b29c:	00000021 	move	zero,zero
bfc0b2a0:	00000021 	move	zero,zero
bfc0b2a4:	00000021 	move	zero,zero
bfc0b2a8:	00000021 	move	zero,zero
bfc0b2ac:	00000021 	move	zero,zero
bfc0b2b0:	00000021 	move	zero,zero
bfc0b2b4:	3c1236f3 	lui	s2,0x36f3
bfc0b2b8:	3652e0ee 	ori	s2,s2,0xe0ee
bfc0b2bc:	00000000 	nop
bfc0b2c0:	3c14ff9f 	lui	s4,0xff9f
bfc0b2c4:	3694d4d2 	ori	s4,s4,0xd4d2
bfc0b2c8:	161412c7 	bne	s0,s4,bfc0fde8 <inst_error>
bfc0b2cc:	00000000 	nop
bfc0b2d0:	3c1536f3 	lui	s5,0x36f3
bfc0b2d4:	36b5e0ee 	ori	s5,s5,0xe0ee
bfc0b2d8:	165512c3 	bne	s2,s5,bfc0fde8 <inst_error>
bfc0b2dc:	00000000 	nop
bfc0b2e0:	3c0c429f 	lui	t4,0x429f
bfc0b2e4:	358c8e70 	ori	t4,t4,0x8e70
bfc0b2e8:	3c0d6cf8 	lui	t5,0x6cf8
bfc0b2ec:	35adf7a0 	ori	t5,t5,0xf7a0
bfc0b2f0:	24100000 	li	s0,0
bfc0b2f4:	24120000 	li	s2,0
bfc0b2f8:	10000015 	b	bfc0b350 <main+0xb350>
bfc0b2fc:	00000000 	nop
bfc0b300:	3c10429f 	lui	s0,0x429f
bfc0b304:	36108e70 	ori	s0,s0,0x8e70
bfc0b308:	15280020 	bne	t1,t0,bfc0b38c <main+0xb38c>
bfc0b30c:	00000000 	nop
bfc0b310:	10000020 	b	bfc0b394 <main+0xb394>
bfc0b314:	00000000 	nop
bfc0b318:	00000021 	move	zero,zero
bfc0b31c:	00000021 	move	zero,zero
bfc0b320:	00000021 	move	zero,zero
bfc0b324:	00000021 	move	zero,zero
bfc0b328:	00000021 	move	zero,zero
bfc0b32c:	00000021 	move	zero,zero
bfc0b330:	00000021 	move	zero,zero
bfc0b334:	00000021 	move	zero,zero
bfc0b338:	00000021 	move	zero,zero
bfc0b33c:	00000021 	move	zero,zero
bfc0b340:	00000021 	move	zero,zero
bfc0b344:	00000021 	move	zero,zero
bfc0b348:	00000021 	move	zero,zero
bfc0b34c:	00000021 	move	zero,zero
bfc0b350:	3c08df18 	lui	t0,0xdf18
bfc0b354:	3508c280 	ori	t0,t0,0xc280
bfc0b358:	24090000 	li	t1,0
bfc0b35c:	1509ffe8 	bne	t0,t1,bfc0b300 <main+0xb300>
bfc0b360:	00000000 	nop
bfc0b364:	1000000b 	b	bfc0b394 <main+0xb394>
bfc0b368:	00000000 	nop
bfc0b36c:	00000021 	move	zero,zero
bfc0b370:	00000021 	move	zero,zero
bfc0b374:	00000021 	move	zero,zero
bfc0b378:	00000021 	move	zero,zero
bfc0b37c:	00000021 	move	zero,zero
bfc0b380:	00000021 	move	zero,zero
bfc0b384:	00000021 	move	zero,zero
bfc0b388:	00000021 	move	zero,zero
bfc0b38c:	3c126cf8 	lui	s2,0x6cf8
bfc0b390:	3652f7a0 	ori	s2,s2,0xf7a0
bfc0b394:	00000000 	nop
bfc0b398:	3c14429f 	lui	s4,0x429f
bfc0b39c:	36948e70 	ori	s4,s4,0x8e70
bfc0b3a0:	16141291 	bne	s0,s4,bfc0fde8 <inst_error>
bfc0b3a4:	00000000 	nop
bfc0b3a8:	3c156cf8 	lui	s5,0x6cf8
bfc0b3ac:	36b5f7a0 	ori	s5,s5,0xf7a0
bfc0b3b0:	1655128d 	bne	s2,s5,bfc0fde8 <inst_error>
bfc0b3b4:	00000000 	nop
bfc0b3b8:	3c0cbce5 	lui	t4,0xbce5
bfc0b3bc:	358c1b0b 	ori	t4,t4,0x1b0b
bfc0b3c0:	3c0d8fcb 	lui	t5,0x8fcb
bfc0b3c4:	35ad2950 	ori	t5,t5,0x2950
bfc0b3c8:	24100000 	li	s0,0
bfc0b3cc:	24120000 	li	s2,0
bfc0b3d0:	10000015 	b	bfc0b428 <main+0xb428>
bfc0b3d4:	00000000 	nop
bfc0b3d8:	3c10bce5 	lui	s0,0xbce5
bfc0b3dc:	36101b0b 	ori	s0,s0,0x1b0b
bfc0b3e0:	15280020 	bne	t1,t0,bfc0b464 <main+0xb464>
bfc0b3e4:	00000000 	nop
bfc0b3e8:	10000020 	b	bfc0b46c <main+0xb46c>
bfc0b3ec:	00000000 	nop
bfc0b3f0:	00000021 	move	zero,zero
bfc0b3f4:	00000021 	move	zero,zero
bfc0b3f8:	00000021 	move	zero,zero
bfc0b3fc:	00000021 	move	zero,zero
bfc0b400:	00000021 	move	zero,zero
bfc0b404:	00000021 	move	zero,zero
bfc0b408:	00000021 	move	zero,zero
bfc0b40c:	00000021 	move	zero,zero
bfc0b410:	00000021 	move	zero,zero
bfc0b414:	00000021 	move	zero,zero
bfc0b418:	00000021 	move	zero,zero
bfc0b41c:	00000021 	move	zero,zero
bfc0b420:	00000021 	move	zero,zero
bfc0b424:	00000021 	move	zero,zero
bfc0b428:	3c08ea92 	lui	t0,0xea92
bfc0b42c:	3508c588 	ori	t0,t0,0xc588
bfc0b430:	24090000 	li	t1,0
bfc0b434:	1509ffe8 	bne	t0,t1,bfc0b3d8 <main+0xb3d8>
bfc0b438:	00000000 	nop
bfc0b43c:	1000000b 	b	bfc0b46c <main+0xb46c>
bfc0b440:	00000000 	nop
bfc0b444:	00000021 	move	zero,zero
bfc0b448:	00000021 	move	zero,zero
bfc0b44c:	00000021 	move	zero,zero
bfc0b450:	00000021 	move	zero,zero
bfc0b454:	00000021 	move	zero,zero
bfc0b458:	00000021 	move	zero,zero
bfc0b45c:	00000021 	move	zero,zero
bfc0b460:	00000021 	move	zero,zero
bfc0b464:	3c128fcb 	lui	s2,0x8fcb
bfc0b468:	36522950 	ori	s2,s2,0x2950
bfc0b46c:	00000000 	nop
bfc0b470:	3c14bce5 	lui	s4,0xbce5
bfc0b474:	36941b0b 	ori	s4,s4,0x1b0b
bfc0b478:	1614125b 	bne	s0,s4,bfc0fde8 <inst_error>
bfc0b47c:	00000000 	nop
bfc0b480:	3c158fcb 	lui	s5,0x8fcb
bfc0b484:	36b52950 	ori	s5,s5,0x2950
bfc0b488:	16551257 	bne	s2,s5,bfc0fde8 <inst_error>
bfc0b48c:	00000000 	nop
bfc0b490:	3c0c12e5 	lui	t4,0x12e5
bfc0b494:	358cb630 	ori	t4,t4,0xb630
bfc0b498:	3c0d30e6 	lui	t5,0x30e6
bfc0b49c:	35ad7b92 	ori	t5,t5,0x7b92
bfc0b4a0:	24100000 	li	s0,0
bfc0b4a4:	24120000 	li	s2,0
bfc0b4a8:	10000015 	b	bfc0b500 <main+0xb500>
bfc0b4ac:	00000000 	nop
bfc0b4b0:	3c1012e5 	lui	s0,0x12e5
bfc0b4b4:	3610b630 	ori	s0,s0,0xb630
bfc0b4b8:	15280020 	bne	t1,t0,bfc0b53c <main+0xb53c>
bfc0b4bc:	00000000 	nop
bfc0b4c0:	10000020 	b	bfc0b544 <main+0xb544>
bfc0b4c4:	00000000 	nop
bfc0b4c8:	00000021 	move	zero,zero
bfc0b4cc:	00000021 	move	zero,zero
bfc0b4d0:	00000021 	move	zero,zero
bfc0b4d4:	00000021 	move	zero,zero
bfc0b4d8:	00000021 	move	zero,zero
bfc0b4dc:	00000021 	move	zero,zero
bfc0b4e0:	00000021 	move	zero,zero
bfc0b4e4:	00000021 	move	zero,zero
bfc0b4e8:	00000021 	move	zero,zero
bfc0b4ec:	00000021 	move	zero,zero
bfc0b4f0:	00000021 	move	zero,zero
bfc0b4f4:	00000021 	move	zero,zero
bfc0b4f8:	00000021 	move	zero,zero
bfc0b4fc:	00000021 	move	zero,zero
bfc0b500:	3c086348 	lui	t0,0x6348
bfc0b504:	35088fb8 	ori	t0,t0,0x8fb8
bfc0b508:	24090000 	li	t1,0
bfc0b50c:	1509ffe8 	bne	t0,t1,bfc0b4b0 <main+0xb4b0>
bfc0b510:	00000000 	nop
bfc0b514:	1000000b 	b	bfc0b544 <main+0xb544>
bfc0b518:	00000000 	nop
bfc0b51c:	00000021 	move	zero,zero
bfc0b520:	00000021 	move	zero,zero
bfc0b524:	00000021 	move	zero,zero
bfc0b528:	00000021 	move	zero,zero
bfc0b52c:	00000021 	move	zero,zero
bfc0b530:	00000021 	move	zero,zero
bfc0b534:	00000021 	move	zero,zero
bfc0b538:	00000021 	move	zero,zero
bfc0b53c:	3c1230e6 	lui	s2,0x30e6
bfc0b540:	36527b92 	ori	s2,s2,0x7b92
bfc0b544:	00000000 	nop
bfc0b548:	3c1412e5 	lui	s4,0x12e5
bfc0b54c:	3694b630 	ori	s4,s4,0xb630
bfc0b550:	16141225 	bne	s0,s4,bfc0fde8 <inst_error>
bfc0b554:	00000000 	nop
bfc0b558:	3c1530e6 	lui	s5,0x30e6
bfc0b55c:	36b57b92 	ori	s5,s5,0x7b92
bfc0b560:	16551221 	bne	s2,s5,bfc0fde8 <inst_error>
bfc0b564:	00000000 	nop
bfc0b568:	3c0c56e0 	lui	t4,0x56e0
bfc0b56c:	358caa24 	ori	t4,t4,0xaa24
bfc0b570:	3c0dcb85 	lui	t5,0xcb85
bfc0b574:	35ad0982 	ori	t5,t5,0x982
bfc0b578:	24100000 	li	s0,0
bfc0b57c:	24120000 	li	s2,0
bfc0b580:	10000015 	b	bfc0b5d8 <main+0xb5d8>
bfc0b584:	00000000 	nop
bfc0b588:	3c1056e0 	lui	s0,0x56e0
bfc0b58c:	3610aa24 	ori	s0,s0,0xaa24
bfc0b590:	15280020 	bne	t1,t0,bfc0b614 <main+0xb614>
bfc0b594:	00000000 	nop
bfc0b598:	10000020 	b	bfc0b61c <main+0xb61c>
bfc0b59c:	00000000 	nop
bfc0b5a0:	00000021 	move	zero,zero
bfc0b5a4:	00000021 	move	zero,zero
bfc0b5a8:	00000021 	move	zero,zero
bfc0b5ac:	00000021 	move	zero,zero
bfc0b5b0:	00000021 	move	zero,zero
bfc0b5b4:	00000021 	move	zero,zero
bfc0b5b8:	00000021 	move	zero,zero
bfc0b5bc:	00000021 	move	zero,zero
bfc0b5c0:	00000021 	move	zero,zero
bfc0b5c4:	00000021 	move	zero,zero
bfc0b5c8:	00000021 	move	zero,zero
bfc0b5cc:	00000021 	move	zero,zero
bfc0b5d0:	00000021 	move	zero,zero
bfc0b5d4:	00000021 	move	zero,zero
bfc0b5d8:	3c08f555 	lui	t0,0xf555
bfc0b5dc:	35084068 	ori	t0,t0,0x4068
bfc0b5e0:	24090000 	li	t1,0
bfc0b5e4:	1509ffe8 	bne	t0,t1,bfc0b588 <main+0xb588>
bfc0b5e8:	00000000 	nop
bfc0b5ec:	1000000b 	b	bfc0b61c <main+0xb61c>
bfc0b5f0:	00000000 	nop
bfc0b5f4:	00000021 	move	zero,zero
bfc0b5f8:	00000021 	move	zero,zero
bfc0b5fc:	00000021 	move	zero,zero
bfc0b600:	00000021 	move	zero,zero
bfc0b604:	00000021 	move	zero,zero
bfc0b608:	00000021 	move	zero,zero
bfc0b60c:	00000021 	move	zero,zero
bfc0b610:	00000021 	move	zero,zero
bfc0b614:	3c12cb85 	lui	s2,0xcb85
bfc0b618:	36520982 	ori	s2,s2,0x982
bfc0b61c:	00000000 	nop
bfc0b620:	3c1456e0 	lui	s4,0x56e0
bfc0b624:	3694aa24 	ori	s4,s4,0xaa24
bfc0b628:	161411ef 	bne	s0,s4,bfc0fde8 <inst_error>
bfc0b62c:	00000000 	nop
bfc0b630:	3c15cb85 	lui	s5,0xcb85
bfc0b634:	36b50982 	ori	s5,s5,0x982
bfc0b638:	165511eb 	bne	s2,s5,bfc0fde8 <inst_error>
bfc0b63c:	00000000 	nop
bfc0b640:	3c0c52bc 	lui	t4,0x52bc
bfc0b644:	358ccf3c 	ori	t4,t4,0xcf3c
bfc0b648:	3c0de51f 	lui	t5,0xe51f
bfc0b64c:	35ad83fc 	ori	t5,t5,0x83fc
bfc0b650:	24100000 	li	s0,0
bfc0b654:	24120000 	li	s2,0
bfc0b658:	10000015 	b	bfc0b6b0 <main+0xb6b0>
bfc0b65c:	00000000 	nop
bfc0b660:	3c1052bc 	lui	s0,0x52bc
bfc0b664:	3610cf3c 	ori	s0,s0,0xcf3c
bfc0b668:	15280020 	bne	t1,t0,bfc0b6ec <main+0xb6ec>
bfc0b66c:	00000000 	nop
bfc0b670:	10000020 	b	bfc0b6f4 <main+0xb6f4>
bfc0b674:	00000000 	nop
bfc0b678:	00000021 	move	zero,zero
bfc0b67c:	00000021 	move	zero,zero
bfc0b680:	00000021 	move	zero,zero
bfc0b684:	00000021 	move	zero,zero
bfc0b688:	00000021 	move	zero,zero
bfc0b68c:	00000021 	move	zero,zero
bfc0b690:	00000021 	move	zero,zero
bfc0b694:	00000021 	move	zero,zero
bfc0b698:	00000021 	move	zero,zero
bfc0b69c:	00000021 	move	zero,zero
bfc0b6a0:	00000021 	move	zero,zero
bfc0b6a4:	00000021 	move	zero,zero
bfc0b6a8:	00000021 	move	zero,zero
bfc0b6ac:	00000021 	move	zero,zero
bfc0b6b0:	3c08a72f 	lui	t0,0xa72f
bfc0b6b4:	35087240 	ori	t0,t0,0x7240
bfc0b6b8:	24090000 	li	t1,0
bfc0b6bc:	1509ffe8 	bne	t0,t1,bfc0b660 <main+0xb660>
bfc0b6c0:	00000000 	nop
bfc0b6c4:	1000000b 	b	bfc0b6f4 <main+0xb6f4>
bfc0b6c8:	00000000 	nop
bfc0b6cc:	00000021 	move	zero,zero
bfc0b6d0:	00000021 	move	zero,zero
bfc0b6d4:	00000021 	move	zero,zero
bfc0b6d8:	00000021 	move	zero,zero
bfc0b6dc:	00000021 	move	zero,zero
bfc0b6e0:	00000021 	move	zero,zero
bfc0b6e4:	00000021 	move	zero,zero
bfc0b6e8:	00000021 	move	zero,zero
bfc0b6ec:	3c12e51f 	lui	s2,0xe51f
bfc0b6f0:	365283fc 	ori	s2,s2,0x83fc
bfc0b6f4:	00000000 	nop
bfc0b6f8:	3c1452bc 	lui	s4,0x52bc
bfc0b6fc:	3694cf3c 	ori	s4,s4,0xcf3c
bfc0b700:	161411b9 	bne	s0,s4,bfc0fde8 <inst_error>
bfc0b704:	00000000 	nop
bfc0b708:	3c15e51f 	lui	s5,0xe51f
bfc0b70c:	36b583fc 	ori	s5,s5,0x83fc
bfc0b710:	165511b5 	bne	s2,s5,bfc0fde8 <inst_error>
bfc0b714:	00000000 	nop
bfc0b718:	3c0ccdbf 	lui	t4,0xcdbf
bfc0b71c:	358c5374 	ori	t4,t4,0x5374
bfc0b720:	3c0d1a14 	lui	t5,0x1a14
bfc0b724:	35ad6330 	ori	t5,t5,0x6330
bfc0b728:	24100000 	li	s0,0
bfc0b72c:	24120000 	li	s2,0
bfc0b730:	10000015 	b	bfc0b788 <main+0xb788>
bfc0b734:	00000000 	nop
bfc0b738:	3c10cdbf 	lui	s0,0xcdbf
bfc0b73c:	36105374 	ori	s0,s0,0x5374
bfc0b740:	15280020 	bne	t1,t0,bfc0b7c4 <main+0xb7c4>
bfc0b744:	00000000 	nop
bfc0b748:	10000020 	b	bfc0b7cc <main+0xb7cc>
bfc0b74c:	00000000 	nop
bfc0b750:	00000021 	move	zero,zero
bfc0b754:	00000021 	move	zero,zero
bfc0b758:	00000021 	move	zero,zero
bfc0b75c:	00000021 	move	zero,zero
bfc0b760:	00000021 	move	zero,zero
bfc0b764:	00000021 	move	zero,zero
bfc0b768:	00000021 	move	zero,zero
bfc0b76c:	00000021 	move	zero,zero
bfc0b770:	00000021 	move	zero,zero
bfc0b774:	00000021 	move	zero,zero
bfc0b778:	00000021 	move	zero,zero
bfc0b77c:	00000021 	move	zero,zero
bfc0b780:	00000021 	move	zero,zero
bfc0b784:	00000021 	move	zero,zero
bfc0b788:	3c08f952 	lui	t0,0xf952
bfc0b78c:	35085442 	ori	t0,t0,0x5442
bfc0b790:	24090000 	li	t1,0
bfc0b794:	1509ffe8 	bne	t0,t1,bfc0b738 <main+0xb738>
bfc0b798:	00000000 	nop
bfc0b79c:	1000000b 	b	bfc0b7cc <main+0xb7cc>
bfc0b7a0:	00000000 	nop
bfc0b7a4:	00000021 	move	zero,zero
bfc0b7a8:	00000021 	move	zero,zero
bfc0b7ac:	00000021 	move	zero,zero
bfc0b7b0:	00000021 	move	zero,zero
bfc0b7b4:	00000021 	move	zero,zero
bfc0b7b8:	00000021 	move	zero,zero
bfc0b7bc:	00000021 	move	zero,zero
bfc0b7c0:	00000021 	move	zero,zero
bfc0b7c4:	3c121a14 	lui	s2,0x1a14
bfc0b7c8:	36526330 	ori	s2,s2,0x6330
bfc0b7cc:	00000000 	nop
bfc0b7d0:	3c14cdbf 	lui	s4,0xcdbf
bfc0b7d4:	36945374 	ori	s4,s4,0x5374
bfc0b7d8:	16141183 	bne	s0,s4,bfc0fde8 <inst_error>
bfc0b7dc:	00000000 	nop
bfc0b7e0:	3c151a14 	lui	s5,0x1a14
bfc0b7e4:	36b56330 	ori	s5,s5,0x6330
bfc0b7e8:	1655117f 	bne	s2,s5,bfc0fde8 <inst_error>
bfc0b7ec:	00000000 	nop
bfc0b7f0:	3c0cec47 	lui	t4,0xec47
bfc0b7f4:	358c0e0a 	ori	t4,t4,0xe0a
bfc0b7f8:	3c0d1533 	lui	t5,0x1533
bfc0b7fc:	35ad9bc0 	ori	t5,t5,0x9bc0
bfc0b800:	24100000 	li	s0,0
bfc0b804:	24120000 	li	s2,0
bfc0b808:	10000015 	b	bfc0b860 <main+0xb860>
bfc0b80c:	00000000 	nop
bfc0b810:	3c10ec47 	lui	s0,0xec47
bfc0b814:	36100e0a 	ori	s0,s0,0xe0a
bfc0b818:	15280020 	bne	t1,t0,bfc0b89c <main+0xb89c>
bfc0b81c:	00000000 	nop
bfc0b820:	10000020 	b	bfc0b8a4 <main+0xb8a4>
bfc0b824:	00000000 	nop
bfc0b828:	00000021 	move	zero,zero
bfc0b82c:	00000021 	move	zero,zero
bfc0b830:	00000021 	move	zero,zero
bfc0b834:	00000021 	move	zero,zero
bfc0b838:	00000021 	move	zero,zero
bfc0b83c:	00000021 	move	zero,zero
bfc0b840:	00000021 	move	zero,zero
bfc0b844:	00000021 	move	zero,zero
bfc0b848:	00000021 	move	zero,zero
bfc0b84c:	00000021 	move	zero,zero
bfc0b850:	00000021 	move	zero,zero
bfc0b854:	00000021 	move	zero,zero
bfc0b858:	00000021 	move	zero,zero
bfc0b85c:	00000021 	move	zero,zero
bfc0b860:	3c082aee 	lui	t0,0x2aee
bfc0b864:	350870cc 	ori	t0,t0,0x70cc
bfc0b868:	24090000 	li	t1,0
bfc0b86c:	1509ffe8 	bne	t0,t1,bfc0b810 <main+0xb810>
bfc0b870:	00000000 	nop
bfc0b874:	1000000b 	b	bfc0b8a4 <main+0xb8a4>
bfc0b878:	00000000 	nop
bfc0b87c:	00000021 	move	zero,zero
bfc0b880:	00000021 	move	zero,zero
bfc0b884:	00000021 	move	zero,zero
bfc0b888:	00000021 	move	zero,zero
bfc0b88c:	00000021 	move	zero,zero
bfc0b890:	00000021 	move	zero,zero
bfc0b894:	00000021 	move	zero,zero
bfc0b898:	00000021 	move	zero,zero
bfc0b89c:	3c121533 	lui	s2,0x1533
bfc0b8a0:	36529bc0 	ori	s2,s2,0x9bc0
bfc0b8a4:	00000000 	nop
bfc0b8a8:	3c14ec47 	lui	s4,0xec47
bfc0b8ac:	36940e0a 	ori	s4,s4,0xe0a
bfc0b8b0:	1614114d 	bne	s0,s4,bfc0fde8 <inst_error>
bfc0b8b4:	00000000 	nop
bfc0b8b8:	3c151533 	lui	s5,0x1533
bfc0b8bc:	36b59bc0 	ori	s5,s5,0x9bc0
bfc0b8c0:	16551149 	bne	s2,s5,bfc0fde8 <inst_error>
bfc0b8c4:	00000000 	nop
bfc0b8c8:	3c0c5f44 	lui	t4,0x5f44
bfc0b8cc:	358caca5 	ori	t4,t4,0xaca5
bfc0b8d0:	3c0d935c 	lui	t5,0x935c
bfc0b8d4:	35add3f4 	ori	t5,t5,0xd3f4
bfc0b8d8:	24100000 	li	s0,0
bfc0b8dc:	24120000 	li	s2,0
bfc0b8e0:	10000015 	b	bfc0b938 <main+0xb938>
bfc0b8e4:	00000000 	nop
bfc0b8e8:	3c105f44 	lui	s0,0x5f44
bfc0b8ec:	3610aca5 	ori	s0,s0,0xaca5
bfc0b8f0:	15280020 	bne	t1,t0,bfc0b974 <main+0xb974>
bfc0b8f4:	00000000 	nop
bfc0b8f8:	10000020 	b	bfc0b97c <main+0xb97c>
bfc0b8fc:	00000000 	nop
bfc0b900:	00000021 	move	zero,zero
bfc0b904:	00000021 	move	zero,zero
bfc0b908:	00000021 	move	zero,zero
bfc0b90c:	00000021 	move	zero,zero
bfc0b910:	00000021 	move	zero,zero
bfc0b914:	00000021 	move	zero,zero
bfc0b918:	00000021 	move	zero,zero
bfc0b91c:	00000021 	move	zero,zero
bfc0b920:	00000021 	move	zero,zero
bfc0b924:	00000021 	move	zero,zero
bfc0b928:	00000021 	move	zero,zero
bfc0b92c:	00000021 	move	zero,zero
bfc0b930:	00000021 	move	zero,zero
bfc0b934:	00000021 	move	zero,zero
bfc0b938:	3c08e7cf 	lui	t0,0xe7cf
bfc0b93c:	350823cd 	ori	t0,t0,0x23cd
bfc0b940:	24090000 	li	t1,0
bfc0b944:	1509ffe8 	bne	t0,t1,bfc0b8e8 <main+0xb8e8>
bfc0b948:	00000000 	nop
bfc0b94c:	1000000b 	b	bfc0b97c <main+0xb97c>
bfc0b950:	00000000 	nop
bfc0b954:	00000021 	move	zero,zero
bfc0b958:	00000021 	move	zero,zero
bfc0b95c:	00000021 	move	zero,zero
bfc0b960:	00000021 	move	zero,zero
bfc0b964:	00000021 	move	zero,zero
bfc0b968:	00000021 	move	zero,zero
bfc0b96c:	00000021 	move	zero,zero
bfc0b970:	00000021 	move	zero,zero
bfc0b974:	3c12935c 	lui	s2,0x935c
bfc0b978:	3652d3f4 	ori	s2,s2,0xd3f4
bfc0b97c:	00000000 	nop
bfc0b980:	3c145f44 	lui	s4,0x5f44
bfc0b984:	3694aca5 	ori	s4,s4,0xaca5
bfc0b988:	16141117 	bne	s0,s4,bfc0fde8 <inst_error>
bfc0b98c:	00000000 	nop
bfc0b990:	3c15935c 	lui	s5,0x935c
bfc0b994:	36b5d3f4 	ori	s5,s5,0xd3f4
bfc0b998:	16551113 	bne	s2,s5,bfc0fde8 <inst_error>
bfc0b99c:	00000000 	nop
bfc0b9a0:	3c0c16c2 	lui	t4,0x16c2
bfc0b9a4:	358cc2d2 	ori	t4,t4,0xc2d2
bfc0b9a8:	3c0ddbc2 	lui	t5,0xdbc2
bfc0b9ac:	35addd86 	ori	t5,t5,0xdd86
bfc0b9b0:	24100000 	li	s0,0
bfc0b9b4:	24120000 	li	s2,0
bfc0b9b8:	10000015 	b	bfc0ba10 <main+0xba10>
bfc0b9bc:	00000000 	nop
bfc0b9c0:	3c1016c2 	lui	s0,0x16c2
bfc0b9c4:	3610c2d2 	ori	s0,s0,0xc2d2
bfc0b9c8:	15280020 	bne	t1,t0,bfc0ba4c <main+0xba4c>
bfc0b9cc:	00000000 	nop
bfc0b9d0:	10000020 	b	bfc0ba54 <main+0xba54>
bfc0b9d4:	00000000 	nop
bfc0b9d8:	00000021 	move	zero,zero
bfc0b9dc:	00000021 	move	zero,zero
bfc0b9e0:	00000021 	move	zero,zero
bfc0b9e4:	00000021 	move	zero,zero
bfc0b9e8:	00000021 	move	zero,zero
bfc0b9ec:	00000021 	move	zero,zero
bfc0b9f0:	00000021 	move	zero,zero
bfc0b9f4:	00000021 	move	zero,zero
bfc0b9f8:	00000021 	move	zero,zero
bfc0b9fc:	00000021 	move	zero,zero
bfc0ba00:	00000021 	move	zero,zero
bfc0ba04:	00000021 	move	zero,zero
bfc0ba08:	00000021 	move	zero,zero
bfc0ba0c:	00000021 	move	zero,zero
bfc0ba10:	3c08784c 	lui	t0,0x784c
bfc0ba14:	3508035c 	ori	t0,t0,0x35c
bfc0ba18:	24090000 	li	t1,0
bfc0ba1c:	1509ffe8 	bne	t0,t1,bfc0b9c0 <main+0xb9c0>
bfc0ba20:	00000000 	nop
bfc0ba24:	1000000b 	b	bfc0ba54 <main+0xba54>
bfc0ba28:	00000000 	nop
bfc0ba2c:	00000021 	move	zero,zero
bfc0ba30:	00000021 	move	zero,zero
bfc0ba34:	00000021 	move	zero,zero
bfc0ba38:	00000021 	move	zero,zero
bfc0ba3c:	00000021 	move	zero,zero
bfc0ba40:	00000021 	move	zero,zero
bfc0ba44:	00000021 	move	zero,zero
bfc0ba48:	00000021 	move	zero,zero
bfc0ba4c:	3c12dbc2 	lui	s2,0xdbc2
bfc0ba50:	3652dd86 	ori	s2,s2,0xdd86
bfc0ba54:	00000000 	nop
bfc0ba58:	3c1416c2 	lui	s4,0x16c2
bfc0ba5c:	3694c2d2 	ori	s4,s4,0xc2d2
bfc0ba60:	161410e1 	bne	s0,s4,bfc0fde8 <inst_error>
bfc0ba64:	00000000 	nop
bfc0ba68:	3c15dbc2 	lui	s5,0xdbc2
bfc0ba6c:	36b5dd86 	ori	s5,s5,0xdd86
bfc0ba70:	165510dd 	bne	s2,s5,bfc0fde8 <inst_error>
bfc0ba74:	00000000 	nop
bfc0ba78:	3c0ccf9c 	lui	t4,0xcf9c
bfc0ba7c:	358c2af0 	ori	t4,t4,0x2af0
bfc0ba80:	3c0de16b 	lui	t5,0xe16b
bfc0ba84:	35adf6aa 	ori	t5,t5,0xf6aa
bfc0ba88:	24100000 	li	s0,0
bfc0ba8c:	24120000 	li	s2,0
bfc0ba90:	10000015 	b	bfc0bae8 <main+0xbae8>
bfc0ba94:	00000000 	nop
bfc0ba98:	3c10cf9c 	lui	s0,0xcf9c
bfc0ba9c:	36102af0 	ori	s0,s0,0x2af0
bfc0baa0:	15280020 	bne	t1,t0,bfc0bb24 <main+0xbb24>
bfc0baa4:	00000000 	nop
bfc0baa8:	10000020 	b	bfc0bb2c <main+0xbb2c>
bfc0baac:	00000000 	nop
bfc0bab0:	00000021 	move	zero,zero
bfc0bab4:	00000021 	move	zero,zero
bfc0bab8:	00000021 	move	zero,zero
bfc0babc:	00000021 	move	zero,zero
bfc0bac0:	00000021 	move	zero,zero
bfc0bac4:	00000021 	move	zero,zero
bfc0bac8:	00000021 	move	zero,zero
bfc0bacc:	00000021 	move	zero,zero
bfc0bad0:	00000021 	move	zero,zero
bfc0bad4:	00000021 	move	zero,zero
bfc0bad8:	00000021 	move	zero,zero
bfc0badc:	00000021 	move	zero,zero
bfc0bae0:	00000021 	move	zero,zero
bfc0bae4:	00000021 	move	zero,zero
bfc0bae8:	3c08381b 	lui	t0,0x381b
bfc0baec:	35080fc7 	ori	t0,t0,0xfc7
bfc0baf0:	24090000 	li	t1,0
bfc0baf4:	1509ffe8 	bne	t0,t1,bfc0ba98 <main+0xba98>
bfc0baf8:	00000000 	nop
bfc0bafc:	1000000b 	b	bfc0bb2c <main+0xbb2c>
bfc0bb00:	00000000 	nop
bfc0bb04:	00000021 	move	zero,zero
bfc0bb08:	00000021 	move	zero,zero
bfc0bb0c:	00000021 	move	zero,zero
bfc0bb10:	00000021 	move	zero,zero
bfc0bb14:	00000021 	move	zero,zero
bfc0bb18:	00000021 	move	zero,zero
bfc0bb1c:	00000021 	move	zero,zero
bfc0bb20:	00000021 	move	zero,zero
bfc0bb24:	3c12e16b 	lui	s2,0xe16b
bfc0bb28:	3652f6aa 	ori	s2,s2,0xf6aa
bfc0bb2c:	00000000 	nop
bfc0bb30:	3c14cf9c 	lui	s4,0xcf9c
bfc0bb34:	36942af0 	ori	s4,s4,0x2af0
bfc0bb38:	161410ab 	bne	s0,s4,bfc0fde8 <inst_error>
bfc0bb3c:	00000000 	nop
bfc0bb40:	3c15e16b 	lui	s5,0xe16b
bfc0bb44:	36b5f6aa 	ori	s5,s5,0xf6aa
bfc0bb48:	165510a7 	bne	s2,s5,bfc0fde8 <inst_error>
bfc0bb4c:	00000000 	nop
bfc0bb50:	3c0c9ba0 	lui	t4,0x9ba0
bfc0bb54:	358cbeb0 	ori	t4,t4,0xbeb0
bfc0bb58:	3c0d489d 	lui	t5,0x489d
bfc0bb5c:	35ad2488 	ori	t5,t5,0x2488
bfc0bb60:	24100000 	li	s0,0
bfc0bb64:	24120000 	li	s2,0
bfc0bb68:	10000015 	b	bfc0bbc0 <main+0xbbc0>
bfc0bb6c:	00000000 	nop
bfc0bb70:	3c109ba0 	lui	s0,0x9ba0
bfc0bb74:	3610beb0 	ori	s0,s0,0xbeb0
bfc0bb78:	15280020 	bne	t1,t0,bfc0bbfc <main+0xbbfc>
bfc0bb7c:	00000000 	nop
bfc0bb80:	10000020 	b	bfc0bc04 <main+0xbc04>
bfc0bb84:	00000000 	nop
bfc0bb88:	00000021 	move	zero,zero
bfc0bb8c:	00000021 	move	zero,zero
bfc0bb90:	00000021 	move	zero,zero
bfc0bb94:	00000021 	move	zero,zero
bfc0bb98:	00000021 	move	zero,zero
bfc0bb9c:	00000021 	move	zero,zero
bfc0bba0:	00000021 	move	zero,zero
bfc0bba4:	00000021 	move	zero,zero
bfc0bba8:	00000021 	move	zero,zero
bfc0bbac:	00000021 	move	zero,zero
bfc0bbb0:	00000021 	move	zero,zero
bfc0bbb4:	00000021 	move	zero,zero
bfc0bbb8:	00000021 	move	zero,zero
bfc0bbbc:	00000021 	move	zero,zero
bfc0bbc0:	3c08a304 	lui	t0,0xa304
bfc0bbc4:	3508a35c 	ori	t0,t0,0xa35c
bfc0bbc8:	24090000 	li	t1,0
bfc0bbcc:	1509ffe8 	bne	t0,t1,bfc0bb70 <main+0xbb70>
bfc0bbd0:	00000000 	nop
bfc0bbd4:	1000000b 	b	bfc0bc04 <main+0xbc04>
bfc0bbd8:	00000000 	nop
bfc0bbdc:	00000021 	move	zero,zero
bfc0bbe0:	00000021 	move	zero,zero
bfc0bbe4:	00000021 	move	zero,zero
bfc0bbe8:	00000021 	move	zero,zero
bfc0bbec:	00000021 	move	zero,zero
bfc0bbf0:	00000021 	move	zero,zero
bfc0bbf4:	00000021 	move	zero,zero
bfc0bbf8:	00000021 	move	zero,zero
bfc0bbfc:	3c12489d 	lui	s2,0x489d
bfc0bc00:	36522488 	ori	s2,s2,0x2488
bfc0bc04:	00000000 	nop
bfc0bc08:	3c149ba0 	lui	s4,0x9ba0
bfc0bc0c:	3694beb0 	ori	s4,s4,0xbeb0
bfc0bc10:	16141075 	bne	s0,s4,bfc0fde8 <inst_error>
bfc0bc14:	00000000 	nop
bfc0bc18:	3c15489d 	lui	s5,0x489d
bfc0bc1c:	36b52488 	ori	s5,s5,0x2488
bfc0bc20:	16551071 	bne	s2,s5,bfc0fde8 <inst_error>
bfc0bc24:	00000000 	nop
bfc0bc28:	3c0c4398 	lui	t4,0x4398
bfc0bc2c:	358c5248 	ori	t4,t4,0x5248
bfc0bc30:	3c0d2ac1 	lui	t5,0x2ac1
bfc0bc34:	35add2a8 	ori	t5,t5,0xd2a8
bfc0bc38:	24100000 	li	s0,0
bfc0bc3c:	24120000 	li	s2,0
bfc0bc40:	10000015 	b	bfc0bc98 <main+0xbc98>
bfc0bc44:	00000000 	nop
bfc0bc48:	3c104398 	lui	s0,0x4398
bfc0bc4c:	36105248 	ori	s0,s0,0x5248
bfc0bc50:	15280020 	bne	t1,t0,bfc0bcd4 <main+0xbcd4>
bfc0bc54:	00000000 	nop
bfc0bc58:	10000020 	b	bfc0bcdc <main+0xbcdc>
bfc0bc5c:	00000000 	nop
bfc0bc60:	00000021 	move	zero,zero
bfc0bc64:	00000021 	move	zero,zero
bfc0bc68:	00000021 	move	zero,zero
bfc0bc6c:	00000021 	move	zero,zero
bfc0bc70:	00000021 	move	zero,zero
bfc0bc74:	00000021 	move	zero,zero
bfc0bc78:	00000021 	move	zero,zero
bfc0bc7c:	00000021 	move	zero,zero
bfc0bc80:	00000021 	move	zero,zero
bfc0bc84:	00000021 	move	zero,zero
bfc0bc88:	00000021 	move	zero,zero
bfc0bc8c:	00000021 	move	zero,zero
bfc0bc90:	00000021 	move	zero,zero
bfc0bc94:	00000021 	move	zero,zero
bfc0bc98:	3c0889b0 	lui	t0,0x89b0
bfc0bc9c:	35083300 	ori	t0,t0,0x3300
bfc0bca0:	24090000 	li	t1,0
bfc0bca4:	1509ffe8 	bne	t0,t1,bfc0bc48 <main+0xbc48>
bfc0bca8:	00000000 	nop
bfc0bcac:	1000000b 	b	bfc0bcdc <main+0xbcdc>
bfc0bcb0:	00000000 	nop
bfc0bcb4:	00000021 	move	zero,zero
bfc0bcb8:	00000021 	move	zero,zero
bfc0bcbc:	00000021 	move	zero,zero
bfc0bcc0:	00000021 	move	zero,zero
bfc0bcc4:	00000021 	move	zero,zero
bfc0bcc8:	00000021 	move	zero,zero
bfc0bccc:	00000021 	move	zero,zero
bfc0bcd0:	00000021 	move	zero,zero
bfc0bcd4:	3c122ac1 	lui	s2,0x2ac1
bfc0bcd8:	3652d2a8 	ori	s2,s2,0xd2a8
bfc0bcdc:	00000000 	nop
bfc0bce0:	3c144398 	lui	s4,0x4398
bfc0bce4:	36945248 	ori	s4,s4,0x5248
bfc0bce8:	1614103f 	bne	s0,s4,bfc0fde8 <inst_error>
bfc0bcec:	00000000 	nop
bfc0bcf0:	3c152ac1 	lui	s5,0x2ac1
bfc0bcf4:	36b5d2a8 	ori	s5,s5,0xd2a8
bfc0bcf8:	1655103b 	bne	s2,s5,bfc0fde8 <inst_error>
bfc0bcfc:	00000000 	nop
bfc0bd00:	3c0c3044 	lui	t4,0x3044
bfc0bd04:	358c4ec0 	ori	t4,t4,0x4ec0
bfc0bd08:	3c0d0025 	lui	t5,0x25
bfc0bd0c:	35ad34c4 	ori	t5,t5,0x34c4
bfc0bd10:	24100000 	li	s0,0
bfc0bd14:	24120000 	li	s2,0
bfc0bd18:	10000015 	b	bfc0bd70 <main+0xbd70>
bfc0bd1c:	00000000 	nop
bfc0bd20:	3c103044 	lui	s0,0x3044
bfc0bd24:	36104ec0 	ori	s0,s0,0x4ec0
bfc0bd28:	15280020 	bne	t1,t0,bfc0bdac <main+0xbdac>
bfc0bd2c:	00000000 	nop
bfc0bd30:	10000020 	b	bfc0bdb4 <main+0xbdb4>
bfc0bd34:	00000000 	nop
bfc0bd38:	00000021 	move	zero,zero
bfc0bd3c:	00000021 	move	zero,zero
bfc0bd40:	00000021 	move	zero,zero
bfc0bd44:	00000021 	move	zero,zero
bfc0bd48:	00000021 	move	zero,zero
bfc0bd4c:	00000021 	move	zero,zero
bfc0bd50:	00000021 	move	zero,zero
bfc0bd54:	00000021 	move	zero,zero
bfc0bd58:	00000021 	move	zero,zero
bfc0bd5c:	00000021 	move	zero,zero
bfc0bd60:	00000021 	move	zero,zero
bfc0bd64:	00000021 	move	zero,zero
bfc0bd68:	00000021 	move	zero,zero
bfc0bd6c:	00000021 	move	zero,zero
bfc0bd70:	3c08cc4e 	lui	t0,0xcc4e
bfc0bd74:	3508749c 	ori	t0,t0,0x749c
bfc0bd78:	24090000 	li	t1,0
bfc0bd7c:	1509ffe8 	bne	t0,t1,bfc0bd20 <main+0xbd20>
bfc0bd80:	00000000 	nop
bfc0bd84:	1000000b 	b	bfc0bdb4 <main+0xbdb4>
bfc0bd88:	00000000 	nop
bfc0bd8c:	00000021 	move	zero,zero
bfc0bd90:	00000021 	move	zero,zero
bfc0bd94:	00000021 	move	zero,zero
bfc0bd98:	00000021 	move	zero,zero
bfc0bd9c:	00000021 	move	zero,zero
bfc0bda0:	00000021 	move	zero,zero
bfc0bda4:	00000021 	move	zero,zero
bfc0bda8:	00000021 	move	zero,zero
bfc0bdac:	3c120025 	lui	s2,0x25
bfc0bdb0:	365234c4 	ori	s2,s2,0x34c4
bfc0bdb4:	00000000 	nop
bfc0bdb8:	3c143044 	lui	s4,0x3044
bfc0bdbc:	36944ec0 	ori	s4,s4,0x4ec0
bfc0bdc0:	16141009 	bne	s0,s4,bfc0fde8 <inst_error>
bfc0bdc4:	00000000 	nop
bfc0bdc8:	3c150025 	lui	s5,0x25
bfc0bdcc:	36b534c4 	ori	s5,s5,0x34c4
bfc0bdd0:	16551005 	bne	s2,s5,bfc0fde8 <inst_error>
bfc0bdd4:	00000000 	nop
bfc0bdd8:	3c0c2093 	lui	t4,0x2093
bfc0bddc:	358c5758 	ori	t4,t4,0x5758
bfc0bde0:	3c0dbadb 	lui	t5,0xbadb
bfc0bde4:	35addd3c 	ori	t5,t5,0xdd3c
bfc0bde8:	24100000 	li	s0,0
bfc0bdec:	24120000 	li	s2,0
bfc0bdf0:	10000015 	b	bfc0be48 <main+0xbe48>
bfc0bdf4:	00000000 	nop
bfc0bdf8:	3c102093 	lui	s0,0x2093
bfc0bdfc:	36105758 	ori	s0,s0,0x5758
bfc0be00:	15280020 	bne	t1,t0,bfc0be84 <main+0xbe84>
bfc0be04:	00000000 	nop
bfc0be08:	10000020 	b	bfc0be8c <main+0xbe8c>
bfc0be0c:	00000000 	nop
bfc0be10:	00000021 	move	zero,zero
bfc0be14:	00000021 	move	zero,zero
bfc0be18:	00000021 	move	zero,zero
bfc0be1c:	00000021 	move	zero,zero
bfc0be20:	00000021 	move	zero,zero
bfc0be24:	00000021 	move	zero,zero
bfc0be28:	00000021 	move	zero,zero
bfc0be2c:	00000021 	move	zero,zero
bfc0be30:	00000021 	move	zero,zero
bfc0be34:	00000021 	move	zero,zero
bfc0be38:	00000021 	move	zero,zero
bfc0be3c:	00000021 	move	zero,zero
bfc0be40:	00000021 	move	zero,zero
bfc0be44:	00000021 	move	zero,zero
bfc0be48:	3c08bb1a 	lui	t0,0xbb1a
bfc0be4c:	3508fce8 	ori	t0,t0,0xfce8
bfc0be50:	24090000 	li	t1,0
bfc0be54:	1509ffe8 	bne	t0,t1,bfc0bdf8 <main+0xbdf8>
bfc0be58:	00000000 	nop
bfc0be5c:	1000000b 	b	bfc0be8c <main+0xbe8c>
bfc0be60:	00000000 	nop
bfc0be64:	00000021 	move	zero,zero
bfc0be68:	00000021 	move	zero,zero
bfc0be6c:	00000021 	move	zero,zero
bfc0be70:	00000021 	move	zero,zero
bfc0be74:	00000021 	move	zero,zero
bfc0be78:	00000021 	move	zero,zero
bfc0be7c:	00000021 	move	zero,zero
bfc0be80:	00000021 	move	zero,zero
bfc0be84:	3c12badb 	lui	s2,0xbadb
bfc0be88:	3652dd3c 	ori	s2,s2,0xdd3c
bfc0be8c:	00000000 	nop
bfc0be90:	3c142093 	lui	s4,0x2093
bfc0be94:	36945758 	ori	s4,s4,0x5758
bfc0be98:	16140fd3 	bne	s0,s4,bfc0fde8 <inst_error>
bfc0be9c:	00000000 	nop
bfc0bea0:	3c15badb 	lui	s5,0xbadb
bfc0bea4:	36b5dd3c 	ori	s5,s5,0xdd3c
bfc0bea8:	16550fcf 	bne	s2,s5,bfc0fde8 <inst_error>
bfc0beac:	00000000 	nop
bfc0beb0:	3c0c845f 	lui	t4,0x845f
bfc0beb4:	358c6be2 	ori	t4,t4,0x6be2
bfc0beb8:	3c0dbf53 	lui	t5,0xbf53
bfc0bebc:	35ad3b6d 	ori	t5,t5,0x3b6d
bfc0bec0:	24100000 	li	s0,0
bfc0bec4:	24120000 	li	s2,0
bfc0bec8:	10000015 	b	bfc0bf20 <main+0xbf20>
bfc0becc:	00000000 	nop
bfc0bed0:	3c10845f 	lui	s0,0x845f
bfc0bed4:	36106be2 	ori	s0,s0,0x6be2
bfc0bed8:	15280020 	bne	t1,t0,bfc0bf5c <main+0xbf5c>
bfc0bedc:	00000000 	nop
bfc0bee0:	10000020 	b	bfc0bf64 <main+0xbf64>
bfc0bee4:	00000000 	nop
bfc0bee8:	00000021 	move	zero,zero
bfc0beec:	00000021 	move	zero,zero
bfc0bef0:	00000021 	move	zero,zero
bfc0bef4:	00000021 	move	zero,zero
bfc0bef8:	00000021 	move	zero,zero
bfc0befc:	00000021 	move	zero,zero
bfc0bf00:	00000021 	move	zero,zero
bfc0bf04:	00000021 	move	zero,zero
bfc0bf08:	00000021 	move	zero,zero
bfc0bf0c:	00000021 	move	zero,zero
bfc0bf10:	00000021 	move	zero,zero
bfc0bf14:	00000021 	move	zero,zero
bfc0bf18:	00000021 	move	zero,zero
bfc0bf1c:	00000021 	move	zero,zero
bfc0bf20:	3c080af9 	lui	t0,0xaf9
bfc0bf24:	3508f120 	ori	t0,t0,0xf120
bfc0bf28:	24090000 	li	t1,0
bfc0bf2c:	1509ffe8 	bne	t0,t1,bfc0bed0 <main+0xbed0>
bfc0bf30:	00000000 	nop
bfc0bf34:	1000000b 	b	bfc0bf64 <main+0xbf64>
bfc0bf38:	00000000 	nop
bfc0bf3c:	00000021 	move	zero,zero
bfc0bf40:	00000021 	move	zero,zero
bfc0bf44:	00000021 	move	zero,zero
bfc0bf48:	00000021 	move	zero,zero
bfc0bf4c:	00000021 	move	zero,zero
bfc0bf50:	00000021 	move	zero,zero
bfc0bf54:	00000021 	move	zero,zero
bfc0bf58:	00000021 	move	zero,zero
bfc0bf5c:	3c12bf53 	lui	s2,0xbf53
bfc0bf60:	36523b6d 	ori	s2,s2,0x3b6d
bfc0bf64:	00000000 	nop
bfc0bf68:	3c14845f 	lui	s4,0x845f
bfc0bf6c:	36946be2 	ori	s4,s4,0x6be2
bfc0bf70:	16140f9d 	bne	s0,s4,bfc0fde8 <inst_error>
bfc0bf74:	00000000 	nop
bfc0bf78:	3c15bf53 	lui	s5,0xbf53
bfc0bf7c:	36b53b6d 	ori	s5,s5,0x3b6d
bfc0bf80:	16550f99 	bne	s2,s5,bfc0fde8 <inst_error>
bfc0bf84:	00000000 	nop
bfc0bf88:	3c0cf23b 	lui	t4,0xf23b
bfc0bf8c:	358c84c2 	ori	t4,t4,0x84c2
bfc0bf90:	3c0d5d79 	lui	t5,0x5d79
bfc0bf94:	35adb8a0 	ori	t5,t5,0xb8a0
bfc0bf98:	24100000 	li	s0,0
bfc0bf9c:	24120000 	li	s2,0
bfc0bfa0:	10000015 	b	bfc0bff8 <main+0xbff8>
bfc0bfa4:	00000000 	nop
bfc0bfa8:	3c10f23b 	lui	s0,0xf23b
bfc0bfac:	361084c2 	ori	s0,s0,0x84c2
bfc0bfb0:	15280020 	bne	t1,t0,bfc0c034 <main+0xc034>
bfc0bfb4:	00000000 	nop
bfc0bfb8:	10000020 	b	bfc0c03c <main+0xc03c>
bfc0bfbc:	00000000 	nop
bfc0bfc0:	00000021 	move	zero,zero
bfc0bfc4:	00000021 	move	zero,zero
bfc0bfc8:	00000021 	move	zero,zero
bfc0bfcc:	00000021 	move	zero,zero
bfc0bfd0:	00000021 	move	zero,zero
bfc0bfd4:	00000021 	move	zero,zero
bfc0bfd8:	00000021 	move	zero,zero
bfc0bfdc:	00000021 	move	zero,zero
bfc0bfe0:	00000021 	move	zero,zero
bfc0bfe4:	00000021 	move	zero,zero
bfc0bfe8:	00000021 	move	zero,zero
bfc0bfec:	00000021 	move	zero,zero
bfc0bff0:	00000021 	move	zero,zero
bfc0bff4:	00000021 	move	zero,zero
bfc0bff8:	3c083c97 	lui	t0,0x3c97
bfc0bffc:	35087628 	ori	t0,t0,0x7628
bfc0c000:	24090000 	li	t1,0
bfc0c004:	1509ffe8 	bne	t0,t1,bfc0bfa8 <main+0xbfa8>
bfc0c008:	00000000 	nop
bfc0c00c:	1000000b 	b	bfc0c03c <main+0xc03c>
bfc0c010:	00000000 	nop
bfc0c014:	00000021 	move	zero,zero
bfc0c018:	00000021 	move	zero,zero
bfc0c01c:	00000021 	move	zero,zero
bfc0c020:	00000021 	move	zero,zero
bfc0c024:	00000021 	move	zero,zero
bfc0c028:	00000021 	move	zero,zero
bfc0c02c:	00000021 	move	zero,zero
bfc0c030:	00000021 	move	zero,zero
bfc0c034:	3c125d79 	lui	s2,0x5d79
bfc0c038:	3652b8a0 	ori	s2,s2,0xb8a0
bfc0c03c:	00000000 	nop
bfc0c040:	3c14f23b 	lui	s4,0xf23b
bfc0c044:	369484c2 	ori	s4,s4,0x84c2
bfc0c048:	16140f67 	bne	s0,s4,bfc0fde8 <inst_error>
bfc0c04c:	00000000 	nop
bfc0c050:	3c155d79 	lui	s5,0x5d79
bfc0c054:	36b5b8a0 	ori	s5,s5,0xb8a0
bfc0c058:	16550f63 	bne	s2,s5,bfc0fde8 <inst_error>
bfc0c05c:	00000000 	nop
bfc0c060:	3c0c4729 	lui	t4,0x4729
bfc0c064:	358c0560 	ori	t4,t4,0x560
bfc0c068:	3c0d9858 	lui	t5,0x9858
bfc0c06c:	35ada8c0 	ori	t5,t5,0xa8c0
bfc0c070:	24100000 	li	s0,0
bfc0c074:	24120000 	li	s2,0
bfc0c078:	10000015 	b	bfc0c0d0 <main+0xc0d0>
bfc0c07c:	00000000 	nop
bfc0c080:	3c104729 	lui	s0,0x4729
bfc0c084:	36100560 	ori	s0,s0,0x560
bfc0c088:	15280020 	bne	t1,t0,bfc0c10c <main+0xc10c>
bfc0c08c:	00000000 	nop
bfc0c090:	10000020 	b	bfc0c114 <main+0xc114>
bfc0c094:	00000000 	nop
bfc0c098:	00000021 	move	zero,zero
bfc0c09c:	00000021 	move	zero,zero
bfc0c0a0:	00000021 	move	zero,zero
bfc0c0a4:	00000021 	move	zero,zero
bfc0c0a8:	00000021 	move	zero,zero
bfc0c0ac:	00000021 	move	zero,zero
bfc0c0b0:	00000021 	move	zero,zero
bfc0c0b4:	00000021 	move	zero,zero
bfc0c0b8:	00000021 	move	zero,zero
bfc0c0bc:	00000021 	move	zero,zero
bfc0c0c0:	00000021 	move	zero,zero
bfc0c0c4:	00000021 	move	zero,zero
bfc0c0c8:	00000021 	move	zero,zero
bfc0c0cc:	00000021 	move	zero,zero
bfc0c0d0:	3c08fd6e 	lui	t0,0xfd6e
bfc0c0d4:	35087b90 	ori	t0,t0,0x7b90
bfc0c0d8:	24090000 	li	t1,0
bfc0c0dc:	1509ffe8 	bne	t0,t1,bfc0c080 <main+0xc080>
bfc0c0e0:	00000000 	nop
bfc0c0e4:	1000000b 	b	bfc0c114 <main+0xc114>
bfc0c0e8:	00000000 	nop
bfc0c0ec:	00000021 	move	zero,zero
bfc0c0f0:	00000021 	move	zero,zero
bfc0c0f4:	00000021 	move	zero,zero
bfc0c0f8:	00000021 	move	zero,zero
bfc0c0fc:	00000021 	move	zero,zero
bfc0c100:	00000021 	move	zero,zero
bfc0c104:	00000021 	move	zero,zero
bfc0c108:	00000021 	move	zero,zero
bfc0c10c:	3c129858 	lui	s2,0x9858
bfc0c110:	3652a8c0 	ori	s2,s2,0xa8c0
bfc0c114:	00000000 	nop
bfc0c118:	3c144729 	lui	s4,0x4729
bfc0c11c:	36940560 	ori	s4,s4,0x560
bfc0c120:	16140f31 	bne	s0,s4,bfc0fde8 <inst_error>
bfc0c124:	00000000 	nop
bfc0c128:	3c159858 	lui	s5,0x9858
bfc0c12c:	36b5a8c0 	ori	s5,s5,0xa8c0
bfc0c130:	16550f2d 	bne	s2,s5,bfc0fde8 <inst_error>
bfc0c134:	00000000 	nop
bfc0c138:	3c0cb090 	lui	t4,0xb090
bfc0c13c:	358cf1c2 	ori	t4,t4,0xf1c2
bfc0c140:	3c0dd924 	lui	t5,0xd924
bfc0c144:	35ad3f16 	ori	t5,t5,0x3f16
bfc0c148:	24100000 	li	s0,0
bfc0c14c:	24120000 	li	s2,0
bfc0c150:	10000015 	b	bfc0c1a8 <main+0xc1a8>
bfc0c154:	00000000 	nop
bfc0c158:	3c10b090 	lui	s0,0xb090
bfc0c15c:	3610f1c2 	ori	s0,s0,0xf1c2
bfc0c160:	15280020 	bne	t1,t0,bfc0c1e4 <main+0xc1e4>
bfc0c164:	00000000 	nop
bfc0c168:	10000020 	b	bfc0c1ec <main+0xc1ec>
bfc0c16c:	00000000 	nop
bfc0c170:	00000021 	move	zero,zero
bfc0c174:	00000021 	move	zero,zero
bfc0c178:	00000021 	move	zero,zero
bfc0c17c:	00000021 	move	zero,zero
bfc0c180:	00000021 	move	zero,zero
bfc0c184:	00000021 	move	zero,zero
bfc0c188:	00000021 	move	zero,zero
bfc0c18c:	00000021 	move	zero,zero
bfc0c190:	00000021 	move	zero,zero
bfc0c194:	00000021 	move	zero,zero
bfc0c198:	00000021 	move	zero,zero
bfc0c19c:	00000021 	move	zero,zero
bfc0c1a0:	00000021 	move	zero,zero
bfc0c1a4:	00000021 	move	zero,zero
bfc0c1a8:	3c080a5c 	lui	t0,0xa5c
bfc0c1ac:	3508f8a4 	ori	t0,t0,0xf8a4
bfc0c1b0:	24090000 	li	t1,0
bfc0c1b4:	1509ffe8 	bne	t0,t1,bfc0c158 <main+0xc158>
bfc0c1b8:	00000000 	nop
bfc0c1bc:	1000000b 	b	bfc0c1ec <main+0xc1ec>
bfc0c1c0:	00000000 	nop
bfc0c1c4:	00000021 	move	zero,zero
bfc0c1c8:	00000021 	move	zero,zero
bfc0c1cc:	00000021 	move	zero,zero
bfc0c1d0:	00000021 	move	zero,zero
bfc0c1d4:	00000021 	move	zero,zero
bfc0c1d8:	00000021 	move	zero,zero
bfc0c1dc:	00000021 	move	zero,zero
bfc0c1e0:	00000021 	move	zero,zero
bfc0c1e4:	3c12d924 	lui	s2,0xd924
bfc0c1e8:	36523f16 	ori	s2,s2,0x3f16
bfc0c1ec:	00000000 	nop
bfc0c1f0:	3c14b090 	lui	s4,0xb090
bfc0c1f4:	3694f1c2 	ori	s4,s4,0xf1c2
bfc0c1f8:	16140efb 	bne	s0,s4,bfc0fde8 <inst_error>
bfc0c1fc:	00000000 	nop
bfc0c200:	3c15d924 	lui	s5,0xd924
bfc0c204:	36b53f16 	ori	s5,s5,0x3f16
bfc0c208:	16550ef7 	bne	s2,s5,bfc0fde8 <inst_error>
bfc0c20c:	00000000 	nop
bfc0c210:	3c0cd257 	lui	t4,0xd257
bfc0c214:	358c1570 	ori	t4,t4,0x1570
bfc0c218:	3c0dde69 	lui	t5,0xde69
bfc0c21c:	35ad657e 	ori	t5,t5,0x657e
bfc0c220:	24100000 	li	s0,0
bfc0c224:	24120000 	li	s2,0
bfc0c228:	10000015 	b	bfc0c280 <main+0xc280>
bfc0c22c:	00000000 	nop
bfc0c230:	3c10d257 	lui	s0,0xd257
bfc0c234:	36101570 	ori	s0,s0,0x1570
bfc0c238:	15280020 	bne	t1,t0,bfc0c2bc <main+0xc2bc>
bfc0c23c:	00000000 	nop
bfc0c240:	10000020 	b	bfc0c2c4 <main+0xc2c4>
bfc0c244:	00000000 	nop
bfc0c248:	00000021 	move	zero,zero
bfc0c24c:	00000021 	move	zero,zero
bfc0c250:	00000021 	move	zero,zero
bfc0c254:	00000021 	move	zero,zero
bfc0c258:	00000021 	move	zero,zero
bfc0c25c:	00000021 	move	zero,zero
bfc0c260:	00000021 	move	zero,zero
bfc0c264:	00000021 	move	zero,zero
bfc0c268:	00000021 	move	zero,zero
bfc0c26c:	00000021 	move	zero,zero
bfc0c270:	00000021 	move	zero,zero
bfc0c274:	00000021 	move	zero,zero
bfc0c278:	00000021 	move	zero,zero
bfc0c27c:	00000021 	move	zero,zero
bfc0c280:	3c08c02c 	lui	t0,0xc02c
bfc0c284:	35089c40 	ori	t0,t0,0x9c40
bfc0c288:	24090000 	li	t1,0
bfc0c28c:	1509ffe8 	bne	t0,t1,bfc0c230 <main+0xc230>
bfc0c290:	00000000 	nop
bfc0c294:	1000000b 	b	bfc0c2c4 <main+0xc2c4>
bfc0c298:	00000000 	nop
bfc0c29c:	00000021 	move	zero,zero
bfc0c2a0:	00000021 	move	zero,zero
bfc0c2a4:	00000021 	move	zero,zero
bfc0c2a8:	00000021 	move	zero,zero
bfc0c2ac:	00000021 	move	zero,zero
bfc0c2b0:	00000021 	move	zero,zero
bfc0c2b4:	00000021 	move	zero,zero
bfc0c2b8:	00000021 	move	zero,zero
bfc0c2bc:	3c12de69 	lui	s2,0xde69
bfc0c2c0:	3652657e 	ori	s2,s2,0x657e
bfc0c2c4:	00000000 	nop
bfc0c2c8:	3c14d257 	lui	s4,0xd257
bfc0c2cc:	36941570 	ori	s4,s4,0x1570
bfc0c2d0:	16140ec5 	bne	s0,s4,bfc0fde8 <inst_error>
bfc0c2d4:	00000000 	nop
bfc0c2d8:	3c15de69 	lui	s5,0xde69
bfc0c2dc:	36b5657e 	ori	s5,s5,0x657e
bfc0c2e0:	16550ec1 	bne	s2,s5,bfc0fde8 <inst_error>
bfc0c2e4:	00000000 	nop
bfc0c2e8:	3c0caf43 	lui	t4,0xaf43
bfc0c2ec:	358c22b0 	ori	t4,t4,0x22b0
bfc0c2f0:	3c0d5e1a 	lui	t5,0x5e1a
bfc0c2f4:	35ad0d5e 	ori	t5,t5,0xd5e
bfc0c2f8:	24100000 	li	s0,0
bfc0c2fc:	24120000 	li	s2,0
bfc0c300:	10000015 	b	bfc0c358 <main+0xc358>
bfc0c304:	00000000 	nop
bfc0c308:	3c10af43 	lui	s0,0xaf43
bfc0c30c:	361022b0 	ori	s0,s0,0x22b0
bfc0c310:	15280020 	bne	t1,t0,bfc0c394 <main+0xc394>
bfc0c314:	00000000 	nop
bfc0c318:	10000020 	b	bfc0c39c <main+0xc39c>
bfc0c31c:	00000000 	nop
bfc0c320:	00000021 	move	zero,zero
bfc0c324:	00000021 	move	zero,zero
bfc0c328:	00000021 	move	zero,zero
bfc0c32c:	00000021 	move	zero,zero
bfc0c330:	00000021 	move	zero,zero
bfc0c334:	00000021 	move	zero,zero
bfc0c338:	00000021 	move	zero,zero
bfc0c33c:	00000021 	move	zero,zero
bfc0c340:	00000021 	move	zero,zero
bfc0c344:	00000021 	move	zero,zero
bfc0c348:	00000021 	move	zero,zero
bfc0c34c:	00000021 	move	zero,zero
bfc0c350:	00000021 	move	zero,zero
bfc0c354:	00000021 	move	zero,zero
bfc0c358:	3c08d8ff 	lui	t0,0xd8ff
bfc0c35c:	350871e8 	ori	t0,t0,0x71e8
bfc0c360:	24090000 	li	t1,0
bfc0c364:	1509ffe8 	bne	t0,t1,bfc0c308 <main+0xc308>
bfc0c368:	00000000 	nop
bfc0c36c:	1000000b 	b	bfc0c39c <main+0xc39c>
bfc0c370:	00000000 	nop
bfc0c374:	00000021 	move	zero,zero
bfc0c378:	00000021 	move	zero,zero
bfc0c37c:	00000021 	move	zero,zero
bfc0c380:	00000021 	move	zero,zero
bfc0c384:	00000021 	move	zero,zero
bfc0c388:	00000021 	move	zero,zero
bfc0c38c:	00000021 	move	zero,zero
bfc0c390:	00000021 	move	zero,zero
bfc0c394:	3c125e1a 	lui	s2,0x5e1a
bfc0c398:	36520d5e 	ori	s2,s2,0xd5e
bfc0c39c:	00000000 	nop
bfc0c3a0:	3c14af43 	lui	s4,0xaf43
bfc0c3a4:	369422b0 	ori	s4,s4,0x22b0
bfc0c3a8:	16140e8f 	bne	s0,s4,bfc0fde8 <inst_error>
bfc0c3ac:	00000000 	nop
bfc0c3b0:	3c155e1a 	lui	s5,0x5e1a
bfc0c3b4:	36b50d5e 	ori	s5,s5,0xd5e
bfc0c3b8:	16550e8b 	bne	s2,s5,bfc0fde8 <inst_error>
bfc0c3bc:	00000000 	nop
bfc0c3c0:	3c0cecab 	lui	t4,0xecab
bfc0c3c4:	358c9b60 	ori	t4,t4,0x9b60
bfc0c3c8:	3c0d152b 	lui	t5,0x152b
bfc0c3cc:	35adde74 	ori	t5,t5,0xde74
bfc0c3d0:	24100000 	li	s0,0
bfc0c3d4:	24120000 	li	s2,0
bfc0c3d8:	10000015 	b	bfc0c430 <main+0xc430>
bfc0c3dc:	00000000 	nop
bfc0c3e0:	3c10ecab 	lui	s0,0xecab
bfc0c3e4:	36109b60 	ori	s0,s0,0x9b60
bfc0c3e8:	15280020 	bne	t1,t0,bfc0c46c <main+0xc46c>
bfc0c3ec:	00000000 	nop
bfc0c3f0:	10000020 	b	bfc0c474 <main+0xc474>
bfc0c3f4:	00000000 	nop
bfc0c3f8:	00000021 	move	zero,zero
bfc0c3fc:	00000021 	move	zero,zero
bfc0c400:	00000021 	move	zero,zero
bfc0c404:	00000021 	move	zero,zero
bfc0c408:	00000021 	move	zero,zero
bfc0c40c:	00000021 	move	zero,zero
bfc0c410:	00000021 	move	zero,zero
bfc0c414:	00000021 	move	zero,zero
bfc0c418:	00000021 	move	zero,zero
bfc0c41c:	00000021 	move	zero,zero
bfc0c420:	00000021 	move	zero,zero
bfc0c424:	00000021 	move	zero,zero
bfc0c428:	00000021 	move	zero,zero
bfc0c42c:	00000021 	move	zero,zero
bfc0c430:	3c08671f 	lui	t0,0x671f
bfc0c434:	3508d946 	ori	t0,t0,0xd946
bfc0c438:	24090000 	li	t1,0
bfc0c43c:	1509ffe8 	bne	t0,t1,bfc0c3e0 <main+0xc3e0>
bfc0c440:	00000000 	nop
bfc0c444:	1000000b 	b	bfc0c474 <main+0xc474>
bfc0c448:	00000000 	nop
bfc0c44c:	00000021 	move	zero,zero
bfc0c450:	00000021 	move	zero,zero
bfc0c454:	00000021 	move	zero,zero
bfc0c458:	00000021 	move	zero,zero
bfc0c45c:	00000021 	move	zero,zero
bfc0c460:	00000021 	move	zero,zero
bfc0c464:	00000021 	move	zero,zero
bfc0c468:	00000021 	move	zero,zero
bfc0c46c:	3c12152b 	lui	s2,0x152b
bfc0c470:	3652de74 	ori	s2,s2,0xde74
bfc0c474:	00000000 	nop
bfc0c478:	3c14ecab 	lui	s4,0xecab
bfc0c47c:	36949b60 	ori	s4,s4,0x9b60
bfc0c480:	16140e59 	bne	s0,s4,bfc0fde8 <inst_error>
bfc0c484:	00000000 	nop
bfc0c488:	3c15152b 	lui	s5,0x152b
bfc0c48c:	36b5de74 	ori	s5,s5,0xde74
bfc0c490:	16550e55 	bne	s2,s5,bfc0fde8 <inst_error>
bfc0c494:	00000000 	nop
bfc0c498:	3c0c426b 	lui	t4,0x426b
bfc0c49c:	358c0338 	ori	t4,t4,0x338
bfc0c4a0:	3c0dd067 	lui	t5,0xd067
bfc0c4a4:	35adbe5d 	ori	t5,t5,0xbe5d
bfc0c4a8:	24100000 	li	s0,0
bfc0c4ac:	24120000 	li	s2,0
bfc0c4b0:	10000015 	b	bfc0c508 <main+0xc508>
bfc0c4b4:	00000000 	nop
bfc0c4b8:	3c10426b 	lui	s0,0x426b
bfc0c4bc:	36100338 	ori	s0,s0,0x338
bfc0c4c0:	15280020 	bne	t1,t0,bfc0c544 <main+0xc544>
bfc0c4c4:	00000000 	nop
bfc0c4c8:	10000020 	b	bfc0c54c <main+0xc54c>
bfc0c4cc:	00000000 	nop
bfc0c4d0:	00000021 	move	zero,zero
bfc0c4d4:	00000021 	move	zero,zero
bfc0c4d8:	00000021 	move	zero,zero
bfc0c4dc:	00000021 	move	zero,zero
bfc0c4e0:	00000021 	move	zero,zero
bfc0c4e4:	00000021 	move	zero,zero
bfc0c4e8:	00000021 	move	zero,zero
bfc0c4ec:	00000021 	move	zero,zero
bfc0c4f0:	00000021 	move	zero,zero
bfc0c4f4:	00000021 	move	zero,zero
bfc0c4f8:	00000021 	move	zero,zero
bfc0c4fc:	00000021 	move	zero,zero
bfc0c500:	00000021 	move	zero,zero
bfc0c504:	00000021 	move	zero,zero
bfc0c508:	3c08d8e5 	lui	t0,0xd8e5
bfc0c50c:	3508c300 	ori	t0,t0,0xc300
bfc0c510:	24090000 	li	t1,0
bfc0c514:	1509ffe8 	bne	t0,t1,bfc0c4b8 <main+0xc4b8>
bfc0c518:	00000000 	nop
bfc0c51c:	1000000b 	b	bfc0c54c <main+0xc54c>
bfc0c520:	00000000 	nop
bfc0c524:	00000021 	move	zero,zero
bfc0c528:	00000021 	move	zero,zero
bfc0c52c:	00000021 	move	zero,zero
bfc0c530:	00000021 	move	zero,zero
bfc0c534:	00000021 	move	zero,zero
bfc0c538:	00000021 	move	zero,zero
bfc0c53c:	00000021 	move	zero,zero
bfc0c540:	00000021 	move	zero,zero
bfc0c544:	3c12d067 	lui	s2,0xd067
bfc0c548:	3652be5d 	ori	s2,s2,0xbe5d
bfc0c54c:	00000000 	nop
bfc0c550:	3c14426b 	lui	s4,0x426b
bfc0c554:	36940338 	ori	s4,s4,0x338
bfc0c558:	16140e23 	bne	s0,s4,bfc0fde8 <inst_error>
bfc0c55c:	00000000 	nop
bfc0c560:	3c15d067 	lui	s5,0xd067
bfc0c564:	36b5be5d 	ori	s5,s5,0xbe5d
bfc0c568:	16550e1f 	bne	s2,s5,bfc0fde8 <inst_error>
bfc0c56c:	00000000 	nop
bfc0c570:	3c0c0b0f 	lui	t4,0xb0f
bfc0c574:	358cb6fa 	ori	t4,t4,0xb6fa
bfc0c578:	3c0da88c 	lui	t5,0xa88c
bfc0c57c:	35ada280 	ori	t5,t5,0xa280
bfc0c580:	24100000 	li	s0,0
bfc0c584:	24120000 	li	s2,0
bfc0c588:	10000015 	b	bfc0c5e0 <main+0xc5e0>
bfc0c58c:	00000000 	nop
bfc0c590:	3c100b0f 	lui	s0,0xb0f
bfc0c594:	3610b6fa 	ori	s0,s0,0xb6fa
bfc0c598:	15280020 	bne	t1,t0,bfc0c61c <main+0xc61c>
bfc0c59c:	00000000 	nop
bfc0c5a0:	10000020 	b	bfc0c624 <main+0xc624>
bfc0c5a4:	00000000 	nop
bfc0c5a8:	00000021 	move	zero,zero
bfc0c5ac:	00000021 	move	zero,zero
bfc0c5b0:	00000021 	move	zero,zero
bfc0c5b4:	00000021 	move	zero,zero
bfc0c5b8:	00000021 	move	zero,zero
bfc0c5bc:	00000021 	move	zero,zero
bfc0c5c0:	00000021 	move	zero,zero
bfc0c5c4:	00000021 	move	zero,zero
bfc0c5c8:	00000021 	move	zero,zero
bfc0c5cc:	00000021 	move	zero,zero
bfc0c5d0:	00000021 	move	zero,zero
bfc0c5d4:	00000021 	move	zero,zero
bfc0c5d8:	00000021 	move	zero,zero
bfc0c5dc:	00000021 	move	zero,zero
bfc0c5e0:	3c08e59f 	lui	t0,0xe59f
bfc0c5e4:	3508c674 	ori	t0,t0,0xc674
bfc0c5e8:	24090000 	li	t1,0
bfc0c5ec:	1509ffe8 	bne	t0,t1,bfc0c590 <main+0xc590>
bfc0c5f0:	00000000 	nop
bfc0c5f4:	1000000b 	b	bfc0c624 <main+0xc624>
bfc0c5f8:	00000000 	nop
bfc0c5fc:	00000021 	move	zero,zero
bfc0c600:	00000021 	move	zero,zero
bfc0c604:	00000021 	move	zero,zero
bfc0c608:	00000021 	move	zero,zero
bfc0c60c:	00000021 	move	zero,zero
bfc0c610:	00000021 	move	zero,zero
bfc0c614:	00000021 	move	zero,zero
bfc0c618:	00000021 	move	zero,zero
bfc0c61c:	3c12a88c 	lui	s2,0xa88c
bfc0c620:	3652a280 	ori	s2,s2,0xa280
bfc0c624:	00000000 	nop
bfc0c628:	3c140b0f 	lui	s4,0xb0f
bfc0c62c:	3694b6fa 	ori	s4,s4,0xb6fa
bfc0c630:	16140ded 	bne	s0,s4,bfc0fde8 <inst_error>
bfc0c634:	00000000 	nop
bfc0c638:	3c15a88c 	lui	s5,0xa88c
bfc0c63c:	36b5a280 	ori	s5,s5,0xa280
bfc0c640:	16550de9 	bne	s2,s5,bfc0fde8 <inst_error>
bfc0c644:	00000000 	nop
bfc0c648:	3c0c3331 	lui	t4,0x3331
bfc0c64c:	358c0338 	ori	t4,t4,0x338
bfc0c650:	3c0dd0c8 	lui	t5,0xd0c8
bfc0c654:	35ad3580 	ori	t5,t5,0x3580
bfc0c658:	24100000 	li	s0,0
bfc0c65c:	24120000 	li	s2,0
bfc0c660:	10000015 	b	bfc0c6b8 <main+0xc6b8>
bfc0c664:	00000000 	nop
bfc0c668:	3c103331 	lui	s0,0x3331
bfc0c66c:	36100338 	ori	s0,s0,0x338
bfc0c670:	15280020 	bne	t1,t0,bfc0c6f4 <main+0xc6f4>
bfc0c674:	00000000 	nop
bfc0c678:	10000020 	b	bfc0c6fc <main+0xc6fc>
bfc0c67c:	00000000 	nop
bfc0c680:	00000021 	move	zero,zero
bfc0c684:	00000021 	move	zero,zero
bfc0c688:	00000021 	move	zero,zero
bfc0c68c:	00000021 	move	zero,zero
bfc0c690:	00000021 	move	zero,zero
bfc0c694:	00000021 	move	zero,zero
bfc0c698:	00000021 	move	zero,zero
bfc0c69c:	00000021 	move	zero,zero
bfc0c6a0:	00000021 	move	zero,zero
bfc0c6a4:	00000021 	move	zero,zero
bfc0c6a8:	00000021 	move	zero,zero
bfc0c6ac:	00000021 	move	zero,zero
bfc0c6b0:	00000021 	move	zero,zero
bfc0c6b4:	00000021 	move	zero,zero
bfc0c6b8:	3c08ad87 	lui	t0,0xad87
bfc0c6bc:	35089fc7 	ori	t0,t0,0x9fc7
bfc0c6c0:	24090000 	li	t1,0
bfc0c6c4:	1509ffe8 	bne	t0,t1,bfc0c668 <main+0xc668>
bfc0c6c8:	00000000 	nop
bfc0c6cc:	1000000b 	b	bfc0c6fc <main+0xc6fc>
bfc0c6d0:	00000000 	nop
bfc0c6d4:	00000021 	move	zero,zero
bfc0c6d8:	00000021 	move	zero,zero
bfc0c6dc:	00000021 	move	zero,zero
bfc0c6e0:	00000021 	move	zero,zero
bfc0c6e4:	00000021 	move	zero,zero
bfc0c6e8:	00000021 	move	zero,zero
bfc0c6ec:	00000021 	move	zero,zero
bfc0c6f0:	00000021 	move	zero,zero
bfc0c6f4:	3c12d0c8 	lui	s2,0xd0c8
bfc0c6f8:	36523580 	ori	s2,s2,0x3580
bfc0c6fc:	00000000 	nop
bfc0c700:	3c143331 	lui	s4,0x3331
bfc0c704:	36940338 	ori	s4,s4,0x338
bfc0c708:	16140db7 	bne	s0,s4,bfc0fde8 <inst_error>
bfc0c70c:	00000000 	nop
bfc0c710:	3c15d0c8 	lui	s5,0xd0c8
bfc0c714:	36b53580 	ori	s5,s5,0x3580
bfc0c718:	16550db3 	bne	s2,s5,bfc0fde8 <inst_error>
bfc0c71c:	00000000 	nop
bfc0c720:	3c0cb7c9 	lui	t4,0xb7c9
bfc0c724:	358c4b51 	ori	t4,t4,0x4b51
bfc0c728:	3c0d2486 	lui	t5,0x2486
bfc0c72c:	35ad6f90 	ori	t5,t5,0x6f90
bfc0c730:	24100000 	li	s0,0
bfc0c734:	24120000 	li	s2,0
bfc0c738:	10000015 	b	bfc0c790 <main+0xc790>
bfc0c73c:	00000000 	nop
bfc0c740:	3c10b7c9 	lui	s0,0xb7c9
bfc0c744:	36104b51 	ori	s0,s0,0x4b51
bfc0c748:	15280020 	bne	t1,t0,bfc0c7cc <main+0xc7cc>
bfc0c74c:	00000000 	nop
bfc0c750:	10000020 	b	bfc0c7d4 <main+0xc7d4>
bfc0c754:	00000000 	nop
bfc0c758:	00000021 	move	zero,zero
bfc0c75c:	00000021 	move	zero,zero
bfc0c760:	00000021 	move	zero,zero
bfc0c764:	00000021 	move	zero,zero
bfc0c768:	00000021 	move	zero,zero
bfc0c76c:	00000021 	move	zero,zero
bfc0c770:	00000021 	move	zero,zero
bfc0c774:	00000021 	move	zero,zero
bfc0c778:	00000021 	move	zero,zero
bfc0c77c:	00000021 	move	zero,zero
bfc0c780:	00000021 	move	zero,zero
bfc0c784:	00000021 	move	zero,zero
bfc0c788:	00000021 	move	zero,zero
bfc0c78c:	00000021 	move	zero,zero
bfc0c790:	3c08d8b6 	lui	t0,0xd8b6
bfc0c794:	35089bf4 	ori	t0,t0,0x9bf4
bfc0c798:	24090000 	li	t1,0
bfc0c79c:	1509ffe8 	bne	t0,t1,bfc0c740 <main+0xc740>
bfc0c7a0:	00000000 	nop
bfc0c7a4:	1000000b 	b	bfc0c7d4 <main+0xc7d4>
bfc0c7a8:	00000000 	nop
bfc0c7ac:	00000021 	move	zero,zero
bfc0c7b0:	00000021 	move	zero,zero
bfc0c7b4:	00000021 	move	zero,zero
bfc0c7b8:	00000021 	move	zero,zero
bfc0c7bc:	00000021 	move	zero,zero
bfc0c7c0:	00000021 	move	zero,zero
bfc0c7c4:	00000021 	move	zero,zero
bfc0c7c8:	00000021 	move	zero,zero
bfc0c7cc:	3c122486 	lui	s2,0x2486
bfc0c7d0:	36526f90 	ori	s2,s2,0x6f90
bfc0c7d4:	00000000 	nop
bfc0c7d8:	3c14b7c9 	lui	s4,0xb7c9
bfc0c7dc:	36944b51 	ori	s4,s4,0x4b51
bfc0c7e0:	16140d81 	bne	s0,s4,bfc0fde8 <inst_error>
bfc0c7e4:	00000000 	nop
bfc0c7e8:	3c152486 	lui	s5,0x2486
bfc0c7ec:	36b56f90 	ori	s5,s5,0x6f90
bfc0c7f0:	16550d7d 	bne	s2,s5,bfc0fde8 <inst_error>
bfc0c7f4:	00000000 	nop
bfc0c7f8:	3c0cbf0e 	lui	t4,0xbf0e
bfc0c7fc:	358cedc4 	ori	t4,t4,0xedc4
bfc0c800:	3c0d7d46 	lui	t5,0x7d46
bfc0c804:	35ad3846 	ori	t5,t5,0x3846
bfc0c808:	24100000 	li	s0,0
bfc0c80c:	24120000 	li	s2,0
bfc0c810:	10000015 	b	bfc0c868 <main+0xc868>
bfc0c814:	00000000 	nop
bfc0c818:	3c10bf0e 	lui	s0,0xbf0e
bfc0c81c:	3610edc4 	ori	s0,s0,0xedc4
bfc0c820:	15280020 	bne	t1,t0,bfc0c8a4 <main+0xc8a4>
bfc0c824:	00000000 	nop
bfc0c828:	10000020 	b	bfc0c8ac <main+0xc8ac>
bfc0c82c:	00000000 	nop
bfc0c830:	00000021 	move	zero,zero
bfc0c834:	00000021 	move	zero,zero
bfc0c838:	00000021 	move	zero,zero
bfc0c83c:	00000021 	move	zero,zero
bfc0c840:	00000021 	move	zero,zero
bfc0c844:	00000021 	move	zero,zero
bfc0c848:	00000021 	move	zero,zero
bfc0c84c:	00000021 	move	zero,zero
bfc0c850:	00000021 	move	zero,zero
bfc0c854:	00000021 	move	zero,zero
bfc0c858:	00000021 	move	zero,zero
bfc0c85c:	00000021 	move	zero,zero
bfc0c860:	00000021 	move	zero,zero
bfc0c864:	00000021 	move	zero,zero
bfc0c868:	3c080b65 	lui	t0,0xb65
bfc0c86c:	350873f2 	ori	t0,t0,0x73f2
bfc0c870:	24090000 	li	t1,0
bfc0c874:	1509ffe8 	bne	t0,t1,bfc0c818 <main+0xc818>
bfc0c878:	00000000 	nop
bfc0c87c:	1000000b 	b	bfc0c8ac <main+0xc8ac>
bfc0c880:	00000000 	nop
bfc0c884:	00000021 	move	zero,zero
bfc0c888:	00000021 	move	zero,zero
bfc0c88c:	00000021 	move	zero,zero
bfc0c890:	00000021 	move	zero,zero
bfc0c894:	00000021 	move	zero,zero
bfc0c898:	00000021 	move	zero,zero
bfc0c89c:	00000021 	move	zero,zero
bfc0c8a0:	00000021 	move	zero,zero
bfc0c8a4:	3c127d46 	lui	s2,0x7d46
bfc0c8a8:	36523846 	ori	s2,s2,0x3846
bfc0c8ac:	00000000 	nop
bfc0c8b0:	3c14bf0e 	lui	s4,0xbf0e
bfc0c8b4:	3694edc4 	ori	s4,s4,0xedc4
bfc0c8b8:	16140d4b 	bne	s0,s4,bfc0fde8 <inst_error>
bfc0c8bc:	00000000 	nop
bfc0c8c0:	3c157d46 	lui	s5,0x7d46
bfc0c8c4:	36b53846 	ori	s5,s5,0x3846
bfc0c8c8:	16550d47 	bne	s2,s5,bfc0fde8 <inst_error>
bfc0c8cc:	00000000 	nop
bfc0c8d0:	3c0c7531 	lui	t4,0x7531
bfc0c8d4:	358c0c70 	ori	t4,t4,0xc70
bfc0c8d8:	3c0de977 	lui	t5,0xe977
bfc0c8dc:	35aded44 	ori	t5,t5,0xed44
bfc0c8e0:	24100000 	li	s0,0
bfc0c8e4:	24120000 	li	s2,0
bfc0c8e8:	10000015 	b	bfc0c940 <main+0xc940>
bfc0c8ec:	00000000 	nop
bfc0c8f0:	3c107531 	lui	s0,0x7531
bfc0c8f4:	36100c70 	ori	s0,s0,0xc70
bfc0c8f8:	1528001f 	bne	t1,t0,bfc0c978 <main+0xc978>
bfc0c8fc:	00000000 	nop
bfc0c900:	1000001f 	b	bfc0c980 <main+0xc980>
bfc0c904:	00000000 	nop
bfc0c908:	00000021 	move	zero,zero
bfc0c90c:	00000021 	move	zero,zero
bfc0c910:	00000021 	move	zero,zero
bfc0c914:	00000021 	move	zero,zero
bfc0c918:	00000021 	move	zero,zero
bfc0c91c:	00000021 	move	zero,zero
bfc0c920:	00000021 	move	zero,zero
bfc0c924:	00000021 	move	zero,zero
bfc0c928:	00000021 	move	zero,zero
bfc0c92c:	00000021 	move	zero,zero
bfc0c930:	00000021 	move	zero,zero
bfc0c934:	00000021 	move	zero,zero
bfc0c938:	00000021 	move	zero,zero
bfc0c93c:	00000021 	move	zero,zero
bfc0c940:	3c08b9f3 	lui	t0,0xb9f3
bfc0c944:	24090000 	li	t1,0
bfc0c948:	1509ffe9 	bne	t0,t1,bfc0c8f0 <main+0xc8f0>
bfc0c94c:	00000000 	nop
bfc0c950:	1000000b 	b	bfc0c980 <main+0xc980>
bfc0c954:	00000000 	nop
bfc0c958:	00000021 	move	zero,zero
bfc0c95c:	00000021 	move	zero,zero
bfc0c960:	00000021 	move	zero,zero
bfc0c964:	00000021 	move	zero,zero
bfc0c968:	00000021 	move	zero,zero
bfc0c96c:	00000021 	move	zero,zero
bfc0c970:	00000021 	move	zero,zero
bfc0c974:	00000021 	move	zero,zero
bfc0c978:	3c12e977 	lui	s2,0xe977
bfc0c97c:	3652ed44 	ori	s2,s2,0xed44
bfc0c980:	00000000 	nop
bfc0c984:	3c147531 	lui	s4,0x7531
bfc0c988:	36940c70 	ori	s4,s4,0xc70
bfc0c98c:	16140d16 	bne	s0,s4,bfc0fde8 <inst_error>
bfc0c990:	00000000 	nop
bfc0c994:	3c15e977 	lui	s5,0xe977
bfc0c998:	36b5ed44 	ori	s5,s5,0xed44
bfc0c99c:	16550d12 	bne	s2,s5,bfc0fde8 <inst_error>
bfc0c9a0:	00000000 	nop
bfc0c9a4:	3c0c0d05 	lui	t4,0xd05
bfc0c9a8:	358cab02 	ori	t4,t4,0xab02
bfc0c9ac:	3c0d1e8f 	lui	t5,0x1e8f
bfc0c9b0:	35ad8702 	ori	t5,t5,0x8702
bfc0c9b4:	24100000 	li	s0,0
bfc0c9b8:	24120000 	li	s2,0
bfc0c9bc:	10000015 	b	bfc0ca14 <main+0xca14>
bfc0c9c0:	00000000 	nop
bfc0c9c4:	3c100d05 	lui	s0,0xd05
bfc0c9c8:	3610ab02 	ori	s0,s0,0xab02
bfc0c9cc:	15280020 	bne	t1,t0,bfc0ca50 <main+0xca50>
bfc0c9d0:	00000000 	nop
bfc0c9d4:	10000020 	b	bfc0ca58 <main+0xca58>
bfc0c9d8:	00000000 	nop
bfc0c9dc:	00000021 	move	zero,zero
bfc0c9e0:	00000021 	move	zero,zero
bfc0c9e4:	00000021 	move	zero,zero
bfc0c9e8:	00000021 	move	zero,zero
bfc0c9ec:	00000021 	move	zero,zero
bfc0c9f0:	00000021 	move	zero,zero
bfc0c9f4:	00000021 	move	zero,zero
bfc0c9f8:	00000021 	move	zero,zero
bfc0c9fc:	00000021 	move	zero,zero
bfc0ca00:	00000021 	move	zero,zero
bfc0ca04:	00000021 	move	zero,zero
bfc0ca08:	00000021 	move	zero,zero
bfc0ca0c:	00000021 	move	zero,zero
bfc0ca10:	00000021 	move	zero,zero
bfc0ca14:	3c08ee48 	lui	t0,0xee48
bfc0ca18:	3508bda8 	ori	t0,t0,0xbda8
bfc0ca1c:	24090000 	li	t1,0
bfc0ca20:	1509ffe8 	bne	t0,t1,bfc0c9c4 <main+0xc9c4>
bfc0ca24:	00000000 	nop
bfc0ca28:	1000000b 	b	bfc0ca58 <main+0xca58>
bfc0ca2c:	00000000 	nop
bfc0ca30:	00000021 	move	zero,zero
bfc0ca34:	00000021 	move	zero,zero
bfc0ca38:	00000021 	move	zero,zero
bfc0ca3c:	00000021 	move	zero,zero
bfc0ca40:	00000021 	move	zero,zero
bfc0ca44:	00000021 	move	zero,zero
bfc0ca48:	00000021 	move	zero,zero
bfc0ca4c:	00000021 	move	zero,zero
bfc0ca50:	3c121e8f 	lui	s2,0x1e8f
bfc0ca54:	36528702 	ori	s2,s2,0x8702
bfc0ca58:	00000000 	nop
bfc0ca5c:	3c140d05 	lui	s4,0xd05
bfc0ca60:	3694ab02 	ori	s4,s4,0xab02
bfc0ca64:	16140ce0 	bne	s0,s4,bfc0fde8 <inst_error>
bfc0ca68:	00000000 	nop
bfc0ca6c:	3c151e8f 	lui	s5,0x1e8f
bfc0ca70:	36b58702 	ori	s5,s5,0x8702
bfc0ca74:	16550cdc 	bne	s2,s5,bfc0fde8 <inst_error>
bfc0ca78:	00000000 	nop
bfc0ca7c:	3c0c445a 	lui	t4,0x445a
bfc0ca80:	358c57e9 	ori	t4,t4,0x57e9
bfc0ca84:	3c0da940 	lui	t5,0xa940
bfc0ca88:	35ad150e 	ori	t5,t5,0x150e
bfc0ca8c:	24100000 	li	s0,0
bfc0ca90:	24120000 	li	s2,0
bfc0ca94:	10000015 	b	bfc0caec <main+0xcaec>
bfc0ca98:	00000000 	nop
bfc0ca9c:	3c10445a 	lui	s0,0x445a
bfc0caa0:	361057e9 	ori	s0,s0,0x57e9
bfc0caa4:	15280020 	bne	t1,t0,bfc0cb28 <main+0xcb28>
bfc0caa8:	00000000 	nop
bfc0caac:	10000020 	b	bfc0cb30 <main+0xcb30>
bfc0cab0:	00000000 	nop
bfc0cab4:	00000021 	move	zero,zero
bfc0cab8:	00000021 	move	zero,zero
bfc0cabc:	00000021 	move	zero,zero
bfc0cac0:	00000021 	move	zero,zero
bfc0cac4:	00000021 	move	zero,zero
bfc0cac8:	00000021 	move	zero,zero
bfc0cacc:	00000021 	move	zero,zero
bfc0cad0:	00000021 	move	zero,zero
bfc0cad4:	00000021 	move	zero,zero
bfc0cad8:	00000021 	move	zero,zero
bfc0cadc:	00000021 	move	zero,zero
bfc0cae0:	00000021 	move	zero,zero
bfc0cae4:	00000021 	move	zero,zero
bfc0cae8:	00000021 	move	zero,zero
bfc0caec:	3c081739 	lui	t0,0x1739
bfc0caf0:	35086930 	ori	t0,t0,0x6930
bfc0caf4:	24090000 	li	t1,0
bfc0caf8:	1509ffe8 	bne	t0,t1,bfc0ca9c <main+0xca9c>
bfc0cafc:	00000000 	nop
bfc0cb00:	1000000b 	b	bfc0cb30 <main+0xcb30>
bfc0cb04:	00000000 	nop
bfc0cb08:	00000021 	move	zero,zero
bfc0cb0c:	00000021 	move	zero,zero
bfc0cb10:	00000021 	move	zero,zero
bfc0cb14:	00000021 	move	zero,zero
bfc0cb18:	00000021 	move	zero,zero
bfc0cb1c:	00000021 	move	zero,zero
bfc0cb20:	00000021 	move	zero,zero
bfc0cb24:	00000021 	move	zero,zero
bfc0cb28:	3c12a940 	lui	s2,0xa940
bfc0cb2c:	3652150e 	ori	s2,s2,0x150e
bfc0cb30:	00000000 	nop
bfc0cb34:	3c14445a 	lui	s4,0x445a
bfc0cb38:	369457e9 	ori	s4,s4,0x57e9
bfc0cb3c:	16140caa 	bne	s0,s4,bfc0fde8 <inst_error>
bfc0cb40:	00000000 	nop
bfc0cb44:	3c15a940 	lui	s5,0xa940
bfc0cb48:	36b5150e 	ori	s5,s5,0x150e
bfc0cb4c:	16550ca6 	bne	s2,s5,bfc0fde8 <inst_error>
bfc0cb50:	00000000 	nop
bfc0cb54:	3c0cf020 	lui	t4,0xf020
bfc0cb58:	358c5350 	ori	t4,t4,0x5350
bfc0cb5c:	3c0de468 	lui	t5,0xe468
bfc0cb60:	35add614 	ori	t5,t5,0xd614
bfc0cb64:	24100000 	li	s0,0
bfc0cb68:	24120000 	li	s2,0
bfc0cb6c:	10000015 	b	bfc0cbc4 <main+0xcbc4>
bfc0cb70:	00000000 	nop
bfc0cb74:	3c10f020 	lui	s0,0xf020
bfc0cb78:	36105350 	ori	s0,s0,0x5350
bfc0cb7c:	15280020 	bne	t1,t0,bfc0cc00 <main+0xcc00>
bfc0cb80:	00000000 	nop
bfc0cb84:	10000020 	b	bfc0cc08 <main+0xcc08>
bfc0cb88:	00000000 	nop
bfc0cb8c:	00000021 	move	zero,zero
bfc0cb90:	00000021 	move	zero,zero
bfc0cb94:	00000021 	move	zero,zero
bfc0cb98:	00000021 	move	zero,zero
bfc0cb9c:	00000021 	move	zero,zero
bfc0cba0:	00000021 	move	zero,zero
bfc0cba4:	00000021 	move	zero,zero
bfc0cba8:	00000021 	move	zero,zero
bfc0cbac:	00000021 	move	zero,zero
bfc0cbb0:	00000021 	move	zero,zero
bfc0cbb4:	00000021 	move	zero,zero
bfc0cbb8:	00000021 	move	zero,zero
bfc0cbbc:	00000021 	move	zero,zero
bfc0cbc0:	00000021 	move	zero,zero
bfc0cbc4:	3c083d2d 	lui	t0,0x3d2d
bfc0cbc8:	35086ed0 	ori	t0,t0,0x6ed0
bfc0cbcc:	24090000 	li	t1,0
bfc0cbd0:	1509ffe8 	bne	t0,t1,bfc0cb74 <main+0xcb74>
bfc0cbd4:	00000000 	nop
bfc0cbd8:	1000000b 	b	bfc0cc08 <main+0xcc08>
bfc0cbdc:	00000000 	nop
bfc0cbe0:	00000021 	move	zero,zero
bfc0cbe4:	00000021 	move	zero,zero
bfc0cbe8:	00000021 	move	zero,zero
bfc0cbec:	00000021 	move	zero,zero
bfc0cbf0:	00000021 	move	zero,zero
bfc0cbf4:	00000021 	move	zero,zero
bfc0cbf8:	00000021 	move	zero,zero
bfc0cbfc:	00000021 	move	zero,zero
bfc0cc00:	3c12e468 	lui	s2,0xe468
bfc0cc04:	3652d614 	ori	s2,s2,0xd614
bfc0cc08:	00000000 	nop
bfc0cc0c:	3c14f020 	lui	s4,0xf020
bfc0cc10:	36945350 	ori	s4,s4,0x5350
bfc0cc14:	16140c74 	bne	s0,s4,bfc0fde8 <inst_error>
bfc0cc18:	00000000 	nop
bfc0cc1c:	3c15e468 	lui	s5,0xe468
bfc0cc20:	36b5d614 	ori	s5,s5,0xd614
bfc0cc24:	16550c70 	bne	s2,s5,bfc0fde8 <inst_error>
bfc0cc28:	00000000 	nop
bfc0cc2c:	3c0c8488 	lui	t4,0x8488
bfc0cc30:	358c1236 	ori	t4,t4,0x1236
bfc0cc34:	3c0d636e 	lui	t5,0x636e
bfc0cc38:	35ad19c4 	ori	t5,t5,0x19c4
bfc0cc3c:	24100000 	li	s0,0
bfc0cc40:	24120000 	li	s2,0
bfc0cc44:	10000015 	b	bfc0cc9c <main+0xcc9c>
bfc0cc48:	00000000 	nop
bfc0cc4c:	3c108488 	lui	s0,0x8488
bfc0cc50:	36101236 	ori	s0,s0,0x1236
bfc0cc54:	15280020 	bne	t1,t0,bfc0ccd8 <main+0xccd8>
bfc0cc58:	00000000 	nop
bfc0cc5c:	10000020 	b	bfc0cce0 <main+0xcce0>
bfc0cc60:	00000000 	nop
bfc0cc64:	00000021 	move	zero,zero
bfc0cc68:	00000021 	move	zero,zero
bfc0cc6c:	00000021 	move	zero,zero
bfc0cc70:	00000021 	move	zero,zero
bfc0cc74:	00000021 	move	zero,zero
bfc0cc78:	00000021 	move	zero,zero
bfc0cc7c:	00000021 	move	zero,zero
bfc0cc80:	00000021 	move	zero,zero
bfc0cc84:	00000021 	move	zero,zero
bfc0cc88:	00000021 	move	zero,zero
bfc0cc8c:	00000021 	move	zero,zero
bfc0cc90:	00000021 	move	zero,zero
bfc0cc94:	00000021 	move	zero,zero
bfc0cc98:	00000021 	move	zero,zero
bfc0cc9c:	3c089fef 	lui	t0,0x9fef
bfc0cca0:	3508d380 	ori	t0,t0,0xd380
bfc0cca4:	24090000 	li	t1,0
bfc0cca8:	1509ffe8 	bne	t0,t1,bfc0cc4c <main+0xcc4c>
bfc0ccac:	00000000 	nop
bfc0ccb0:	1000000b 	b	bfc0cce0 <main+0xcce0>
bfc0ccb4:	00000000 	nop
bfc0ccb8:	00000021 	move	zero,zero
bfc0ccbc:	00000021 	move	zero,zero
bfc0ccc0:	00000021 	move	zero,zero
bfc0ccc4:	00000021 	move	zero,zero
bfc0ccc8:	00000021 	move	zero,zero
bfc0cccc:	00000021 	move	zero,zero
bfc0ccd0:	00000021 	move	zero,zero
bfc0ccd4:	00000021 	move	zero,zero
bfc0ccd8:	3c12636e 	lui	s2,0x636e
bfc0ccdc:	365219c4 	ori	s2,s2,0x19c4
bfc0cce0:	00000000 	nop
bfc0cce4:	3c148488 	lui	s4,0x8488
bfc0cce8:	36941236 	ori	s4,s4,0x1236
bfc0ccec:	16140c3e 	bne	s0,s4,bfc0fde8 <inst_error>
bfc0ccf0:	00000000 	nop
bfc0ccf4:	3c15636e 	lui	s5,0x636e
bfc0ccf8:	36b519c4 	ori	s5,s5,0x19c4
bfc0ccfc:	16550c3a 	bne	s2,s5,bfc0fde8 <inst_error>
bfc0cd00:	00000000 	nop
bfc0cd04:	3c0c3e89 	lui	t4,0x3e89
bfc0cd08:	358c6f80 	ori	t4,t4,0x6f80
bfc0cd0c:	3c0d271f 	lui	t5,0x271f
bfc0cd10:	35adb930 	ori	t5,t5,0xb930
bfc0cd14:	24100000 	li	s0,0
bfc0cd18:	24120000 	li	s2,0
bfc0cd1c:	10000015 	b	bfc0cd74 <main+0xcd74>
bfc0cd20:	00000000 	nop
bfc0cd24:	3c103e89 	lui	s0,0x3e89
bfc0cd28:	36106f80 	ori	s0,s0,0x6f80
bfc0cd2c:	15280020 	bne	t1,t0,bfc0cdb0 <main+0xcdb0>
bfc0cd30:	00000000 	nop
bfc0cd34:	10000020 	b	bfc0cdb8 <main+0xcdb8>
bfc0cd38:	00000000 	nop
bfc0cd3c:	00000021 	move	zero,zero
bfc0cd40:	00000021 	move	zero,zero
bfc0cd44:	00000021 	move	zero,zero
bfc0cd48:	00000021 	move	zero,zero
bfc0cd4c:	00000021 	move	zero,zero
bfc0cd50:	00000021 	move	zero,zero
bfc0cd54:	00000021 	move	zero,zero
bfc0cd58:	00000021 	move	zero,zero
bfc0cd5c:	00000021 	move	zero,zero
bfc0cd60:	00000021 	move	zero,zero
bfc0cd64:	00000021 	move	zero,zero
bfc0cd68:	00000021 	move	zero,zero
bfc0cd6c:	00000021 	move	zero,zero
bfc0cd70:	00000021 	move	zero,zero
bfc0cd74:	3c08bd3a 	lui	t0,0xbd3a
bfc0cd78:	35085f46 	ori	t0,t0,0x5f46
bfc0cd7c:	24090000 	li	t1,0
bfc0cd80:	1509ffe8 	bne	t0,t1,bfc0cd24 <main+0xcd24>
bfc0cd84:	00000000 	nop
bfc0cd88:	1000000b 	b	bfc0cdb8 <main+0xcdb8>
bfc0cd8c:	00000000 	nop
bfc0cd90:	00000021 	move	zero,zero
bfc0cd94:	00000021 	move	zero,zero
bfc0cd98:	00000021 	move	zero,zero
bfc0cd9c:	00000021 	move	zero,zero
bfc0cda0:	00000021 	move	zero,zero
bfc0cda4:	00000021 	move	zero,zero
bfc0cda8:	00000021 	move	zero,zero
bfc0cdac:	00000021 	move	zero,zero
bfc0cdb0:	3c12271f 	lui	s2,0x271f
bfc0cdb4:	3652b930 	ori	s2,s2,0xb930
bfc0cdb8:	00000000 	nop
bfc0cdbc:	3c143e89 	lui	s4,0x3e89
bfc0cdc0:	36946f80 	ori	s4,s4,0x6f80
bfc0cdc4:	16140c08 	bne	s0,s4,bfc0fde8 <inst_error>
bfc0cdc8:	00000000 	nop
bfc0cdcc:	3c15271f 	lui	s5,0x271f
bfc0cdd0:	36b5b930 	ori	s5,s5,0xb930
bfc0cdd4:	16550c04 	bne	s2,s5,bfc0fde8 <inst_error>
bfc0cdd8:	00000000 	nop
bfc0cddc:	3c0c6148 	lui	t4,0x6148
bfc0cde0:	358c120c 	ori	t4,t4,0x120c
bfc0cde4:	3c0df6ff 	lui	t5,0xf6ff
bfc0cde8:	35ad94eb 	ori	t5,t5,0x94eb
bfc0cdec:	24100000 	li	s0,0
bfc0cdf0:	24120000 	li	s2,0
bfc0cdf4:	10000015 	b	bfc0ce4c <main+0xce4c>
bfc0cdf8:	00000000 	nop
bfc0cdfc:	3c106148 	lui	s0,0x6148
bfc0ce00:	3610120c 	ori	s0,s0,0x120c
bfc0ce04:	15280020 	bne	t1,t0,bfc0ce88 <main+0xce88>
bfc0ce08:	00000000 	nop
bfc0ce0c:	10000020 	b	bfc0ce90 <main+0xce90>
bfc0ce10:	00000000 	nop
bfc0ce14:	00000021 	move	zero,zero
bfc0ce18:	00000021 	move	zero,zero
bfc0ce1c:	00000021 	move	zero,zero
bfc0ce20:	00000021 	move	zero,zero
bfc0ce24:	00000021 	move	zero,zero
bfc0ce28:	00000021 	move	zero,zero
bfc0ce2c:	00000021 	move	zero,zero
bfc0ce30:	00000021 	move	zero,zero
bfc0ce34:	00000021 	move	zero,zero
bfc0ce38:	00000021 	move	zero,zero
bfc0ce3c:	00000021 	move	zero,zero
bfc0ce40:	00000021 	move	zero,zero
bfc0ce44:	00000021 	move	zero,zero
bfc0ce48:	00000021 	move	zero,zero
bfc0ce4c:	3c08b66b 	lui	t0,0xb66b
bfc0ce50:	3508a5c0 	ori	t0,t0,0xa5c0
bfc0ce54:	24090000 	li	t1,0
bfc0ce58:	1509ffe8 	bne	t0,t1,bfc0cdfc <main+0xcdfc>
bfc0ce5c:	00000000 	nop
bfc0ce60:	1000000b 	b	bfc0ce90 <main+0xce90>
bfc0ce64:	00000000 	nop
bfc0ce68:	00000021 	move	zero,zero
bfc0ce6c:	00000021 	move	zero,zero
bfc0ce70:	00000021 	move	zero,zero
bfc0ce74:	00000021 	move	zero,zero
bfc0ce78:	00000021 	move	zero,zero
bfc0ce7c:	00000021 	move	zero,zero
bfc0ce80:	00000021 	move	zero,zero
bfc0ce84:	00000021 	move	zero,zero
bfc0ce88:	3c12f6ff 	lui	s2,0xf6ff
bfc0ce8c:	365294eb 	ori	s2,s2,0x94eb
bfc0ce90:	00000000 	nop
bfc0ce94:	3c146148 	lui	s4,0x6148
bfc0ce98:	3694120c 	ori	s4,s4,0x120c
bfc0ce9c:	16140bd2 	bne	s0,s4,bfc0fde8 <inst_error>
bfc0cea0:	00000000 	nop
bfc0cea4:	3c15f6ff 	lui	s5,0xf6ff
bfc0cea8:	36b594eb 	ori	s5,s5,0x94eb
bfc0ceac:	16550bce 	bne	s2,s5,bfc0fde8 <inst_error>
bfc0ceb0:	00000000 	nop
bfc0ceb4:	3c0cd983 	lui	t4,0xd983
bfc0ceb8:	358ca868 	ori	t4,t4,0xa868
bfc0cebc:	3c0d4e36 	lui	t5,0x4e36
bfc0cec0:	35add14d 	ori	t5,t5,0xd14d
bfc0cec4:	24100000 	li	s0,0
bfc0cec8:	24120000 	li	s2,0
bfc0cecc:	10000015 	b	bfc0cf24 <main+0xcf24>
bfc0ced0:	00000000 	nop
bfc0ced4:	3c10d983 	lui	s0,0xd983
bfc0ced8:	3610a868 	ori	s0,s0,0xa868
bfc0cedc:	15280020 	bne	t1,t0,bfc0cf60 <main+0xcf60>
bfc0cee0:	00000000 	nop
bfc0cee4:	10000020 	b	bfc0cf68 <main+0xcf68>
bfc0cee8:	00000000 	nop
bfc0ceec:	00000021 	move	zero,zero
bfc0cef0:	00000021 	move	zero,zero
bfc0cef4:	00000021 	move	zero,zero
bfc0cef8:	00000021 	move	zero,zero
bfc0cefc:	00000021 	move	zero,zero
bfc0cf00:	00000021 	move	zero,zero
bfc0cf04:	00000021 	move	zero,zero
bfc0cf08:	00000021 	move	zero,zero
bfc0cf0c:	00000021 	move	zero,zero
bfc0cf10:	00000021 	move	zero,zero
bfc0cf14:	00000021 	move	zero,zero
bfc0cf18:	00000021 	move	zero,zero
bfc0cf1c:	00000021 	move	zero,zero
bfc0cf20:	00000021 	move	zero,zero
bfc0cf24:	3c0827d5 	lui	t0,0x27d5
bfc0cf28:	35086534 	ori	t0,t0,0x6534
bfc0cf2c:	24090000 	li	t1,0
bfc0cf30:	1509ffe8 	bne	t0,t1,bfc0ced4 <main+0xced4>
bfc0cf34:	00000000 	nop
bfc0cf38:	1000000b 	b	bfc0cf68 <main+0xcf68>
bfc0cf3c:	00000000 	nop
bfc0cf40:	00000021 	move	zero,zero
bfc0cf44:	00000021 	move	zero,zero
bfc0cf48:	00000021 	move	zero,zero
bfc0cf4c:	00000021 	move	zero,zero
bfc0cf50:	00000021 	move	zero,zero
bfc0cf54:	00000021 	move	zero,zero
bfc0cf58:	00000021 	move	zero,zero
bfc0cf5c:	00000021 	move	zero,zero
bfc0cf60:	3c124e36 	lui	s2,0x4e36
bfc0cf64:	3652d14d 	ori	s2,s2,0xd14d
bfc0cf68:	00000000 	nop
bfc0cf6c:	3c14d983 	lui	s4,0xd983
bfc0cf70:	3694a868 	ori	s4,s4,0xa868
bfc0cf74:	16140b9c 	bne	s0,s4,bfc0fde8 <inst_error>
bfc0cf78:	00000000 	nop
bfc0cf7c:	3c154e36 	lui	s5,0x4e36
bfc0cf80:	36b5d14d 	ori	s5,s5,0xd14d
bfc0cf84:	16550b98 	bne	s2,s5,bfc0fde8 <inst_error>
bfc0cf88:	00000000 	nop
bfc0cf8c:	3c0c63d1 	lui	t4,0x63d1
bfc0cf90:	358c5f30 	ori	t4,t4,0x5f30
bfc0cf94:	3c0d1cca 	lui	t5,0x1cca
bfc0cf98:	35adbc34 	ori	t5,t5,0xbc34
bfc0cf9c:	24100000 	li	s0,0
bfc0cfa0:	24120000 	li	s2,0
bfc0cfa4:	10000015 	b	bfc0cffc <main+0xcffc>
bfc0cfa8:	00000000 	nop
bfc0cfac:	3c1063d1 	lui	s0,0x63d1
bfc0cfb0:	36105f30 	ori	s0,s0,0x5f30
bfc0cfb4:	15280020 	bne	t1,t0,bfc0d038 <main+0xd038>
bfc0cfb8:	00000000 	nop
bfc0cfbc:	10000020 	b	bfc0d040 <main+0xd040>
bfc0cfc0:	00000000 	nop
bfc0cfc4:	00000021 	move	zero,zero
bfc0cfc8:	00000021 	move	zero,zero
bfc0cfcc:	00000021 	move	zero,zero
bfc0cfd0:	00000021 	move	zero,zero
bfc0cfd4:	00000021 	move	zero,zero
bfc0cfd8:	00000021 	move	zero,zero
bfc0cfdc:	00000021 	move	zero,zero
bfc0cfe0:	00000021 	move	zero,zero
bfc0cfe4:	00000021 	move	zero,zero
bfc0cfe8:	00000021 	move	zero,zero
bfc0cfec:	00000021 	move	zero,zero
bfc0cff0:	00000021 	move	zero,zero
bfc0cff4:	00000021 	move	zero,zero
bfc0cff8:	00000021 	move	zero,zero
bfc0cffc:	3c084d99 	lui	t0,0x4d99
bfc0d000:	35082003 	ori	t0,t0,0x2003
bfc0d004:	24090000 	li	t1,0
bfc0d008:	1509ffe8 	bne	t0,t1,bfc0cfac <main+0xcfac>
bfc0d00c:	00000000 	nop
bfc0d010:	1000000b 	b	bfc0d040 <main+0xd040>
bfc0d014:	00000000 	nop
bfc0d018:	00000021 	move	zero,zero
bfc0d01c:	00000021 	move	zero,zero
bfc0d020:	00000021 	move	zero,zero
bfc0d024:	00000021 	move	zero,zero
bfc0d028:	00000021 	move	zero,zero
bfc0d02c:	00000021 	move	zero,zero
bfc0d030:	00000021 	move	zero,zero
bfc0d034:	00000021 	move	zero,zero
bfc0d038:	3c121cca 	lui	s2,0x1cca
bfc0d03c:	3652bc34 	ori	s2,s2,0xbc34
bfc0d040:	00000000 	nop
bfc0d044:	3c1463d1 	lui	s4,0x63d1
bfc0d048:	36945f30 	ori	s4,s4,0x5f30
bfc0d04c:	16140b66 	bne	s0,s4,bfc0fde8 <inst_error>
bfc0d050:	00000000 	nop
bfc0d054:	3c151cca 	lui	s5,0x1cca
bfc0d058:	36b5bc34 	ori	s5,s5,0xbc34
bfc0d05c:	16550b62 	bne	s2,s5,bfc0fde8 <inst_error>
bfc0d060:	00000000 	nop
bfc0d064:	3c0c514a 	lui	t4,0x514a
bfc0d068:	358c6c70 	ori	t4,t4,0x6c70
bfc0d06c:	3c0d15bb 	lui	t5,0x15bb
bfc0d070:	35ade844 	ori	t5,t5,0xe844
bfc0d074:	24100000 	li	s0,0
bfc0d078:	24120000 	li	s2,0
bfc0d07c:	10000015 	b	bfc0d0d4 <main+0xd0d4>
bfc0d080:	00000000 	nop
bfc0d084:	3c10514a 	lui	s0,0x514a
bfc0d088:	36106c70 	ori	s0,s0,0x6c70
bfc0d08c:	15280020 	bne	t1,t0,bfc0d110 <main+0xd110>
bfc0d090:	00000000 	nop
bfc0d094:	10000020 	b	bfc0d118 <main+0xd118>
bfc0d098:	00000000 	nop
bfc0d09c:	00000021 	move	zero,zero
bfc0d0a0:	00000021 	move	zero,zero
bfc0d0a4:	00000021 	move	zero,zero
bfc0d0a8:	00000021 	move	zero,zero
bfc0d0ac:	00000021 	move	zero,zero
bfc0d0b0:	00000021 	move	zero,zero
bfc0d0b4:	00000021 	move	zero,zero
bfc0d0b8:	00000021 	move	zero,zero
bfc0d0bc:	00000021 	move	zero,zero
bfc0d0c0:	00000021 	move	zero,zero
bfc0d0c4:	00000021 	move	zero,zero
bfc0d0c8:	00000021 	move	zero,zero
bfc0d0cc:	00000021 	move	zero,zero
bfc0d0d0:	00000021 	move	zero,zero
bfc0d0d4:	3c08f3a1 	lui	t0,0xf3a1
bfc0d0d8:	35080830 	ori	t0,t0,0x830
bfc0d0dc:	24090000 	li	t1,0
bfc0d0e0:	1509ffe8 	bne	t0,t1,bfc0d084 <main+0xd084>
bfc0d0e4:	00000000 	nop
bfc0d0e8:	1000000b 	b	bfc0d118 <main+0xd118>
bfc0d0ec:	00000000 	nop
bfc0d0f0:	00000021 	move	zero,zero
bfc0d0f4:	00000021 	move	zero,zero
bfc0d0f8:	00000021 	move	zero,zero
bfc0d0fc:	00000021 	move	zero,zero
bfc0d100:	00000021 	move	zero,zero
bfc0d104:	00000021 	move	zero,zero
bfc0d108:	00000021 	move	zero,zero
bfc0d10c:	00000021 	move	zero,zero
bfc0d110:	3c1215bb 	lui	s2,0x15bb
bfc0d114:	3652e844 	ori	s2,s2,0xe844
bfc0d118:	00000000 	nop
bfc0d11c:	3c14514a 	lui	s4,0x514a
bfc0d120:	36946c70 	ori	s4,s4,0x6c70
bfc0d124:	16140b30 	bne	s0,s4,bfc0fde8 <inst_error>
bfc0d128:	00000000 	nop
bfc0d12c:	3c1515bb 	lui	s5,0x15bb
bfc0d130:	36b5e844 	ori	s5,s5,0xe844
bfc0d134:	16550b2c 	bne	s2,s5,bfc0fde8 <inst_error>
bfc0d138:	00000000 	nop
bfc0d13c:	3c0c4d05 	lui	t4,0x4d05
bfc0d140:	358cd260 	ori	t4,t4,0xd260
bfc0d144:	3c0df43f 	lui	t5,0xf43f
bfc0d148:	35ad79fc 	ori	t5,t5,0x79fc
bfc0d14c:	24100000 	li	s0,0
bfc0d150:	24120000 	li	s2,0
bfc0d154:	10000015 	b	bfc0d1ac <main+0xd1ac>
bfc0d158:	00000000 	nop
bfc0d15c:	3c104d05 	lui	s0,0x4d05
bfc0d160:	3610d260 	ori	s0,s0,0xd260
bfc0d164:	15280020 	bne	t1,t0,bfc0d1e8 <main+0xd1e8>
bfc0d168:	00000000 	nop
bfc0d16c:	10000020 	b	bfc0d1f0 <main+0xd1f0>
bfc0d170:	00000000 	nop
bfc0d174:	00000021 	move	zero,zero
bfc0d178:	00000021 	move	zero,zero
bfc0d17c:	00000021 	move	zero,zero
bfc0d180:	00000021 	move	zero,zero
bfc0d184:	00000021 	move	zero,zero
bfc0d188:	00000021 	move	zero,zero
bfc0d18c:	00000021 	move	zero,zero
bfc0d190:	00000021 	move	zero,zero
bfc0d194:	00000021 	move	zero,zero
bfc0d198:	00000021 	move	zero,zero
bfc0d19c:	00000021 	move	zero,zero
bfc0d1a0:	00000021 	move	zero,zero
bfc0d1a4:	00000021 	move	zero,zero
bfc0d1a8:	00000021 	move	zero,zero
bfc0d1ac:	3c0807a8 	lui	t0,0x7a8
bfc0d1b0:	35085d88 	ori	t0,t0,0x5d88
bfc0d1b4:	24090000 	li	t1,0
bfc0d1b8:	1509ffe8 	bne	t0,t1,bfc0d15c <main+0xd15c>
bfc0d1bc:	00000000 	nop
bfc0d1c0:	1000000b 	b	bfc0d1f0 <main+0xd1f0>
bfc0d1c4:	00000000 	nop
bfc0d1c8:	00000021 	move	zero,zero
bfc0d1cc:	00000021 	move	zero,zero
bfc0d1d0:	00000021 	move	zero,zero
bfc0d1d4:	00000021 	move	zero,zero
bfc0d1d8:	00000021 	move	zero,zero
bfc0d1dc:	00000021 	move	zero,zero
bfc0d1e0:	00000021 	move	zero,zero
bfc0d1e4:	00000021 	move	zero,zero
bfc0d1e8:	3c12f43f 	lui	s2,0xf43f
bfc0d1ec:	365279fc 	ori	s2,s2,0x79fc
bfc0d1f0:	00000000 	nop
bfc0d1f4:	3c144d05 	lui	s4,0x4d05
bfc0d1f8:	3694d260 	ori	s4,s4,0xd260
bfc0d1fc:	16140afa 	bne	s0,s4,bfc0fde8 <inst_error>
bfc0d200:	00000000 	nop
bfc0d204:	3c15f43f 	lui	s5,0xf43f
bfc0d208:	36b579fc 	ori	s5,s5,0x79fc
bfc0d20c:	16550af6 	bne	s2,s5,bfc0fde8 <inst_error>
bfc0d210:	00000000 	nop
bfc0d214:	3c0c5b4c 	lui	t4,0x5b4c
bfc0d218:	358ccd80 	ori	t4,t4,0xcd80
bfc0d21c:	3c0dc4a3 	lui	t5,0xc4a3
bfc0d220:	35adeb21 	ori	t5,t5,0xeb21
bfc0d224:	24100000 	li	s0,0
bfc0d228:	24120000 	li	s2,0
bfc0d22c:	10000015 	b	bfc0d284 <main+0xd284>
bfc0d230:	00000000 	nop
bfc0d234:	3c105b4c 	lui	s0,0x5b4c
bfc0d238:	3610cd80 	ori	s0,s0,0xcd80
bfc0d23c:	15280020 	bne	t1,t0,bfc0d2c0 <main+0xd2c0>
bfc0d240:	00000000 	nop
bfc0d244:	10000020 	b	bfc0d2c8 <main+0xd2c8>
bfc0d248:	00000000 	nop
bfc0d24c:	00000021 	move	zero,zero
bfc0d250:	00000021 	move	zero,zero
bfc0d254:	00000021 	move	zero,zero
bfc0d258:	00000021 	move	zero,zero
bfc0d25c:	00000021 	move	zero,zero
bfc0d260:	00000021 	move	zero,zero
bfc0d264:	00000021 	move	zero,zero
bfc0d268:	00000021 	move	zero,zero
bfc0d26c:	00000021 	move	zero,zero
bfc0d270:	00000021 	move	zero,zero
bfc0d274:	00000021 	move	zero,zero
bfc0d278:	00000021 	move	zero,zero
bfc0d27c:	00000021 	move	zero,zero
bfc0d280:	00000021 	move	zero,zero
bfc0d284:	3c08b713 	lui	t0,0xb713
bfc0d288:	3508ebac 	ori	t0,t0,0xebac
bfc0d28c:	24090000 	li	t1,0
bfc0d290:	1509ffe8 	bne	t0,t1,bfc0d234 <main+0xd234>
bfc0d294:	00000000 	nop
bfc0d298:	1000000b 	b	bfc0d2c8 <main+0xd2c8>
bfc0d29c:	00000000 	nop
bfc0d2a0:	00000021 	move	zero,zero
bfc0d2a4:	00000021 	move	zero,zero
bfc0d2a8:	00000021 	move	zero,zero
bfc0d2ac:	00000021 	move	zero,zero
bfc0d2b0:	00000021 	move	zero,zero
bfc0d2b4:	00000021 	move	zero,zero
bfc0d2b8:	00000021 	move	zero,zero
bfc0d2bc:	00000021 	move	zero,zero
bfc0d2c0:	3c12c4a3 	lui	s2,0xc4a3
bfc0d2c4:	3652eb21 	ori	s2,s2,0xeb21
bfc0d2c8:	00000000 	nop
bfc0d2cc:	3c145b4c 	lui	s4,0x5b4c
bfc0d2d0:	3694cd80 	ori	s4,s4,0xcd80
bfc0d2d4:	16140ac4 	bne	s0,s4,bfc0fde8 <inst_error>
bfc0d2d8:	00000000 	nop
bfc0d2dc:	3c15c4a3 	lui	s5,0xc4a3
bfc0d2e0:	36b5eb21 	ori	s5,s5,0xeb21
bfc0d2e4:	16550ac0 	bne	s2,s5,bfc0fde8 <inst_error>
bfc0d2e8:	00000000 	nop
bfc0d2ec:	3c0c52ef 	lui	t4,0x52ef
bfc0d2f0:	358ceacc 	ori	t4,t4,0xeacc
bfc0d2f4:	3c0d8b1f 	lui	t5,0x8b1f
bfc0d2f8:	35ad5402 	ori	t5,t5,0x5402
bfc0d2fc:	24100000 	li	s0,0
bfc0d300:	24120000 	li	s2,0
bfc0d304:	10000015 	b	bfc0d35c <main+0xd35c>
bfc0d308:	00000000 	nop
bfc0d30c:	3c1052ef 	lui	s0,0x52ef
bfc0d310:	3610eacc 	ori	s0,s0,0xeacc
bfc0d314:	15280020 	bne	t1,t0,bfc0d398 <main+0xd398>
bfc0d318:	00000000 	nop
bfc0d31c:	10000020 	b	bfc0d3a0 <main+0xd3a0>
bfc0d320:	00000000 	nop
bfc0d324:	00000021 	move	zero,zero
bfc0d328:	00000021 	move	zero,zero
bfc0d32c:	00000021 	move	zero,zero
bfc0d330:	00000021 	move	zero,zero
bfc0d334:	00000021 	move	zero,zero
bfc0d338:	00000021 	move	zero,zero
bfc0d33c:	00000021 	move	zero,zero
bfc0d340:	00000021 	move	zero,zero
bfc0d344:	00000021 	move	zero,zero
bfc0d348:	00000021 	move	zero,zero
bfc0d34c:	00000021 	move	zero,zero
bfc0d350:	00000021 	move	zero,zero
bfc0d354:	00000021 	move	zero,zero
bfc0d358:	00000021 	move	zero,zero
bfc0d35c:	24080000 	li	t0,0
bfc0d360:	3c09bb22 	lui	t1,0xbb22
bfc0d364:	3529d1aa 	ori	t1,t1,0xd1aa
bfc0d368:	1509ffe8 	bne	t0,t1,bfc0d30c <main+0xd30c>
bfc0d36c:	00000000 	nop
bfc0d370:	1000000b 	b	bfc0d3a0 <main+0xd3a0>
bfc0d374:	00000000 	nop
bfc0d378:	00000021 	move	zero,zero
bfc0d37c:	00000021 	move	zero,zero
bfc0d380:	00000021 	move	zero,zero
bfc0d384:	00000021 	move	zero,zero
bfc0d388:	00000021 	move	zero,zero
bfc0d38c:	00000021 	move	zero,zero
bfc0d390:	00000021 	move	zero,zero
bfc0d394:	00000021 	move	zero,zero
bfc0d398:	3c128b1f 	lui	s2,0x8b1f
bfc0d39c:	36525402 	ori	s2,s2,0x5402
bfc0d3a0:	00000000 	nop
bfc0d3a4:	3c1452ef 	lui	s4,0x52ef
bfc0d3a8:	3694eacc 	ori	s4,s4,0xeacc
bfc0d3ac:	16140a8e 	bne	s0,s4,bfc0fde8 <inst_error>
bfc0d3b0:	00000000 	nop
bfc0d3b4:	3c158b1f 	lui	s5,0x8b1f
bfc0d3b8:	36b55402 	ori	s5,s5,0x5402
bfc0d3bc:	16550a8a 	bne	s2,s5,bfc0fde8 <inst_error>
bfc0d3c0:	00000000 	nop
bfc0d3c4:	3c0c3c7e 	lui	t4,0x3c7e
bfc0d3c8:	358cc120 	ori	t4,t4,0xc120
bfc0d3cc:	3c0d6518 	lui	t5,0x6518
bfc0d3d0:	35adaa99 	ori	t5,t5,0xaa99
bfc0d3d4:	24100000 	li	s0,0
bfc0d3d8:	24120000 	li	s2,0
bfc0d3dc:	10000015 	b	bfc0d434 <main+0xd434>
bfc0d3e0:	00000000 	nop
bfc0d3e4:	3c103c7e 	lui	s0,0x3c7e
bfc0d3e8:	3610c120 	ori	s0,s0,0xc120
bfc0d3ec:	15280020 	bne	t1,t0,bfc0d470 <main+0xd470>
bfc0d3f0:	00000000 	nop
bfc0d3f4:	10000020 	b	bfc0d478 <main+0xd478>
bfc0d3f8:	00000000 	nop
bfc0d3fc:	00000021 	move	zero,zero
bfc0d400:	00000021 	move	zero,zero
bfc0d404:	00000021 	move	zero,zero
bfc0d408:	00000021 	move	zero,zero
bfc0d40c:	00000021 	move	zero,zero
bfc0d410:	00000021 	move	zero,zero
bfc0d414:	00000021 	move	zero,zero
bfc0d418:	00000021 	move	zero,zero
bfc0d41c:	00000021 	move	zero,zero
bfc0d420:	00000021 	move	zero,zero
bfc0d424:	00000021 	move	zero,zero
bfc0d428:	00000021 	move	zero,zero
bfc0d42c:	00000021 	move	zero,zero
bfc0d430:	00000021 	move	zero,zero
bfc0d434:	24080000 	li	t0,0
bfc0d438:	3c094c09 	lui	t1,0x4c09
bfc0d43c:	35291d68 	ori	t1,t1,0x1d68
bfc0d440:	1509ffe8 	bne	t0,t1,bfc0d3e4 <main+0xd3e4>
bfc0d444:	00000000 	nop
bfc0d448:	1000000b 	b	bfc0d478 <main+0xd478>
bfc0d44c:	00000000 	nop
bfc0d450:	00000021 	move	zero,zero
bfc0d454:	00000021 	move	zero,zero
bfc0d458:	00000021 	move	zero,zero
bfc0d45c:	00000021 	move	zero,zero
bfc0d460:	00000021 	move	zero,zero
bfc0d464:	00000021 	move	zero,zero
bfc0d468:	00000021 	move	zero,zero
bfc0d46c:	00000021 	move	zero,zero
bfc0d470:	3c126518 	lui	s2,0x6518
bfc0d474:	3652aa99 	ori	s2,s2,0xaa99
bfc0d478:	00000000 	nop
bfc0d47c:	3c143c7e 	lui	s4,0x3c7e
bfc0d480:	3694c120 	ori	s4,s4,0xc120
bfc0d484:	16140a58 	bne	s0,s4,bfc0fde8 <inst_error>
bfc0d488:	00000000 	nop
bfc0d48c:	3c156518 	lui	s5,0x6518
bfc0d490:	36b5aa99 	ori	s5,s5,0xaa99
bfc0d494:	16550a54 	bne	s2,s5,bfc0fde8 <inst_error>
bfc0d498:	00000000 	nop
bfc0d49c:	3c0cf267 	lui	t4,0xf267
bfc0d4a0:	358c8f0c 	ori	t4,t4,0x8f0c
bfc0d4a4:	3c0d8f89 	lui	t5,0x8f89
bfc0d4a8:	35ad2ee0 	ori	t5,t5,0x2ee0
bfc0d4ac:	24100000 	li	s0,0
bfc0d4b0:	24120000 	li	s2,0
bfc0d4b4:	10000015 	b	bfc0d50c <main+0xd50c>
bfc0d4b8:	00000000 	nop
bfc0d4bc:	3c10f267 	lui	s0,0xf267
bfc0d4c0:	36108f0c 	ori	s0,s0,0x8f0c
bfc0d4c4:	15280020 	bne	t1,t0,bfc0d548 <main+0xd548>
bfc0d4c8:	00000000 	nop
bfc0d4cc:	10000020 	b	bfc0d550 <main+0xd550>
bfc0d4d0:	00000000 	nop
bfc0d4d4:	00000021 	move	zero,zero
bfc0d4d8:	00000021 	move	zero,zero
bfc0d4dc:	00000021 	move	zero,zero
bfc0d4e0:	00000021 	move	zero,zero
bfc0d4e4:	00000021 	move	zero,zero
bfc0d4e8:	00000021 	move	zero,zero
bfc0d4ec:	00000021 	move	zero,zero
bfc0d4f0:	00000021 	move	zero,zero
bfc0d4f4:	00000021 	move	zero,zero
bfc0d4f8:	00000021 	move	zero,zero
bfc0d4fc:	00000021 	move	zero,zero
bfc0d500:	00000021 	move	zero,zero
bfc0d504:	00000021 	move	zero,zero
bfc0d508:	00000021 	move	zero,zero
bfc0d50c:	24080000 	li	t0,0
bfc0d510:	3c09d4a3 	lui	t1,0xd4a3
bfc0d514:	3529fdd0 	ori	t1,t1,0xfdd0
bfc0d518:	1509ffe8 	bne	t0,t1,bfc0d4bc <main+0xd4bc>
bfc0d51c:	00000000 	nop
bfc0d520:	1000000b 	b	bfc0d550 <main+0xd550>
bfc0d524:	00000000 	nop
bfc0d528:	00000021 	move	zero,zero
bfc0d52c:	00000021 	move	zero,zero
bfc0d530:	00000021 	move	zero,zero
bfc0d534:	00000021 	move	zero,zero
bfc0d538:	00000021 	move	zero,zero
bfc0d53c:	00000021 	move	zero,zero
bfc0d540:	00000021 	move	zero,zero
bfc0d544:	00000021 	move	zero,zero
bfc0d548:	3c128f89 	lui	s2,0x8f89
bfc0d54c:	36522ee0 	ori	s2,s2,0x2ee0
bfc0d550:	00000000 	nop
bfc0d554:	3c14f267 	lui	s4,0xf267
bfc0d558:	36948f0c 	ori	s4,s4,0x8f0c
bfc0d55c:	16140a22 	bne	s0,s4,bfc0fde8 <inst_error>
bfc0d560:	00000000 	nop
bfc0d564:	3c158f89 	lui	s5,0x8f89
bfc0d568:	36b52ee0 	ori	s5,s5,0x2ee0
bfc0d56c:	16550a1e 	bne	s2,s5,bfc0fde8 <inst_error>
bfc0d570:	00000000 	nop
bfc0d574:	3c0cec70 	lui	t4,0xec70
bfc0d578:	358cc6b8 	ori	t4,t4,0xc6b8
bfc0d57c:	3c0d955f 	lui	t5,0x955f
bfc0d580:	35ad2bd8 	ori	t5,t5,0x2bd8
bfc0d584:	24100000 	li	s0,0
bfc0d588:	24120000 	li	s2,0
bfc0d58c:	10000015 	b	bfc0d5e4 <main+0xd5e4>
bfc0d590:	00000000 	nop
bfc0d594:	3c10ec70 	lui	s0,0xec70
bfc0d598:	3610c6b8 	ori	s0,s0,0xc6b8
bfc0d59c:	15280020 	bne	t1,t0,bfc0d620 <main+0xd620>
bfc0d5a0:	00000000 	nop
bfc0d5a4:	10000020 	b	bfc0d628 <main+0xd628>
bfc0d5a8:	00000000 	nop
bfc0d5ac:	00000021 	move	zero,zero
bfc0d5b0:	00000021 	move	zero,zero
bfc0d5b4:	00000021 	move	zero,zero
bfc0d5b8:	00000021 	move	zero,zero
bfc0d5bc:	00000021 	move	zero,zero
bfc0d5c0:	00000021 	move	zero,zero
bfc0d5c4:	00000021 	move	zero,zero
bfc0d5c8:	00000021 	move	zero,zero
bfc0d5cc:	00000021 	move	zero,zero
bfc0d5d0:	00000021 	move	zero,zero
bfc0d5d4:	00000021 	move	zero,zero
bfc0d5d8:	00000021 	move	zero,zero
bfc0d5dc:	00000021 	move	zero,zero
bfc0d5e0:	00000021 	move	zero,zero
bfc0d5e4:	24080000 	li	t0,0
bfc0d5e8:	3c09e7c2 	lui	t1,0xe7c2
bfc0d5ec:	352975e6 	ori	t1,t1,0x75e6
bfc0d5f0:	1509ffe8 	bne	t0,t1,bfc0d594 <main+0xd594>
bfc0d5f4:	00000000 	nop
bfc0d5f8:	1000000b 	b	bfc0d628 <main+0xd628>
bfc0d5fc:	00000000 	nop
bfc0d600:	00000021 	move	zero,zero
bfc0d604:	00000021 	move	zero,zero
bfc0d608:	00000021 	move	zero,zero
bfc0d60c:	00000021 	move	zero,zero
bfc0d610:	00000021 	move	zero,zero
bfc0d614:	00000021 	move	zero,zero
bfc0d618:	00000021 	move	zero,zero
bfc0d61c:	00000021 	move	zero,zero
bfc0d620:	3c12955f 	lui	s2,0x955f
bfc0d624:	36522bd8 	ori	s2,s2,0x2bd8
bfc0d628:	00000000 	nop
bfc0d62c:	3c14ec70 	lui	s4,0xec70
bfc0d630:	3694c6b8 	ori	s4,s4,0xc6b8
bfc0d634:	161409ec 	bne	s0,s4,bfc0fde8 <inst_error>
bfc0d638:	00000000 	nop
bfc0d63c:	3c15955f 	lui	s5,0x955f
bfc0d640:	36b52bd8 	ori	s5,s5,0x2bd8
bfc0d644:	165509e8 	bne	s2,s5,bfc0fde8 <inst_error>
bfc0d648:	00000000 	nop
bfc0d64c:	3c0c2851 	lui	t4,0x2851
bfc0d650:	358cd82c 	ori	t4,t4,0xd82c
bfc0d654:	3c0d53c3 	lui	t5,0x53c3
bfc0d658:	35ada1e0 	ori	t5,t5,0xa1e0
bfc0d65c:	24100000 	li	s0,0
bfc0d660:	24120000 	li	s2,0
bfc0d664:	10000015 	b	bfc0d6bc <main+0xd6bc>
bfc0d668:	00000000 	nop
bfc0d66c:	3c102851 	lui	s0,0x2851
bfc0d670:	3610d82c 	ori	s0,s0,0xd82c
bfc0d674:	15280020 	bne	t1,t0,bfc0d6f8 <main+0xd6f8>
bfc0d678:	00000000 	nop
bfc0d67c:	10000020 	b	bfc0d700 <main+0xd700>
bfc0d680:	00000000 	nop
bfc0d684:	00000021 	move	zero,zero
bfc0d688:	00000021 	move	zero,zero
bfc0d68c:	00000021 	move	zero,zero
bfc0d690:	00000021 	move	zero,zero
bfc0d694:	00000021 	move	zero,zero
bfc0d698:	00000021 	move	zero,zero
bfc0d69c:	00000021 	move	zero,zero
bfc0d6a0:	00000021 	move	zero,zero
bfc0d6a4:	00000021 	move	zero,zero
bfc0d6a8:	00000021 	move	zero,zero
bfc0d6ac:	00000021 	move	zero,zero
bfc0d6b0:	00000021 	move	zero,zero
bfc0d6b4:	00000021 	move	zero,zero
bfc0d6b8:	00000021 	move	zero,zero
bfc0d6bc:	24080000 	li	t0,0
bfc0d6c0:	3c094235 	lui	t1,0x4235
bfc0d6c4:	35295cf4 	ori	t1,t1,0x5cf4
bfc0d6c8:	1509ffe8 	bne	t0,t1,bfc0d66c <main+0xd66c>
bfc0d6cc:	00000000 	nop
bfc0d6d0:	1000000b 	b	bfc0d700 <main+0xd700>
bfc0d6d4:	00000000 	nop
bfc0d6d8:	00000021 	move	zero,zero
bfc0d6dc:	00000021 	move	zero,zero
bfc0d6e0:	00000021 	move	zero,zero
bfc0d6e4:	00000021 	move	zero,zero
bfc0d6e8:	00000021 	move	zero,zero
bfc0d6ec:	00000021 	move	zero,zero
bfc0d6f0:	00000021 	move	zero,zero
bfc0d6f4:	00000021 	move	zero,zero
bfc0d6f8:	3c1253c3 	lui	s2,0x53c3
bfc0d6fc:	3652a1e0 	ori	s2,s2,0xa1e0
bfc0d700:	00000000 	nop
bfc0d704:	3c142851 	lui	s4,0x2851
bfc0d708:	3694d82c 	ori	s4,s4,0xd82c
bfc0d70c:	161409b6 	bne	s0,s4,bfc0fde8 <inst_error>
bfc0d710:	00000000 	nop
bfc0d714:	3c1553c3 	lui	s5,0x53c3
bfc0d718:	36b5a1e0 	ori	s5,s5,0xa1e0
bfc0d71c:	165509b2 	bne	s2,s5,bfc0fde8 <inst_error>
bfc0d720:	00000000 	nop
bfc0d724:	3c0c2a5b 	lui	t4,0x2a5b
bfc0d728:	358c1ca0 	ori	t4,t4,0x1ca0
bfc0d72c:	3c0d0c79 	lui	t5,0xc79
bfc0d730:	35ad8620 	ori	t5,t5,0x8620
bfc0d734:	24100000 	li	s0,0
bfc0d738:	24120000 	li	s2,0
bfc0d73c:	10000015 	b	bfc0d794 <main+0xd794>
bfc0d740:	00000000 	nop
bfc0d744:	3c102a5b 	lui	s0,0x2a5b
bfc0d748:	36101ca0 	ori	s0,s0,0x1ca0
bfc0d74c:	15280020 	bne	t1,t0,bfc0d7d0 <main+0xd7d0>
bfc0d750:	00000000 	nop
bfc0d754:	10000020 	b	bfc0d7d8 <main+0xd7d8>
bfc0d758:	00000000 	nop
bfc0d75c:	00000021 	move	zero,zero
bfc0d760:	00000021 	move	zero,zero
bfc0d764:	00000021 	move	zero,zero
bfc0d768:	00000021 	move	zero,zero
bfc0d76c:	00000021 	move	zero,zero
bfc0d770:	00000021 	move	zero,zero
bfc0d774:	00000021 	move	zero,zero
bfc0d778:	00000021 	move	zero,zero
bfc0d77c:	00000021 	move	zero,zero
bfc0d780:	00000021 	move	zero,zero
bfc0d784:	00000021 	move	zero,zero
bfc0d788:	00000021 	move	zero,zero
bfc0d78c:	00000021 	move	zero,zero
bfc0d790:	00000021 	move	zero,zero
bfc0d794:	24080000 	li	t0,0
bfc0d798:	3c09ab66 	lui	t1,0xab66
bfc0d79c:	352936d5 	ori	t1,t1,0x36d5
bfc0d7a0:	1509ffe8 	bne	t0,t1,bfc0d744 <main+0xd744>
bfc0d7a4:	00000000 	nop
bfc0d7a8:	1000000b 	b	bfc0d7d8 <main+0xd7d8>
bfc0d7ac:	00000000 	nop
bfc0d7b0:	00000021 	move	zero,zero
bfc0d7b4:	00000021 	move	zero,zero
bfc0d7b8:	00000021 	move	zero,zero
bfc0d7bc:	00000021 	move	zero,zero
bfc0d7c0:	00000021 	move	zero,zero
bfc0d7c4:	00000021 	move	zero,zero
bfc0d7c8:	00000021 	move	zero,zero
bfc0d7cc:	00000021 	move	zero,zero
bfc0d7d0:	3c120c79 	lui	s2,0xc79
bfc0d7d4:	36528620 	ori	s2,s2,0x8620
bfc0d7d8:	00000000 	nop
bfc0d7dc:	3c142a5b 	lui	s4,0x2a5b
bfc0d7e0:	36941ca0 	ori	s4,s4,0x1ca0
bfc0d7e4:	16140980 	bne	s0,s4,bfc0fde8 <inst_error>
bfc0d7e8:	00000000 	nop
bfc0d7ec:	3c150c79 	lui	s5,0xc79
bfc0d7f0:	36b58620 	ori	s5,s5,0x8620
bfc0d7f4:	1655097c 	bne	s2,s5,bfc0fde8 <inst_error>
bfc0d7f8:	00000000 	nop
bfc0d7fc:	3c0cfd63 	lui	t4,0xfd63
bfc0d800:	358cb29c 	ori	t4,t4,0xb29c
bfc0d804:	3c0dd3a2 	lui	t5,0xd3a2
bfc0d808:	35ad2562 	ori	t5,t5,0x2562
bfc0d80c:	24100000 	li	s0,0
bfc0d810:	24120000 	li	s2,0
bfc0d814:	10000015 	b	bfc0d86c <main+0xd86c>
bfc0d818:	00000000 	nop
bfc0d81c:	3c10fd63 	lui	s0,0xfd63
bfc0d820:	3610b29c 	ori	s0,s0,0xb29c
bfc0d824:	15280020 	bne	t1,t0,bfc0d8a8 <main+0xd8a8>
bfc0d828:	00000000 	nop
bfc0d82c:	10000020 	b	bfc0d8b0 <main+0xd8b0>
bfc0d830:	00000000 	nop
bfc0d834:	00000021 	move	zero,zero
bfc0d838:	00000021 	move	zero,zero
bfc0d83c:	00000021 	move	zero,zero
bfc0d840:	00000021 	move	zero,zero
bfc0d844:	00000021 	move	zero,zero
bfc0d848:	00000021 	move	zero,zero
bfc0d84c:	00000021 	move	zero,zero
bfc0d850:	00000021 	move	zero,zero
bfc0d854:	00000021 	move	zero,zero
bfc0d858:	00000021 	move	zero,zero
bfc0d85c:	00000021 	move	zero,zero
bfc0d860:	00000021 	move	zero,zero
bfc0d864:	00000021 	move	zero,zero
bfc0d868:	00000021 	move	zero,zero
bfc0d86c:	24080000 	li	t0,0
bfc0d870:	3c092526 	lui	t1,0x2526
bfc0d874:	3529c610 	ori	t1,t1,0xc610
bfc0d878:	1509ffe8 	bne	t0,t1,bfc0d81c <main+0xd81c>
bfc0d87c:	00000000 	nop
bfc0d880:	1000000b 	b	bfc0d8b0 <main+0xd8b0>
bfc0d884:	00000000 	nop
bfc0d888:	00000021 	move	zero,zero
bfc0d88c:	00000021 	move	zero,zero
bfc0d890:	00000021 	move	zero,zero
bfc0d894:	00000021 	move	zero,zero
bfc0d898:	00000021 	move	zero,zero
bfc0d89c:	00000021 	move	zero,zero
bfc0d8a0:	00000021 	move	zero,zero
bfc0d8a4:	00000021 	move	zero,zero
bfc0d8a8:	3c12d3a2 	lui	s2,0xd3a2
bfc0d8ac:	36522562 	ori	s2,s2,0x2562
bfc0d8b0:	00000000 	nop
bfc0d8b4:	3c14fd63 	lui	s4,0xfd63
bfc0d8b8:	3694b29c 	ori	s4,s4,0xb29c
bfc0d8bc:	1614094a 	bne	s0,s4,bfc0fde8 <inst_error>
bfc0d8c0:	00000000 	nop
bfc0d8c4:	3c15d3a2 	lui	s5,0xd3a2
bfc0d8c8:	36b52562 	ori	s5,s5,0x2562
bfc0d8cc:	16550946 	bne	s2,s5,bfc0fde8 <inst_error>
bfc0d8d0:	00000000 	nop
bfc0d8d4:	3c0cc689 	lui	t4,0xc689
bfc0d8d8:	358c9028 	ori	t4,t4,0x9028
bfc0d8dc:	3c0dedce 	lui	t5,0xedce
bfc0d8e0:	35ad3230 	ori	t5,t5,0x3230
bfc0d8e4:	24100000 	li	s0,0
bfc0d8e8:	24120000 	li	s2,0
bfc0d8ec:	10000015 	b	bfc0d944 <main+0xd944>
bfc0d8f0:	00000000 	nop
bfc0d8f4:	3c10c689 	lui	s0,0xc689
bfc0d8f8:	36109028 	ori	s0,s0,0x9028
bfc0d8fc:	15280020 	bne	t1,t0,bfc0d980 <main+0xd980>
bfc0d900:	00000000 	nop
bfc0d904:	10000020 	b	bfc0d988 <main+0xd988>
bfc0d908:	00000000 	nop
bfc0d90c:	00000021 	move	zero,zero
bfc0d910:	00000021 	move	zero,zero
bfc0d914:	00000021 	move	zero,zero
bfc0d918:	00000021 	move	zero,zero
bfc0d91c:	00000021 	move	zero,zero
bfc0d920:	00000021 	move	zero,zero
bfc0d924:	00000021 	move	zero,zero
bfc0d928:	00000021 	move	zero,zero
bfc0d92c:	00000021 	move	zero,zero
bfc0d930:	00000021 	move	zero,zero
bfc0d934:	00000021 	move	zero,zero
bfc0d938:	00000021 	move	zero,zero
bfc0d93c:	00000021 	move	zero,zero
bfc0d940:	00000021 	move	zero,zero
bfc0d944:	24080000 	li	t0,0
bfc0d948:	3c09f64a 	lui	t1,0xf64a
bfc0d94c:	35291200 	ori	t1,t1,0x1200
bfc0d950:	1509ffe8 	bne	t0,t1,bfc0d8f4 <main+0xd8f4>
bfc0d954:	00000000 	nop
bfc0d958:	1000000b 	b	bfc0d988 <main+0xd988>
bfc0d95c:	00000000 	nop
bfc0d960:	00000021 	move	zero,zero
bfc0d964:	00000021 	move	zero,zero
bfc0d968:	00000021 	move	zero,zero
bfc0d96c:	00000021 	move	zero,zero
bfc0d970:	00000021 	move	zero,zero
bfc0d974:	00000021 	move	zero,zero
bfc0d978:	00000021 	move	zero,zero
bfc0d97c:	00000021 	move	zero,zero
bfc0d980:	3c12edce 	lui	s2,0xedce
bfc0d984:	36523230 	ori	s2,s2,0x3230
bfc0d988:	00000000 	nop
bfc0d98c:	3c14c689 	lui	s4,0xc689
bfc0d990:	36949028 	ori	s4,s4,0x9028
bfc0d994:	16140914 	bne	s0,s4,bfc0fde8 <inst_error>
bfc0d998:	00000000 	nop
bfc0d99c:	3c15edce 	lui	s5,0xedce
bfc0d9a0:	36b53230 	ori	s5,s5,0x3230
bfc0d9a4:	16550910 	bne	s2,s5,bfc0fde8 <inst_error>
bfc0d9a8:	00000000 	nop
bfc0d9ac:	3c0c549a 	lui	t4,0x549a
bfc0d9b0:	358cb500 	ori	t4,t4,0xb500
bfc0d9b4:	3c0d16da 	lui	t5,0x16da
bfc0d9b8:	35ada7f0 	ori	t5,t5,0xa7f0
bfc0d9bc:	24100000 	li	s0,0
bfc0d9c0:	24120000 	li	s2,0
bfc0d9c4:	10000015 	b	bfc0da1c <main+0xda1c>
bfc0d9c8:	00000000 	nop
bfc0d9cc:	3c10549a 	lui	s0,0x549a
bfc0d9d0:	3610b500 	ori	s0,s0,0xb500
bfc0d9d4:	15280020 	bne	t1,t0,bfc0da58 <main+0xda58>
bfc0d9d8:	00000000 	nop
bfc0d9dc:	10000020 	b	bfc0da60 <main+0xda60>
bfc0d9e0:	00000000 	nop
bfc0d9e4:	00000021 	move	zero,zero
bfc0d9e8:	00000021 	move	zero,zero
bfc0d9ec:	00000021 	move	zero,zero
bfc0d9f0:	00000021 	move	zero,zero
bfc0d9f4:	00000021 	move	zero,zero
bfc0d9f8:	00000021 	move	zero,zero
bfc0d9fc:	00000021 	move	zero,zero
bfc0da00:	00000021 	move	zero,zero
bfc0da04:	00000021 	move	zero,zero
bfc0da08:	00000021 	move	zero,zero
bfc0da0c:	00000021 	move	zero,zero
bfc0da10:	00000021 	move	zero,zero
bfc0da14:	00000021 	move	zero,zero
bfc0da18:	00000021 	move	zero,zero
bfc0da1c:	24080000 	li	t0,0
bfc0da20:	3c09d84b 	lui	t1,0xd84b
bfc0da24:	35295b98 	ori	t1,t1,0x5b98
bfc0da28:	1509ffe8 	bne	t0,t1,bfc0d9cc <main+0xd9cc>
bfc0da2c:	00000000 	nop
bfc0da30:	1000000b 	b	bfc0da60 <main+0xda60>
bfc0da34:	00000000 	nop
bfc0da38:	00000021 	move	zero,zero
bfc0da3c:	00000021 	move	zero,zero
bfc0da40:	00000021 	move	zero,zero
bfc0da44:	00000021 	move	zero,zero
bfc0da48:	00000021 	move	zero,zero
bfc0da4c:	00000021 	move	zero,zero
bfc0da50:	00000021 	move	zero,zero
bfc0da54:	00000021 	move	zero,zero
bfc0da58:	3c1216da 	lui	s2,0x16da
bfc0da5c:	3652a7f0 	ori	s2,s2,0xa7f0
bfc0da60:	00000000 	nop
bfc0da64:	3c14549a 	lui	s4,0x549a
bfc0da68:	3694b500 	ori	s4,s4,0xb500
bfc0da6c:	161408de 	bne	s0,s4,bfc0fde8 <inst_error>
bfc0da70:	00000000 	nop
bfc0da74:	3c1516da 	lui	s5,0x16da
bfc0da78:	36b5a7f0 	ori	s5,s5,0xa7f0
bfc0da7c:	165508da 	bne	s2,s5,bfc0fde8 <inst_error>
bfc0da80:	00000000 	nop
bfc0da84:	3c0c154a 	lui	t4,0x154a
bfc0da88:	358c0340 	ori	t4,t4,0x340
bfc0da8c:	3c0d339b 	lui	t5,0x339b
bfc0da90:	35ad44d6 	ori	t5,t5,0x44d6
bfc0da94:	24100000 	li	s0,0
bfc0da98:	24120000 	li	s2,0
bfc0da9c:	10000015 	b	bfc0daf4 <main+0xdaf4>
bfc0daa0:	00000000 	nop
bfc0daa4:	3c10154a 	lui	s0,0x154a
bfc0daa8:	36100340 	ori	s0,s0,0x340
bfc0daac:	15280020 	bne	t1,t0,bfc0db30 <main+0xdb30>
bfc0dab0:	00000000 	nop
bfc0dab4:	10000020 	b	bfc0db38 <main+0xdb38>
bfc0dab8:	00000000 	nop
bfc0dabc:	00000021 	move	zero,zero
bfc0dac0:	00000021 	move	zero,zero
bfc0dac4:	00000021 	move	zero,zero
bfc0dac8:	00000021 	move	zero,zero
bfc0dacc:	00000021 	move	zero,zero
bfc0dad0:	00000021 	move	zero,zero
bfc0dad4:	00000021 	move	zero,zero
bfc0dad8:	00000021 	move	zero,zero
bfc0dadc:	00000021 	move	zero,zero
bfc0dae0:	00000021 	move	zero,zero
bfc0dae4:	00000021 	move	zero,zero
bfc0dae8:	00000021 	move	zero,zero
bfc0daec:	00000021 	move	zero,zero
bfc0daf0:	00000021 	move	zero,zero
bfc0daf4:	24080000 	li	t0,0
bfc0daf8:	3c09aaeb 	lui	t1,0xaaeb
bfc0dafc:	3529992c 	ori	t1,t1,0x992c
bfc0db00:	1509ffe8 	bne	t0,t1,bfc0daa4 <main+0xdaa4>
bfc0db04:	00000000 	nop
bfc0db08:	1000000b 	b	bfc0db38 <main+0xdb38>
bfc0db0c:	00000000 	nop
bfc0db10:	00000021 	move	zero,zero
bfc0db14:	00000021 	move	zero,zero
bfc0db18:	00000021 	move	zero,zero
bfc0db1c:	00000021 	move	zero,zero
bfc0db20:	00000021 	move	zero,zero
bfc0db24:	00000021 	move	zero,zero
bfc0db28:	00000021 	move	zero,zero
bfc0db2c:	00000021 	move	zero,zero
bfc0db30:	3c12339b 	lui	s2,0x339b
bfc0db34:	365244d6 	ori	s2,s2,0x44d6
bfc0db38:	00000000 	nop
bfc0db3c:	3c14154a 	lui	s4,0x154a
bfc0db40:	36940340 	ori	s4,s4,0x340
bfc0db44:	161408a8 	bne	s0,s4,bfc0fde8 <inst_error>
bfc0db48:	00000000 	nop
bfc0db4c:	3c15339b 	lui	s5,0x339b
bfc0db50:	36b544d6 	ori	s5,s5,0x44d6
bfc0db54:	165508a4 	bne	s2,s5,bfc0fde8 <inst_error>
bfc0db58:	00000000 	nop
bfc0db5c:	3c0c740b 	lui	t4,0x740b
bfc0db60:	358c3cb4 	ori	t4,t4,0x3cb4
bfc0db64:	3c0dd634 	lui	t5,0xd634
bfc0db68:	35ad2340 	ori	t5,t5,0x2340
bfc0db6c:	24100000 	li	s0,0
bfc0db70:	24120000 	li	s2,0
bfc0db74:	10000015 	b	bfc0dbcc <main+0xdbcc>
bfc0db78:	00000000 	nop
bfc0db7c:	3c10740b 	lui	s0,0x740b
bfc0db80:	36103cb4 	ori	s0,s0,0x3cb4
bfc0db84:	15280020 	bne	t1,t0,bfc0dc08 <main+0xdc08>
bfc0db88:	00000000 	nop
bfc0db8c:	10000020 	b	bfc0dc10 <main+0xdc10>
bfc0db90:	00000000 	nop
bfc0db94:	00000021 	move	zero,zero
bfc0db98:	00000021 	move	zero,zero
bfc0db9c:	00000021 	move	zero,zero
bfc0dba0:	00000021 	move	zero,zero
bfc0dba4:	00000021 	move	zero,zero
bfc0dba8:	00000021 	move	zero,zero
bfc0dbac:	00000021 	move	zero,zero
bfc0dbb0:	00000021 	move	zero,zero
bfc0dbb4:	00000021 	move	zero,zero
bfc0dbb8:	00000021 	move	zero,zero
bfc0dbbc:	00000021 	move	zero,zero
bfc0dbc0:	00000021 	move	zero,zero
bfc0dbc4:	00000021 	move	zero,zero
bfc0dbc8:	00000021 	move	zero,zero
bfc0dbcc:	24080000 	li	t0,0
bfc0dbd0:	3c09a352 	lui	t1,0xa352
bfc0dbd4:	35293878 	ori	t1,t1,0x3878
bfc0dbd8:	1509ffe8 	bne	t0,t1,bfc0db7c <main+0xdb7c>
bfc0dbdc:	00000000 	nop
bfc0dbe0:	1000000b 	b	bfc0dc10 <main+0xdc10>
bfc0dbe4:	00000000 	nop
bfc0dbe8:	00000021 	move	zero,zero
bfc0dbec:	00000021 	move	zero,zero
bfc0dbf0:	00000021 	move	zero,zero
bfc0dbf4:	00000021 	move	zero,zero
bfc0dbf8:	00000021 	move	zero,zero
bfc0dbfc:	00000021 	move	zero,zero
bfc0dc00:	00000021 	move	zero,zero
bfc0dc04:	00000021 	move	zero,zero
bfc0dc08:	3c12d634 	lui	s2,0xd634
bfc0dc0c:	36522340 	ori	s2,s2,0x2340
bfc0dc10:	00000000 	nop
bfc0dc14:	3c14740b 	lui	s4,0x740b
bfc0dc18:	36943cb4 	ori	s4,s4,0x3cb4
bfc0dc1c:	16140872 	bne	s0,s4,bfc0fde8 <inst_error>
bfc0dc20:	00000000 	nop
bfc0dc24:	3c15d634 	lui	s5,0xd634
bfc0dc28:	36b52340 	ori	s5,s5,0x2340
bfc0dc2c:	1655086e 	bne	s2,s5,bfc0fde8 <inst_error>
bfc0dc30:	00000000 	nop
bfc0dc34:	3c0c638e 	lui	t4,0x638e
bfc0dc38:	358c01f7 	ori	t4,t4,0x1f7
bfc0dc3c:	3c0d30b6 	lui	t5,0x30b6
bfc0dc40:	35adc750 	ori	t5,t5,0xc750
bfc0dc44:	24100000 	li	s0,0
bfc0dc48:	24120000 	li	s2,0
bfc0dc4c:	10000015 	b	bfc0dca4 <main+0xdca4>
bfc0dc50:	00000000 	nop
bfc0dc54:	3c10638e 	lui	s0,0x638e
bfc0dc58:	361001f7 	ori	s0,s0,0x1f7
bfc0dc5c:	15280020 	bne	t1,t0,bfc0dce0 <main+0xdce0>
bfc0dc60:	00000000 	nop
bfc0dc64:	10000020 	b	bfc0dce8 <main+0xdce8>
bfc0dc68:	00000000 	nop
bfc0dc6c:	00000021 	move	zero,zero
bfc0dc70:	00000021 	move	zero,zero
bfc0dc74:	00000021 	move	zero,zero
bfc0dc78:	00000021 	move	zero,zero
bfc0dc7c:	00000021 	move	zero,zero
bfc0dc80:	00000021 	move	zero,zero
bfc0dc84:	00000021 	move	zero,zero
bfc0dc88:	00000021 	move	zero,zero
bfc0dc8c:	00000021 	move	zero,zero
bfc0dc90:	00000021 	move	zero,zero
bfc0dc94:	00000021 	move	zero,zero
bfc0dc98:	00000021 	move	zero,zero
bfc0dc9c:	00000021 	move	zero,zero
bfc0dca0:	00000021 	move	zero,zero
bfc0dca4:	24080000 	li	t0,0
bfc0dca8:	3c09f701 	lui	t1,0xf701
bfc0dcac:	35295a40 	ori	t1,t1,0x5a40
bfc0dcb0:	1509ffe8 	bne	t0,t1,bfc0dc54 <main+0xdc54>
bfc0dcb4:	00000000 	nop
bfc0dcb8:	1000000b 	b	bfc0dce8 <main+0xdce8>
bfc0dcbc:	00000000 	nop
bfc0dcc0:	00000021 	move	zero,zero
bfc0dcc4:	00000021 	move	zero,zero
bfc0dcc8:	00000021 	move	zero,zero
bfc0dccc:	00000021 	move	zero,zero
bfc0dcd0:	00000021 	move	zero,zero
bfc0dcd4:	00000021 	move	zero,zero
bfc0dcd8:	00000021 	move	zero,zero
bfc0dcdc:	00000021 	move	zero,zero
bfc0dce0:	3c1230b6 	lui	s2,0x30b6
bfc0dce4:	3652c750 	ori	s2,s2,0xc750
bfc0dce8:	00000000 	nop
bfc0dcec:	3c14638e 	lui	s4,0x638e
bfc0dcf0:	369401f7 	ori	s4,s4,0x1f7
bfc0dcf4:	1614083c 	bne	s0,s4,bfc0fde8 <inst_error>
bfc0dcf8:	00000000 	nop
bfc0dcfc:	3c1530b6 	lui	s5,0x30b6
bfc0dd00:	36b5c750 	ori	s5,s5,0xc750
bfc0dd04:	16550838 	bne	s2,s5,bfc0fde8 <inst_error>
bfc0dd08:	00000000 	nop
bfc0dd0c:	3c0c0e54 	lui	t4,0xe54
bfc0dd10:	358c3812 	ori	t4,t4,0x3812
bfc0dd14:	3c0da87b 	lui	t5,0xa87b
bfc0dd18:	35ad4680 	ori	t5,t5,0x4680
bfc0dd1c:	24100000 	li	s0,0
bfc0dd20:	24120000 	li	s2,0
bfc0dd24:	10000015 	b	bfc0dd7c <main+0xdd7c>
bfc0dd28:	00000000 	nop
bfc0dd2c:	3c100e54 	lui	s0,0xe54
bfc0dd30:	36103812 	ori	s0,s0,0x3812
bfc0dd34:	15280020 	bne	t1,t0,bfc0ddb8 <main+0xddb8>
bfc0dd38:	00000000 	nop
bfc0dd3c:	10000020 	b	bfc0ddc0 <main+0xddc0>
bfc0dd40:	00000000 	nop
bfc0dd44:	00000021 	move	zero,zero
bfc0dd48:	00000021 	move	zero,zero
bfc0dd4c:	00000021 	move	zero,zero
bfc0dd50:	00000021 	move	zero,zero
bfc0dd54:	00000021 	move	zero,zero
bfc0dd58:	00000021 	move	zero,zero
bfc0dd5c:	00000021 	move	zero,zero
bfc0dd60:	00000021 	move	zero,zero
bfc0dd64:	00000021 	move	zero,zero
bfc0dd68:	00000021 	move	zero,zero
bfc0dd6c:	00000021 	move	zero,zero
bfc0dd70:	00000021 	move	zero,zero
bfc0dd74:	00000021 	move	zero,zero
bfc0dd78:	00000021 	move	zero,zero
bfc0dd7c:	24080000 	li	t0,0
bfc0dd80:	3c090eb0 	lui	t1,0xeb0
bfc0dd84:	35290ec0 	ori	t1,t1,0xec0
bfc0dd88:	1509ffe8 	bne	t0,t1,bfc0dd2c <main+0xdd2c>
bfc0dd8c:	00000000 	nop
bfc0dd90:	1000000b 	b	bfc0ddc0 <main+0xddc0>
bfc0dd94:	00000000 	nop
bfc0dd98:	00000021 	move	zero,zero
bfc0dd9c:	00000021 	move	zero,zero
bfc0dda0:	00000021 	move	zero,zero
bfc0dda4:	00000021 	move	zero,zero
bfc0dda8:	00000021 	move	zero,zero
bfc0ddac:	00000021 	move	zero,zero
bfc0ddb0:	00000021 	move	zero,zero
bfc0ddb4:	00000021 	move	zero,zero
bfc0ddb8:	3c12a87b 	lui	s2,0xa87b
bfc0ddbc:	36524680 	ori	s2,s2,0x4680
bfc0ddc0:	00000000 	nop
bfc0ddc4:	3c140e54 	lui	s4,0xe54
bfc0ddc8:	36943812 	ori	s4,s4,0x3812
bfc0ddcc:	16140806 	bne	s0,s4,bfc0fde8 <inst_error>
bfc0ddd0:	00000000 	nop
bfc0ddd4:	3c15a87b 	lui	s5,0xa87b
bfc0ddd8:	36b54680 	ori	s5,s5,0x4680
bfc0dddc:	16550802 	bne	s2,s5,bfc0fde8 <inst_error>
bfc0dde0:	00000000 	nop
bfc0dde4:	3c0c5623 	lui	t4,0x5623
bfc0dde8:	358c7fe8 	ori	t4,t4,0x7fe8
bfc0ddec:	3c0d4765 	lui	t5,0x4765
bfc0ddf0:	35ad13e2 	ori	t5,t5,0x13e2
bfc0ddf4:	24100000 	li	s0,0
bfc0ddf8:	24120000 	li	s2,0
bfc0ddfc:	10000015 	b	bfc0de54 <main+0xde54>
bfc0de00:	00000000 	nop
bfc0de04:	3c105623 	lui	s0,0x5623
bfc0de08:	36107fe8 	ori	s0,s0,0x7fe8
bfc0de0c:	15280020 	bne	t1,t0,bfc0de90 <main+0xde90>
bfc0de10:	00000000 	nop
bfc0de14:	10000020 	b	bfc0de98 <main+0xde98>
bfc0de18:	00000000 	nop
bfc0de1c:	00000021 	move	zero,zero
bfc0de20:	00000021 	move	zero,zero
bfc0de24:	00000021 	move	zero,zero
bfc0de28:	00000021 	move	zero,zero
bfc0de2c:	00000021 	move	zero,zero
bfc0de30:	00000021 	move	zero,zero
bfc0de34:	00000021 	move	zero,zero
bfc0de38:	00000021 	move	zero,zero
bfc0de3c:	00000021 	move	zero,zero
bfc0de40:	00000021 	move	zero,zero
bfc0de44:	00000021 	move	zero,zero
bfc0de48:	00000021 	move	zero,zero
bfc0de4c:	00000021 	move	zero,zero
bfc0de50:	00000021 	move	zero,zero
bfc0de54:	24080000 	li	t0,0
bfc0de58:	3c09f683 	lui	t1,0xf683
bfc0de5c:	35298110 	ori	t1,t1,0x8110
bfc0de60:	1509ffe8 	bne	t0,t1,bfc0de04 <main+0xde04>
bfc0de64:	00000000 	nop
bfc0de68:	1000000b 	b	bfc0de98 <main+0xde98>
bfc0de6c:	00000000 	nop
bfc0de70:	00000021 	move	zero,zero
bfc0de74:	00000021 	move	zero,zero
bfc0de78:	00000021 	move	zero,zero
bfc0de7c:	00000021 	move	zero,zero
bfc0de80:	00000021 	move	zero,zero
bfc0de84:	00000021 	move	zero,zero
bfc0de88:	00000021 	move	zero,zero
bfc0de8c:	00000021 	move	zero,zero
bfc0de90:	3c124765 	lui	s2,0x4765
bfc0de94:	365213e2 	ori	s2,s2,0x13e2
bfc0de98:	00000000 	nop
bfc0de9c:	3c145623 	lui	s4,0x5623
bfc0dea0:	36947fe8 	ori	s4,s4,0x7fe8
bfc0dea4:	161407d0 	bne	s0,s4,bfc0fde8 <inst_error>
bfc0dea8:	00000000 	nop
bfc0deac:	3c154765 	lui	s5,0x4765
bfc0deb0:	36b513e2 	ori	s5,s5,0x13e2
bfc0deb4:	165507cc 	bne	s2,s5,bfc0fde8 <inst_error>
bfc0deb8:	00000000 	nop
bfc0debc:	3c0c23d8 	lui	t4,0x23d8
bfc0dec0:	358ce5c8 	ori	t4,t4,0xe5c8
bfc0dec4:	3c0d07ab 	lui	t5,0x7ab
bfc0dec8:	35ad1cc4 	ori	t5,t5,0x1cc4
bfc0decc:	24100000 	li	s0,0
bfc0ded0:	24120000 	li	s2,0
bfc0ded4:	10000015 	b	bfc0df2c <main+0xdf2c>
bfc0ded8:	00000000 	nop
bfc0dedc:	3c1023d8 	lui	s0,0x23d8
bfc0dee0:	3610e5c8 	ori	s0,s0,0xe5c8
bfc0dee4:	15280020 	bne	t1,t0,bfc0df68 <main+0xdf68>
bfc0dee8:	00000000 	nop
bfc0deec:	10000020 	b	bfc0df70 <main+0xdf70>
bfc0def0:	00000000 	nop
bfc0def4:	00000021 	move	zero,zero
bfc0def8:	00000021 	move	zero,zero
bfc0defc:	00000021 	move	zero,zero
bfc0df00:	00000021 	move	zero,zero
bfc0df04:	00000021 	move	zero,zero
bfc0df08:	00000021 	move	zero,zero
bfc0df0c:	00000021 	move	zero,zero
bfc0df10:	00000021 	move	zero,zero
bfc0df14:	00000021 	move	zero,zero
bfc0df18:	00000021 	move	zero,zero
bfc0df1c:	00000021 	move	zero,zero
bfc0df20:	00000021 	move	zero,zero
bfc0df24:	00000021 	move	zero,zero
bfc0df28:	00000021 	move	zero,zero
bfc0df2c:	24080000 	li	t0,0
bfc0df30:	3c09e795 	lui	t1,0xe795
bfc0df34:	3529f452 	ori	t1,t1,0xf452
bfc0df38:	1509ffe8 	bne	t0,t1,bfc0dedc <main+0xdedc>
bfc0df3c:	00000000 	nop
bfc0df40:	1000000b 	b	bfc0df70 <main+0xdf70>
bfc0df44:	00000000 	nop
bfc0df48:	00000021 	move	zero,zero
bfc0df4c:	00000021 	move	zero,zero
bfc0df50:	00000021 	move	zero,zero
bfc0df54:	00000021 	move	zero,zero
bfc0df58:	00000021 	move	zero,zero
bfc0df5c:	00000021 	move	zero,zero
bfc0df60:	00000021 	move	zero,zero
bfc0df64:	00000021 	move	zero,zero
bfc0df68:	3c1207ab 	lui	s2,0x7ab
bfc0df6c:	36521cc4 	ori	s2,s2,0x1cc4
bfc0df70:	00000000 	nop
bfc0df74:	3c1423d8 	lui	s4,0x23d8
bfc0df78:	3694e5c8 	ori	s4,s4,0xe5c8
bfc0df7c:	1614079a 	bne	s0,s4,bfc0fde8 <inst_error>
bfc0df80:	00000000 	nop
bfc0df84:	3c1507ab 	lui	s5,0x7ab
bfc0df88:	36b51cc4 	ori	s5,s5,0x1cc4
bfc0df8c:	16550796 	bne	s2,s5,bfc0fde8 <inst_error>
bfc0df90:	00000000 	nop
bfc0df94:	3c0ccf48 	lui	t4,0xcf48
bfc0df98:	358c071c 	ori	t4,t4,0x71c
bfc0df9c:	3c0d7df4 	lui	t5,0x7df4
bfc0dfa0:	35ad192c 	ori	t5,t5,0x192c
bfc0dfa4:	24100000 	li	s0,0
bfc0dfa8:	24120000 	li	s2,0
bfc0dfac:	10000015 	b	bfc0e004 <main+0xe004>
bfc0dfb0:	00000000 	nop
bfc0dfb4:	3c10cf48 	lui	s0,0xcf48
bfc0dfb8:	3610071c 	ori	s0,s0,0x71c
bfc0dfbc:	15280020 	bne	t1,t0,bfc0e040 <main+0xe040>
bfc0dfc0:	00000000 	nop
bfc0dfc4:	10000020 	b	bfc0e048 <main+0xe048>
bfc0dfc8:	00000000 	nop
bfc0dfcc:	00000021 	move	zero,zero
bfc0dfd0:	00000021 	move	zero,zero
bfc0dfd4:	00000021 	move	zero,zero
bfc0dfd8:	00000021 	move	zero,zero
bfc0dfdc:	00000021 	move	zero,zero
bfc0dfe0:	00000021 	move	zero,zero
bfc0dfe4:	00000021 	move	zero,zero
bfc0dfe8:	00000021 	move	zero,zero
bfc0dfec:	00000021 	move	zero,zero
bfc0dff0:	00000021 	move	zero,zero
bfc0dff4:	00000021 	move	zero,zero
bfc0dff8:	00000021 	move	zero,zero
bfc0dffc:	00000021 	move	zero,zero
bfc0e000:	00000021 	move	zero,zero
bfc0e004:	24080000 	li	t0,0
bfc0e008:	3c09bc63 	lui	t1,0xbc63
bfc0e00c:	3529f599 	ori	t1,t1,0xf599
bfc0e010:	1509ffe8 	bne	t0,t1,bfc0dfb4 <main+0xdfb4>
bfc0e014:	00000000 	nop
bfc0e018:	1000000b 	b	bfc0e048 <main+0xe048>
bfc0e01c:	00000000 	nop
bfc0e020:	00000021 	move	zero,zero
bfc0e024:	00000021 	move	zero,zero
bfc0e028:	00000021 	move	zero,zero
bfc0e02c:	00000021 	move	zero,zero
bfc0e030:	00000021 	move	zero,zero
bfc0e034:	00000021 	move	zero,zero
bfc0e038:	00000021 	move	zero,zero
bfc0e03c:	00000021 	move	zero,zero
bfc0e040:	3c127df4 	lui	s2,0x7df4
bfc0e044:	3652192c 	ori	s2,s2,0x192c
bfc0e048:	00000000 	nop
bfc0e04c:	3c14cf48 	lui	s4,0xcf48
bfc0e050:	3694071c 	ori	s4,s4,0x71c
bfc0e054:	16140764 	bne	s0,s4,bfc0fde8 <inst_error>
bfc0e058:	00000000 	nop
bfc0e05c:	3c157df4 	lui	s5,0x7df4
bfc0e060:	36b5192c 	ori	s5,s5,0x192c
bfc0e064:	16550760 	bne	s2,s5,bfc0fde8 <inst_error>
bfc0e068:	00000000 	nop
bfc0e06c:	3c0cfea3 	lui	t4,0xfea3
bfc0e070:	358cd078 	ori	t4,t4,0xd078
bfc0e074:	3c0d2c4b 	lui	t5,0x2c4b
bfc0e078:	35ad1e7c 	ori	t5,t5,0x1e7c
bfc0e07c:	24100000 	li	s0,0
bfc0e080:	24120000 	li	s2,0
bfc0e084:	10000015 	b	bfc0e0dc <main+0xe0dc>
bfc0e088:	00000000 	nop
bfc0e08c:	3c10fea3 	lui	s0,0xfea3
bfc0e090:	3610d078 	ori	s0,s0,0xd078
bfc0e094:	15280020 	bne	t1,t0,bfc0e118 <main+0xe118>
bfc0e098:	00000000 	nop
bfc0e09c:	10000020 	b	bfc0e120 <main+0xe120>
bfc0e0a0:	00000000 	nop
bfc0e0a4:	00000021 	move	zero,zero
bfc0e0a8:	00000021 	move	zero,zero
bfc0e0ac:	00000021 	move	zero,zero
bfc0e0b0:	00000021 	move	zero,zero
bfc0e0b4:	00000021 	move	zero,zero
bfc0e0b8:	00000021 	move	zero,zero
bfc0e0bc:	00000021 	move	zero,zero
bfc0e0c0:	00000021 	move	zero,zero
bfc0e0c4:	00000021 	move	zero,zero
bfc0e0c8:	00000021 	move	zero,zero
bfc0e0cc:	00000021 	move	zero,zero
bfc0e0d0:	00000021 	move	zero,zero
bfc0e0d4:	00000021 	move	zero,zero
bfc0e0d8:	00000021 	move	zero,zero
bfc0e0dc:	24080000 	li	t0,0
bfc0e0e0:	3c09b1aa 	lui	t1,0xb1aa
bfc0e0e4:	35295546 	ori	t1,t1,0x5546
bfc0e0e8:	1509ffe8 	bne	t0,t1,bfc0e08c <main+0xe08c>
bfc0e0ec:	00000000 	nop
bfc0e0f0:	1000000b 	b	bfc0e120 <main+0xe120>
bfc0e0f4:	00000000 	nop
bfc0e0f8:	00000021 	move	zero,zero
bfc0e0fc:	00000021 	move	zero,zero
bfc0e100:	00000021 	move	zero,zero
bfc0e104:	00000021 	move	zero,zero
bfc0e108:	00000021 	move	zero,zero
bfc0e10c:	00000021 	move	zero,zero
bfc0e110:	00000021 	move	zero,zero
bfc0e114:	00000021 	move	zero,zero
bfc0e118:	3c122c4b 	lui	s2,0x2c4b
bfc0e11c:	36521e7c 	ori	s2,s2,0x1e7c
bfc0e120:	00000000 	nop
bfc0e124:	3c14fea3 	lui	s4,0xfea3
bfc0e128:	3694d078 	ori	s4,s4,0xd078
bfc0e12c:	1614072e 	bne	s0,s4,bfc0fde8 <inst_error>
bfc0e130:	00000000 	nop
bfc0e134:	3c152c4b 	lui	s5,0x2c4b
bfc0e138:	36b51e7c 	ori	s5,s5,0x1e7c
bfc0e13c:	1655072a 	bne	s2,s5,bfc0fde8 <inst_error>
bfc0e140:	00000000 	nop
bfc0e144:	3c0c919f 	lui	t4,0x919f
bfc0e148:	358c876c 	ori	t4,t4,0x876c
bfc0e14c:	3c0d2662 	lui	t5,0x2662
bfc0e150:	35ad52a9 	ori	t5,t5,0x52a9
bfc0e154:	24100000 	li	s0,0
bfc0e158:	24120000 	li	s2,0
bfc0e15c:	10000015 	b	bfc0e1b4 <main+0xe1b4>
bfc0e160:	00000000 	nop
bfc0e164:	3c10919f 	lui	s0,0x919f
bfc0e168:	3610876c 	ori	s0,s0,0x876c
bfc0e16c:	15280020 	bne	t1,t0,bfc0e1f0 <main+0xe1f0>
bfc0e170:	00000000 	nop
bfc0e174:	10000020 	b	bfc0e1f8 <main+0xe1f8>
bfc0e178:	00000000 	nop
bfc0e17c:	00000021 	move	zero,zero
bfc0e180:	00000021 	move	zero,zero
bfc0e184:	00000021 	move	zero,zero
bfc0e188:	00000021 	move	zero,zero
bfc0e18c:	00000021 	move	zero,zero
bfc0e190:	00000021 	move	zero,zero
bfc0e194:	00000021 	move	zero,zero
bfc0e198:	00000021 	move	zero,zero
bfc0e19c:	00000021 	move	zero,zero
bfc0e1a0:	00000021 	move	zero,zero
bfc0e1a4:	00000021 	move	zero,zero
bfc0e1a8:	00000021 	move	zero,zero
bfc0e1ac:	00000021 	move	zero,zero
bfc0e1b0:	00000021 	move	zero,zero
bfc0e1b4:	24080000 	li	t0,0
bfc0e1b8:	3c09128a 	lui	t1,0x128a
bfc0e1bc:	352965f0 	ori	t1,t1,0x65f0
bfc0e1c0:	1509ffe8 	bne	t0,t1,bfc0e164 <main+0xe164>
bfc0e1c4:	00000000 	nop
bfc0e1c8:	1000000b 	b	bfc0e1f8 <main+0xe1f8>
bfc0e1cc:	00000000 	nop
bfc0e1d0:	00000021 	move	zero,zero
bfc0e1d4:	00000021 	move	zero,zero
bfc0e1d8:	00000021 	move	zero,zero
bfc0e1dc:	00000021 	move	zero,zero
bfc0e1e0:	00000021 	move	zero,zero
bfc0e1e4:	00000021 	move	zero,zero
bfc0e1e8:	00000021 	move	zero,zero
bfc0e1ec:	00000021 	move	zero,zero
bfc0e1f0:	3c122662 	lui	s2,0x2662
bfc0e1f4:	365252a9 	ori	s2,s2,0x52a9
bfc0e1f8:	00000000 	nop
bfc0e1fc:	3c14919f 	lui	s4,0x919f
bfc0e200:	3694876c 	ori	s4,s4,0x876c
bfc0e204:	161406f8 	bne	s0,s4,bfc0fde8 <inst_error>
bfc0e208:	00000000 	nop
bfc0e20c:	3c152662 	lui	s5,0x2662
bfc0e210:	36b552a9 	ori	s5,s5,0x52a9
bfc0e214:	165506f4 	bne	s2,s5,bfc0fde8 <inst_error>
bfc0e218:	00000000 	nop
bfc0e21c:	3c0ce442 	lui	t4,0xe442
bfc0e220:	358c4a48 	ori	t4,t4,0x4a48
bfc0e224:	3c0dec76 	lui	t5,0xec76
bfc0e228:	35ade8f2 	ori	t5,t5,0xe8f2
bfc0e22c:	24100000 	li	s0,0
bfc0e230:	24120000 	li	s2,0
bfc0e234:	10000015 	b	bfc0e28c <main+0xe28c>
bfc0e238:	00000000 	nop
bfc0e23c:	3c10e442 	lui	s0,0xe442
bfc0e240:	36104a48 	ori	s0,s0,0x4a48
bfc0e244:	15280020 	bne	t1,t0,bfc0e2c8 <main+0xe2c8>
bfc0e248:	00000000 	nop
bfc0e24c:	10000020 	b	bfc0e2d0 <main+0xe2d0>
bfc0e250:	00000000 	nop
bfc0e254:	00000021 	move	zero,zero
bfc0e258:	00000021 	move	zero,zero
bfc0e25c:	00000021 	move	zero,zero
bfc0e260:	00000021 	move	zero,zero
bfc0e264:	00000021 	move	zero,zero
bfc0e268:	00000021 	move	zero,zero
bfc0e26c:	00000021 	move	zero,zero
bfc0e270:	00000021 	move	zero,zero
bfc0e274:	00000021 	move	zero,zero
bfc0e278:	00000021 	move	zero,zero
bfc0e27c:	00000021 	move	zero,zero
bfc0e280:	00000021 	move	zero,zero
bfc0e284:	00000021 	move	zero,zero
bfc0e288:	00000021 	move	zero,zero
bfc0e28c:	24080000 	li	t0,0
bfc0e290:	3c0939ff 	lui	t1,0x39ff
bfc0e294:	3529a438 	ori	t1,t1,0xa438
bfc0e298:	1509ffe8 	bne	t0,t1,bfc0e23c <main+0xe23c>
bfc0e29c:	00000000 	nop
bfc0e2a0:	1000000b 	b	bfc0e2d0 <main+0xe2d0>
bfc0e2a4:	00000000 	nop
bfc0e2a8:	00000021 	move	zero,zero
bfc0e2ac:	00000021 	move	zero,zero
bfc0e2b0:	00000021 	move	zero,zero
bfc0e2b4:	00000021 	move	zero,zero
bfc0e2b8:	00000021 	move	zero,zero
bfc0e2bc:	00000021 	move	zero,zero
bfc0e2c0:	00000021 	move	zero,zero
bfc0e2c4:	00000021 	move	zero,zero
bfc0e2c8:	3c12ec76 	lui	s2,0xec76
bfc0e2cc:	3652e8f2 	ori	s2,s2,0xe8f2
bfc0e2d0:	00000000 	nop
bfc0e2d4:	3c14e442 	lui	s4,0xe442
bfc0e2d8:	36944a48 	ori	s4,s4,0x4a48
bfc0e2dc:	161406c2 	bne	s0,s4,bfc0fde8 <inst_error>
bfc0e2e0:	00000000 	nop
bfc0e2e4:	3c15ec76 	lui	s5,0xec76
bfc0e2e8:	36b5e8f2 	ori	s5,s5,0xe8f2
bfc0e2ec:	165506be 	bne	s2,s5,bfc0fde8 <inst_error>
bfc0e2f0:	00000000 	nop
bfc0e2f4:	3c0cb54e 	lui	t4,0xb54e
bfc0e2f8:	358c7bb0 	ori	t4,t4,0x7bb0
bfc0e2fc:	3c0df288 	lui	t5,0xf288
bfc0e300:	35ade550 	ori	t5,t5,0xe550
bfc0e304:	24100000 	li	s0,0
bfc0e308:	24120000 	li	s2,0
bfc0e30c:	10000015 	b	bfc0e364 <main+0xe364>
bfc0e310:	00000000 	nop
bfc0e314:	3c10b54e 	lui	s0,0xb54e
bfc0e318:	36107bb0 	ori	s0,s0,0x7bb0
bfc0e31c:	15280020 	bne	t1,t0,bfc0e3a0 <main+0xe3a0>
bfc0e320:	00000000 	nop
bfc0e324:	10000020 	b	bfc0e3a8 <main+0xe3a8>
bfc0e328:	00000000 	nop
bfc0e32c:	00000021 	move	zero,zero
bfc0e330:	00000021 	move	zero,zero
bfc0e334:	00000021 	move	zero,zero
bfc0e338:	00000021 	move	zero,zero
bfc0e33c:	00000021 	move	zero,zero
bfc0e340:	00000021 	move	zero,zero
bfc0e344:	00000021 	move	zero,zero
bfc0e348:	00000021 	move	zero,zero
bfc0e34c:	00000021 	move	zero,zero
bfc0e350:	00000021 	move	zero,zero
bfc0e354:	00000021 	move	zero,zero
bfc0e358:	00000021 	move	zero,zero
bfc0e35c:	00000021 	move	zero,zero
bfc0e360:	00000021 	move	zero,zero
bfc0e364:	24080000 	li	t0,0
bfc0e368:	3c094b38 	lui	t1,0x4b38
bfc0e36c:	3529dc00 	ori	t1,t1,0xdc00
bfc0e370:	1509ffe8 	bne	t0,t1,bfc0e314 <main+0xe314>
bfc0e374:	00000000 	nop
bfc0e378:	1000000b 	b	bfc0e3a8 <main+0xe3a8>
bfc0e37c:	00000000 	nop
bfc0e380:	00000021 	move	zero,zero
bfc0e384:	00000021 	move	zero,zero
bfc0e388:	00000021 	move	zero,zero
bfc0e38c:	00000021 	move	zero,zero
bfc0e390:	00000021 	move	zero,zero
bfc0e394:	00000021 	move	zero,zero
bfc0e398:	00000021 	move	zero,zero
bfc0e39c:	00000021 	move	zero,zero
bfc0e3a0:	3c12f288 	lui	s2,0xf288
bfc0e3a4:	3652e550 	ori	s2,s2,0xe550
bfc0e3a8:	00000000 	nop
bfc0e3ac:	3c14b54e 	lui	s4,0xb54e
bfc0e3b0:	36947bb0 	ori	s4,s4,0x7bb0
bfc0e3b4:	1614068c 	bne	s0,s4,bfc0fde8 <inst_error>
bfc0e3b8:	00000000 	nop
bfc0e3bc:	3c15f288 	lui	s5,0xf288
bfc0e3c0:	36b5e550 	ori	s5,s5,0xe550
bfc0e3c4:	16550688 	bne	s2,s5,bfc0fde8 <inst_error>
bfc0e3c8:	00000000 	nop
bfc0e3cc:	3c0ccb1c 	lui	t4,0xcb1c
bfc0e3d0:	358c8a18 	ori	t4,t4,0x8a18
bfc0e3d4:	3c0d30da 	lui	t5,0x30da
bfc0e3d8:	35ad476b 	ori	t5,t5,0x476b
bfc0e3dc:	24100000 	li	s0,0
bfc0e3e0:	24120000 	li	s2,0
bfc0e3e4:	10000015 	b	bfc0e43c <main+0xe43c>
bfc0e3e8:	00000000 	nop
bfc0e3ec:	3c10cb1c 	lui	s0,0xcb1c
bfc0e3f0:	36108a18 	ori	s0,s0,0x8a18
bfc0e3f4:	1528001f 	bne	t1,t0,bfc0e474 <main+0xe474>
bfc0e3f8:	00000000 	nop
bfc0e3fc:	1000001f 	b	bfc0e47c <main+0xe47c>
bfc0e400:	00000000 	nop
bfc0e404:	00000021 	move	zero,zero
bfc0e408:	00000021 	move	zero,zero
bfc0e40c:	00000021 	move	zero,zero
bfc0e410:	00000021 	move	zero,zero
bfc0e414:	00000021 	move	zero,zero
bfc0e418:	00000021 	move	zero,zero
bfc0e41c:	00000021 	move	zero,zero
bfc0e420:	00000021 	move	zero,zero
bfc0e424:	00000021 	move	zero,zero
bfc0e428:	00000021 	move	zero,zero
bfc0e42c:	00000021 	move	zero,zero
bfc0e430:	00000021 	move	zero,zero
bfc0e434:	00000021 	move	zero,zero
bfc0e438:	00000021 	move	zero,zero
bfc0e43c:	24080000 	li	t0,0
bfc0e440:	3c0974a8 	lui	t1,0x74a8
bfc0e444:	1509ffe9 	bne	t0,t1,bfc0e3ec <main+0xe3ec>
bfc0e448:	00000000 	nop
bfc0e44c:	1000000b 	b	bfc0e47c <main+0xe47c>
bfc0e450:	00000000 	nop
bfc0e454:	00000021 	move	zero,zero
bfc0e458:	00000021 	move	zero,zero
bfc0e45c:	00000021 	move	zero,zero
bfc0e460:	00000021 	move	zero,zero
bfc0e464:	00000021 	move	zero,zero
bfc0e468:	00000021 	move	zero,zero
bfc0e46c:	00000021 	move	zero,zero
bfc0e470:	00000021 	move	zero,zero
bfc0e474:	3c1230da 	lui	s2,0x30da
bfc0e478:	3652476b 	ori	s2,s2,0x476b
bfc0e47c:	00000000 	nop
bfc0e480:	3c14cb1c 	lui	s4,0xcb1c
bfc0e484:	36948a18 	ori	s4,s4,0x8a18
bfc0e488:	16140657 	bne	s0,s4,bfc0fde8 <inst_error>
bfc0e48c:	00000000 	nop
bfc0e490:	3c1530da 	lui	s5,0x30da
bfc0e494:	36b5476b 	ori	s5,s5,0x476b
bfc0e498:	16550653 	bne	s2,s5,bfc0fde8 <inst_error>
bfc0e49c:	00000000 	nop
bfc0e4a0:	3c0c1eab 	lui	t4,0x1eab
bfc0e4a4:	358c3fe0 	ori	t4,t4,0x3fe0
bfc0e4a8:	3c0d4de0 	lui	t5,0x4de0
bfc0e4ac:	35ad1ec6 	ori	t5,t5,0x1ec6
bfc0e4b0:	24100000 	li	s0,0
bfc0e4b4:	24120000 	li	s2,0
bfc0e4b8:	10000015 	b	bfc0e510 <main+0xe510>
bfc0e4bc:	00000000 	nop
bfc0e4c0:	3c101eab 	lui	s0,0x1eab
bfc0e4c4:	36103fe0 	ori	s0,s0,0x3fe0
bfc0e4c8:	15280020 	bne	t1,t0,bfc0e54c <main+0xe54c>
bfc0e4cc:	00000000 	nop
bfc0e4d0:	10000020 	b	bfc0e554 <main+0xe554>
bfc0e4d4:	00000000 	nop
bfc0e4d8:	00000021 	move	zero,zero
bfc0e4dc:	00000021 	move	zero,zero
bfc0e4e0:	00000021 	move	zero,zero
bfc0e4e4:	00000021 	move	zero,zero
bfc0e4e8:	00000021 	move	zero,zero
bfc0e4ec:	00000021 	move	zero,zero
bfc0e4f0:	00000021 	move	zero,zero
bfc0e4f4:	00000021 	move	zero,zero
bfc0e4f8:	00000021 	move	zero,zero
bfc0e4fc:	00000021 	move	zero,zero
bfc0e500:	00000021 	move	zero,zero
bfc0e504:	00000021 	move	zero,zero
bfc0e508:	00000021 	move	zero,zero
bfc0e50c:	00000021 	move	zero,zero
bfc0e510:	24080000 	li	t0,0
bfc0e514:	3c09d1ed 	lui	t1,0xd1ed
bfc0e518:	35295e5a 	ori	t1,t1,0x5e5a
bfc0e51c:	1509ffe8 	bne	t0,t1,bfc0e4c0 <main+0xe4c0>
bfc0e520:	00000000 	nop
bfc0e524:	1000000b 	b	bfc0e554 <main+0xe554>
bfc0e528:	00000000 	nop
bfc0e52c:	00000021 	move	zero,zero
bfc0e530:	00000021 	move	zero,zero
bfc0e534:	00000021 	move	zero,zero
bfc0e538:	00000021 	move	zero,zero
bfc0e53c:	00000021 	move	zero,zero
bfc0e540:	00000021 	move	zero,zero
bfc0e544:	00000021 	move	zero,zero
bfc0e548:	00000021 	move	zero,zero
bfc0e54c:	3c124de0 	lui	s2,0x4de0
bfc0e550:	36521ec6 	ori	s2,s2,0x1ec6
bfc0e554:	00000000 	nop
bfc0e558:	3c141eab 	lui	s4,0x1eab
bfc0e55c:	36943fe0 	ori	s4,s4,0x3fe0
bfc0e560:	16140621 	bne	s0,s4,bfc0fde8 <inst_error>
bfc0e564:	00000000 	nop
bfc0e568:	3c154de0 	lui	s5,0x4de0
bfc0e56c:	36b51ec6 	ori	s5,s5,0x1ec6
bfc0e570:	1655061d 	bne	s2,s5,bfc0fde8 <inst_error>
bfc0e574:	00000000 	nop
bfc0e578:	3c0c7a54 	lui	t4,0x7a54
bfc0e57c:	358cb48f 	ori	t4,t4,0xb48f
bfc0e580:	3c0ddad6 	lui	t5,0xdad6
bfc0e584:	35adf3c4 	ori	t5,t5,0xf3c4
bfc0e588:	24100000 	li	s0,0
bfc0e58c:	24120000 	li	s2,0
bfc0e590:	10000015 	b	bfc0e5e8 <main+0xe5e8>
bfc0e594:	00000000 	nop
bfc0e598:	3c107a54 	lui	s0,0x7a54
bfc0e59c:	3610b48f 	ori	s0,s0,0xb48f
bfc0e5a0:	15280020 	bne	t1,t0,bfc0e624 <main+0xe624>
bfc0e5a4:	00000000 	nop
bfc0e5a8:	10000020 	b	bfc0e62c <main+0xe62c>
bfc0e5ac:	00000000 	nop
bfc0e5b0:	00000021 	move	zero,zero
bfc0e5b4:	00000021 	move	zero,zero
bfc0e5b8:	00000021 	move	zero,zero
bfc0e5bc:	00000021 	move	zero,zero
bfc0e5c0:	00000021 	move	zero,zero
bfc0e5c4:	00000021 	move	zero,zero
bfc0e5c8:	00000021 	move	zero,zero
bfc0e5cc:	00000021 	move	zero,zero
bfc0e5d0:	00000021 	move	zero,zero
bfc0e5d4:	00000021 	move	zero,zero
bfc0e5d8:	00000021 	move	zero,zero
bfc0e5dc:	00000021 	move	zero,zero
bfc0e5e0:	00000021 	move	zero,zero
bfc0e5e4:	00000021 	move	zero,zero
bfc0e5e8:	24080000 	li	t0,0
bfc0e5ec:	3c094aa2 	lui	t1,0x4aa2
bfc0e5f0:	35290178 	ori	t1,t1,0x178
bfc0e5f4:	1509ffe8 	bne	t0,t1,bfc0e598 <main+0xe598>
bfc0e5f8:	00000000 	nop
bfc0e5fc:	1000000b 	b	bfc0e62c <main+0xe62c>
bfc0e600:	00000000 	nop
bfc0e604:	00000021 	move	zero,zero
bfc0e608:	00000021 	move	zero,zero
bfc0e60c:	00000021 	move	zero,zero
bfc0e610:	00000021 	move	zero,zero
bfc0e614:	00000021 	move	zero,zero
bfc0e618:	00000021 	move	zero,zero
bfc0e61c:	00000021 	move	zero,zero
bfc0e620:	00000021 	move	zero,zero
bfc0e624:	3c12dad6 	lui	s2,0xdad6
bfc0e628:	3652f3c4 	ori	s2,s2,0xf3c4
bfc0e62c:	00000000 	nop
bfc0e630:	3c147a54 	lui	s4,0x7a54
bfc0e634:	3694b48f 	ori	s4,s4,0xb48f
bfc0e638:	161405eb 	bne	s0,s4,bfc0fde8 <inst_error>
bfc0e63c:	00000000 	nop
bfc0e640:	3c15dad6 	lui	s5,0xdad6
bfc0e644:	36b5f3c4 	ori	s5,s5,0xf3c4
bfc0e648:	165505e7 	bne	s2,s5,bfc0fde8 <inst_error>
bfc0e64c:	00000000 	nop
bfc0e650:	3c0c5b4d 	lui	t4,0x5b4d
bfc0e654:	358c401a 	ori	t4,t4,0x401a
bfc0e658:	3c0dc7e8 	lui	t5,0xc7e8
bfc0e65c:	35adbe26 	ori	t5,t5,0xbe26
bfc0e660:	24100000 	li	s0,0
bfc0e664:	24120000 	li	s2,0
bfc0e668:	10000015 	b	bfc0e6c0 <main+0xe6c0>
bfc0e66c:	00000000 	nop
bfc0e670:	3c105b4d 	lui	s0,0x5b4d
bfc0e674:	3610401a 	ori	s0,s0,0x401a
bfc0e678:	15280020 	bne	t1,t0,bfc0e6fc <main+0xe6fc>
bfc0e67c:	00000000 	nop
bfc0e680:	10000020 	b	bfc0e704 <main+0xe704>
bfc0e684:	00000000 	nop
bfc0e688:	00000021 	move	zero,zero
bfc0e68c:	00000021 	move	zero,zero
bfc0e690:	00000021 	move	zero,zero
bfc0e694:	00000021 	move	zero,zero
bfc0e698:	00000021 	move	zero,zero
bfc0e69c:	00000021 	move	zero,zero
bfc0e6a0:	00000021 	move	zero,zero
bfc0e6a4:	00000021 	move	zero,zero
bfc0e6a8:	00000021 	move	zero,zero
bfc0e6ac:	00000021 	move	zero,zero
bfc0e6b0:	00000021 	move	zero,zero
bfc0e6b4:	00000021 	move	zero,zero
bfc0e6b8:	00000021 	move	zero,zero
bfc0e6bc:	00000021 	move	zero,zero
bfc0e6c0:	24080000 	li	t0,0
bfc0e6c4:	3c09ef7b 	lui	t1,0xef7b
bfc0e6c8:	35291d94 	ori	t1,t1,0x1d94
bfc0e6cc:	1509ffe8 	bne	t0,t1,bfc0e670 <main+0xe670>
bfc0e6d0:	00000000 	nop
bfc0e6d4:	1000000b 	b	bfc0e704 <main+0xe704>
bfc0e6d8:	00000000 	nop
bfc0e6dc:	00000021 	move	zero,zero
bfc0e6e0:	00000021 	move	zero,zero
bfc0e6e4:	00000021 	move	zero,zero
bfc0e6e8:	00000021 	move	zero,zero
bfc0e6ec:	00000021 	move	zero,zero
bfc0e6f0:	00000021 	move	zero,zero
bfc0e6f4:	00000021 	move	zero,zero
bfc0e6f8:	00000021 	move	zero,zero
bfc0e6fc:	3c12c7e8 	lui	s2,0xc7e8
bfc0e700:	3652be26 	ori	s2,s2,0xbe26
bfc0e704:	00000000 	nop
bfc0e708:	3c145b4d 	lui	s4,0x5b4d
bfc0e70c:	3694401a 	ori	s4,s4,0x401a
bfc0e710:	161405b5 	bne	s0,s4,bfc0fde8 <inst_error>
bfc0e714:	00000000 	nop
bfc0e718:	3c15c7e8 	lui	s5,0xc7e8
bfc0e71c:	36b5be26 	ori	s5,s5,0xbe26
bfc0e720:	165505b1 	bne	s2,s5,bfc0fde8 <inst_error>
bfc0e724:	00000000 	nop
bfc0e728:	3c0c4525 	lui	t4,0x4525
bfc0e72c:	358ce5a6 	ori	t4,t4,0xe5a6
bfc0e730:	3c0db712 	lui	t5,0xb712
bfc0e734:	35ad8672 	ori	t5,t5,0x8672
bfc0e738:	24100000 	li	s0,0
bfc0e73c:	24120000 	li	s2,0
bfc0e740:	10000015 	b	bfc0e798 <main+0xe798>
bfc0e744:	00000000 	nop
bfc0e748:	3c104525 	lui	s0,0x4525
bfc0e74c:	3610e5a6 	ori	s0,s0,0xe5a6
bfc0e750:	15280020 	bne	t1,t0,bfc0e7d4 <main+0xe7d4>
bfc0e754:	00000000 	nop
bfc0e758:	10000020 	b	bfc0e7dc <main+0xe7dc>
bfc0e75c:	00000000 	nop
bfc0e760:	00000021 	move	zero,zero
bfc0e764:	00000021 	move	zero,zero
bfc0e768:	00000021 	move	zero,zero
bfc0e76c:	00000021 	move	zero,zero
bfc0e770:	00000021 	move	zero,zero
bfc0e774:	00000021 	move	zero,zero
bfc0e778:	00000021 	move	zero,zero
bfc0e77c:	00000021 	move	zero,zero
bfc0e780:	00000021 	move	zero,zero
bfc0e784:	00000021 	move	zero,zero
bfc0e788:	00000021 	move	zero,zero
bfc0e78c:	00000021 	move	zero,zero
bfc0e790:	00000021 	move	zero,zero
bfc0e794:	00000021 	move	zero,zero
bfc0e798:	24080000 	li	t0,0
bfc0e79c:	3c09dce5 	lui	t1,0xdce5
bfc0e7a0:	35299fd0 	ori	t1,t1,0x9fd0
bfc0e7a4:	1509ffe8 	bne	t0,t1,bfc0e748 <main+0xe748>
bfc0e7a8:	00000000 	nop
bfc0e7ac:	1000000b 	b	bfc0e7dc <main+0xe7dc>
bfc0e7b0:	00000000 	nop
bfc0e7b4:	00000021 	move	zero,zero
bfc0e7b8:	00000021 	move	zero,zero
bfc0e7bc:	00000021 	move	zero,zero
bfc0e7c0:	00000021 	move	zero,zero
bfc0e7c4:	00000021 	move	zero,zero
bfc0e7c8:	00000021 	move	zero,zero
bfc0e7cc:	00000021 	move	zero,zero
bfc0e7d0:	00000021 	move	zero,zero
bfc0e7d4:	3c12b712 	lui	s2,0xb712
bfc0e7d8:	36528672 	ori	s2,s2,0x8672
bfc0e7dc:	00000000 	nop
bfc0e7e0:	3c144525 	lui	s4,0x4525
bfc0e7e4:	3694e5a6 	ori	s4,s4,0xe5a6
bfc0e7e8:	1614057f 	bne	s0,s4,bfc0fde8 <inst_error>
bfc0e7ec:	00000000 	nop
bfc0e7f0:	3c15b712 	lui	s5,0xb712
bfc0e7f4:	36b58672 	ori	s5,s5,0x8672
bfc0e7f8:	1655057b 	bne	s2,s5,bfc0fde8 <inst_error>
bfc0e7fc:	00000000 	nop
bfc0e800:	3c0c4b52 	lui	t4,0x4b52
bfc0e804:	358cab90 	ori	t4,t4,0xab90
bfc0e808:	3c0d99b9 	lui	t5,0x99b9
bfc0e80c:	35ad9170 	ori	t5,t5,0x9170
bfc0e810:	24100000 	li	s0,0
bfc0e814:	24120000 	li	s2,0
bfc0e818:	10000015 	b	bfc0e870 <main+0xe870>
bfc0e81c:	00000000 	nop
bfc0e820:	3c104b52 	lui	s0,0x4b52
bfc0e824:	3610ab90 	ori	s0,s0,0xab90
bfc0e828:	15280020 	bne	t1,t0,bfc0e8ac <main+0xe8ac>
bfc0e82c:	00000000 	nop
bfc0e830:	10000020 	b	bfc0e8b4 <main+0xe8b4>
bfc0e834:	00000000 	nop
bfc0e838:	00000021 	move	zero,zero
bfc0e83c:	00000021 	move	zero,zero
bfc0e840:	00000021 	move	zero,zero
bfc0e844:	00000021 	move	zero,zero
bfc0e848:	00000021 	move	zero,zero
bfc0e84c:	00000021 	move	zero,zero
bfc0e850:	00000021 	move	zero,zero
bfc0e854:	00000021 	move	zero,zero
bfc0e858:	00000021 	move	zero,zero
bfc0e85c:	00000021 	move	zero,zero
bfc0e860:	00000021 	move	zero,zero
bfc0e864:	00000021 	move	zero,zero
bfc0e868:	00000021 	move	zero,zero
bfc0e86c:	00000021 	move	zero,zero
bfc0e870:	24080000 	li	t0,0
bfc0e874:	3c09c6d4 	lui	t1,0xc6d4
bfc0e878:	3529f907 	ori	t1,t1,0xf907
bfc0e87c:	1509ffe8 	bne	t0,t1,bfc0e820 <main+0xe820>
bfc0e880:	00000000 	nop
bfc0e884:	1000000b 	b	bfc0e8b4 <main+0xe8b4>
bfc0e888:	00000000 	nop
bfc0e88c:	00000021 	move	zero,zero
bfc0e890:	00000021 	move	zero,zero
bfc0e894:	00000021 	move	zero,zero
bfc0e898:	00000021 	move	zero,zero
bfc0e89c:	00000021 	move	zero,zero
bfc0e8a0:	00000021 	move	zero,zero
bfc0e8a4:	00000021 	move	zero,zero
bfc0e8a8:	00000021 	move	zero,zero
bfc0e8ac:	3c1299b9 	lui	s2,0x99b9
bfc0e8b0:	36529170 	ori	s2,s2,0x9170
bfc0e8b4:	00000000 	nop
bfc0e8b8:	3c144b52 	lui	s4,0x4b52
bfc0e8bc:	3694ab90 	ori	s4,s4,0xab90
bfc0e8c0:	16140549 	bne	s0,s4,bfc0fde8 <inst_error>
bfc0e8c4:	00000000 	nop
bfc0e8c8:	3c1599b9 	lui	s5,0x99b9
bfc0e8cc:	36b59170 	ori	s5,s5,0x9170
bfc0e8d0:	16550545 	bne	s2,s5,bfc0fde8 <inst_error>
bfc0e8d4:	00000000 	nop
bfc0e8d8:	3c0c118e 	lui	t4,0x118e
bfc0e8dc:	358cf470 	ori	t4,t4,0xf470
bfc0e8e0:	3c0d35c5 	lui	t5,0x35c5
bfc0e8e4:	35ad777a 	ori	t5,t5,0x777a
bfc0e8e8:	24100000 	li	s0,0
bfc0e8ec:	24120000 	li	s2,0
bfc0e8f0:	10000015 	b	bfc0e948 <main+0xe948>
bfc0e8f4:	00000000 	nop
bfc0e8f8:	3c10118e 	lui	s0,0x118e
bfc0e8fc:	3610f470 	ori	s0,s0,0xf470
bfc0e900:	15280020 	bne	t1,t0,bfc0e984 <main+0xe984>
bfc0e904:	00000000 	nop
bfc0e908:	10000020 	b	bfc0e98c <main+0xe98c>
bfc0e90c:	00000000 	nop
bfc0e910:	00000021 	move	zero,zero
bfc0e914:	00000021 	move	zero,zero
bfc0e918:	00000021 	move	zero,zero
bfc0e91c:	00000021 	move	zero,zero
bfc0e920:	00000021 	move	zero,zero
bfc0e924:	00000021 	move	zero,zero
bfc0e928:	00000021 	move	zero,zero
bfc0e92c:	00000021 	move	zero,zero
bfc0e930:	00000021 	move	zero,zero
bfc0e934:	00000021 	move	zero,zero
bfc0e938:	00000021 	move	zero,zero
bfc0e93c:	00000021 	move	zero,zero
bfc0e940:	00000021 	move	zero,zero
bfc0e944:	00000021 	move	zero,zero
bfc0e948:	24080000 	li	t0,0
bfc0e94c:	3c091877 	lui	t1,0x1877
bfc0e950:	35299ea8 	ori	t1,t1,0x9ea8
bfc0e954:	1509ffe8 	bne	t0,t1,bfc0e8f8 <main+0xe8f8>
bfc0e958:	00000000 	nop
bfc0e95c:	1000000b 	b	bfc0e98c <main+0xe98c>
bfc0e960:	00000000 	nop
bfc0e964:	00000021 	move	zero,zero
bfc0e968:	00000021 	move	zero,zero
bfc0e96c:	00000021 	move	zero,zero
bfc0e970:	00000021 	move	zero,zero
bfc0e974:	00000021 	move	zero,zero
bfc0e978:	00000021 	move	zero,zero
bfc0e97c:	00000021 	move	zero,zero
bfc0e980:	00000021 	move	zero,zero
bfc0e984:	3c1235c5 	lui	s2,0x35c5
bfc0e988:	3652777a 	ori	s2,s2,0x777a
bfc0e98c:	00000000 	nop
bfc0e990:	3c14118e 	lui	s4,0x118e
bfc0e994:	3694f470 	ori	s4,s4,0xf470
bfc0e998:	16140513 	bne	s0,s4,bfc0fde8 <inst_error>
bfc0e99c:	00000000 	nop
bfc0e9a0:	3c1535c5 	lui	s5,0x35c5
bfc0e9a4:	36b5777a 	ori	s5,s5,0x777a
bfc0e9a8:	1655050f 	bne	s2,s5,bfc0fde8 <inst_error>
bfc0e9ac:	00000000 	nop
bfc0e9b0:	3c0c6b76 	lui	t4,0x6b76
bfc0e9b4:	358caee8 	ori	t4,t4,0xaee8
bfc0e9b8:	3c0d99f7 	lui	t5,0x99f7
bfc0e9bc:	35addfe8 	ori	t5,t5,0xdfe8
bfc0e9c0:	24100000 	li	s0,0
bfc0e9c4:	24120000 	li	s2,0
bfc0e9c8:	10000015 	b	bfc0ea20 <main+0xea20>
bfc0e9cc:	00000000 	nop
bfc0e9d0:	3c106b76 	lui	s0,0x6b76
bfc0e9d4:	3610aee8 	ori	s0,s0,0xaee8
bfc0e9d8:	15280020 	bne	t1,t0,bfc0ea5c <main+0xea5c>
bfc0e9dc:	00000000 	nop
bfc0e9e0:	10000020 	b	bfc0ea64 <main+0xea64>
bfc0e9e4:	00000000 	nop
bfc0e9e8:	00000021 	move	zero,zero
bfc0e9ec:	00000021 	move	zero,zero
bfc0e9f0:	00000021 	move	zero,zero
bfc0e9f4:	00000021 	move	zero,zero
bfc0e9f8:	00000021 	move	zero,zero
bfc0e9fc:	00000021 	move	zero,zero
bfc0ea00:	00000021 	move	zero,zero
bfc0ea04:	00000021 	move	zero,zero
bfc0ea08:	00000021 	move	zero,zero
bfc0ea0c:	00000021 	move	zero,zero
bfc0ea10:	00000021 	move	zero,zero
bfc0ea14:	00000021 	move	zero,zero
bfc0ea18:	00000021 	move	zero,zero
bfc0ea1c:	00000021 	move	zero,zero
bfc0ea20:	24080000 	li	t0,0
bfc0ea24:	3c0968d8 	lui	t1,0x68d8
bfc0ea28:	35297fc6 	ori	t1,t1,0x7fc6
bfc0ea2c:	1509ffe8 	bne	t0,t1,bfc0e9d0 <main+0xe9d0>
bfc0ea30:	00000000 	nop
bfc0ea34:	1000000b 	b	bfc0ea64 <main+0xea64>
bfc0ea38:	00000000 	nop
bfc0ea3c:	00000021 	move	zero,zero
bfc0ea40:	00000021 	move	zero,zero
bfc0ea44:	00000021 	move	zero,zero
bfc0ea48:	00000021 	move	zero,zero
bfc0ea4c:	00000021 	move	zero,zero
bfc0ea50:	00000021 	move	zero,zero
bfc0ea54:	00000021 	move	zero,zero
bfc0ea58:	00000021 	move	zero,zero
bfc0ea5c:	3c1299f7 	lui	s2,0x99f7
bfc0ea60:	3652dfe8 	ori	s2,s2,0xdfe8
bfc0ea64:	00000000 	nop
bfc0ea68:	3c146b76 	lui	s4,0x6b76
bfc0ea6c:	3694aee8 	ori	s4,s4,0xaee8
bfc0ea70:	161404dd 	bne	s0,s4,bfc0fde8 <inst_error>
bfc0ea74:	00000000 	nop
bfc0ea78:	3c1599f7 	lui	s5,0x99f7
bfc0ea7c:	36b5dfe8 	ori	s5,s5,0xdfe8
bfc0ea80:	165504d9 	bne	s2,s5,bfc0fde8 <inst_error>
bfc0ea84:	00000000 	nop
bfc0ea88:	3c0cd18b 	lui	t4,0xd18b
bfc0ea8c:	358cc8b8 	ori	t4,t4,0xc8b8
bfc0ea90:	3c0d4a98 	lui	t5,0x4a98
bfc0ea94:	35ad9270 	ori	t5,t5,0x9270
bfc0ea98:	24100000 	li	s0,0
bfc0ea9c:	24120000 	li	s2,0
bfc0eaa0:	10000015 	b	bfc0eaf8 <main+0xeaf8>
bfc0eaa4:	00000000 	nop
bfc0eaa8:	3c10d18b 	lui	s0,0xd18b
bfc0eaac:	3610c8b8 	ori	s0,s0,0xc8b8
bfc0eab0:	15280020 	bne	t1,t0,bfc0eb34 <main+0xeb34>
bfc0eab4:	00000000 	nop
bfc0eab8:	10000020 	b	bfc0eb3c <main+0xeb3c>
bfc0eabc:	00000000 	nop
bfc0eac0:	00000021 	move	zero,zero
bfc0eac4:	00000021 	move	zero,zero
bfc0eac8:	00000021 	move	zero,zero
bfc0eacc:	00000021 	move	zero,zero
bfc0ead0:	00000021 	move	zero,zero
bfc0ead4:	00000021 	move	zero,zero
bfc0ead8:	00000021 	move	zero,zero
bfc0eadc:	00000021 	move	zero,zero
bfc0eae0:	00000021 	move	zero,zero
bfc0eae4:	00000021 	move	zero,zero
bfc0eae8:	00000021 	move	zero,zero
bfc0eaec:	00000021 	move	zero,zero
bfc0eaf0:	00000021 	move	zero,zero
bfc0eaf4:	00000021 	move	zero,zero
bfc0eaf8:	24080000 	li	t0,0
bfc0eafc:	3c092edc 	lui	t1,0x2edc
bfc0eb00:	35296865 	ori	t1,t1,0x6865
bfc0eb04:	1509ffe8 	bne	t0,t1,bfc0eaa8 <main+0xeaa8>
bfc0eb08:	00000000 	nop
bfc0eb0c:	1000000b 	b	bfc0eb3c <main+0xeb3c>
bfc0eb10:	00000000 	nop
bfc0eb14:	00000021 	move	zero,zero
bfc0eb18:	00000021 	move	zero,zero
bfc0eb1c:	00000021 	move	zero,zero
bfc0eb20:	00000021 	move	zero,zero
bfc0eb24:	00000021 	move	zero,zero
bfc0eb28:	00000021 	move	zero,zero
bfc0eb2c:	00000021 	move	zero,zero
bfc0eb30:	00000021 	move	zero,zero
bfc0eb34:	3c124a98 	lui	s2,0x4a98
bfc0eb38:	36529270 	ori	s2,s2,0x9270
bfc0eb3c:	00000000 	nop
bfc0eb40:	3c14d18b 	lui	s4,0xd18b
bfc0eb44:	3694c8b8 	ori	s4,s4,0xc8b8
bfc0eb48:	161404a7 	bne	s0,s4,bfc0fde8 <inst_error>
bfc0eb4c:	00000000 	nop
bfc0eb50:	3c154a98 	lui	s5,0x4a98
bfc0eb54:	36b59270 	ori	s5,s5,0x9270
bfc0eb58:	165504a3 	bne	s2,s5,bfc0fde8 <inst_error>
bfc0eb5c:	00000000 	nop
bfc0eb60:	3c0c6fbe 	lui	t4,0x6fbe
bfc0eb64:	358cf3e6 	ori	t4,t4,0xf3e6
bfc0eb68:	3c0dd6bb 	lui	t5,0xd6bb
bfc0eb6c:	35adf280 	ori	t5,t5,0xf280
bfc0eb70:	24100000 	li	s0,0
bfc0eb74:	24120000 	li	s2,0
bfc0eb78:	10000015 	b	bfc0ebd0 <main+0xebd0>
bfc0eb7c:	00000000 	nop
bfc0eb80:	3c106fbe 	lui	s0,0x6fbe
bfc0eb84:	3610f3e6 	ori	s0,s0,0xf3e6
bfc0eb88:	15280020 	bne	t1,t0,bfc0ec0c <main+0xec0c>
bfc0eb8c:	00000000 	nop
bfc0eb90:	10000020 	b	bfc0ec14 <main+0xec14>
bfc0eb94:	00000000 	nop
bfc0eb98:	00000021 	move	zero,zero
bfc0eb9c:	00000021 	move	zero,zero
bfc0eba0:	00000021 	move	zero,zero
bfc0eba4:	00000021 	move	zero,zero
bfc0eba8:	00000021 	move	zero,zero
bfc0ebac:	00000021 	move	zero,zero
bfc0ebb0:	00000021 	move	zero,zero
bfc0ebb4:	00000021 	move	zero,zero
bfc0ebb8:	00000021 	move	zero,zero
bfc0ebbc:	00000021 	move	zero,zero
bfc0ebc0:	00000021 	move	zero,zero
bfc0ebc4:	00000021 	move	zero,zero
bfc0ebc8:	00000021 	move	zero,zero
bfc0ebcc:	00000021 	move	zero,zero
bfc0ebd0:	24080000 	li	t0,0
bfc0ebd4:	3c09beb1 	lui	t1,0xbeb1
bfc0ebd8:	3529b022 	ori	t1,t1,0xb022
bfc0ebdc:	1509ffe8 	bne	t0,t1,bfc0eb80 <main+0xeb80>
bfc0ebe0:	00000000 	nop
bfc0ebe4:	1000000b 	b	bfc0ec14 <main+0xec14>
bfc0ebe8:	00000000 	nop
bfc0ebec:	00000021 	move	zero,zero
bfc0ebf0:	00000021 	move	zero,zero
bfc0ebf4:	00000021 	move	zero,zero
bfc0ebf8:	00000021 	move	zero,zero
bfc0ebfc:	00000021 	move	zero,zero
bfc0ec00:	00000021 	move	zero,zero
bfc0ec04:	00000021 	move	zero,zero
bfc0ec08:	00000021 	move	zero,zero
bfc0ec0c:	3c12d6bb 	lui	s2,0xd6bb
bfc0ec10:	3652f280 	ori	s2,s2,0xf280
bfc0ec14:	00000000 	nop
bfc0ec18:	3c146fbe 	lui	s4,0x6fbe
bfc0ec1c:	3694f3e6 	ori	s4,s4,0xf3e6
bfc0ec20:	16140471 	bne	s0,s4,bfc0fde8 <inst_error>
bfc0ec24:	00000000 	nop
bfc0ec28:	3c15d6bb 	lui	s5,0xd6bb
bfc0ec2c:	36b5f280 	ori	s5,s5,0xf280
bfc0ec30:	1655046d 	bne	s2,s5,bfc0fde8 <inst_error>
bfc0ec34:	00000000 	nop
bfc0ec38:	3c0c2755 	lui	t4,0x2755
bfc0ec3c:	358ce910 	ori	t4,t4,0xe910
bfc0ec40:	3c0d04e9 	lui	t5,0x4e9
bfc0ec44:	35ad6844 	ori	t5,t5,0x6844
bfc0ec48:	24100000 	li	s0,0
bfc0ec4c:	24120000 	li	s2,0
bfc0ec50:	10000015 	b	bfc0eca8 <main+0xeca8>
bfc0ec54:	00000000 	nop
bfc0ec58:	3c102755 	lui	s0,0x2755
bfc0ec5c:	3610e910 	ori	s0,s0,0xe910
bfc0ec60:	15280020 	bne	t1,t0,bfc0ece4 <main+0xece4>
bfc0ec64:	00000000 	nop
bfc0ec68:	10000020 	b	bfc0ecec <main+0xecec>
bfc0ec6c:	00000000 	nop
bfc0ec70:	00000021 	move	zero,zero
bfc0ec74:	00000021 	move	zero,zero
bfc0ec78:	00000021 	move	zero,zero
bfc0ec7c:	00000021 	move	zero,zero
bfc0ec80:	00000021 	move	zero,zero
bfc0ec84:	00000021 	move	zero,zero
bfc0ec88:	00000021 	move	zero,zero
bfc0ec8c:	00000021 	move	zero,zero
bfc0ec90:	00000021 	move	zero,zero
bfc0ec94:	00000021 	move	zero,zero
bfc0ec98:	00000021 	move	zero,zero
bfc0ec9c:	00000021 	move	zero,zero
bfc0eca0:	00000021 	move	zero,zero
bfc0eca4:	00000021 	move	zero,zero
bfc0eca8:	24080000 	li	t0,0
bfc0ecac:	3c0987ed 	lui	t1,0x87ed
bfc0ecb0:	352947a0 	ori	t1,t1,0x47a0
bfc0ecb4:	1509ffe8 	bne	t0,t1,bfc0ec58 <main+0xec58>
bfc0ecb8:	00000000 	nop
bfc0ecbc:	1000000b 	b	bfc0ecec <main+0xecec>
bfc0ecc0:	00000000 	nop
bfc0ecc4:	00000021 	move	zero,zero
bfc0ecc8:	00000021 	move	zero,zero
bfc0eccc:	00000021 	move	zero,zero
bfc0ecd0:	00000021 	move	zero,zero
bfc0ecd4:	00000021 	move	zero,zero
bfc0ecd8:	00000021 	move	zero,zero
bfc0ecdc:	00000021 	move	zero,zero
bfc0ece0:	00000021 	move	zero,zero
bfc0ece4:	3c1204e9 	lui	s2,0x4e9
bfc0ece8:	36526844 	ori	s2,s2,0x6844
bfc0ecec:	00000000 	nop
bfc0ecf0:	3c142755 	lui	s4,0x2755
bfc0ecf4:	3694e910 	ori	s4,s4,0xe910
bfc0ecf8:	1614043b 	bne	s0,s4,bfc0fde8 <inst_error>
bfc0ecfc:	00000000 	nop
bfc0ed00:	3c1504e9 	lui	s5,0x4e9
bfc0ed04:	36b56844 	ori	s5,s5,0x6844
bfc0ed08:	16550437 	bne	s2,s5,bfc0fde8 <inst_error>
bfc0ed0c:	00000000 	nop
bfc0ed10:	3c0cec2f 	lui	t4,0xec2f
bfc0ed14:	358cea40 	ori	t4,t4,0xea40
bfc0ed18:	3c0dad64 	lui	t5,0xad64
bfc0ed1c:	35ad4718 	ori	t5,t5,0x4718
bfc0ed20:	24100000 	li	s0,0
bfc0ed24:	24120000 	li	s2,0
bfc0ed28:	10000015 	b	bfc0ed80 <main+0xed80>
bfc0ed2c:	00000000 	nop
bfc0ed30:	3c10ec2f 	lui	s0,0xec2f
bfc0ed34:	3610ea40 	ori	s0,s0,0xea40
bfc0ed38:	15280020 	bne	t1,t0,bfc0edbc <main+0xedbc>
bfc0ed3c:	00000000 	nop
bfc0ed40:	10000020 	b	bfc0edc4 <main+0xedc4>
bfc0ed44:	00000000 	nop
bfc0ed48:	00000021 	move	zero,zero
bfc0ed4c:	00000021 	move	zero,zero
bfc0ed50:	00000021 	move	zero,zero
bfc0ed54:	00000021 	move	zero,zero
bfc0ed58:	00000021 	move	zero,zero
bfc0ed5c:	00000021 	move	zero,zero
bfc0ed60:	00000021 	move	zero,zero
bfc0ed64:	00000021 	move	zero,zero
bfc0ed68:	00000021 	move	zero,zero
bfc0ed6c:	00000021 	move	zero,zero
bfc0ed70:	00000021 	move	zero,zero
bfc0ed74:	00000021 	move	zero,zero
bfc0ed78:	00000021 	move	zero,zero
bfc0ed7c:	00000021 	move	zero,zero
bfc0ed80:	24080000 	li	t0,0
bfc0ed84:	3c099e1a 	lui	t1,0x9e1a
bfc0ed88:	3529e5f8 	ori	t1,t1,0xe5f8
bfc0ed8c:	1509ffe8 	bne	t0,t1,bfc0ed30 <main+0xed30>
bfc0ed90:	00000000 	nop
bfc0ed94:	1000000b 	b	bfc0edc4 <main+0xedc4>
bfc0ed98:	00000000 	nop
bfc0ed9c:	00000021 	move	zero,zero
bfc0eda0:	00000021 	move	zero,zero
bfc0eda4:	00000021 	move	zero,zero
bfc0eda8:	00000021 	move	zero,zero
bfc0edac:	00000021 	move	zero,zero
bfc0edb0:	00000021 	move	zero,zero
bfc0edb4:	00000021 	move	zero,zero
bfc0edb8:	00000021 	move	zero,zero
bfc0edbc:	3c12ad64 	lui	s2,0xad64
bfc0edc0:	36524718 	ori	s2,s2,0x4718
bfc0edc4:	00000000 	nop
bfc0edc8:	3c14ec2f 	lui	s4,0xec2f
bfc0edcc:	3694ea40 	ori	s4,s4,0xea40
bfc0edd0:	16140405 	bne	s0,s4,bfc0fde8 <inst_error>
bfc0edd4:	00000000 	nop
bfc0edd8:	3c15ad64 	lui	s5,0xad64
bfc0eddc:	36b54718 	ori	s5,s5,0x4718
bfc0ede0:	16550401 	bne	s2,s5,bfc0fde8 <inst_error>
bfc0ede4:	00000000 	nop
bfc0ede8:	3c0cc7a6 	lui	t4,0xc7a6
bfc0edec:	358c0e00 	ori	t4,t4,0xe00
bfc0edf0:	3c0d69d2 	lui	t5,0x69d2
bfc0edf4:	35ad7038 	ori	t5,t5,0x7038
bfc0edf8:	24100000 	li	s0,0
bfc0edfc:	24120000 	li	s2,0
bfc0ee00:	10000015 	b	bfc0ee58 <main+0xee58>
bfc0ee04:	00000000 	nop
bfc0ee08:	3c10c7a6 	lui	s0,0xc7a6
bfc0ee0c:	36100e00 	ori	s0,s0,0xe00
bfc0ee10:	15280020 	bne	t1,t0,bfc0ee94 <main+0xee94>
bfc0ee14:	00000000 	nop
bfc0ee18:	10000020 	b	bfc0ee9c <main+0xee9c>
bfc0ee1c:	00000000 	nop
bfc0ee20:	00000021 	move	zero,zero
bfc0ee24:	00000021 	move	zero,zero
bfc0ee28:	00000021 	move	zero,zero
bfc0ee2c:	00000021 	move	zero,zero
bfc0ee30:	00000021 	move	zero,zero
bfc0ee34:	00000021 	move	zero,zero
bfc0ee38:	00000021 	move	zero,zero
bfc0ee3c:	00000021 	move	zero,zero
bfc0ee40:	00000021 	move	zero,zero
bfc0ee44:	00000021 	move	zero,zero
bfc0ee48:	00000021 	move	zero,zero
bfc0ee4c:	00000021 	move	zero,zero
bfc0ee50:	00000021 	move	zero,zero
bfc0ee54:	00000021 	move	zero,zero
bfc0ee58:	24080000 	li	t0,0
bfc0ee5c:	3c09ec5c 	lui	t1,0xec5c
bfc0ee60:	352923c0 	ori	t1,t1,0x23c0
bfc0ee64:	1509ffe8 	bne	t0,t1,bfc0ee08 <main+0xee08>
bfc0ee68:	00000000 	nop
bfc0ee6c:	1000000b 	b	bfc0ee9c <main+0xee9c>
bfc0ee70:	00000000 	nop
bfc0ee74:	00000021 	move	zero,zero
bfc0ee78:	00000021 	move	zero,zero
bfc0ee7c:	00000021 	move	zero,zero
bfc0ee80:	00000021 	move	zero,zero
bfc0ee84:	00000021 	move	zero,zero
bfc0ee88:	00000021 	move	zero,zero
bfc0ee8c:	00000021 	move	zero,zero
bfc0ee90:	00000021 	move	zero,zero
bfc0ee94:	3c1269d2 	lui	s2,0x69d2
bfc0ee98:	36527038 	ori	s2,s2,0x7038
bfc0ee9c:	00000000 	nop
bfc0eea0:	3c14c7a6 	lui	s4,0xc7a6
bfc0eea4:	36940e00 	ori	s4,s4,0xe00
bfc0eea8:	161403cf 	bne	s0,s4,bfc0fde8 <inst_error>
bfc0eeac:	00000000 	nop
bfc0eeb0:	3c1569d2 	lui	s5,0x69d2
bfc0eeb4:	36b57038 	ori	s5,s5,0x7038
bfc0eeb8:	165503cb 	bne	s2,s5,bfc0fde8 <inst_error>
bfc0eebc:	00000000 	nop
bfc0eec0:	3c0c426e 	lui	t4,0x426e
bfc0eec4:	358ce00a 	ori	t4,t4,0xe00a
bfc0eec8:	3c0dcd7e 	lui	t5,0xcd7e
bfc0eecc:	35addcb0 	ori	t5,t5,0xdcb0
bfc0eed0:	24100000 	li	s0,0
bfc0eed4:	24120000 	li	s2,0
bfc0eed8:	10000015 	b	bfc0ef30 <main+0xef30>
bfc0eedc:	00000000 	nop
bfc0eee0:	3c10426e 	lui	s0,0x426e
bfc0eee4:	3610e00a 	ori	s0,s0,0xe00a
bfc0eee8:	15280020 	bne	t1,t0,bfc0ef6c <main+0xef6c>
bfc0eeec:	00000000 	nop
bfc0eef0:	10000020 	b	bfc0ef74 <main+0xef74>
bfc0eef4:	00000000 	nop
bfc0eef8:	00000021 	move	zero,zero
bfc0eefc:	00000021 	move	zero,zero
bfc0ef00:	00000021 	move	zero,zero
bfc0ef04:	00000021 	move	zero,zero
bfc0ef08:	00000021 	move	zero,zero
bfc0ef0c:	00000021 	move	zero,zero
bfc0ef10:	00000021 	move	zero,zero
bfc0ef14:	00000021 	move	zero,zero
bfc0ef18:	00000021 	move	zero,zero
bfc0ef1c:	00000021 	move	zero,zero
bfc0ef20:	00000021 	move	zero,zero
bfc0ef24:	00000021 	move	zero,zero
bfc0ef28:	00000021 	move	zero,zero
bfc0ef2c:	00000021 	move	zero,zero
bfc0ef30:	24080000 	li	t0,0
bfc0ef34:	3c098750 	lui	t1,0x8750
bfc0ef38:	3529a8b4 	ori	t1,t1,0xa8b4
bfc0ef3c:	1509ffe8 	bne	t0,t1,bfc0eee0 <main+0xeee0>
bfc0ef40:	00000000 	nop
bfc0ef44:	1000000b 	b	bfc0ef74 <main+0xef74>
bfc0ef48:	00000000 	nop
bfc0ef4c:	00000021 	move	zero,zero
bfc0ef50:	00000021 	move	zero,zero
bfc0ef54:	00000021 	move	zero,zero
bfc0ef58:	00000021 	move	zero,zero
bfc0ef5c:	00000021 	move	zero,zero
bfc0ef60:	00000021 	move	zero,zero
bfc0ef64:	00000021 	move	zero,zero
bfc0ef68:	00000021 	move	zero,zero
bfc0ef6c:	3c12cd7e 	lui	s2,0xcd7e
bfc0ef70:	3652dcb0 	ori	s2,s2,0xdcb0
bfc0ef74:	00000000 	nop
bfc0ef78:	3c14426e 	lui	s4,0x426e
bfc0ef7c:	3694e00a 	ori	s4,s4,0xe00a
bfc0ef80:	16140399 	bne	s0,s4,bfc0fde8 <inst_error>
bfc0ef84:	00000000 	nop
bfc0ef88:	3c15cd7e 	lui	s5,0xcd7e
bfc0ef8c:	36b5dcb0 	ori	s5,s5,0xdcb0
bfc0ef90:	16550395 	bne	s2,s5,bfc0fde8 <inst_error>
bfc0ef94:	00000000 	nop
bfc0ef98:	3c0cfbb5 	lui	t4,0xfbb5
bfc0ef9c:	358c881b 	ori	t4,t4,0x881b
bfc0efa0:	3c0db9b9 	lui	t5,0xb9b9
bfc0efa4:	35adf8e4 	ori	t5,t5,0xf8e4
bfc0efa8:	24100000 	li	s0,0
bfc0efac:	24120000 	li	s2,0
bfc0efb0:	10000015 	b	bfc0f008 <main+0xf008>
bfc0efb4:	00000000 	nop
bfc0efb8:	3c10fbb5 	lui	s0,0xfbb5
bfc0efbc:	3610881b 	ori	s0,s0,0x881b
bfc0efc0:	15280020 	bne	t1,t0,bfc0f044 <main+0xf044>
bfc0efc4:	00000000 	nop
bfc0efc8:	10000020 	b	bfc0f04c <main+0xf04c>
bfc0efcc:	00000000 	nop
bfc0efd0:	00000021 	move	zero,zero
bfc0efd4:	00000021 	move	zero,zero
bfc0efd8:	00000021 	move	zero,zero
bfc0efdc:	00000021 	move	zero,zero
bfc0efe0:	00000021 	move	zero,zero
bfc0efe4:	00000021 	move	zero,zero
bfc0efe8:	00000021 	move	zero,zero
bfc0efec:	00000021 	move	zero,zero
bfc0eff0:	00000021 	move	zero,zero
bfc0eff4:	00000021 	move	zero,zero
bfc0eff8:	00000021 	move	zero,zero
bfc0effc:	00000021 	move	zero,zero
bfc0f000:	00000021 	move	zero,zero
bfc0f004:	00000021 	move	zero,zero
bfc0f008:	24080000 	li	t0,0
bfc0f00c:	3c094b45 	lui	t1,0x4b45
bfc0f010:	35293890 	ori	t1,t1,0x3890
bfc0f014:	1509ffe8 	bne	t0,t1,bfc0efb8 <main+0xefb8>
bfc0f018:	00000000 	nop
bfc0f01c:	1000000b 	b	bfc0f04c <main+0xf04c>
bfc0f020:	00000000 	nop
bfc0f024:	00000021 	move	zero,zero
bfc0f028:	00000021 	move	zero,zero
bfc0f02c:	00000021 	move	zero,zero
bfc0f030:	00000021 	move	zero,zero
bfc0f034:	00000021 	move	zero,zero
bfc0f038:	00000021 	move	zero,zero
bfc0f03c:	00000021 	move	zero,zero
bfc0f040:	00000021 	move	zero,zero
bfc0f044:	3c12b9b9 	lui	s2,0xb9b9
bfc0f048:	3652f8e4 	ori	s2,s2,0xf8e4
bfc0f04c:	00000000 	nop
bfc0f050:	3c14fbb5 	lui	s4,0xfbb5
bfc0f054:	3694881b 	ori	s4,s4,0x881b
bfc0f058:	16140363 	bne	s0,s4,bfc0fde8 <inst_error>
bfc0f05c:	00000000 	nop
bfc0f060:	3c15b9b9 	lui	s5,0xb9b9
bfc0f064:	36b5f8e4 	ori	s5,s5,0xf8e4
bfc0f068:	1655035f 	bne	s2,s5,bfc0fde8 <inst_error>
bfc0f06c:	00000000 	nop
bfc0f070:	3c0c655a 	lui	t4,0x655a
bfc0f074:	358c0c50 	ori	t4,t4,0xc50
bfc0f078:	3c0d0d3c 	lui	t5,0xd3c
bfc0f07c:	35ad8021 	ori	t5,t5,0x8021
bfc0f080:	24100000 	li	s0,0
bfc0f084:	24120000 	li	s2,0
bfc0f088:	10000015 	b	bfc0f0e0 <main+0xf0e0>
bfc0f08c:	00000000 	nop
bfc0f090:	3c10655a 	lui	s0,0x655a
bfc0f094:	36100c50 	ori	s0,s0,0xc50
bfc0f098:	15280020 	bne	t1,t0,bfc0f11c <main+0xf11c>
bfc0f09c:	00000000 	nop
bfc0f0a0:	10000020 	b	bfc0f124 <main+0xf124>
bfc0f0a4:	00000000 	nop
bfc0f0a8:	00000021 	move	zero,zero
bfc0f0ac:	00000021 	move	zero,zero
bfc0f0b0:	00000021 	move	zero,zero
bfc0f0b4:	00000021 	move	zero,zero
bfc0f0b8:	00000021 	move	zero,zero
bfc0f0bc:	00000021 	move	zero,zero
bfc0f0c0:	00000021 	move	zero,zero
bfc0f0c4:	00000021 	move	zero,zero
bfc0f0c8:	00000021 	move	zero,zero
bfc0f0cc:	00000021 	move	zero,zero
bfc0f0d0:	00000021 	move	zero,zero
bfc0f0d4:	00000021 	move	zero,zero
bfc0f0d8:	00000021 	move	zero,zero
bfc0f0dc:	00000021 	move	zero,zero
bfc0f0e0:	24080000 	li	t0,0
bfc0f0e4:	3c094a06 	lui	t1,0x4a06
bfc0f0e8:	35292f46 	ori	t1,t1,0x2f46
bfc0f0ec:	1509ffe8 	bne	t0,t1,bfc0f090 <main+0xf090>
bfc0f0f0:	00000000 	nop
bfc0f0f4:	1000000b 	b	bfc0f124 <main+0xf124>
bfc0f0f8:	00000000 	nop
bfc0f0fc:	00000021 	move	zero,zero
bfc0f100:	00000021 	move	zero,zero
bfc0f104:	00000021 	move	zero,zero
bfc0f108:	00000021 	move	zero,zero
bfc0f10c:	00000021 	move	zero,zero
bfc0f110:	00000021 	move	zero,zero
bfc0f114:	00000021 	move	zero,zero
bfc0f118:	00000021 	move	zero,zero
bfc0f11c:	3c120d3c 	lui	s2,0xd3c
bfc0f120:	36528021 	ori	s2,s2,0x8021
bfc0f124:	00000000 	nop
bfc0f128:	3c14655a 	lui	s4,0x655a
bfc0f12c:	36940c50 	ori	s4,s4,0xc50
bfc0f130:	1614032d 	bne	s0,s4,bfc0fde8 <inst_error>
bfc0f134:	00000000 	nop
bfc0f138:	3c150d3c 	lui	s5,0xd3c
bfc0f13c:	36b58021 	ori	s5,s5,0x8021
bfc0f140:	16550329 	bne	s2,s5,bfc0fde8 <inst_error>
bfc0f144:	00000000 	nop
bfc0f148:	3c0c29e9 	lui	t4,0x29e9
bfc0f14c:	358c3f90 	ori	t4,t4,0x3f90
bfc0f150:	3c0d0e16 	lui	t5,0xe16
bfc0f154:	35ade570 	ori	t5,t5,0xe570
bfc0f158:	24100000 	li	s0,0
bfc0f15c:	24120000 	li	s2,0
bfc0f160:	10000015 	b	bfc0f1b8 <main+0xf1b8>
bfc0f164:	00000000 	nop
bfc0f168:	3c1029e9 	lui	s0,0x29e9
bfc0f16c:	36103f90 	ori	s0,s0,0x3f90
bfc0f170:	15280020 	bne	t1,t0,bfc0f1f4 <main+0xf1f4>
bfc0f174:	00000000 	nop
bfc0f178:	10000020 	b	bfc0f1fc <main+0xf1fc>
bfc0f17c:	00000000 	nop
bfc0f180:	00000021 	move	zero,zero
bfc0f184:	00000021 	move	zero,zero
bfc0f188:	00000021 	move	zero,zero
bfc0f18c:	00000021 	move	zero,zero
bfc0f190:	00000021 	move	zero,zero
bfc0f194:	00000021 	move	zero,zero
bfc0f198:	00000021 	move	zero,zero
bfc0f19c:	00000021 	move	zero,zero
bfc0f1a0:	00000021 	move	zero,zero
bfc0f1a4:	00000021 	move	zero,zero
bfc0f1a8:	00000021 	move	zero,zero
bfc0f1ac:	00000021 	move	zero,zero
bfc0f1b0:	00000021 	move	zero,zero
bfc0f1b4:	00000021 	move	zero,zero
bfc0f1b8:	24080000 	li	t0,0
bfc0f1bc:	3c094306 	lui	t1,0x4306
bfc0f1c0:	3529015f 	ori	t1,t1,0x15f
bfc0f1c4:	1509ffe8 	bne	t0,t1,bfc0f168 <main+0xf168>
bfc0f1c8:	00000000 	nop
bfc0f1cc:	1000000b 	b	bfc0f1fc <main+0xf1fc>
bfc0f1d0:	00000000 	nop
bfc0f1d4:	00000021 	move	zero,zero
bfc0f1d8:	00000021 	move	zero,zero
bfc0f1dc:	00000021 	move	zero,zero
bfc0f1e0:	00000021 	move	zero,zero
bfc0f1e4:	00000021 	move	zero,zero
bfc0f1e8:	00000021 	move	zero,zero
bfc0f1ec:	00000021 	move	zero,zero
bfc0f1f0:	00000021 	move	zero,zero
bfc0f1f4:	3c120e16 	lui	s2,0xe16
bfc0f1f8:	3652e570 	ori	s2,s2,0xe570
bfc0f1fc:	00000000 	nop
bfc0f200:	3c1429e9 	lui	s4,0x29e9
bfc0f204:	36943f90 	ori	s4,s4,0x3f90
bfc0f208:	161402f7 	bne	s0,s4,bfc0fde8 <inst_error>
bfc0f20c:	00000000 	nop
bfc0f210:	3c150e16 	lui	s5,0xe16
bfc0f214:	36b5e570 	ori	s5,s5,0xe570
bfc0f218:	165502f3 	bne	s2,s5,bfc0fde8 <inst_error>
bfc0f21c:	00000000 	nop
bfc0f220:	3c0ce01d 	lui	t4,0xe01d
bfc0f224:	358c2d1c 	ori	t4,t4,0x2d1c
bfc0f228:	3c0d7d71 	lui	t5,0x7d71
bfc0f22c:	35ada040 	ori	t5,t5,0xa040
bfc0f230:	24100000 	li	s0,0
bfc0f234:	24120000 	li	s2,0
bfc0f238:	10000015 	b	bfc0f290 <main+0xf290>
bfc0f23c:	00000000 	nop
bfc0f240:	3c10e01d 	lui	s0,0xe01d
bfc0f244:	36102d1c 	ori	s0,s0,0x2d1c
bfc0f248:	15280020 	bne	t1,t0,bfc0f2cc <main+0xf2cc>
bfc0f24c:	00000000 	nop
bfc0f250:	10000020 	b	bfc0f2d4 <main+0xf2d4>
bfc0f254:	00000000 	nop
bfc0f258:	00000021 	move	zero,zero
bfc0f25c:	00000021 	move	zero,zero
bfc0f260:	00000021 	move	zero,zero
bfc0f264:	00000021 	move	zero,zero
bfc0f268:	00000021 	move	zero,zero
bfc0f26c:	00000021 	move	zero,zero
bfc0f270:	00000021 	move	zero,zero
bfc0f274:	00000021 	move	zero,zero
bfc0f278:	00000021 	move	zero,zero
bfc0f27c:	00000021 	move	zero,zero
bfc0f280:	00000021 	move	zero,zero
bfc0f284:	00000021 	move	zero,zero
bfc0f288:	00000021 	move	zero,zero
bfc0f28c:	00000021 	move	zero,zero
bfc0f290:	24080000 	li	t0,0
bfc0f294:	3c09438b 	lui	t1,0x438b
bfc0f298:	35292180 	ori	t1,t1,0x2180
bfc0f29c:	1509ffe8 	bne	t0,t1,bfc0f240 <main+0xf240>
bfc0f2a0:	00000000 	nop
bfc0f2a4:	1000000b 	b	bfc0f2d4 <main+0xf2d4>
bfc0f2a8:	00000000 	nop
bfc0f2ac:	00000021 	move	zero,zero
bfc0f2b0:	00000021 	move	zero,zero
bfc0f2b4:	00000021 	move	zero,zero
bfc0f2b8:	00000021 	move	zero,zero
bfc0f2bc:	00000021 	move	zero,zero
bfc0f2c0:	00000021 	move	zero,zero
bfc0f2c4:	00000021 	move	zero,zero
bfc0f2c8:	00000021 	move	zero,zero
bfc0f2cc:	3c127d71 	lui	s2,0x7d71
bfc0f2d0:	3652a040 	ori	s2,s2,0xa040
bfc0f2d4:	00000000 	nop
bfc0f2d8:	3c14e01d 	lui	s4,0xe01d
bfc0f2dc:	36942d1c 	ori	s4,s4,0x2d1c
bfc0f2e0:	161402c1 	bne	s0,s4,bfc0fde8 <inst_error>
bfc0f2e4:	00000000 	nop
bfc0f2e8:	3c157d71 	lui	s5,0x7d71
bfc0f2ec:	36b5a040 	ori	s5,s5,0xa040
bfc0f2f0:	165502bd 	bne	s2,s5,bfc0fde8 <inst_error>
bfc0f2f4:	00000000 	nop
bfc0f2f8:	3c0c0834 	lui	t4,0x834
bfc0f2fc:	358ccc10 	ori	t4,t4,0xcc10
bfc0f300:	3c0d1ca2 	lui	t5,0x1ca2
bfc0f304:	35ad6760 	ori	t5,t5,0x6760
bfc0f308:	24100000 	li	s0,0
bfc0f30c:	24120000 	li	s2,0
bfc0f310:	10000015 	b	bfc0f368 <main+0xf368>
bfc0f314:	00000000 	nop
bfc0f318:	3c100834 	lui	s0,0x834
bfc0f31c:	3610cc10 	ori	s0,s0,0xcc10
bfc0f320:	15280020 	bne	t1,t0,bfc0f3a4 <main+0xf3a4>
bfc0f324:	00000000 	nop
bfc0f328:	10000020 	b	bfc0f3ac <main+0xf3ac>
bfc0f32c:	00000000 	nop
bfc0f330:	00000021 	move	zero,zero
bfc0f334:	00000021 	move	zero,zero
bfc0f338:	00000021 	move	zero,zero
bfc0f33c:	00000021 	move	zero,zero
bfc0f340:	00000021 	move	zero,zero
bfc0f344:	00000021 	move	zero,zero
bfc0f348:	00000021 	move	zero,zero
bfc0f34c:	00000021 	move	zero,zero
bfc0f350:	00000021 	move	zero,zero
bfc0f354:	00000021 	move	zero,zero
bfc0f358:	00000021 	move	zero,zero
bfc0f35c:	00000021 	move	zero,zero
bfc0f360:	00000021 	move	zero,zero
bfc0f364:	00000021 	move	zero,zero
bfc0f368:	24080000 	li	t0,0
bfc0f36c:	3c094bec 	lui	t1,0x4bec
bfc0f370:	3529a0d0 	ori	t1,t1,0xa0d0
bfc0f374:	1509ffe8 	bne	t0,t1,bfc0f318 <main+0xf318>
bfc0f378:	00000000 	nop
bfc0f37c:	1000000b 	b	bfc0f3ac <main+0xf3ac>
bfc0f380:	00000000 	nop
bfc0f384:	00000021 	move	zero,zero
bfc0f388:	00000021 	move	zero,zero
bfc0f38c:	00000021 	move	zero,zero
bfc0f390:	00000021 	move	zero,zero
bfc0f394:	00000021 	move	zero,zero
bfc0f398:	00000021 	move	zero,zero
bfc0f39c:	00000021 	move	zero,zero
bfc0f3a0:	00000021 	move	zero,zero
bfc0f3a4:	3c121ca2 	lui	s2,0x1ca2
bfc0f3a8:	36526760 	ori	s2,s2,0x6760
bfc0f3ac:	00000000 	nop
bfc0f3b0:	3c140834 	lui	s4,0x834
bfc0f3b4:	3694cc10 	ori	s4,s4,0xcc10
bfc0f3b8:	1614028b 	bne	s0,s4,bfc0fde8 <inst_error>
bfc0f3bc:	00000000 	nop
bfc0f3c0:	3c151ca2 	lui	s5,0x1ca2
bfc0f3c4:	36b56760 	ori	s5,s5,0x6760
bfc0f3c8:	16550287 	bne	s2,s5,bfc0fde8 <inst_error>
bfc0f3cc:	00000000 	nop
bfc0f3d0:	3c0c1fbf 	lui	t4,0x1fbf
bfc0f3d4:	358c88ce 	ori	t4,t4,0x88ce
bfc0f3d8:	3c0d0062 	lui	t5,0x62
bfc0f3dc:	35adf672 	ori	t5,t5,0xf672
bfc0f3e0:	24100000 	li	s0,0
bfc0f3e4:	24120000 	li	s2,0
bfc0f3e8:	10000015 	b	bfc0f440 <main+0xf440>
bfc0f3ec:	00000000 	nop
bfc0f3f0:	3c101fbf 	lui	s0,0x1fbf
bfc0f3f4:	361088ce 	ori	s0,s0,0x88ce
bfc0f3f8:	15280020 	bne	t1,t0,bfc0f47c <main+0xf47c>
bfc0f3fc:	00000000 	nop
bfc0f400:	10000020 	b	bfc0f484 <main+0xf484>
bfc0f404:	00000000 	nop
bfc0f408:	00000021 	move	zero,zero
bfc0f40c:	00000021 	move	zero,zero
bfc0f410:	00000021 	move	zero,zero
bfc0f414:	00000021 	move	zero,zero
bfc0f418:	00000021 	move	zero,zero
bfc0f41c:	00000021 	move	zero,zero
bfc0f420:	00000021 	move	zero,zero
bfc0f424:	00000021 	move	zero,zero
bfc0f428:	00000021 	move	zero,zero
bfc0f42c:	00000021 	move	zero,zero
bfc0f430:	00000021 	move	zero,zero
bfc0f434:	00000021 	move	zero,zero
bfc0f438:	00000021 	move	zero,zero
bfc0f43c:	00000021 	move	zero,zero
bfc0f440:	24080000 	li	t0,0
bfc0f444:	3c094d4e 	lui	t1,0x4d4e
bfc0f448:	3529f93a 	ori	t1,t1,0xf93a
bfc0f44c:	1509ffe8 	bne	t0,t1,bfc0f3f0 <main+0xf3f0>
bfc0f450:	00000000 	nop
bfc0f454:	1000000b 	b	bfc0f484 <main+0xf484>
bfc0f458:	00000000 	nop
bfc0f45c:	00000021 	move	zero,zero
bfc0f460:	00000021 	move	zero,zero
bfc0f464:	00000021 	move	zero,zero
bfc0f468:	00000021 	move	zero,zero
bfc0f46c:	00000021 	move	zero,zero
bfc0f470:	00000021 	move	zero,zero
bfc0f474:	00000021 	move	zero,zero
bfc0f478:	00000021 	move	zero,zero
bfc0f47c:	3c120062 	lui	s2,0x62
bfc0f480:	3652f672 	ori	s2,s2,0xf672
bfc0f484:	00000000 	nop
bfc0f488:	3c141fbf 	lui	s4,0x1fbf
bfc0f48c:	369488ce 	ori	s4,s4,0x88ce
bfc0f490:	16140255 	bne	s0,s4,bfc0fde8 <inst_error>
bfc0f494:	00000000 	nop
bfc0f498:	3c150062 	lui	s5,0x62
bfc0f49c:	36b5f672 	ori	s5,s5,0xf672
bfc0f4a0:	16550251 	bne	s2,s5,bfc0fde8 <inst_error>
bfc0f4a4:	00000000 	nop
bfc0f4a8:	3c0cf451 	lui	t4,0xf451
bfc0f4ac:	358c0894 	ori	t4,t4,0x894
bfc0f4b0:	3c0d90a8 	lui	t5,0x90a8
bfc0f4b4:	35ad1418 	ori	t5,t5,0x1418
bfc0f4b8:	24100000 	li	s0,0
bfc0f4bc:	24120000 	li	s2,0
bfc0f4c0:	10000015 	b	bfc0f518 <main+0xf518>
bfc0f4c4:	00000000 	nop
bfc0f4c8:	3c10f451 	lui	s0,0xf451
bfc0f4cc:	36100894 	ori	s0,s0,0x894
bfc0f4d0:	15280020 	bne	t1,t0,bfc0f554 <main+0xf554>
bfc0f4d4:	00000000 	nop
bfc0f4d8:	10000020 	b	bfc0f55c <main+0xf55c>
bfc0f4dc:	00000000 	nop
bfc0f4e0:	00000021 	move	zero,zero
bfc0f4e4:	00000021 	move	zero,zero
bfc0f4e8:	00000021 	move	zero,zero
bfc0f4ec:	00000021 	move	zero,zero
bfc0f4f0:	00000021 	move	zero,zero
bfc0f4f4:	00000021 	move	zero,zero
bfc0f4f8:	00000021 	move	zero,zero
bfc0f4fc:	00000021 	move	zero,zero
bfc0f500:	00000021 	move	zero,zero
bfc0f504:	00000021 	move	zero,zero
bfc0f508:	00000021 	move	zero,zero
bfc0f50c:	00000021 	move	zero,zero
bfc0f510:	00000021 	move	zero,zero
bfc0f514:	00000021 	move	zero,zero
bfc0f518:	24080000 	li	t0,0
bfc0f51c:	3c091fb5 	lui	t1,0x1fb5
bfc0f520:	35294c54 	ori	t1,t1,0x4c54
bfc0f524:	1509ffe8 	bne	t0,t1,bfc0f4c8 <main+0xf4c8>
bfc0f528:	00000000 	nop
bfc0f52c:	1000000b 	b	bfc0f55c <main+0xf55c>
bfc0f530:	00000000 	nop
bfc0f534:	00000021 	move	zero,zero
bfc0f538:	00000021 	move	zero,zero
bfc0f53c:	00000021 	move	zero,zero
bfc0f540:	00000021 	move	zero,zero
bfc0f544:	00000021 	move	zero,zero
bfc0f548:	00000021 	move	zero,zero
bfc0f54c:	00000021 	move	zero,zero
bfc0f550:	00000021 	move	zero,zero
bfc0f554:	3c1290a8 	lui	s2,0x90a8
bfc0f558:	36521418 	ori	s2,s2,0x1418
bfc0f55c:	00000000 	nop
bfc0f560:	3c14f451 	lui	s4,0xf451
bfc0f564:	36940894 	ori	s4,s4,0x894
bfc0f568:	1614021f 	bne	s0,s4,bfc0fde8 <inst_error>
bfc0f56c:	00000000 	nop
bfc0f570:	3c1590a8 	lui	s5,0x90a8
bfc0f574:	36b51418 	ori	s5,s5,0x1418
bfc0f578:	1655021b 	bne	s2,s5,bfc0fde8 <inst_error>
bfc0f57c:	00000000 	nop
bfc0f580:	3c0ca55e 	lui	t4,0xa55e
bfc0f584:	358c3a99 	ori	t4,t4,0x3a99
bfc0f588:	3c0da457 	lui	t5,0xa457
bfc0f58c:	35addfb0 	ori	t5,t5,0xdfb0
bfc0f590:	24100000 	li	s0,0
bfc0f594:	24120000 	li	s2,0
bfc0f598:	10000015 	b	bfc0f5f0 <main+0xf5f0>
bfc0f59c:	00000000 	nop
bfc0f5a0:	3c10a55e 	lui	s0,0xa55e
bfc0f5a4:	36103a99 	ori	s0,s0,0x3a99
bfc0f5a8:	15280020 	bne	t1,t0,bfc0f62c <main+0xf62c>
bfc0f5ac:	00000000 	nop
bfc0f5b0:	10000020 	b	bfc0f634 <main+0xf634>
bfc0f5b4:	00000000 	nop
bfc0f5b8:	00000021 	move	zero,zero
bfc0f5bc:	00000021 	move	zero,zero
bfc0f5c0:	00000021 	move	zero,zero
bfc0f5c4:	00000021 	move	zero,zero
bfc0f5c8:	00000021 	move	zero,zero
bfc0f5cc:	00000021 	move	zero,zero
bfc0f5d0:	00000021 	move	zero,zero
bfc0f5d4:	00000021 	move	zero,zero
bfc0f5d8:	00000021 	move	zero,zero
bfc0f5dc:	00000021 	move	zero,zero
bfc0f5e0:	00000021 	move	zero,zero
bfc0f5e4:	00000021 	move	zero,zero
bfc0f5e8:	00000021 	move	zero,zero
bfc0f5ec:	00000021 	move	zero,zero
bfc0f5f0:	24080000 	li	t0,0
bfc0f5f4:	3c095ae1 	lui	t1,0x5ae1
bfc0f5f8:	3529c10a 	ori	t1,t1,0xc10a
bfc0f5fc:	1509ffe8 	bne	t0,t1,bfc0f5a0 <main+0xf5a0>
bfc0f600:	00000000 	nop
bfc0f604:	1000000b 	b	bfc0f634 <main+0xf634>
bfc0f608:	00000000 	nop
bfc0f60c:	00000021 	move	zero,zero
bfc0f610:	00000021 	move	zero,zero
bfc0f614:	00000021 	move	zero,zero
bfc0f618:	00000021 	move	zero,zero
bfc0f61c:	00000021 	move	zero,zero
bfc0f620:	00000021 	move	zero,zero
bfc0f624:	00000021 	move	zero,zero
bfc0f628:	00000021 	move	zero,zero
bfc0f62c:	3c12a457 	lui	s2,0xa457
bfc0f630:	3652dfb0 	ori	s2,s2,0xdfb0
bfc0f634:	00000000 	nop
bfc0f638:	3c14a55e 	lui	s4,0xa55e
bfc0f63c:	36943a99 	ori	s4,s4,0x3a99
bfc0f640:	161401e9 	bne	s0,s4,bfc0fde8 <inst_error>
bfc0f644:	00000000 	nop
bfc0f648:	3c15a457 	lui	s5,0xa457
bfc0f64c:	36b5dfb0 	ori	s5,s5,0xdfb0
bfc0f650:	165501e5 	bne	s2,s5,bfc0fde8 <inst_error>
bfc0f654:	00000000 	nop
bfc0f658:	3c0c445b 	lui	t4,0x445b
bfc0f65c:	358c8590 	ori	t4,t4,0x8590
bfc0f660:	3c0d252b 	lui	t5,0x252b
bfc0f664:	35adf044 	ori	t5,t5,0xf044
bfc0f668:	24100000 	li	s0,0
bfc0f66c:	24120000 	li	s2,0
bfc0f670:	10000015 	b	bfc0f6c8 <main+0xf6c8>
bfc0f674:	00000000 	nop
bfc0f678:	3c10445b 	lui	s0,0x445b
bfc0f67c:	36108590 	ori	s0,s0,0x8590
bfc0f680:	15280020 	bne	t1,t0,bfc0f704 <main+0xf704>
bfc0f684:	00000000 	nop
bfc0f688:	10000020 	b	bfc0f70c <main+0xf70c>
bfc0f68c:	00000000 	nop
bfc0f690:	00000021 	move	zero,zero
bfc0f694:	00000021 	move	zero,zero
bfc0f698:	00000021 	move	zero,zero
bfc0f69c:	00000021 	move	zero,zero
bfc0f6a0:	00000021 	move	zero,zero
bfc0f6a4:	00000021 	move	zero,zero
bfc0f6a8:	00000021 	move	zero,zero
bfc0f6ac:	00000021 	move	zero,zero
bfc0f6b0:	00000021 	move	zero,zero
bfc0f6b4:	00000021 	move	zero,zero
bfc0f6b8:	00000021 	move	zero,zero
bfc0f6bc:	00000021 	move	zero,zero
bfc0f6c0:	00000021 	move	zero,zero
bfc0f6c4:	00000021 	move	zero,zero
bfc0f6c8:	24080000 	li	t0,0
bfc0f6cc:	3c09e39c 	lui	t1,0xe39c
bfc0f6d0:	352965e3 	ori	t1,t1,0x65e3
bfc0f6d4:	1509ffe8 	bne	t0,t1,bfc0f678 <main+0xf678>
bfc0f6d8:	00000000 	nop
bfc0f6dc:	1000000b 	b	bfc0f70c <main+0xf70c>
bfc0f6e0:	00000000 	nop
bfc0f6e4:	00000021 	move	zero,zero
bfc0f6e8:	00000021 	move	zero,zero
bfc0f6ec:	00000021 	move	zero,zero
bfc0f6f0:	00000021 	move	zero,zero
bfc0f6f4:	00000021 	move	zero,zero
bfc0f6f8:	00000021 	move	zero,zero
bfc0f6fc:	00000021 	move	zero,zero
bfc0f700:	00000021 	move	zero,zero
bfc0f704:	3c12252b 	lui	s2,0x252b
bfc0f708:	3652f044 	ori	s2,s2,0xf044
bfc0f70c:	00000000 	nop
bfc0f710:	3c14445b 	lui	s4,0x445b
bfc0f714:	36948590 	ori	s4,s4,0x8590
bfc0f718:	161401b3 	bne	s0,s4,bfc0fde8 <inst_error>
bfc0f71c:	00000000 	nop
bfc0f720:	3c15252b 	lui	s5,0x252b
bfc0f724:	36b5f044 	ori	s5,s5,0xf044
bfc0f728:	165501af 	bne	s2,s5,bfc0fde8 <inst_error>
bfc0f72c:	00000000 	nop
bfc0f730:	3c0c3cf2 	lui	t4,0x3cf2
bfc0f734:	358ca6f6 	ori	t4,t4,0xa6f6
bfc0f738:	3c0de505 	lui	t5,0xe505
bfc0f73c:	35ad0db0 	ori	t5,t5,0xdb0
bfc0f740:	24100000 	li	s0,0
bfc0f744:	24120000 	li	s2,0
bfc0f748:	10000015 	b	bfc0f7a0 <main+0xf7a0>
bfc0f74c:	00000000 	nop
bfc0f750:	3c103cf2 	lui	s0,0x3cf2
bfc0f754:	3610a6f6 	ori	s0,s0,0xa6f6
bfc0f758:	15280020 	bne	t1,t0,bfc0f7dc <main+0xf7dc>
bfc0f75c:	00000000 	nop
bfc0f760:	10000020 	b	bfc0f7e4 <main+0xf7e4>
bfc0f764:	00000000 	nop
bfc0f768:	00000021 	move	zero,zero
bfc0f76c:	00000021 	move	zero,zero
bfc0f770:	00000021 	move	zero,zero
bfc0f774:	00000021 	move	zero,zero
bfc0f778:	00000021 	move	zero,zero
bfc0f77c:	00000021 	move	zero,zero
bfc0f780:	00000021 	move	zero,zero
bfc0f784:	00000021 	move	zero,zero
bfc0f788:	00000021 	move	zero,zero
bfc0f78c:	00000021 	move	zero,zero
bfc0f790:	00000021 	move	zero,zero
bfc0f794:	00000021 	move	zero,zero
bfc0f798:	00000021 	move	zero,zero
bfc0f79c:	00000021 	move	zero,zero
bfc0f7a0:	24080000 	li	t0,0
bfc0f7a4:	3c0971cf 	lui	t1,0x71cf
bfc0f7a8:	35292d6a 	ori	t1,t1,0x2d6a
bfc0f7ac:	1509ffe8 	bne	t0,t1,bfc0f750 <main+0xf750>
bfc0f7b0:	00000000 	nop
bfc0f7b4:	1000000b 	b	bfc0f7e4 <main+0xf7e4>
bfc0f7b8:	00000000 	nop
bfc0f7bc:	00000021 	move	zero,zero
bfc0f7c0:	00000021 	move	zero,zero
bfc0f7c4:	00000021 	move	zero,zero
bfc0f7c8:	00000021 	move	zero,zero
bfc0f7cc:	00000021 	move	zero,zero
bfc0f7d0:	00000021 	move	zero,zero
bfc0f7d4:	00000021 	move	zero,zero
bfc0f7d8:	00000021 	move	zero,zero
bfc0f7dc:	3c12e505 	lui	s2,0xe505
bfc0f7e0:	36520db0 	ori	s2,s2,0xdb0
bfc0f7e4:	00000000 	nop
bfc0f7e8:	3c143cf2 	lui	s4,0x3cf2
bfc0f7ec:	3694a6f6 	ori	s4,s4,0xa6f6
bfc0f7f0:	1614017d 	bne	s0,s4,bfc0fde8 <inst_error>
bfc0f7f4:	00000000 	nop
bfc0f7f8:	3c15e505 	lui	s5,0xe505
bfc0f7fc:	36b50db0 	ori	s5,s5,0xdb0
bfc0f800:	16550179 	bne	s2,s5,bfc0fde8 <inst_error>
bfc0f804:	00000000 	nop
bfc0f808:	3c0cdb56 	lui	t4,0xdb56
bfc0f80c:	358cb7a8 	ori	t4,t4,0xb7a8
bfc0f810:	3c0d49b2 	lui	t5,0x49b2
bfc0f814:	35ad11f0 	ori	t5,t5,0x11f0
bfc0f818:	24100000 	li	s0,0
bfc0f81c:	24120000 	li	s2,0
bfc0f820:	10000015 	b	bfc0f878 <main+0xf878>
bfc0f824:	00000000 	nop
bfc0f828:	3c10db56 	lui	s0,0xdb56
bfc0f82c:	3610b7a8 	ori	s0,s0,0xb7a8
bfc0f830:	15280020 	bne	t1,t0,bfc0f8b4 <main+0xf8b4>
bfc0f834:	00000000 	nop
bfc0f838:	10000020 	b	bfc0f8bc <main+0xf8bc>
bfc0f83c:	00000000 	nop
bfc0f840:	00000021 	move	zero,zero
bfc0f844:	00000021 	move	zero,zero
bfc0f848:	00000021 	move	zero,zero
bfc0f84c:	00000021 	move	zero,zero
bfc0f850:	00000021 	move	zero,zero
bfc0f854:	00000021 	move	zero,zero
bfc0f858:	00000021 	move	zero,zero
bfc0f85c:	00000021 	move	zero,zero
bfc0f860:	00000021 	move	zero,zero
bfc0f864:	00000021 	move	zero,zero
bfc0f868:	00000021 	move	zero,zero
bfc0f86c:	00000021 	move	zero,zero
bfc0f870:	00000021 	move	zero,zero
bfc0f874:	00000021 	move	zero,zero
bfc0f878:	24080000 	li	t0,0
bfc0f87c:	3c091530 	lui	t1,0x1530
bfc0f880:	3529a956 	ori	t1,t1,0xa956
bfc0f884:	1509ffe8 	bne	t0,t1,bfc0f828 <main+0xf828>
bfc0f888:	00000000 	nop
bfc0f88c:	1000000b 	b	bfc0f8bc <main+0xf8bc>
bfc0f890:	00000000 	nop
bfc0f894:	00000021 	move	zero,zero
bfc0f898:	00000021 	move	zero,zero
bfc0f89c:	00000021 	move	zero,zero
bfc0f8a0:	00000021 	move	zero,zero
bfc0f8a4:	00000021 	move	zero,zero
bfc0f8a8:	00000021 	move	zero,zero
bfc0f8ac:	00000021 	move	zero,zero
bfc0f8b0:	00000021 	move	zero,zero
bfc0f8b4:	3c1249b2 	lui	s2,0x49b2
bfc0f8b8:	365211f0 	ori	s2,s2,0x11f0
bfc0f8bc:	00000000 	nop
bfc0f8c0:	3c14db56 	lui	s4,0xdb56
bfc0f8c4:	3694b7a8 	ori	s4,s4,0xb7a8
bfc0f8c8:	16140147 	bne	s0,s4,bfc0fde8 <inst_error>
bfc0f8cc:	00000000 	nop
bfc0f8d0:	3c1549b2 	lui	s5,0x49b2
bfc0f8d4:	36b511f0 	ori	s5,s5,0x11f0
bfc0f8d8:	16550143 	bne	s2,s5,bfc0fde8 <inst_error>
bfc0f8dc:	00000000 	nop
bfc0f8e0:	3c0c38ab 	lui	t4,0x38ab
bfc0f8e4:	358cc364 	ori	t4,t4,0xc364
bfc0f8e8:	3c0da774 	lui	t5,0xa774
bfc0f8ec:	35ada135 	ori	t5,t5,0xa135
bfc0f8f0:	24100000 	li	s0,0
bfc0f8f4:	24120000 	li	s2,0
bfc0f8f8:	10000015 	b	bfc0f950 <main+0xf950>
bfc0f8fc:	00000000 	nop
bfc0f900:	3c1038ab 	lui	s0,0x38ab
bfc0f904:	3610c364 	ori	s0,s0,0xc364
bfc0f908:	15280020 	bne	t1,t0,bfc0f98c <main+0xf98c>
bfc0f90c:	00000000 	nop
bfc0f910:	10000020 	b	bfc0f994 <main+0xf994>
bfc0f914:	00000000 	nop
bfc0f918:	00000021 	move	zero,zero
bfc0f91c:	00000021 	move	zero,zero
bfc0f920:	00000021 	move	zero,zero
bfc0f924:	00000021 	move	zero,zero
bfc0f928:	00000021 	move	zero,zero
bfc0f92c:	00000021 	move	zero,zero
bfc0f930:	00000021 	move	zero,zero
bfc0f934:	00000021 	move	zero,zero
bfc0f938:	00000021 	move	zero,zero
bfc0f93c:	00000021 	move	zero,zero
bfc0f940:	00000021 	move	zero,zero
bfc0f944:	00000021 	move	zero,zero
bfc0f948:	00000021 	move	zero,zero
bfc0f94c:	00000021 	move	zero,zero
bfc0f950:	24080000 	li	t0,0
bfc0f954:	3c09e343 	lui	t1,0xe343
bfc0f958:	352917f6 	ori	t1,t1,0x17f6
bfc0f95c:	1509ffe8 	bne	t0,t1,bfc0f900 <main+0xf900>
bfc0f960:	00000000 	nop
bfc0f964:	1000000b 	b	bfc0f994 <main+0xf994>
bfc0f968:	00000000 	nop
bfc0f96c:	00000021 	move	zero,zero
bfc0f970:	00000021 	move	zero,zero
bfc0f974:	00000021 	move	zero,zero
bfc0f978:	00000021 	move	zero,zero
bfc0f97c:	00000021 	move	zero,zero
bfc0f980:	00000021 	move	zero,zero
bfc0f984:	00000021 	move	zero,zero
bfc0f988:	00000021 	move	zero,zero
bfc0f98c:	3c12a774 	lui	s2,0xa774
bfc0f990:	3652a135 	ori	s2,s2,0xa135
bfc0f994:	00000000 	nop
bfc0f998:	3c1438ab 	lui	s4,0x38ab
bfc0f99c:	3694c364 	ori	s4,s4,0xc364
bfc0f9a0:	16140111 	bne	s0,s4,bfc0fde8 <inst_error>
bfc0f9a4:	00000000 	nop
bfc0f9a8:	3c15a774 	lui	s5,0xa774
bfc0f9ac:	36b5a135 	ori	s5,s5,0xa135
bfc0f9b0:	1655010d 	bne	s2,s5,bfc0fde8 <inst_error>
bfc0f9b4:	00000000 	nop
bfc0f9b8:	3c0cb27b 	lui	t4,0xb27b
bfc0f9bc:	358cd70c 	ori	t4,t4,0xd70c
bfc0f9c0:	3c0db672 	lui	t5,0xb672
bfc0f9c4:	35adede0 	ori	t5,t5,0xede0
bfc0f9c8:	24100000 	li	s0,0
bfc0f9cc:	24120000 	li	s2,0
bfc0f9d0:	10000015 	b	bfc0fa28 <main+0xfa28>
bfc0f9d4:	00000000 	nop
bfc0f9d8:	3c10b27b 	lui	s0,0xb27b
bfc0f9dc:	3610d70c 	ori	s0,s0,0xd70c
bfc0f9e0:	15280020 	bne	t1,t0,bfc0fa64 <main+0xfa64>
bfc0f9e4:	00000000 	nop
bfc0f9e8:	10000020 	b	bfc0fa6c <main+0xfa6c>
bfc0f9ec:	00000000 	nop
bfc0f9f0:	00000021 	move	zero,zero
bfc0f9f4:	00000021 	move	zero,zero
bfc0f9f8:	00000021 	move	zero,zero
bfc0f9fc:	00000021 	move	zero,zero
bfc0fa00:	00000021 	move	zero,zero
bfc0fa04:	00000021 	move	zero,zero
bfc0fa08:	00000021 	move	zero,zero
bfc0fa0c:	00000021 	move	zero,zero
bfc0fa10:	00000021 	move	zero,zero
bfc0fa14:	00000021 	move	zero,zero
bfc0fa18:	00000021 	move	zero,zero
bfc0fa1c:	00000021 	move	zero,zero
bfc0fa20:	00000021 	move	zero,zero
bfc0fa24:	00000021 	move	zero,zero
bfc0fa28:	24080000 	li	t0,0
bfc0fa2c:	3c0915c9 	lui	t1,0x15c9
bfc0fa30:	35291782 	ori	t1,t1,0x1782
bfc0fa34:	1509ffe8 	bne	t0,t1,bfc0f9d8 <main+0xf9d8>
bfc0fa38:	00000000 	nop
bfc0fa3c:	1000000b 	b	bfc0fa6c <main+0xfa6c>
bfc0fa40:	00000000 	nop
bfc0fa44:	00000021 	move	zero,zero
bfc0fa48:	00000021 	move	zero,zero
bfc0fa4c:	00000021 	move	zero,zero
bfc0fa50:	00000021 	move	zero,zero
bfc0fa54:	00000021 	move	zero,zero
bfc0fa58:	00000021 	move	zero,zero
bfc0fa5c:	00000021 	move	zero,zero
bfc0fa60:	00000021 	move	zero,zero
bfc0fa64:	3c12b672 	lui	s2,0xb672
bfc0fa68:	3652ede0 	ori	s2,s2,0xede0
bfc0fa6c:	00000000 	nop
bfc0fa70:	3c14b27b 	lui	s4,0xb27b
bfc0fa74:	3694d70c 	ori	s4,s4,0xd70c
bfc0fa78:	161400db 	bne	s0,s4,bfc0fde8 <inst_error>
bfc0fa7c:	00000000 	nop
bfc0fa80:	3c15b672 	lui	s5,0xb672
bfc0fa84:	36b5ede0 	ori	s5,s5,0xede0
bfc0fa88:	165500d7 	bne	s2,s5,bfc0fde8 <inst_error>
bfc0fa8c:	00000000 	nop
bfc0fa90:	3c0cace0 	lui	t4,0xace0
bfc0fa94:	358c6e98 	ori	t4,t4,0x6e98
bfc0fa98:	3c0df6c1 	lui	t5,0xf6c1
bfc0fa9c:	35ad3268 	ori	t5,t5,0x3268
bfc0faa0:	24100000 	li	s0,0
bfc0faa4:	24120000 	li	s2,0
bfc0faa8:	10000015 	b	bfc0fb00 <main+0xfb00>
bfc0faac:	00000000 	nop
bfc0fab0:	3c10ace0 	lui	s0,0xace0
bfc0fab4:	36106e98 	ori	s0,s0,0x6e98
bfc0fab8:	15280020 	bne	t1,t0,bfc0fb3c <main+0xfb3c>
bfc0fabc:	00000000 	nop
bfc0fac0:	10000020 	b	bfc0fb44 <main+0xfb44>
bfc0fac4:	00000000 	nop
bfc0fac8:	00000021 	move	zero,zero
bfc0facc:	00000021 	move	zero,zero
bfc0fad0:	00000021 	move	zero,zero
bfc0fad4:	00000021 	move	zero,zero
bfc0fad8:	00000021 	move	zero,zero
bfc0fadc:	00000021 	move	zero,zero
bfc0fae0:	00000021 	move	zero,zero
bfc0fae4:	00000021 	move	zero,zero
bfc0fae8:	00000021 	move	zero,zero
bfc0faec:	00000021 	move	zero,zero
bfc0faf0:	00000021 	move	zero,zero
bfc0faf4:	00000021 	move	zero,zero
bfc0faf8:	00000021 	move	zero,zero
bfc0fafc:	00000021 	move	zero,zero
bfc0fb00:	24080000 	li	t0,0
bfc0fb04:	3c09774a 	lui	t1,0x774a
bfc0fb08:	3529b6a0 	ori	t1,t1,0xb6a0
bfc0fb0c:	1509ffe8 	bne	t0,t1,bfc0fab0 <main+0xfab0>
bfc0fb10:	00000000 	nop
bfc0fb14:	1000000b 	b	bfc0fb44 <main+0xfb44>
bfc0fb18:	00000000 	nop
bfc0fb1c:	00000021 	move	zero,zero
bfc0fb20:	00000021 	move	zero,zero
bfc0fb24:	00000021 	move	zero,zero
bfc0fb28:	00000021 	move	zero,zero
bfc0fb2c:	00000021 	move	zero,zero
bfc0fb30:	00000021 	move	zero,zero
bfc0fb34:	00000021 	move	zero,zero
bfc0fb38:	00000021 	move	zero,zero
bfc0fb3c:	3c12f6c1 	lui	s2,0xf6c1
bfc0fb40:	36523268 	ori	s2,s2,0x3268
bfc0fb44:	00000000 	nop
bfc0fb48:	3c14ace0 	lui	s4,0xace0
bfc0fb4c:	36946e98 	ori	s4,s4,0x6e98
bfc0fb50:	161400a5 	bne	s0,s4,bfc0fde8 <inst_error>
bfc0fb54:	00000000 	nop
bfc0fb58:	3c15f6c1 	lui	s5,0xf6c1
bfc0fb5c:	36b53268 	ori	s5,s5,0x3268
bfc0fb60:	165500a1 	bne	s2,s5,bfc0fde8 <inst_error>
bfc0fb64:	00000000 	nop
bfc0fb68:	3c0c6ea3 	lui	t4,0x6ea3
bfc0fb6c:	358c6e38 	ori	t4,t4,0x6e38
bfc0fb70:	3c0d6d81 	lui	t5,0x6d81
bfc0fb74:	35adb001 	ori	t5,t5,0xb001
bfc0fb78:	24100000 	li	s0,0
bfc0fb7c:	24120000 	li	s2,0
bfc0fb80:	10000015 	b	bfc0fbd8 <main+0xfbd8>
bfc0fb84:	00000000 	nop
bfc0fb88:	3c106ea3 	lui	s0,0x6ea3
bfc0fb8c:	36106e38 	ori	s0,s0,0x6e38
bfc0fb90:	15280020 	bne	t1,t0,bfc0fc14 <main+0xfc14>
bfc0fb94:	00000000 	nop
bfc0fb98:	10000020 	b	bfc0fc1c <main+0xfc1c>
bfc0fb9c:	00000000 	nop
bfc0fba0:	00000021 	move	zero,zero
bfc0fba4:	00000021 	move	zero,zero
bfc0fba8:	00000021 	move	zero,zero
bfc0fbac:	00000021 	move	zero,zero
bfc0fbb0:	00000021 	move	zero,zero
bfc0fbb4:	00000021 	move	zero,zero
bfc0fbb8:	00000021 	move	zero,zero
bfc0fbbc:	00000021 	move	zero,zero
bfc0fbc0:	00000021 	move	zero,zero
bfc0fbc4:	00000021 	move	zero,zero
bfc0fbc8:	00000021 	move	zero,zero
bfc0fbcc:	00000021 	move	zero,zero
bfc0fbd0:	00000021 	move	zero,zero
bfc0fbd4:	00000021 	move	zero,zero
bfc0fbd8:	24080000 	li	t0,0
bfc0fbdc:	3c095dfc 	lui	t1,0x5dfc
bfc0fbe0:	35296230 	ori	t1,t1,0x6230
bfc0fbe4:	1509ffe8 	bne	t0,t1,bfc0fb88 <main+0xfb88>
bfc0fbe8:	00000000 	nop
bfc0fbec:	1000000b 	b	bfc0fc1c <main+0xfc1c>
bfc0fbf0:	00000000 	nop
bfc0fbf4:	00000021 	move	zero,zero
bfc0fbf8:	00000021 	move	zero,zero
bfc0fbfc:	00000021 	move	zero,zero
bfc0fc00:	00000021 	move	zero,zero
bfc0fc04:	00000021 	move	zero,zero
bfc0fc08:	00000021 	move	zero,zero
bfc0fc0c:	00000021 	move	zero,zero
bfc0fc10:	00000021 	move	zero,zero
bfc0fc14:	3c126d81 	lui	s2,0x6d81
bfc0fc18:	3652b001 	ori	s2,s2,0xb001
bfc0fc1c:	00000000 	nop
bfc0fc20:	3c146ea3 	lui	s4,0x6ea3
bfc0fc24:	36946e38 	ori	s4,s4,0x6e38
bfc0fc28:	1614006f 	bne	s0,s4,bfc0fde8 <inst_error>
bfc0fc2c:	00000000 	nop
bfc0fc30:	3c156d81 	lui	s5,0x6d81
bfc0fc34:	36b5b001 	ori	s5,s5,0xb001
bfc0fc38:	1655006b 	bne	s2,s5,bfc0fde8 <inst_error>
bfc0fc3c:	00000000 	nop
bfc0fc40:	3c0c931c 	lui	t4,0x931c
bfc0fc44:	358c23ac 	ori	t4,t4,0x23ac
bfc0fc48:	3c0df917 	lui	t5,0xf917
bfc0fc4c:	35ad267c 	ori	t5,t5,0x267c
bfc0fc50:	24100000 	li	s0,0
bfc0fc54:	24120000 	li	s2,0
bfc0fc58:	10000015 	b	bfc0fcb0 <main+0xfcb0>
bfc0fc5c:	00000000 	nop
bfc0fc60:	3c10931c 	lui	s0,0x931c
bfc0fc64:	361023ac 	ori	s0,s0,0x23ac
bfc0fc68:	15280020 	bne	t1,t0,bfc0fcec <main+0xfcec>
bfc0fc6c:	00000000 	nop
bfc0fc70:	10000020 	b	bfc0fcf4 <main+0xfcf4>
bfc0fc74:	00000000 	nop
bfc0fc78:	00000021 	move	zero,zero
bfc0fc7c:	00000021 	move	zero,zero
bfc0fc80:	00000021 	move	zero,zero
bfc0fc84:	00000021 	move	zero,zero
bfc0fc88:	00000021 	move	zero,zero
bfc0fc8c:	00000021 	move	zero,zero
bfc0fc90:	00000021 	move	zero,zero
bfc0fc94:	00000021 	move	zero,zero
bfc0fc98:	00000021 	move	zero,zero
bfc0fc9c:	00000021 	move	zero,zero
bfc0fca0:	00000021 	move	zero,zero
bfc0fca4:	00000021 	move	zero,zero
bfc0fca8:	00000021 	move	zero,zero
bfc0fcac:	00000021 	move	zero,zero
bfc0fcb0:	24080000 	li	t0,0
bfc0fcb4:	3c090edc 	lui	t1,0xedc
bfc0fcb8:	3529b298 	ori	t1,t1,0xb298
bfc0fcbc:	1509ffe8 	bne	t0,t1,bfc0fc60 <main+0xfc60>
bfc0fcc0:	00000000 	nop
bfc0fcc4:	1000000b 	b	bfc0fcf4 <main+0xfcf4>
bfc0fcc8:	00000000 	nop
bfc0fccc:	00000021 	move	zero,zero
bfc0fcd0:	00000021 	move	zero,zero
bfc0fcd4:	00000021 	move	zero,zero
bfc0fcd8:	00000021 	move	zero,zero
bfc0fcdc:	00000021 	move	zero,zero
bfc0fce0:	00000021 	move	zero,zero
bfc0fce4:	00000021 	move	zero,zero
bfc0fce8:	00000021 	move	zero,zero
bfc0fcec:	3c12f917 	lui	s2,0xf917
bfc0fcf0:	3652267c 	ori	s2,s2,0x267c
bfc0fcf4:	00000000 	nop
bfc0fcf8:	3c14931c 	lui	s4,0x931c
bfc0fcfc:	369423ac 	ori	s4,s4,0x23ac
bfc0fd00:	16140039 	bne	s0,s4,bfc0fde8 <inst_error>
bfc0fd04:	00000000 	nop
bfc0fd08:	3c15f917 	lui	s5,0xf917
bfc0fd0c:	36b5267c 	ori	s5,s5,0x267c
bfc0fd10:	16550035 	bne	s2,s5,bfc0fde8 <inst_error>
bfc0fd14:	00000000 	nop
bfc0fd18:	3c0c1744 	lui	t4,0x1744
bfc0fd1c:	358c192c 	ori	t4,t4,0x192c
bfc0fd20:	3c0d0b48 	lui	t5,0xb48
bfc0fd24:	35adf1f0 	ori	t5,t5,0xf1f0
bfc0fd28:	24100000 	li	s0,0
bfc0fd2c:	24120000 	li	s2,0
bfc0fd30:	10000015 	b	bfc0fd88 <main+0xfd88>
bfc0fd34:	00000000 	nop
bfc0fd38:	3c101744 	lui	s0,0x1744
bfc0fd3c:	3610192c 	ori	s0,s0,0x192c
bfc0fd40:	1528001f 	bne	t1,t0,bfc0fdc0 <main+0xfdc0>
bfc0fd44:	00000000 	nop
bfc0fd48:	1000001f 	b	bfc0fdc8 <main+0xfdc8>
bfc0fd4c:	00000000 	nop
bfc0fd50:	00000021 	move	zero,zero
bfc0fd54:	00000021 	move	zero,zero
bfc0fd58:	00000021 	move	zero,zero
bfc0fd5c:	00000021 	move	zero,zero
bfc0fd60:	00000021 	move	zero,zero
bfc0fd64:	00000021 	move	zero,zero
bfc0fd68:	00000021 	move	zero,zero
bfc0fd6c:	00000021 	move	zero,zero
bfc0fd70:	00000021 	move	zero,zero
bfc0fd74:	00000021 	move	zero,zero
bfc0fd78:	00000021 	move	zero,zero
bfc0fd7c:	00000021 	move	zero,zero
bfc0fd80:	00000021 	move	zero,zero
bfc0fd84:	00000021 	move	zero,zero
bfc0fd88:	24080000 	li	t0,0
bfc0fd8c:	24090000 	li	t1,0
bfc0fd90:	1509ffe9 	bne	t0,t1,bfc0fd38 <main+0xfd38>
bfc0fd94:	00000000 	nop
bfc0fd98:	1000000b 	b	bfc0fdc8 <main+0xfdc8>
bfc0fd9c:	00000000 	nop
bfc0fda0:	00000021 	move	zero,zero
bfc0fda4:	00000021 	move	zero,zero
bfc0fda8:	00000021 	move	zero,zero
bfc0fdac:	00000021 	move	zero,zero
bfc0fdb0:	00000021 	move	zero,zero
bfc0fdb4:	00000021 	move	zero,zero
bfc0fdb8:	00000021 	move	zero,zero
bfc0fdbc:	00000021 	move	zero,zero
bfc0fdc0:	3c120b48 	lui	s2,0xb48
bfc0fdc4:	3652f1f0 	ori	s2,s2,0xf1f0
bfc0fdc8:	00000000 	nop
bfc0fdcc:	24140000 	li	s4,0
bfc0fdd0:	16140005 	bne	s0,s4,bfc0fde8 <inst_error>
bfc0fdd4:	00000000 	nop
bfc0fdd8:	24150000 	li	s5,0
bfc0fddc:	16550002 	bne	s2,s5,bfc0fde8 <inst_error>
bfc0fde0:	00000000 	nop
bfc0fde4:	4a000000 	c2	0x0

bfc0fde8 <inst_error>:
inst_error():
bfc0fde8:	0000003f 	0x3f

Disassembly of section .reginfo:

00000000 <.reginfo>:
   0:	00353300 	0x353300
	...
