
build/j:     file format elf32-tradlittlemips
build/j


Disassembly of section .text:

bfc00000 <main>:
bfc00000:	3c0c42ea 	lui	t4,0x42ea
bfc00004:	358c6edf 	ori	t4,t4,0x6edf
bfc00008:	3c0d2407 	lui	t5,0x2407
bfc0000c:	35ad1ba8 	ori	t5,t5,0x1ba8
bfc00010:	24100000 	li	s0,0
bfc00014:	24120000 	li	s2,0
bfc00018:	1000000a 	b	bfc00044 <main+0x44>
bfc0001c:	00000000 	nop
bfc00020:	3c1042ea 	lui	s0,0x42ea
bfc00024:	36106edf 	ori	s0,s0,0x6edf
bfc00028:	10000011 	b	bfc00070 <main+0x70>
bfc0002c:	00000000 	nop
bfc00030:	10000011 	b	bfc00078 <main+0x78>
bfc00034:	00000000 	nop
bfc00038:	00000021 	move	zero,zero
bfc0003c:	00000021 	move	zero,zero
bfc00040:	00000021 	move	zero,zero
bfc00044:	1000fff6 	b	bfc00020 <main+0x20>
bfc00048:	00000000 	nop
bfc0004c:	1000000a 	b	bfc00078 <main+0x78>
bfc00050:	00000000 	nop
bfc00054:	00000021 	move	zero,zero
bfc00058:	00000021 	move	zero,zero
bfc0005c:	00000021 	move	zero,zero
bfc00060:	00000021 	move	zero,zero
bfc00064:	00000021 	move	zero,zero
bfc00068:	00000021 	move	zero,zero
bfc0006c:	00000021 	move	zero,zero
bfc00070:	3c122407 	lui	s2,0x2407
bfc00074:	36521ba8 	ori	s2,s2,0x1ba8
bfc00078:	00000000 	nop
bfc0007c:	3c1442ea 	lui	s4,0x42ea
bfc00080:	36946edf 	ori	s4,s4,0x6edf
bfc00084:	16141e57 	bne	s0,s4,bfc079e4 <inst_error>
bfc00088:	00000000 	nop
bfc0008c:	3c152407 	lui	s5,0x2407
bfc00090:	36b51ba8 	ori	s5,s5,0x1ba8
bfc00094:	16551e53 	bne	s2,s5,bfc079e4 <inst_error>
bfc00098:	00000000 	nop
bfc0009c:	3c0cac27 	lui	t4,0xac27
bfc000a0:	358c5df0 	ori	t4,t4,0x5df0
bfc000a4:	3c0d83f0 	lui	t5,0x83f0
bfc000a8:	35ad722c 	ori	t5,t5,0x722c
bfc000ac:	24100000 	li	s0,0
bfc000b0:	24120000 	li	s2,0
bfc000b4:	1000000a 	b	bfc000e0 <main+0xe0>
bfc000b8:	00000000 	nop
bfc000bc:	3c10ac27 	lui	s0,0xac27
bfc000c0:	36105df0 	ori	s0,s0,0x5df0
bfc000c4:	10000011 	b	bfc0010c <main+0x10c>
bfc000c8:	00000000 	nop
bfc000cc:	10000011 	b	bfc00114 <main+0x114>
bfc000d0:	00000000 	nop
bfc000d4:	00000021 	move	zero,zero
bfc000d8:	00000021 	move	zero,zero
bfc000dc:	00000021 	move	zero,zero
bfc000e0:	1000fff6 	b	bfc000bc <main+0xbc>
bfc000e4:	00000000 	nop
bfc000e8:	1000000a 	b	bfc00114 <main+0x114>
bfc000ec:	00000000 	nop
bfc000f0:	00000021 	move	zero,zero
bfc000f4:	00000021 	move	zero,zero
bfc000f8:	00000021 	move	zero,zero
bfc000fc:	00000021 	move	zero,zero
bfc00100:	00000021 	move	zero,zero
bfc00104:	00000021 	move	zero,zero
bfc00108:	00000021 	move	zero,zero
bfc0010c:	3c1283f0 	lui	s2,0x83f0
bfc00110:	3652722c 	ori	s2,s2,0x722c
bfc00114:	00000000 	nop
bfc00118:	3c14ac27 	lui	s4,0xac27
bfc0011c:	36945df0 	ori	s4,s4,0x5df0
bfc00120:	16141e30 	bne	s0,s4,bfc079e4 <inst_error>
bfc00124:	00000000 	nop
bfc00128:	3c1583f0 	lui	s5,0x83f0
bfc0012c:	36b5722c 	ori	s5,s5,0x722c
bfc00130:	16551e2c 	bne	s2,s5,bfc079e4 <inst_error>
bfc00134:	00000000 	nop
bfc00138:	3c0c58b9 	lui	t4,0x58b9
bfc0013c:	358c1ef0 	ori	t4,t4,0x1ef0
bfc00140:	3c0d2268 	lui	t5,0x2268
bfc00144:	35ad61f5 	ori	t5,t5,0x61f5
bfc00148:	24100000 	li	s0,0
bfc0014c:	24120000 	li	s2,0
bfc00150:	1000000a 	b	bfc0017c <main+0x17c>
bfc00154:	00000000 	nop
bfc00158:	3c1058b9 	lui	s0,0x58b9
bfc0015c:	36101ef0 	ori	s0,s0,0x1ef0
bfc00160:	10000011 	b	bfc001a8 <main+0x1a8>
bfc00164:	00000000 	nop
bfc00168:	10000011 	b	bfc001b0 <main+0x1b0>
bfc0016c:	00000000 	nop
bfc00170:	00000021 	move	zero,zero
bfc00174:	00000021 	move	zero,zero
bfc00178:	00000021 	move	zero,zero
bfc0017c:	1000fff6 	b	bfc00158 <main+0x158>
bfc00180:	00000000 	nop
bfc00184:	1000000a 	b	bfc001b0 <main+0x1b0>
bfc00188:	00000000 	nop
bfc0018c:	00000021 	move	zero,zero
bfc00190:	00000021 	move	zero,zero
bfc00194:	00000021 	move	zero,zero
bfc00198:	00000021 	move	zero,zero
bfc0019c:	00000021 	move	zero,zero
bfc001a0:	00000021 	move	zero,zero
bfc001a4:	00000021 	move	zero,zero
bfc001a8:	3c122268 	lui	s2,0x2268
bfc001ac:	365261f5 	ori	s2,s2,0x61f5
bfc001b0:	00000000 	nop
bfc001b4:	3c1458b9 	lui	s4,0x58b9
bfc001b8:	36941ef0 	ori	s4,s4,0x1ef0
bfc001bc:	16141e09 	bne	s0,s4,bfc079e4 <inst_error>
bfc001c0:	00000000 	nop
bfc001c4:	3c152268 	lui	s5,0x2268
bfc001c8:	36b561f5 	ori	s5,s5,0x61f5
bfc001cc:	16551e05 	bne	s2,s5,bfc079e4 <inst_error>
bfc001d0:	00000000 	nop
bfc001d4:	3c0cfc34 	lui	t4,0xfc34
bfc001d8:	358cd5d0 	ori	t4,t4,0xd5d0
bfc001dc:	3c0d4710 	lui	t5,0x4710
bfc001e0:	35ad7652 	ori	t5,t5,0x7652
bfc001e4:	24100000 	li	s0,0
bfc001e8:	24120000 	li	s2,0
bfc001ec:	1000000a 	b	bfc00218 <main+0x218>
bfc001f0:	00000000 	nop
bfc001f4:	3c10fc34 	lui	s0,0xfc34
bfc001f8:	3610d5d0 	ori	s0,s0,0xd5d0
bfc001fc:	10000011 	b	bfc00244 <main+0x244>
bfc00200:	00000000 	nop
bfc00204:	10000011 	b	bfc0024c <main+0x24c>
bfc00208:	00000000 	nop
bfc0020c:	00000021 	move	zero,zero
bfc00210:	00000021 	move	zero,zero
bfc00214:	00000021 	move	zero,zero
bfc00218:	1000fff6 	b	bfc001f4 <main+0x1f4>
bfc0021c:	00000000 	nop
bfc00220:	1000000a 	b	bfc0024c <main+0x24c>
bfc00224:	00000000 	nop
bfc00228:	00000021 	move	zero,zero
bfc0022c:	00000021 	move	zero,zero
bfc00230:	00000021 	move	zero,zero
bfc00234:	00000021 	move	zero,zero
bfc00238:	00000021 	move	zero,zero
bfc0023c:	00000021 	move	zero,zero
bfc00240:	00000021 	move	zero,zero
bfc00244:	3c124710 	lui	s2,0x4710
bfc00248:	36527652 	ori	s2,s2,0x7652
bfc0024c:	00000000 	nop
bfc00250:	3c14fc34 	lui	s4,0xfc34
bfc00254:	3694d5d0 	ori	s4,s4,0xd5d0
bfc00258:	16141de2 	bne	s0,s4,bfc079e4 <inst_error>
bfc0025c:	00000000 	nop
bfc00260:	3c154710 	lui	s5,0x4710
bfc00264:	36b57652 	ori	s5,s5,0x7652
bfc00268:	16551dde 	bne	s2,s5,bfc079e4 <inst_error>
bfc0026c:	00000000 	nop
bfc00270:	3c0cf668 	lui	t4,0xf668
bfc00274:	358ca57c 	ori	t4,t4,0xa57c
bfc00278:	3c0dfc6c 	lui	t5,0xfc6c
bfc0027c:	35adb46e 	ori	t5,t5,0xb46e
bfc00280:	24100000 	li	s0,0
bfc00284:	24120000 	li	s2,0
bfc00288:	1000000a 	b	bfc002b4 <main+0x2b4>
bfc0028c:	00000000 	nop
bfc00290:	3c10f668 	lui	s0,0xf668
bfc00294:	3610a57c 	ori	s0,s0,0xa57c
bfc00298:	10000011 	b	bfc002e0 <main+0x2e0>
bfc0029c:	00000000 	nop
bfc002a0:	10000011 	b	bfc002e8 <main+0x2e8>
bfc002a4:	00000000 	nop
bfc002a8:	00000021 	move	zero,zero
bfc002ac:	00000021 	move	zero,zero
bfc002b0:	00000021 	move	zero,zero
bfc002b4:	1000fff6 	b	bfc00290 <main+0x290>
bfc002b8:	00000000 	nop
bfc002bc:	1000000a 	b	bfc002e8 <main+0x2e8>
bfc002c0:	00000000 	nop
bfc002c4:	00000021 	move	zero,zero
bfc002c8:	00000021 	move	zero,zero
bfc002cc:	00000021 	move	zero,zero
bfc002d0:	00000021 	move	zero,zero
bfc002d4:	00000021 	move	zero,zero
bfc002d8:	00000021 	move	zero,zero
bfc002dc:	00000021 	move	zero,zero
bfc002e0:	3c12fc6c 	lui	s2,0xfc6c
bfc002e4:	3652b46e 	ori	s2,s2,0xb46e
bfc002e8:	00000000 	nop
bfc002ec:	3c14f668 	lui	s4,0xf668
bfc002f0:	3694a57c 	ori	s4,s4,0xa57c
bfc002f4:	16141dbb 	bne	s0,s4,bfc079e4 <inst_error>
bfc002f8:	00000000 	nop
bfc002fc:	3c15fc6c 	lui	s5,0xfc6c
bfc00300:	36b5b46e 	ori	s5,s5,0xb46e
bfc00304:	16551db7 	bne	s2,s5,bfc079e4 <inst_error>
bfc00308:	00000000 	nop
bfc0030c:	3c0c8a94 	lui	t4,0x8a94
bfc00310:	358ca9b8 	ori	t4,t4,0xa9b8
bfc00314:	3c0d5de8 	lui	t5,0x5de8
bfc00318:	35adb258 	ori	t5,t5,0xb258
bfc0031c:	24100000 	li	s0,0
bfc00320:	24120000 	li	s2,0
bfc00324:	1000000a 	b	bfc00350 <main+0x350>
bfc00328:	00000000 	nop
bfc0032c:	3c108a94 	lui	s0,0x8a94
bfc00330:	3610a9b8 	ori	s0,s0,0xa9b8
bfc00334:	10000011 	b	bfc0037c <main+0x37c>
bfc00338:	00000000 	nop
bfc0033c:	10000011 	b	bfc00384 <main+0x384>
bfc00340:	00000000 	nop
bfc00344:	00000021 	move	zero,zero
bfc00348:	00000021 	move	zero,zero
bfc0034c:	00000021 	move	zero,zero
bfc00350:	1000fff6 	b	bfc0032c <main+0x32c>
bfc00354:	00000000 	nop
bfc00358:	1000000a 	b	bfc00384 <main+0x384>
bfc0035c:	00000000 	nop
bfc00360:	00000021 	move	zero,zero
bfc00364:	00000021 	move	zero,zero
bfc00368:	00000021 	move	zero,zero
bfc0036c:	00000021 	move	zero,zero
bfc00370:	00000021 	move	zero,zero
bfc00374:	00000021 	move	zero,zero
bfc00378:	00000021 	move	zero,zero
bfc0037c:	3c125de8 	lui	s2,0x5de8
bfc00380:	3652b258 	ori	s2,s2,0xb258
bfc00384:	00000000 	nop
bfc00388:	3c148a94 	lui	s4,0x8a94
bfc0038c:	3694a9b8 	ori	s4,s4,0xa9b8
bfc00390:	16141d94 	bne	s0,s4,bfc079e4 <inst_error>
bfc00394:	00000000 	nop
bfc00398:	3c155de8 	lui	s5,0x5de8
bfc0039c:	36b5b258 	ori	s5,s5,0xb258
bfc003a0:	16551d90 	bne	s2,s5,bfc079e4 <inst_error>
bfc003a4:	00000000 	nop
bfc003a8:	3c0c3b67 	lui	t4,0x3b67
bfc003ac:	358c4068 	ori	t4,t4,0x4068
bfc003b0:	3c0d27fd 	lui	t5,0x27fd
bfc003b4:	35ad3b18 	ori	t5,t5,0x3b18
bfc003b8:	24100000 	li	s0,0
bfc003bc:	24120000 	li	s2,0
bfc003c0:	1000000a 	b	bfc003ec <main+0x3ec>
bfc003c4:	00000000 	nop
bfc003c8:	3c103b67 	lui	s0,0x3b67
bfc003cc:	36104068 	ori	s0,s0,0x4068
bfc003d0:	10000011 	b	bfc00418 <main+0x418>
bfc003d4:	00000000 	nop
bfc003d8:	10000011 	b	bfc00420 <main+0x420>
bfc003dc:	00000000 	nop
bfc003e0:	00000021 	move	zero,zero
bfc003e4:	00000021 	move	zero,zero
bfc003e8:	00000021 	move	zero,zero
bfc003ec:	1000fff6 	b	bfc003c8 <main+0x3c8>
bfc003f0:	00000000 	nop
bfc003f4:	1000000a 	b	bfc00420 <main+0x420>
bfc003f8:	00000000 	nop
bfc003fc:	00000021 	move	zero,zero
bfc00400:	00000021 	move	zero,zero
bfc00404:	00000021 	move	zero,zero
bfc00408:	00000021 	move	zero,zero
bfc0040c:	00000021 	move	zero,zero
bfc00410:	00000021 	move	zero,zero
bfc00414:	00000021 	move	zero,zero
bfc00418:	3c1227fd 	lui	s2,0x27fd
bfc0041c:	36523b18 	ori	s2,s2,0x3b18
bfc00420:	00000000 	nop
bfc00424:	3c143b67 	lui	s4,0x3b67
bfc00428:	36944068 	ori	s4,s4,0x4068
bfc0042c:	16141d6d 	bne	s0,s4,bfc079e4 <inst_error>
bfc00430:	00000000 	nop
bfc00434:	3c1527fd 	lui	s5,0x27fd
bfc00438:	36b53b18 	ori	s5,s5,0x3b18
bfc0043c:	16551d69 	bne	s2,s5,bfc079e4 <inst_error>
bfc00440:	00000000 	nop
bfc00444:	3c0c8992 	lui	t4,0x8992
bfc00448:	358c7912 	ori	t4,t4,0x7912
bfc0044c:	3c0d6216 	lui	t5,0x6216
bfc00450:	35adb774 	ori	t5,t5,0xb774
bfc00454:	24100000 	li	s0,0
bfc00458:	24120000 	li	s2,0
bfc0045c:	1000000a 	b	bfc00488 <main+0x488>
bfc00460:	00000000 	nop
bfc00464:	3c108992 	lui	s0,0x8992
bfc00468:	36107912 	ori	s0,s0,0x7912
bfc0046c:	10000011 	b	bfc004b4 <main+0x4b4>
bfc00470:	00000000 	nop
bfc00474:	10000011 	b	bfc004bc <main+0x4bc>
bfc00478:	00000000 	nop
bfc0047c:	00000021 	move	zero,zero
bfc00480:	00000021 	move	zero,zero
bfc00484:	00000021 	move	zero,zero
bfc00488:	1000fff6 	b	bfc00464 <main+0x464>
bfc0048c:	00000000 	nop
bfc00490:	1000000a 	b	bfc004bc <main+0x4bc>
bfc00494:	00000000 	nop
bfc00498:	00000021 	move	zero,zero
bfc0049c:	00000021 	move	zero,zero
bfc004a0:	00000021 	move	zero,zero
bfc004a4:	00000021 	move	zero,zero
bfc004a8:	00000021 	move	zero,zero
bfc004ac:	00000021 	move	zero,zero
bfc004b0:	00000021 	move	zero,zero
bfc004b4:	3c126216 	lui	s2,0x6216
bfc004b8:	3652b774 	ori	s2,s2,0xb774
bfc004bc:	00000000 	nop
bfc004c0:	3c148992 	lui	s4,0x8992
bfc004c4:	36947912 	ori	s4,s4,0x7912
bfc004c8:	16141d46 	bne	s0,s4,bfc079e4 <inst_error>
bfc004cc:	00000000 	nop
bfc004d0:	3c156216 	lui	s5,0x6216
bfc004d4:	36b5b774 	ori	s5,s5,0xb774
bfc004d8:	16551d42 	bne	s2,s5,bfc079e4 <inst_error>
bfc004dc:	00000000 	nop
bfc004e0:	3c0c9def 	lui	t4,0x9def
bfc004e4:	358ce300 	ori	t4,t4,0xe300
bfc004e8:	3c0d3f6d 	lui	t5,0x3f6d
bfc004ec:	35adf718 	ori	t5,t5,0xf718
bfc004f0:	24100000 	li	s0,0
bfc004f4:	24120000 	li	s2,0
bfc004f8:	1000000a 	b	bfc00524 <main+0x524>
bfc004fc:	00000000 	nop
bfc00500:	3c109def 	lui	s0,0x9def
bfc00504:	3610e300 	ori	s0,s0,0xe300
bfc00508:	10000011 	b	bfc00550 <main+0x550>
bfc0050c:	00000000 	nop
bfc00510:	10000011 	b	bfc00558 <main+0x558>
bfc00514:	00000000 	nop
bfc00518:	00000021 	move	zero,zero
bfc0051c:	00000021 	move	zero,zero
bfc00520:	00000021 	move	zero,zero
bfc00524:	1000fff6 	b	bfc00500 <main+0x500>
bfc00528:	00000000 	nop
bfc0052c:	1000000a 	b	bfc00558 <main+0x558>
bfc00530:	00000000 	nop
bfc00534:	00000021 	move	zero,zero
bfc00538:	00000021 	move	zero,zero
bfc0053c:	00000021 	move	zero,zero
bfc00540:	00000021 	move	zero,zero
bfc00544:	00000021 	move	zero,zero
bfc00548:	00000021 	move	zero,zero
bfc0054c:	00000021 	move	zero,zero
bfc00550:	3c123f6d 	lui	s2,0x3f6d
bfc00554:	3652f718 	ori	s2,s2,0xf718
bfc00558:	00000000 	nop
bfc0055c:	3c149def 	lui	s4,0x9def
bfc00560:	3694e300 	ori	s4,s4,0xe300
bfc00564:	16141d1f 	bne	s0,s4,bfc079e4 <inst_error>
bfc00568:	00000000 	nop
bfc0056c:	3c153f6d 	lui	s5,0x3f6d
bfc00570:	36b5f718 	ori	s5,s5,0xf718
bfc00574:	16551d1b 	bne	s2,s5,bfc079e4 <inst_error>
bfc00578:	00000000 	nop
bfc0057c:	3c0cd03d 	lui	t4,0xd03d
bfc00580:	358cd6f8 	ori	t4,t4,0xd6f8
bfc00584:	3c0d2395 	lui	t5,0x2395
bfc00588:	35ad9ad1 	ori	t5,t5,0x9ad1
bfc0058c:	24100000 	li	s0,0
bfc00590:	24120000 	li	s2,0
bfc00594:	1000000a 	b	bfc005c0 <main+0x5c0>
bfc00598:	00000000 	nop
bfc0059c:	3c10d03d 	lui	s0,0xd03d
bfc005a0:	3610d6f8 	ori	s0,s0,0xd6f8
bfc005a4:	10000011 	b	bfc005ec <main+0x5ec>
bfc005a8:	00000000 	nop
bfc005ac:	10000011 	b	bfc005f4 <main+0x5f4>
bfc005b0:	00000000 	nop
bfc005b4:	00000021 	move	zero,zero
bfc005b8:	00000021 	move	zero,zero
bfc005bc:	00000021 	move	zero,zero
bfc005c0:	1000fff6 	b	bfc0059c <main+0x59c>
bfc005c4:	00000000 	nop
bfc005c8:	1000000a 	b	bfc005f4 <main+0x5f4>
bfc005cc:	00000000 	nop
bfc005d0:	00000021 	move	zero,zero
bfc005d4:	00000021 	move	zero,zero
bfc005d8:	00000021 	move	zero,zero
bfc005dc:	00000021 	move	zero,zero
bfc005e0:	00000021 	move	zero,zero
bfc005e4:	00000021 	move	zero,zero
bfc005e8:	00000021 	move	zero,zero
bfc005ec:	3c122395 	lui	s2,0x2395
bfc005f0:	36529ad1 	ori	s2,s2,0x9ad1
bfc005f4:	00000000 	nop
bfc005f8:	3c14d03d 	lui	s4,0xd03d
bfc005fc:	3694d6f8 	ori	s4,s4,0xd6f8
bfc00600:	16141cf8 	bne	s0,s4,bfc079e4 <inst_error>
bfc00604:	00000000 	nop
bfc00608:	3c152395 	lui	s5,0x2395
bfc0060c:	36b59ad1 	ori	s5,s5,0x9ad1
bfc00610:	16551cf4 	bne	s2,s5,bfc079e4 <inst_error>
bfc00614:	00000000 	nop
bfc00618:	3c0c5ef9 	lui	t4,0x5ef9
bfc0061c:	358cf358 	ori	t4,t4,0xf358
bfc00620:	3c0de8a1 	lui	t5,0xe8a1
bfc00624:	35ad08d2 	ori	t5,t5,0x8d2
bfc00628:	24100000 	li	s0,0
bfc0062c:	24120000 	li	s2,0
bfc00630:	1000000a 	b	bfc0065c <main+0x65c>
bfc00634:	00000000 	nop
bfc00638:	3c105ef9 	lui	s0,0x5ef9
bfc0063c:	3610f358 	ori	s0,s0,0xf358
bfc00640:	10000011 	b	bfc00688 <main+0x688>
bfc00644:	00000000 	nop
bfc00648:	10000011 	b	bfc00690 <main+0x690>
bfc0064c:	00000000 	nop
bfc00650:	00000021 	move	zero,zero
bfc00654:	00000021 	move	zero,zero
bfc00658:	00000021 	move	zero,zero
bfc0065c:	1000fff6 	b	bfc00638 <main+0x638>
bfc00660:	00000000 	nop
bfc00664:	1000000a 	b	bfc00690 <main+0x690>
bfc00668:	00000000 	nop
bfc0066c:	00000021 	move	zero,zero
bfc00670:	00000021 	move	zero,zero
bfc00674:	00000021 	move	zero,zero
bfc00678:	00000021 	move	zero,zero
bfc0067c:	00000021 	move	zero,zero
bfc00680:	00000021 	move	zero,zero
bfc00684:	00000021 	move	zero,zero
bfc00688:	3c12e8a1 	lui	s2,0xe8a1
bfc0068c:	365208d2 	ori	s2,s2,0x8d2
bfc00690:	00000000 	nop
bfc00694:	3c145ef9 	lui	s4,0x5ef9
bfc00698:	3694f358 	ori	s4,s4,0xf358
bfc0069c:	16141cd1 	bne	s0,s4,bfc079e4 <inst_error>
bfc006a0:	00000000 	nop
bfc006a4:	3c15e8a1 	lui	s5,0xe8a1
bfc006a8:	36b508d2 	ori	s5,s5,0x8d2
bfc006ac:	16551ccd 	bne	s2,s5,bfc079e4 <inst_error>
bfc006b0:	00000000 	nop
bfc006b4:	3c0c03eb 	lui	t4,0x3eb
bfc006b8:	358cc6e0 	ori	t4,t4,0xc6e0
bfc006bc:	3c0d3383 	lui	t5,0x3383
bfc006c0:	35ad2916 	ori	t5,t5,0x2916
bfc006c4:	24100000 	li	s0,0
bfc006c8:	24120000 	li	s2,0
bfc006cc:	1000000a 	b	bfc006f8 <main+0x6f8>
bfc006d0:	00000000 	nop
bfc006d4:	3c1003eb 	lui	s0,0x3eb
bfc006d8:	3610c6e0 	ori	s0,s0,0xc6e0
bfc006dc:	10000011 	b	bfc00724 <main+0x724>
bfc006e0:	00000000 	nop
bfc006e4:	10000011 	b	bfc0072c <main+0x72c>
bfc006e8:	00000000 	nop
bfc006ec:	00000021 	move	zero,zero
bfc006f0:	00000021 	move	zero,zero
bfc006f4:	00000021 	move	zero,zero
bfc006f8:	1000fff6 	b	bfc006d4 <main+0x6d4>
bfc006fc:	00000000 	nop
bfc00700:	1000000a 	b	bfc0072c <main+0x72c>
bfc00704:	00000000 	nop
bfc00708:	00000021 	move	zero,zero
bfc0070c:	00000021 	move	zero,zero
bfc00710:	00000021 	move	zero,zero
bfc00714:	00000021 	move	zero,zero
bfc00718:	00000021 	move	zero,zero
bfc0071c:	00000021 	move	zero,zero
bfc00720:	00000021 	move	zero,zero
bfc00724:	3c123383 	lui	s2,0x3383
bfc00728:	36522916 	ori	s2,s2,0x2916
bfc0072c:	00000000 	nop
bfc00730:	3c1403eb 	lui	s4,0x3eb
bfc00734:	3694c6e0 	ori	s4,s4,0xc6e0
bfc00738:	16141caa 	bne	s0,s4,bfc079e4 <inst_error>
bfc0073c:	00000000 	nop
bfc00740:	3c153383 	lui	s5,0x3383
bfc00744:	36b52916 	ori	s5,s5,0x2916
bfc00748:	16551ca6 	bne	s2,s5,bfc079e4 <inst_error>
bfc0074c:	00000000 	nop
bfc00750:	3c0c88b4 	lui	t4,0x88b4
bfc00754:	358c7f70 	ori	t4,t4,0x7f70
bfc00758:	3c0d5e04 	lui	t5,0x5e04
bfc0075c:	35adec65 	ori	t5,t5,0xec65
bfc00760:	24100000 	li	s0,0
bfc00764:	24120000 	li	s2,0
bfc00768:	1000000a 	b	bfc00794 <main+0x794>
bfc0076c:	00000000 	nop
bfc00770:	3c1088b4 	lui	s0,0x88b4
bfc00774:	36107f70 	ori	s0,s0,0x7f70
bfc00778:	10000011 	b	bfc007c0 <main+0x7c0>
bfc0077c:	00000000 	nop
bfc00780:	10000011 	b	bfc007c8 <main+0x7c8>
bfc00784:	00000000 	nop
bfc00788:	00000021 	move	zero,zero
bfc0078c:	00000021 	move	zero,zero
bfc00790:	00000021 	move	zero,zero
bfc00794:	1000fff6 	b	bfc00770 <main+0x770>
bfc00798:	00000000 	nop
bfc0079c:	1000000a 	b	bfc007c8 <main+0x7c8>
bfc007a0:	00000000 	nop
bfc007a4:	00000021 	move	zero,zero
bfc007a8:	00000021 	move	zero,zero
bfc007ac:	00000021 	move	zero,zero
bfc007b0:	00000021 	move	zero,zero
bfc007b4:	00000021 	move	zero,zero
bfc007b8:	00000021 	move	zero,zero
bfc007bc:	00000021 	move	zero,zero
bfc007c0:	3c125e04 	lui	s2,0x5e04
bfc007c4:	3652ec65 	ori	s2,s2,0xec65
bfc007c8:	00000000 	nop
bfc007cc:	3c1488b4 	lui	s4,0x88b4
bfc007d0:	36947f70 	ori	s4,s4,0x7f70
bfc007d4:	16141c83 	bne	s0,s4,bfc079e4 <inst_error>
bfc007d8:	00000000 	nop
bfc007dc:	3c155e04 	lui	s5,0x5e04
bfc007e0:	36b5ec65 	ori	s5,s5,0xec65
bfc007e4:	16551c7f 	bne	s2,s5,bfc079e4 <inst_error>
bfc007e8:	00000000 	nop
bfc007ec:	3c0c35cc 	lui	t4,0x35cc
bfc007f0:	358ca41c 	ori	t4,t4,0xa41c
bfc007f4:	3c0d86c2 	lui	t5,0x86c2
bfc007f8:	35ad2c00 	ori	t5,t5,0x2c00
bfc007fc:	24100000 	li	s0,0
bfc00800:	24120000 	li	s2,0
bfc00804:	1000000a 	b	bfc00830 <main+0x830>
bfc00808:	00000000 	nop
bfc0080c:	3c1035cc 	lui	s0,0x35cc
bfc00810:	3610a41c 	ori	s0,s0,0xa41c
bfc00814:	10000011 	b	bfc0085c <main+0x85c>
bfc00818:	00000000 	nop
bfc0081c:	10000011 	b	bfc00864 <main+0x864>
bfc00820:	00000000 	nop
bfc00824:	00000021 	move	zero,zero
bfc00828:	00000021 	move	zero,zero
bfc0082c:	00000021 	move	zero,zero
bfc00830:	1000fff6 	b	bfc0080c <main+0x80c>
bfc00834:	00000000 	nop
bfc00838:	1000000a 	b	bfc00864 <main+0x864>
bfc0083c:	00000000 	nop
bfc00840:	00000021 	move	zero,zero
bfc00844:	00000021 	move	zero,zero
bfc00848:	00000021 	move	zero,zero
bfc0084c:	00000021 	move	zero,zero
bfc00850:	00000021 	move	zero,zero
bfc00854:	00000021 	move	zero,zero
bfc00858:	00000021 	move	zero,zero
bfc0085c:	3c1286c2 	lui	s2,0x86c2
bfc00860:	36522c00 	ori	s2,s2,0x2c00
bfc00864:	00000000 	nop
bfc00868:	3c1435cc 	lui	s4,0x35cc
bfc0086c:	3694a41c 	ori	s4,s4,0xa41c
bfc00870:	16141c5c 	bne	s0,s4,bfc079e4 <inst_error>
bfc00874:	00000000 	nop
bfc00878:	3c1586c2 	lui	s5,0x86c2
bfc0087c:	36b52c00 	ori	s5,s5,0x2c00
bfc00880:	16551c58 	bne	s2,s5,bfc079e4 <inst_error>
bfc00884:	00000000 	nop
bfc00888:	3c0cef93 	lui	t4,0xef93
bfc0088c:	358c5f58 	ori	t4,t4,0x5f58
bfc00890:	3c0da9df 	lui	t5,0xa9df
bfc00894:	35ad37c2 	ori	t5,t5,0x37c2
bfc00898:	24100000 	li	s0,0
bfc0089c:	24120000 	li	s2,0
bfc008a0:	1000000a 	b	bfc008cc <main+0x8cc>
bfc008a4:	00000000 	nop
bfc008a8:	3c10ef93 	lui	s0,0xef93
bfc008ac:	36105f58 	ori	s0,s0,0x5f58
bfc008b0:	10000011 	b	bfc008f8 <main+0x8f8>
bfc008b4:	00000000 	nop
bfc008b8:	10000011 	b	bfc00900 <main+0x900>
bfc008bc:	00000000 	nop
bfc008c0:	00000021 	move	zero,zero
bfc008c4:	00000021 	move	zero,zero
bfc008c8:	00000021 	move	zero,zero
bfc008cc:	1000fff6 	b	bfc008a8 <main+0x8a8>
bfc008d0:	00000000 	nop
bfc008d4:	1000000a 	b	bfc00900 <main+0x900>
bfc008d8:	00000000 	nop
bfc008dc:	00000021 	move	zero,zero
bfc008e0:	00000021 	move	zero,zero
bfc008e4:	00000021 	move	zero,zero
bfc008e8:	00000021 	move	zero,zero
bfc008ec:	00000021 	move	zero,zero
bfc008f0:	00000021 	move	zero,zero
bfc008f4:	00000021 	move	zero,zero
bfc008f8:	3c12a9df 	lui	s2,0xa9df
bfc008fc:	365237c2 	ori	s2,s2,0x37c2
bfc00900:	00000000 	nop
bfc00904:	3c14ef93 	lui	s4,0xef93
bfc00908:	36945f58 	ori	s4,s4,0x5f58
bfc0090c:	16141c35 	bne	s0,s4,bfc079e4 <inst_error>
bfc00910:	00000000 	nop
bfc00914:	3c15a9df 	lui	s5,0xa9df
bfc00918:	36b537c2 	ori	s5,s5,0x37c2
bfc0091c:	16551c31 	bne	s2,s5,bfc079e4 <inst_error>
bfc00920:	00000000 	nop
bfc00924:	3c0c7c88 	lui	t4,0x7c88
bfc00928:	358c34d8 	ori	t4,t4,0x34d8
bfc0092c:	3c0d5ad7 	lui	t5,0x5ad7
bfc00930:	35ad806b 	ori	t5,t5,0x806b
bfc00934:	24100000 	li	s0,0
bfc00938:	24120000 	li	s2,0
bfc0093c:	1000000a 	b	bfc00968 <main+0x968>
bfc00940:	00000000 	nop
bfc00944:	3c107c88 	lui	s0,0x7c88
bfc00948:	361034d8 	ori	s0,s0,0x34d8
bfc0094c:	10000011 	b	bfc00994 <main+0x994>
bfc00950:	00000000 	nop
bfc00954:	10000011 	b	bfc0099c <main+0x99c>
bfc00958:	00000000 	nop
bfc0095c:	00000021 	move	zero,zero
bfc00960:	00000021 	move	zero,zero
bfc00964:	00000021 	move	zero,zero
bfc00968:	1000fff6 	b	bfc00944 <main+0x944>
bfc0096c:	00000000 	nop
bfc00970:	1000000a 	b	bfc0099c <main+0x99c>
bfc00974:	00000000 	nop
bfc00978:	00000021 	move	zero,zero
bfc0097c:	00000021 	move	zero,zero
bfc00980:	00000021 	move	zero,zero
bfc00984:	00000021 	move	zero,zero
bfc00988:	00000021 	move	zero,zero
bfc0098c:	00000021 	move	zero,zero
bfc00990:	00000021 	move	zero,zero
bfc00994:	3c125ad7 	lui	s2,0x5ad7
bfc00998:	3652806b 	ori	s2,s2,0x806b
bfc0099c:	00000000 	nop
bfc009a0:	3c147c88 	lui	s4,0x7c88
bfc009a4:	369434d8 	ori	s4,s4,0x34d8
bfc009a8:	16141c0e 	bne	s0,s4,bfc079e4 <inst_error>
bfc009ac:	00000000 	nop
bfc009b0:	3c155ad7 	lui	s5,0x5ad7
bfc009b4:	36b5806b 	ori	s5,s5,0x806b
bfc009b8:	16551c0a 	bne	s2,s5,bfc079e4 <inst_error>
bfc009bc:	00000000 	nop
bfc009c0:	3c0cb4cd 	lui	t4,0xb4cd
bfc009c4:	358c88e0 	ori	t4,t4,0x88e0
bfc009c8:	3c0ddf54 	lui	t5,0xdf54
bfc009cc:	35ad38a8 	ori	t5,t5,0x38a8
bfc009d0:	24100000 	li	s0,0
bfc009d4:	24120000 	li	s2,0
bfc009d8:	1000000a 	b	bfc00a04 <main+0xa04>
bfc009dc:	00000000 	nop
bfc009e0:	3c10b4cd 	lui	s0,0xb4cd
bfc009e4:	361088e0 	ori	s0,s0,0x88e0
bfc009e8:	10000011 	b	bfc00a30 <main+0xa30>
bfc009ec:	00000000 	nop
bfc009f0:	10000011 	b	bfc00a38 <main+0xa38>
bfc009f4:	00000000 	nop
bfc009f8:	00000021 	move	zero,zero
bfc009fc:	00000021 	move	zero,zero
bfc00a00:	00000021 	move	zero,zero
bfc00a04:	1000fff6 	b	bfc009e0 <main+0x9e0>
bfc00a08:	00000000 	nop
bfc00a0c:	1000000a 	b	bfc00a38 <main+0xa38>
bfc00a10:	00000000 	nop
bfc00a14:	00000021 	move	zero,zero
bfc00a18:	00000021 	move	zero,zero
bfc00a1c:	00000021 	move	zero,zero
bfc00a20:	00000021 	move	zero,zero
bfc00a24:	00000021 	move	zero,zero
bfc00a28:	00000021 	move	zero,zero
bfc00a2c:	00000021 	move	zero,zero
bfc00a30:	3c12df54 	lui	s2,0xdf54
bfc00a34:	365238a8 	ori	s2,s2,0x38a8
bfc00a38:	00000000 	nop
bfc00a3c:	3c14b4cd 	lui	s4,0xb4cd
bfc00a40:	369488e0 	ori	s4,s4,0x88e0
bfc00a44:	16141be7 	bne	s0,s4,bfc079e4 <inst_error>
bfc00a48:	00000000 	nop
bfc00a4c:	3c15df54 	lui	s5,0xdf54
bfc00a50:	36b538a8 	ori	s5,s5,0x38a8
bfc00a54:	16551be3 	bne	s2,s5,bfc079e4 <inst_error>
bfc00a58:	00000000 	nop
bfc00a5c:	3c0c9abc 	lui	t4,0x9abc
bfc00a60:	358c5340 	ori	t4,t4,0x5340
bfc00a64:	3c0df499 	lui	t5,0xf499
bfc00a68:	35ad2ade 	ori	t5,t5,0x2ade
bfc00a6c:	24100000 	li	s0,0
bfc00a70:	24120000 	li	s2,0
bfc00a74:	1000000a 	b	bfc00aa0 <main+0xaa0>
bfc00a78:	00000000 	nop
bfc00a7c:	3c109abc 	lui	s0,0x9abc
bfc00a80:	36105340 	ori	s0,s0,0x5340
bfc00a84:	10000011 	b	bfc00acc <main+0xacc>
bfc00a88:	00000000 	nop
bfc00a8c:	10000011 	b	bfc00ad4 <main+0xad4>
bfc00a90:	00000000 	nop
bfc00a94:	00000021 	move	zero,zero
bfc00a98:	00000021 	move	zero,zero
bfc00a9c:	00000021 	move	zero,zero
bfc00aa0:	1000fff6 	b	bfc00a7c <main+0xa7c>
bfc00aa4:	00000000 	nop
bfc00aa8:	1000000a 	b	bfc00ad4 <main+0xad4>
bfc00aac:	00000000 	nop
bfc00ab0:	00000021 	move	zero,zero
bfc00ab4:	00000021 	move	zero,zero
bfc00ab8:	00000021 	move	zero,zero
bfc00abc:	00000021 	move	zero,zero
bfc00ac0:	00000021 	move	zero,zero
bfc00ac4:	00000021 	move	zero,zero
bfc00ac8:	00000021 	move	zero,zero
bfc00acc:	3c12f499 	lui	s2,0xf499
bfc00ad0:	36522ade 	ori	s2,s2,0x2ade
bfc00ad4:	00000000 	nop
bfc00ad8:	3c149abc 	lui	s4,0x9abc
bfc00adc:	36945340 	ori	s4,s4,0x5340
bfc00ae0:	16141bc0 	bne	s0,s4,bfc079e4 <inst_error>
bfc00ae4:	00000000 	nop
bfc00ae8:	3c15f499 	lui	s5,0xf499
bfc00aec:	36b52ade 	ori	s5,s5,0x2ade
bfc00af0:	16551bbc 	bne	s2,s5,bfc079e4 <inst_error>
bfc00af4:	00000000 	nop
bfc00af8:	3c0c8735 	lui	t4,0x8735
bfc00afc:	358cdeb0 	ori	t4,t4,0xdeb0
bfc00b00:	3c0dec85 	lui	t5,0xec85
bfc00b04:	35ad4940 	ori	t5,t5,0x4940
bfc00b08:	24100000 	li	s0,0
bfc00b0c:	24120000 	li	s2,0
bfc00b10:	1000000a 	b	bfc00b3c <main+0xb3c>
bfc00b14:	00000000 	nop
bfc00b18:	3c108735 	lui	s0,0x8735
bfc00b1c:	3610deb0 	ori	s0,s0,0xdeb0
bfc00b20:	10000011 	b	bfc00b68 <main+0xb68>
bfc00b24:	00000000 	nop
bfc00b28:	10000011 	b	bfc00b70 <main+0xb70>
bfc00b2c:	00000000 	nop
bfc00b30:	00000021 	move	zero,zero
bfc00b34:	00000021 	move	zero,zero
bfc00b38:	00000021 	move	zero,zero
bfc00b3c:	1000fff6 	b	bfc00b18 <main+0xb18>
bfc00b40:	00000000 	nop
bfc00b44:	1000000a 	b	bfc00b70 <main+0xb70>
bfc00b48:	00000000 	nop
bfc00b4c:	00000021 	move	zero,zero
bfc00b50:	00000021 	move	zero,zero
bfc00b54:	00000021 	move	zero,zero
bfc00b58:	00000021 	move	zero,zero
bfc00b5c:	00000021 	move	zero,zero
bfc00b60:	00000021 	move	zero,zero
bfc00b64:	00000021 	move	zero,zero
bfc00b68:	3c12ec85 	lui	s2,0xec85
bfc00b6c:	36524940 	ori	s2,s2,0x4940
bfc00b70:	00000000 	nop
bfc00b74:	3c148735 	lui	s4,0x8735
bfc00b78:	3694deb0 	ori	s4,s4,0xdeb0
bfc00b7c:	16141b99 	bne	s0,s4,bfc079e4 <inst_error>
bfc00b80:	00000000 	nop
bfc00b84:	3c15ec85 	lui	s5,0xec85
bfc00b88:	36b54940 	ori	s5,s5,0x4940
bfc00b8c:	16551b95 	bne	s2,s5,bfc079e4 <inst_error>
bfc00b90:	00000000 	nop
bfc00b94:	3c0cd94c 	lui	t4,0xd94c
bfc00b98:	358cbd74 	ori	t4,t4,0xbd74
bfc00b9c:	3c0dead4 	lui	t5,0xead4
bfc00ba0:	35ad2d65 	ori	t5,t5,0x2d65
bfc00ba4:	24100000 	li	s0,0
bfc00ba8:	24120000 	li	s2,0
bfc00bac:	1000000a 	b	bfc00bd8 <main+0xbd8>
bfc00bb0:	00000000 	nop
bfc00bb4:	3c10d94c 	lui	s0,0xd94c
bfc00bb8:	3610bd74 	ori	s0,s0,0xbd74
bfc00bbc:	10000011 	b	bfc00c04 <main+0xc04>
bfc00bc0:	00000000 	nop
bfc00bc4:	10000011 	b	bfc00c0c <main+0xc0c>
bfc00bc8:	00000000 	nop
bfc00bcc:	00000021 	move	zero,zero
bfc00bd0:	00000021 	move	zero,zero
bfc00bd4:	00000021 	move	zero,zero
bfc00bd8:	1000fff6 	b	bfc00bb4 <main+0xbb4>
bfc00bdc:	00000000 	nop
bfc00be0:	1000000a 	b	bfc00c0c <main+0xc0c>
bfc00be4:	00000000 	nop
bfc00be8:	00000021 	move	zero,zero
bfc00bec:	00000021 	move	zero,zero
bfc00bf0:	00000021 	move	zero,zero
bfc00bf4:	00000021 	move	zero,zero
bfc00bf8:	00000021 	move	zero,zero
bfc00bfc:	00000021 	move	zero,zero
bfc00c00:	00000021 	move	zero,zero
bfc00c04:	3c12ead4 	lui	s2,0xead4
bfc00c08:	36522d65 	ori	s2,s2,0x2d65
bfc00c0c:	00000000 	nop
bfc00c10:	3c14d94c 	lui	s4,0xd94c
bfc00c14:	3694bd74 	ori	s4,s4,0xbd74
bfc00c18:	16141b72 	bne	s0,s4,bfc079e4 <inst_error>
bfc00c1c:	00000000 	nop
bfc00c20:	3c15ead4 	lui	s5,0xead4
bfc00c24:	36b52d65 	ori	s5,s5,0x2d65
bfc00c28:	16551b6e 	bne	s2,s5,bfc079e4 <inst_error>
bfc00c2c:	00000000 	nop
bfc00c30:	3c0caff4 	lui	t4,0xaff4
bfc00c34:	358c4748 	ori	t4,t4,0x4748
bfc00c38:	3c0dc720 	lui	t5,0xc720
bfc00c3c:	35ad3940 	ori	t5,t5,0x3940
bfc00c40:	24100000 	li	s0,0
bfc00c44:	24120000 	li	s2,0
bfc00c48:	1000000a 	b	bfc00c74 <main+0xc74>
bfc00c4c:	00000000 	nop
bfc00c50:	3c10aff4 	lui	s0,0xaff4
bfc00c54:	36104748 	ori	s0,s0,0x4748
bfc00c58:	10000011 	b	bfc00ca0 <main+0xca0>
bfc00c5c:	00000000 	nop
bfc00c60:	10000011 	b	bfc00ca8 <main+0xca8>
bfc00c64:	00000000 	nop
bfc00c68:	00000021 	move	zero,zero
bfc00c6c:	00000021 	move	zero,zero
bfc00c70:	00000021 	move	zero,zero
bfc00c74:	1000fff6 	b	bfc00c50 <main+0xc50>
bfc00c78:	00000000 	nop
bfc00c7c:	1000000a 	b	bfc00ca8 <main+0xca8>
bfc00c80:	00000000 	nop
bfc00c84:	00000021 	move	zero,zero
bfc00c88:	00000021 	move	zero,zero
bfc00c8c:	00000021 	move	zero,zero
bfc00c90:	00000021 	move	zero,zero
bfc00c94:	00000021 	move	zero,zero
bfc00c98:	00000021 	move	zero,zero
bfc00c9c:	00000021 	move	zero,zero
bfc00ca0:	3c12c720 	lui	s2,0xc720
bfc00ca4:	36523940 	ori	s2,s2,0x3940
bfc00ca8:	00000000 	nop
bfc00cac:	3c14aff4 	lui	s4,0xaff4
bfc00cb0:	36944748 	ori	s4,s4,0x4748
bfc00cb4:	16141b4b 	bne	s0,s4,bfc079e4 <inst_error>
bfc00cb8:	00000000 	nop
bfc00cbc:	3c15c720 	lui	s5,0xc720
bfc00cc0:	36b53940 	ori	s5,s5,0x3940
bfc00cc4:	16551b47 	bne	s2,s5,bfc079e4 <inst_error>
bfc00cc8:	00000000 	nop
bfc00ccc:	3c0c387c 	lui	t4,0x387c
bfc00cd0:	358c49f4 	ori	t4,t4,0x49f4
bfc00cd4:	3c0dd301 	lui	t5,0xd301
bfc00cd8:	35ad8d7e 	ori	t5,t5,0x8d7e
bfc00cdc:	24100000 	li	s0,0
bfc00ce0:	24120000 	li	s2,0
bfc00ce4:	1000000a 	b	bfc00d10 <main+0xd10>
bfc00ce8:	00000000 	nop
bfc00cec:	3c10387c 	lui	s0,0x387c
bfc00cf0:	361049f4 	ori	s0,s0,0x49f4
bfc00cf4:	10000011 	b	bfc00d3c <main+0xd3c>
bfc00cf8:	00000000 	nop
bfc00cfc:	10000011 	b	bfc00d44 <main+0xd44>
bfc00d00:	00000000 	nop
bfc00d04:	00000021 	move	zero,zero
bfc00d08:	00000021 	move	zero,zero
bfc00d0c:	00000021 	move	zero,zero
bfc00d10:	1000fff6 	b	bfc00cec <main+0xcec>
bfc00d14:	00000000 	nop
bfc00d18:	1000000a 	b	bfc00d44 <main+0xd44>
bfc00d1c:	00000000 	nop
bfc00d20:	00000021 	move	zero,zero
bfc00d24:	00000021 	move	zero,zero
bfc00d28:	00000021 	move	zero,zero
bfc00d2c:	00000021 	move	zero,zero
bfc00d30:	00000021 	move	zero,zero
bfc00d34:	00000021 	move	zero,zero
bfc00d38:	00000021 	move	zero,zero
bfc00d3c:	3c12d301 	lui	s2,0xd301
bfc00d40:	36528d7e 	ori	s2,s2,0x8d7e
bfc00d44:	00000000 	nop
bfc00d48:	3c14387c 	lui	s4,0x387c
bfc00d4c:	369449f4 	ori	s4,s4,0x49f4
bfc00d50:	16141b24 	bne	s0,s4,bfc079e4 <inst_error>
bfc00d54:	00000000 	nop
bfc00d58:	3c15d301 	lui	s5,0xd301
bfc00d5c:	36b58d7e 	ori	s5,s5,0x8d7e
bfc00d60:	16551b20 	bne	s2,s5,bfc079e4 <inst_error>
bfc00d64:	00000000 	nop
bfc00d68:	3c0c16af 	lui	t4,0x16af
bfc00d6c:	358c342a 	ori	t4,t4,0x342a
bfc00d70:	3c0dc125 	lui	t5,0xc125
bfc00d74:	35ad9a6f 	ori	t5,t5,0x9a6f
bfc00d78:	24100000 	li	s0,0
bfc00d7c:	24120000 	li	s2,0
bfc00d80:	1000000a 	b	bfc00dac <main+0xdac>
bfc00d84:	00000000 	nop
bfc00d88:	3c1016af 	lui	s0,0x16af
bfc00d8c:	3610342a 	ori	s0,s0,0x342a
bfc00d90:	10000011 	b	bfc00dd8 <main+0xdd8>
bfc00d94:	00000000 	nop
bfc00d98:	10000011 	b	bfc00de0 <main+0xde0>
bfc00d9c:	00000000 	nop
bfc00da0:	00000021 	move	zero,zero
bfc00da4:	00000021 	move	zero,zero
bfc00da8:	00000021 	move	zero,zero
bfc00dac:	1000fff6 	b	bfc00d88 <main+0xd88>
bfc00db0:	00000000 	nop
bfc00db4:	1000000a 	b	bfc00de0 <main+0xde0>
bfc00db8:	00000000 	nop
bfc00dbc:	00000021 	move	zero,zero
bfc00dc0:	00000021 	move	zero,zero
bfc00dc4:	00000021 	move	zero,zero
bfc00dc8:	00000021 	move	zero,zero
bfc00dcc:	00000021 	move	zero,zero
bfc00dd0:	00000021 	move	zero,zero
bfc00dd4:	00000021 	move	zero,zero
bfc00dd8:	3c12c125 	lui	s2,0xc125
bfc00ddc:	36529a6f 	ori	s2,s2,0x9a6f
bfc00de0:	00000000 	nop
bfc00de4:	3c1416af 	lui	s4,0x16af
bfc00de8:	3694342a 	ori	s4,s4,0x342a
bfc00dec:	16141afd 	bne	s0,s4,bfc079e4 <inst_error>
bfc00df0:	00000000 	nop
bfc00df4:	3c15c125 	lui	s5,0xc125
bfc00df8:	36b59a6f 	ori	s5,s5,0x9a6f
bfc00dfc:	16551af9 	bne	s2,s5,bfc079e4 <inst_error>
bfc00e00:	00000000 	nop
bfc00e04:	3c0ce613 	lui	t4,0xe613
bfc00e08:	358c3d00 	ori	t4,t4,0x3d00
bfc00e0c:	3c0d0f70 	lui	t5,0xf70
bfc00e10:	35add074 	ori	t5,t5,0xd074
bfc00e14:	24100000 	li	s0,0
bfc00e18:	24120000 	li	s2,0
bfc00e1c:	1000000a 	b	bfc00e48 <main+0xe48>
bfc00e20:	00000000 	nop
bfc00e24:	3c10e613 	lui	s0,0xe613
bfc00e28:	36103d00 	ori	s0,s0,0x3d00
bfc00e2c:	10000011 	b	bfc00e74 <main+0xe74>
bfc00e30:	00000000 	nop
bfc00e34:	10000011 	b	bfc00e7c <main+0xe7c>
bfc00e38:	00000000 	nop
bfc00e3c:	00000021 	move	zero,zero
bfc00e40:	00000021 	move	zero,zero
bfc00e44:	00000021 	move	zero,zero
bfc00e48:	1000fff6 	b	bfc00e24 <main+0xe24>
bfc00e4c:	00000000 	nop
bfc00e50:	1000000a 	b	bfc00e7c <main+0xe7c>
bfc00e54:	00000000 	nop
bfc00e58:	00000021 	move	zero,zero
bfc00e5c:	00000021 	move	zero,zero
bfc00e60:	00000021 	move	zero,zero
bfc00e64:	00000021 	move	zero,zero
bfc00e68:	00000021 	move	zero,zero
bfc00e6c:	00000021 	move	zero,zero
bfc00e70:	00000021 	move	zero,zero
bfc00e74:	3c120f70 	lui	s2,0xf70
bfc00e78:	3652d074 	ori	s2,s2,0xd074
bfc00e7c:	00000000 	nop
bfc00e80:	3c14e613 	lui	s4,0xe613
bfc00e84:	36943d00 	ori	s4,s4,0x3d00
bfc00e88:	16141ad6 	bne	s0,s4,bfc079e4 <inst_error>
bfc00e8c:	00000000 	nop
bfc00e90:	3c150f70 	lui	s5,0xf70
bfc00e94:	36b5d074 	ori	s5,s5,0xd074
bfc00e98:	16551ad2 	bne	s2,s5,bfc079e4 <inst_error>
bfc00e9c:	00000000 	nop
bfc00ea0:	3c0c07a3 	lui	t4,0x7a3
bfc00ea4:	358c77ee 	ori	t4,t4,0x77ee
bfc00ea8:	3c0d9393 	lui	t5,0x9393
bfc00eac:	35adffd8 	ori	t5,t5,0xffd8
bfc00eb0:	24100000 	li	s0,0
bfc00eb4:	24120000 	li	s2,0
bfc00eb8:	1000000a 	b	bfc00ee4 <main+0xee4>
bfc00ebc:	00000000 	nop
bfc00ec0:	3c1007a3 	lui	s0,0x7a3
bfc00ec4:	361077ee 	ori	s0,s0,0x77ee
bfc00ec8:	10000011 	b	bfc00f10 <main+0xf10>
bfc00ecc:	00000000 	nop
bfc00ed0:	10000011 	b	bfc00f18 <main+0xf18>
bfc00ed4:	00000000 	nop
bfc00ed8:	00000021 	move	zero,zero
bfc00edc:	00000021 	move	zero,zero
bfc00ee0:	00000021 	move	zero,zero
bfc00ee4:	1000fff6 	b	bfc00ec0 <main+0xec0>
bfc00ee8:	00000000 	nop
bfc00eec:	1000000a 	b	bfc00f18 <main+0xf18>
bfc00ef0:	00000000 	nop
bfc00ef4:	00000021 	move	zero,zero
bfc00ef8:	00000021 	move	zero,zero
bfc00efc:	00000021 	move	zero,zero
bfc00f00:	00000021 	move	zero,zero
bfc00f04:	00000021 	move	zero,zero
bfc00f08:	00000021 	move	zero,zero
bfc00f0c:	00000021 	move	zero,zero
bfc00f10:	3c129393 	lui	s2,0x9393
bfc00f14:	3652ffd8 	ori	s2,s2,0xffd8
bfc00f18:	00000000 	nop
bfc00f1c:	3c1407a3 	lui	s4,0x7a3
bfc00f20:	369477ee 	ori	s4,s4,0x77ee
bfc00f24:	16141aaf 	bne	s0,s4,bfc079e4 <inst_error>
bfc00f28:	00000000 	nop
bfc00f2c:	3c159393 	lui	s5,0x9393
bfc00f30:	36b5ffd8 	ori	s5,s5,0xffd8
bfc00f34:	16551aab 	bne	s2,s5,bfc079e4 <inst_error>
bfc00f38:	00000000 	nop
bfc00f3c:	3c0c37b4 	lui	t4,0x37b4
bfc00f40:	358cff00 	ori	t4,t4,0xff00
bfc00f44:	3c0d3e9d 	lui	t5,0x3e9d
bfc00f48:	35ade478 	ori	t5,t5,0xe478
bfc00f4c:	24100000 	li	s0,0
bfc00f50:	24120000 	li	s2,0
bfc00f54:	1000000a 	b	bfc00f80 <main+0xf80>
bfc00f58:	00000000 	nop
bfc00f5c:	3c1037b4 	lui	s0,0x37b4
bfc00f60:	3610ff00 	ori	s0,s0,0xff00
bfc00f64:	10000011 	b	bfc00fac <main+0xfac>
bfc00f68:	00000000 	nop
bfc00f6c:	10000011 	b	bfc00fb4 <main+0xfb4>
bfc00f70:	00000000 	nop
bfc00f74:	00000021 	move	zero,zero
bfc00f78:	00000021 	move	zero,zero
bfc00f7c:	00000021 	move	zero,zero
bfc00f80:	1000fff6 	b	bfc00f5c <main+0xf5c>
bfc00f84:	00000000 	nop
bfc00f88:	1000000a 	b	bfc00fb4 <main+0xfb4>
bfc00f8c:	00000000 	nop
bfc00f90:	00000021 	move	zero,zero
bfc00f94:	00000021 	move	zero,zero
bfc00f98:	00000021 	move	zero,zero
bfc00f9c:	00000021 	move	zero,zero
bfc00fa0:	00000021 	move	zero,zero
bfc00fa4:	00000021 	move	zero,zero
bfc00fa8:	00000021 	move	zero,zero
bfc00fac:	3c123e9d 	lui	s2,0x3e9d
bfc00fb0:	3652e478 	ori	s2,s2,0xe478
bfc00fb4:	00000000 	nop
bfc00fb8:	3c1437b4 	lui	s4,0x37b4
bfc00fbc:	3694ff00 	ori	s4,s4,0xff00
bfc00fc0:	16141a88 	bne	s0,s4,bfc079e4 <inst_error>
bfc00fc4:	00000000 	nop
bfc00fc8:	3c153e9d 	lui	s5,0x3e9d
bfc00fcc:	36b5e478 	ori	s5,s5,0xe478
bfc00fd0:	16551a84 	bne	s2,s5,bfc079e4 <inst_error>
bfc00fd4:	00000000 	nop
bfc00fd8:	3c0c5950 	lui	t4,0x5950
bfc00fdc:	358c1cf0 	ori	t4,t4,0x1cf0
bfc00fe0:	3c0ddcdd 	lui	t5,0xdcdd
bfc00fe4:	35ad8c00 	ori	t5,t5,0x8c00
bfc00fe8:	24100000 	li	s0,0
bfc00fec:	24120000 	li	s2,0
bfc00ff0:	1000000a 	b	bfc0101c <main+0x101c>
bfc00ff4:	00000000 	nop
bfc00ff8:	3c105950 	lui	s0,0x5950
bfc00ffc:	36101cf0 	ori	s0,s0,0x1cf0
bfc01000:	10000011 	b	bfc01048 <main+0x1048>
bfc01004:	00000000 	nop
bfc01008:	10000011 	b	bfc01050 <main+0x1050>
bfc0100c:	00000000 	nop
bfc01010:	00000021 	move	zero,zero
bfc01014:	00000021 	move	zero,zero
bfc01018:	00000021 	move	zero,zero
bfc0101c:	1000fff6 	b	bfc00ff8 <main+0xff8>
bfc01020:	00000000 	nop
bfc01024:	1000000a 	b	bfc01050 <main+0x1050>
bfc01028:	00000000 	nop
bfc0102c:	00000021 	move	zero,zero
bfc01030:	00000021 	move	zero,zero
bfc01034:	00000021 	move	zero,zero
bfc01038:	00000021 	move	zero,zero
bfc0103c:	00000021 	move	zero,zero
bfc01040:	00000021 	move	zero,zero
bfc01044:	00000021 	move	zero,zero
bfc01048:	3c12dcdd 	lui	s2,0xdcdd
bfc0104c:	36528c00 	ori	s2,s2,0x8c00
bfc01050:	00000000 	nop
bfc01054:	3c145950 	lui	s4,0x5950
bfc01058:	36941cf0 	ori	s4,s4,0x1cf0
bfc0105c:	16141a61 	bne	s0,s4,bfc079e4 <inst_error>
bfc01060:	00000000 	nop
bfc01064:	3c15dcdd 	lui	s5,0xdcdd
bfc01068:	36b58c00 	ori	s5,s5,0x8c00
bfc0106c:	16551a5d 	bne	s2,s5,bfc079e4 <inst_error>
bfc01070:	00000000 	nop
bfc01074:	3c0c8e52 	lui	t4,0x8e52
bfc01078:	358cc917 	ori	t4,t4,0xc917
bfc0107c:	3c0dc752 	lui	t5,0xc752
bfc01080:	35ad85f4 	ori	t5,t5,0x85f4
bfc01084:	24100000 	li	s0,0
bfc01088:	24120000 	li	s2,0
bfc0108c:	1000000a 	b	bfc010b8 <main+0x10b8>
bfc01090:	00000000 	nop
bfc01094:	3c108e52 	lui	s0,0x8e52
bfc01098:	3610c917 	ori	s0,s0,0xc917
bfc0109c:	10000011 	b	bfc010e4 <main+0x10e4>
bfc010a0:	00000000 	nop
bfc010a4:	10000011 	b	bfc010ec <main+0x10ec>
bfc010a8:	00000000 	nop
bfc010ac:	00000021 	move	zero,zero
bfc010b0:	00000021 	move	zero,zero
bfc010b4:	00000021 	move	zero,zero
bfc010b8:	1000fff6 	b	bfc01094 <main+0x1094>
bfc010bc:	00000000 	nop
bfc010c0:	1000000a 	b	bfc010ec <main+0x10ec>
bfc010c4:	00000000 	nop
bfc010c8:	00000021 	move	zero,zero
bfc010cc:	00000021 	move	zero,zero
bfc010d0:	00000021 	move	zero,zero
bfc010d4:	00000021 	move	zero,zero
bfc010d8:	00000021 	move	zero,zero
bfc010dc:	00000021 	move	zero,zero
bfc010e0:	00000021 	move	zero,zero
bfc010e4:	3c12c752 	lui	s2,0xc752
bfc010e8:	365285f4 	ori	s2,s2,0x85f4
bfc010ec:	00000000 	nop
bfc010f0:	3c148e52 	lui	s4,0x8e52
bfc010f4:	3694c917 	ori	s4,s4,0xc917
bfc010f8:	16141a3a 	bne	s0,s4,bfc079e4 <inst_error>
bfc010fc:	00000000 	nop
bfc01100:	3c15c752 	lui	s5,0xc752
bfc01104:	36b585f4 	ori	s5,s5,0x85f4
bfc01108:	16551a36 	bne	s2,s5,bfc079e4 <inst_error>
bfc0110c:	00000000 	nop
bfc01110:	3c0cc1d9 	lui	t4,0xc1d9
bfc01114:	358cfc00 	ori	t4,t4,0xfc00
bfc01118:	3c0d487d 	lui	t5,0x487d
bfc0111c:	35ad4402 	ori	t5,t5,0x4402
bfc01120:	24100000 	li	s0,0
bfc01124:	24120000 	li	s2,0
bfc01128:	1000000a 	b	bfc01154 <main+0x1154>
bfc0112c:	00000000 	nop
bfc01130:	3c10c1d9 	lui	s0,0xc1d9
bfc01134:	3610fc00 	ori	s0,s0,0xfc00
bfc01138:	10000011 	b	bfc01180 <main+0x1180>
bfc0113c:	00000000 	nop
bfc01140:	10000011 	b	bfc01188 <main+0x1188>
bfc01144:	00000000 	nop
bfc01148:	00000021 	move	zero,zero
bfc0114c:	00000021 	move	zero,zero
bfc01150:	00000021 	move	zero,zero
bfc01154:	1000fff6 	b	bfc01130 <main+0x1130>
bfc01158:	00000000 	nop
bfc0115c:	1000000a 	b	bfc01188 <main+0x1188>
bfc01160:	00000000 	nop
bfc01164:	00000021 	move	zero,zero
bfc01168:	00000021 	move	zero,zero
bfc0116c:	00000021 	move	zero,zero
bfc01170:	00000021 	move	zero,zero
bfc01174:	00000021 	move	zero,zero
bfc01178:	00000021 	move	zero,zero
bfc0117c:	00000021 	move	zero,zero
bfc01180:	3c12487d 	lui	s2,0x487d
bfc01184:	36524402 	ori	s2,s2,0x4402
bfc01188:	00000000 	nop
bfc0118c:	3c14c1d9 	lui	s4,0xc1d9
bfc01190:	3694fc00 	ori	s4,s4,0xfc00
bfc01194:	16141a13 	bne	s0,s4,bfc079e4 <inst_error>
bfc01198:	00000000 	nop
bfc0119c:	3c15487d 	lui	s5,0x487d
bfc011a0:	36b54402 	ori	s5,s5,0x4402
bfc011a4:	16551a0f 	bne	s2,s5,bfc079e4 <inst_error>
bfc011a8:	00000000 	nop
bfc011ac:	3c0c83ab 	lui	t4,0x83ab
bfc011b0:	358c68a8 	ori	t4,t4,0x68a8
bfc011b4:	3c0d0db0 	lui	t5,0xdb0
bfc011b8:	35ad3800 	ori	t5,t5,0x3800
bfc011bc:	24100000 	li	s0,0
bfc011c0:	24120000 	li	s2,0
bfc011c4:	1000000a 	b	bfc011f0 <main+0x11f0>
bfc011c8:	00000000 	nop
bfc011cc:	3c1083ab 	lui	s0,0x83ab
bfc011d0:	361068a8 	ori	s0,s0,0x68a8
bfc011d4:	10000011 	b	bfc0121c <main+0x121c>
bfc011d8:	00000000 	nop
bfc011dc:	10000011 	b	bfc01224 <main+0x1224>
bfc011e0:	00000000 	nop
bfc011e4:	00000021 	move	zero,zero
bfc011e8:	00000021 	move	zero,zero
bfc011ec:	00000021 	move	zero,zero
bfc011f0:	1000fff6 	b	bfc011cc <main+0x11cc>
bfc011f4:	00000000 	nop
bfc011f8:	1000000a 	b	bfc01224 <main+0x1224>
bfc011fc:	00000000 	nop
bfc01200:	00000021 	move	zero,zero
bfc01204:	00000021 	move	zero,zero
bfc01208:	00000021 	move	zero,zero
bfc0120c:	00000021 	move	zero,zero
bfc01210:	00000021 	move	zero,zero
bfc01214:	00000021 	move	zero,zero
bfc01218:	00000021 	move	zero,zero
bfc0121c:	3c120db0 	lui	s2,0xdb0
bfc01220:	36523800 	ori	s2,s2,0x3800
bfc01224:	00000000 	nop
bfc01228:	3c1483ab 	lui	s4,0x83ab
bfc0122c:	369468a8 	ori	s4,s4,0x68a8
bfc01230:	161419ec 	bne	s0,s4,bfc079e4 <inst_error>
bfc01234:	00000000 	nop
bfc01238:	3c150db0 	lui	s5,0xdb0
bfc0123c:	36b53800 	ori	s5,s5,0x3800
bfc01240:	165519e8 	bne	s2,s5,bfc079e4 <inst_error>
bfc01244:	00000000 	nop
bfc01248:	3c0cb7f2 	lui	t4,0xb7f2
bfc0124c:	358cb8b0 	ori	t4,t4,0xb8b0
bfc01250:	3c0d222c 	lui	t5,0x222c
bfc01254:	35ad3ce2 	ori	t5,t5,0x3ce2
bfc01258:	24100000 	li	s0,0
bfc0125c:	24120000 	li	s2,0
bfc01260:	1000000a 	b	bfc0128c <main+0x128c>
bfc01264:	00000000 	nop
bfc01268:	3c10b7f2 	lui	s0,0xb7f2
bfc0126c:	3610b8b0 	ori	s0,s0,0xb8b0
bfc01270:	10000011 	b	bfc012b8 <main+0x12b8>
bfc01274:	00000000 	nop
bfc01278:	10000011 	b	bfc012c0 <main+0x12c0>
bfc0127c:	00000000 	nop
bfc01280:	00000021 	move	zero,zero
bfc01284:	00000021 	move	zero,zero
bfc01288:	00000021 	move	zero,zero
bfc0128c:	1000fff6 	b	bfc01268 <main+0x1268>
bfc01290:	00000000 	nop
bfc01294:	1000000a 	b	bfc012c0 <main+0x12c0>
bfc01298:	00000000 	nop
bfc0129c:	00000021 	move	zero,zero
bfc012a0:	00000021 	move	zero,zero
bfc012a4:	00000021 	move	zero,zero
bfc012a8:	00000021 	move	zero,zero
bfc012ac:	00000021 	move	zero,zero
bfc012b0:	00000021 	move	zero,zero
bfc012b4:	00000021 	move	zero,zero
bfc012b8:	3c12222c 	lui	s2,0x222c
bfc012bc:	36523ce2 	ori	s2,s2,0x3ce2
bfc012c0:	00000000 	nop
bfc012c4:	3c14b7f2 	lui	s4,0xb7f2
bfc012c8:	3694b8b0 	ori	s4,s4,0xb8b0
bfc012cc:	161419c5 	bne	s0,s4,bfc079e4 <inst_error>
bfc012d0:	00000000 	nop
bfc012d4:	3c15222c 	lui	s5,0x222c
bfc012d8:	36b53ce2 	ori	s5,s5,0x3ce2
bfc012dc:	165519c1 	bne	s2,s5,bfc079e4 <inst_error>
bfc012e0:	00000000 	nop
bfc012e4:	3c0c78f4 	lui	t4,0x78f4
bfc012e8:	358c77d4 	ori	t4,t4,0x77d4
bfc012ec:	3c0da267 	lui	t5,0xa267
bfc012f0:	35ad9b76 	ori	t5,t5,0x9b76
bfc012f4:	24100000 	li	s0,0
bfc012f8:	24120000 	li	s2,0
bfc012fc:	1000000a 	b	bfc01328 <main+0x1328>
bfc01300:	00000000 	nop
bfc01304:	3c1078f4 	lui	s0,0x78f4
bfc01308:	361077d4 	ori	s0,s0,0x77d4
bfc0130c:	10000011 	b	bfc01354 <main+0x1354>
bfc01310:	00000000 	nop
bfc01314:	10000011 	b	bfc0135c <main+0x135c>
bfc01318:	00000000 	nop
bfc0131c:	00000021 	move	zero,zero
bfc01320:	00000021 	move	zero,zero
bfc01324:	00000021 	move	zero,zero
bfc01328:	1000fff6 	b	bfc01304 <main+0x1304>
bfc0132c:	00000000 	nop
bfc01330:	1000000a 	b	bfc0135c <main+0x135c>
bfc01334:	00000000 	nop
bfc01338:	00000021 	move	zero,zero
bfc0133c:	00000021 	move	zero,zero
bfc01340:	00000021 	move	zero,zero
bfc01344:	00000021 	move	zero,zero
bfc01348:	00000021 	move	zero,zero
bfc0134c:	00000021 	move	zero,zero
bfc01350:	00000021 	move	zero,zero
bfc01354:	3c12a267 	lui	s2,0xa267
bfc01358:	36529b76 	ori	s2,s2,0x9b76
bfc0135c:	00000000 	nop
bfc01360:	3c1478f4 	lui	s4,0x78f4
bfc01364:	369477d4 	ori	s4,s4,0x77d4
bfc01368:	1614199e 	bne	s0,s4,bfc079e4 <inst_error>
bfc0136c:	00000000 	nop
bfc01370:	3c15a267 	lui	s5,0xa267
bfc01374:	36b59b76 	ori	s5,s5,0x9b76
bfc01378:	1655199a 	bne	s2,s5,bfc079e4 <inst_error>
bfc0137c:	00000000 	nop
bfc01380:	3c0c93e2 	lui	t4,0x93e2
bfc01384:	358c3ed2 	ori	t4,t4,0x3ed2
bfc01388:	3c0d5b65 	lui	t5,0x5b65
bfc0138c:	35ad8fa0 	ori	t5,t5,0x8fa0
bfc01390:	24100000 	li	s0,0
bfc01394:	24120000 	li	s2,0
bfc01398:	1000000a 	b	bfc013c4 <main+0x13c4>
bfc0139c:	00000000 	nop
bfc013a0:	3c1093e2 	lui	s0,0x93e2
bfc013a4:	36103ed2 	ori	s0,s0,0x3ed2
bfc013a8:	10000011 	b	bfc013f0 <main+0x13f0>
bfc013ac:	00000000 	nop
bfc013b0:	10000011 	b	bfc013f8 <main+0x13f8>
bfc013b4:	00000000 	nop
bfc013b8:	00000021 	move	zero,zero
bfc013bc:	00000021 	move	zero,zero
bfc013c0:	00000021 	move	zero,zero
bfc013c4:	1000fff6 	b	bfc013a0 <main+0x13a0>
bfc013c8:	00000000 	nop
bfc013cc:	1000000a 	b	bfc013f8 <main+0x13f8>
bfc013d0:	00000000 	nop
bfc013d4:	00000021 	move	zero,zero
bfc013d8:	00000021 	move	zero,zero
bfc013dc:	00000021 	move	zero,zero
bfc013e0:	00000021 	move	zero,zero
bfc013e4:	00000021 	move	zero,zero
bfc013e8:	00000021 	move	zero,zero
bfc013ec:	00000021 	move	zero,zero
bfc013f0:	3c125b65 	lui	s2,0x5b65
bfc013f4:	36528fa0 	ori	s2,s2,0x8fa0
bfc013f8:	00000000 	nop
bfc013fc:	3c1493e2 	lui	s4,0x93e2
bfc01400:	36943ed2 	ori	s4,s4,0x3ed2
bfc01404:	16141977 	bne	s0,s4,bfc079e4 <inst_error>
bfc01408:	00000000 	nop
bfc0140c:	3c155b65 	lui	s5,0x5b65
bfc01410:	36b58fa0 	ori	s5,s5,0x8fa0
bfc01414:	16551973 	bne	s2,s5,bfc079e4 <inst_error>
bfc01418:	00000000 	nop
bfc0141c:	3c0c37e7 	lui	t4,0x37e7
bfc01420:	358c0c4c 	ori	t4,t4,0xc4c
bfc01424:	3c0d49f0 	lui	t5,0x49f0
bfc01428:	35add7ae 	ori	t5,t5,0xd7ae
bfc0142c:	24100000 	li	s0,0
bfc01430:	24120000 	li	s2,0
bfc01434:	1000000a 	b	bfc01460 <main+0x1460>
bfc01438:	00000000 	nop
bfc0143c:	3c1037e7 	lui	s0,0x37e7
bfc01440:	36100c4c 	ori	s0,s0,0xc4c
bfc01444:	10000011 	b	bfc0148c <main+0x148c>
bfc01448:	00000000 	nop
bfc0144c:	10000011 	b	bfc01494 <main+0x1494>
bfc01450:	00000000 	nop
bfc01454:	00000021 	move	zero,zero
bfc01458:	00000021 	move	zero,zero
bfc0145c:	00000021 	move	zero,zero
bfc01460:	1000fff6 	b	bfc0143c <main+0x143c>
bfc01464:	00000000 	nop
bfc01468:	1000000a 	b	bfc01494 <main+0x1494>
bfc0146c:	00000000 	nop
bfc01470:	00000021 	move	zero,zero
bfc01474:	00000021 	move	zero,zero
bfc01478:	00000021 	move	zero,zero
bfc0147c:	00000021 	move	zero,zero
bfc01480:	00000021 	move	zero,zero
bfc01484:	00000021 	move	zero,zero
bfc01488:	00000021 	move	zero,zero
bfc0148c:	3c1249f0 	lui	s2,0x49f0
bfc01490:	3652d7ae 	ori	s2,s2,0xd7ae
bfc01494:	00000000 	nop
bfc01498:	3c1437e7 	lui	s4,0x37e7
bfc0149c:	36940c4c 	ori	s4,s4,0xc4c
bfc014a0:	16141950 	bne	s0,s4,bfc079e4 <inst_error>
bfc014a4:	00000000 	nop
bfc014a8:	3c1549f0 	lui	s5,0x49f0
bfc014ac:	36b5d7ae 	ori	s5,s5,0xd7ae
bfc014b0:	1655194c 	bne	s2,s5,bfc079e4 <inst_error>
bfc014b4:	00000000 	nop
bfc014b8:	3c0c1336 	lui	t4,0x1336
bfc014bc:	358ca0b8 	ori	t4,t4,0xa0b8
bfc014c0:	3c0d6549 	lui	t5,0x6549
bfc014c4:	35ad6158 	ori	t5,t5,0x6158
bfc014c8:	24100000 	li	s0,0
bfc014cc:	24120000 	li	s2,0
bfc014d0:	1000000a 	b	bfc014fc <main+0x14fc>
bfc014d4:	00000000 	nop
bfc014d8:	3c101336 	lui	s0,0x1336
bfc014dc:	3610a0b8 	ori	s0,s0,0xa0b8
bfc014e0:	10000011 	b	bfc01528 <main+0x1528>
bfc014e4:	00000000 	nop
bfc014e8:	10000011 	b	bfc01530 <main+0x1530>
bfc014ec:	00000000 	nop
bfc014f0:	00000021 	move	zero,zero
bfc014f4:	00000021 	move	zero,zero
bfc014f8:	00000021 	move	zero,zero
bfc014fc:	1000fff6 	b	bfc014d8 <main+0x14d8>
bfc01500:	00000000 	nop
bfc01504:	1000000a 	b	bfc01530 <main+0x1530>
bfc01508:	00000000 	nop
bfc0150c:	00000021 	move	zero,zero
bfc01510:	00000021 	move	zero,zero
bfc01514:	00000021 	move	zero,zero
bfc01518:	00000021 	move	zero,zero
bfc0151c:	00000021 	move	zero,zero
bfc01520:	00000021 	move	zero,zero
bfc01524:	00000021 	move	zero,zero
bfc01528:	3c126549 	lui	s2,0x6549
bfc0152c:	36526158 	ori	s2,s2,0x6158
bfc01530:	00000000 	nop
bfc01534:	3c141336 	lui	s4,0x1336
bfc01538:	3694a0b8 	ori	s4,s4,0xa0b8
bfc0153c:	16141929 	bne	s0,s4,bfc079e4 <inst_error>
bfc01540:	00000000 	nop
bfc01544:	3c156549 	lui	s5,0x6549
bfc01548:	36b56158 	ori	s5,s5,0x6158
bfc0154c:	16551925 	bne	s2,s5,bfc079e4 <inst_error>
bfc01550:	00000000 	nop
bfc01554:	3c0cbb39 	lui	t4,0xbb39
bfc01558:	358c6800 	ori	t4,t4,0x6800
bfc0155c:	3c0d9004 	lui	t5,0x9004
bfc01560:	35adf51c 	ori	t5,t5,0xf51c
bfc01564:	24100000 	li	s0,0
bfc01568:	24120000 	li	s2,0
bfc0156c:	1000000a 	b	bfc01598 <main+0x1598>
bfc01570:	00000000 	nop
bfc01574:	3c10bb39 	lui	s0,0xbb39
bfc01578:	36106800 	ori	s0,s0,0x6800
bfc0157c:	10000011 	b	bfc015c4 <main+0x15c4>
bfc01580:	00000000 	nop
bfc01584:	10000011 	b	bfc015cc <main+0x15cc>
bfc01588:	00000000 	nop
bfc0158c:	00000021 	move	zero,zero
bfc01590:	00000021 	move	zero,zero
bfc01594:	00000021 	move	zero,zero
bfc01598:	1000fff6 	b	bfc01574 <main+0x1574>
bfc0159c:	00000000 	nop
bfc015a0:	1000000a 	b	bfc015cc <main+0x15cc>
bfc015a4:	00000000 	nop
bfc015a8:	00000021 	move	zero,zero
bfc015ac:	00000021 	move	zero,zero
bfc015b0:	00000021 	move	zero,zero
bfc015b4:	00000021 	move	zero,zero
bfc015b8:	00000021 	move	zero,zero
bfc015bc:	00000021 	move	zero,zero
bfc015c0:	00000021 	move	zero,zero
bfc015c4:	3c129004 	lui	s2,0x9004
bfc015c8:	3652f51c 	ori	s2,s2,0xf51c
bfc015cc:	00000000 	nop
bfc015d0:	3c14bb39 	lui	s4,0xbb39
bfc015d4:	36946800 	ori	s4,s4,0x6800
bfc015d8:	16141902 	bne	s0,s4,bfc079e4 <inst_error>
bfc015dc:	00000000 	nop
bfc015e0:	3c159004 	lui	s5,0x9004
bfc015e4:	36b5f51c 	ori	s5,s5,0xf51c
bfc015e8:	165518fe 	bne	s2,s5,bfc079e4 <inst_error>
bfc015ec:	00000000 	nop
bfc015f0:	3c0cde73 	lui	t4,0xde73
bfc015f4:	358c9ecc 	ori	t4,t4,0x9ecc
bfc015f8:	3c0d8897 	lui	t5,0x8897
bfc015fc:	35ad9c10 	ori	t5,t5,0x9c10
bfc01600:	24100000 	li	s0,0
bfc01604:	24120000 	li	s2,0
bfc01608:	1000000a 	b	bfc01634 <main+0x1634>
bfc0160c:	00000000 	nop
bfc01610:	3c10de73 	lui	s0,0xde73
bfc01614:	36109ecc 	ori	s0,s0,0x9ecc
bfc01618:	10000011 	b	bfc01660 <main+0x1660>
bfc0161c:	00000000 	nop
bfc01620:	10000011 	b	bfc01668 <main+0x1668>
bfc01624:	00000000 	nop
bfc01628:	00000021 	move	zero,zero
bfc0162c:	00000021 	move	zero,zero
bfc01630:	00000021 	move	zero,zero
bfc01634:	1000fff6 	b	bfc01610 <main+0x1610>
bfc01638:	00000000 	nop
bfc0163c:	1000000a 	b	bfc01668 <main+0x1668>
bfc01640:	00000000 	nop
bfc01644:	00000021 	move	zero,zero
bfc01648:	00000021 	move	zero,zero
bfc0164c:	00000021 	move	zero,zero
bfc01650:	00000021 	move	zero,zero
bfc01654:	00000021 	move	zero,zero
bfc01658:	00000021 	move	zero,zero
bfc0165c:	00000021 	move	zero,zero
bfc01660:	3c128897 	lui	s2,0x8897
bfc01664:	36529c10 	ori	s2,s2,0x9c10
bfc01668:	00000000 	nop
bfc0166c:	3c14de73 	lui	s4,0xde73
bfc01670:	36949ecc 	ori	s4,s4,0x9ecc
bfc01674:	161418db 	bne	s0,s4,bfc079e4 <inst_error>
bfc01678:	00000000 	nop
bfc0167c:	3c158897 	lui	s5,0x8897
bfc01680:	36b59c10 	ori	s5,s5,0x9c10
bfc01684:	165518d7 	bne	s2,s5,bfc079e4 <inst_error>
bfc01688:	00000000 	nop
bfc0168c:	3c0ce8ab 	lui	t4,0xe8ab
bfc01690:	358c0f02 	ori	t4,t4,0xf02
bfc01694:	3c0d64c2 	lui	t5,0x64c2
bfc01698:	35ad9520 	ori	t5,t5,0x9520
bfc0169c:	24100000 	li	s0,0
bfc016a0:	24120000 	li	s2,0
bfc016a4:	1000000a 	b	bfc016d0 <main+0x16d0>
bfc016a8:	00000000 	nop
bfc016ac:	3c10e8ab 	lui	s0,0xe8ab
bfc016b0:	36100f02 	ori	s0,s0,0xf02
bfc016b4:	10000011 	b	bfc016fc <main+0x16fc>
bfc016b8:	00000000 	nop
bfc016bc:	10000011 	b	bfc01704 <main+0x1704>
bfc016c0:	00000000 	nop
bfc016c4:	00000021 	move	zero,zero
bfc016c8:	00000021 	move	zero,zero
bfc016cc:	00000021 	move	zero,zero
bfc016d0:	1000fff6 	b	bfc016ac <main+0x16ac>
bfc016d4:	00000000 	nop
bfc016d8:	1000000a 	b	bfc01704 <main+0x1704>
bfc016dc:	00000000 	nop
bfc016e0:	00000021 	move	zero,zero
bfc016e4:	00000021 	move	zero,zero
bfc016e8:	00000021 	move	zero,zero
bfc016ec:	00000021 	move	zero,zero
bfc016f0:	00000021 	move	zero,zero
bfc016f4:	00000021 	move	zero,zero
bfc016f8:	00000021 	move	zero,zero
bfc016fc:	3c1264c2 	lui	s2,0x64c2
bfc01700:	36529520 	ori	s2,s2,0x9520
bfc01704:	00000000 	nop
bfc01708:	3c14e8ab 	lui	s4,0xe8ab
bfc0170c:	36940f02 	ori	s4,s4,0xf02
bfc01710:	161418b4 	bne	s0,s4,bfc079e4 <inst_error>
bfc01714:	00000000 	nop
bfc01718:	3c1564c2 	lui	s5,0x64c2
bfc0171c:	36b59520 	ori	s5,s5,0x9520
bfc01720:	165518b0 	bne	s2,s5,bfc079e4 <inst_error>
bfc01724:	00000000 	nop
bfc01728:	3c0c8582 	lui	t4,0x8582
bfc0172c:	358cdd82 	ori	t4,t4,0xdd82
bfc01730:	3c0d0689 	lui	t5,0x689
bfc01734:	35ad4cac 	ori	t5,t5,0x4cac
bfc01738:	24100000 	li	s0,0
bfc0173c:	24120000 	li	s2,0
bfc01740:	1000000a 	b	bfc0176c <main+0x176c>
bfc01744:	00000000 	nop
bfc01748:	3c108582 	lui	s0,0x8582
bfc0174c:	3610dd82 	ori	s0,s0,0xdd82
bfc01750:	10000011 	b	bfc01798 <main+0x1798>
bfc01754:	00000000 	nop
bfc01758:	10000011 	b	bfc017a0 <main+0x17a0>
bfc0175c:	00000000 	nop
bfc01760:	00000021 	move	zero,zero
bfc01764:	00000021 	move	zero,zero
bfc01768:	00000021 	move	zero,zero
bfc0176c:	1000fff6 	b	bfc01748 <main+0x1748>
bfc01770:	00000000 	nop
bfc01774:	1000000a 	b	bfc017a0 <main+0x17a0>
bfc01778:	00000000 	nop
bfc0177c:	00000021 	move	zero,zero
bfc01780:	00000021 	move	zero,zero
bfc01784:	00000021 	move	zero,zero
bfc01788:	00000021 	move	zero,zero
bfc0178c:	00000021 	move	zero,zero
bfc01790:	00000021 	move	zero,zero
bfc01794:	00000021 	move	zero,zero
bfc01798:	3c120689 	lui	s2,0x689
bfc0179c:	36524cac 	ori	s2,s2,0x4cac
bfc017a0:	00000000 	nop
bfc017a4:	3c148582 	lui	s4,0x8582
bfc017a8:	3694dd82 	ori	s4,s4,0xdd82
bfc017ac:	1614188d 	bne	s0,s4,bfc079e4 <inst_error>
bfc017b0:	00000000 	nop
bfc017b4:	3c150689 	lui	s5,0x689
bfc017b8:	36b54cac 	ori	s5,s5,0x4cac
bfc017bc:	16551889 	bne	s2,s5,bfc079e4 <inst_error>
bfc017c0:	00000000 	nop
bfc017c4:	3c0c6668 	lui	t4,0x6668
bfc017c8:	358cfc80 	ori	t4,t4,0xfc80
bfc017cc:	3c0d7d6c 	lui	t5,0x7d6c
bfc017d0:	35ad0398 	ori	t5,t5,0x398
bfc017d4:	24100000 	li	s0,0
bfc017d8:	24120000 	li	s2,0
bfc017dc:	1000000a 	b	bfc01808 <main+0x1808>
bfc017e0:	00000000 	nop
bfc017e4:	3c106668 	lui	s0,0x6668
bfc017e8:	3610fc80 	ori	s0,s0,0xfc80
bfc017ec:	10000011 	b	bfc01834 <main+0x1834>
bfc017f0:	00000000 	nop
bfc017f4:	10000011 	b	bfc0183c <main+0x183c>
bfc017f8:	00000000 	nop
bfc017fc:	00000021 	move	zero,zero
bfc01800:	00000021 	move	zero,zero
bfc01804:	00000021 	move	zero,zero
bfc01808:	1000fff6 	b	bfc017e4 <main+0x17e4>
bfc0180c:	00000000 	nop
bfc01810:	1000000a 	b	bfc0183c <main+0x183c>
bfc01814:	00000000 	nop
bfc01818:	00000021 	move	zero,zero
bfc0181c:	00000021 	move	zero,zero
bfc01820:	00000021 	move	zero,zero
bfc01824:	00000021 	move	zero,zero
bfc01828:	00000021 	move	zero,zero
bfc0182c:	00000021 	move	zero,zero
bfc01830:	00000021 	move	zero,zero
bfc01834:	3c127d6c 	lui	s2,0x7d6c
bfc01838:	36520398 	ori	s2,s2,0x398
bfc0183c:	00000000 	nop
bfc01840:	3c146668 	lui	s4,0x6668
bfc01844:	3694fc80 	ori	s4,s4,0xfc80
bfc01848:	16141866 	bne	s0,s4,bfc079e4 <inst_error>
bfc0184c:	00000000 	nop
bfc01850:	3c157d6c 	lui	s5,0x7d6c
bfc01854:	36b50398 	ori	s5,s5,0x398
bfc01858:	16551862 	bne	s2,s5,bfc079e4 <inst_error>
bfc0185c:	00000000 	nop
bfc01860:	3c0c951a 	lui	t4,0x951a
bfc01864:	358c9480 	ori	t4,t4,0x9480
bfc01868:	3c0ddd53 	lui	t5,0xdd53
bfc0186c:	35addd00 	ori	t5,t5,0xdd00
bfc01870:	24100000 	li	s0,0
bfc01874:	24120000 	li	s2,0
bfc01878:	1000000a 	b	bfc018a4 <main+0x18a4>
bfc0187c:	00000000 	nop
bfc01880:	3c10951a 	lui	s0,0x951a
bfc01884:	36109480 	ori	s0,s0,0x9480
bfc01888:	10000011 	b	bfc018d0 <main+0x18d0>
bfc0188c:	00000000 	nop
bfc01890:	10000011 	b	bfc018d8 <main+0x18d8>
bfc01894:	00000000 	nop
bfc01898:	00000021 	move	zero,zero
bfc0189c:	00000021 	move	zero,zero
bfc018a0:	00000021 	move	zero,zero
bfc018a4:	1000fff6 	b	bfc01880 <main+0x1880>
bfc018a8:	00000000 	nop
bfc018ac:	1000000a 	b	bfc018d8 <main+0x18d8>
bfc018b0:	00000000 	nop
bfc018b4:	00000021 	move	zero,zero
bfc018b8:	00000021 	move	zero,zero
bfc018bc:	00000021 	move	zero,zero
bfc018c0:	00000021 	move	zero,zero
bfc018c4:	00000021 	move	zero,zero
bfc018c8:	00000021 	move	zero,zero
bfc018cc:	00000021 	move	zero,zero
bfc018d0:	3c12dd53 	lui	s2,0xdd53
bfc018d4:	3652dd00 	ori	s2,s2,0xdd00
bfc018d8:	00000000 	nop
bfc018dc:	3c14951a 	lui	s4,0x951a
bfc018e0:	36949480 	ori	s4,s4,0x9480
bfc018e4:	1614183f 	bne	s0,s4,bfc079e4 <inst_error>
bfc018e8:	00000000 	nop
bfc018ec:	3c15dd53 	lui	s5,0xdd53
bfc018f0:	36b5dd00 	ori	s5,s5,0xdd00
bfc018f4:	1655183b 	bne	s2,s5,bfc079e4 <inst_error>
bfc018f8:	00000000 	nop
bfc018fc:	3c0ca3c4 	lui	t4,0xa3c4
bfc01900:	358c0440 	ori	t4,t4,0x440
bfc01904:	3c0df23a 	lui	t5,0xf23a
bfc01908:	35ad9e74 	ori	t5,t5,0x9e74
bfc0190c:	24100000 	li	s0,0
bfc01910:	24120000 	li	s2,0
bfc01914:	1000000a 	b	bfc01940 <main+0x1940>
bfc01918:	00000000 	nop
bfc0191c:	3c10a3c4 	lui	s0,0xa3c4
bfc01920:	36100440 	ori	s0,s0,0x440
bfc01924:	10000011 	b	bfc0196c <main+0x196c>
bfc01928:	00000000 	nop
bfc0192c:	10000011 	b	bfc01974 <main+0x1974>
bfc01930:	00000000 	nop
bfc01934:	00000021 	move	zero,zero
bfc01938:	00000021 	move	zero,zero
bfc0193c:	00000021 	move	zero,zero
bfc01940:	1000fff6 	b	bfc0191c <main+0x191c>
bfc01944:	00000000 	nop
bfc01948:	1000000a 	b	bfc01974 <main+0x1974>
bfc0194c:	00000000 	nop
bfc01950:	00000021 	move	zero,zero
bfc01954:	00000021 	move	zero,zero
bfc01958:	00000021 	move	zero,zero
bfc0195c:	00000021 	move	zero,zero
bfc01960:	00000021 	move	zero,zero
bfc01964:	00000021 	move	zero,zero
bfc01968:	00000021 	move	zero,zero
bfc0196c:	3c12f23a 	lui	s2,0xf23a
bfc01970:	36529e74 	ori	s2,s2,0x9e74
bfc01974:	00000000 	nop
bfc01978:	3c14a3c4 	lui	s4,0xa3c4
bfc0197c:	36940440 	ori	s4,s4,0x440
bfc01980:	16141818 	bne	s0,s4,bfc079e4 <inst_error>
bfc01984:	00000000 	nop
bfc01988:	3c15f23a 	lui	s5,0xf23a
bfc0198c:	36b59e74 	ori	s5,s5,0x9e74
bfc01990:	16551814 	bne	s2,s5,bfc079e4 <inst_error>
bfc01994:	00000000 	nop
bfc01998:	3c0ce910 	lui	t4,0xe910
bfc0199c:	358cdc52 	ori	t4,t4,0xdc52
bfc019a0:	3c0dd2b3 	lui	t5,0xd2b3
bfc019a4:	35ad76b4 	ori	t5,t5,0x76b4
bfc019a8:	24100000 	li	s0,0
bfc019ac:	24120000 	li	s2,0
bfc019b0:	1000000a 	b	bfc019dc <main+0x19dc>
bfc019b4:	00000000 	nop
bfc019b8:	3c10e910 	lui	s0,0xe910
bfc019bc:	3610dc52 	ori	s0,s0,0xdc52
bfc019c0:	10000011 	b	bfc01a08 <main+0x1a08>
bfc019c4:	00000000 	nop
bfc019c8:	10000011 	b	bfc01a10 <main+0x1a10>
bfc019cc:	00000000 	nop
bfc019d0:	00000021 	move	zero,zero
bfc019d4:	00000021 	move	zero,zero
bfc019d8:	00000021 	move	zero,zero
bfc019dc:	1000fff6 	b	bfc019b8 <main+0x19b8>
bfc019e0:	00000000 	nop
bfc019e4:	1000000a 	b	bfc01a10 <main+0x1a10>
bfc019e8:	00000000 	nop
bfc019ec:	00000021 	move	zero,zero
bfc019f0:	00000021 	move	zero,zero
bfc019f4:	00000021 	move	zero,zero
bfc019f8:	00000021 	move	zero,zero
bfc019fc:	00000021 	move	zero,zero
bfc01a00:	00000021 	move	zero,zero
bfc01a04:	00000021 	move	zero,zero
bfc01a08:	3c12d2b3 	lui	s2,0xd2b3
bfc01a0c:	365276b4 	ori	s2,s2,0x76b4
bfc01a10:	00000000 	nop
bfc01a14:	3c14e910 	lui	s4,0xe910
bfc01a18:	3694dc52 	ori	s4,s4,0xdc52
bfc01a1c:	161417f1 	bne	s0,s4,bfc079e4 <inst_error>
bfc01a20:	00000000 	nop
bfc01a24:	3c15d2b3 	lui	s5,0xd2b3
bfc01a28:	36b576b4 	ori	s5,s5,0x76b4
bfc01a2c:	165517ed 	bne	s2,s5,bfc079e4 <inst_error>
bfc01a30:	00000000 	nop
bfc01a34:	3c0c52f0 	lui	t4,0x52f0
bfc01a38:	358c5f80 	ori	t4,t4,0x5f80
bfc01a3c:	3c0d8353 	lui	t5,0x8353
bfc01a40:	35ad4b60 	ori	t5,t5,0x4b60
bfc01a44:	24100000 	li	s0,0
bfc01a48:	24120000 	li	s2,0
bfc01a4c:	1000000a 	b	bfc01a78 <main+0x1a78>
bfc01a50:	00000000 	nop
bfc01a54:	3c1052f0 	lui	s0,0x52f0
bfc01a58:	36105f80 	ori	s0,s0,0x5f80
bfc01a5c:	10000011 	b	bfc01aa4 <main+0x1aa4>
bfc01a60:	00000000 	nop
bfc01a64:	10000011 	b	bfc01aac <main+0x1aac>
bfc01a68:	00000000 	nop
bfc01a6c:	00000021 	move	zero,zero
bfc01a70:	00000021 	move	zero,zero
bfc01a74:	00000021 	move	zero,zero
bfc01a78:	1000fff6 	b	bfc01a54 <main+0x1a54>
bfc01a7c:	00000000 	nop
bfc01a80:	1000000a 	b	bfc01aac <main+0x1aac>
bfc01a84:	00000000 	nop
bfc01a88:	00000021 	move	zero,zero
bfc01a8c:	00000021 	move	zero,zero
bfc01a90:	00000021 	move	zero,zero
bfc01a94:	00000021 	move	zero,zero
bfc01a98:	00000021 	move	zero,zero
bfc01a9c:	00000021 	move	zero,zero
bfc01aa0:	00000021 	move	zero,zero
bfc01aa4:	3c128353 	lui	s2,0x8353
bfc01aa8:	36524b60 	ori	s2,s2,0x4b60
bfc01aac:	00000000 	nop
bfc01ab0:	3c1452f0 	lui	s4,0x52f0
bfc01ab4:	36945f80 	ori	s4,s4,0x5f80
bfc01ab8:	161417ca 	bne	s0,s4,bfc079e4 <inst_error>
bfc01abc:	00000000 	nop
bfc01ac0:	3c158353 	lui	s5,0x8353
bfc01ac4:	36b54b60 	ori	s5,s5,0x4b60
bfc01ac8:	165517c6 	bne	s2,s5,bfc079e4 <inst_error>
bfc01acc:	00000000 	nop
bfc01ad0:	3c0c5c05 	lui	t4,0x5c05
bfc01ad4:	358c0f7d 	ori	t4,t4,0xf7d
bfc01ad8:	3c0d3ae1 	lui	t5,0x3ae1
bfc01adc:	35adcd78 	ori	t5,t5,0xcd78
bfc01ae0:	24100000 	li	s0,0
bfc01ae4:	24120000 	li	s2,0
bfc01ae8:	1000000a 	b	bfc01b14 <main+0x1b14>
bfc01aec:	00000000 	nop
bfc01af0:	3c105c05 	lui	s0,0x5c05
bfc01af4:	36100f7d 	ori	s0,s0,0xf7d
bfc01af8:	10000011 	b	bfc01b40 <main+0x1b40>
bfc01afc:	00000000 	nop
bfc01b00:	10000011 	b	bfc01b48 <main+0x1b48>
bfc01b04:	00000000 	nop
bfc01b08:	00000021 	move	zero,zero
bfc01b0c:	00000021 	move	zero,zero
bfc01b10:	00000021 	move	zero,zero
bfc01b14:	1000fff6 	b	bfc01af0 <main+0x1af0>
bfc01b18:	00000000 	nop
bfc01b1c:	1000000a 	b	bfc01b48 <main+0x1b48>
bfc01b20:	00000000 	nop
bfc01b24:	00000021 	move	zero,zero
bfc01b28:	00000021 	move	zero,zero
bfc01b2c:	00000021 	move	zero,zero
bfc01b30:	00000021 	move	zero,zero
bfc01b34:	00000021 	move	zero,zero
bfc01b38:	00000021 	move	zero,zero
bfc01b3c:	00000021 	move	zero,zero
bfc01b40:	3c123ae1 	lui	s2,0x3ae1
bfc01b44:	3652cd78 	ori	s2,s2,0xcd78
bfc01b48:	00000000 	nop
bfc01b4c:	3c145c05 	lui	s4,0x5c05
bfc01b50:	36940f7d 	ori	s4,s4,0xf7d
bfc01b54:	161417a3 	bne	s0,s4,bfc079e4 <inst_error>
bfc01b58:	00000000 	nop
bfc01b5c:	3c153ae1 	lui	s5,0x3ae1
bfc01b60:	36b5cd78 	ori	s5,s5,0xcd78
bfc01b64:	1655179f 	bne	s2,s5,bfc079e4 <inst_error>
bfc01b68:	00000000 	nop
bfc01b6c:	3c0c8019 	lui	t4,0x8019
bfc01b70:	358c2f96 	ori	t4,t4,0x2f96
bfc01b74:	3c0d20e3 	lui	t5,0x20e3
bfc01b78:	35ade4f6 	ori	t5,t5,0xe4f6
bfc01b7c:	24100000 	li	s0,0
bfc01b80:	24120000 	li	s2,0
bfc01b84:	1000000a 	b	bfc01bb0 <main+0x1bb0>
bfc01b88:	00000000 	nop
bfc01b8c:	3c108019 	lui	s0,0x8019
bfc01b90:	36102f96 	ori	s0,s0,0x2f96
bfc01b94:	10000011 	b	bfc01bdc <main+0x1bdc>
bfc01b98:	00000000 	nop
bfc01b9c:	10000011 	b	bfc01be4 <main+0x1be4>
bfc01ba0:	00000000 	nop
bfc01ba4:	00000021 	move	zero,zero
bfc01ba8:	00000021 	move	zero,zero
bfc01bac:	00000021 	move	zero,zero
bfc01bb0:	1000fff6 	b	bfc01b8c <main+0x1b8c>
bfc01bb4:	00000000 	nop
bfc01bb8:	1000000a 	b	bfc01be4 <main+0x1be4>
bfc01bbc:	00000000 	nop
bfc01bc0:	00000021 	move	zero,zero
bfc01bc4:	00000021 	move	zero,zero
bfc01bc8:	00000021 	move	zero,zero
bfc01bcc:	00000021 	move	zero,zero
bfc01bd0:	00000021 	move	zero,zero
bfc01bd4:	00000021 	move	zero,zero
bfc01bd8:	00000021 	move	zero,zero
bfc01bdc:	3c1220e3 	lui	s2,0x20e3
bfc01be0:	3652e4f6 	ori	s2,s2,0xe4f6
bfc01be4:	00000000 	nop
bfc01be8:	3c148019 	lui	s4,0x8019
bfc01bec:	36942f96 	ori	s4,s4,0x2f96
bfc01bf0:	1614177c 	bne	s0,s4,bfc079e4 <inst_error>
bfc01bf4:	00000000 	nop
bfc01bf8:	3c1520e3 	lui	s5,0x20e3
bfc01bfc:	36b5e4f6 	ori	s5,s5,0xe4f6
bfc01c00:	16551778 	bne	s2,s5,bfc079e4 <inst_error>
bfc01c04:	00000000 	nop
bfc01c08:	3c0c8fea 	lui	t4,0x8fea
bfc01c0c:	358c7030 	ori	t4,t4,0x7030
bfc01c10:	3c0d9e18 	lui	t5,0x9e18
bfc01c14:	35ad9fe8 	ori	t5,t5,0x9fe8
bfc01c18:	24100000 	li	s0,0
bfc01c1c:	24120000 	li	s2,0
bfc01c20:	1000000a 	b	bfc01c4c <main+0x1c4c>
bfc01c24:	00000000 	nop
bfc01c28:	3c108fea 	lui	s0,0x8fea
bfc01c2c:	36107030 	ori	s0,s0,0x7030
bfc01c30:	10000011 	b	bfc01c78 <main+0x1c78>
bfc01c34:	00000000 	nop
bfc01c38:	10000011 	b	bfc01c80 <main+0x1c80>
bfc01c3c:	00000000 	nop
bfc01c40:	00000021 	move	zero,zero
bfc01c44:	00000021 	move	zero,zero
bfc01c48:	00000021 	move	zero,zero
bfc01c4c:	1000fff6 	b	bfc01c28 <main+0x1c28>
bfc01c50:	00000000 	nop
bfc01c54:	1000000a 	b	bfc01c80 <main+0x1c80>
bfc01c58:	00000000 	nop
bfc01c5c:	00000021 	move	zero,zero
bfc01c60:	00000021 	move	zero,zero
bfc01c64:	00000021 	move	zero,zero
bfc01c68:	00000021 	move	zero,zero
bfc01c6c:	00000021 	move	zero,zero
bfc01c70:	00000021 	move	zero,zero
bfc01c74:	00000021 	move	zero,zero
bfc01c78:	3c129e18 	lui	s2,0x9e18
bfc01c7c:	36529fe8 	ori	s2,s2,0x9fe8
bfc01c80:	00000000 	nop
bfc01c84:	3c148fea 	lui	s4,0x8fea
bfc01c88:	36947030 	ori	s4,s4,0x7030
bfc01c8c:	16141755 	bne	s0,s4,bfc079e4 <inst_error>
bfc01c90:	00000000 	nop
bfc01c94:	3c159e18 	lui	s5,0x9e18
bfc01c98:	36b59fe8 	ori	s5,s5,0x9fe8
bfc01c9c:	16551751 	bne	s2,s5,bfc079e4 <inst_error>
bfc01ca0:	00000000 	nop
bfc01ca4:	3c0cd2c9 	lui	t4,0xd2c9
bfc01ca8:	358ccbca 	ori	t4,t4,0xcbca
bfc01cac:	3c0d306b 	lui	t5,0x306b
bfc01cb0:	35ad3d88 	ori	t5,t5,0x3d88
bfc01cb4:	24100000 	li	s0,0
bfc01cb8:	24120000 	li	s2,0
bfc01cbc:	1000000a 	b	bfc01ce8 <main+0x1ce8>
bfc01cc0:	00000000 	nop
bfc01cc4:	3c10d2c9 	lui	s0,0xd2c9
bfc01cc8:	3610cbca 	ori	s0,s0,0xcbca
bfc01ccc:	10000011 	b	bfc01d14 <main+0x1d14>
bfc01cd0:	00000000 	nop
bfc01cd4:	10000011 	b	bfc01d1c <main+0x1d1c>
bfc01cd8:	00000000 	nop
bfc01cdc:	00000021 	move	zero,zero
bfc01ce0:	00000021 	move	zero,zero
bfc01ce4:	00000021 	move	zero,zero
bfc01ce8:	1000fff6 	b	bfc01cc4 <main+0x1cc4>
bfc01cec:	00000000 	nop
bfc01cf0:	1000000a 	b	bfc01d1c <main+0x1d1c>
bfc01cf4:	00000000 	nop
bfc01cf8:	00000021 	move	zero,zero
bfc01cfc:	00000021 	move	zero,zero
bfc01d00:	00000021 	move	zero,zero
bfc01d04:	00000021 	move	zero,zero
bfc01d08:	00000021 	move	zero,zero
bfc01d0c:	00000021 	move	zero,zero
bfc01d10:	00000021 	move	zero,zero
bfc01d14:	3c12306b 	lui	s2,0x306b
bfc01d18:	36523d88 	ori	s2,s2,0x3d88
bfc01d1c:	00000000 	nop
bfc01d20:	3c14d2c9 	lui	s4,0xd2c9
bfc01d24:	3694cbca 	ori	s4,s4,0xcbca
bfc01d28:	1614172e 	bne	s0,s4,bfc079e4 <inst_error>
bfc01d2c:	00000000 	nop
bfc01d30:	3c15306b 	lui	s5,0x306b
bfc01d34:	36b53d88 	ori	s5,s5,0x3d88
bfc01d38:	1655172a 	bne	s2,s5,bfc079e4 <inst_error>
bfc01d3c:	00000000 	nop
bfc01d40:	3c0cce72 	lui	t4,0xce72
bfc01d44:	358c8a7e 	ori	t4,t4,0x8a7e
bfc01d48:	3c0d72d0 	lui	t5,0x72d0
bfc01d4c:	35ad6b00 	ori	t5,t5,0x6b00
bfc01d50:	24100000 	li	s0,0
bfc01d54:	24120000 	li	s2,0
bfc01d58:	1000000a 	b	bfc01d84 <main+0x1d84>
bfc01d5c:	00000000 	nop
bfc01d60:	3c10ce72 	lui	s0,0xce72
bfc01d64:	36108a7e 	ori	s0,s0,0x8a7e
bfc01d68:	10000011 	b	bfc01db0 <main+0x1db0>
bfc01d6c:	00000000 	nop
bfc01d70:	10000011 	b	bfc01db8 <main+0x1db8>
bfc01d74:	00000000 	nop
bfc01d78:	00000021 	move	zero,zero
bfc01d7c:	00000021 	move	zero,zero
bfc01d80:	00000021 	move	zero,zero
bfc01d84:	1000fff6 	b	bfc01d60 <main+0x1d60>
bfc01d88:	00000000 	nop
bfc01d8c:	1000000a 	b	bfc01db8 <main+0x1db8>
bfc01d90:	00000000 	nop
bfc01d94:	00000021 	move	zero,zero
bfc01d98:	00000021 	move	zero,zero
bfc01d9c:	00000021 	move	zero,zero
bfc01da0:	00000021 	move	zero,zero
bfc01da4:	00000021 	move	zero,zero
bfc01da8:	00000021 	move	zero,zero
bfc01dac:	00000021 	move	zero,zero
bfc01db0:	3c1272d0 	lui	s2,0x72d0
bfc01db4:	36526b00 	ori	s2,s2,0x6b00
bfc01db8:	00000000 	nop
bfc01dbc:	3c14ce72 	lui	s4,0xce72
bfc01dc0:	36948a7e 	ori	s4,s4,0x8a7e
bfc01dc4:	16141707 	bne	s0,s4,bfc079e4 <inst_error>
bfc01dc8:	00000000 	nop
bfc01dcc:	3c1572d0 	lui	s5,0x72d0
bfc01dd0:	36b56b00 	ori	s5,s5,0x6b00
bfc01dd4:	16551703 	bne	s2,s5,bfc079e4 <inst_error>
bfc01dd8:	00000000 	nop
bfc01ddc:	3c0cf2e2 	lui	t4,0xf2e2
bfc01de0:	358c96f8 	ori	t4,t4,0x96f8
bfc01de4:	3c0d7c43 	lui	t5,0x7c43
bfc01de8:	35ad02fe 	ori	t5,t5,0x2fe
bfc01dec:	24100000 	li	s0,0
bfc01df0:	24120000 	li	s2,0
bfc01df4:	1000000a 	b	bfc01e20 <main+0x1e20>
bfc01df8:	00000000 	nop
bfc01dfc:	3c10f2e2 	lui	s0,0xf2e2
bfc01e00:	361096f8 	ori	s0,s0,0x96f8
bfc01e04:	10000011 	b	bfc01e4c <main+0x1e4c>
bfc01e08:	00000000 	nop
bfc01e0c:	10000011 	b	bfc01e54 <main+0x1e54>
bfc01e10:	00000000 	nop
bfc01e14:	00000021 	move	zero,zero
bfc01e18:	00000021 	move	zero,zero
bfc01e1c:	00000021 	move	zero,zero
bfc01e20:	1000fff6 	b	bfc01dfc <main+0x1dfc>
bfc01e24:	00000000 	nop
bfc01e28:	1000000a 	b	bfc01e54 <main+0x1e54>
bfc01e2c:	00000000 	nop
bfc01e30:	00000021 	move	zero,zero
bfc01e34:	00000021 	move	zero,zero
bfc01e38:	00000021 	move	zero,zero
bfc01e3c:	00000021 	move	zero,zero
bfc01e40:	00000021 	move	zero,zero
bfc01e44:	00000021 	move	zero,zero
bfc01e48:	00000021 	move	zero,zero
bfc01e4c:	3c127c43 	lui	s2,0x7c43
bfc01e50:	365202fe 	ori	s2,s2,0x2fe
bfc01e54:	00000000 	nop
bfc01e58:	3c14f2e2 	lui	s4,0xf2e2
bfc01e5c:	369496f8 	ori	s4,s4,0x96f8
bfc01e60:	161416e0 	bne	s0,s4,bfc079e4 <inst_error>
bfc01e64:	00000000 	nop
bfc01e68:	3c157c43 	lui	s5,0x7c43
bfc01e6c:	36b502fe 	ori	s5,s5,0x2fe
bfc01e70:	165516dc 	bne	s2,s5,bfc079e4 <inst_error>
bfc01e74:	00000000 	nop
bfc01e78:	3c0c66ea 	lui	t4,0x66ea
bfc01e7c:	358c2c7e 	ori	t4,t4,0x2c7e
bfc01e80:	3c0d8c9b 	lui	t5,0x8c9b
bfc01e84:	35ad3154 	ori	t5,t5,0x3154
bfc01e88:	24100000 	li	s0,0
bfc01e8c:	24120000 	li	s2,0
bfc01e90:	1000000a 	b	bfc01ebc <main+0x1ebc>
bfc01e94:	00000000 	nop
bfc01e98:	3c1066ea 	lui	s0,0x66ea
bfc01e9c:	36102c7e 	ori	s0,s0,0x2c7e
bfc01ea0:	10000011 	b	bfc01ee8 <main+0x1ee8>
bfc01ea4:	00000000 	nop
bfc01ea8:	10000011 	b	bfc01ef0 <main+0x1ef0>
bfc01eac:	00000000 	nop
bfc01eb0:	00000021 	move	zero,zero
bfc01eb4:	00000021 	move	zero,zero
bfc01eb8:	00000021 	move	zero,zero
bfc01ebc:	1000fff6 	b	bfc01e98 <main+0x1e98>
bfc01ec0:	00000000 	nop
bfc01ec4:	1000000a 	b	bfc01ef0 <main+0x1ef0>
bfc01ec8:	00000000 	nop
bfc01ecc:	00000021 	move	zero,zero
bfc01ed0:	00000021 	move	zero,zero
bfc01ed4:	00000021 	move	zero,zero
bfc01ed8:	00000021 	move	zero,zero
bfc01edc:	00000021 	move	zero,zero
bfc01ee0:	00000021 	move	zero,zero
bfc01ee4:	00000021 	move	zero,zero
bfc01ee8:	3c128c9b 	lui	s2,0x8c9b
bfc01eec:	36523154 	ori	s2,s2,0x3154
bfc01ef0:	00000000 	nop
bfc01ef4:	3c1466ea 	lui	s4,0x66ea
bfc01ef8:	36942c7e 	ori	s4,s4,0x2c7e
bfc01efc:	161416b9 	bne	s0,s4,bfc079e4 <inst_error>
bfc01f00:	00000000 	nop
bfc01f04:	3c158c9b 	lui	s5,0x8c9b
bfc01f08:	36b53154 	ori	s5,s5,0x3154
bfc01f0c:	165516b5 	bne	s2,s5,bfc079e4 <inst_error>
bfc01f10:	00000000 	nop
bfc01f14:	3c0c1bd3 	lui	t4,0x1bd3
bfc01f18:	358c568e 	ori	t4,t4,0x568e
bfc01f1c:	3c0dd3db 	lui	t5,0xd3db
bfc01f20:	35adcdde 	ori	t5,t5,0xcdde
bfc01f24:	24100000 	li	s0,0
bfc01f28:	24120000 	li	s2,0
bfc01f2c:	1000000a 	b	bfc01f58 <main+0x1f58>
bfc01f30:	00000000 	nop
bfc01f34:	3c101bd3 	lui	s0,0x1bd3
bfc01f38:	3610568e 	ori	s0,s0,0x568e
bfc01f3c:	10000011 	b	bfc01f84 <main+0x1f84>
bfc01f40:	00000000 	nop
bfc01f44:	10000011 	b	bfc01f8c <main+0x1f8c>
bfc01f48:	00000000 	nop
bfc01f4c:	00000021 	move	zero,zero
bfc01f50:	00000021 	move	zero,zero
bfc01f54:	00000021 	move	zero,zero
bfc01f58:	1000fff6 	b	bfc01f34 <main+0x1f34>
bfc01f5c:	00000000 	nop
bfc01f60:	1000000a 	b	bfc01f8c <main+0x1f8c>
bfc01f64:	00000000 	nop
bfc01f68:	00000021 	move	zero,zero
bfc01f6c:	00000021 	move	zero,zero
bfc01f70:	00000021 	move	zero,zero
bfc01f74:	00000021 	move	zero,zero
bfc01f78:	00000021 	move	zero,zero
bfc01f7c:	00000021 	move	zero,zero
bfc01f80:	00000021 	move	zero,zero
bfc01f84:	3c12d3db 	lui	s2,0xd3db
bfc01f88:	3652cdde 	ori	s2,s2,0xcdde
bfc01f8c:	00000000 	nop
bfc01f90:	3c141bd3 	lui	s4,0x1bd3
bfc01f94:	3694568e 	ori	s4,s4,0x568e
bfc01f98:	16141692 	bne	s0,s4,bfc079e4 <inst_error>
bfc01f9c:	00000000 	nop
bfc01fa0:	3c15d3db 	lui	s5,0xd3db
bfc01fa4:	36b5cdde 	ori	s5,s5,0xcdde
bfc01fa8:	1655168e 	bne	s2,s5,bfc079e4 <inst_error>
bfc01fac:	00000000 	nop
bfc01fb0:	3c0c46b4 	lui	t4,0x46b4
bfc01fb4:	358c59b8 	ori	t4,t4,0x59b8
bfc01fb8:	3c0d5287 	lui	t5,0x5287
bfc01fbc:	35adf663 	ori	t5,t5,0xf663
bfc01fc0:	24100000 	li	s0,0
bfc01fc4:	24120000 	li	s2,0
bfc01fc8:	1000000a 	b	bfc01ff4 <main+0x1ff4>
bfc01fcc:	00000000 	nop
bfc01fd0:	3c1046b4 	lui	s0,0x46b4
bfc01fd4:	361059b8 	ori	s0,s0,0x59b8
bfc01fd8:	10000011 	b	bfc02020 <main+0x2020>
bfc01fdc:	00000000 	nop
bfc01fe0:	10000011 	b	bfc02028 <main+0x2028>
bfc01fe4:	00000000 	nop
bfc01fe8:	00000021 	move	zero,zero
bfc01fec:	00000021 	move	zero,zero
bfc01ff0:	00000021 	move	zero,zero
bfc01ff4:	1000fff6 	b	bfc01fd0 <main+0x1fd0>
bfc01ff8:	00000000 	nop
bfc01ffc:	1000000a 	b	bfc02028 <main+0x2028>
bfc02000:	00000000 	nop
bfc02004:	00000021 	move	zero,zero
bfc02008:	00000021 	move	zero,zero
bfc0200c:	00000021 	move	zero,zero
bfc02010:	00000021 	move	zero,zero
bfc02014:	00000021 	move	zero,zero
bfc02018:	00000021 	move	zero,zero
bfc0201c:	00000021 	move	zero,zero
bfc02020:	3c125287 	lui	s2,0x5287
bfc02024:	3652f663 	ori	s2,s2,0xf663
bfc02028:	00000000 	nop
bfc0202c:	3c1446b4 	lui	s4,0x46b4
bfc02030:	369459b8 	ori	s4,s4,0x59b8
bfc02034:	1614166b 	bne	s0,s4,bfc079e4 <inst_error>
bfc02038:	00000000 	nop
bfc0203c:	3c155287 	lui	s5,0x5287
bfc02040:	36b5f663 	ori	s5,s5,0xf663
bfc02044:	16551667 	bne	s2,s5,bfc079e4 <inst_error>
bfc02048:	00000000 	nop
bfc0204c:	3c0ccc80 	lui	t4,0xcc80
bfc02050:	358c085c 	ori	t4,t4,0x85c
bfc02054:	3c0dae41 	lui	t5,0xae41
bfc02058:	35adec3a 	ori	t5,t5,0xec3a
bfc0205c:	24100000 	li	s0,0
bfc02060:	24120000 	li	s2,0
bfc02064:	1000000a 	b	bfc02090 <main+0x2090>
bfc02068:	00000000 	nop
bfc0206c:	3c10cc80 	lui	s0,0xcc80
bfc02070:	3610085c 	ori	s0,s0,0x85c
bfc02074:	10000011 	b	bfc020bc <main+0x20bc>
bfc02078:	00000000 	nop
bfc0207c:	10000011 	b	bfc020c4 <main+0x20c4>
bfc02080:	00000000 	nop
bfc02084:	00000021 	move	zero,zero
bfc02088:	00000021 	move	zero,zero
bfc0208c:	00000021 	move	zero,zero
bfc02090:	1000fff6 	b	bfc0206c <main+0x206c>
bfc02094:	00000000 	nop
bfc02098:	1000000a 	b	bfc020c4 <main+0x20c4>
bfc0209c:	00000000 	nop
bfc020a0:	00000021 	move	zero,zero
bfc020a4:	00000021 	move	zero,zero
bfc020a8:	00000021 	move	zero,zero
bfc020ac:	00000021 	move	zero,zero
bfc020b0:	00000021 	move	zero,zero
bfc020b4:	00000021 	move	zero,zero
bfc020b8:	00000021 	move	zero,zero
bfc020bc:	3c12ae41 	lui	s2,0xae41
bfc020c0:	3652ec3a 	ori	s2,s2,0xec3a
bfc020c4:	00000000 	nop
bfc020c8:	3c14cc80 	lui	s4,0xcc80
bfc020cc:	3694085c 	ori	s4,s4,0x85c
bfc020d0:	16141644 	bne	s0,s4,bfc079e4 <inst_error>
bfc020d4:	00000000 	nop
bfc020d8:	3c15ae41 	lui	s5,0xae41
bfc020dc:	36b5ec3a 	ori	s5,s5,0xec3a
bfc020e0:	16551640 	bne	s2,s5,bfc079e4 <inst_error>
bfc020e4:	00000000 	nop
bfc020e8:	3c0c9328 	lui	t4,0x9328
bfc020ec:	358c0140 	ori	t4,t4,0x140
bfc020f0:	3c0de3e9 	lui	t5,0xe3e9
bfc020f4:	35adb590 	ori	t5,t5,0xb590
bfc020f8:	24100000 	li	s0,0
bfc020fc:	24120000 	li	s2,0
bfc02100:	1000000a 	b	bfc0212c <main+0x212c>
bfc02104:	00000000 	nop
bfc02108:	3c109328 	lui	s0,0x9328
bfc0210c:	36100140 	ori	s0,s0,0x140
bfc02110:	10000011 	b	bfc02158 <main+0x2158>
bfc02114:	00000000 	nop
bfc02118:	10000011 	b	bfc02160 <main+0x2160>
bfc0211c:	00000000 	nop
bfc02120:	00000021 	move	zero,zero
bfc02124:	00000021 	move	zero,zero
bfc02128:	00000021 	move	zero,zero
bfc0212c:	1000fff6 	b	bfc02108 <main+0x2108>
bfc02130:	00000000 	nop
bfc02134:	1000000a 	b	bfc02160 <main+0x2160>
bfc02138:	00000000 	nop
bfc0213c:	00000021 	move	zero,zero
bfc02140:	00000021 	move	zero,zero
bfc02144:	00000021 	move	zero,zero
bfc02148:	00000021 	move	zero,zero
bfc0214c:	00000021 	move	zero,zero
bfc02150:	00000021 	move	zero,zero
bfc02154:	00000021 	move	zero,zero
bfc02158:	3c12e3e9 	lui	s2,0xe3e9
bfc0215c:	3652b590 	ori	s2,s2,0xb590
bfc02160:	00000000 	nop
bfc02164:	3c149328 	lui	s4,0x9328
bfc02168:	36940140 	ori	s4,s4,0x140
bfc0216c:	1614161d 	bne	s0,s4,bfc079e4 <inst_error>
bfc02170:	00000000 	nop
bfc02174:	3c15e3e9 	lui	s5,0xe3e9
bfc02178:	36b5b590 	ori	s5,s5,0xb590
bfc0217c:	16551619 	bne	s2,s5,bfc079e4 <inst_error>
bfc02180:	00000000 	nop
bfc02184:	3c0c0840 	lui	t4,0x840
bfc02188:	358c80f8 	ori	t4,t4,0x80f8
bfc0218c:	3c0d8515 	lui	t5,0x8515
bfc02190:	35ad3d9a 	ori	t5,t5,0x3d9a
bfc02194:	24100000 	li	s0,0
bfc02198:	24120000 	li	s2,0
bfc0219c:	1000000a 	b	bfc021c8 <main+0x21c8>
bfc021a0:	00000000 	nop
bfc021a4:	3c100840 	lui	s0,0x840
bfc021a8:	361080f8 	ori	s0,s0,0x80f8
bfc021ac:	10000011 	b	bfc021f4 <main+0x21f4>
bfc021b0:	00000000 	nop
bfc021b4:	10000011 	b	bfc021fc <main+0x21fc>
bfc021b8:	00000000 	nop
bfc021bc:	00000021 	move	zero,zero
bfc021c0:	00000021 	move	zero,zero
bfc021c4:	00000021 	move	zero,zero
bfc021c8:	1000fff6 	b	bfc021a4 <main+0x21a4>
bfc021cc:	00000000 	nop
bfc021d0:	1000000a 	b	bfc021fc <main+0x21fc>
bfc021d4:	00000000 	nop
bfc021d8:	00000021 	move	zero,zero
bfc021dc:	00000021 	move	zero,zero
bfc021e0:	00000021 	move	zero,zero
bfc021e4:	00000021 	move	zero,zero
bfc021e8:	00000021 	move	zero,zero
bfc021ec:	00000021 	move	zero,zero
bfc021f0:	00000021 	move	zero,zero
bfc021f4:	3c128515 	lui	s2,0x8515
bfc021f8:	36523d9a 	ori	s2,s2,0x3d9a
bfc021fc:	00000000 	nop
bfc02200:	3c140840 	lui	s4,0x840
bfc02204:	369480f8 	ori	s4,s4,0x80f8
bfc02208:	161415f6 	bne	s0,s4,bfc079e4 <inst_error>
bfc0220c:	00000000 	nop
bfc02210:	3c158515 	lui	s5,0x8515
bfc02214:	36b53d9a 	ori	s5,s5,0x3d9a
bfc02218:	165515f2 	bne	s2,s5,bfc079e4 <inst_error>
bfc0221c:	00000000 	nop
bfc02220:	3c0cd4dc 	lui	t4,0xd4dc
bfc02224:	358c9538 	ori	t4,t4,0x9538
bfc02228:	3c0d1ee6 	lui	t5,0x1ee6
bfc0222c:	35adc458 	ori	t5,t5,0xc458
bfc02230:	24100000 	li	s0,0
bfc02234:	24120000 	li	s2,0
bfc02238:	1000000a 	b	bfc02264 <main+0x2264>
bfc0223c:	00000000 	nop
bfc02240:	3c10d4dc 	lui	s0,0xd4dc
bfc02244:	36109538 	ori	s0,s0,0x9538
bfc02248:	10000011 	b	bfc02290 <main+0x2290>
bfc0224c:	00000000 	nop
bfc02250:	10000011 	b	bfc02298 <main+0x2298>
bfc02254:	00000000 	nop
bfc02258:	00000021 	move	zero,zero
bfc0225c:	00000021 	move	zero,zero
bfc02260:	00000021 	move	zero,zero
bfc02264:	1000fff6 	b	bfc02240 <main+0x2240>
bfc02268:	00000000 	nop
bfc0226c:	1000000a 	b	bfc02298 <main+0x2298>
bfc02270:	00000000 	nop
bfc02274:	00000021 	move	zero,zero
bfc02278:	00000021 	move	zero,zero
bfc0227c:	00000021 	move	zero,zero
bfc02280:	00000021 	move	zero,zero
bfc02284:	00000021 	move	zero,zero
bfc02288:	00000021 	move	zero,zero
bfc0228c:	00000021 	move	zero,zero
bfc02290:	3c121ee6 	lui	s2,0x1ee6
bfc02294:	3652c458 	ori	s2,s2,0xc458
bfc02298:	00000000 	nop
bfc0229c:	3c14d4dc 	lui	s4,0xd4dc
bfc022a0:	36949538 	ori	s4,s4,0x9538
bfc022a4:	161415cf 	bne	s0,s4,bfc079e4 <inst_error>
bfc022a8:	00000000 	nop
bfc022ac:	3c151ee6 	lui	s5,0x1ee6
bfc022b0:	36b5c458 	ori	s5,s5,0xc458
bfc022b4:	165515cb 	bne	s2,s5,bfc079e4 <inst_error>
bfc022b8:	00000000 	nop
bfc022bc:	3c0c3160 	lui	t4,0x3160
bfc022c0:	358c83f3 	ori	t4,t4,0x83f3
bfc022c4:	3c0d6f4a 	lui	t5,0x6f4a
bfc022c8:	35adefb9 	ori	t5,t5,0xefb9
bfc022cc:	24100000 	li	s0,0
bfc022d0:	24120000 	li	s2,0
bfc022d4:	1000000a 	b	bfc02300 <main+0x2300>
bfc022d8:	00000000 	nop
bfc022dc:	3c103160 	lui	s0,0x3160
bfc022e0:	361083f3 	ori	s0,s0,0x83f3
bfc022e4:	10000011 	b	bfc0232c <main+0x232c>
bfc022e8:	00000000 	nop
bfc022ec:	10000011 	b	bfc02334 <main+0x2334>
bfc022f0:	00000000 	nop
bfc022f4:	00000021 	move	zero,zero
bfc022f8:	00000021 	move	zero,zero
bfc022fc:	00000021 	move	zero,zero
bfc02300:	1000fff6 	b	bfc022dc <main+0x22dc>
bfc02304:	00000000 	nop
bfc02308:	1000000a 	b	bfc02334 <main+0x2334>
bfc0230c:	00000000 	nop
bfc02310:	00000021 	move	zero,zero
bfc02314:	00000021 	move	zero,zero
bfc02318:	00000021 	move	zero,zero
bfc0231c:	00000021 	move	zero,zero
bfc02320:	00000021 	move	zero,zero
bfc02324:	00000021 	move	zero,zero
bfc02328:	00000021 	move	zero,zero
bfc0232c:	3c126f4a 	lui	s2,0x6f4a
bfc02330:	3652efb9 	ori	s2,s2,0xefb9
bfc02334:	00000000 	nop
bfc02338:	3c143160 	lui	s4,0x3160
bfc0233c:	369483f3 	ori	s4,s4,0x83f3
bfc02340:	161415a8 	bne	s0,s4,bfc079e4 <inst_error>
bfc02344:	00000000 	nop
bfc02348:	3c156f4a 	lui	s5,0x6f4a
bfc0234c:	36b5efb9 	ori	s5,s5,0xefb9
bfc02350:	165515a4 	bne	s2,s5,bfc079e4 <inst_error>
bfc02354:	00000000 	nop
bfc02358:	3c0cfe7c 	lui	t4,0xfe7c
bfc0235c:	358c871a 	ori	t4,t4,0x871a
bfc02360:	3c0d3712 	lui	t5,0x3712
bfc02364:	35adc654 	ori	t5,t5,0xc654
bfc02368:	24100000 	li	s0,0
bfc0236c:	24120000 	li	s2,0
bfc02370:	1000000a 	b	bfc0239c <main+0x239c>
bfc02374:	00000000 	nop
bfc02378:	3c10fe7c 	lui	s0,0xfe7c
bfc0237c:	3610871a 	ori	s0,s0,0x871a
bfc02380:	10000011 	b	bfc023c8 <main+0x23c8>
bfc02384:	00000000 	nop
bfc02388:	10000011 	b	bfc023d0 <main+0x23d0>
bfc0238c:	00000000 	nop
bfc02390:	00000021 	move	zero,zero
bfc02394:	00000021 	move	zero,zero
bfc02398:	00000021 	move	zero,zero
bfc0239c:	1000fff6 	b	bfc02378 <main+0x2378>
bfc023a0:	00000000 	nop
bfc023a4:	1000000a 	b	bfc023d0 <main+0x23d0>
bfc023a8:	00000000 	nop
bfc023ac:	00000021 	move	zero,zero
bfc023b0:	00000021 	move	zero,zero
bfc023b4:	00000021 	move	zero,zero
bfc023b8:	00000021 	move	zero,zero
bfc023bc:	00000021 	move	zero,zero
bfc023c0:	00000021 	move	zero,zero
bfc023c4:	00000021 	move	zero,zero
bfc023c8:	3c123712 	lui	s2,0x3712
bfc023cc:	3652c654 	ori	s2,s2,0xc654
bfc023d0:	00000000 	nop
bfc023d4:	3c14fe7c 	lui	s4,0xfe7c
bfc023d8:	3694871a 	ori	s4,s4,0x871a
bfc023dc:	16141581 	bne	s0,s4,bfc079e4 <inst_error>
bfc023e0:	00000000 	nop
bfc023e4:	3c153712 	lui	s5,0x3712
bfc023e8:	36b5c654 	ori	s5,s5,0xc654
bfc023ec:	1655157d 	bne	s2,s5,bfc079e4 <inst_error>
bfc023f0:	00000000 	nop
bfc023f4:	3c0c9978 	lui	t4,0x9978
bfc023f8:	358c88c0 	ori	t4,t4,0x88c0
bfc023fc:	3c0d4980 	lui	t5,0x4980
bfc02400:	35add790 	ori	t5,t5,0xd790
bfc02404:	24100000 	li	s0,0
bfc02408:	24120000 	li	s2,0
bfc0240c:	1000000a 	b	bfc02438 <main+0x2438>
bfc02410:	00000000 	nop
bfc02414:	3c109978 	lui	s0,0x9978
bfc02418:	361088c0 	ori	s0,s0,0x88c0
bfc0241c:	10000011 	b	bfc02464 <main+0x2464>
bfc02420:	00000000 	nop
bfc02424:	10000011 	b	bfc0246c <main+0x246c>
bfc02428:	00000000 	nop
bfc0242c:	00000021 	move	zero,zero
bfc02430:	00000021 	move	zero,zero
bfc02434:	00000021 	move	zero,zero
bfc02438:	1000fff6 	b	bfc02414 <main+0x2414>
bfc0243c:	00000000 	nop
bfc02440:	1000000a 	b	bfc0246c <main+0x246c>
bfc02444:	00000000 	nop
bfc02448:	00000021 	move	zero,zero
bfc0244c:	00000021 	move	zero,zero
bfc02450:	00000021 	move	zero,zero
bfc02454:	00000021 	move	zero,zero
bfc02458:	00000021 	move	zero,zero
bfc0245c:	00000021 	move	zero,zero
bfc02460:	00000021 	move	zero,zero
bfc02464:	3c124980 	lui	s2,0x4980
bfc02468:	3652d790 	ori	s2,s2,0xd790
bfc0246c:	00000000 	nop
bfc02470:	3c149978 	lui	s4,0x9978
bfc02474:	369488c0 	ori	s4,s4,0x88c0
bfc02478:	1614155a 	bne	s0,s4,bfc079e4 <inst_error>
bfc0247c:	00000000 	nop
bfc02480:	3c154980 	lui	s5,0x4980
bfc02484:	36b5d790 	ori	s5,s5,0xd790
bfc02488:	16551556 	bne	s2,s5,bfc079e4 <inst_error>
bfc0248c:	00000000 	nop
bfc02490:	3c0c60af 	lui	t4,0x60af
bfc02494:	358c9fa4 	ori	t4,t4,0x9fa4
bfc02498:	3c0d35dd 	lui	t5,0x35dd
bfc0249c:	35ad2200 	ori	t5,t5,0x2200
bfc024a0:	24100000 	li	s0,0
bfc024a4:	24120000 	li	s2,0
bfc024a8:	1000000a 	b	bfc024d4 <main+0x24d4>
bfc024ac:	00000000 	nop
bfc024b0:	3c1060af 	lui	s0,0x60af
bfc024b4:	36109fa4 	ori	s0,s0,0x9fa4
bfc024b8:	10000011 	b	bfc02500 <main+0x2500>
bfc024bc:	00000000 	nop
bfc024c0:	10000011 	b	bfc02508 <main+0x2508>
bfc024c4:	00000000 	nop
bfc024c8:	00000021 	move	zero,zero
bfc024cc:	00000021 	move	zero,zero
bfc024d0:	00000021 	move	zero,zero
bfc024d4:	1000fff6 	b	bfc024b0 <main+0x24b0>
bfc024d8:	00000000 	nop
bfc024dc:	1000000a 	b	bfc02508 <main+0x2508>
bfc024e0:	00000000 	nop
bfc024e4:	00000021 	move	zero,zero
bfc024e8:	00000021 	move	zero,zero
bfc024ec:	00000021 	move	zero,zero
bfc024f0:	00000021 	move	zero,zero
bfc024f4:	00000021 	move	zero,zero
bfc024f8:	00000021 	move	zero,zero
bfc024fc:	00000021 	move	zero,zero
bfc02500:	3c1235dd 	lui	s2,0x35dd
bfc02504:	36522200 	ori	s2,s2,0x2200
bfc02508:	00000000 	nop
bfc0250c:	3c1460af 	lui	s4,0x60af
bfc02510:	36949fa4 	ori	s4,s4,0x9fa4
bfc02514:	16141533 	bne	s0,s4,bfc079e4 <inst_error>
bfc02518:	00000000 	nop
bfc0251c:	3c1535dd 	lui	s5,0x35dd
bfc02520:	36b52200 	ori	s5,s5,0x2200
bfc02524:	1655152f 	bne	s2,s5,bfc079e4 <inst_error>
bfc02528:	00000000 	nop
bfc0252c:	3c0c47a3 	lui	t4,0x47a3
bfc02530:	358c5d90 	ori	t4,t4,0x5d90
bfc02534:	3c0dcf59 	lui	t5,0xcf59
bfc02538:	35ad9ca0 	ori	t5,t5,0x9ca0
bfc0253c:	24100000 	li	s0,0
bfc02540:	24120000 	li	s2,0
bfc02544:	1000000a 	b	bfc02570 <main+0x2570>
bfc02548:	00000000 	nop
bfc0254c:	3c1047a3 	lui	s0,0x47a3
bfc02550:	36105d90 	ori	s0,s0,0x5d90
bfc02554:	10000011 	b	bfc0259c <main+0x259c>
bfc02558:	00000000 	nop
bfc0255c:	10000011 	b	bfc025a4 <main+0x25a4>
bfc02560:	00000000 	nop
bfc02564:	00000021 	move	zero,zero
bfc02568:	00000021 	move	zero,zero
bfc0256c:	00000021 	move	zero,zero
bfc02570:	1000fff6 	b	bfc0254c <main+0x254c>
bfc02574:	00000000 	nop
bfc02578:	1000000a 	b	bfc025a4 <main+0x25a4>
bfc0257c:	00000000 	nop
bfc02580:	00000021 	move	zero,zero
bfc02584:	00000021 	move	zero,zero
bfc02588:	00000021 	move	zero,zero
bfc0258c:	00000021 	move	zero,zero
bfc02590:	00000021 	move	zero,zero
bfc02594:	00000021 	move	zero,zero
bfc02598:	00000021 	move	zero,zero
bfc0259c:	3c12cf59 	lui	s2,0xcf59
bfc025a0:	36529ca0 	ori	s2,s2,0x9ca0
bfc025a4:	00000000 	nop
bfc025a8:	3c1447a3 	lui	s4,0x47a3
bfc025ac:	36945d90 	ori	s4,s4,0x5d90
bfc025b0:	1614150c 	bne	s0,s4,bfc079e4 <inst_error>
bfc025b4:	00000000 	nop
bfc025b8:	3c15cf59 	lui	s5,0xcf59
bfc025bc:	36b59ca0 	ori	s5,s5,0x9ca0
bfc025c0:	16551508 	bne	s2,s5,bfc079e4 <inst_error>
bfc025c4:	00000000 	nop
bfc025c8:	3c0c91f7 	lui	t4,0x91f7
bfc025cc:	358cd314 	ori	t4,t4,0xd314
bfc025d0:	3c0d568e 	lui	t5,0x568e
bfc025d4:	35add358 	ori	t5,t5,0xd358
bfc025d8:	24100000 	li	s0,0
bfc025dc:	24120000 	li	s2,0
bfc025e0:	1000000a 	b	bfc0260c <main+0x260c>
bfc025e4:	00000000 	nop
bfc025e8:	3c1091f7 	lui	s0,0x91f7
bfc025ec:	3610d314 	ori	s0,s0,0xd314
bfc025f0:	10000011 	b	bfc02638 <main+0x2638>
bfc025f4:	00000000 	nop
bfc025f8:	10000011 	b	bfc02640 <main+0x2640>
bfc025fc:	00000000 	nop
bfc02600:	00000021 	move	zero,zero
bfc02604:	00000021 	move	zero,zero
bfc02608:	00000021 	move	zero,zero
bfc0260c:	1000fff6 	b	bfc025e8 <main+0x25e8>
bfc02610:	00000000 	nop
bfc02614:	1000000a 	b	bfc02640 <main+0x2640>
bfc02618:	00000000 	nop
bfc0261c:	00000021 	move	zero,zero
bfc02620:	00000021 	move	zero,zero
bfc02624:	00000021 	move	zero,zero
bfc02628:	00000021 	move	zero,zero
bfc0262c:	00000021 	move	zero,zero
bfc02630:	00000021 	move	zero,zero
bfc02634:	00000021 	move	zero,zero
bfc02638:	3c12568e 	lui	s2,0x568e
bfc0263c:	3652d358 	ori	s2,s2,0xd358
bfc02640:	00000000 	nop
bfc02644:	3c1491f7 	lui	s4,0x91f7
bfc02648:	3694d314 	ori	s4,s4,0xd314
bfc0264c:	161414e5 	bne	s0,s4,bfc079e4 <inst_error>
bfc02650:	00000000 	nop
bfc02654:	3c15568e 	lui	s5,0x568e
bfc02658:	36b5d358 	ori	s5,s5,0xd358
bfc0265c:	165514e1 	bne	s2,s5,bfc079e4 <inst_error>
bfc02660:	00000000 	nop
bfc02664:	3c0c35d7 	lui	t4,0x35d7
bfc02668:	358c6d80 	ori	t4,t4,0x6d80
bfc0266c:	3c0db40d 	lui	t5,0xb40d
bfc02670:	35adf682 	ori	t5,t5,0xf682
bfc02674:	24100000 	li	s0,0
bfc02678:	24120000 	li	s2,0
bfc0267c:	1000000a 	b	bfc026a8 <main+0x26a8>
bfc02680:	00000000 	nop
bfc02684:	3c1035d7 	lui	s0,0x35d7
bfc02688:	36106d80 	ori	s0,s0,0x6d80
bfc0268c:	10000011 	b	bfc026d4 <main+0x26d4>
bfc02690:	00000000 	nop
bfc02694:	10000011 	b	bfc026dc <main+0x26dc>
bfc02698:	00000000 	nop
bfc0269c:	00000021 	move	zero,zero
bfc026a0:	00000021 	move	zero,zero
bfc026a4:	00000021 	move	zero,zero
bfc026a8:	1000fff6 	b	bfc02684 <main+0x2684>
bfc026ac:	00000000 	nop
bfc026b0:	1000000a 	b	bfc026dc <main+0x26dc>
bfc026b4:	00000000 	nop
bfc026b8:	00000021 	move	zero,zero
bfc026bc:	00000021 	move	zero,zero
bfc026c0:	00000021 	move	zero,zero
bfc026c4:	00000021 	move	zero,zero
bfc026c8:	00000021 	move	zero,zero
bfc026cc:	00000021 	move	zero,zero
bfc026d0:	00000021 	move	zero,zero
bfc026d4:	3c12b40d 	lui	s2,0xb40d
bfc026d8:	3652f682 	ori	s2,s2,0xf682
bfc026dc:	00000000 	nop
bfc026e0:	3c1435d7 	lui	s4,0x35d7
bfc026e4:	36946d80 	ori	s4,s4,0x6d80
bfc026e8:	161414be 	bne	s0,s4,bfc079e4 <inst_error>
bfc026ec:	00000000 	nop
bfc026f0:	3c15b40d 	lui	s5,0xb40d
bfc026f4:	36b5f682 	ori	s5,s5,0xf682
bfc026f8:	165514ba 	bne	s2,s5,bfc079e4 <inst_error>
bfc026fc:	00000000 	nop
bfc02700:	3c0c2bfd 	lui	t4,0x2bfd
bfc02704:	358caf46 	ori	t4,t4,0xaf46
bfc02708:	3c0d71b5 	lui	t5,0x71b5
bfc0270c:	35ad2e90 	ori	t5,t5,0x2e90
bfc02710:	24100000 	li	s0,0
bfc02714:	24120000 	li	s2,0
bfc02718:	1000000a 	b	bfc02744 <main+0x2744>
bfc0271c:	00000000 	nop
bfc02720:	3c102bfd 	lui	s0,0x2bfd
bfc02724:	3610af46 	ori	s0,s0,0xaf46
bfc02728:	10000011 	b	bfc02770 <main+0x2770>
bfc0272c:	00000000 	nop
bfc02730:	10000011 	b	bfc02778 <main+0x2778>
bfc02734:	00000000 	nop
bfc02738:	00000021 	move	zero,zero
bfc0273c:	00000021 	move	zero,zero
bfc02740:	00000021 	move	zero,zero
bfc02744:	1000fff6 	b	bfc02720 <main+0x2720>
bfc02748:	00000000 	nop
bfc0274c:	1000000a 	b	bfc02778 <main+0x2778>
bfc02750:	00000000 	nop
bfc02754:	00000021 	move	zero,zero
bfc02758:	00000021 	move	zero,zero
bfc0275c:	00000021 	move	zero,zero
bfc02760:	00000021 	move	zero,zero
bfc02764:	00000021 	move	zero,zero
bfc02768:	00000021 	move	zero,zero
bfc0276c:	00000021 	move	zero,zero
bfc02770:	3c1271b5 	lui	s2,0x71b5
bfc02774:	36522e90 	ori	s2,s2,0x2e90
bfc02778:	00000000 	nop
bfc0277c:	3c142bfd 	lui	s4,0x2bfd
bfc02780:	3694af46 	ori	s4,s4,0xaf46
bfc02784:	16141497 	bne	s0,s4,bfc079e4 <inst_error>
bfc02788:	00000000 	nop
bfc0278c:	3c1571b5 	lui	s5,0x71b5
bfc02790:	36b52e90 	ori	s5,s5,0x2e90
bfc02794:	16551493 	bne	s2,s5,bfc079e4 <inst_error>
bfc02798:	00000000 	nop
bfc0279c:	3c0c3edc 	lui	t4,0x3edc
bfc027a0:	358ce843 	ori	t4,t4,0xe843
bfc027a4:	3c0d9244 	lui	t5,0x9244
bfc027a8:	35adbb18 	ori	t5,t5,0xbb18
bfc027ac:	24100000 	li	s0,0
bfc027b0:	24120000 	li	s2,0
bfc027b4:	1000000a 	b	bfc027e0 <main+0x27e0>
bfc027b8:	00000000 	nop
bfc027bc:	3c103edc 	lui	s0,0x3edc
bfc027c0:	3610e843 	ori	s0,s0,0xe843
bfc027c4:	10000011 	b	bfc0280c <main+0x280c>
bfc027c8:	00000000 	nop
bfc027cc:	10000011 	b	bfc02814 <main+0x2814>
bfc027d0:	00000000 	nop
bfc027d4:	00000021 	move	zero,zero
bfc027d8:	00000021 	move	zero,zero
bfc027dc:	00000021 	move	zero,zero
bfc027e0:	1000fff6 	b	bfc027bc <main+0x27bc>
bfc027e4:	00000000 	nop
bfc027e8:	1000000a 	b	bfc02814 <main+0x2814>
bfc027ec:	00000000 	nop
bfc027f0:	00000021 	move	zero,zero
bfc027f4:	00000021 	move	zero,zero
bfc027f8:	00000021 	move	zero,zero
bfc027fc:	00000021 	move	zero,zero
bfc02800:	00000021 	move	zero,zero
bfc02804:	00000021 	move	zero,zero
bfc02808:	00000021 	move	zero,zero
bfc0280c:	3c129244 	lui	s2,0x9244
bfc02810:	3652bb18 	ori	s2,s2,0xbb18
bfc02814:	00000000 	nop
bfc02818:	3c143edc 	lui	s4,0x3edc
bfc0281c:	3694e843 	ori	s4,s4,0xe843
bfc02820:	16141470 	bne	s0,s4,bfc079e4 <inst_error>
bfc02824:	00000000 	nop
bfc02828:	3c159244 	lui	s5,0x9244
bfc0282c:	36b5bb18 	ori	s5,s5,0xbb18
bfc02830:	1655146c 	bne	s2,s5,bfc079e4 <inst_error>
bfc02834:	00000000 	nop
bfc02838:	3c0c5273 	lui	t4,0x5273
bfc0283c:	358cfd08 	ori	t4,t4,0xfd08
bfc02840:	3c0d1735 	lui	t5,0x1735
bfc02844:	35ad8743 	ori	t5,t5,0x8743
bfc02848:	24100000 	li	s0,0
bfc0284c:	24120000 	li	s2,0
bfc02850:	1000000a 	b	bfc0287c <main+0x287c>
bfc02854:	00000000 	nop
bfc02858:	3c105273 	lui	s0,0x5273
bfc0285c:	3610fd08 	ori	s0,s0,0xfd08
bfc02860:	10000011 	b	bfc028a8 <main+0x28a8>
bfc02864:	00000000 	nop
bfc02868:	10000011 	b	bfc028b0 <main+0x28b0>
bfc0286c:	00000000 	nop
bfc02870:	00000021 	move	zero,zero
bfc02874:	00000021 	move	zero,zero
bfc02878:	00000021 	move	zero,zero
bfc0287c:	1000fff6 	b	bfc02858 <main+0x2858>
bfc02880:	00000000 	nop
bfc02884:	1000000a 	b	bfc028b0 <main+0x28b0>
bfc02888:	00000000 	nop
bfc0288c:	00000021 	move	zero,zero
bfc02890:	00000021 	move	zero,zero
bfc02894:	00000021 	move	zero,zero
bfc02898:	00000021 	move	zero,zero
bfc0289c:	00000021 	move	zero,zero
bfc028a0:	00000021 	move	zero,zero
bfc028a4:	00000021 	move	zero,zero
bfc028a8:	3c121735 	lui	s2,0x1735
bfc028ac:	36528743 	ori	s2,s2,0x8743
bfc028b0:	00000000 	nop
bfc028b4:	3c145273 	lui	s4,0x5273
bfc028b8:	3694fd08 	ori	s4,s4,0xfd08
bfc028bc:	16141449 	bne	s0,s4,bfc079e4 <inst_error>
bfc028c0:	00000000 	nop
bfc028c4:	3c151735 	lui	s5,0x1735
bfc028c8:	36b58743 	ori	s5,s5,0x8743
bfc028cc:	16551445 	bne	s2,s5,bfc079e4 <inst_error>
bfc028d0:	00000000 	nop
bfc028d4:	3c0cfb4a 	lui	t4,0xfb4a
bfc028d8:	358c4134 	ori	t4,t4,0x4134
bfc028dc:	3c0df1c2 	lui	t5,0xf1c2
bfc028e0:	35ad6750 	ori	t5,t5,0x6750
bfc028e4:	24100000 	li	s0,0
bfc028e8:	24120000 	li	s2,0
bfc028ec:	1000000a 	b	bfc02918 <main+0x2918>
bfc028f0:	00000000 	nop
bfc028f4:	3c10fb4a 	lui	s0,0xfb4a
bfc028f8:	36104134 	ori	s0,s0,0x4134
bfc028fc:	10000011 	b	bfc02944 <main+0x2944>
bfc02900:	00000000 	nop
bfc02904:	10000011 	b	bfc0294c <main+0x294c>
bfc02908:	00000000 	nop
bfc0290c:	00000021 	move	zero,zero
bfc02910:	00000021 	move	zero,zero
bfc02914:	00000021 	move	zero,zero
bfc02918:	1000fff6 	b	bfc028f4 <main+0x28f4>
bfc0291c:	00000000 	nop
bfc02920:	1000000a 	b	bfc0294c <main+0x294c>
bfc02924:	00000000 	nop
bfc02928:	00000021 	move	zero,zero
bfc0292c:	00000021 	move	zero,zero
bfc02930:	00000021 	move	zero,zero
bfc02934:	00000021 	move	zero,zero
bfc02938:	00000021 	move	zero,zero
bfc0293c:	00000021 	move	zero,zero
bfc02940:	00000021 	move	zero,zero
bfc02944:	3c12f1c2 	lui	s2,0xf1c2
bfc02948:	36526750 	ori	s2,s2,0x6750
bfc0294c:	00000000 	nop
bfc02950:	3c14fb4a 	lui	s4,0xfb4a
bfc02954:	36944134 	ori	s4,s4,0x4134
bfc02958:	16141422 	bne	s0,s4,bfc079e4 <inst_error>
bfc0295c:	00000000 	nop
bfc02960:	3c15f1c2 	lui	s5,0xf1c2
bfc02964:	36b56750 	ori	s5,s5,0x6750
bfc02968:	1655141e 	bne	s2,s5,bfc079e4 <inst_error>
bfc0296c:	00000000 	nop
bfc02970:	3c0ca359 	lui	t4,0xa359
bfc02974:	358cf930 	ori	t4,t4,0xf930
bfc02978:	3c0d84e5 	lui	t5,0x84e5
bfc0297c:	35addfc4 	ori	t5,t5,0xdfc4
bfc02980:	24100000 	li	s0,0
bfc02984:	24120000 	li	s2,0
bfc02988:	1000000a 	b	bfc029b4 <main+0x29b4>
bfc0298c:	00000000 	nop
bfc02990:	3c10a359 	lui	s0,0xa359
bfc02994:	3610f930 	ori	s0,s0,0xf930
bfc02998:	10000011 	b	bfc029e0 <main+0x29e0>
bfc0299c:	00000000 	nop
bfc029a0:	10000011 	b	bfc029e8 <main+0x29e8>
bfc029a4:	00000000 	nop
bfc029a8:	00000021 	move	zero,zero
bfc029ac:	00000021 	move	zero,zero
bfc029b0:	00000021 	move	zero,zero
bfc029b4:	1000fff6 	b	bfc02990 <main+0x2990>
bfc029b8:	00000000 	nop
bfc029bc:	1000000a 	b	bfc029e8 <main+0x29e8>
bfc029c0:	00000000 	nop
bfc029c4:	00000021 	move	zero,zero
bfc029c8:	00000021 	move	zero,zero
bfc029cc:	00000021 	move	zero,zero
bfc029d0:	00000021 	move	zero,zero
bfc029d4:	00000021 	move	zero,zero
bfc029d8:	00000021 	move	zero,zero
bfc029dc:	00000021 	move	zero,zero
bfc029e0:	3c1284e5 	lui	s2,0x84e5
bfc029e4:	3652dfc4 	ori	s2,s2,0xdfc4
bfc029e8:	00000000 	nop
bfc029ec:	3c14a359 	lui	s4,0xa359
bfc029f0:	3694f930 	ori	s4,s4,0xf930
bfc029f4:	161413fb 	bne	s0,s4,bfc079e4 <inst_error>
bfc029f8:	00000000 	nop
bfc029fc:	3c1584e5 	lui	s5,0x84e5
bfc02a00:	36b5dfc4 	ori	s5,s5,0xdfc4
bfc02a04:	165513f7 	bne	s2,s5,bfc079e4 <inst_error>
bfc02a08:	00000000 	nop
bfc02a0c:	3c0c8be3 	lui	t4,0x8be3
bfc02a10:	358ce4cf 	ori	t4,t4,0xe4cf
bfc02a14:	3c0db44d 	lui	t5,0xb44d
bfc02a18:	35ad32db 	ori	t5,t5,0x32db
bfc02a1c:	24100000 	li	s0,0
bfc02a20:	24120000 	li	s2,0
bfc02a24:	1000000a 	b	bfc02a50 <main+0x2a50>
bfc02a28:	00000000 	nop
bfc02a2c:	3c108be3 	lui	s0,0x8be3
bfc02a30:	3610e4cf 	ori	s0,s0,0xe4cf
bfc02a34:	10000011 	b	bfc02a7c <main+0x2a7c>
bfc02a38:	00000000 	nop
bfc02a3c:	10000011 	b	bfc02a84 <main+0x2a84>
bfc02a40:	00000000 	nop
bfc02a44:	00000021 	move	zero,zero
bfc02a48:	00000021 	move	zero,zero
bfc02a4c:	00000021 	move	zero,zero
bfc02a50:	1000fff6 	b	bfc02a2c <main+0x2a2c>
bfc02a54:	00000000 	nop
bfc02a58:	1000000a 	b	bfc02a84 <main+0x2a84>
bfc02a5c:	00000000 	nop
bfc02a60:	00000021 	move	zero,zero
bfc02a64:	00000021 	move	zero,zero
bfc02a68:	00000021 	move	zero,zero
bfc02a6c:	00000021 	move	zero,zero
bfc02a70:	00000021 	move	zero,zero
bfc02a74:	00000021 	move	zero,zero
bfc02a78:	00000021 	move	zero,zero
bfc02a7c:	3c12b44d 	lui	s2,0xb44d
bfc02a80:	365232db 	ori	s2,s2,0x32db
bfc02a84:	00000000 	nop
bfc02a88:	3c148be3 	lui	s4,0x8be3
bfc02a8c:	3694e4cf 	ori	s4,s4,0xe4cf
bfc02a90:	161413d4 	bne	s0,s4,bfc079e4 <inst_error>
bfc02a94:	00000000 	nop
bfc02a98:	3c15b44d 	lui	s5,0xb44d
bfc02a9c:	36b532db 	ori	s5,s5,0x32db
bfc02aa0:	165513d0 	bne	s2,s5,bfc079e4 <inst_error>
bfc02aa4:	00000000 	nop
bfc02aa8:	3c0c20a6 	lui	t4,0x20a6
bfc02aac:	358c3240 	ori	t4,t4,0x3240
bfc02ab0:	3c0d4c3f 	lui	t5,0x4c3f
bfc02ab4:	35adee78 	ori	t5,t5,0xee78
bfc02ab8:	24100000 	li	s0,0
bfc02abc:	24120000 	li	s2,0
bfc02ac0:	1000000a 	b	bfc02aec <main+0x2aec>
bfc02ac4:	00000000 	nop
bfc02ac8:	3c1020a6 	lui	s0,0x20a6
bfc02acc:	36103240 	ori	s0,s0,0x3240
bfc02ad0:	10000011 	b	bfc02b18 <main+0x2b18>
bfc02ad4:	00000000 	nop
bfc02ad8:	10000011 	b	bfc02b20 <main+0x2b20>
bfc02adc:	00000000 	nop
bfc02ae0:	00000021 	move	zero,zero
bfc02ae4:	00000021 	move	zero,zero
bfc02ae8:	00000021 	move	zero,zero
bfc02aec:	1000fff6 	b	bfc02ac8 <main+0x2ac8>
bfc02af0:	00000000 	nop
bfc02af4:	1000000a 	b	bfc02b20 <main+0x2b20>
bfc02af8:	00000000 	nop
bfc02afc:	00000021 	move	zero,zero
bfc02b00:	00000021 	move	zero,zero
bfc02b04:	00000021 	move	zero,zero
bfc02b08:	00000021 	move	zero,zero
bfc02b0c:	00000021 	move	zero,zero
bfc02b10:	00000021 	move	zero,zero
bfc02b14:	00000021 	move	zero,zero
bfc02b18:	3c124c3f 	lui	s2,0x4c3f
bfc02b1c:	3652ee78 	ori	s2,s2,0xee78
bfc02b20:	00000000 	nop
bfc02b24:	3c1420a6 	lui	s4,0x20a6
bfc02b28:	36943240 	ori	s4,s4,0x3240
bfc02b2c:	161413ad 	bne	s0,s4,bfc079e4 <inst_error>
bfc02b30:	00000000 	nop
bfc02b34:	3c154c3f 	lui	s5,0x4c3f
bfc02b38:	36b5ee78 	ori	s5,s5,0xee78
bfc02b3c:	165513a9 	bne	s2,s5,bfc079e4 <inst_error>
bfc02b40:	00000000 	nop
bfc02b44:	3c0c479b 	lui	t4,0x479b
bfc02b48:	358c3d54 	ori	t4,t4,0x3d54
bfc02b4c:	3c0d46df 	lui	t5,0x46df
bfc02b50:	35ad1dfb 	ori	t5,t5,0x1dfb
bfc02b54:	24100000 	li	s0,0
bfc02b58:	24120000 	li	s2,0
bfc02b5c:	1000000a 	b	bfc02b88 <main+0x2b88>
bfc02b60:	00000000 	nop
bfc02b64:	3c10479b 	lui	s0,0x479b
bfc02b68:	36103d54 	ori	s0,s0,0x3d54
bfc02b6c:	10000011 	b	bfc02bb4 <main+0x2bb4>
bfc02b70:	00000000 	nop
bfc02b74:	10000011 	b	bfc02bbc <main+0x2bbc>
bfc02b78:	00000000 	nop
bfc02b7c:	00000021 	move	zero,zero
bfc02b80:	00000021 	move	zero,zero
bfc02b84:	00000021 	move	zero,zero
bfc02b88:	1000fff6 	b	bfc02b64 <main+0x2b64>
bfc02b8c:	00000000 	nop
bfc02b90:	1000000a 	b	bfc02bbc <main+0x2bbc>
bfc02b94:	00000000 	nop
bfc02b98:	00000021 	move	zero,zero
bfc02b9c:	00000021 	move	zero,zero
bfc02ba0:	00000021 	move	zero,zero
bfc02ba4:	00000021 	move	zero,zero
bfc02ba8:	00000021 	move	zero,zero
bfc02bac:	00000021 	move	zero,zero
bfc02bb0:	00000021 	move	zero,zero
bfc02bb4:	3c1246df 	lui	s2,0x46df
bfc02bb8:	36521dfb 	ori	s2,s2,0x1dfb
bfc02bbc:	00000000 	nop
bfc02bc0:	3c14479b 	lui	s4,0x479b
bfc02bc4:	36943d54 	ori	s4,s4,0x3d54
bfc02bc8:	16141386 	bne	s0,s4,bfc079e4 <inst_error>
bfc02bcc:	00000000 	nop
bfc02bd0:	3c1546df 	lui	s5,0x46df
bfc02bd4:	36b51dfb 	ori	s5,s5,0x1dfb
bfc02bd8:	16551382 	bne	s2,s5,bfc079e4 <inst_error>
bfc02bdc:	00000000 	nop
bfc02be0:	3c0c518a 	lui	t4,0x518a
bfc02be4:	358c4940 	ori	t4,t4,0x4940
bfc02be8:	3c0d5e1d 	lui	t5,0x5e1d
bfc02bec:	35ad0288 	ori	t5,t5,0x288
bfc02bf0:	24100000 	li	s0,0
bfc02bf4:	24120000 	li	s2,0
bfc02bf8:	1000000a 	b	bfc02c24 <main+0x2c24>
bfc02bfc:	00000000 	nop
bfc02c00:	3c10518a 	lui	s0,0x518a
bfc02c04:	36104940 	ori	s0,s0,0x4940
bfc02c08:	10000011 	b	bfc02c50 <main+0x2c50>
bfc02c0c:	00000000 	nop
bfc02c10:	10000011 	b	bfc02c58 <main+0x2c58>
bfc02c14:	00000000 	nop
bfc02c18:	00000021 	move	zero,zero
bfc02c1c:	00000021 	move	zero,zero
bfc02c20:	00000021 	move	zero,zero
bfc02c24:	1000fff6 	b	bfc02c00 <main+0x2c00>
bfc02c28:	00000000 	nop
bfc02c2c:	1000000a 	b	bfc02c58 <main+0x2c58>
bfc02c30:	00000000 	nop
bfc02c34:	00000021 	move	zero,zero
bfc02c38:	00000021 	move	zero,zero
bfc02c3c:	00000021 	move	zero,zero
bfc02c40:	00000021 	move	zero,zero
bfc02c44:	00000021 	move	zero,zero
bfc02c48:	00000021 	move	zero,zero
bfc02c4c:	00000021 	move	zero,zero
bfc02c50:	3c125e1d 	lui	s2,0x5e1d
bfc02c54:	36520288 	ori	s2,s2,0x288
bfc02c58:	00000000 	nop
bfc02c5c:	3c14518a 	lui	s4,0x518a
bfc02c60:	36944940 	ori	s4,s4,0x4940
bfc02c64:	1614135f 	bne	s0,s4,bfc079e4 <inst_error>
bfc02c68:	00000000 	nop
bfc02c6c:	3c155e1d 	lui	s5,0x5e1d
bfc02c70:	36b50288 	ori	s5,s5,0x288
bfc02c74:	1655135b 	bne	s2,s5,bfc079e4 <inst_error>
bfc02c78:	00000000 	nop
bfc02c7c:	3c0c3623 	lui	t4,0x3623
bfc02c80:	358c7e64 	ori	t4,t4,0x7e64
bfc02c84:	3c0d1330 	lui	t5,0x1330
bfc02c88:	35adac2a 	ori	t5,t5,0xac2a
bfc02c8c:	24100000 	li	s0,0
bfc02c90:	24120000 	li	s2,0
bfc02c94:	1000000a 	b	bfc02cc0 <main+0x2cc0>
bfc02c98:	00000000 	nop
bfc02c9c:	3c103623 	lui	s0,0x3623
bfc02ca0:	36107e64 	ori	s0,s0,0x7e64
bfc02ca4:	10000011 	b	bfc02cec <main+0x2cec>
bfc02ca8:	00000000 	nop
bfc02cac:	10000011 	b	bfc02cf4 <main+0x2cf4>
bfc02cb0:	00000000 	nop
bfc02cb4:	00000021 	move	zero,zero
bfc02cb8:	00000021 	move	zero,zero
bfc02cbc:	00000021 	move	zero,zero
bfc02cc0:	1000fff6 	b	bfc02c9c <main+0x2c9c>
bfc02cc4:	00000000 	nop
bfc02cc8:	1000000a 	b	bfc02cf4 <main+0x2cf4>
bfc02ccc:	00000000 	nop
bfc02cd0:	00000021 	move	zero,zero
bfc02cd4:	00000021 	move	zero,zero
bfc02cd8:	00000021 	move	zero,zero
bfc02cdc:	00000021 	move	zero,zero
bfc02ce0:	00000021 	move	zero,zero
bfc02ce4:	00000021 	move	zero,zero
bfc02ce8:	00000021 	move	zero,zero
bfc02cec:	3c121330 	lui	s2,0x1330
bfc02cf0:	3652ac2a 	ori	s2,s2,0xac2a
bfc02cf4:	00000000 	nop
bfc02cf8:	3c143623 	lui	s4,0x3623
bfc02cfc:	36947e64 	ori	s4,s4,0x7e64
bfc02d00:	16141338 	bne	s0,s4,bfc079e4 <inst_error>
bfc02d04:	00000000 	nop
bfc02d08:	3c151330 	lui	s5,0x1330
bfc02d0c:	36b5ac2a 	ori	s5,s5,0xac2a
bfc02d10:	16551334 	bne	s2,s5,bfc079e4 <inst_error>
bfc02d14:	00000000 	nop
bfc02d18:	3c0cad06 	lui	t4,0xad06
bfc02d1c:	358c6b28 	ori	t4,t4,0x6b28
bfc02d20:	3c0dffea 	lui	t5,0xffea
bfc02d24:	35add346 	ori	t5,t5,0xd346
bfc02d28:	24100000 	li	s0,0
bfc02d2c:	24120000 	li	s2,0
bfc02d30:	1000000a 	b	bfc02d5c <main+0x2d5c>
bfc02d34:	00000000 	nop
bfc02d38:	3c10ad06 	lui	s0,0xad06
bfc02d3c:	36106b28 	ori	s0,s0,0x6b28
bfc02d40:	10000011 	b	bfc02d88 <main+0x2d88>
bfc02d44:	00000000 	nop
bfc02d48:	10000011 	b	bfc02d90 <main+0x2d90>
bfc02d4c:	00000000 	nop
bfc02d50:	00000021 	move	zero,zero
bfc02d54:	00000021 	move	zero,zero
bfc02d58:	00000021 	move	zero,zero
bfc02d5c:	1000fff6 	b	bfc02d38 <main+0x2d38>
bfc02d60:	00000000 	nop
bfc02d64:	1000000a 	b	bfc02d90 <main+0x2d90>
bfc02d68:	00000000 	nop
bfc02d6c:	00000021 	move	zero,zero
bfc02d70:	00000021 	move	zero,zero
bfc02d74:	00000021 	move	zero,zero
bfc02d78:	00000021 	move	zero,zero
bfc02d7c:	00000021 	move	zero,zero
bfc02d80:	00000021 	move	zero,zero
bfc02d84:	00000021 	move	zero,zero
bfc02d88:	3c12ffea 	lui	s2,0xffea
bfc02d8c:	3652d346 	ori	s2,s2,0xd346
bfc02d90:	00000000 	nop
bfc02d94:	3c14ad06 	lui	s4,0xad06
bfc02d98:	36946b28 	ori	s4,s4,0x6b28
bfc02d9c:	16141311 	bne	s0,s4,bfc079e4 <inst_error>
bfc02da0:	00000000 	nop
bfc02da4:	3c15ffea 	lui	s5,0xffea
bfc02da8:	36b5d346 	ori	s5,s5,0xd346
bfc02dac:	1655130d 	bne	s2,s5,bfc079e4 <inst_error>
bfc02db0:	00000000 	nop
bfc02db4:	3c0c4ee3 	lui	t4,0x4ee3
bfc02db8:	358cba5a 	ori	t4,t4,0xba5a
bfc02dbc:	3c0db042 	lui	t5,0xb042
bfc02dc0:	35ad3218 	ori	t5,t5,0x3218
bfc02dc4:	24100000 	li	s0,0
bfc02dc8:	24120000 	li	s2,0
bfc02dcc:	1000000a 	b	bfc02df8 <main+0x2df8>
bfc02dd0:	00000000 	nop
bfc02dd4:	3c104ee3 	lui	s0,0x4ee3
bfc02dd8:	3610ba5a 	ori	s0,s0,0xba5a
bfc02ddc:	10000011 	b	bfc02e24 <main+0x2e24>
bfc02de0:	00000000 	nop
bfc02de4:	10000011 	b	bfc02e2c <main+0x2e2c>
bfc02de8:	00000000 	nop
bfc02dec:	00000021 	move	zero,zero
bfc02df0:	00000021 	move	zero,zero
bfc02df4:	00000021 	move	zero,zero
bfc02df8:	1000fff6 	b	bfc02dd4 <main+0x2dd4>
bfc02dfc:	00000000 	nop
bfc02e00:	1000000a 	b	bfc02e2c <main+0x2e2c>
bfc02e04:	00000000 	nop
bfc02e08:	00000021 	move	zero,zero
bfc02e0c:	00000021 	move	zero,zero
bfc02e10:	00000021 	move	zero,zero
bfc02e14:	00000021 	move	zero,zero
bfc02e18:	00000021 	move	zero,zero
bfc02e1c:	00000021 	move	zero,zero
bfc02e20:	00000021 	move	zero,zero
bfc02e24:	3c12b042 	lui	s2,0xb042
bfc02e28:	36523218 	ori	s2,s2,0x3218
bfc02e2c:	00000000 	nop
bfc02e30:	3c144ee3 	lui	s4,0x4ee3
bfc02e34:	3694ba5a 	ori	s4,s4,0xba5a
bfc02e38:	161412ea 	bne	s0,s4,bfc079e4 <inst_error>
bfc02e3c:	00000000 	nop
bfc02e40:	3c15b042 	lui	s5,0xb042
bfc02e44:	36b53218 	ori	s5,s5,0x3218
bfc02e48:	165512e6 	bne	s2,s5,bfc079e4 <inst_error>
bfc02e4c:	00000000 	nop
bfc02e50:	3c0c0347 	lui	t4,0x347
bfc02e54:	358cdbc4 	ori	t4,t4,0xdbc4
bfc02e58:	3c0dbb5e 	lui	t5,0xbb5e
bfc02e5c:	35adcfa8 	ori	t5,t5,0xcfa8
bfc02e60:	24100000 	li	s0,0
bfc02e64:	24120000 	li	s2,0
bfc02e68:	1000000a 	b	bfc02e94 <main+0x2e94>
bfc02e6c:	00000000 	nop
bfc02e70:	3c100347 	lui	s0,0x347
bfc02e74:	3610dbc4 	ori	s0,s0,0xdbc4
bfc02e78:	10000011 	b	bfc02ec0 <main+0x2ec0>
bfc02e7c:	00000000 	nop
bfc02e80:	10000011 	b	bfc02ec8 <main+0x2ec8>
bfc02e84:	00000000 	nop
bfc02e88:	00000021 	move	zero,zero
bfc02e8c:	00000021 	move	zero,zero
bfc02e90:	00000021 	move	zero,zero
bfc02e94:	1000fff6 	b	bfc02e70 <main+0x2e70>
bfc02e98:	00000000 	nop
bfc02e9c:	1000000a 	b	bfc02ec8 <main+0x2ec8>
bfc02ea0:	00000000 	nop
bfc02ea4:	00000021 	move	zero,zero
bfc02ea8:	00000021 	move	zero,zero
bfc02eac:	00000021 	move	zero,zero
bfc02eb0:	00000021 	move	zero,zero
bfc02eb4:	00000021 	move	zero,zero
bfc02eb8:	00000021 	move	zero,zero
bfc02ebc:	00000021 	move	zero,zero
bfc02ec0:	3c12bb5e 	lui	s2,0xbb5e
bfc02ec4:	3652cfa8 	ori	s2,s2,0xcfa8
bfc02ec8:	00000000 	nop
bfc02ecc:	3c140347 	lui	s4,0x347
bfc02ed0:	3694dbc4 	ori	s4,s4,0xdbc4
bfc02ed4:	161412c3 	bne	s0,s4,bfc079e4 <inst_error>
bfc02ed8:	00000000 	nop
bfc02edc:	3c15bb5e 	lui	s5,0xbb5e
bfc02ee0:	36b5cfa8 	ori	s5,s5,0xcfa8
bfc02ee4:	165512bf 	bne	s2,s5,bfc079e4 <inst_error>
bfc02ee8:	00000000 	nop
bfc02eec:	3c0c67ae 	lui	t4,0x67ae
bfc02ef0:	358c1e29 	ori	t4,t4,0x1e29
bfc02ef4:	3c0ded14 	lui	t5,0xed14
bfc02ef8:	35ad1958 	ori	t5,t5,0x1958
bfc02efc:	24100000 	li	s0,0
bfc02f00:	24120000 	li	s2,0
bfc02f04:	1000000a 	b	bfc02f30 <main+0x2f30>
bfc02f08:	00000000 	nop
bfc02f0c:	3c1067ae 	lui	s0,0x67ae
bfc02f10:	36101e29 	ori	s0,s0,0x1e29
bfc02f14:	10000011 	b	bfc02f5c <main+0x2f5c>
bfc02f18:	00000000 	nop
bfc02f1c:	10000011 	b	bfc02f64 <main+0x2f64>
bfc02f20:	00000000 	nop
bfc02f24:	00000021 	move	zero,zero
bfc02f28:	00000021 	move	zero,zero
bfc02f2c:	00000021 	move	zero,zero
bfc02f30:	1000fff6 	b	bfc02f0c <main+0x2f0c>
bfc02f34:	00000000 	nop
bfc02f38:	1000000a 	b	bfc02f64 <main+0x2f64>
bfc02f3c:	00000000 	nop
bfc02f40:	00000021 	move	zero,zero
bfc02f44:	00000021 	move	zero,zero
bfc02f48:	00000021 	move	zero,zero
bfc02f4c:	00000021 	move	zero,zero
bfc02f50:	00000021 	move	zero,zero
bfc02f54:	00000021 	move	zero,zero
bfc02f58:	00000021 	move	zero,zero
bfc02f5c:	3c12ed14 	lui	s2,0xed14
bfc02f60:	36521958 	ori	s2,s2,0x1958
bfc02f64:	00000000 	nop
bfc02f68:	3c1467ae 	lui	s4,0x67ae
bfc02f6c:	36941e29 	ori	s4,s4,0x1e29
bfc02f70:	1614129c 	bne	s0,s4,bfc079e4 <inst_error>
bfc02f74:	00000000 	nop
bfc02f78:	3c15ed14 	lui	s5,0xed14
bfc02f7c:	36b51958 	ori	s5,s5,0x1958
bfc02f80:	16551298 	bne	s2,s5,bfc079e4 <inst_error>
bfc02f84:	00000000 	nop
bfc02f88:	3c0c8a38 	lui	t4,0x8a38
bfc02f8c:	358c07b8 	ori	t4,t4,0x7b8
bfc02f90:	3c0db277 	lui	t5,0xb277
bfc02f94:	35adf404 	ori	t5,t5,0xf404
bfc02f98:	24100000 	li	s0,0
bfc02f9c:	24120000 	li	s2,0
bfc02fa0:	1000000a 	b	bfc02fcc <main+0x2fcc>
bfc02fa4:	00000000 	nop
bfc02fa8:	3c108a38 	lui	s0,0x8a38
bfc02fac:	361007b8 	ori	s0,s0,0x7b8
bfc02fb0:	10000011 	b	bfc02ff8 <main+0x2ff8>
bfc02fb4:	00000000 	nop
bfc02fb8:	10000011 	b	bfc03000 <main+0x3000>
bfc02fbc:	00000000 	nop
bfc02fc0:	00000021 	move	zero,zero
bfc02fc4:	00000021 	move	zero,zero
bfc02fc8:	00000021 	move	zero,zero
bfc02fcc:	1000fff6 	b	bfc02fa8 <main+0x2fa8>
bfc02fd0:	00000000 	nop
bfc02fd4:	1000000a 	b	bfc03000 <main+0x3000>
bfc02fd8:	00000000 	nop
bfc02fdc:	00000021 	move	zero,zero
bfc02fe0:	00000021 	move	zero,zero
bfc02fe4:	00000021 	move	zero,zero
bfc02fe8:	00000021 	move	zero,zero
bfc02fec:	00000021 	move	zero,zero
bfc02ff0:	00000021 	move	zero,zero
bfc02ff4:	00000021 	move	zero,zero
bfc02ff8:	3c12b277 	lui	s2,0xb277
bfc02ffc:	3652f404 	ori	s2,s2,0xf404
bfc03000:	00000000 	nop
bfc03004:	3c148a38 	lui	s4,0x8a38
bfc03008:	369407b8 	ori	s4,s4,0x7b8
bfc0300c:	16141275 	bne	s0,s4,bfc079e4 <inst_error>
bfc03010:	00000000 	nop
bfc03014:	3c15b277 	lui	s5,0xb277
bfc03018:	36b5f404 	ori	s5,s5,0xf404
bfc0301c:	16551271 	bne	s2,s5,bfc079e4 <inst_error>
bfc03020:	00000000 	nop
bfc03024:	3c0c8f41 	lui	t4,0x8f41
bfc03028:	358c79d4 	ori	t4,t4,0x79d4
bfc0302c:	3c0de0bd 	lui	t5,0xe0bd
bfc03030:	35ad7f4c 	ori	t5,t5,0x7f4c
bfc03034:	24100000 	li	s0,0
bfc03038:	24120000 	li	s2,0
bfc0303c:	1000000a 	b	bfc03068 <main+0x3068>
bfc03040:	00000000 	nop
bfc03044:	3c108f41 	lui	s0,0x8f41
bfc03048:	361079d4 	ori	s0,s0,0x79d4
bfc0304c:	10000011 	b	bfc03094 <main+0x3094>
bfc03050:	00000000 	nop
bfc03054:	10000011 	b	bfc0309c <main+0x309c>
bfc03058:	00000000 	nop
bfc0305c:	00000021 	move	zero,zero
bfc03060:	00000021 	move	zero,zero
bfc03064:	00000021 	move	zero,zero
bfc03068:	1000fff6 	b	bfc03044 <main+0x3044>
bfc0306c:	00000000 	nop
bfc03070:	1000000a 	b	bfc0309c <main+0x309c>
bfc03074:	00000000 	nop
bfc03078:	00000021 	move	zero,zero
bfc0307c:	00000021 	move	zero,zero
bfc03080:	00000021 	move	zero,zero
bfc03084:	00000021 	move	zero,zero
bfc03088:	00000021 	move	zero,zero
bfc0308c:	00000021 	move	zero,zero
bfc03090:	00000021 	move	zero,zero
bfc03094:	3c12e0bd 	lui	s2,0xe0bd
bfc03098:	36527f4c 	ori	s2,s2,0x7f4c
bfc0309c:	00000000 	nop
bfc030a0:	3c148f41 	lui	s4,0x8f41
bfc030a4:	369479d4 	ori	s4,s4,0x79d4
bfc030a8:	1614124e 	bne	s0,s4,bfc079e4 <inst_error>
bfc030ac:	00000000 	nop
bfc030b0:	3c15e0bd 	lui	s5,0xe0bd
bfc030b4:	36b57f4c 	ori	s5,s5,0x7f4c
bfc030b8:	1655124a 	bne	s2,s5,bfc079e4 <inst_error>
bfc030bc:	00000000 	nop
bfc030c0:	3c0c278a 	lui	t4,0x278a
bfc030c4:	358c8400 	ori	t4,t4,0x8400
bfc030c8:	3c0d3396 	lui	t5,0x3396
bfc030cc:	35ad9970 	ori	t5,t5,0x9970
bfc030d0:	24100000 	li	s0,0
bfc030d4:	24120000 	li	s2,0
bfc030d8:	1000000a 	b	bfc03104 <main+0x3104>
bfc030dc:	00000000 	nop
bfc030e0:	3c10278a 	lui	s0,0x278a
bfc030e4:	36108400 	ori	s0,s0,0x8400
bfc030e8:	10000011 	b	bfc03130 <main+0x3130>
bfc030ec:	00000000 	nop
bfc030f0:	10000011 	b	bfc03138 <main+0x3138>
bfc030f4:	00000000 	nop
bfc030f8:	00000021 	move	zero,zero
bfc030fc:	00000021 	move	zero,zero
bfc03100:	00000021 	move	zero,zero
bfc03104:	1000fff6 	b	bfc030e0 <main+0x30e0>
bfc03108:	00000000 	nop
bfc0310c:	1000000a 	b	bfc03138 <main+0x3138>
bfc03110:	00000000 	nop
bfc03114:	00000021 	move	zero,zero
bfc03118:	00000021 	move	zero,zero
bfc0311c:	00000021 	move	zero,zero
bfc03120:	00000021 	move	zero,zero
bfc03124:	00000021 	move	zero,zero
bfc03128:	00000021 	move	zero,zero
bfc0312c:	00000021 	move	zero,zero
bfc03130:	3c123396 	lui	s2,0x3396
bfc03134:	36529970 	ori	s2,s2,0x9970
bfc03138:	00000000 	nop
bfc0313c:	3c14278a 	lui	s4,0x278a
bfc03140:	36948400 	ori	s4,s4,0x8400
bfc03144:	16141227 	bne	s0,s4,bfc079e4 <inst_error>
bfc03148:	00000000 	nop
bfc0314c:	3c153396 	lui	s5,0x3396
bfc03150:	36b59970 	ori	s5,s5,0x9970
bfc03154:	16551223 	bne	s2,s5,bfc079e4 <inst_error>
bfc03158:	00000000 	nop
bfc0315c:	3c0c9919 	lui	t4,0x9919
bfc03160:	358c7cc8 	ori	t4,t4,0x7cc8
bfc03164:	3c0d1e7b 	lui	t5,0x1e7b
bfc03168:	35adbe50 	ori	t5,t5,0xbe50
bfc0316c:	24100000 	li	s0,0
bfc03170:	24120000 	li	s2,0
bfc03174:	1000000a 	b	bfc031a0 <main+0x31a0>
bfc03178:	00000000 	nop
bfc0317c:	3c109919 	lui	s0,0x9919
bfc03180:	36107cc8 	ori	s0,s0,0x7cc8
bfc03184:	10000011 	b	bfc031cc <main+0x31cc>
bfc03188:	00000000 	nop
bfc0318c:	10000011 	b	bfc031d4 <main+0x31d4>
bfc03190:	00000000 	nop
bfc03194:	00000021 	move	zero,zero
bfc03198:	00000021 	move	zero,zero
bfc0319c:	00000021 	move	zero,zero
bfc031a0:	1000fff6 	b	bfc0317c <main+0x317c>
bfc031a4:	00000000 	nop
bfc031a8:	1000000a 	b	bfc031d4 <main+0x31d4>
bfc031ac:	00000000 	nop
bfc031b0:	00000021 	move	zero,zero
bfc031b4:	00000021 	move	zero,zero
bfc031b8:	00000021 	move	zero,zero
bfc031bc:	00000021 	move	zero,zero
bfc031c0:	00000021 	move	zero,zero
bfc031c4:	00000021 	move	zero,zero
bfc031c8:	00000021 	move	zero,zero
bfc031cc:	3c121e7b 	lui	s2,0x1e7b
bfc031d0:	3652be50 	ori	s2,s2,0xbe50
bfc031d4:	00000000 	nop
bfc031d8:	3c149919 	lui	s4,0x9919
bfc031dc:	36947cc8 	ori	s4,s4,0x7cc8
bfc031e0:	16141200 	bne	s0,s4,bfc079e4 <inst_error>
bfc031e4:	00000000 	nop
bfc031e8:	3c151e7b 	lui	s5,0x1e7b
bfc031ec:	36b5be50 	ori	s5,s5,0xbe50
bfc031f0:	165511fc 	bne	s2,s5,bfc079e4 <inst_error>
bfc031f4:	00000000 	nop
bfc031f8:	3c0c744f 	lui	t4,0x744f
bfc031fc:	358ce304 	ori	t4,t4,0xe304
bfc03200:	3c0d117d 	lui	t5,0x117d
bfc03204:	35adcc70 	ori	t5,t5,0xcc70
bfc03208:	24100000 	li	s0,0
bfc0320c:	24120000 	li	s2,0
bfc03210:	1000000a 	b	bfc0323c <main+0x323c>
bfc03214:	00000000 	nop
bfc03218:	3c10744f 	lui	s0,0x744f
bfc0321c:	3610e304 	ori	s0,s0,0xe304
bfc03220:	10000011 	b	bfc03268 <main+0x3268>
bfc03224:	00000000 	nop
bfc03228:	10000011 	b	bfc03270 <main+0x3270>
bfc0322c:	00000000 	nop
bfc03230:	00000021 	move	zero,zero
bfc03234:	00000021 	move	zero,zero
bfc03238:	00000021 	move	zero,zero
bfc0323c:	1000fff6 	b	bfc03218 <main+0x3218>
bfc03240:	00000000 	nop
bfc03244:	1000000a 	b	bfc03270 <main+0x3270>
bfc03248:	00000000 	nop
bfc0324c:	00000021 	move	zero,zero
bfc03250:	00000021 	move	zero,zero
bfc03254:	00000021 	move	zero,zero
bfc03258:	00000021 	move	zero,zero
bfc0325c:	00000021 	move	zero,zero
bfc03260:	00000021 	move	zero,zero
bfc03264:	00000021 	move	zero,zero
bfc03268:	3c12117d 	lui	s2,0x117d
bfc0326c:	3652cc70 	ori	s2,s2,0xcc70
bfc03270:	00000000 	nop
bfc03274:	3c14744f 	lui	s4,0x744f
bfc03278:	3694e304 	ori	s4,s4,0xe304
bfc0327c:	161411d9 	bne	s0,s4,bfc079e4 <inst_error>
bfc03280:	00000000 	nop
bfc03284:	3c15117d 	lui	s5,0x117d
bfc03288:	36b5cc70 	ori	s5,s5,0xcc70
bfc0328c:	165511d5 	bne	s2,s5,bfc079e4 <inst_error>
bfc03290:	00000000 	nop
bfc03294:	3c0cd014 	lui	t4,0xd014
bfc03298:	358ca370 	ori	t4,t4,0xa370
bfc0329c:	3c0d5df6 	lui	t5,0x5df6
bfc032a0:	35ad2270 	ori	t5,t5,0x2270
bfc032a4:	24100000 	li	s0,0
bfc032a8:	24120000 	li	s2,0
bfc032ac:	1000000a 	b	bfc032d8 <main+0x32d8>
bfc032b0:	00000000 	nop
bfc032b4:	3c10d014 	lui	s0,0xd014
bfc032b8:	3610a370 	ori	s0,s0,0xa370
bfc032bc:	10000011 	b	bfc03304 <main+0x3304>
bfc032c0:	00000000 	nop
bfc032c4:	10000011 	b	bfc0330c <main+0x330c>
bfc032c8:	00000000 	nop
bfc032cc:	00000021 	move	zero,zero
bfc032d0:	00000021 	move	zero,zero
bfc032d4:	00000021 	move	zero,zero
bfc032d8:	1000fff6 	b	bfc032b4 <main+0x32b4>
bfc032dc:	00000000 	nop
bfc032e0:	1000000a 	b	bfc0330c <main+0x330c>
bfc032e4:	00000000 	nop
bfc032e8:	00000021 	move	zero,zero
bfc032ec:	00000021 	move	zero,zero
bfc032f0:	00000021 	move	zero,zero
bfc032f4:	00000021 	move	zero,zero
bfc032f8:	00000021 	move	zero,zero
bfc032fc:	00000021 	move	zero,zero
bfc03300:	00000021 	move	zero,zero
bfc03304:	3c125df6 	lui	s2,0x5df6
bfc03308:	36522270 	ori	s2,s2,0x2270
bfc0330c:	00000000 	nop
bfc03310:	3c14d014 	lui	s4,0xd014
bfc03314:	3694a370 	ori	s4,s4,0xa370
bfc03318:	161411b2 	bne	s0,s4,bfc079e4 <inst_error>
bfc0331c:	00000000 	nop
bfc03320:	3c155df6 	lui	s5,0x5df6
bfc03324:	36b52270 	ori	s5,s5,0x2270
bfc03328:	165511ae 	bne	s2,s5,bfc079e4 <inst_error>
bfc0332c:	00000000 	nop
bfc03330:	3c0ccf8c 	lui	t4,0xcf8c
bfc03334:	358c7a04 	ori	t4,t4,0x7a04
bfc03338:	3c0d4aaf 	lui	t5,0x4aaf
bfc0333c:	35ad34b6 	ori	t5,t5,0x34b6
bfc03340:	24100000 	li	s0,0
bfc03344:	24120000 	li	s2,0
bfc03348:	1000000a 	b	bfc03374 <main+0x3374>
bfc0334c:	00000000 	nop
bfc03350:	3c10cf8c 	lui	s0,0xcf8c
bfc03354:	36107a04 	ori	s0,s0,0x7a04
bfc03358:	10000011 	b	bfc033a0 <main+0x33a0>
bfc0335c:	00000000 	nop
bfc03360:	10000011 	b	bfc033a8 <main+0x33a8>
bfc03364:	00000000 	nop
bfc03368:	00000021 	move	zero,zero
bfc0336c:	00000021 	move	zero,zero
bfc03370:	00000021 	move	zero,zero
bfc03374:	1000fff6 	b	bfc03350 <main+0x3350>
bfc03378:	00000000 	nop
bfc0337c:	1000000a 	b	bfc033a8 <main+0x33a8>
bfc03380:	00000000 	nop
bfc03384:	00000021 	move	zero,zero
bfc03388:	00000021 	move	zero,zero
bfc0338c:	00000021 	move	zero,zero
bfc03390:	00000021 	move	zero,zero
bfc03394:	00000021 	move	zero,zero
bfc03398:	00000021 	move	zero,zero
bfc0339c:	00000021 	move	zero,zero
bfc033a0:	3c124aaf 	lui	s2,0x4aaf
bfc033a4:	365234b6 	ori	s2,s2,0x34b6
bfc033a8:	00000000 	nop
bfc033ac:	3c14cf8c 	lui	s4,0xcf8c
bfc033b0:	36947a04 	ori	s4,s4,0x7a04
bfc033b4:	1614118b 	bne	s0,s4,bfc079e4 <inst_error>
bfc033b8:	00000000 	nop
bfc033bc:	3c154aaf 	lui	s5,0x4aaf
bfc033c0:	36b534b6 	ori	s5,s5,0x34b6
bfc033c4:	16551187 	bne	s2,s5,bfc079e4 <inst_error>
bfc033c8:	00000000 	nop
bfc033cc:	3c0c8e28 	lui	t4,0x8e28
bfc033d0:	358c8160 	ori	t4,t4,0x8160
bfc033d4:	3c0d7b40 	lui	t5,0x7b40
bfc033d8:	35ad0fc6 	ori	t5,t5,0xfc6
bfc033dc:	24100000 	li	s0,0
bfc033e0:	24120000 	li	s2,0
bfc033e4:	1000000a 	b	bfc03410 <main+0x3410>
bfc033e8:	00000000 	nop
bfc033ec:	3c108e28 	lui	s0,0x8e28
bfc033f0:	36108160 	ori	s0,s0,0x8160
bfc033f4:	10000011 	b	bfc0343c <main+0x343c>
bfc033f8:	00000000 	nop
bfc033fc:	10000011 	b	bfc03444 <main+0x3444>
bfc03400:	00000000 	nop
bfc03404:	00000021 	move	zero,zero
bfc03408:	00000021 	move	zero,zero
bfc0340c:	00000021 	move	zero,zero
bfc03410:	1000fff6 	b	bfc033ec <main+0x33ec>
bfc03414:	00000000 	nop
bfc03418:	1000000a 	b	bfc03444 <main+0x3444>
bfc0341c:	00000000 	nop
bfc03420:	00000021 	move	zero,zero
bfc03424:	00000021 	move	zero,zero
bfc03428:	00000021 	move	zero,zero
bfc0342c:	00000021 	move	zero,zero
bfc03430:	00000021 	move	zero,zero
bfc03434:	00000021 	move	zero,zero
bfc03438:	00000021 	move	zero,zero
bfc0343c:	3c127b40 	lui	s2,0x7b40
bfc03440:	36520fc6 	ori	s2,s2,0xfc6
bfc03444:	00000000 	nop
bfc03448:	3c148e28 	lui	s4,0x8e28
bfc0344c:	36948160 	ori	s4,s4,0x8160
bfc03450:	16141164 	bne	s0,s4,bfc079e4 <inst_error>
bfc03454:	00000000 	nop
bfc03458:	3c157b40 	lui	s5,0x7b40
bfc0345c:	36b50fc6 	ori	s5,s5,0xfc6
bfc03460:	16551160 	bne	s2,s5,bfc079e4 <inst_error>
bfc03464:	00000000 	nop
bfc03468:	3c0caa29 	lui	t4,0xaa29
bfc0346c:	358c1a98 	ori	t4,t4,0x1a98
bfc03470:	3c0d1baf 	lui	t5,0x1baf
bfc03474:	35ad3e24 	ori	t5,t5,0x3e24
bfc03478:	24100000 	li	s0,0
bfc0347c:	24120000 	li	s2,0
bfc03480:	1000000a 	b	bfc034ac <main+0x34ac>
bfc03484:	00000000 	nop
bfc03488:	3c10aa29 	lui	s0,0xaa29
bfc0348c:	36101a98 	ori	s0,s0,0x1a98
bfc03490:	10000011 	b	bfc034d8 <main+0x34d8>
bfc03494:	00000000 	nop
bfc03498:	10000011 	b	bfc034e0 <main+0x34e0>
bfc0349c:	00000000 	nop
bfc034a0:	00000021 	move	zero,zero
bfc034a4:	00000021 	move	zero,zero
bfc034a8:	00000021 	move	zero,zero
bfc034ac:	1000fff6 	b	bfc03488 <main+0x3488>
bfc034b0:	00000000 	nop
bfc034b4:	1000000a 	b	bfc034e0 <main+0x34e0>
bfc034b8:	00000000 	nop
bfc034bc:	00000021 	move	zero,zero
bfc034c0:	00000021 	move	zero,zero
bfc034c4:	00000021 	move	zero,zero
bfc034c8:	00000021 	move	zero,zero
bfc034cc:	00000021 	move	zero,zero
bfc034d0:	00000021 	move	zero,zero
bfc034d4:	00000021 	move	zero,zero
bfc034d8:	3c121baf 	lui	s2,0x1baf
bfc034dc:	36523e24 	ori	s2,s2,0x3e24
bfc034e0:	00000000 	nop
bfc034e4:	3c14aa29 	lui	s4,0xaa29
bfc034e8:	36941a98 	ori	s4,s4,0x1a98
bfc034ec:	1614113d 	bne	s0,s4,bfc079e4 <inst_error>
bfc034f0:	00000000 	nop
bfc034f4:	3c151baf 	lui	s5,0x1baf
bfc034f8:	36b53e24 	ori	s5,s5,0x3e24
bfc034fc:	16551139 	bne	s2,s5,bfc079e4 <inst_error>
bfc03500:	00000000 	nop
bfc03504:	3c0c3ee4 	lui	t4,0x3ee4
bfc03508:	358c54a0 	ori	t4,t4,0x54a0
bfc0350c:	3c0d5114 	lui	t5,0x5114
bfc03510:	35ade086 	ori	t5,t5,0xe086
bfc03514:	24100000 	li	s0,0
bfc03518:	24120000 	li	s2,0
bfc0351c:	1000000a 	b	bfc03548 <main+0x3548>
bfc03520:	00000000 	nop
bfc03524:	3c103ee4 	lui	s0,0x3ee4
bfc03528:	361054a0 	ori	s0,s0,0x54a0
bfc0352c:	10000011 	b	bfc03574 <main+0x3574>
bfc03530:	00000000 	nop
bfc03534:	10000011 	b	bfc0357c <main+0x357c>
bfc03538:	00000000 	nop
bfc0353c:	00000021 	move	zero,zero
bfc03540:	00000021 	move	zero,zero
bfc03544:	00000021 	move	zero,zero
bfc03548:	1000fff6 	b	bfc03524 <main+0x3524>
bfc0354c:	00000000 	nop
bfc03550:	1000000a 	b	bfc0357c <main+0x357c>
bfc03554:	00000000 	nop
bfc03558:	00000021 	move	zero,zero
bfc0355c:	00000021 	move	zero,zero
bfc03560:	00000021 	move	zero,zero
bfc03564:	00000021 	move	zero,zero
bfc03568:	00000021 	move	zero,zero
bfc0356c:	00000021 	move	zero,zero
bfc03570:	00000021 	move	zero,zero
bfc03574:	3c125114 	lui	s2,0x5114
bfc03578:	3652e086 	ori	s2,s2,0xe086
bfc0357c:	00000000 	nop
bfc03580:	3c143ee4 	lui	s4,0x3ee4
bfc03584:	369454a0 	ori	s4,s4,0x54a0
bfc03588:	16141116 	bne	s0,s4,bfc079e4 <inst_error>
bfc0358c:	00000000 	nop
bfc03590:	3c155114 	lui	s5,0x5114
bfc03594:	36b5e086 	ori	s5,s5,0xe086
bfc03598:	16551112 	bne	s2,s5,bfc079e4 <inst_error>
bfc0359c:	00000000 	nop
bfc035a0:	3c0cfedc 	lui	t4,0xfedc
bfc035a4:	358cb9f2 	ori	t4,t4,0xb9f2
bfc035a8:	3c0d3ce0 	lui	t5,0x3ce0
bfc035ac:	35ad752c 	ori	t5,t5,0x752c
bfc035b0:	24100000 	li	s0,0
bfc035b4:	24120000 	li	s2,0
bfc035b8:	1000000a 	b	bfc035e4 <main+0x35e4>
bfc035bc:	00000000 	nop
bfc035c0:	3c10fedc 	lui	s0,0xfedc
bfc035c4:	3610b9f2 	ori	s0,s0,0xb9f2
bfc035c8:	10000011 	b	bfc03610 <main+0x3610>
bfc035cc:	00000000 	nop
bfc035d0:	10000011 	b	bfc03618 <main+0x3618>
bfc035d4:	00000000 	nop
bfc035d8:	00000021 	move	zero,zero
bfc035dc:	00000021 	move	zero,zero
bfc035e0:	00000021 	move	zero,zero
bfc035e4:	1000fff6 	b	bfc035c0 <main+0x35c0>
bfc035e8:	00000000 	nop
bfc035ec:	1000000a 	b	bfc03618 <main+0x3618>
bfc035f0:	00000000 	nop
bfc035f4:	00000021 	move	zero,zero
bfc035f8:	00000021 	move	zero,zero
bfc035fc:	00000021 	move	zero,zero
bfc03600:	00000021 	move	zero,zero
bfc03604:	00000021 	move	zero,zero
bfc03608:	00000021 	move	zero,zero
bfc0360c:	00000021 	move	zero,zero
bfc03610:	3c123ce0 	lui	s2,0x3ce0
bfc03614:	3652752c 	ori	s2,s2,0x752c
bfc03618:	00000000 	nop
bfc0361c:	3c14fedc 	lui	s4,0xfedc
bfc03620:	3694b9f2 	ori	s4,s4,0xb9f2
bfc03624:	161410ef 	bne	s0,s4,bfc079e4 <inst_error>
bfc03628:	00000000 	nop
bfc0362c:	3c153ce0 	lui	s5,0x3ce0
bfc03630:	36b5752c 	ori	s5,s5,0x752c
bfc03634:	165510eb 	bne	s2,s5,bfc079e4 <inst_error>
bfc03638:	00000000 	nop
bfc0363c:	3c0c8eeb 	lui	t4,0x8eeb
bfc03640:	358c4886 	ori	t4,t4,0x4886
bfc03644:	3c0d1f69 	lui	t5,0x1f69
bfc03648:	35ad0472 	ori	t5,t5,0x472
bfc0364c:	24100000 	li	s0,0
bfc03650:	24120000 	li	s2,0
bfc03654:	1000000a 	b	bfc03680 <main+0x3680>
bfc03658:	00000000 	nop
bfc0365c:	3c108eeb 	lui	s0,0x8eeb
bfc03660:	36104886 	ori	s0,s0,0x4886
bfc03664:	10000011 	b	bfc036ac <main+0x36ac>
bfc03668:	00000000 	nop
bfc0366c:	10000011 	b	bfc036b4 <main+0x36b4>
bfc03670:	00000000 	nop
bfc03674:	00000021 	move	zero,zero
bfc03678:	00000021 	move	zero,zero
bfc0367c:	00000021 	move	zero,zero
bfc03680:	1000fff6 	b	bfc0365c <main+0x365c>
bfc03684:	00000000 	nop
bfc03688:	1000000a 	b	bfc036b4 <main+0x36b4>
bfc0368c:	00000000 	nop
bfc03690:	00000021 	move	zero,zero
bfc03694:	00000021 	move	zero,zero
bfc03698:	00000021 	move	zero,zero
bfc0369c:	00000021 	move	zero,zero
bfc036a0:	00000021 	move	zero,zero
bfc036a4:	00000021 	move	zero,zero
bfc036a8:	00000021 	move	zero,zero
bfc036ac:	3c121f69 	lui	s2,0x1f69
bfc036b0:	36520472 	ori	s2,s2,0x472
bfc036b4:	00000000 	nop
bfc036b8:	3c148eeb 	lui	s4,0x8eeb
bfc036bc:	36944886 	ori	s4,s4,0x4886
bfc036c0:	161410c8 	bne	s0,s4,bfc079e4 <inst_error>
bfc036c4:	00000000 	nop
bfc036c8:	3c151f69 	lui	s5,0x1f69
bfc036cc:	36b50472 	ori	s5,s5,0x472
bfc036d0:	165510c4 	bne	s2,s5,bfc079e4 <inst_error>
bfc036d4:	00000000 	nop
bfc036d8:	3c0cdf3c 	lui	t4,0xdf3c
bfc036dc:	358cde26 	ori	t4,t4,0xde26
bfc036e0:	3c0d5fa6 	lui	t5,0x5fa6
bfc036e4:	35ad6dd0 	ori	t5,t5,0x6dd0
bfc036e8:	24100000 	li	s0,0
bfc036ec:	24120000 	li	s2,0
bfc036f0:	1000000a 	b	bfc0371c <main+0x371c>
bfc036f4:	00000000 	nop
bfc036f8:	3c10df3c 	lui	s0,0xdf3c
bfc036fc:	3610de26 	ori	s0,s0,0xde26
bfc03700:	10000011 	b	bfc03748 <main+0x3748>
bfc03704:	00000000 	nop
bfc03708:	10000011 	b	bfc03750 <main+0x3750>
bfc0370c:	00000000 	nop
bfc03710:	00000021 	move	zero,zero
bfc03714:	00000021 	move	zero,zero
bfc03718:	00000021 	move	zero,zero
bfc0371c:	1000fff6 	b	bfc036f8 <main+0x36f8>
bfc03720:	00000000 	nop
bfc03724:	1000000a 	b	bfc03750 <main+0x3750>
bfc03728:	00000000 	nop
bfc0372c:	00000021 	move	zero,zero
bfc03730:	00000021 	move	zero,zero
bfc03734:	00000021 	move	zero,zero
bfc03738:	00000021 	move	zero,zero
bfc0373c:	00000021 	move	zero,zero
bfc03740:	00000021 	move	zero,zero
bfc03744:	00000021 	move	zero,zero
bfc03748:	3c125fa6 	lui	s2,0x5fa6
bfc0374c:	36526dd0 	ori	s2,s2,0x6dd0
bfc03750:	00000000 	nop
bfc03754:	3c14df3c 	lui	s4,0xdf3c
bfc03758:	3694de26 	ori	s4,s4,0xde26
bfc0375c:	161410a1 	bne	s0,s4,bfc079e4 <inst_error>
bfc03760:	00000000 	nop
bfc03764:	3c155fa6 	lui	s5,0x5fa6
bfc03768:	36b56dd0 	ori	s5,s5,0x6dd0
bfc0376c:	1655109d 	bne	s2,s5,bfc079e4 <inst_error>
bfc03770:	00000000 	nop
bfc03774:	3c0cb340 	lui	t4,0xb340
bfc03778:	358c17a8 	ori	t4,t4,0x17a8
bfc0377c:	3c0d04ab 	lui	t5,0x4ab
bfc03780:	35ad056a 	ori	t5,t5,0x56a
bfc03784:	24100000 	li	s0,0
bfc03788:	24120000 	li	s2,0
bfc0378c:	1000000a 	b	bfc037b8 <main+0x37b8>
bfc03790:	00000000 	nop
bfc03794:	3c10b340 	lui	s0,0xb340
bfc03798:	361017a8 	ori	s0,s0,0x17a8
bfc0379c:	10000011 	b	bfc037e4 <main+0x37e4>
bfc037a0:	00000000 	nop
bfc037a4:	10000011 	b	bfc037ec <main+0x37ec>
bfc037a8:	00000000 	nop
bfc037ac:	00000021 	move	zero,zero
bfc037b0:	00000021 	move	zero,zero
bfc037b4:	00000021 	move	zero,zero
bfc037b8:	1000fff6 	b	bfc03794 <main+0x3794>
bfc037bc:	00000000 	nop
bfc037c0:	1000000a 	b	bfc037ec <main+0x37ec>
bfc037c4:	00000000 	nop
bfc037c8:	00000021 	move	zero,zero
bfc037cc:	00000021 	move	zero,zero
bfc037d0:	00000021 	move	zero,zero
bfc037d4:	00000021 	move	zero,zero
bfc037d8:	00000021 	move	zero,zero
bfc037dc:	00000021 	move	zero,zero
bfc037e0:	00000021 	move	zero,zero
bfc037e4:	3c1204ab 	lui	s2,0x4ab
bfc037e8:	3652056a 	ori	s2,s2,0x56a
bfc037ec:	00000000 	nop
bfc037f0:	3c14b340 	lui	s4,0xb340
bfc037f4:	369417a8 	ori	s4,s4,0x17a8
bfc037f8:	1614107a 	bne	s0,s4,bfc079e4 <inst_error>
bfc037fc:	00000000 	nop
bfc03800:	3c1504ab 	lui	s5,0x4ab
bfc03804:	36b5056a 	ori	s5,s5,0x56a
bfc03808:	16551076 	bne	s2,s5,bfc079e4 <inst_error>
bfc0380c:	00000000 	nop
bfc03810:	3c0cb83c 	lui	t4,0xb83c
bfc03814:	358c5dc0 	ori	t4,t4,0x5dc0
bfc03818:	3c0d3ec8 	lui	t5,0x3ec8
bfc0381c:	35addf21 	ori	t5,t5,0xdf21
bfc03820:	24100000 	li	s0,0
bfc03824:	24120000 	li	s2,0
bfc03828:	1000000a 	b	bfc03854 <main+0x3854>
bfc0382c:	00000000 	nop
bfc03830:	3c10b83c 	lui	s0,0xb83c
bfc03834:	36105dc0 	ori	s0,s0,0x5dc0
bfc03838:	10000011 	b	bfc03880 <main+0x3880>
bfc0383c:	00000000 	nop
bfc03840:	10000011 	b	bfc03888 <main+0x3888>
bfc03844:	00000000 	nop
bfc03848:	00000021 	move	zero,zero
bfc0384c:	00000021 	move	zero,zero
bfc03850:	00000021 	move	zero,zero
bfc03854:	1000fff6 	b	bfc03830 <main+0x3830>
bfc03858:	00000000 	nop
bfc0385c:	1000000a 	b	bfc03888 <main+0x3888>
bfc03860:	00000000 	nop
bfc03864:	00000021 	move	zero,zero
bfc03868:	00000021 	move	zero,zero
bfc0386c:	00000021 	move	zero,zero
bfc03870:	00000021 	move	zero,zero
bfc03874:	00000021 	move	zero,zero
bfc03878:	00000021 	move	zero,zero
bfc0387c:	00000021 	move	zero,zero
bfc03880:	3c123ec8 	lui	s2,0x3ec8
bfc03884:	3652df21 	ori	s2,s2,0xdf21
bfc03888:	00000000 	nop
bfc0388c:	3c14b83c 	lui	s4,0xb83c
bfc03890:	36945dc0 	ori	s4,s4,0x5dc0
bfc03894:	16141053 	bne	s0,s4,bfc079e4 <inst_error>
bfc03898:	00000000 	nop
bfc0389c:	3c153ec8 	lui	s5,0x3ec8
bfc038a0:	36b5df21 	ori	s5,s5,0xdf21
bfc038a4:	1655104f 	bne	s2,s5,bfc079e4 <inst_error>
bfc038a8:	00000000 	nop
bfc038ac:	3c0cf2d3 	lui	t4,0xf2d3
bfc038b0:	358c8780 	ori	t4,t4,0x8780
bfc038b4:	3c0d38da 	lui	t5,0x38da
bfc038b8:	35adcda4 	ori	t5,t5,0xcda4
bfc038bc:	24100000 	li	s0,0
bfc038c0:	24120000 	li	s2,0
bfc038c4:	1000000a 	b	bfc038f0 <main+0x38f0>
bfc038c8:	00000000 	nop
bfc038cc:	3c10f2d3 	lui	s0,0xf2d3
bfc038d0:	36108780 	ori	s0,s0,0x8780
bfc038d4:	10000011 	b	bfc0391c <main+0x391c>
bfc038d8:	00000000 	nop
bfc038dc:	10000011 	b	bfc03924 <main+0x3924>
bfc038e0:	00000000 	nop
bfc038e4:	00000021 	move	zero,zero
bfc038e8:	00000021 	move	zero,zero
bfc038ec:	00000021 	move	zero,zero
bfc038f0:	1000fff6 	b	bfc038cc <main+0x38cc>
bfc038f4:	00000000 	nop
bfc038f8:	1000000a 	b	bfc03924 <main+0x3924>
bfc038fc:	00000000 	nop
bfc03900:	00000021 	move	zero,zero
bfc03904:	00000021 	move	zero,zero
bfc03908:	00000021 	move	zero,zero
bfc0390c:	00000021 	move	zero,zero
bfc03910:	00000021 	move	zero,zero
bfc03914:	00000021 	move	zero,zero
bfc03918:	00000021 	move	zero,zero
bfc0391c:	3c1238da 	lui	s2,0x38da
bfc03920:	3652cda4 	ori	s2,s2,0xcda4
bfc03924:	00000000 	nop
bfc03928:	3c14f2d3 	lui	s4,0xf2d3
bfc0392c:	36948780 	ori	s4,s4,0x8780
bfc03930:	1614102c 	bne	s0,s4,bfc079e4 <inst_error>
bfc03934:	00000000 	nop
bfc03938:	3c1538da 	lui	s5,0x38da
bfc0393c:	36b5cda4 	ori	s5,s5,0xcda4
bfc03940:	16551028 	bne	s2,s5,bfc079e4 <inst_error>
bfc03944:	00000000 	nop
bfc03948:	3c0c78c3 	lui	t4,0x78c3
bfc0394c:	358cb84c 	ori	t4,t4,0xb84c
bfc03950:	3c0df01d 	lui	t5,0xf01d
bfc03954:	35ad03e0 	ori	t5,t5,0x3e0
bfc03958:	24100000 	li	s0,0
bfc0395c:	24120000 	li	s2,0
bfc03960:	1000000a 	b	bfc0398c <main+0x398c>
bfc03964:	00000000 	nop
bfc03968:	3c1078c3 	lui	s0,0x78c3
bfc0396c:	3610b84c 	ori	s0,s0,0xb84c
bfc03970:	10000011 	b	bfc039b8 <main+0x39b8>
bfc03974:	00000000 	nop
bfc03978:	10000011 	b	bfc039c0 <main+0x39c0>
bfc0397c:	00000000 	nop
bfc03980:	00000021 	move	zero,zero
bfc03984:	00000021 	move	zero,zero
bfc03988:	00000021 	move	zero,zero
bfc0398c:	1000fff6 	b	bfc03968 <main+0x3968>
bfc03990:	00000000 	nop
bfc03994:	1000000a 	b	bfc039c0 <main+0x39c0>
bfc03998:	00000000 	nop
bfc0399c:	00000021 	move	zero,zero
bfc039a0:	00000021 	move	zero,zero
bfc039a4:	00000021 	move	zero,zero
bfc039a8:	00000021 	move	zero,zero
bfc039ac:	00000021 	move	zero,zero
bfc039b0:	00000021 	move	zero,zero
bfc039b4:	00000021 	move	zero,zero
bfc039b8:	3c12f01d 	lui	s2,0xf01d
bfc039bc:	365203e0 	ori	s2,s2,0x3e0
bfc039c0:	00000000 	nop
bfc039c4:	3c1478c3 	lui	s4,0x78c3
bfc039c8:	3694b84c 	ori	s4,s4,0xb84c
bfc039cc:	16141005 	bne	s0,s4,bfc079e4 <inst_error>
bfc039d0:	00000000 	nop
bfc039d4:	3c15f01d 	lui	s5,0xf01d
bfc039d8:	36b503e0 	ori	s5,s5,0x3e0
bfc039dc:	16551001 	bne	s2,s5,bfc079e4 <inst_error>
bfc039e0:	00000000 	nop
bfc039e4:	3c0cdf1c 	lui	t4,0xdf1c
bfc039e8:	358c051e 	ori	t4,t4,0x51e
bfc039ec:	3c0d4806 	lui	t5,0x4806
bfc039f0:	35ad57c0 	ori	t5,t5,0x57c0
bfc039f4:	24100000 	li	s0,0
bfc039f8:	24120000 	li	s2,0
bfc039fc:	1000000a 	b	bfc03a28 <main+0x3a28>
bfc03a00:	00000000 	nop
bfc03a04:	3c10df1c 	lui	s0,0xdf1c
bfc03a08:	3610051e 	ori	s0,s0,0x51e
bfc03a0c:	10000011 	b	bfc03a54 <main+0x3a54>
bfc03a10:	00000000 	nop
bfc03a14:	10000011 	b	bfc03a5c <main+0x3a5c>
bfc03a18:	00000000 	nop
bfc03a1c:	00000021 	move	zero,zero
bfc03a20:	00000021 	move	zero,zero
bfc03a24:	00000021 	move	zero,zero
bfc03a28:	1000fff6 	b	bfc03a04 <main+0x3a04>
bfc03a2c:	00000000 	nop
bfc03a30:	1000000a 	b	bfc03a5c <main+0x3a5c>
bfc03a34:	00000000 	nop
bfc03a38:	00000021 	move	zero,zero
bfc03a3c:	00000021 	move	zero,zero
bfc03a40:	00000021 	move	zero,zero
bfc03a44:	00000021 	move	zero,zero
bfc03a48:	00000021 	move	zero,zero
bfc03a4c:	00000021 	move	zero,zero
bfc03a50:	00000021 	move	zero,zero
bfc03a54:	3c124806 	lui	s2,0x4806
bfc03a58:	365257c0 	ori	s2,s2,0x57c0
bfc03a5c:	00000000 	nop
bfc03a60:	3c14df1c 	lui	s4,0xdf1c
bfc03a64:	3694051e 	ori	s4,s4,0x51e
bfc03a68:	16140fde 	bne	s0,s4,bfc079e4 <inst_error>
bfc03a6c:	00000000 	nop
bfc03a70:	3c154806 	lui	s5,0x4806
bfc03a74:	36b557c0 	ori	s5,s5,0x57c0
bfc03a78:	16550fda 	bne	s2,s5,bfc079e4 <inst_error>
bfc03a7c:	00000000 	nop
bfc03a80:	3c0c019c 	lui	t4,0x19c
bfc03a84:	358cd5bc 	ori	t4,t4,0xd5bc
bfc03a88:	3c0d81b2 	lui	t5,0x81b2
bfc03a8c:	35ad19e2 	ori	t5,t5,0x19e2
bfc03a90:	24100000 	li	s0,0
bfc03a94:	24120000 	li	s2,0
bfc03a98:	1000000a 	b	bfc03ac4 <main+0x3ac4>
bfc03a9c:	00000000 	nop
bfc03aa0:	3c10019c 	lui	s0,0x19c
bfc03aa4:	3610d5bc 	ori	s0,s0,0xd5bc
bfc03aa8:	10000011 	b	bfc03af0 <main+0x3af0>
bfc03aac:	00000000 	nop
bfc03ab0:	10000011 	b	bfc03af8 <main+0x3af8>
bfc03ab4:	00000000 	nop
bfc03ab8:	00000021 	move	zero,zero
bfc03abc:	00000021 	move	zero,zero
bfc03ac0:	00000021 	move	zero,zero
bfc03ac4:	1000fff6 	b	bfc03aa0 <main+0x3aa0>
bfc03ac8:	00000000 	nop
bfc03acc:	1000000a 	b	bfc03af8 <main+0x3af8>
bfc03ad0:	00000000 	nop
bfc03ad4:	00000021 	move	zero,zero
bfc03ad8:	00000021 	move	zero,zero
bfc03adc:	00000021 	move	zero,zero
bfc03ae0:	00000021 	move	zero,zero
bfc03ae4:	00000021 	move	zero,zero
bfc03ae8:	00000021 	move	zero,zero
bfc03aec:	00000021 	move	zero,zero
bfc03af0:	3c1281b2 	lui	s2,0x81b2
bfc03af4:	365219e2 	ori	s2,s2,0x19e2
bfc03af8:	00000000 	nop
bfc03afc:	3c14019c 	lui	s4,0x19c
bfc03b00:	3694d5bc 	ori	s4,s4,0xd5bc
bfc03b04:	16140fb7 	bne	s0,s4,bfc079e4 <inst_error>
bfc03b08:	00000000 	nop
bfc03b0c:	3c1581b2 	lui	s5,0x81b2
bfc03b10:	36b519e2 	ori	s5,s5,0x19e2
bfc03b14:	16550fb3 	bne	s2,s5,bfc079e4 <inst_error>
bfc03b18:	00000000 	nop
bfc03b1c:	3c0c4607 	lui	t4,0x4607
bfc03b20:	358c3400 	ori	t4,t4,0x3400
bfc03b24:	3c0d1411 	lui	t5,0x1411
bfc03b28:	35ad6cee 	ori	t5,t5,0x6cee
bfc03b2c:	24100000 	li	s0,0
bfc03b30:	24120000 	li	s2,0
bfc03b34:	1000000a 	b	bfc03b60 <main+0x3b60>
bfc03b38:	00000000 	nop
bfc03b3c:	3c104607 	lui	s0,0x4607
bfc03b40:	36103400 	ori	s0,s0,0x3400
bfc03b44:	10000011 	b	bfc03b8c <main+0x3b8c>
bfc03b48:	00000000 	nop
bfc03b4c:	10000011 	b	bfc03b94 <main+0x3b94>
bfc03b50:	00000000 	nop
bfc03b54:	00000021 	move	zero,zero
bfc03b58:	00000021 	move	zero,zero
bfc03b5c:	00000021 	move	zero,zero
bfc03b60:	1000fff6 	b	bfc03b3c <main+0x3b3c>
bfc03b64:	00000000 	nop
bfc03b68:	1000000a 	b	bfc03b94 <main+0x3b94>
bfc03b6c:	00000000 	nop
bfc03b70:	00000021 	move	zero,zero
bfc03b74:	00000021 	move	zero,zero
bfc03b78:	00000021 	move	zero,zero
bfc03b7c:	00000021 	move	zero,zero
bfc03b80:	00000021 	move	zero,zero
bfc03b84:	00000021 	move	zero,zero
bfc03b88:	00000021 	move	zero,zero
bfc03b8c:	3c121411 	lui	s2,0x1411
bfc03b90:	36526cee 	ori	s2,s2,0x6cee
bfc03b94:	00000000 	nop
bfc03b98:	3c144607 	lui	s4,0x4607
bfc03b9c:	36943400 	ori	s4,s4,0x3400
bfc03ba0:	16140f90 	bne	s0,s4,bfc079e4 <inst_error>
bfc03ba4:	00000000 	nop
bfc03ba8:	3c151411 	lui	s5,0x1411
bfc03bac:	36b56cee 	ori	s5,s5,0x6cee
bfc03bb0:	16550f8c 	bne	s2,s5,bfc079e4 <inst_error>
bfc03bb4:	00000000 	nop
bfc03bb8:	3c0cf90a 	lui	t4,0xf90a
bfc03bbc:	358cbd90 	ori	t4,t4,0xbd90
bfc03bc0:	3c0de3ae 	lui	t5,0xe3ae
bfc03bc4:	35ad9e38 	ori	t5,t5,0x9e38
bfc03bc8:	24100000 	li	s0,0
bfc03bcc:	24120000 	li	s2,0
bfc03bd0:	1000000a 	b	bfc03bfc <main+0x3bfc>
bfc03bd4:	00000000 	nop
bfc03bd8:	3c10f90a 	lui	s0,0xf90a
bfc03bdc:	3610bd90 	ori	s0,s0,0xbd90
bfc03be0:	10000011 	b	bfc03c28 <main+0x3c28>
bfc03be4:	00000000 	nop
bfc03be8:	10000011 	b	bfc03c30 <main+0x3c30>
bfc03bec:	00000000 	nop
bfc03bf0:	00000021 	move	zero,zero
bfc03bf4:	00000021 	move	zero,zero
bfc03bf8:	00000021 	move	zero,zero
bfc03bfc:	1000fff6 	b	bfc03bd8 <main+0x3bd8>
bfc03c00:	00000000 	nop
bfc03c04:	1000000a 	b	bfc03c30 <main+0x3c30>
bfc03c08:	00000000 	nop
bfc03c0c:	00000021 	move	zero,zero
bfc03c10:	00000021 	move	zero,zero
bfc03c14:	00000021 	move	zero,zero
bfc03c18:	00000021 	move	zero,zero
bfc03c1c:	00000021 	move	zero,zero
bfc03c20:	00000021 	move	zero,zero
bfc03c24:	00000021 	move	zero,zero
bfc03c28:	3c12e3ae 	lui	s2,0xe3ae
bfc03c2c:	36529e38 	ori	s2,s2,0x9e38
bfc03c30:	00000000 	nop
bfc03c34:	3c14f90a 	lui	s4,0xf90a
bfc03c38:	3694bd90 	ori	s4,s4,0xbd90
bfc03c3c:	16140f69 	bne	s0,s4,bfc079e4 <inst_error>
bfc03c40:	00000000 	nop
bfc03c44:	3c15e3ae 	lui	s5,0xe3ae
bfc03c48:	36b59e38 	ori	s5,s5,0x9e38
bfc03c4c:	16550f65 	bne	s2,s5,bfc079e4 <inst_error>
bfc03c50:	00000000 	nop
bfc03c54:	3c0c2f59 	lui	t4,0x2f59
bfc03c58:	358c5748 	ori	t4,t4,0x5748
bfc03c5c:	3c0d322f 	lui	t5,0x322f
bfc03c60:	35ad3db0 	ori	t5,t5,0x3db0
bfc03c64:	24100000 	li	s0,0
bfc03c68:	24120000 	li	s2,0
bfc03c6c:	1000000a 	b	bfc03c98 <main+0x3c98>
bfc03c70:	00000000 	nop
bfc03c74:	3c102f59 	lui	s0,0x2f59
bfc03c78:	36105748 	ori	s0,s0,0x5748
bfc03c7c:	10000011 	b	bfc03cc4 <main+0x3cc4>
bfc03c80:	00000000 	nop
bfc03c84:	10000011 	b	bfc03ccc <main+0x3ccc>
bfc03c88:	00000000 	nop
bfc03c8c:	00000021 	move	zero,zero
bfc03c90:	00000021 	move	zero,zero
bfc03c94:	00000021 	move	zero,zero
bfc03c98:	1000fff6 	b	bfc03c74 <main+0x3c74>
bfc03c9c:	00000000 	nop
bfc03ca0:	1000000a 	b	bfc03ccc <main+0x3ccc>
bfc03ca4:	00000000 	nop
bfc03ca8:	00000021 	move	zero,zero
bfc03cac:	00000021 	move	zero,zero
bfc03cb0:	00000021 	move	zero,zero
bfc03cb4:	00000021 	move	zero,zero
bfc03cb8:	00000021 	move	zero,zero
bfc03cbc:	00000021 	move	zero,zero
bfc03cc0:	00000021 	move	zero,zero
bfc03cc4:	3c12322f 	lui	s2,0x322f
bfc03cc8:	36523db0 	ori	s2,s2,0x3db0
bfc03ccc:	00000000 	nop
bfc03cd0:	3c142f59 	lui	s4,0x2f59
bfc03cd4:	36945748 	ori	s4,s4,0x5748
bfc03cd8:	16140f42 	bne	s0,s4,bfc079e4 <inst_error>
bfc03cdc:	00000000 	nop
bfc03ce0:	3c15322f 	lui	s5,0x322f
bfc03ce4:	36b53db0 	ori	s5,s5,0x3db0
bfc03ce8:	16550f3e 	bne	s2,s5,bfc079e4 <inst_error>
bfc03cec:	00000000 	nop
bfc03cf0:	3c0c4f70 	lui	t4,0x4f70
bfc03cf4:	358c64d0 	ori	t4,t4,0x64d0
bfc03cf8:	3c0dd19d 	lui	t5,0xd19d
bfc03cfc:	35ad40bb 	ori	t5,t5,0x40bb
bfc03d00:	24100000 	li	s0,0
bfc03d04:	24120000 	li	s2,0
bfc03d08:	1000000a 	b	bfc03d34 <main+0x3d34>
bfc03d0c:	00000000 	nop
bfc03d10:	3c104f70 	lui	s0,0x4f70
bfc03d14:	361064d0 	ori	s0,s0,0x64d0
bfc03d18:	10000011 	b	bfc03d60 <main+0x3d60>
bfc03d1c:	00000000 	nop
bfc03d20:	10000011 	b	bfc03d68 <main+0x3d68>
bfc03d24:	00000000 	nop
bfc03d28:	00000021 	move	zero,zero
bfc03d2c:	00000021 	move	zero,zero
bfc03d30:	00000021 	move	zero,zero
bfc03d34:	1000fff6 	b	bfc03d10 <main+0x3d10>
bfc03d38:	00000000 	nop
bfc03d3c:	1000000a 	b	bfc03d68 <main+0x3d68>
bfc03d40:	00000000 	nop
bfc03d44:	00000021 	move	zero,zero
bfc03d48:	00000021 	move	zero,zero
bfc03d4c:	00000021 	move	zero,zero
bfc03d50:	00000021 	move	zero,zero
bfc03d54:	00000021 	move	zero,zero
bfc03d58:	00000021 	move	zero,zero
bfc03d5c:	00000021 	move	zero,zero
bfc03d60:	3c12d19d 	lui	s2,0xd19d
bfc03d64:	365240bb 	ori	s2,s2,0x40bb
bfc03d68:	00000000 	nop
bfc03d6c:	3c144f70 	lui	s4,0x4f70
bfc03d70:	369464d0 	ori	s4,s4,0x64d0
bfc03d74:	16140f1b 	bne	s0,s4,bfc079e4 <inst_error>
bfc03d78:	00000000 	nop
bfc03d7c:	3c15d19d 	lui	s5,0xd19d
bfc03d80:	36b540bb 	ori	s5,s5,0x40bb
bfc03d84:	16550f17 	bne	s2,s5,bfc079e4 <inst_error>
bfc03d88:	00000000 	nop
bfc03d8c:	3c0cb0a6 	lui	t4,0xb0a6
bfc03d90:	358c1578 	ori	t4,t4,0x1578
bfc03d94:	3c0d9b7c 	lui	t5,0x9b7c
bfc03d98:	35adab12 	ori	t5,t5,0xab12
bfc03d9c:	24100000 	li	s0,0
bfc03da0:	24120000 	li	s2,0
bfc03da4:	1000000a 	b	bfc03dd0 <main+0x3dd0>
bfc03da8:	00000000 	nop
bfc03dac:	3c10b0a6 	lui	s0,0xb0a6
bfc03db0:	36101578 	ori	s0,s0,0x1578
bfc03db4:	10000011 	b	bfc03dfc <main+0x3dfc>
bfc03db8:	00000000 	nop
bfc03dbc:	10000011 	b	bfc03e04 <main+0x3e04>
bfc03dc0:	00000000 	nop
bfc03dc4:	00000021 	move	zero,zero
bfc03dc8:	00000021 	move	zero,zero
bfc03dcc:	00000021 	move	zero,zero
bfc03dd0:	1000fff6 	b	bfc03dac <main+0x3dac>
bfc03dd4:	00000000 	nop
bfc03dd8:	1000000a 	b	bfc03e04 <main+0x3e04>
bfc03ddc:	00000000 	nop
bfc03de0:	00000021 	move	zero,zero
bfc03de4:	00000021 	move	zero,zero
bfc03de8:	00000021 	move	zero,zero
bfc03dec:	00000021 	move	zero,zero
bfc03df0:	00000021 	move	zero,zero
bfc03df4:	00000021 	move	zero,zero
bfc03df8:	00000021 	move	zero,zero
bfc03dfc:	3c129b7c 	lui	s2,0x9b7c
bfc03e00:	3652ab12 	ori	s2,s2,0xab12
bfc03e04:	00000000 	nop
bfc03e08:	3c14b0a6 	lui	s4,0xb0a6
bfc03e0c:	36941578 	ori	s4,s4,0x1578
bfc03e10:	16140ef4 	bne	s0,s4,bfc079e4 <inst_error>
bfc03e14:	00000000 	nop
bfc03e18:	3c159b7c 	lui	s5,0x9b7c
bfc03e1c:	36b5ab12 	ori	s5,s5,0xab12
bfc03e20:	16550ef0 	bne	s2,s5,bfc079e4 <inst_error>
bfc03e24:	00000000 	nop
bfc03e28:	3c0c37d9 	lui	t4,0x37d9
bfc03e2c:	358ccf70 	ori	t4,t4,0xcf70
bfc03e30:	3c0d14fb 	lui	t5,0x14fb
bfc03e34:	35aded08 	ori	t5,t5,0xed08
bfc03e38:	24100000 	li	s0,0
bfc03e3c:	24120000 	li	s2,0
bfc03e40:	1000000a 	b	bfc03e6c <main+0x3e6c>
bfc03e44:	00000000 	nop
bfc03e48:	3c1037d9 	lui	s0,0x37d9
bfc03e4c:	3610cf70 	ori	s0,s0,0xcf70
bfc03e50:	10000011 	b	bfc03e98 <main+0x3e98>
bfc03e54:	00000000 	nop
bfc03e58:	10000011 	b	bfc03ea0 <main+0x3ea0>
bfc03e5c:	00000000 	nop
bfc03e60:	00000021 	move	zero,zero
bfc03e64:	00000021 	move	zero,zero
bfc03e68:	00000021 	move	zero,zero
bfc03e6c:	1000fff6 	b	bfc03e48 <main+0x3e48>
bfc03e70:	00000000 	nop
bfc03e74:	1000000a 	b	bfc03ea0 <main+0x3ea0>
bfc03e78:	00000000 	nop
bfc03e7c:	00000021 	move	zero,zero
bfc03e80:	00000021 	move	zero,zero
bfc03e84:	00000021 	move	zero,zero
bfc03e88:	00000021 	move	zero,zero
bfc03e8c:	00000021 	move	zero,zero
bfc03e90:	00000021 	move	zero,zero
bfc03e94:	00000021 	move	zero,zero
bfc03e98:	3c1214fb 	lui	s2,0x14fb
bfc03e9c:	3652ed08 	ori	s2,s2,0xed08
bfc03ea0:	00000000 	nop
bfc03ea4:	3c1437d9 	lui	s4,0x37d9
bfc03ea8:	3694cf70 	ori	s4,s4,0xcf70
bfc03eac:	16140ecd 	bne	s0,s4,bfc079e4 <inst_error>
bfc03eb0:	00000000 	nop
bfc03eb4:	3c1514fb 	lui	s5,0x14fb
bfc03eb8:	36b5ed08 	ori	s5,s5,0xed08
bfc03ebc:	16550ec9 	bne	s2,s5,bfc079e4 <inst_error>
bfc03ec0:	00000000 	nop
bfc03ec4:	3c0caefb 	lui	t4,0xaefb
bfc03ec8:	358cfe00 	ori	t4,t4,0xfe00
bfc03ecc:	3c0d2ce8 	lui	t5,0x2ce8
bfc03ed0:	35ad1d90 	ori	t5,t5,0x1d90
bfc03ed4:	24100000 	li	s0,0
bfc03ed8:	24120000 	li	s2,0
bfc03edc:	1000000a 	b	bfc03f08 <main+0x3f08>
bfc03ee0:	00000000 	nop
bfc03ee4:	3c10aefb 	lui	s0,0xaefb
bfc03ee8:	3610fe00 	ori	s0,s0,0xfe00
bfc03eec:	10000011 	b	bfc03f34 <main+0x3f34>
bfc03ef0:	00000000 	nop
bfc03ef4:	10000011 	b	bfc03f3c <main+0x3f3c>
bfc03ef8:	00000000 	nop
bfc03efc:	00000021 	move	zero,zero
bfc03f00:	00000021 	move	zero,zero
bfc03f04:	00000021 	move	zero,zero
bfc03f08:	1000fff6 	b	bfc03ee4 <main+0x3ee4>
bfc03f0c:	00000000 	nop
bfc03f10:	1000000a 	b	bfc03f3c <main+0x3f3c>
bfc03f14:	00000000 	nop
bfc03f18:	00000021 	move	zero,zero
bfc03f1c:	00000021 	move	zero,zero
bfc03f20:	00000021 	move	zero,zero
bfc03f24:	00000021 	move	zero,zero
bfc03f28:	00000021 	move	zero,zero
bfc03f2c:	00000021 	move	zero,zero
bfc03f30:	00000021 	move	zero,zero
bfc03f34:	3c122ce8 	lui	s2,0x2ce8
bfc03f38:	36521d90 	ori	s2,s2,0x1d90
bfc03f3c:	00000000 	nop
bfc03f40:	3c14aefb 	lui	s4,0xaefb
bfc03f44:	3694fe00 	ori	s4,s4,0xfe00
bfc03f48:	16140ea6 	bne	s0,s4,bfc079e4 <inst_error>
bfc03f4c:	00000000 	nop
bfc03f50:	3c152ce8 	lui	s5,0x2ce8
bfc03f54:	36b51d90 	ori	s5,s5,0x1d90
bfc03f58:	16550ea2 	bne	s2,s5,bfc079e4 <inst_error>
bfc03f5c:	00000000 	nop
bfc03f60:	3c0c33bb 	lui	t4,0x33bb
bfc03f64:	358c8cf0 	ori	t4,t4,0x8cf0
bfc03f68:	3c0d8181 	lui	t5,0x8181
bfc03f6c:	35ad8a0c 	ori	t5,t5,0x8a0c
bfc03f70:	24100000 	li	s0,0
bfc03f74:	24120000 	li	s2,0
bfc03f78:	1000000a 	b	bfc03fa4 <main+0x3fa4>
bfc03f7c:	00000000 	nop
bfc03f80:	3c1033bb 	lui	s0,0x33bb
bfc03f84:	36108cf0 	ori	s0,s0,0x8cf0
bfc03f88:	10000011 	b	bfc03fd0 <main+0x3fd0>
bfc03f8c:	00000000 	nop
bfc03f90:	10000011 	b	bfc03fd8 <main+0x3fd8>
bfc03f94:	00000000 	nop
bfc03f98:	00000021 	move	zero,zero
bfc03f9c:	00000021 	move	zero,zero
bfc03fa0:	00000021 	move	zero,zero
bfc03fa4:	1000fff6 	b	bfc03f80 <main+0x3f80>
bfc03fa8:	00000000 	nop
bfc03fac:	1000000a 	b	bfc03fd8 <main+0x3fd8>
bfc03fb0:	00000000 	nop
bfc03fb4:	00000021 	move	zero,zero
bfc03fb8:	00000021 	move	zero,zero
bfc03fbc:	00000021 	move	zero,zero
bfc03fc0:	00000021 	move	zero,zero
bfc03fc4:	00000021 	move	zero,zero
bfc03fc8:	00000021 	move	zero,zero
bfc03fcc:	00000021 	move	zero,zero
bfc03fd0:	3c128181 	lui	s2,0x8181
bfc03fd4:	36528a0c 	ori	s2,s2,0x8a0c
bfc03fd8:	00000000 	nop
bfc03fdc:	3c1433bb 	lui	s4,0x33bb
bfc03fe0:	36948cf0 	ori	s4,s4,0x8cf0
bfc03fe4:	16140e7f 	bne	s0,s4,bfc079e4 <inst_error>
bfc03fe8:	00000000 	nop
bfc03fec:	3c158181 	lui	s5,0x8181
bfc03ff0:	36b58a0c 	ori	s5,s5,0x8a0c
bfc03ff4:	16550e7b 	bne	s2,s5,bfc079e4 <inst_error>
bfc03ff8:	00000000 	nop
bfc03ffc:	3c0ce2d0 	lui	t4,0xe2d0
bfc04000:	358cfb60 	ori	t4,t4,0xfb60
bfc04004:	3c0dc656 	lui	t5,0xc656
bfc04008:	35ad4330 	ori	t5,t5,0x4330
bfc0400c:	24100000 	li	s0,0
bfc04010:	24120000 	li	s2,0
bfc04014:	1000000a 	b	bfc04040 <main+0x4040>
bfc04018:	00000000 	nop
bfc0401c:	3c10e2d0 	lui	s0,0xe2d0
bfc04020:	3610fb60 	ori	s0,s0,0xfb60
bfc04024:	10000011 	b	bfc0406c <main+0x406c>
bfc04028:	00000000 	nop
bfc0402c:	10000011 	b	bfc04074 <main+0x4074>
bfc04030:	00000000 	nop
bfc04034:	00000021 	move	zero,zero
bfc04038:	00000021 	move	zero,zero
bfc0403c:	00000021 	move	zero,zero
bfc04040:	1000fff6 	b	bfc0401c <main+0x401c>
bfc04044:	00000000 	nop
bfc04048:	1000000a 	b	bfc04074 <main+0x4074>
bfc0404c:	00000000 	nop
bfc04050:	00000021 	move	zero,zero
bfc04054:	00000021 	move	zero,zero
bfc04058:	00000021 	move	zero,zero
bfc0405c:	00000021 	move	zero,zero
bfc04060:	00000021 	move	zero,zero
bfc04064:	00000021 	move	zero,zero
bfc04068:	00000021 	move	zero,zero
bfc0406c:	3c12c656 	lui	s2,0xc656
bfc04070:	36524330 	ori	s2,s2,0x4330
bfc04074:	00000000 	nop
bfc04078:	3c14e2d0 	lui	s4,0xe2d0
bfc0407c:	3694fb60 	ori	s4,s4,0xfb60
bfc04080:	16140e58 	bne	s0,s4,bfc079e4 <inst_error>
bfc04084:	00000000 	nop
bfc04088:	3c15c656 	lui	s5,0xc656
bfc0408c:	36b54330 	ori	s5,s5,0x4330
bfc04090:	16550e54 	bne	s2,s5,bfc079e4 <inst_error>
bfc04094:	00000000 	nop
bfc04098:	3c0c75f3 	lui	t4,0x75f3
bfc0409c:	358ce4f8 	ori	t4,t4,0xe4f8
bfc040a0:	3c0de296 	lui	t5,0xe296
bfc040a4:	35ada2e0 	ori	t5,t5,0xa2e0
bfc040a8:	24100000 	li	s0,0
bfc040ac:	24120000 	li	s2,0
bfc040b0:	1000000a 	b	bfc040dc <main+0x40dc>
bfc040b4:	00000000 	nop
bfc040b8:	3c1075f3 	lui	s0,0x75f3
bfc040bc:	3610e4f8 	ori	s0,s0,0xe4f8
bfc040c0:	10000011 	b	bfc04108 <main+0x4108>
bfc040c4:	00000000 	nop
bfc040c8:	10000011 	b	bfc04110 <main+0x4110>
bfc040cc:	00000000 	nop
bfc040d0:	00000021 	move	zero,zero
bfc040d4:	00000021 	move	zero,zero
bfc040d8:	00000021 	move	zero,zero
bfc040dc:	1000fff6 	b	bfc040b8 <main+0x40b8>
bfc040e0:	00000000 	nop
bfc040e4:	1000000a 	b	bfc04110 <main+0x4110>
bfc040e8:	00000000 	nop
bfc040ec:	00000021 	move	zero,zero
bfc040f0:	00000021 	move	zero,zero
bfc040f4:	00000021 	move	zero,zero
bfc040f8:	00000021 	move	zero,zero
bfc040fc:	00000021 	move	zero,zero
bfc04100:	00000021 	move	zero,zero
bfc04104:	00000021 	move	zero,zero
bfc04108:	3c12e296 	lui	s2,0xe296
bfc0410c:	3652a2e0 	ori	s2,s2,0xa2e0
bfc04110:	00000000 	nop
bfc04114:	3c1475f3 	lui	s4,0x75f3
bfc04118:	3694e4f8 	ori	s4,s4,0xe4f8
bfc0411c:	16140e31 	bne	s0,s4,bfc079e4 <inst_error>
bfc04120:	00000000 	nop
bfc04124:	3c15e296 	lui	s5,0xe296
bfc04128:	36b5a2e0 	ori	s5,s5,0xa2e0
bfc0412c:	16550e2d 	bne	s2,s5,bfc079e4 <inst_error>
bfc04130:	00000000 	nop
bfc04134:	3c0ccec9 	lui	t4,0xcec9
bfc04138:	358c8738 	ori	t4,t4,0x8738
bfc0413c:	3c0dabf2 	lui	t5,0xabf2
bfc04140:	35ad004c 	ori	t5,t5,0x4c
bfc04144:	24100000 	li	s0,0
bfc04148:	24120000 	li	s2,0
bfc0414c:	1000000a 	b	bfc04178 <main+0x4178>
bfc04150:	00000000 	nop
bfc04154:	3c10cec9 	lui	s0,0xcec9
bfc04158:	36108738 	ori	s0,s0,0x8738
bfc0415c:	10000011 	b	bfc041a4 <main+0x41a4>
bfc04160:	00000000 	nop
bfc04164:	10000011 	b	bfc041ac <main+0x41ac>
bfc04168:	00000000 	nop
bfc0416c:	00000021 	move	zero,zero
bfc04170:	00000021 	move	zero,zero
bfc04174:	00000021 	move	zero,zero
bfc04178:	1000fff6 	b	bfc04154 <main+0x4154>
bfc0417c:	00000000 	nop
bfc04180:	1000000a 	b	bfc041ac <main+0x41ac>
bfc04184:	00000000 	nop
bfc04188:	00000021 	move	zero,zero
bfc0418c:	00000021 	move	zero,zero
bfc04190:	00000021 	move	zero,zero
bfc04194:	00000021 	move	zero,zero
bfc04198:	00000021 	move	zero,zero
bfc0419c:	00000021 	move	zero,zero
bfc041a0:	00000021 	move	zero,zero
bfc041a4:	3c12abf2 	lui	s2,0xabf2
bfc041a8:	3652004c 	ori	s2,s2,0x4c
bfc041ac:	00000000 	nop
bfc041b0:	3c14cec9 	lui	s4,0xcec9
bfc041b4:	36948738 	ori	s4,s4,0x8738
bfc041b8:	16140e0a 	bne	s0,s4,bfc079e4 <inst_error>
bfc041bc:	00000000 	nop
bfc041c0:	3c15abf2 	lui	s5,0xabf2
bfc041c4:	36b5004c 	ori	s5,s5,0x4c
bfc041c8:	16550e06 	bne	s2,s5,bfc079e4 <inst_error>
bfc041cc:	00000000 	nop
bfc041d0:	3c0cf68b 	lui	t4,0xf68b
bfc041d4:	358c5540 	ori	t4,t4,0x5540
bfc041d8:	3c0d2e05 	lui	t5,0x2e05
bfc041dc:	35ad5e65 	ori	t5,t5,0x5e65
bfc041e0:	24100000 	li	s0,0
bfc041e4:	24120000 	li	s2,0
bfc041e8:	1000000a 	b	bfc04214 <main+0x4214>
bfc041ec:	00000000 	nop
bfc041f0:	3c10f68b 	lui	s0,0xf68b
bfc041f4:	36105540 	ori	s0,s0,0x5540
bfc041f8:	10000011 	b	bfc04240 <main+0x4240>
bfc041fc:	00000000 	nop
bfc04200:	10000011 	b	bfc04248 <main+0x4248>
bfc04204:	00000000 	nop
bfc04208:	00000021 	move	zero,zero
bfc0420c:	00000021 	move	zero,zero
bfc04210:	00000021 	move	zero,zero
bfc04214:	1000fff6 	b	bfc041f0 <main+0x41f0>
bfc04218:	00000000 	nop
bfc0421c:	1000000a 	b	bfc04248 <main+0x4248>
bfc04220:	00000000 	nop
bfc04224:	00000021 	move	zero,zero
bfc04228:	00000021 	move	zero,zero
bfc0422c:	00000021 	move	zero,zero
bfc04230:	00000021 	move	zero,zero
bfc04234:	00000021 	move	zero,zero
bfc04238:	00000021 	move	zero,zero
bfc0423c:	00000021 	move	zero,zero
bfc04240:	3c122e05 	lui	s2,0x2e05
bfc04244:	36525e65 	ori	s2,s2,0x5e65
bfc04248:	00000000 	nop
bfc0424c:	3c14f68b 	lui	s4,0xf68b
bfc04250:	36945540 	ori	s4,s4,0x5540
bfc04254:	16140de3 	bne	s0,s4,bfc079e4 <inst_error>
bfc04258:	00000000 	nop
bfc0425c:	3c152e05 	lui	s5,0x2e05
bfc04260:	36b55e65 	ori	s5,s5,0x5e65
bfc04264:	16550ddf 	bne	s2,s5,bfc079e4 <inst_error>
bfc04268:	00000000 	nop
bfc0426c:	3c0c27b1 	lui	t4,0x27b1
bfc04270:	358c508a 	ori	t4,t4,0x508a
bfc04274:	3c0d1363 	lui	t5,0x1363
bfc04278:	35ad7e7c 	ori	t5,t5,0x7e7c
bfc0427c:	24100000 	li	s0,0
bfc04280:	24120000 	li	s2,0
bfc04284:	1000000a 	b	bfc042b0 <main+0x42b0>
bfc04288:	00000000 	nop
bfc0428c:	3c1027b1 	lui	s0,0x27b1
bfc04290:	3610508a 	ori	s0,s0,0x508a
bfc04294:	10000011 	b	bfc042dc <main+0x42dc>
bfc04298:	00000000 	nop
bfc0429c:	10000011 	b	bfc042e4 <main+0x42e4>
bfc042a0:	00000000 	nop
bfc042a4:	00000021 	move	zero,zero
bfc042a8:	00000021 	move	zero,zero
bfc042ac:	00000021 	move	zero,zero
bfc042b0:	1000fff6 	b	bfc0428c <main+0x428c>
bfc042b4:	00000000 	nop
bfc042b8:	1000000a 	b	bfc042e4 <main+0x42e4>
bfc042bc:	00000000 	nop
bfc042c0:	00000021 	move	zero,zero
bfc042c4:	00000021 	move	zero,zero
bfc042c8:	00000021 	move	zero,zero
bfc042cc:	00000021 	move	zero,zero
bfc042d0:	00000021 	move	zero,zero
bfc042d4:	00000021 	move	zero,zero
bfc042d8:	00000021 	move	zero,zero
bfc042dc:	3c121363 	lui	s2,0x1363
bfc042e0:	36527e7c 	ori	s2,s2,0x7e7c
bfc042e4:	00000000 	nop
bfc042e8:	3c1427b1 	lui	s4,0x27b1
bfc042ec:	3694508a 	ori	s4,s4,0x508a
bfc042f0:	16140dbc 	bne	s0,s4,bfc079e4 <inst_error>
bfc042f4:	00000000 	nop
bfc042f8:	3c151363 	lui	s5,0x1363
bfc042fc:	36b57e7c 	ori	s5,s5,0x7e7c
bfc04300:	16550db8 	bne	s2,s5,bfc079e4 <inst_error>
bfc04304:	00000000 	nop
bfc04308:	3c0c26c9 	lui	t4,0x26c9
bfc0430c:	358c9418 	ori	t4,t4,0x9418
bfc04310:	3c0de2ac 	lui	t5,0xe2ac
bfc04314:	35adf6df 	ori	t5,t5,0xf6df
bfc04318:	24100000 	li	s0,0
bfc0431c:	24120000 	li	s2,0
bfc04320:	1000000a 	b	bfc0434c <main+0x434c>
bfc04324:	00000000 	nop
bfc04328:	3c1026c9 	lui	s0,0x26c9
bfc0432c:	36109418 	ori	s0,s0,0x9418
bfc04330:	10000011 	b	bfc04378 <main+0x4378>
bfc04334:	00000000 	nop
bfc04338:	10000011 	b	bfc04380 <main+0x4380>
bfc0433c:	00000000 	nop
bfc04340:	00000021 	move	zero,zero
bfc04344:	00000021 	move	zero,zero
bfc04348:	00000021 	move	zero,zero
bfc0434c:	1000fff6 	b	bfc04328 <main+0x4328>
bfc04350:	00000000 	nop
bfc04354:	1000000a 	b	bfc04380 <main+0x4380>
bfc04358:	00000000 	nop
bfc0435c:	00000021 	move	zero,zero
bfc04360:	00000021 	move	zero,zero
bfc04364:	00000021 	move	zero,zero
bfc04368:	00000021 	move	zero,zero
bfc0436c:	00000021 	move	zero,zero
bfc04370:	00000021 	move	zero,zero
bfc04374:	00000021 	move	zero,zero
bfc04378:	3c12e2ac 	lui	s2,0xe2ac
bfc0437c:	3652f6df 	ori	s2,s2,0xf6df
bfc04380:	00000000 	nop
bfc04384:	3c1426c9 	lui	s4,0x26c9
bfc04388:	36949418 	ori	s4,s4,0x9418
bfc0438c:	16140d95 	bne	s0,s4,bfc079e4 <inst_error>
bfc04390:	00000000 	nop
bfc04394:	3c15e2ac 	lui	s5,0xe2ac
bfc04398:	36b5f6df 	ori	s5,s5,0xf6df
bfc0439c:	16550d91 	bne	s2,s5,bfc079e4 <inst_error>
bfc043a0:	00000000 	nop
bfc043a4:	3c0cbcad 	lui	t4,0xbcad
bfc043a8:	358ce2f0 	ori	t4,t4,0xe2f0
bfc043ac:	3c0daf8c 	lui	t5,0xaf8c
bfc043b0:	35ad6a4c 	ori	t5,t5,0x6a4c
bfc043b4:	24100000 	li	s0,0
bfc043b8:	24120000 	li	s2,0
bfc043bc:	1000000a 	b	bfc043e8 <main+0x43e8>
bfc043c0:	00000000 	nop
bfc043c4:	3c10bcad 	lui	s0,0xbcad
bfc043c8:	3610e2f0 	ori	s0,s0,0xe2f0
bfc043cc:	10000011 	b	bfc04414 <main+0x4414>
bfc043d0:	00000000 	nop
bfc043d4:	10000011 	b	bfc0441c <main+0x441c>
bfc043d8:	00000000 	nop
bfc043dc:	00000021 	move	zero,zero
bfc043e0:	00000021 	move	zero,zero
bfc043e4:	00000021 	move	zero,zero
bfc043e8:	1000fff6 	b	bfc043c4 <main+0x43c4>
bfc043ec:	00000000 	nop
bfc043f0:	1000000a 	b	bfc0441c <main+0x441c>
bfc043f4:	00000000 	nop
bfc043f8:	00000021 	move	zero,zero
bfc043fc:	00000021 	move	zero,zero
bfc04400:	00000021 	move	zero,zero
bfc04404:	00000021 	move	zero,zero
bfc04408:	00000021 	move	zero,zero
bfc0440c:	00000021 	move	zero,zero
bfc04410:	00000021 	move	zero,zero
bfc04414:	3c12af8c 	lui	s2,0xaf8c
bfc04418:	36526a4c 	ori	s2,s2,0x6a4c
bfc0441c:	00000000 	nop
bfc04420:	3c14bcad 	lui	s4,0xbcad
bfc04424:	3694e2f0 	ori	s4,s4,0xe2f0
bfc04428:	16140d6e 	bne	s0,s4,bfc079e4 <inst_error>
bfc0442c:	00000000 	nop
bfc04430:	3c15af8c 	lui	s5,0xaf8c
bfc04434:	36b56a4c 	ori	s5,s5,0x6a4c
bfc04438:	16550d6a 	bne	s2,s5,bfc079e4 <inst_error>
bfc0443c:	00000000 	nop
bfc04440:	3c0cd2dd 	lui	t4,0xd2dd
bfc04444:	358c0f7a 	ori	t4,t4,0xf7a
bfc04448:	3c0d0250 	lui	t5,0x250
bfc0444c:	35ad5358 	ori	t5,t5,0x5358
bfc04450:	24100000 	li	s0,0
bfc04454:	24120000 	li	s2,0
bfc04458:	1000000a 	b	bfc04484 <main+0x4484>
bfc0445c:	00000000 	nop
bfc04460:	3c10d2dd 	lui	s0,0xd2dd
bfc04464:	36100f7a 	ori	s0,s0,0xf7a
bfc04468:	10000011 	b	bfc044b0 <main+0x44b0>
bfc0446c:	00000000 	nop
bfc04470:	10000011 	b	bfc044b8 <main+0x44b8>
bfc04474:	00000000 	nop
bfc04478:	00000021 	move	zero,zero
bfc0447c:	00000021 	move	zero,zero
bfc04480:	00000021 	move	zero,zero
bfc04484:	1000fff6 	b	bfc04460 <main+0x4460>
bfc04488:	00000000 	nop
bfc0448c:	1000000a 	b	bfc044b8 <main+0x44b8>
bfc04490:	00000000 	nop
bfc04494:	00000021 	move	zero,zero
bfc04498:	00000021 	move	zero,zero
bfc0449c:	00000021 	move	zero,zero
bfc044a0:	00000021 	move	zero,zero
bfc044a4:	00000021 	move	zero,zero
bfc044a8:	00000021 	move	zero,zero
bfc044ac:	00000021 	move	zero,zero
bfc044b0:	3c120250 	lui	s2,0x250
bfc044b4:	36525358 	ori	s2,s2,0x5358
bfc044b8:	00000000 	nop
bfc044bc:	3c14d2dd 	lui	s4,0xd2dd
bfc044c0:	36940f7a 	ori	s4,s4,0xf7a
bfc044c4:	16140d47 	bne	s0,s4,bfc079e4 <inst_error>
bfc044c8:	00000000 	nop
bfc044cc:	3c150250 	lui	s5,0x250
bfc044d0:	36b55358 	ori	s5,s5,0x5358
bfc044d4:	16550d43 	bne	s2,s5,bfc079e4 <inst_error>
bfc044d8:	00000000 	nop
bfc044dc:	3c0cd42c 	lui	t4,0xd42c
bfc044e0:	358c4540 	ori	t4,t4,0x4540
bfc044e4:	3c0de947 	lui	t5,0xe947
bfc044e8:	35adf0cc 	ori	t5,t5,0xf0cc
bfc044ec:	24100000 	li	s0,0
bfc044f0:	24120000 	li	s2,0
bfc044f4:	1000000a 	b	bfc04520 <main+0x4520>
bfc044f8:	00000000 	nop
bfc044fc:	3c10d42c 	lui	s0,0xd42c
bfc04500:	36104540 	ori	s0,s0,0x4540
bfc04504:	10000011 	b	bfc0454c <main+0x454c>
bfc04508:	00000000 	nop
bfc0450c:	10000011 	b	bfc04554 <main+0x4554>
bfc04510:	00000000 	nop
bfc04514:	00000021 	move	zero,zero
bfc04518:	00000021 	move	zero,zero
bfc0451c:	00000021 	move	zero,zero
bfc04520:	1000fff6 	b	bfc044fc <main+0x44fc>
bfc04524:	00000000 	nop
bfc04528:	1000000a 	b	bfc04554 <main+0x4554>
bfc0452c:	00000000 	nop
bfc04530:	00000021 	move	zero,zero
bfc04534:	00000021 	move	zero,zero
bfc04538:	00000021 	move	zero,zero
bfc0453c:	00000021 	move	zero,zero
bfc04540:	00000021 	move	zero,zero
bfc04544:	00000021 	move	zero,zero
bfc04548:	00000021 	move	zero,zero
bfc0454c:	3c12e947 	lui	s2,0xe947
bfc04550:	3652f0cc 	ori	s2,s2,0xf0cc
bfc04554:	00000000 	nop
bfc04558:	3c14d42c 	lui	s4,0xd42c
bfc0455c:	36944540 	ori	s4,s4,0x4540
bfc04560:	16140d20 	bne	s0,s4,bfc079e4 <inst_error>
bfc04564:	00000000 	nop
bfc04568:	3c15e947 	lui	s5,0xe947
bfc0456c:	36b5f0cc 	ori	s5,s5,0xf0cc
bfc04570:	16550d1c 	bne	s2,s5,bfc079e4 <inst_error>
bfc04574:	00000000 	nop
bfc04578:	3c0c9f42 	lui	t4,0x9f42
bfc0457c:	358cd6b5 	ori	t4,t4,0xd6b5
bfc04580:	3c0d50fc 	lui	t5,0x50fc
bfc04584:	35ad1807 	ori	t5,t5,0x1807
bfc04588:	24100000 	li	s0,0
bfc0458c:	24120000 	li	s2,0
bfc04590:	1000000a 	b	bfc045bc <main+0x45bc>
bfc04594:	00000000 	nop
bfc04598:	3c109f42 	lui	s0,0x9f42
bfc0459c:	3610d6b5 	ori	s0,s0,0xd6b5
bfc045a0:	10000011 	b	bfc045e8 <main+0x45e8>
bfc045a4:	00000000 	nop
bfc045a8:	10000011 	b	bfc045f0 <main+0x45f0>
bfc045ac:	00000000 	nop
bfc045b0:	00000021 	move	zero,zero
bfc045b4:	00000021 	move	zero,zero
bfc045b8:	00000021 	move	zero,zero
bfc045bc:	1000fff6 	b	bfc04598 <main+0x4598>
bfc045c0:	00000000 	nop
bfc045c4:	1000000a 	b	bfc045f0 <main+0x45f0>
bfc045c8:	00000000 	nop
bfc045cc:	00000021 	move	zero,zero
bfc045d0:	00000021 	move	zero,zero
bfc045d4:	00000021 	move	zero,zero
bfc045d8:	00000021 	move	zero,zero
bfc045dc:	00000021 	move	zero,zero
bfc045e0:	00000021 	move	zero,zero
bfc045e4:	00000021 	move	zero,zero
bfc045e8:	3c1250fc 	lui	s2,0x50fc
bfc045ec:	36521807 	ori	s2,s2,0x1807
bfc045f0:	00000000 	nop
bfc045f4:	3c149f42 	lui	s4,0x9f42
bfc045f8:	3694d6b5 	ori	s4,s4,0xd6b5
bfc045fc:	16140cf9 	bne	s0,s4,bfc079e4 <inst_error>
bfc04600:	00000000 	nop
bfc04604:	3c1550fc 	lui	s5,0x50fc
bfc04608:	36b51807 	ori	s5,s5,0x1807
bfc0460c:	16550cf5 	bne	s2,s5,bfc079e4 <inst_error>
bfc04610:	00000000 	nop
bfc04614:	3c0ccfe3 	lui	t4,0xcfe3
bfc04618:	358c71c0 	ori	t4,t4,0x71c0
bfc0461c:	3c0dae3b 	lui	t5,0xae3b
bfc04620:	35adc880 	ori	t5,t5,0xc880
bfc04624:	24100000 	li	s0,0
bfc04628:	24120000 	li	s2,0
bfc0462c:	1000000a 	b	bfc04658 <main+0x4658>
bfc04630:	00000000 	nop
bfc04634:	3c10cfe3 	lui	s0,0xcfe3
bfc04638:	361071c0 	ori	s0,s0,0x71c0
bfc0463c:	10000011 	b	bfc04684 <main+0x4684>
bfc04640:	00000000 	nop
bfc04644:	10000011 	b	bfc0468c <main+0x468c>
bfc04648:	00000000 	nop
bfc0464c:	00000021 	move	zero,zero
bfc04650:	00000021 	move	zero,zero
bfc04654:	00000021 	move	zero,zero
bfc04658:	1000fff6 	b	bfc04634 <main+0x4634>
bfc0465c:	00000000 	nop
bfc04660:	1000000a 	b	bfc0468c <main+0x468c>
bfc04664:	00000000 	nop
bfc04668:	00000021 	move	zero,zero
bfc0466c:	00000021 	move	zero,zero
bfc04670:	00000021 	move	zero,zero
bfc04674:	00000021 	move	zero,zero
bfc04678:	00000021 	move	zero,zero
bfc0467c:	00000021 	move	zero,zero
bfc04680:	00000021 	move	zero,zero
bfc04684:	3c12ae3b 	lui	s2,0xae3b
bfc04688:	3652c880 	ori	s2,s2,0xc880
bfc0468c:	00000000 	nop
bfc04690:	3c14cfe3 	lui	s4,0xcfe3
bfc04694:	369471c0 	ori	s4,s4,0x71c0
bfc04698:	16140cd2 	bne	s0,s4,bfc079e4 <inst_error>
bfc0469c:	00000000 	nop
bfc046a0:	3c15ae3b 	lui	s5,0xae3b
bfc046a4:	36b5c880 	ori	s5,s5,0xc880
bfc046a8:	16550cce 	bne	s2,s5,bfc079e4 <inst_error>
bfc046ac:	00000000 	nop
bfc046b0:	3c0c9a8b 	lui	t4,0x9a8b
bfc046b4:	358c077c 	ori	t4,t4,0x77c
bfc046b8:	3c0d8584 	lui	t5,0x8584
bfc046bc:	35ad5e80 	ori	t5,t5,0x5e80
bfc046c0:	24100000 	li	s0,0
bfc046c4:	24120000 	li	s2,0
bfc046c8:	1000000a 	b	bfc046f4 <main+0x46f4>
bfc046cc:	00000000 	nop
bfc046d0:	3c109a8b 	lui	s0,0x9a8b
bfc046d4:	3610077c 	ori	s0,s0,0x77c
bfc046d8:	10000011 	b	bfc04720 <main+0x4720>
bfc046dc:	00000000 	nop
bfc046e0:	10000011 	b	bfc04728 <main+0x4728>
bfc046e4:	00000000 	nop
bfc046e8:	00000021 	move	zero,zero
bfc046ec:	00000021 	move	zero,zero
bfc046f0:	00000021 	move	zero,zero
bfc046f4:	1000fff6 	b	bfc046d0 <main+0x46d0>
bfc046f8:	00000000 	nop
bfc046fc:	1000000a 	b	bfc04728 <main+0x4728>
bfc04700:	00000000 	nop
bfc04704:	00000021 	move	zero,zero
bfc04708:	00000021 	move	zero,zero
bfc0470c:	00000021 	move	zero,zero
bfc04710:	00000021 	move	zero,zero
bfc04714:	00000021 	move	zero,zero
bfc04718:	00000021 	move	zero,zero
bfc0471c:	00000021 	move	zero,zero
bfc04720:	3c128584 	lui	s2,0x8584
bfc04724:	36525e80 	ori	s2,s2,0x5e80
bfc04728:	00000000 	nop
bfc0472c:	3c149a8b 	lui	s4,0x9a8b
bfc04730:	3694077c 	ori	s4,s4,0x77c
bfc04734:	16140cab 	bne	s0,s4,bfc079e4 <inst_error>
bfc04738:	00000000 	nop
bfc0473c:	3c158584 	lui	s5,0x8584
bfc04740:	36b55e80 	ori	s5,s5,0x5e80
bfc04744:	16550ca7 	bne	s2,s5,bfc079e4 <inst_error>
bfc04748:	00000000 	nop
bfc0474c:	3c0cbde4 	lui	t4,0xbde4
bfc04750:	358cd300 	ori	t4,t4,0xd300
bfc04754:	3c0dc71d 	lui	t5,0xc71d
bfc04758:	35ada18e 	ori	t5,t5,0xa18e
bfc0475c:	24100000 	li	s0,0
bfc04760:	24120000 	li	s2,0
bfc04764:	1000000a 	b	bfc04790 <main+0x4790>
bfc04768:	00000000 	nop
bfc0476c:	3c10bde4 	lui	s0,0xbde4
bfc04770:	3610d300 	ori	s0,s0,0xd300
bfc04774:	10000011 	b	bfc047bc <main+0x47bc>
bfc04778:	00000000 	nop
bfc0477c:	10000011 	b	bfc047c4 <main+0x47c4>
bfc04780:	00000000 	nop
bfc04784:	00000021 	move	zero,zero
bfc04788:	00000021 	move	zero,zero
bfc0478c:	00000021 	move	zero,zero
bfc04790:	1000fff6 	b	bfc0476c <main+0x476c>
bfc04794:	00000000 	nop
bfc04798:	1000000a 	b	bfc047c4 <main+0x47c4>
bfc0479c:	00000000 	nop
bfc047a0:	00000021 	move	zero,zero
bfc047a4:	00000021 	move	zero,zero
bfc047a8:	00000021 	move	zero,zero
bfc047ac:	00000021 	move	zero,zero
bfc047b0:	00000021 	move	zero,zero
bfc047b4:	00000021 	move	zero,zero
bfc047b8:	00000021 	move	zero,zero
bfc047bc:	3c12c71d 	lui	s2,0xc71d
bfc047c0:	3652a18e 	ori	s2,s2,0xa18e
bfc047c4:	00000000 	nop
bfc047c8:	3c14bde4 	lui	s4,0xbde4
bfc047cc:	3694d300 	ori	s4,s4,0xd300
bfc047d0:	16140c84 	bne	s0,s4,bfc079e4 <inst_error>
bfc047d4:	00000000 	nop
bfc047d8:	3c15c71d 	lui	s5,0xc71d
bfc047dc:	36b5a18e 	ori	s5,s5,0xa18e
bfc047e0:	16550c80 	bne	s2,s5,bfc079e4 <inst_error>
bfc047e4:	00000000 	nop
bfc047e8:	3c0c2a8d 	lui	t4,0x2a8d
bfc047ec:	358c7670 	ori	t4,t4,0x7670
bfc047f0:	3c0d342c 	lui	t5,0x342c
bfc047f4:	35ad7e80 	ori	t5,t5,0x7e80
bfc047f8:	24100000 	li	s0,0
bfc047fc:	24120000 	li	s2,0
bfc04800:	1000000a 	b	bfc0482c <main+0x482c>
bfc04804:	00000000 	nop
bfc04808:	3c102a8d 	lui	s0,0x2a8d
bfc0480c:	36107670 	ori	s0,s0,0x7670
bfc04810:	10000011 	b	bfc04858 <main+0x4858>
bfc04814:	00000000 	nop
bfc04818:	10000011 	b	bfc04860 <main+0x4860>
bfc0481c:	00000000 	nop
bfc04820:	00000021 	move	zero,zero
bfc04824:	00000021 	move	zero,zero
bfc04828:	00000021 	move	zero,zero
bfc0482c:	1000fff6 	b	bfc04808 <main+0x4808>
bfc04830:	00000000 	nop
bfc04834:	1000000a 	b	bfc04860 <main+0x4860>
bfc04838:	00000000 	nop
bfc0483c:	00000021 	move	zero,zero
bfc04840:	00000021 	move	zero,zero
bfc04844:	00000021 	move	zero,zero
bfc04848:	00000021 	move	zero,zero
bfc0484c:	00000021 	move	zero,zero
bfc04850:	00000021 	move	zero,zero
bfc04854:	00000021 	move	zero,zero
bfc04858:	3c12342c 	lui	s2,0x342c
bfc0485c:	36527e80 	ori	s2,s2,0x7e80
bfc04860:	00000000 	nop
bfc04864:	3c142a8d 	lui	s4,0x2a8d
bfc04868:	36947670 	ori	s4,s4,0x7670
bfc0486c:	16140c5d 	bne	s0,s4,bfc079e4 <inst_error>
bfc04870:	00000000 	nop
bfc04874:	3c15342c 	lui	s5,0x342c
bfc04878:	36b57e80 	ori	s5,s5,0x7e80
bfc0487c:	16550c59 	bne	s2,s5,bfc079e4 <inst_error>
bfc04880:	00000000 	nop
bfc04884:	3c0c1718 	lui	t4,0x1718
bfc04888:	358cb9de 	ori	t4,t4,0xb9de
bfc0488c:	3c0d62a3 	lui	t5,0x62a3
bfc04890:	35adcb74 	ori	t5,t5,0xcb74
bfc04894:	24100000 	li	s0,0
bfc04898:	24120000 	li	s2,0
bfc0489c:	1000000a 	b	bfc048c8 <main+0x48c8>
bfc048a0:	00000000 	nop
bfc048a4:	3c101718 	lui	s0,0x1718
bfc048a8:	3610b9de 	ori	s0,s0,0xb9de
bfc048ac:	10000011 	b	bfc048f4 <main+0x48f4>
bfc048b0:	00000000 	nop
bfc048b4:	10000011 	b	bfc048fc <main+0x48fc>
bfc048b8:	00000000 	nop
bfc048bc:	00000021 	move	zero,zero
bfc048c0:	00000021 	move	zero,zero
bfc048c4:	00000021 	move	zero,zero
bfc048c8:	1000fff6 	b	bfc048a4 <main+0x48a4>
bfc048cc:	00000000 	nop
bfc048d0:	1000000a 	b	bfc048fc <main+0x48fc>
bfc048d4:	00000000 	nop
bfc048d8:	00000021 	move	zero,zero
bfc048dc:	00000021 	move	zero,zero
bfc048e0:	00000021 	move	zero,zero
bfc048e4:	00000021 	move	zero,zero
bfc048e8:	00000021 	move	zero,zero
bfc048ec:	00000021 	move	zero,zero
bfc048f0:	00000021 	move	zero,zero
bfc048f4:	3c1262a3 	lui	s2,0x62a3
bfc048f8:	3652cb74 	ori	s2,s2,0xcb74
bfc048fc:	00000000 	nop
bfc04900:	3c141718 	lui	s4,0x1718
bfc04904:	3694b9de 	ori	s4,s4,0xb9de
bfc04908:	16140c36 	bne	s0,s4,bfc079e4 <inst_error>
bfc0490c:	00000000 	nop
bfc04910:	3c1562a3 	lui	s5,0x62a3
bfc04914:	36b5cb74 	ori	s5,s5,0xcb74
bfc04918:	16550c32 	bne	s2,s5,bfc079e4 <inst_error>
bfc0491c:	00000000 	nop
bfc04920:	3c0c8bc8 	lui	t4,0x8bc8
bfc04924:	358cb000 	ori	t4,t4,0xb000
bfc04928:	3c0df503 	lui	t5,0xf503
bfc0492c:	35ad7c60 	ori	t5,t5,0x7c60
bfc04930:	24100000 	li	s0,0
bfc04934:	24120000 	li	s2,0
bfc04938:	1000000a 	b	bfc04964 <main+0x4964>
bfc0493c:	00000000 	nop
bfc04940:	3c108bc8 	lui	s0,0x8bc8
bfc04944:	3610b000 	ori	s0,s0,0xb000
bfc04948:	10000011 	b	bfc04990 <main+0x4990>
bfc0494c:	00000000 	nop
bfc04950:	10000011 	b	bfc04998 <main+0x4998>
bfc04954:	00000000 	nop
bfc04958:	00000021 	move	zero,zero
bfc0495c:	00000021 	move	zero,zero
bfc04960:	00000021 	move	zero,zero
bfc04964:	1000fff6 	b	bfc04940 <main+0x4940>
bfc04968:	00000000 	nop
bfc0496c:	1000000a 	b	bfc04998 <main+0x4998>
bfc04970:	00000000 	nop
bfc04974:	00000021 	move	zero,zero
bfc04978:	00000021 	move	zero,zero
bfc0497c:	00000021 	move	zero,zero
bfc04980:	00000021 	move	zero,zero
bfc04984:	00000021 	move	zero,zero
bfc04988:	00000021 	move	zero,zero
bfc0498c:	00000021 	move	zero,zero
bfc04990:	3c12f503 	lui	s2,0xf503
bfc04994:	36527c60 	ori	s2,s2,0x7c60
bfc04998:	00000000 	nop
bfc0499c:	3c148bc8 	lui	s4,0x8bc8
bfc049a0:	3694b000 	ori	s4,s4,0xb000
bfc049a4:	16140c0f 	bne	s0,s4,bfc079e4 <inst_error>
bfc049a8:	00000000 	nop
bfc049ac:	3c15f503 	lui	s5,0xf503
bfc049b0:	36b57c60 	ori	s5,s5,0x7c60
bfc049b4:	16550c0b 	bne	s2,s5,bfc079e4 <inst_error>
bfc049b8:	00000000 	nop
bfc049bc:	3c0c1d34 	lui	t4,0x1d34
bfc049c0:	358c9520 	ori	t4,t4,0x9520
bfc049c4:	3c0d42aa 	lui	t5,0x42aa
bfc049c8:	35adf6d0 	ori	t5,t5,0xf6d0
bfc049cc:	24100000 	li	s0,0
bfc049d0:	24120000 	li	s2,0
bfc049d4:	1000000a 	b	bfc04a00 <main+0x4a00>
bfc049d8:	00000000 	nop
bfc049dc:	3c101d34 	lui	s0,0x1d34
bfc049e0:	36109520 	ori	s0,s0,0x9520
bfc049e4:	10000011 	b	bfc04a2c <main+0x4a2c>
bfc049e8:	00000000 	nop
bfc049ec:	10000011 	b	bfc04a34 <main+0x4a34>
bfc049f0:	00000000 	nop
bfc049f4:	00000021 	move	zero,zero
bfc049f8:	00000021 	move	zero,zero
bfc049fc:	00000021 	move	zero,zero
bfc04a00:	1000fff6 	b	bfc049dc <main+0x49dc>
bfc04a04:	00000000 	nop
bfc04a08:	1000000a 	b	bfc04a34 <main+0x4a34>
bfc04a0c:	00000000 	nop
bfc04a10:	00000021 	move	zero,zero
bfc04a14:	00000021 	move	zero,zero
bfc04a18:	00000021 	move	zero,zero
bfc04a1c:	00000021 	move	zero,zero
bfc04a20:	00000021 	move	zero,zero
bfc04a24:	00000021 	move	zero,zero
bfc04a28:	00000021 	move	zero,zero
bfc04a2c:	3c1242aa 	lui	s2,0x42aa
bfc04a30:	3652f6d0 	ori	s2,s2,0xf6d0
bfc04a34:	00000000 	nop
bfc04a38:	3c141d34 	lui	s4,0x1d34
bfc04a3c:	36949520 	ori	s4,s4,0x9520
bfc04a40:	16140be8 	bne	s0,s4,bfc079e4 <inst_error>
bfc04a44:	00000000 	nop
bfc04a48:	3c1542aa 	lui	s5,0x42aa
bfc04a4c:	36b5f6d0 	ori	s5,s5,0xf6d0
bfc04a50:	16550be4 	bne	s2,s5,bfc079e4 <inst_error>
bfc04a54:	00000000 	nop
bfc04a58:	3c0c9f7c 	lui	t4,0x9f7c
bfc04a5c:	358ceda0 	ori	t4,t4,0xeda0
bfc04a60:	3c0d097e 	lui	t5,0x97e
bfc04a64:	35add578 	ori	t5,t5,0xd578
bfc04a68:	24100000 	li	s0,0
bfc04a6c:	24120000 	li	s2,0
bfc04a70:	1000000a 	b	bfc04a9c <main+0x4a9c>
bfc04a74:	00000000 	nop
bfc04a78:	3c109f7c 	lui	s0,0x9f7c
bfc04a7c:	3610eda0 	ori	s0,s0,0xeda0
bfc04a80:	10000011 	b	bfc04ac8 <main+0x4ac8>
bfc04a84:	00000000 	nop
bfc04a88:	10000011 	b	bfc04ad0 <main+0x4ad0>
bfc04a8c:	00000000 	nop
bfc04a90:	00000021 	move	zero,zero
bfc04a94:	00000021 	move	zero,zero
bfc04a98:	00000021 	move	zero,zero
bfc04a9c:	1000fff6 	b	bfc04a78 <main+0x4a78>
bfc04aa0:	00000000 	nop
bfc04aa4:	1000000a 	b	bfc04ad0 <main+0x4ad0>
bfc04aa8:	00000000 	nop
bfc04aac:	00000021 	move	zero,zero
bfc04ab0:	00000021 	move	zero,zero
bfc04ab4:	00000021 	move	zero,zero
bfc04ab8:	00000021 	move	zero,zero
bfc04abc:	00000021 	move	zero,zero
bfc04ac0:	00000021 	move	zero,zero
bfc04ac4:	00000021 	move	zero,zero
bfc04ac8:	3c12097e 	lui	s2,0x97e
bfc04acc:	3652d578 	ori	s2,s2,0xd578
bfc04ad0:	00000000 	nop
bfc04ad4:	3c149f7c 	lui	s4,0x9f7c
bfc04ad8:	3694eda0 	ori	s4,s4,0xeda0
bfc04adc:	16140bc1 	bne	s0,s4,bfc079e4 <inst_error>
bfc04ae0:	00000000 	nop
bfc04ae4:	3c15097e 	lui	s5,0x97e
bfc04ae8:	36b5d578 	ori	s5,s5,0xd578
bfc04aec:	16550bbd 	bne	s2,s5,bfc079e4 <inst_error>
bfc04af0:	00000000 	nop
bfc04af4:	3c0caa06 	lui	t4,0xaa06
bfc04af8:	358c4de0 	ori	t4,t4,0x4de0
bfc04afc:	3c0db2b8 	lui	t5,0xb2b8
bfc04b00:	35ad2ebc 	ori	t5,t5,0x2ebc
bfc04b04:	24100000 	li	s0,0
bfc04b08:	24120000 	li	s2,0
bfc04b0c:	1000000a 	b	bfc04b38 <main+0x4b38>
bfc04b10:	00000000 	nop
bfc04b14:	3c10aa06 	lui	s0,0xaa06
bfc04b18:	36104de0 	ori	s0,s0,0x4de0
bfc04b1c:	10000011 	b	bfc04b64 <main+0x4b64>
bfc04b20:	00000000 	nop
bfc04b24:	10000011 	b	bfc04b6c <main+0x4b6c>
bfc04b28:	00000000 	nop
bfc04b2c:	00000021 	move	zero,zero
bfc04b30:	00000021 	move	zero,zero
bfc04b34:	00000021 	move	zero,zero
bfc04b38:	1000fff6 	b	bfc04b14 <main+0x4b14>
bfc04b3c:	00000000 	nop
bfc04b40:	1000000a 	b	bfc04b6c <main+0x4b6c>
bfc04b44:	00000000 	nop
bfc04b48:	00000021 	move	zero,zero
bfc04b4c:	00000021 	move	zero,zero
bfc04b50:	00000021 	move	zero,zero
bfc04b54:	00000021 	move	zero,zero
bfc04b58:	00000021 	move	zero,zero
bfc04b5c:	00000021 	move	zero,zero
bfc04b60:	00000021 	move	zero,zero
bfc04b64:	3c12b2b8 	lui	s2,0xb2b8
bfc04b68:	36522ebc 	ori	s2,s2,0x2ebc
bfc04b6c:	00000000 	nop
bfc04b70:	3c14aa06 	lui	s4,0xaa06
bfc04b74:	36944de0 	ori	s4,s4,0x4de0
bfc04b78:	16140b9a 	bne	s0,s4,bfc079e4 <inst_error>
bfc04b7c:	00000000 	nop
bfc04b80:	3c15b2b8 	lui	s5,0xb2b8
bfc04b84:	36b52ebc 	ori	s5,s5,0x2ebc
bfc04b88:	16550b96 	bne	s2,s5,bfc079e4 <inst_error>
bfc04b8c:	00000000 	nop
bfc04b90:	3c0ca267 	lui	t4,0xa267
bfc04b94:	358c9b76 	ori	t4,t4,0x9b76
bfc04b98:	3c0dab83 	lui	t5,0xab83
bfc04b9c:	35ad3f68 	ori	t5,t5,0x3f68
bfc04ba0:	24100000 	li	s0,0
bfc04ba4:	24120000 	li	s2,0
bfc04ba8:	1000000a 	b	bfc04bd4 <main+0x4bd4>
bfc04bac:	00000000 	nop
bfc04bb0:	3c10a267 	lui	s0,0xa267
bfc04bb4:	36109b76 	ori	s0,s0,0x9b76
bfc04bb8:	10000011 	b	bfc04c00 <main+0x4c00>
bfc04bbc:	00000000 	nop
bfc04bc0:	10000011 	b	bfc04c08 <main+0x4c08>
bfc04bc4:	00000000 	nop
bfc04bc8:	00000021 	move	zero,zero
bfc04bcc:	00000021 	move	zero,zero
bfc04bd0:	00000021 	move	zero,zero
bfc04bd4:	1000fff6 	b	bfc04bb0 <main+0x4bb0>
bfc04bd8:	00000000 	nop
bfc04bdc:	1000000a 	b	bfc04c08 <main+0x4c08>
bfc04be0:	00000000 	nop
bfc04be4:	00000021 	move	zero,zero
bfc04be8:	00000021 	move	zero,zero
bfc04bec:	00000021 	move	zero,zero
bfc04bf0:	00000021 	move	zero,zero
bfc04bf4:	00000021 	move	zero,zero
bfc04bf8:	00000021 	move	zero,zero
bfc04bfc:	00000021 	move	zero,zero
bfc04c00:	3c12ab83 	lui	s2,0xab83
bfc04c04:	36523f68 	ori	s2,s2,0x3f68
bfc04c08:	00000000 	nop
bfc04c0c:	3c14a267 	lui	s4,0xa267
bfc04c10:	36949b76 	ori	s4,s4,0x9b76
bfc04c14:	16140b73 	bne	s0,s4,bfc079e4 <inst_error>
bfc04c18:	00000000 	nop
bfc04c1c:	3c15ab83 	lui	s5,0xab83
bfc04c20:	36b53f68 	ori	s5,s5,0x3f68
bfc04c24:	16550b6f 	bne	s2,s5,bfc079e4 <inst_error>
bfc04c28:	00000000 	nop
bfc04c2c:	3c0c18b2 	lui	t4,0x18b2
bfc04c30:	358c564a 	ori	t4,t4,0x564a
bfc04c34:	3c0de9ca 	lui	t5,0xe9ca
bfc04c38:	35ad8b40 	ori	t5,t5,0x8b40
bfc04c3c:	24100000 	li	s0,0
bfc04c40:	24120000 	li	s2,0
bfc04c44:	1000000a 	b	bfc04c70 <main+0x4c70>
bfc04c48:	00000000 	nop
bfc04c4c:	3c1018b2 	lui	s0,0x18b2
bfc04c50:	3610564a 	ori	s0,s0,0x564a
bfc04c54:	10000011 	b	bfc04c9c <main+0x4c9c>
bfc04c58:	00000000 	nop
bfc04c5c:	10000011 	b	bfc04ca4 <main+0x4ca4>
bfc04c60:	00000000 	nop
bfc04c64:	00000021 	move	zero,zero
bfc04c68:	00000021 	move	zero,zero
bfc04c6c:	00000021 	move	zero,zero
bfc04c70:	1000fff6 	b	bfc04c4c <main+0x4c4c>
bfc04c74:	00000000 	nop
bfc04c78:	1000000a 	b	bfc04ca4 <main+0x4ca4>
bfc04c7c:	00000000 	nop
bfc04c80:	00000021 	move	zero,zero
bfc04c84:	00000021 	move	zero,zero
bfc04c88:	00000021 	move	zero,zero
bfc04c8c:	00000021 	move	zero,zero
bfc04c90:	00000021 	move	zero,zero
bfc04c94:	00000021 	move	zero,zero
bfc04c98:	00000021 	move	zero,zero
bfc04c9c:	3c12e9ca 	lui	s2,0xe9ca
bfc04ca0:	36528b40 	ori	s2,s2,0x8b40
bfc04ca4:	00000000 	nop
bfc04ca8:	3c1418b2 	lui	s4,0x18b2
bfc04cac:	3694564a 	ori	s4,s4,0x564a
bfc04cb0:	16140b4c 	bne	s0,s4,bfc079e4 <inst_error>
bfc04cb4:	00000000 	nop
bfc04cb8:	3c15e9ca 	lui	s5,0xe9ca
bfc04cbc:	36b58b40 	ori	s5,s5,0x8b40
bfc04cc0:	16550b48 	bne	s2,s5,bfc079e4 <inst_error>
bfc04cc4:	00000000 	nop
bfc04cc8:	3c0c7d87 	lui	t4,0x7d87
bfc04ccc:	358cfdbc 	ori	t4,t4,0xfdbc
bfc04cd0:	3c0d5068 	lui	t5,0x5068
bfc04cd4:	35adc898 	ori	t5,t5,0xc898
bfc04cd8:	24100000 	li	s0,0
bfc04cdc:	24120000 	li	s2,0
bfc04ce0:	1000000a 	b	bfc04d0c <main+0x4d0c>
bfc04ce4:	00000000 	nop
bfc04ce8:	3c107d87 	lui	s0,0x7d87
bfc04cec:	3610fdbc 	ori	s0,s0,0xfdbc
bfc04cf0:	10000011 	b	bfc04d38 <main+0x4d38>
bfc04cf4:	00000000 	nop
bfc04cf8:	10000011 	b	bfc04d40 <main+0x4d40>
bfc04cfc:	00000000 	nop
bfc04d00:	00000021 	move	zero,zero
bfc04d04:	00000021 	move	zero,zero
bfc04d08:	00000021 	move	zero,zero
bfc04d0c:	1000fff6 	b	bfc04ce8 <main+0x4ce8>
bfc04d10:	00000000 	nop
bfc04d14:	1000000a 	b	bfc04d40 <main+0x4d40>
bfc04d18:	00000000 	nop
bfc04d1c:	00000021 	move	zero,zero
bfc04d20:	00000021 	move	zero,zero
bfc04d24:	00000021 	move	zero,zero
bfc04d28:	00000021 	move	zero,zero
bfc04d2c:	00000021 	move	zero,zero
bfc04d30:	00000021 	move	zero,zero
bfc04d34:	00000021 	move	zero,zero
bfc04d38:	3c125068 	lui	s2,0x5068
bfc04d3c:	3652c898 	ori	s2,s2,0xc898
bfc04d40:	00000000 	nop
bfc04d44:	3c147d87 	lui	s4,0x7d87
bfc04d48:	3694fdbc 	ori	s4,s4,0xfdbc
bfc04d4c:	16140b25 	bne	s0,s4,bfc079e4 <inst_error>
bfc04d50:	00000000 	nop
bfc04d54:	3c155068 	lui	s5,0x5068
bfc04d58:	36b5c898 	ori	s5,s5,0xc898
bfc04d5c:	16550b21 	bne	s2,s5,bfc079e4 <inst_error>
bfc04d60:	00000000 	nop
bfc04d64:	3c0ca64d 	lui	t4,0xa64d
bfc04d68:	358c68a9 	ori	t4,t4,0x68a9
bfc04d6c:	3c0db991 	lui	t5,0xb991
bfc04d70:	35ad02ac 	ori	t5,t5,0x2ac
bfc04d74:	24100000 	li	s0,0
bfc04d78:	24120000 	li	s2,0
bfc04d7c:	1000000a 	b	bfc04da8 <main+0x4da8>
bfc04d80:	00000000 	nop
bfc04d84:	3c10a64d 	lui	s0,0xa64d
bfc04d88:	361068a9 	ori	s0,s0,0x68a9
bfc04d8c:	10000011 	b	bfc04dd4 <main+0x4dd4>
bfc04d90:	00000000 	nop
bfc04d94:	10000011 	b	bfc04ddc <main+0x4ddc>
bfc04d98:	00000000 	nop
bfc04d9c:	00000021 	move	zero,zero
bfc04da0:	00000021 	move	zero,zero
bfc04da4:	00000021 	move	zero,zero
bfc04da8:	1000fff6 	b	bfc04d84 <main+0x4d84>
bfc04dac:	00000000 	nop
bfc04db0:	1000000a 	b	bfc04ddc <main+0x4ddc>
bfc04db4:	00000000 	nop
bfc04db8:	00000021 	move	zero,zero
bfc04dbc:	00000021 	move	zero,zero
bfc04dc0:	00000021 	move	zero,zero
bfc04dc4:	00000021 	move	zero,zero
bfc04dc8:	00000021 	move	zero,zero
bfc04dcc:	00000021 	move	zero,zero
bfc04dd0:	00000021 	move	zero,zero
bfc04dd4:	3c12b991 	lui	s2,0xb991
bfc04dd8:	365202ac 	ori	s2,s2,0x2ac
bfc04ddc:	00000000 	nop
bfc04de0:	3c14a64d 	lui	s4,0xa64d
bfc04de4:	369468a9 	ori	s4,s4,0x68a9
bfc04de8:	16140afe 	bne	s0,s4,bfc079e4 <inst_error>
bfc04dec:	00000000 	nop
bfc04df0:	3c15b991 	lui	s5,0xb991
bfc04df4:	36b502ac 	ori	s5,s5,0x2ac
bfc04df8:	16550afa 	bne	s2,s5,bfc079e4 <inst_error>
bfc04dfc:	00000000 	nop
bfc04e00:	3c0c4c13 	lui	t4,0x4c13
bfc04e04:	358c501c 	ori	t4,t4,0x501c
bfc04e08:	3c0d9789 	lui	t5,0x9789
bfc04e0c:	35adf15c 	ori	t5,t5,0xf15c
bfc04e10:	24100000 	li	s0,0
bfc04e14:	24120000 	li	s2,0
bfc04e18:	1000000a 	b	bfc04e44 <main+0x4e44>
bfc04e1c:	00000000 	nop
bfc04e20:	3c104c13 	lui	s0,0x4c13
bfc04e24:	3610501c 	ori	s0,s0,0x501c
bfc04e28:	10000011 	b	bfc04e70 <main+0x4e70>
bfc04e2c:	00000000 	nop
bfc04e30:	10000011 	b	bfc04e78 <main+0x4e78>
bfc04e34:	00000000 	nop
bfc04e38:	00000021 	move	zero,zero
bfc04e3c:	00000021 	move	zero,zero
bfc04e40:	00000021 	move	zero,zero
bfc04e44:	1000fff6 	b	bfc04e20 <main+0x4e20>
bfc04e48:	00000000 	nop
bfc04e4c:	1000000a 	b	bfc04e78 <main+0x4e78>
bfc04e50:	00000000 	nop
bfc04e54:	00000021 	move	zero,zero
bfc04e58:	00000021 	move	zero,zero
bfc04e5c:	00000021 	move	zero,zero
bfc04e60:	00000021 	move	zero,zero
bfc04e64:	00000021 	move	zero,zero
bfc04e68:	00000021 	move	zero,zero
bfc04e6c:	00000021 	move	zero,zero
bfc04e70:	3c129789 	lui	s2,0x9789
bfc04e74:	3652f15c 	ori	s2,s2,0xf15c
bfc04e78:	00000000 	nop
bfc04e7c:	3c144c13 	lui	s4,0x4c13
bfc04e80:	3694501c 	ori	s4,s4,0x501c
bfc04e84:	16140ad7 	bne	s0,s4,bfc079e4 <inst_error>
bfc04e88:	00000000 	nop
bfc04e8c:	3c159789 	lui	s5,0x9789
bfc04e90:	36b5f15c 	ori	s5,s5,0xf15c
bfc04e94:	16550ad3 	bne	s2,s5,bfc079e4 <inst_error>
bfc04e98:	00000000 	nop
bfc04e9c:	3c0c0b9f 	lui	t4,0xb9f
bfc04ea0:	358cfea0 	ori	t4,t4,0xfea0
bfc04ea4:	3c0d9b37 	lui	t5,0x9b37
bfc04ea8:	35ad7696 	ori	t5,t5,0x7696
bfc04eac:	24100000 	li	s0,0
bfc04eb0:	24120000 	li	s2,0
bfc04eb4:	1000000a 	b	bfc04ee0 <main+0x4ee0>
bfc04eb8:	00000000 	nop
bfc04ebc:	3c100b9f 	lui	s0,0xb9f
bfc04ec0:	3610fea0 	ori	s0,s0,0xfea0
bfc04ec4:	10000011 	b	bfc04f0c <main+0x4f0c>
bfc04ec8:	00000000 	nop
bfc04ecc:	10000011 	b	bfc04f14 <main+0x4f14>
bfc04ed0:	00000000 	nop
bfc04ed4:	00000021 	move	zero,zero
bfc04ed8:	00000021 	move	zero,zero
bfc04edc:	00000021 	move	zero,zero
bfc04ee0:	1000fff6 	b	bfc04ebc <main+0x4ebc>
bfc04ee4:	00000000 	nop
bfc04ee8:	1000000a 	b	bfc04f14 <main+0x4f14>
bfc04eec:	00000000 	nop
bfc04ef0:	00000021 	move	zero,zero
bfc04ef4:	00000021 	move	zero,zero
bfc04ef8:	00000021 	move	zero,zero
bfc04efc:	00000021 	move	zero,zero
bfc04f00:	00000021 	move	zero,zero
bfc04f04:	00000021 	move	zero,zero
bfc04f08:	00000021 	move	zero,zero
bfc04f0c:	3c129b37 	lui	s2,0x9b37
bfc04f10:	36527696 	ori	s2,s2,0x7696
bfc04f14:	00000000 	nop
bfc04f18:	3c140b9f 	lui	s4,0xb9f
bfc04f1c:	3694fea0 	ori	s4,s4,0xfea0
bfc04f20:	16140ab0 	bne	s0,s4,bfc079e4 <inst_error>
bfc04f24:	00000000 	nop
bfc04f28:	3c159b37 	lui	s5,0x9b37
bfc04f2c:	36b57696 	ori	s5,s5,0x7696
bfc04f30:	16550aac 	bne	s2,s5,bfc079e4 <inst_error>
bfc04f34:	00000000 	nop
bfc04f38:	3c0c6498 	lui	t4,0x6498
bfc04f3c:	358c7db5 	ori	t4,t4,0x7db5
bfc04f40:	3c0dabc9 	lui	t5,0xabc9
bfc04f44:	35adfd50 	ori	t5,t5,0xfd50
bfc04f48:	24100000 	li	s0,0
bfc04f4c:	24120000 	li	s2,0
bfc04f50:	1000000a 	b	bfc04f7c <main+0x4f7c>
bfc04f54:	00000000 	nop
bfc04f58:	3c106498 	lui	s0,0x6498
bfc04f5c:	36107db5 	ori	s0,s0,0x7db5
bfc04f60:	10000011 	b	bfc04fa8 <main+0x4fa8>
bfc04f64:	00000000 	nop
bfc04f68:	10000011 	b	bfc04fb0 <main+0x4fb0>
bfc04f6c:	00000000 	nop
bfc04f70:	00000021 	move	zero,zero
bfc04f74:	00000021 	move	zero,zero
bfc04f78:	00000021 	move	zero,zero
bfc04f7c:	1000fff6 	b	bfc04f58 <main+0x4f58>
bfc04f80:	00000000 	nop
bfc04f84:	1000000a 	b	bfc04fb0 <main+0x4fb0>
bfc04f88:	00000000 	nop
bfc04f8c:	00000021 	move	zero,zero
bfc04f90:	00000021 	move	zero,zero
bfc04f94:	00000021 	move	zero,zero
bfc04f98:	00000021 	move	zero,zero
bfc04f9c:	00000021 	move	zero,zero
bfc04fa0:	00000021 	move	zero,zero
bfc04fa4:	00000021 	move	zero,zero
bfc04fa8:	3c12abc9 	lui	s2,0xabc9
bfc04fac:	3652fd50 	ori	s2,s2,0xfd50
bfc04fb0:	00000000 	nop
bfc04fb4:	3c146498 	lui	s4,0x6498
bfc04fb8:	36947db5 	ori	s4,s4,0x7db5
bfc04fbc:	16140a89 	bne	s0,s4,bfc079e4 <inst_error>
bfc04fc0:	00000000 	nop
bfc04fc4:	3c15abc9 	lui	s5,0xabc9
bfc04fc8:	36b5fd50 	ori	s5,s5,0xfd50
bfc04fcc:	16550a85 	bne	s2,s5,bfc079e4 <inst_error>
bfc04fd0:	00000000 	nop
bfc04fd4:	3c0cfcc1 	lui	t4,0xfcc1
bfc04fd8:	358c2490 	ori	t4,t4,0x2490
bfc04fdc:	3c0d164d 	lui	t5,0x164d
bfc04fe0:	35ad033e 	ori	t5,t5,0x33e
bfc04fe4:	24100000 	li	s0,0
bfc04fe8:	24120000 	li	s2,0
bfc04fec:	1000000a 	b	bfc05018 <main+0x5018>
bfc04ff0:	00000000 	nop
bfc04ff4:	3c10fcc1 	lui	s0,0xfcc1
bfc04ff8:	36102490 	ori	s0,s0,0x2490
bfc04ffc:	10000011 	b	bfc05044 <main+0x5044>
bfc05000:	00000000 	nop
bfc05004:	10000011 	b	bfc0504c <main+0x504c>
bfc05008:	00000000 	nop
bfc0500c:	00000021 	move	zero,zero
bfc05010:	00000021 	move	zero,zero
bfc05014:	00000021 	move	zero,zero
bfc05018:	1000fff6 	b	bfc04ff4 <main+0x4ff4>
bfc0501c:	00000000 	nop
bfc05020:	1000000a 	b	bfc0504c <main+0x504c>
bfc05024:	00000000 	nop
bfc05028:	00000021 	move	zero,zero
bfc0502c:	00000021 	move	zero,zero
bfc05030:	00000021 	move	zero,zero
bfc05034:	00000021 	move	zero,zero
bfc05038:	00000021 	move	zero,zero
bfc0503c:	00000021 	move	zero,zero
bfc05040:	00000021 	move	zero,zero
bfc05044:	3c12164d 	lui	s2,0x164d
bfc05048:	3652033e 	ori	s2,s2,0x33e
bfc0504c:	00000000 	nop
bfc05050:	3c14fcc1 	lui	s4,0xfcc1
bfc05054:	36942490 	ori	s4,s4,0x2490
bfc05058:	16140a62 	bne	s0,s4,bfc079e4 <inst_error>
bfc0505c:	00000000 	nop
bfc05060:	3c15164d 	lui	s5,0x164d
bfc05064:	36b5033e 	ori	s5,s5,0x33e
bfc05068:	16550a5e 	bne	s2,s5,bfc079e4 <inst_error>
bfc0506c:	00000000 	nop
bfc05070:	3c0c7be1 	lui	t4,0x7be1
bfc05074:	358c4bd0 	ori	t4,t4,0x4bd0
bfc05078:	3c0db0d0 	lui	t5,0xb0d0
bfc0507c:	35ad7790 	ori	t5,t5,0x7790
bfc05080:	24100000 	li	s0,0
bfc05084:	24120000 	li	s2,0
bfc05088:	1000000a 	b	bfc050b4 <main+0x50b4>
bfc0508c:	00000000 	nop
bfc05090:	3c107be1 	lui	s0,0x7be1
bfc05094:	36104bd0 	ori	s0,s0,0x4bd0
bfc05098:	10000011 	b	bfc050e0 <main+0x50e0>
bfc0509c:	00000000 	nop
bfc050a0:	10000011 	b	bfc050e8 <main+0x50e8>
bfc050a4:	00000000 	nop
bfc050a8:	00000021 	move	zero,zero
bfc050ac:	00000021 	move	zero,zero
bfc050b0:	00000021 	move	zero,zero
bfc050b4:	1000fff6 	b	bfc05090 <main+0x5090>
bfc050b8:	00000000 	nop
bfc050bc:	1000000a 	b	bfc050e8 <main+0x50e8>
bfc050c0:	00000000 	nop
bfc050c4:	00000021 	move	zero,zero
bfc050c8:	00000021 	move	zero,zero
bfc050cc:	00000021 	move	zero,zero
bfc050d0:	00000021 	move	zero,zero
bfc050d4:	00000021 	move	zero,zero
bfc050d8:	00000021 	move	zero,zero
bfc050dc:	00000021 	move	zero,zero
bfc050e0:	3c12b0d0 	lui	s2,0xb0d0
bfc050e4:	36527790 	ori	s2,s2,0x7790
bfc050e8:	00000000 	nop
bfc050ec:	3c147be1 	lui	s4,0x7be1
bfc050f0:	36944bd0 	ori	s4,s4,0x4bd0
bfc050f4:	16140a3b 	bne	s0,s4,bfc079e4 <inst_error>
bfc050f8:	00000000 	nop
bfc050fc:	3c15b0d0 	lui	s5,0xb0d0
bfc05100:	36b57790 	ori	s5,s5,0x7790
bfc05104:	16550a37 	bne	s2,s5,bfc079e4 <inst_error>
bfc05108:	00000000 	nop
bfc0510c:	3c0c05f4 	lui	t4,0x5f4
bfc05110:	358c2d30 	ori	t4,t4,0x2d30
bfc05114:	3c0da001 	lui	t5,0xa001
bfc05118:	35ad2600 	ori	t5,t5,0x2600
bfc0511c:	24100000 	li	s0,0
bfc05120:	24120000 	li	s2,0
bfc05124:	1000000a 	b	bfc05150 <main+0x5150>
bfc05128:	00000000 	nop
bfc0512c:	3c1005f4 	lui	s0,0x5f4
bfc05130:	36102d30 	ori	s0,s0,0x2d30
bfc05134:	10000011 	b	bfc0517c <main+0x517c>
bfc05138:	00000000 	nop
bfc0513c:	10000011 	b	bfc05184 <main+0x5184>
bfc05140:	00000000 	nop
bfc05144:	00000021 	move	zero,zero
bfc05148:	00000021 	move	zero,zero
bfc0514c:	00000021 	move	zero,zero
bfc05150:	1000fff6 	b	bfc0512c <main+0x512c>
bfc05154:	00000000 	nop
bfc05158:	1000000a 	b	bfc05184 <main+0x5184>
bfc0515c:	00000000 	nop
bfc05160:	00000021 	move	zero,zero
bfc05164:	00000021 	move	zero,zero
bfc05168:	00000021 	move	zero,zero
bfc0516c:	00000021 	move	zero,zero
bfc05170:	00000021 	move	zero,zero
bfc05174:	00000021 	move	zero,zero
bfc05178:	00000021 	move	zero,zero
bfc0517c:	3c12a001 	lui	s2,0xa001
bfc05180:	36522600 	ori	s2,s2,0x2600
bfc05184:	00000000 	nop
bfc05188:	3c1405f4 	lui	s4,0x5f4
bfc0518c:	36942d30 	ori	s4,s4,0x2d30
bfc05190:	16140a14 	bne	s0,s4,bfc079e4 <inst_error>
bfc05194:	00000000 	nop
bfc05198:	3c15a001 	lui	s5,0xa001
bfc0519c:	36b52600 	ori	s5,s5,0x2600
bfc051a0:	16550a10 	bne	s2,s5,bfc079e4 <inst_error>
bfc051a4:	00000000 	nop
bfc051a8:	3c0c5bd8 	lui	t4,0x5bd8
bfc051ac:	358c25c0 	ori	t4,t4,0x25c0
bfc051b0:	3c0dc036 	lui	t5,0xc036
bfc051b4:	35adf1ce 	ori	t5,t5,0xf1ce
bfc051b8:	24100000 	li	s0,0
bfc051bc:	24120000 	li	s2,0
bfc051c0:	1000000a 	b	bfc051ec <main+0x51ec>
bfc051c4:	00000000 	nop
bfc051c8:	3c105bd8 	lui	s0,0x5bd8
bfc051cc:	361025c0 	ori	s0,s0,0x25c0
bfc051d0:	10000011 	b	bfc05218 <main+0x5218>
bfc051d4:	00000000 	nop
bfc051d8:	10000011 	b	bfc05220 <main+0x5220>
bfc051dc:	00000000 	nop
bfc051e0:	00000021 	move	zero,zero
bfc051e4:	00000021 	move	zero,zero
bfc051e8:	00000021 	move	zero,zero
bfc051ec:	1000fff6 	b	bfc051c8 <main+0x51c8>
bfc051f0:	00000000 	nop
bfc051f4:	1000000a 	b	bfc05220 <main+0x5220>
bfc051f8:	00000000 	nop
bfc051fc:	00000021 	move	zero,zero
bfc05200:	00000021 	move	zero,zero
bfc05204:	00000021 	move	zero,zero
bfc05208:	00000021 	move	zero,zero
bfc0520c:	00000021 	move	zero,zero
bfc05210:	00000021 	move	zero,zero
bfc05214:	00000021 	move	zero,zero
bfc05218:	3c12c036 	lui	s2,0xc036
bfc0521c:	3652f1ce 	ori	s2,s2,0xf1ce
bfc05220:	00000000 	nop
bfc05224:	3c145bd8 	lui	s4,0x5bd8
bfc05228:	369425c0 	ori	s4,s4,0x25c0
bfc0522c:	161409ed 	bne	s0,s4,bfc079e4 <inst_error>
bfc05230:	00000000 	nop
bfc05234:	3c15c036 	lui	s5,0xc036
bfc05238:	36b5f1ce 	ori	s5,s5,0xf1ce
bfc0523c:	165509e9 	bne	s2,s5,bfc079e4 <inst_error>
bfc05240:	00000000 	nop
bfc05244:	3c0c71cc 	lui	t4,0x71cc
bfc05248:	358c9e50 	ori	t4,t4,0x9e50
bfc0524c:	3c0df9de 	lui	t5,0xf9de
bfc05250:	35ad6878 	ori	t5,t5,0x6878
bfc05254:	24100000 	li	s0,0
bfc05258:	24120000 	li	s2,0
bfc0525c:	1000000a 	b	bfc05288 <main+0x5288>
bfc05260:	00000000 	nop
bfc05264:	3c1071cc 	lui	s0,0x71cc
bfc05268:	36109e50 	ori	s0,s0,0x9e50
bfc0526c:	10000011 	b	bfc052b4 <main+0x52b4>
bfc05270:	00000000 	nop
bfc05274:	10000011 	b	bfc052bc <main+0x52bc>
bfc05278:	00000000 	nop
bfc0527c:	00000021 	move	zero,zero
bfc05280:	00000021 	move	zero,zero
bfc05284:	00000021 	move	zero,zero
bfc05288:	1000fff6 	b	bfc05264 <main+0x5264>
bfc0528c:	00000000 	nop
bfc05290:	1000000a 	b	bfc052bc <main+0x52bc>
bfc05294:	00000000 	nop
bfc05298:	00000021 	move	zero,zero
bfc0529c:	00000021 	move	zero,zero
bfc052a0:	00000021 	move	zero,zero
bfc052a4:	00000021 	move	zero,zero
bfc052a8:	00000021 	move	zero,zero
bfc052ac:	00000021 	move	zero,zero
bfc052b0:	00000021 	move	zero,zero
bfc052b4:	3c12f9de 	lui	s2,0xf9de
bfc052b8:	36526878 	ori	s2,s2,0x6878
bfc052bc:	00000000 	nop
bfc052c0:	3c1471cc 	lui	s4,0x71cc
bfc052c4:	36949e50 	ori	s4,s4,0x9e50
bfc052c8:	161409c6 	bne	s0,s4,bfc079e4 <inst_error>
bfc052cc:	00000000 	nop
bfc052d0:	3c15f9de 	lui	s5,0xf9de
bfc052d4:	36b56878 	ori	s5,s5,0x6878
bfc052d8:	165509c2 	bne	s2,s5,bfc079e4 <inst_error>
bfc052dc:	00000000 	nop
bfc052e0:	3c0ccef2 	lui	t4,0xcef2
bfc052e4:	358c0400 	ori	t4,t4,0x400
bfc052e8:	3c0d74a2 	lui	t5,0x74a2
bfc052ec:	35adf96f 	ori	t5,t5,0xf96f
bfc052f0:	24100000 	li	s0,0
bfc052f4:	24120000 	li	s2,0
bfc052f8:	1000000a 	b	bfc05324 <main+0x5324>
bfc052fc:	00000000 	nop
bfc05300:	3c10cef2 	lui	s0,0xcef2
bfc05304:	36100400 	ori	s0,s0,0x400
bfc05308:	10000011 	b	bfc05350 <main+0x5350>
bfc0530c:	00000000 	nop
bfc05310:	10000011 	b	bfc05358 <main+0x5358>
bfc05314:	00000000 	nop
bfc05318:	00000021 	move	zero,zero
bfc0531c:	00000021 	move	zero,zero
bfc05320:	00000021 	move	zero,zero
bfc05324:	1000fff6 	b	bfc05300 <main+0x5300>
bfc05328:	00000000 	nop
bfc0532c:	1000000a 	b	bfc05358 <main+0x5358>
bfc05330:	00000000 	nop
bfc05334:	00000021 	move	zero,zero
bfc05338:	00000021 	move	zero,zero
bfc0533c:	00000021 	move	zero,zero
bfc05340:	00000021 	move	zero,zero
bfc05344:	00000021 	move	zero,zero
bfc05348:	00000021 	move	zero,zero
bfc0534c:	00000021 	move	zero,zero
bfc05350:	3c1274a2 	lui	s2,0x74a2
bfc05354:	3652f96f 	ori	s2,s2,0xf96f
bfc05358:	00000000 	nop
bfc0535c:	3c14cef2 	lui	s4,0xcef2
bfc05360:	36940400 	ori	s4,s4,0x400
bfc05364:	1614099f 	bne	s0,s4,bfc079e4 <inst_error>
bfc05368:	00000000 	nop
bfc0536c:	3c1574a2 	lui	s5,0x74a2
bfc05370:	36b5f96f 	ori	s5,s5,0xf96f
bfc05374:	1655099b 	bne	s2,s5,bfc079e4 <inst_error>
bfc05378:	00000000 	nop
bfc0537c:	3c0c3035 	lui	t4,0x3035
bfc05380:	358c6457 	ori	t4,t4,0x6457
bfc05384:	3c0d018a 	lui	t5,0x18a
bfc05388:	35adf932 	ori	t5,t5,0xf932
bfc0538c:	24100000 	li	s0,0
bfc05390:	24120000 	li	s2,0
bfc05394:	1000000a 	b	bfc053c0 <main+0x53c0>
bfc05398:	00000000 	nop
bfc0539c:	3c103035 	lui	s0,0x3035
bfc053a0:	36106457 	ori	s0,s0,0x6457
bfc053a4:	10000011 	b	bfc053ec <main+0x53ec>
bfc053a8:	00000000 	nop
bfc053ac:	10000011 	b	bfc053f4 <main+0x53f4>
bfc053b0:	00000000 	nop
bfc053b4:	00000021 	move	zero,zero
bfc053b8:	00000021 	move	zero,zero
bfc053bc:	00000021 	move	zero,zero
bfc053c0:	1000fff6 	b	bfc0539c <main+0x539c>
bfc053c4:	00000000 	nop
bfc053c8:	1000000a 	b	bfc053f4 <main+0x53f4>
bfc053cc:	00000000 	nop
bfc053d0:	00000021 	move	zero,zero
bfc053d4:	00000021 	move	zero,zero
bfc053d8:	00000021 	move	zero,zero
bfc053dc:	00000021 	move	zero,zero
bfc053e0:	00000021 	move	zero,zero
bfc053e4:	00000021 	move	zero,zero
bfc053e8:	00000021 	move	zero,zero
bfc053ec:	3c12018a 	lui	s2,0x18a
bfc053f0:	3652f932 	ori	s2,s2,0xf932
bfc053f4:	00000000 	nop
bfc053f8:	3c143035 	lui	s4,0x3035
bfc053fc:	36946457 	ori	s4,s4,0x6457
bfc05400:	16140978 	bne	s0,s4,bfc079e4 <inst_error>
bfc05404:	00000000 	nop
bfc05408:	3c15018a 	lui	s5,0x18a
bfc0540c:	36b5f932 	ori	s5,s5,0xf932
bfc05410:	16550974 	bne	s2,s5,bfc079e4 <inst_error>
bfc05414:	00000000 	nop
bfc05418:	3c0cd445 	lui	t4,0xd445
bfc0541c:	358c509d 	ori	t4,t4,0x509d
bfc05420:	3c0d86fa 	lui	t5,0x86fa
bfc05424:	35addf44 	ori	t5,t5,0xdf44
bfc05428:	24100000 	li	s0,0
bfc0542c:	24120000 	li	s2,0
bfc05430:	1000000a 	b	bfc0545c <main+0x545c>
bfc05434:	00000000 	nop
bfc05438:	3c10d445 	lui	s0,0xd445
bfc0543c:	3610509d 	ori	s0,s0,0x509d
bfc05440:	10000011 	b	bfc05488 <main+0x5488>
bfc05444:	00000000 	nop
bfc05448:	10000011 	b	bfc05490 <main+0x5490>
bfc0544c:	00000000 	nop
bfc05450:	00000021 	move	zero,zero
bfc05454:	00000021 	move	zero,zero
bfc05458:	00000021 	move	zero,zero
bfc0545c:	1000fff6 	b	bfc05438 <main+0x5438>
bfc05460:	00000000 	nop
bfc05464:	1000000a 	b	bfc05490 <main+0x5490>
bfc05468:	00000000 	nop
bfc0546c:	00000021 	move	zero,zero
bfc05470:	00000021 	move	zero,zero
bfc05474:	00000021 	move	zero,zero
bfc05478:	00000021 	move	zero,zero
bfc0547c:	00000021 	move	zero,zero
bfc05480:	00000021 	move	zero,zero
bfc05484:	00000021 	move	zero,zero
bfc05488:	3c1286fa 	lui	s2,0x86fa
bfc0548c:	3652df44 	ori	s2,s2,0xdf44
bfc05490:	00000000 	nop
bfc05494:	3c14d445 	lui	s4,0xd445
bfc05498:	3694509d 	ori	s4,s4,0x509d
bfc0549c:	16140951 	bne	s0,s4,bfc079e4 <inst_error>
bfc054a0:	00000000 	nop
bfc054a4:	3c1586fa 	lui	s5,0x86fa
bfc054a8:	36b5df44 	ori	s5,s5,0xdf44
bfc054ac:	1655094d 	bne	s2,s5,bfc079e4 <inst_error>
bfc054b0:	00000000 	nop
bfc054b4:	3c0cd37d 	lui	t4,0xd37d
bfc054b8:	358c9980 	ori	t4,t4,0x9980
bfc054bc:	3c0d75bd 	lui	t5,0x75bd
bfc054c0:	35add728 	ori	t5,t5,0xd728
bfc054c4:	24100000 	li	s0,0
bfc054c8:	24120000 	li	s2,0
bfc054cc:	1000000a 	b	bfc054f8 <main+0x54f8>
bfc054d0:	00000000 	nop
bfc054d4:	3c10d37d 	lui	s0,0xd37d
bfc054d8:	36109980 	ori	s0,s0,0x9980
bfc054dc:	10000011 	b	bfc05524 <main+0x5524>
bfc054e0:	00000000 	nop
bfc054e4:	10000011 	b	bfc0552c <main+0x552c>
bfc054e8:	00000000 	nop
bfc054ec:	00000021 	move	zero,zero
bfc054f0:	00000021 	move	zero,zero
bfc054f4:	00000021 	move	zero,zero
bfc054f8:	1000fff6 	b	bfc054d4 <main+0x54d4>
bfc054fc:	00000000 	nop
bfc05500:	1000000a 	b	bfc0552c <main+0x552c>
bfc05504:	00000000 	nop
bfc05508:	00000021 	move	zero,zero
bfc0550c:	00000021 	move	zero,zero
bfc05510:	00000021 	move	zero,zero
bfc05514:	00000021 	move	zero,zero
bfc05518:	00000021 	move	zero,zero
bfc0551c:	00000021 	move	zero,zero
bfc05520:	00000021 	move	zero,zero
bfc05524:	3c1275bd 	lui	s2,0x75bd
bfc05528:	3652d728 	ori	s2,s2,0xd728
bfc0552c:	00000000 	nop
bfc05530:	3c14d37d 	lui	s4,0xd37d
bfc05534:	36949980 	ori	s4,s4,0x9980
bfc05538:	1614092a 	bne	s0,s4,bfc079e4 <inst_error>
bfc0553c:	00000000 	nop
bfc05540:	3c1575bd 	lui	s5,0x75bd
bfc05544:	36b5d728 	ori	s5,s5,0xd728
bfc05548:	16550926 	bne	s2,s5,bfc079e4 <inst_error>
bfc0554c:	00000000 	nop
bfc05550:	3c0c6266 	lui	t4,0x6266
bfc05554:	358c7786 	ori	t4,t4,0x7786
bfc05558:	3c0d822f 	lui	t5,0x822f
bfc0555c:	35ad50f0 	ori	t5,t5,0x50f0
bfc05560:	24100000 	li	s0,0
bfc05564:	24120000 	li	s2,0
bfc05568:	1000000a 	b	bfc05594 <main+0x5594>
bfc0556c:	00000000 	nop
bfc05570:	3c106266 	lui	s0,0x6266
bfc05574:	36107786 	ori	s0,s0,0x7786
bfc05578:	10000011 	b	bfc055c0 <main+0x55c0>
bfc0557c:	00000000 	nop
bfc05580:	10000011 	b	bfc055c8 <main+0x55c8>
bfc05584:	00000000 	nop
bfc05588:	00000021 	move	zero,zero
bfc0558c:	00000021 	move	zero,zero
bfc05590:	00000021 	move	zero,zero
bfc05594:	1000fff6 	b	bfc05570 <main+0x5570>
bfc05598:	00000000 	nop
bfc0559c:	1000000a 	b	bfc055c8 <main+0x55c8>
bfc055a0:	00000000 	nop
bfc055a4:	00000021 	move	zero,zero
bfc055a8:	00000021 	move	zero,zero
bfc055ac:	00000021 	move	zero,zero
bfc055b0:	00000021 	move	zero,zero
bfc055b4:	00000021 	move	zero,zero
bfc055b8:	00000021 	move	zero,zero
bfc055bc:	00000021 	move	zero,zero
bfc055c0:	3c12822f 	lui	s2,0x822f
bfc055c4:	365250f0 	ori	s2,s2,0x50f0
bfc055c8:	00000000 	nop
bfc055cc:	3c146266 	lui	s4,0x6266
bfc055d0:	36947786 	ori	s4,s4,0x7786
bfc055d4:	16140903 	bne	s0,s4,bfc079e4 <inst_error>
bfc055d8:	00000000 	nop
bfc055dc:	3c15822f 	lui	s5,0x822f
bfc055e0:	36b550f0 	ori	s5,s5,0x50f0
bfc055e4:	165508ff 	bne	s2,s5,bfc079e4 <inst_error>
bfc055e8:	00000000 	nop
bfc055ec:	3c0c36c1 	lui	t4,0x36c1
bfc055f0:	358cbe00 	ori	t4,t4,0xbe00
bfc055f4:	3c0d8ab5 	lui	t5,0x8ab5
bfc055f8:	35adf934 	ori	t5,t5,0xf934
bfc055fc:	24100000 	li	s0,0
bfc05600:	24120000 	li	s2,0
bfc05604:	1000000a 	b	bfc05630 <main+0x5630>
bfc05608:	00000000 	nop
bfc0560c:	3c1036c1 	lui	s0,0x36c1
bfc05610:	3610be00 	ori	s0,s0,0xbe00
bfc05614:	10000011 	b	bfc0565c <main+0x565c>
bfc05618:	00000000 	nop
bfc0561c:	10000011 	b	bfc05664 <main+0x5664>
bfc05620:	00000000 	nop
bfc05624:	00000021 	move	zero,zero
bfc05628:	00000021 	move	zero,zero
bfc0562c:	00000021 	move	zero,zero
bfc05630:	1000fff6 	b	bfc0560c <main+0x560c>
bfc05634:	00000000 	nop
bfc05638:	1000000a 	b	bfc05664 <main+0x5664>
bfc0563c:	00000000 	nop
bfc05640:	00000021 	move	zero,zero
bfc05644:	00000021 	move	zero,zero
bfc05648:	00000021 	move	zero,zero
bfc0564c:	00000021 	move	zero,zero
bfc05650:	00000021 	move	zero,zero
bfc05654:	00000021 	move	zero,zero
bfc05658:	00000021 	move	zero,zero
bfc0565c:	3c128ab5 	lui	s2,0x8ab5
bfc05660:	3652f934 	ori	s2,s2,0xf934
bfc05664:	00000000 	nop
bfc05668:	3c1436c1 	lui	s4,0x36c1
bfc0566c:	3694be00 	ori	s4,s4,0xbe00
bfc05670:	161408dc 	bne	s0,s4,bfc079e4 <inst_error>
bfc05674:	00000000 	nop
bfc05678:	3c158ab5 	lui	s5,0x8ab5
bfc0567c:	36b5f934 	ori	s5,s5,0xf934
bfc05680:	165508d8 	bne	s2,s5,bfc079e4 <inst_error>
bfc05684:	00000000 	nop
bfc05688:	3c0ccc4b 	lui	t4,0xcc4b
bfc0568c:	358c4e40 	ori	t4,t4,0x4e40
bfc05690:	3c0d9ee4 	lui	t5,0x9ee4
bfc05694:	35add11c 	ori	t5,t5,0xd11c
bfc05698:	24100000 	li	s0,0
bfc0569c:	24120000 	li	s2,0
bfc056a0:	1000000a 	b	bfc056cc <main+0x56cc>
bfc056a4:	00000000 	nop
bfc056a8:	3c10cc4b 	lui	s0,0xcc4b
bfc056ac:	36104e40 	ori	s0,s0,0x4e40
bfc056b0:	10000011 	b	bfc056f8 <main+0x56f8>
bfc056b4:	00000000 	nop
bfc056b8:	10000011 	b	bfc05700 <main+0x5700>
bfc056bc:	00000000 	nop
bfc056c0:	00000021 	move	zero,zero
bfc056c4:	00000021 	move	zero,zero
bfc056c8:	00000021 	move	zero,zero
bfc056cc:	1000fff6 	b	bfc056a8 <main+0x56a8>
bfc056d0:	00000000 	nop
bfc056d4:	1000000a 	b	bfc05700 <main+0x5700>
bfc056d8:	00000000 	nop
bfc056dc:	00000021 	move	zero,zero
bfc056e0:	00000021 	move	zero,zero
bfc056e4:	00000021 	move	zero,zero
bfc056e8:	00000021 	move	zero,zero
bfc056ec:	00000021 	move	zero,zero
bfc056f0:	00000021 	move	zero,zero
bfc056f4:	00000021 	move	zero,zero
bfc056f8:	3c129ee4 	lui	s2,0x9ee4
bfc056fc:	3652d11c 	ori	s2,s2,0xd11c
bfc05700:	00000000 	nop
bfc05704:	3c14cc4b 	lui	s4,0xcc4b
bfc05708:	36944e40 	ori	s4,s4,0x4e40
bfc0570c:	161408b5 	bne	s0,s4,bfc079e4 <inst_error>
bfc05710:	00000000 	nop
bfc05714:	3c159ee4 	lui	s5,0x9ee4
bfc05718:	36b5d11c 	ori	s5,s5,0xd11c
bfc0571c:	165508b1 	bne	s2,s5,bfc079e4 <inst_error>
bfc05720:	00000000 	nop
bfc05724:	3c0c0a83 	lui	t4,0xa83
bfc05728:	358c0f74 	ori	t4,t4,0xf74
bfc0572c:	3c0d721b 	lui	t5,0x721b
bfc05730:	35ad2040 	ori	t5,t5,0x2040
bfc05734:	24100000 	li	s0,0
bfc05738:	24120000 	li	s2,0
bfc0573c:	1000000a 	b	bfc05768 <main+0x5768>
bfc05740:	00000000 	nop
bfc05744:	3c100a83 	lui	s0,0xa83
bfc05748:	36100f74 	ori	s0,s0,0xf74
bfc0574c:	10000011 	b	bfc05794 <main+0x5794>
bfc05750:	00000000 	nop
bfc05754:	10000011 	b	bfc0579c <main+0x579c>
bfc05758:	00000000 	nop
bfc0575c:	00000021 	move	zero,zero
bfc05760:	00000021 	move	zero,zero
bfc05764:	00000021 	move	zero,zero
bfc05768:	1000fff6 	b	bfc05744 <main+0x5744>
bfc0576c:	00000000 	nop
bfc05770:	1000000a 	b	bfc0579c <main+0x579c>
bfc05774:	00000000 	nop
bfc05778:	00000021 	move	zero,zero
bfc0577c:	00000021 	move	zero,zero
bfc05780:	00000021 	move	zero,zero
bfc05784:	00000021 	move	zero,zero
bfc05788:	00000021 	move	zero,zero
bfc0578c:	00000021 	move	zero,zero
bfc05790:	00000021 	move	zero,zero
bfc05794:	3c12721b 	lui	s2,0x721b
bfc05798:	36522040 	ori	s2,s2,0x2040
bfc0579c:	00000000 	nop
bfc057a0:	3c140a83 	lui	s4,0xa83
bfc057a4:	36940f74 	ori	s4,s4,0xf74
bfc057a8:	1614088e 	bne	s0,s4,bfc079e4 <inst_error>
bfc057ac:	00000000 	nop
bfc057b0:	3c15721b 	lui	s5,0x721b
bfc057b4:	36b52040 	ori	s5,s5,0x2040
bfc057b8:	1655088a 	bne	s2,s5,bfc079e4 <inst_error>
bfc057bc:	00000000 	nop
bfc057c0:	3c0c5a78 	lui	t4,0x5a78
bfc057c4:	358cba00 	ori	t4,t4,0xba00
bfc057c8:	3c0df0e7 	lui	t5,0xf0e7
bfc057cc:	35ad51e6 	ori	t5,t5,0x51e6
bfc057d0:	24100000 	li	s0,0
bfc057d4:	24120000 	li	s2,0
bfc057d8:	1000000a 	b	bfc05804 <main+0x5804>
bfc057dc:	00000000 	nop
bfc057e0:	3c105a78 	lui	s0,0x5a78
bfc057e4:	3610ba00 	ori	s0,s0,0xba00
bfc057e8:	10000011 	b	bfc05830 <main+0x5830>
bfc057ec:	00000000 	nop
bfc057f0:	10000011 	b	bfc05838 <main+0x5838>
bfc057f4:	00000000 	nop
bfc057f8:	00000021 	move	zero,zero
bfc057fc:	00000021 	move	zero,zero
bfc05800:	00000021 	move	zero,zero
bfc05804:	1000fff6 	b	bfc057e0 <main+0x57e0>
bfc05808:	00000000 	nop
bfc0580c:	1000000a 	b	bfc05838 <main+0x5838>
bfc05810:	00000000 	nop
bfc05814:	00000021 	move	zero,zero
bfc05818:	00000021 	move	zero,zero
bfc0581c:	00000021 	move	zero,zero
bfc05820:	00000021 	move	zero,zero
bfc05824:	00000021 	move	zero,zero
bfc05828:	00000021 	move	zero,zero
bfc0582c:	00000021 	move	zero,zero
bfc05830:	3c12f0e7 	lui	s2,0xf0e7
bfc05834:	365251e6 	ori	s2,s2,0x51e6
bfc05838:	00000000 	nop
bfc0583c:	3c145a78 	lui	s4,0x5a78
bfc05840:	3694ba00 	ori	s4,s4,0xba00
bfc05844:	16140867 	bne	s0,s4,bfc079e4 <inst_error>
bfc05848:	00000000 	nop
bfc0584c:	3c15f0e7 	lui	s5,0xf0e7
bfc05850:	36b551e6 	ori	s5,s5,0x51e6
bfc05854:	16550863 	bne	s2,s5,bfc079e4 <inst_error>
bfc05858:	00000000 	nop
bfc0585c:	3c0c8b5a 	lui	t4,0x8b5a
bfc05860:	358c7614 	ori	t4,t4,0x7614
bfc05864:	3c0d5334 	lui	t5,0x5334
bfc05868:	35ad9d74 	ori	t5,t5,0x9d74
bfc0586c:	24100000 	li	s0,0
bfc05870:	24120000 	li	s2,0
bfc05874:	1000000a 	b	bfc058a0 <main+0x58a0>
bfc05878:	00000000 	nop
bfc0587c:	3c108b5a 	lui	s0,0x8b5a
bfc05880:	36107614 	ori	s0,s0,0x7614
bfc05884:	10000011 	b	bfc058cc <main+0x58cc>
bfc05888:	00000000 	nop
bfc0588c:	10000011 	b	bfc058d4 <main+0x58d4>
bfc05890:	00000000 	nop
bfc05894:	00000021 	move	zero,zero
bfc05898:	00000021 	move	zero,zero
bfc0589c:	00000021 	move	zero,zero
bfc058a0:	1000fff6 	b	bfc0587c <main+0x587c>
bfc058a4:	00000000 	nop
bfc058a8:	1000000a 	b	bfc058d4 <main+0x58d4>
bfc058ac:	00000000 	nop
bfc058b0:	00000021 	move	zero,zero
bfc058b4:	00000021 	move	zero,zero
bfc058b8:	00000021 	move	zero,zero
bfc058bc:	00000021 	move	zero,zero
bfc058c0:	00000021 	move	zero,zero
bfc058c4:	00000021 	move	zero,zero
bfc058c8:	00000021 	move	zero,zero
bfc058cc:	3c125334 	lui	s2,0x5334
bfc058d0:	36529d74 	ori	s2,s2,0x9d74
bfc058d4:	00000000 	nop
bfc058d8:	3c148b5a 	lui	s4,0x8b5a
bfc058dc:	36947614 	ori	s4,s4,0x7614
bfc058e0:	16140840 	bne	s0,s4,bfc079e4 <inst_error>
bfc058e4:	00000000 	nop
bfc058e8:	3c155334 	lui	s5,0x5334
bfc058ec:	36b59d74 	ori	s5,s5,0x9d74
bfc058f0:	1655083c 	bne	s2,s5,bfc079e4 <inst_error>
bfc058f4:	00000000 	nop
bfc058f8:	3c0c9a10 	lui	t4,0x9a10
bfc058fc:	358ca8ec 	ori	t4,t4,0xa8ec
bfc05900:	3c0da8f8 	lui	t5,0xa8f8
bfc05904:	35ad1690 	ori	t5,t5,0x1690
bfc05908:	24100000 	li	s0,0
bfc0590c:	24120000 	li	s2,0
bfc05910:	1000000a 	b	bfc0593c <main+0x593c>
bfc05914:	00000000 	nop
bfc05918:	3c109a10 	lui	s0,0x9a10
bfc0591c:	3610a8ec 	ori	s0,s0,0xa8ec
bfc05920:	10000011 	b	bfc05968 <main+0x5968>
bfc05924:	00000000 	nop
bfc05928:	10000011 	b	bfc05970 <main+0x5970>
bfc0592c:	00000000 	nop
bfc05930:	00000021 	move	zero,zero
bfc05934:	00000021 	move	zero,zero
bfc05938:	00000021 	move	zero,zero
bfc0593c:	1000fff6 	b	bfc05918 <main+0x5918>
bfc05940:	00000000 	nop
bfc05944:	1000000a 	b	bfc05970 <main+0x5970>
bfc05948:	00000000 	nop
bfc0594c:	00000021 	move	zero,zero
bfc05950:	00000021 	move	zero,zero
bfc05954:	00000021 	move	zero,zero
bfc05958:	00000021 	move	zero,zero
bfc0595c:	00000021 	move	zero,zero
bfc05960:	00000021 	move	zero,zero
bfc05964:	00000021 	move	zero,zero
bfc05968:	3c12a8f8 	lui	s2,0xa8f8
bfc0596c:	36521690 	ori	s2,s2,0x1690
bfc05970:	00000000 	nop
bfc05974:	3c149a10 	lui	s4,0x9a10
bfc05978:	3694a8ec 	ori	s4,s4,0xa8ec
bfc0597c:	16140819 	bne	s0,s4,bfc079e4 <inst_error>
bfc05980:	00000000 	nop
bfc05984:	3c15a8f8 	lui	s5,0xa8f8
bfc05988:	36b51690 	ori	s5,s5,0x1690
bfc0598c:	16550815 	bne	s2,s5,bfc079e4 <inst_error>
bfc05990:	00000000 	nop
bfc05994:	3c0caf1b 	lui	t4,0xaf1b
bfc05998:	358c1580 	ori	t4,t4,0x1580
bfc0599c:	3c0d666a 	lui	t5,0x666a
bfc059a0:	35ad108a 	ori	t5,t5,0x108a
bfc059a4:	24100000 	li	s0,0
bfc059a8:	24120000 	li	s2,0
bfc059ac:	1000000a 	b	bfc059d8 <main+0x59d8>
bfc059b0:	00000000 	nop
bfc059b4:	3c10af1b 	lui	s0,0xaf1b
bfc059b8:	36101580 	ori	s0,s0,0x1580
bfc059bc:	10000011 	b	bfc05a04 <main+0x5a04>
bfc059c0:	00000000 	nop
bfc059c4:	10000011 	b	bfc05a0c <main+0x5a0c>
bfc059c8:	00000000 	nop
bfc059cc:	00000021 	move	zero,zero
bfc059d0:	00000021 	move	zero,zero
bfc059d4:	00000021 	move	zero,zero
bfc059d8:	1000fff6 	b	bfc059b4 <main+0x59b4>
bfc059dc:	00000000 	nop
bfc059e0:	1000000a 	b	bfc05a0c <main+0x5a0c>
bfc059e4:	00000000 	nop
bfc059e8:	00000021 	move	zero,zero
bfc059ec:	00000021 	move	zero,zero
bfc059f0:	00000021 	move	zero,zero
bfc059f4:	00000021 	move	zero,zero
bfc059f8:	00000021 	move	zero,zero
bfc059fc:	00000021 	move	zero,zero
bfc05a00:	00000021 	move	zero,zero
bfc05a04:	3c12666a 	lui	s2,0x666a
bfc05a08:	3652108a 	ori	s2,s2,0x108a
bfc05a0c:	00000000 	nop
bfc05a10:	3c14af1b 	lui	s4,0xaf1b
bfc05a14:	36941580 	ori	s4,s4,0x1580
bfc05a18:	161407f2 	bne	s0,s4,bfc079e4 <inst_error>
bfc05a1c:	00000000 	nop
bfc05a20:	3c15666a 	lui	s5,0x666a
bfc05a24:	36b5108a 	ori	s5,s5,0x108a
bfc05a28:	165507ee 	bne	s2,s5,bfc079e4 <inst_error>
bfc05a2c:	00000000 	nop
bfc05a30:	3c0c2f92 	lui	t4,0x2f92
bfc05a34:	358c2960 	ori	t4,t4,0x2960
bfc05a38:	3c0d79bc 	lui	t5,0x79bc
bfc05a3c:	35ada7e0 	ori	t5,t5,0xa7e0
bfc05a40:	24100000 	li	s0,0
bfc05a44:	24120000 	li	s2,0
bfc05a48:	1000000a 	b	bfc05a74 <main+0x5a74>
bfc05a4c:	00000000 	nop
bfc05a50:	3c102f92 	lui	s0,0x2f92
bfc05a54:	36102960 	ori	s0,s0,0x2960
bfc05a58:	10000011 	b	bfc05aa0 <main+0x5aa0>
bfc05a5c:	00000000 	nop
bfc05a60:	10000011 	b	bfc05aa8 <main+0x5aa8>
bfc05a64:	00000000 	nop
bfc05a68:	00000021 	move	zero,zero
bfc05a6c:	00000021 	move	zero,zero
bfc05a70:	00000021 	move	zero,zero
bfc05a74:	1000fff6 	b	bfc05a50 <main+0x5a50>
bfc05a78:	00000000 	nop
bfc05a7c:	1000000a 	b	bfc05aa8 <main+0x5aa8>
bfc05a80:	00000000 	nop
bfc05a84:	00000021 	move	zero,zero
bfc05a88:	00000021 	move	zero,zero
bfc05a8c:	00000021 	move	zero,zero
bfc05a90:	00000021 	move	zero,zero
bfc05a94:	00000021 	move	zero,zero
bfc05a98:	00000021 	move	zero,zero
bfc05a9c:	00000021 	move	zero,zero
bfc05aa0:	3c1279bc 	lui	s2,0x79bc
bfc05aa4:	3652a7e0 	ori	s2,s2,0xa7e0
bfc05aa8:	00000000 	nop
bfc05aac:	3c142f92 	lui	s4,0x2f92
bfc05ab0:	36942960 	ori	s4,s4,0x2960
bfc05ab4:	161407cb 	bne	s0,s4,bfc079e4 <inst_error>
bfc05ab8:	00000000 	nop
bfc05abc:	3c1579bc 	lui	s5,0x79bc
bfc05ac0:	36b5a7e0 	ori	s5,s5,0xa7e0
bfc05ac4:	165507c7 	bne	s2,s5,bfc079e4 <inst_error>
bfc05ac8:	00000000 	nop
bfc05acc:	3c0c6222 	lui	t4,0x6222
bfc05ad0:	358cb470 	ori	t4,t4,0xb470
bfc05ad4:	3c0d473d 	lui	t5,0x473d
bfc05ad8:	35adf7a0 	ori	t5,t5,0xf7a0
bfc05adc:	24100000 	li	s0,0
bfc05ae0:	24120000 	li	s2,0
bfc05ae4:	1000000a 	b	bfc05b10 <main+0x5b10>
bfc05ae8:	00000000 	nop
bfc05aec:	3c106222 	lui	s0,0x6222
bfc05af0:	3610b470 	ori	s0,s0,0xb470
bfc05af4:	10000011 	b	bfc05b3c <main+0x5b3c>
bfc05af8:	00000000 	nop
bfc05afc:	10000011 	b	bfc05b44 <main+0x5b44>
bfc05b00:	00000000 	nop
bfc05b04:	00000021 	move	zero,zero
bfc05b08:	00000021 	move	zero,zero
bfc05b0c:	00000021 	move	zero,zero
bfc05b10:	1000fff6 	b	bfc05aec <main+0x5aec>
bfc05b14:	00000000 	nop
bfc05b18:	1000000a 	b	bfc05b44 <main+0x5b44>
bfc05b1c:	00000000 	nop
bfc05b20:	00000021 	move	zero,zero
bfc05b24:	00000021 	move	zero,zero
bfc05b28:	00000021 	move	zero,zero
bfc05b2c:	00000021 	move	zero,zero
bfc05b30:	00000021 	move	zero,zero
bfc05b34:	00000021 	move	zero,zero
bfc05b38:	00000021 	move	zero,zero
bfc05b3c:	3c12473d 	lui	s2,0x473d
bfc05b40:	3652f7a0 	ori	s2,s2,0xf7a0
bfc05b44:	00000000 	nop
bfc05b48:	3c146222 	lui	s4,0x6222
bfc05b4c:	3694b470 	ori	s4,s4,0xb470
bfc05b50:	161407a4 	bne	s0,s4,bfc079e4 <inst_error>
bfc05b54:	00000000 	nop
bfc05b58:	3c15473d 	lui	s5,0x473d
bfc05b5c:	36b5f7a0 	ori	s5,s5,0xf7a0
bfc05b60:	165507a0 	bne	s2,s5,bfc079e4 <inst_error>
bfc05b64:	00000000 	nop
bfc05b68:	3c0ccfeb 	lui	t4,0xcfeb
bfc05b6c:	358c11f8 	ori	t4,t4,0x11f8
bfc05b70:	3c0de809 	lui	t5,0xe809
bfc05b74:	35ad00f0 	ori	t5,t5,0xf0
bfc05b78:	24100000 	li	s0,0
bfc05b7c:	24120000 	li	s2,0
bfc05b80:	1000000a 	b	bfc05bac <main+0x5bac>
bfc05b84:	00000000 	nop
bfc05b88:	3c10cfeb 	lui	s0,0xcfeb
bfc05b8c:	361011f8 	ori	s0,s0,0x11f8
bfc05b90:	10000011 	b	bfc05bd8 <main+0x5bd8>
bfc05b94:	00000000 	nop
bfc05b98:	10000011 	b	bfc05be0 <main+0x5be0>
bfc05b9c:	00000000 	nop
bfc05ba0:	00000021 	move	zero,zero
bfc05ba4:	00000021 	move	zero,zero
bfc05ba8:	00000021 	move	zero,zero
bfc05bac:	1000fff6 	b	bfc05b88 <main+0x5b88>
bfc05bb0:	00000000 	nop
bfc05bb4:	1000000a 	b	bfc05be0 <main+0x5be0>
bfc05bb8:	00000000 	nop
bfc05bbc:	00000021 	move	zero,zero
bfc05bc0:	00000021 	move	zero,zero
bfc05bc4:	00000021 	move	zero,zero
bfc05bc8:	00000021 	move	zero,zero
bfc05bcc:	00000021 	move	zero,zero
bfc05bd0:	00000021 	move	zero,zero
bfc05bd4:	00000021 	move	zero,zero
bfc05bd8:	3c12e809 	lui	s2,0xe809
bfc05bdc:	365200f0 	ori	s2,s2,0xf0
bfc05be0:	00000000 	nop
bfc05be4:	3c14cfeb 	lui	s4,0xcfeb
bfc05be8:	369411f8 	ori	s4,s4,0x11f8
bfc05bec:	1614077d 	bne	s0,s4,bfc079e4 <inst_error>
bfc05bf0:	00000000 	nop
bfc05bf4:	3c15e809 	lui	s5,0xe809
bfc05bf8:	36b500f0 	ori	s5,s5,0xf0
bfc05bfc:	16550779 	bne	s2,s5,bfc079e4 <inst_error>
bfc05c00:	00000000 	nop
bfc05c04:	3c0c85d4 	lui	t4,0x85d4
bfc05c08:	358cb680 	ori	t4,t4,0xb680
bfc05c0c:	3c0d2b49 	lui	t5,0x2b49
bfc05c10:	35ad0cfe 	ori	t5,t5,0xcfe
bfc05c14:	24100000 	li	s0,0
bfc05c18:	24120000 	li	s2,0
bfc05c1c:	1000000a 	b	bfc05c48 <main+0x5c48>
bfc05c20:	00000000 	nop
bfc05c24:	3c1085d4 	lui	s0,0x85d4
bfc05c28:	3610b680 	ori	s0,s0,0xb680
bfc05c2c:	10000011 	b	bfc05c74 <main+0x5c74>
bfc05c30:	00000000 	nop
bfc05c34:	10000011 	b	bfc05c7c <main+0x5c7c>
bfc05c38:	00000000 	nop
bfc05c3c:	00000021 	move	zero,zero
bfc05c40:	00000021 	move	zero,zero
bfc05c44:	00000021 	move	zero,zero
bfc05c48:	1000fff6 	b	bfc05c24 <main+0x5c24>
bfc05c4c:	00000000 	nop
bfc05c50:	1000000a 	b	bfc05c7c <main+0x5c7c>
bfc05c54:	00000000 	nop
bfc05c58:	00000021 	move	zero,zero
bfc05c5c:	00000021 	move	zero,zero
bfc05c60:	00000021 	move	zero,zero
bfc05c64:	00000021 	move	zero,zero
bfc05c68:	00000021 	move	zero,zero
bfc05c6c:	00000021 	move	zero,zero
bfc05c70:	00000021 	move	zero,zero
bfc05c74:	3c122b49 	lui	s2,0x2b49
bfc05c78:	36520cfe 	ori	s2,s2,0xcfe
bfc05c7c:	00000000 	nop
bfc05c80:	3c1485d4 	lui	s4,0x85d4
bfc05c84:	3694b680 	ori	s4,s4,0xb680
bfc05c88:	16140756 	bne	s0,s4,bfc079e4 <inst_error>
bfc05c8c:	00000000 	nop
bfc05c90:	3c152b49 	lui	s5,0x2b49
bfc05c94:	36b50cfe 	ori	s5,s5,0xcfe
bfc05c98:	16550752 	bne	s2,s5,bfc079e4 <inst_error>
bfc05c9c:	00000000 	nop
bfc05ca0:	3c0ca333 	lui	t4,0xa333
bfc05ca4:	358cbf20 	ori	t4,t4,0xbf20
bfc05ca8:	3c0d5f1c 	lui	t5,0x5f1c
bfc05cac:	35ad6698 	ori	t5,t5,0x6698
bfc05cb0:	24100000 	li	s0,0
bfc05cb4:	24120000 	li	s2,0
bfc05cb8:	1000000a 	b	bfc05ce4 <main+0x5ce4>
bfc05cbc:	00000000 	nop
bfc05cc0:	3c10a333 	lui	s0,0xa333
bfc05cc4:	3610bf20 	ori	s0,s0,0xbf20
bfc05cc8:	10000011 	b	bfc05d10 <main+0x5d10>
bfc05ccc:	00000000 	nop
bfc05cd0:	10000011 	b	bfc05d18 <main+0x5d18>
bfc05cd4:	00000000 	nop
bfc05cd8:	00000021 	move	zero,zero
bfc05cdc:	00000021 	move	zero,zero
bfc05ce0:	00000021 	move	zero,zero
bfc05ce4:	1000fff6 	b	bfc05cc0 <main+0x5cc0>
bfc05ce8:	00000000 	nop
bfc05cec:	1000000a 	b	bfc05d18 <main+0x5d18>
bfc05cf0:	00000000 	nop
bfc05cf4:	00000021 	move	zero,zero
bfc05cf8:	00000021 	move	zero,zero
bfc05cfc:	00000021 	move	zero,zero
bfc05d00:	00000021 	move	zero,zero
bfc05d04:	00000021 	move	zero,zero
bfc05d08:	00000021 	move	zero,zero
bfc05d0c:	00000021 	move	zero,zero
bfc05d10:	3c125f1c 	lui	s2,0x5f1c
bfc05d14:	36526698 	ori	s2,s2,0x6698
bfc05d18:	00000000 	nop
bfc05d1c:	3c14a333 	lui	s4,0xa333
bfc05d20:	3694bf20 	ori	s4,s4,0xbf20
bfc05d24:	1614072f 	bne	s0,s4,bfc079e4 <inst_error>
bfc05d28:	00000000 	nop
bfc05d2c:	3c155f1c 	lui	s5,0x5f1c
bfc05d30:	36b56698 	ori	s5,s5,0x6698
bfc05d34:	1655072b 	bne	s2,s5,bfc079e4 <inst_error>
bfc05d38:	00000000 	nop
bfc05d3c:	3c0c69ef 	lui	t4,0x69ef
bfc05d40:	358ccf00 	ori	t4,t4,0xcf00
bfc05d44:	3c0d2fa1 	lui	t5,0x2fa1
bfc05d48:	35add3dc 	ori	t5,t5,0xd3dc
bfc05d4c:	24100000 	li	s0,0
bfc05d50:	24120000 	li	s2,0
bfc05d54:	1000000a 	b	bfc05d80 <main+0x5d80>
bfc05d58:	00000000 	nop
bfc05d5c:	3c1069ef 	lui	s0,0x69ef
bfc05d60:	3610cf00 	ori	s0,s0,0xcf00
bfc05d64:	10000011 	b	bfc05dac <main+0x5dac>
bfc05d68:	00000000 	nop
bfc05d6c:	10000011 	b	bfc05db4 <main+0x5db4>
bfc05d70:	00000000 	nop
bfc05d74:	00000021 	move	zero,zero
bfc05d78:	00000021 	move	zero,zero
bfc05d7c:	00000021 	move	zero,zero
bfc05d80:	1000fff6 	b	bfc05d5c <main+0x5d5c>
bfc05d84:	00000000 	nop
bfc05d88:	1000000a 	b	bfc05db4 <main+0x5db4>
bfc05d8c:	00000000 	nop
bfc05d90:	00000021 	move	zero,zero
bfc05d94:	00000021 	move	zero,zero
bfc05d98:	00000021 	move	zero,zero
bfc05d9c:	00000021 	move	zero,zero
bfc05da0:	00000021 	move	zero,zero
bfc05da4:	00000021 	move	zero,zero
bfc05da8:	00000021 	move	zero,zero
bfc05dac:	3c122fa1 	lui	s2,0x2fa1
bfc05db0:	3652d3dc 	ori	s2,s2,0xd3dc
bfc05db4:	00000000 	nop
bfc05db8:	3c1469ef 	lui	s4,0x69ef
bfc05dbc:	3694cf00 	ori	s4,s4,0xcf00
bfc05dc0:	16140708 	bne	s0,s4,bfc079e4 <inst_error>
bfc05dc4:	00000000 	nop
bfc05dc8:	3c152fa1 	lui	s5,0x2fa1
bfc05dcc:	36b5d3dc 	ori	s5,s5,0xd3dc
bfc05dd0:	16550704 	bne	s2,s5,bfc079e4 <inst_error>
bfc05dd4:	00000000 	nop
bfc05dd8:	3c0c8959 	lui	t4,0x8959
bfc05ddc:	358c486f 	ori	t4,t4,0x486f
bfc05de0:	3c0d8590 	lui	t5,0x8590
bfc05de4:	35adfce0 	ori	t5,t5,0xfce0
bfc05de8:	24100000 	li	s0,0
bfc05dec:	24120000 	li	s2,0
bfc05df0:	1000000a 	b	bfc05e1c <main+0x5e1c>
bfc05df4:	00000000 	nop
bfc05df8:	3c108959 	lui	s0,0x8959
bfc05dfc:	3610486f 	ori	s0,s0,0x486f
bfc05e00:	10000011 	b	bfc05e48 <main+0x5e48>
bfc05e04:	00000000 	nop
bfc05e08:	10000011 	b	bfc05e50 <main+0x5e50>
bfc05e0c:	00000000 	nop
bfc05e10:	00000021 	move	zero,zero
bfc05e14:	00000021 	move	zero,zero
bfc05e18:	00000021 	move	zero,zero
bfc05e1c:	1000fff6 	b	bfc05df8 <main+0x5df8>
bfc05e20:	00000000 	nop
bfc05e24:	1000000a 	b	bfc05e50 <main+0x5e50>
bfc05e28:	00000000 	nop
bfc05e2c:	00000021 	move	zero,zero
bfc05e30:	00000021 	move	zero,zero
bfc05e34:	00000021 	move	zero,zero
bfc05e38:	00000021 	move	zero,zero
bfc05e3c:	00000021 	move	zero,zero
bfc05e40:	00000021 	move	zero,zero
bfc05e44:	00000021 	move	zero,zero
bfc05e48:	3c128590 	lui	s2,0x8590
bfc05e4c:	3652fce0 	ori	s2,s2,0xfce0
bfc05e50:	00000000 	nop
bfc05e54:	3c148959 	lui	s4,0x8959
bfc05e58:	3694486f 	ori	s4,s4,0x486f
bfc05e5c:	161406e1 	bne	s0,s4,bfc079e4 <inst_error>
bfc05e60:	00000000 	nop
bfc05e64:	3c158590 	lui	s5,0x8590
bfc05e68:	36b5fce0 	ori	s5,s5,0xfce0
bfc05e6c:	165506dd 	bne	s2,s5,bfc079e4 <inst_error>
bfc05e70:	00000000 	nop
bfc05e74:	3c0ca24e 	lui	t4,0xa24e
bfc05e78:	358c76a0 	ori	t4,t4,0x76a0
bfc05e7c:	3c0d8b1d 	lui	t5,0x8b1d
bfc05e80:	35ad9dea 	ori	t5,t5,0x9dea
bfc05e84:	24100000 	li	s0,0
bfc05e88:	24120000 	li	s2,0
bfc05e8c:	1000000a 	b	bfc05eb8 <main+0x5eb8>
bfc05e90:	00000000 	nop
bfc05e94:	3c10a24e 	lui	s0,0xa24e
bfc05e98:	361076a0 	ori	s0,s0,0x76a0
bfc05e9c:	10000011 	b	bfc05ee4 <main+0x5ee4>
bfc05ea0:	00000000 	nop
bfc05ea4:	10000011 	b	bfc05eec <main+0x5eec>
bfc05ea8:	00000000 	nop
bfc05eac:	00000021 	move	zero,zero
bfc05eb0:	00000021 	move	zero,zero
bfc05eb4:	00000021 	move	zero,zero
bfc05eb8:	1000fff6 	b	bfc05e94 <main+0x5e94>
bfc05ebc:	00000000 	nop
bfc05ec0:	1000000a 	b	bfc05eec <main+0x5eec>
bfc05ec4:	00000000 	nop
bfc05ec8:	00000021 	move	zero,zero
bfc05ecc:	00000021 	move	zero,zero
bfc05ed0:	00000021 	move	zero,zero
bfc05ed4:	00000021 	move	zero,zero
bfc05ed8:	00000021 	move	zero,zero
bfc05edc:	00000021 	move	zero,zero
bfc05ee0:	00000021 	move	zero,zero
bfc05ee4:	3c128b1d 	lui	s2,0x8b1d
bfc05ee8:	36529dea 	ori	s2,s2,0x9dea
bfc05eec:	00000000 	nop
bfc05ef0:	3c14a24e 	lui	s4,0xa24e
bfc05ef4:	369476a0 	ori	s4,s4,0x76a0
bfc05ef8:	161406ba 	bne	s0,s4,bfc079e4 <inst_error>
bfc05efc:	00000000 	nop
bfc05f00:	3c158b1d 	lui	s5,0x8b1d
bfc05f04:	36b59dea 	ori	s5,s5,0x9dea
bfc05f08:	165506b6 	bne	s2,s5,bfc079e4 <inst_error>
bfc05f0c:	00000000 	nop
bfc05f10:	3c0cdef2 	lui	t4,0xdef2
bfc05f14:	358c54e6 	ori	t4,t4,0x54e6
bfc05f18:	3c0de963 	lui	t5,0xe963
bfc05f1c:	35ad7dea 	ori	t5,t5,0x7dea
bfc05f20:	24100000 	li	s0,0
bfc05f24:	24120000 	li	s2,0
bfc05f28:	1000000a 	b	bfc05f54 <main+0x5f54>
bfc05f2c:	00000000 	nop
bfc05f30:	3c10def2 	lui	s0,0xdef2
bfc05f34:	361054e6 	ori	s0,s0,0x54e6
bfc05f38:	10000011 	b	bfc05f80 <main+0x5f80>
bfc05f3c:	00000000 	nop
bfc05f40:	10000011 	b	bfc05f88 <main+0x5f88>
bfc05f44:	00000000 	nop
bfc05f48:	00000021 	move	zero,zero
bfc05f4c:	00000021 	move	zero,zero
bfc05f50:	00000021 	move	zero,zero
bfc05f54:	1000fff6 	b	bfc05f30 <main+0x5f30>
bfc05f58:	00000000 	nop
bfc05f5c:	1000000a 	b	bfc05f88 <main+0x5f88>
bfc05f60:	00000000 	nop
bfc05f64:	00000021 	move	zero,zero
bfc05f68:	00000021 	move	zero,zero
bfc05f6c:	00000021 	move	zero,zero
bfc05f70:	00000021 	move	zero,zero
bfc05f74:	00000021 	move	zero,zero
bfc05f78:	00000021 	move	zero,zero
bfc05f7c:	00000021 	move	zero,zero
bfc05f80:	3c12e963 	lui	s2,0xe963
bfc05f84:	36527dea 	ori	s2,s2,0x7dea
bfc05f88:	00000000 	nop
bfc05f8c:	3c14def2 	lui	s4,0xdef2
bfc05f90:	369454e6 	ori	s4,s4,0x54e6
bfc05f94:	16140693 	bne	s0,s4,bfc079e4 <inst_error>
bfc05f98:	00000000 	nop
bfc05f9c:	3c15e963 	lui	s5,0xe963
bfc05fa0:	36b57dea 	ori	s5,s5,0x7dea
bfc05fa4:	1655068f 	bne	s2,s5,bfc079e4 <inst_error>
bfc05fa8:	00000000 	nop
bfc05fac:	3c0c09d2 	lui	t4,0x9d2
bfc05fb0:	358cdbc2 	ori	t4,t4,0xdbc2
bfc05fb4:	3c0dd72f 	lui	t5,0xd72f
bfc05fb8:	35adc808 	ori	t5,t5,0xc808
bfc05fbc:	24100000 	li	s0,0
bfc05fc0:	24120000 	li	s2,0
bfc05fc4:	1000000a 	b	bfc05ff0 <main+0x5ff0>
bfc05fc8:	00000000 	nop
bfc05fcc:	3c1009d2 	lui	s0,0x9d2
bfc05fd0:	3610dbc2 	ori	s0,s0,0xdbc2
bfc05fd4:	10000011 	b	bfc0601c <main+0x601c>
bfc05fd8:	00000000 	nop
bfc05fdc:	10000011 	b	bfc06024 <main+0x6024>
bfc05fe0:	00000000 	nop
bfc05fe4:	00000021 	move	zero,zero
bfc05fe8:	00000021 	move	zero,zero
bfc05fec:	00000021 	move	zero,zero
bfc05ff0:	1000fff6 	b	bfc05fcc <main+0x5fcc>
bfc05ff4:	00000000 	nop
bfc05ff8:	1000000a 	b	bfc06024 <main+0x6024>
bfc05ffc:	00000000 	nop
bfc06000:	00000021 	move	zero,zero
bfc06004:	00000021 	move	zero,zero
bfc06008:	00000021 	move	zero,zero
bfc0600c:	00000021 	move	zero,zero
bfc06010:	00000021 	move	zero,zero
bfc06014:	00000021 	move	zero,zero
bfc06018:	00000021 	move	zero,zero
bfc0601c:	3c12d72f 	lui	s2,0xd72f
bfc06020:	3652c808 	ori	s2,s2,0xc808
bfc06024:	00000000 	nop
bfc06028:	3c1409d2 	lui	s4,0x9d2
bfc0602c:	3694dbc2 	ori	s4,s4,0xdbc2
bfc06030:	1614066c 	bne	s0,s4,bfc079e4 <inst_error>
bfc06034:	00000000 	nop
bfc06038:	3c15d72f 	lui	s5,0xd72f
bfc0603c:	36b5c808 	ori	s5,s5,0xc808
bfc06040:	16550668 	bne	s2,s5,bfc079e4 <inst_error>
bfc06044:	00000000 	nop
bfc06048:	3c0cb3ae 	lui	t4,0xb3ae
bfc0604c:	358cc756 	ori	t4,t4,0xc756
bfc06050:	3c0d52d4 	lui	t5,0x52d4
bfc06054:	35ada080 	ori	t5,t5,0xa080
bfc06058:	24100000 	li	s0,0
bfc0605c:	24120000 	li	s2,0
bfc06060:	1000000a 	b	bfc0608c <main+0x608c>
bfc06064:	00000000 	nop
bfc06068:	3c10b3ae 	lui	s0,0xb3ae
bfc0606c:	3610c756 	ori	s0,s0,0xc756
bfc06070:	10000011 	b	bfc060b8 <main+0x60b8>
bfc06074:	00000000 	nop
bfc06078:	10000011 	b	bfc060c0 <main+0x60c0>
bfc0607c:	00000000 	nop
bfc06080:	00000021 	move	zero,zero
bfc06084:	00000021 	move	zero,zero
bfc06088:	00000021 	move	zero,zero
bfc0608c:	1000fff6 	b	bfc06068 <main+0x6068>
bfc06090:	00000000 	nop
bfc06094:	1000000a 	b	bfc060c0 <main+0x60c0>
bfc06098:	00000000 	nop
bfc0609c:	00000021 	move	zero,zero
bfc060a0:	00000021 	move	zero,zero
bfc060a4:	00000021 	move	zero,zero
bfc060a8:	00000021 	move	zero,zero
bfc060ac:	00000021 	move	zero,zero
bfc060b0:	00000021 	move	zero,zero
bfc060b4:	00000021 	move	zero,zero
bfc060b8:	3c1252d4 	lui	s2,0x52d4
bfc060bc:	3652a080 	ori	s2,s2,0xa080
bfc060c0:	00000000 	nop
bfc060c4:	3c14b3ae 	lui	s4,0xb3ae
bfc060c8:	3694c756 	ori	s4,s4,0xc756
bfc060cc:	16140645 	bne	s0,s4,bfc079e4 <inst_error>
bfc060d0:	00000000 	nop
bfc060d4:	3c1552d4 	lui	s5,0x52d4
bfc060d8:	36b5a080 	ori	s5,s5,0xa080
bfc060dc:	16550641 	bne	s2,s5,bfc079e4 <inst_error>
bfc060e0:	00000000 	nop
bfc060e4:	3c0c2507 	lui	t4,0x2507
bfc060e8:	358c8274 	ori	t4,t4,0x8274
bfc060ec:	3c0dac5e 	lui	t5,0xac5e
bfc060f0:	35ade0c0 	ori	t5,t5,0xe0c0
bfc060f4:	24100000 	li	s0,0
bfc060f8:	24120000 	li	s2,0
bfc060fc:	1000000a 	b	bfc06128 <main+0x6128>
bfc06100:	00000000 	nop
bfc06104:	3c102507 	lui	s0,0x2507
bfc06108:	36108274 	ori	s0,s0,0x8274
bfc0610c:	10000011 	b	bfc06154 <main+0x6154>
bfc06110:	00000000 	nop
bfc06114:	10000011 	b	bfc0615c <main+0x615c>
bfc06118:	00000000 	nop
bfc0611c:	00000021 	move	zero,zero
bfc06120:	00000021 	move	zero,zero
bfc06124:	00000021 	move	zero,zero
bfc06128:	1000fff6 	b	bfc06104 <main+0x6104>
bfc0612c:	00000000 	nop
bfc06130:	1000000a 	b	bfc0615c <main+0x615c>
bfc06134:	00000000 	nop
bfc06138:	00000021 	move	zero,zero
bfc0613c:	00000021 	move	zero,zero
bfc06140:	00000021 	move	zero,zero
bfc06144:	00000021 	move	zero,zero
bfc06148:	00000021 	move	zero,zero
bfc0614c:	00000021 	move	zero,zero
bfc06150:	00000021 	move	zero,zero
bfc06154:	3c12ac5e 	lui	s2,0xac5e
bfc06158:	3652e0c0 	ori	s2,s2,0xe0c0
bfc0615c:	00000000 	nop
bfc06160:	3c142507 	lui	s4,0x2507
bfc06164:	36948274 	ori	s4,s4,0x8274
bfc06168:	1614061e 	bne	s0,s4,bfc079e4 <inst_error>
bfc0616c:	00000000 	nop
bfc06170:	3c15ac5e 	lui	s5,0xac5e
bfc06174:	36b5e0c0 	ori	s5,s5,0xe0c0
bfc06178:	1655061a 	bne	s2,s5,bfc079e4 <inst_error>
bfc0617c:	00000000 	nop
bfc06180:	3c0c4e13 	lui	t4,0x4e13
bfc06184:	358c2415 	ori	t4,t4,0x2415
bfc06188:	3c0d7db7 	lui	t5,0x7db7
bfc0618c:	35adb048 	ori	t5,t5,0xb048
bfc06190:	24100000 	li	s0,0
bfc06194:	24120000 	li	s2,0
bfc06198:	1000000a 	b	bfc061c4 <main+0x61c4>
bfc0619c:	00000000 	nop
bfc061a0:	3c104e13 	lui	s0,0x4e13
bfc061a4:	36102415 	ori	s0,s0,0x2415
bfc061a8:	10000011 	b	bfc061f0 <main+0x61f0>
bfc061ac:	00000000 	nop
bfc061b0:	10000011 	b	bfc061f8 <main+0x61f8>
bfc061b4:	00000000 	nop
bfc061b8:	00000021 	move	zero,zero
bfc061bc:	00000021 	move	zero,zero
bfc061c0:	00000021 	move	zero,zero
bfc061c4:	1000fff6 	b	bfc061a0 <main+0x61a0>
bfc061c8:	00000000 	nop
bfc061cc:	1000000a 	b	bfc061f8 <main+0x61f8>
bfc061d0:	00000000 	nop
bfc061d4:	00000021 	move	zero,zero
bfc061d8:	00000021 	move	zero,zero
bfc061dc:	00000021 	move	zero,zero
bfc061e0:	00000021 	move	zero,zero
bfc061e4:	00000021 	move	zero,zero
bfc061e8:	00000021 	move	zero,zero
bfc061ec:	00000021 	move	zero,zero
bfc061f0:	3c127db7 	lui	s2,0x7db7
bfc061f4:	3652b048 	ori	s2,s2,0xb048
bfc061f8:	00000000 	nop
bfc061fc:	3c144e13 	lui	s4,0x4e13
bfc06200:	36942415 	ori	s4,s4,0x2415
bfc06204:	161405f7 	bne	s0,s4,bfc079e4 <inst_error>
bfc06208:	00000000 	nop
bfc0620c:	3c157db7 	lui	s5,0x7db7
bfc06210:	36b5b048 	ori	s5,s5,0xb048
bfc06214:	165505f3 	bne	s2,s5,bfc079e4 <inst_error>
bfc06218:	00000000 	nop
bfc0621c:	3c0cb4bf 	lui	t4,0xb4bf
bfc06220:	358cffe0 	ori	t4,t4,0xffe0
bfc06224:	3c0d584a 	lui	t5,0x584a
bfc06228:	35adf448 	ori	t5,t5,0xf448
bfc0622c:	24100000 	li	s0,0
bfc06230:	24120000 	li	s2,0
bfc06234:	1000000a 	b	bfc06260 <main+0x6260>
bfc06238:	00000000 	nop
bfc0623c:	3c10b4bf 	lui	s0,0xb4bf
bfc06240:	3610ffe0 	ori	s0,s0,0xffe0
bfc06244:	10000011 	b	bfc0628c <main+0x628c>
bfc06248:	00000000 	nop
bfc0624c:	10000011 	b	bfc06294 <main+0x6294>
bfc06250:	00000000 	nop
bfc06254:	00000021 	move	zero,zero
bfc06258:	00000021 	move	zero,zero
bfc0625c:	00000021 	move	zero,zero
bfc06260:	1000fff6 	b	bfc0623c <main+0x623c>
bfc06264:	00000000 	nop
bfc06268:	1000000a 	b	bfc06294 <main+0x6294>
bfc0626c:	00000000 	nop
bfc06270:	00000021 	move	zero,zero
bfc06274:	00000021 	move	zero,zero
bfc06278:	00000021 	move	zero,zero
bfc0627c:	00000021 	move	zero,zero
bfc06280:	00000021 	move	zero,zero
bfc06284:	00000021 	move	zero,zero
bfc06288:	00000021 	move	zero,zero
bfc0628c:	3c12584a 	lui	s2,0x584a
bfc06290:	3652f448 	ori	s2,s2,0xf448
bfc06294:	00000000 	nop
bfc06298:	3c14b4bf 	lui	s4,0xb4bf
bfc0629c:	3694ffe0 	ori	s4,s4,0xffe0
bfc062a0:	161405d0 	bne	s0,s4,bfc079e4 <inst_error>
bfc062a4:	00000000 	nop
bfc062a8:	3c15584a 	lui	s5,0x584a
bfc062ac:	36b5f448 	ori	s5,s5,0xf448
bfc062b0:	165505cc 	bne	s2,s5,bfc079e4 <inst_error>
bfc062b4:	00000000 	nop
bfc062b8:	3c0c9555 	lui	t4,0x9555
bfc062bc:	358c0edf 	ori	t4,t4,0xedf
bfc062c0:	3c0d70bf 	lui	t5,0x70bf
bfc062c4:	35ad3aff 	ori	t5,t5,0x3aff
bfc062c8:	24100000 	li	s0,0
bfc062cc:	24120000 	li	s2,0
bfc062d0:	1000000a 	b	bfc062fc <main+0x62fc>
bfc062d4:	00000000 	nop
bfc062d8:	3c109555 	lui	s0,0x9555
bfc062dc:	36100edf 	ori	s0,s0,0xedf
bfc062e0:	10000011 	b	bfc06328 <main+0x6328>
bfc062e4:	00000000 	nop
bfc062e8:	10000011 	b	bfc06330 <main+0x6330>
bfc062ec:	00000000 	nop
bfc062f0:	00000021 	move	zero,zero
bfc062f4:	00000021 	move	zero,zero
bfc062f8:	00000021 	move	zero,zero
bfc062fc:	1000fff6 	b	bfc062d8 <main+0x62d8>
bfc06300:	00000000 	nop
bfc06304:	1000000a 	b	bfc06330 <main+0x6330>
bfc06308:	00000000 	nop
bfc0630c:	00000021 	move	zero,zero
bfc06310:	00000021 	move	zero,zero
bfc06314:	00000021 	move	zero,zero
bfc06318:	00000021 	move	zero,zero
bfc0631c:	00000021 	move	zero,zero
bfc06320:	00000021 	move	zero,zero
bfc06324:	00000021 	move	zero,zero
bfc06328:	3c1270bf 	lui	s2,0x70bf
bfc0632c:	36523aff 	ori	s2,s2,0x3aff
bfc06330:	00000000 	nop
bfc06334:	3c149555 	lui	s4,0x9555
bfc06338:	36940edf 	ori	s4,s4,0xedf
bfc0633c:	161405a9 	bne	s0,s4,bfc079e4 <inst_error>
bfc06340:	00000000 	nop
bfc06344:	3c1570bf 	lui	s5,0x70bf
bfc06348:	36b53aff 	ori	s5,s5,0x3aff
bfc0634c:	165505a5 	bne	s2,s5,bfc079e4 <inst_error>
bfc06350:	00000000 	nop
bfc06354:	3c0c37c9 	lui	t4,0x37c9
bfc06358:	358cb418 	ori	t4,t4,0xb418
bfc0635c:	3c0d1ede 	lui	t5,0x1ede
bfc06360:	35ada5ab 	ori	t5,t5,0xa5ab
bfc06364:	24100000 	li	s0,0
bfc06368:	24120000 	li	s2,0
bfc0636c:	1000000a 	b	bfc06398 <main+0x6398>
bfc06370:	00000000 	nop
bfc06374:	3c1037c9 	lui	s0,0x37c9
bfc06378:	3610b418 	ori	s0,s0,0xb418
bfc0637c:	10000011 	b	bfc063c4 <main+0x63c4>
bfc06380:	00000000 	nop
bfc06384:	10000011 	b	bfc063cc <main+0x63cc>
bfc06388:	00000000 	nop
bfc0638c:	00000021 	move	zero,zero
bfc06390:	00000021 	move	zero,zero
bfc06394:	00000021 	move	zero,zero
bfc06398:	1000fff6 	b	bfc06374 <main+0x6374>
bfc0639c:	00000000 	nop
bfc063a0:	1000000a 	b	bfc063cc <main+0x63cc>
bfc063a4:	00000000 	nop
bfc063a8:	00000021 	move	zero,zero
bfc063ac:	00000021 	move	zero,zero
bfc063b0:	00000021 	move	zero,zero
bfc063b4:	00000021 	move	zero,zero
bfc063b8:	00000021 	move	zero,zero
bfc063bc:	00000021 	move	zero,zero
bfc063c0:	00000021 	move	zero,zero
bfc063c4:	3c121ede 	lui	s2,0x1ede
bfc063c8:	3652a5ab 	ori	s2,s2,0xa5ab
bfc063cc:	00000000 	nop
bfc063d0:	3c1437c9 	lui	s4,0x37c9
bfc063d4:	3694b418 	ori	s4,s4,0xb418
bfc063d8:	16140582 	bne	s0,s4,bfc079e4 <inst_error>
bfc063dc:	00000000 	nop
bfc063e0:	3c151ede 	lui	s5,0x1ede
bfc063e4:	36b5a5ab 	ori	s5,s5,0xa5ab
bfc063e8:	1655057e 	bne	s2,s5,bfc079e4 <inst_error>
bfc063ec:	00000000 	nop
bfc063f0:	3c0cfeb6 	lui	t4,0xfeb6
bfc063f4:	358cf680 	ori	t4,t4,0xf680
bfc063f8:	3c0d8799 	lui	t5,0x8799
bfc063fc:	35ad7a49 	ori	t5,t5,0x7a49
bfc06400:	24100000 	li	s0,0
bfc06404:	24120000 	li	s2,0
bfc06408:	1000000a 	b	bfc06434 <main+0x6434>
bfc0640c:	00000000 	nop
bfc06410:	3c10feb6 	lui	s0,0xfeb6
bfc06414:	3610f680 	ori	s0,s0,0xf680
bfc06418:	10000011 	b	bfc06460 <main+0x6460>
bfc0641c:	00000000 	nop
bfc06420:	10000011 	b	bfc06468 <main+0x6468>
bfc06424:	00000000 	nop
bfc06428:	00000021 	move	zero,zero
bfc0642c:	00000021 	move	zero,zero
bfc06430:	00000021 	move	zero,zero
bfc06434:	1000fff6 	b	bfc06410 <main+0x6410>
bfc06438:	00000000 	nop
bfc0643c:	1000000a 	b	bfc06468 <main+0x6468>
bfc06440:	00000000 	nop
bfc06444:	00000021 	move	zero,zero
bfc06448:	00000021 	move	zero,zero
bfc0644c:	00000021 	move	zero,zero
bfc06450:	00000021 	move	zero,zero
bfc06454:	00000021 	move	zero,zero
bfc06458:	00000021 	move	zero,zero
bfc0645c:	00000021 	move	zero,zero
bfc06460:	3c128799 	lui	s2,0x8799
bfc06464:	36527a49 	ori	s2,s2,0x7a49
bfc06468:	00000000 	nop
bfc0646c:	3c14feb6 	lui	s4,0xfeb6
bfc06470:	3694f680 	ori	s4,s4,0xf680
bfc06474:	1614055b 	bne	s0,s4,bfc079e4 <inst_error>
bfc06478:	00000000 	nop
bfc0647c:	3c158799 	lui	s5,0x8799
bfc06480:	36b57a49 	ori	s5,s5,0x7a49
bfc06484:	16550557 	bne	s2,s5,bfc079e4 <inst_error>
bfc06488:	00000000 	nop
bfc0648c:	3c0cd062 	lui	t4,0xd062
bfc06490:	358cc193 	ori	t4,t4,0xc193
bfc06494:	3c0dc5a1 	lui	t5,0xc5a1
bfc06498:	35adccf0 	ori	t5,t5,0xccf0
bfc0649c:	24100000 	li	s0,0
bfc064a0:	24120000 	li	s2,0
bfc064a4:	1000000a 	b	bfc064d0 <main+0x64d0>
bfc064a8:	00000000 	nop
bfc064ac:	3c10d062 	lui	s0,0xd062
bfc064b0:	3610c193 	ori	s0,s0,0xc193
bfc064b4:	10000011 	b	bfc064fc <main+0x64fc>
bfc064b8:	00000000 	nop
bfc064bc:	10000011 	b	bfc06504 <main+0x6504>
bfc064c0:	00000000 	nop
bfc064c4:	00000021 	move	zero,zero
bfc064c8:	00000021 	move	zero,zero
bfc064cc:	00000021 	move	zero,zero
bfc064d0:	1000fff6 	b	bfc064ac <main+0x64ac>
bfc064d4:	00000000 	nop
bfc064d8:	1000000a 	b	bfc06504 <main+0x6504>
bfc064dc:	00000000 	nop
bfc064e0:	00000021 	move	zero,zero
bfc064e4:	00000021 	move	zero,zero
bfc064e8:	00000021 	move	zero,zero
bfc064ec:	00000021 	move	zero,zero
bfc064f0:	00000021 	move	zero,zero
bfc064f4:	00000021 	move	zero,zero
bfc064f8:	00000021 	move	zero,zero
bfc064fc:	3c12c5a1 	lui	s2,0xc5a1
bfc06500:	3652ccf0 	ori	s2,s2,0xccf0
bfc06504:	00000000 	nop
bfc06508:	3c14d062 	lui	s4,0xd062
bfc0650c:	3694c193 	ori	s4,s4,0xc193
bfc06510:	16140534 	bne	s0,s4,bfc079e4 <inst_error>
bfc06514:	00000000 	nop
bfc06518:	3c15c5a1 	lui	s5,0xc5a1
bfc0651c:	36b5ccf0 	ori	s5,s5,0xccf0
bfc06520:	16550530 	bne	s2,s5,bfc079e4 <inst_error>
bfc06524:	00000000 	nop
bfc06528:	3c0c1648 	lui	t4,0x1648
bfc0652c:	358c6a7c 	ori	t4,t4,0x6a7c
bfc06530:	3c0d512e 	lui	t5,0x512e
bfc06534:	35ad7094 	ori	t5,t5,0x7094
bfc06538:	24100000 	li	s0,0
bfc0653c:	24120000 	li	s2,0
bfc06540:	1000000a 	b	bfc0656c <main+0x656c>
bfc06544:	00000000 	nop
bfc06548:	3c101648 	lui	s0,0x1648
bfc0654c:	36106a7c 	ori	s0,s0,0x6a7c
bfc06550:	10000011 	b	bfc06598 <main+0x6598>
bfc06554:	00000000 	nop
bfc06558:	10000011 	b	bfc065a0 <main+0x65a0>
bfc0655c:	00000000 	nop
bfc06560:	00000021 	move	zero,zero
bfc06564:	00000021 	move	zero,zero
bfc06568:	00000021 	move	zero,zero
bfc0656c:	1000fff6 	b	bfc06548 <main+0x6548>
bfc06570:	00000000 	nop
bfc06574:	1000000a 	b	bfc065a0 <main+0x65a0>
bfc06578:	00000000 	nop
bfc0657c:	00000021 	move	zero,zero
bfc06580:	00000021 	move	zero,zero
bfc06584:	00000021 	move	zero,zero
bfc06588:	00000021 	move	zero,zero
bfc0658c:	00000021 	move	zero,zero
bfc06590:	00000021 	move	zero,zero
bfc06594:	00000021 	move	zero,zero
bfc06598:	3c12512e 	lui	s2,0x512e
bfc0659c:	36527094 	ori	s2,s2,0x7094
bfc065a0:	00000000 	nop
bfc065a4:	3c141648 	lui	s4,0x1648
bfc065a8:	36946a7c 	ori	s4,s4,0x6a7c
bfc065ac:	1614050d 	bne	s0,s4,bfc079e4 <inst_error>
bfc065b0:	00000000 	nop
bfc065b4:	3c15512e 	lui	s5,0x512e
bfc065b8:	36b57094 	ori	s5,s5,0x7094
bfc065bc:	16550509 	bne	s2,s5,bfc079e4 <inst_error>
bfc065c0:	00000000 	nop
bfc065c4:	3c0c3dca 	lui	t4,0x3dca
bfc065c8:	358cdb74 	ori	t4,t4,0xdb74
bfc065cc:	3c0d1893 	lui	t5,0x1893
bfc065d0:	35ad2800 	ori	t5,t5,0x2800
bfc065d4:	24100000 	li	s0,0
bfc065d8:	24120000 	li	s2,0
bfc065dc:	1000000a 	b	bfc06608 <main+0x6608>
bfc065e0:	00000000 	nop
bfc065e4:	3c103dca 	lui	s0,0x3dca
bfc065e8:	3610db74 	ori	s0,s0,0xdb74
bfc065ec:	10000011 	b	bfc06634 <main+0x6634>
bfc065f0:	00000000 	nop
bfc065f4:	10000011 	b	bfc0663c <main+0x663c>
bfc065f8:	00000000 	nop
bfc065fc:	00000021 	move	zero,zero
bfc06600:	00000021 	move	zero,zero
bfc06604:	00000021 	move	zero,zero
bfc06608:	1000fff6 	b	bfc065e4 <main+0x65e4>
bfc0660c:	00000000 	nop
bfc06610:	1000000a 	b	bfc0663c <main+0x663c>
bfc06614:	00000000 	nop
bfc06618:	00000021 	move	zero,zero
bfc0661c:	00000021 	move	zero,zero
bfc06620:	00000021 	move	zero,zero
bfc06624:	00000021 	move	zero,zero
bfc06628:	00000021 	move	zero,zero
bfc0662c:	00000021 	move	zero,zero
bfc06630:	00000021 	move	zero,zero
bfc06634:	3c121893 	lui	s2,0x1893
bfc06638:	36522800 	ori	s2,s2,0x2800
bfc0663c:	00000000 	nop
bfc06640:	3c143dca 	lui	s4,0x3dca
bfc06644:	3694db74 	ori	s4,s4,0xdb74
bfc06648:	161404e6 	bne	s0,s4,bfc079e4 <inst_error>
bfc0664c:	00000000 	nop
bfc06650:	3c151893 	lui	s5,0x1893
bfc06654:	36b52800 	ori	s5,s5,0x2800
bfc06658:	165504e2 	bne	s2,s5,bfc079e4 <inst_error>
bfc0665c:	00000000 	nop
bfc06660:	3c0c1d42 	lui	t4,0x1d42
bfc06664:	358cafc0 	ori	t4,t4,0xafc0
bfc06668:	3c0dfd7e 	lui	t5,0xfd7e
bfc0666c:	35ad0f80 	ori	t5,t5,0xf80
bfc06670:	24100000 	li	s0,0
bfc06674:	24120000 	li	s2,0
bfc06678:	1000000a 	b	bfc066a4 <main+0x66a4>
bfc0667c:	00000000 	nop
bfc06680:	3c101d42 	lui	s0,0x1d42
bfc06684:	3610afc0 	ori	s0,s0,0xafc0
bfc06688:	10000011 	b	bfc066d0 <main+0x66d0>
bfc0668c:	00000000 	nop
bfc06690:	10000011 	b	bfc066d8 <main+0x66d8>
bfc06694:	00000000 	nop
bfc06698:	00000021 	move	zero,zero
bfc0669c:	00000021 	move	zero,zero
bfc066a0:	00000021 	move	zero,zero
bfc066a4:	1000fff6 	b	bfc06680 <main+0x6680>
bfc066a8:	00000000 	nop
bfc066ac:	1000000a 	b	bfc066d8 <main+0x66d8>
bfc066b0:	00000000 	nop
bfc066b4:	00000021 	move	zero,zero
bfc066b8:	00000021 	move	zero,zero
bfc066bc:	00000021 	move	zero,zero
bfc066c0:	00000021 	move	zero,zero
bfc066c4:	00000021 	move	zero,zero
bfc066c8:	00000021 	move	zero,zero
bfc066cc:	00000021 	move	zero,zero
bfc066d0:	3c12fd7e 	lui	s2,0xfd7e
bfc066d4:	36520f80 	ori	s2,s2,0xf80
bfc066d8:	00000000 	nop
bfc066dc:	3c141d42 	lui	s4,0x1d42
bfc066e0:	3694afc0 	ori	s4,s4,0xafc0
bfc066e4:	161404bf 	bne	s0,s4,bfc079e4 <inst_error>
bfc066e8:	00000000 	nop
bfc066ec:	3c15fd7e 	lui	s5,0xfd7e
bfc066f0:	36b50f80 	ori	s5,s5,0xf80
bfc066f4:	165504bb 	bne	s2,s5,bfc079e4 <inst_error>
bfc066f8:	00000000 	nop
bfc066fc:	3c0c3f87 	lui	t4,0x3f87
bfc06700:	358cc62c 	ori	t4,t4,0xc62c
bfc06704:	3c0d317d 	lui	t5,0x317d
bfc06708:	35adbeb0 	ori	t5,t5,0xbeb0
bfc0670c:	24100000 	li	s0,0
bfc06710:	24120000 	li	s2,0
bfc06714:	1000000a 	b	bfc06740 <main+0x6740>
bfc06718:	00000000 	nop
bfc0671c:	3c103f87 	lui	s0,0x3f87
bfc06720:	3610c62c 	ori	s0,s0,0xc62c
bfc06724:	10000011 	b	bfc0676c <main+0x676c>
bfc06728:	00000000 	nop
bfc0672c:	10000011 	b	bfc06774 <main+0x6774>
bfc06730:	00000000 	nop
bfc06734:	00000021 	move	zero,zero
bfc06738:	00000021 	move	zero,zero
bfc0673c:	00000021 	move	zero,zero
bfc06740:	1000fff6 	b	bfc0671c <main+0x671c>
bfc06744:	00000000 	nop
bfc06748:	1000000a 	b	bfc06774 <main+0x6774>
bfc0674c:	00000000 	nop
bfc06750:	00000021 	move	zero,zero
bfc06754:	00000021 	move	zero,zero
bfc06758:	00000021 	move	zero,zero
bfc0675c:	00000021 	move	zero,zero
bfc06760:	00000021 	move	zero,zero
bfc06764:	00000021 	move	zero,zero
bfc06768:	00000021 	move	zero,zero
bfc0676c:	3c12317d 	lui	s2,0x317d
bfc06770:	3652beb0 	ori	s2,s2,0xbeb0
bfc06774:	00000000 	nop
bfc06778:	3c143f87 	lui	s4,0x3f87
bfc0677c:	3694c62c 	ori	s4,s4,0xc62c
bfc06780:	16140498 	bne	s0,s4,bfc079e4 <inst_error>
bfc06784:	00000000 	nop
bfc06788:	3c15317d 	lui	s5,0x317d
bfc0678c:	36b5beb0 	ori	s5,s5,0xbeb0
bfc06790:	16550494 	bne	s2,s5,bfc079e4 <inst_error>
bfc06794:	00000000 	nop
bfc06798:	3c0c5774 	lui	t4,0x5774
bfc0679c:	358c2340 	ori	t4,t4,0x2340
bfc067a0:	3c0dff7f 	lui	t5,0xff7f
bfc067a4:	35ad31e8 	ori	t5,t5,0x31e8
bfc067a8:	24100000 	li	s0,0
bfc067ac:	24120000 	li	s2,0
bfc067b0:	1000000a 	b	bfc067dc <main+0x67dc>
bfc067b4:	00000000 	nop
bfc067b8:	3c105774 	lui	s0,0x5774
bfc067bc:	36102340 	ori	s0,s0,0x2340
bfc067c0:	10000011 	b	bfc06808 <main+0x6808>
bfc067c4:	00000000 	nop
bfc067c8:	10000011 	b	bfc06810 <main+0x6810>
bfc067cc:	00000000 	nop
bfc067d0:	00000021 	move	zero,zero
bfc067d4:	00000021 	move	zero,zero
bfc067d8:	00000021 	move	zero,zero
bfc067dc:	1000fff6 	b	bfc067b8 <main+0x67b8>
bfc067e0:	00000000 	nop
bfc067e4:	1000000a 	b	bfc06810 <main+0x6810>
bfc067e8:	00000000 	nop
bfc067ec:	00000021 	move	zero,zero
bfc067f0:	00000021 	move	zero,zero
bfc067f4:	00000021 	move	zero,zero
bfc067f8:	00000021 	move	zero,zero
bfc067fc:	00000021 	move	zero,zero
bfc06800:	00000021 	move	zero,zero
bfc06804:	00000021 	move	zero,zero
bfc06808:	3c12ff7f 	lui	s2,0xff7f
bfc0680c:	365231e8 	ori	s2,s2,0x31e8
bfc06810:	00000000 	nop
bfc06814:	3c145774 	lui	s4,0x5774
bfc06818:	36942340 	ori	s4,s4,0x2340
bfc0681c:	16140471 	bne	s0,s4,bfc079e4 <inst_error>
bfc06820:	00000000 	nop
bfc06824:	3c15ff7f 	lui	s5,0xff7f
bfc06828:	36b531e8 	ori	s5,s5,0x31e8
bfc0682c:	1655046d 	bne	s2,s5,bfc079e4 <inst_error>
bfc06830:	00000000 	nop
bfc06834:	3c0c5347 	lui	t4,0x5347
bfc06838:	358c0066 	ori	t4,t4,0x66
bfc0683c:	3c0d8918 	lui	t5,0x8918
bfc06840:	35adc70c 	ori	t5,t5,0xc70c
bfc06844:	24100000 	li	s0,0
bfc06848:	24120000 	li	s2,0
bfc0684c:	1000000a 	b	bfc06878 <main+0x6878>
bfc06850:	00000000 	nop
bfc06854:	3c105347 	lui	s0,0x5347
bfc06858:	36100066 	ori	s0,s0,0x66
bfc0685c:	10000011 	b	bfc068a4 <main+0x68a4>
bfc06860:	00000000 	nop
bfc06864:	10000011 	b	bfc068ac <main+0x68ac>
bfc06868:	00000000 	nop
bfc0686c:	00000021 	move	zero,zero
bfc06870:	00000021 	move	zero,zero
bfc06874:	00000021 	move	zero,zero
bfc06878:	1000fff6 	b	bfc06854 <main+0x6854>
bfc0687c:	00000000 	nop
bfc06880:	1000000a 	b	bfc068ac <main+0x68ac>
bfc06884:	00000000 	nop
bfc06888:	00000021 	move	zero,zero
bfc0688c:	00000021 	move	zero,zero
bfc06890:	00000021 	move	zero,zero
bfc06894:	00000021 	move	zero,zero
bfc06898:	00000021 	move	zero,zero
bfc0689c:	00000021 	move	zero,zero
bfc068a0:	00000021 	move	zero,zero
bfc068a4:	3c128918 	lui	s2,0x8918
bfc068a8:	3652c70c 	ori	s2,s2,0xc70c
bfc068ac:	00000000 	nop
bfc068b0:	3c145347 	lui	s4,0x5347
bfc068b4:	36940066 	ori	s4,s4,0x66
bfc068b8:	1614044a 	bne	s0,s4,bfc079e4 <inst_error>
bfc068bc:	00000000 	nop
bfc068c0:	3c158918 	lui	s5,0x8918
bfc068c4:	36b5c70c 	ori	s5,s5,0xc70c
bfc068c8:	16550446 	bne	s2,s5,bfc079e4 <inst_error>
bfc068cc:	00000000 	nop
bfc068d0:	3c0c2b88 	lui	t4,0x2b88
bfc068d4:	358ce2d8 	ori	t4,t4,0xe2d8
bfc068d8:	3c0d1956 	lui	t5,0x1956
bfc068dc:	35ad758a 	ori	t5,t5,0x758a
bfc068e0:	24100000 	li	s0,0
bfc068e4:	24120000 	li	s2,0
bfc068e8:	1000000a 	b	bfc06914 <main+0x6914>
bfc068ec:	00000000 	nop
bfc068f0:	3c102b88 	lui	s0,0x2b88
bfc068f4:	3610e2d8 	ori	s0,s0,0xe2d8
bfc068f8:	10000011 	b	bfc06940 <main+0x6940>
bfc068fc:	00000000 	nop
bfc06900:	10000011 	b	bfc06948 <main+0x6948>
bfc06904:	00000000 	nop
bfc06908:	00000021 	move	zero,zero
bfc0690c:	00000021 	move	zero,zero
bfc06910:	00000021 	move	zero,zero
bfc06914:	1000fff6 	b	bfc068f0 <main+0x68f0>
bfc06918:	00000000 	nop
bfc0691c:	1000000a 	b	bfc06948 <main+0x6948>
bfc06920:	00000000 	nop
bfc06924:	00000021 	move	zero,zero
bfc06928:	00000021 	move	zero,zero
bfc0692c:	00000021 	move	zero,zero
bfc06930:	00000021 	move	zero,zero
bfc06934:	00000021 	move	zero,zero
bfc06938:	00000021 	move	zero,zero
bfc0693c:	00000021 	move	zero,zero
bfc06940:	3c121956 	lui	s2,0x1956
bfc06944:	3652758a 	ori	s2,s2,0x758a
bfc06948:	00000000 	nop
bfc0694c:	3c142b88 	lui	s4,0x2b88
bfc06950:	3694e2d8 	ori	s4,s4,0xe2d8
bfc06954:	16140423 	bne	s0,s4,bfc079e4 <inst_error>
bfc06958:	00000000 	nop
bfc0695c:	3c151956 	lui	s5,0x1956
bfc06960:	36b5758a 	ori	s5,s5,0x758a
bfc06964:	1655041f 	bne	s2,s5,bfc079e4 <inst_error>
bfc06968:	00000000 	nop
bfc0696c:	3c0c2615 	lui	t4,0x2615
bfc06970:	358c5744 	ori	t4,t4,0x5744
bfc06974:	3c0d4641 	lui	t5,0x4641
bfc06978:	35adaed8 	ori	t5,t5,0xaed8
bfc0697c:	24100000 	li	s0,0
bfc06980:	24120000 	li	s2,0
bfc06984:	1000000a 	b	bfc069b0 <main+0x69b0>
bfc06988:	00000000 	nop
bfc0698c:	3c102615 	lui	s0,0x2615
bfc06990:	36105744 	ori	s0,s0,0x5744
bfc06994:	10000011 	b	bfc069dc <main+0x69dc>
bfc06998:	00000000 	nop
bfc0699c:	10000011 	b	bfc069e4 <main+0x69e4>
bfc069a0:	00000000 	nop
bfc069a4:	00000021 	move	zero,zero
bfc069a8:	00000021 	move	zero,zero
bfc069ac:	00000021 	move	zero,zero
bfc069b0:	1000fff6 	b	bfc0698c <main+0x698c>
bfc069b4:	00000000 	nop
bfc069b8:	1000000a 	b	bfc069e4 <main+0x69e4>
bfc069bc:	00000000 	nop
bfc069c0:	00000021 	move	zero,zero
bfc069c4:	00000021 	move	zero,zero
bfc069c8:	00000021 	move	zero,zero
bfc069cc:	00000021 	move	zero,zero
bfc069d0:	00000021 	move	zero,zero
bfc069d4:	00000021 	move	zero,zero
bfc069d8:	00000021 	move	zero,zero
bfc069dc:	3c124641 	lui	s2,0x4641
bfc069e0:	3652aed8 	ori	s2,s2,0xaed8
bfc069e4:	00000000 	nop
bfc069e8:	3c142615 	lui	s4,0x2615
bfc069ec:	36945744 	ori	s4,s4,0x5744
bfc069f0:	161403fc 	bne	s0,s4,bfc079e4 <inst_error>
bfc069f4:	00000000 	nop
bfc069f8:	3c154641 	lui	s5,0x4641
bfc069fc:	36b5aed8 	ori	s5,s5,0xaed8
bfc06a00:	165503f8 	bne	s2,s5,bfc079e4 <inst_error>
bfc06a04:	00000000 	nop
bfc06a08:	3c0ca426 	lui	t4,0xa426
bfc06a0c:	358c20c5 	ori	t4,t4,0x20c5
bfc06a10:	3c0d8d9c 	lui	t5,0x8d9c
bfc06a14:	35adcc00 	ori	t5,t5,0xcc00
bfc06a18:	24100000 	li	s0,0
bfc06a1c:	24120000 	li	s2,0
bfc06a20:	1000000a 	b	bfc06a4c <main+0x6a4c>
bfc06a24:	00000000 	nop
bfc06a28:	3c10a426 	lui	s0,0xa426
bfc06a2c:	361020c5 	ori	s0,s0,0x20c5
bfc06a30:	10000011 	b	bfc06a78 <main+0x6a78>
bfc06a34:	00000000 	nop
bfc06a38:	10000011 	b	bfc06a80 <main+0x6a80>
bfc06a3c:	00000000 	nop
bfc06a40:	00000021 	move	zero,zero
bfc06a44:	00000021 	move	zero,zero
bfc06a48:	00000021 	move	zero,zero
bfc06a4c:	1000fff6 	b	bfc06a28 <main+0x6a28>
bfc06a50:	00000000 	nop
bfc06a54:	1000000a 	b	bfc06a80 <main+0x6a80>
bfc06a58:	00000000 	nop
bfc06a5c:	00000021 	move	zero,zero
bfc06a60:	00000021 	move	zero,zero
bfc06a64:	00000021 	move	zero,zero
bfc06a68:	00000021 	move	zero,zero
bfc06a6c:	00000021 	move	zero,zero
bfc06a70:	00000021 	move	zero,zero
bfc06a74:	00000021 	move	zero,zero
bfc06a78:	3c128d9c 	lui	s2,0x8d9c
bfc06a7c:	3652cc00 	ori	s2,s2,0xcc00
bfc06a80:	00000000 	nop
bfc06a84:	3c14a426 	lui	s4,0xa426
bfc06a88:	369420c5 	ori	s4,s4,0x20c5
bfc06a8c:	161403d5 	bne	s0,s4,bfc079e4 <inst_error>
bfc06a90:	00000000 	nop
bfc06a94:	3c158d9c 	lui	s5,0x8d9c
bfc06a98:	36b5cc00 	ori	s5,s5,0xcc00
bfc06a9c:	165503d1 	bne	s2,s5,bfc079e4 <inst_error>
bfc06aa0:	00000000 	nop
bfc06aa4:	3c0c56ad 	lui	t4,0x56ad
bfc06aa8:	358c76b4 	ori	t4,t4,0x76b4
bfc06aac:	3c0d41db 	lui	t5,0x41db
bfc06ab0:	35adbf00 	ori	t5,t5,0xbf00
bfc06ab4:	24100000 	li	s0,0
bfc06ab8:	24120000 	li	s2,0
bfc06abc:	1000000a 	b	bfc06ae8 <main+0x6ae8>
bfc06ac0:	00000000 	nop
bfc06ac4:	3c1056ad 	lui	s0,0x56ad
bfc06ac8:	361076b4 	ori	s0,s0,0x76b4
bfc06acc:	10000011 	b	bfc06b14 <main+0x6b14>
bfc06ad0:	00000000 	nop
bfc06ad4:	10000011 	b	bfc06b1c <main+0x6b1c>
bfc06ad8:	00000000 	nop
bfc06adc:	00000021 	move	zero,zero
bfc06ae0:	00000021 	move	zero,zero
bfc06ae4:	00000021 	move	zero,zero
bfc06ae8:	1000fff6 	b	bfc06ac4 <main+0x6ac4>
bfc06aec:	00000000 	nop
bfc06af0:	1000000a 	b	bfc06b1c <main+0x6b1c>
bfc06af4:	00000000 	nop
bfc06af8:	00000021 	move	zero,zero
bfc06afc:	00000021 	move	zero,zero
bfc06b00:	00000021 	move	zero,zero
bfc06b04:	00000021 	move	zero,zero
bfc06b08:	00000021 	move	zero,zero
bfc06b0c:	00000021 	move	zero,zero
bfc06b10:	00000021 	move	zero,zero
bfc06b14:	3c1241db 	lui	s2,0x41db
bfc06b18:	3652bf00 	ori	s2,s2,0xbf00
bfc06b1c:	00000000 	nop
bfc06b20:	3c1456ad 	lui	s4,0x56ad
bfc06b24:	369476b4 	ori	s4,s4,0x76b4
bfc06b28:	161403ae 	bne	s0,s4,bfc079e4 <inst_error>
bfc06b2c:	00000000 	nop
bfc06b30:	3c1541db 	lui	s5,0x41db
bfc06b34:	36b5bf00 	ori	s5,s5,0xbf00
bfc06b38:	165503aa 	bne	s2,s5,bfc079e4 <inst_error>
bfc06b3c:	00000000 	nop
bfc06b40:	3c0cd772 	lui	t4,0xd772
bfc06b44:	358c56b8 	ori	t4,t4,0x56b8
bfc06b48:	3c0d75df 	lui	t5,0x75df
bfc06b4c:	35adf4ee 	ori	t5,t5,0xf4ee
bfc06b50:	24100000 	li	s0,0
bfc06b54:	24120000 	li	s2,0
bfc06b58:	1000000a 	b	bfc06b84 <main+0x6b84>
bfc06b5c:	00000000 	nop
bfc06b60:	3c10d772 	lui	s0,0xd772
bfc06b64:	361056b8 	ori	s0,s0,0x56b8
bfc06b68:	10000011 	b	bfc06bb0 <main+0x6bb0>
bfc06b6c:	00000000 	nop
bfc06b70:	10000011 	b	bfc06bb8 <main+0x6bb8>
bfc06b74:	00000000 	nop
bfc06b78:	00000021 	move	zero,zero
bfc06b7c:	00000021 	move	zero,zero
bfc06b80:	00000021 	move	zero,zero
bfc06b84:	1000fff6 	b	bfc06b60 <main+0x6b60>
bfc06b88:	00000000 	nop
bfc06b8c:	1000000a 	b	bfc06bb8 <main+0x6bb8>
bfc06b90:	00000000 	nop
bfc06b94:	00000021 	move	zero,zero
bfc06b98:	00000021 	move	zero,zero
bfc06b9c:	00000021 	move	zero,zero
bfc06ba0:	00000021 	move	zero,zero
bfc06ba4:	00000021 	move	zero,zero
bfc06ba8:	00000021 	move	zero,zero
bfc06bac:	00000021 	move	zero,zero
bfc06bb0:	3c1275df 	lui	s2,0x75df
bfc06bb4:	3652f4ee 	ori	s2,s2,0xf4ee
bfc06bb8:	00000000 	nop
bfc06bbc:	3c14d772 	lui	s4,0xd772
bfc06bc0:	369456b8 	ori	s4,s4,0x56b8
bfc06bc4:	16140387 	bne	s0,s4,bfc079e4 <inst_error>
bfc06bc8:	00000000 	nop
bfc06bcc:	3c1575df 	lui	s5,0x75df
bfc06bd0:	36b5f4ee 	ori	s5,s5,0xf4ee
bfc06bd4:	16550383 	bne	s2,s5,bfc079e4 <inst_error>
bfc06bd8:	00000000 	nop
bfc06bdc:	3c0c3b18 	lui	t4,0x3b18
bfc06be0:	358c2cc0 	ori	t4,t4,0x2cc0
bfc06be4:	3c0d13b7 	lui	t5,0x13b7
bfc06be8:	35ad8060 	ori	t5,t5,0x8060
bfc06bec:	24100000 	li	s0,0
bfc06bf0:	24120000 	li	s2,0
bfc06bf4:	1000000a 	b	bfc06c20 <main+0x6c20>
bfc06bf8:	00000000 	nop
bfc06bfc:	3c103b18 	lui	s0,0x3b18
bfc06c00:	36102cc0 	ori	s0,s0,0x2cc0
bfc06c04:	10000011 	b	bfc06c4c <main+0x6c4c>
bfc06c08:	00000000 	nop
bfc06c0c:	10000011 	b	bfc06c54 <main+0x6c54>
bfc06c10:	00000000 	nop
bfc06c14:	00000021 	move	zero,zero
bfc06c18:	00000021 	move	zero,zero
bfc06c1c:	00000021 	move	zero,zero
bfc06c20:	1000fff6 	b	bfc06bfc <main+0x6bfc>
bfc06c24:	00000000 	nop
bfc06c28:	1000000a 	b	bfc06c54 <main+0x6c54>
bfc06c2c:	00000000 	nop
bfc06c30:	00000021 	move	zero,zero
bfc06c34:	00000021 	move	zero,zero
bfc06c38:	00000021 	move	zero,zero
bfc06c3c:	00000021 	move	zero,zero
bfc06c40:	00000021 	move	zero,zero
bfc06c44:	00000021 	move	zero,zero
bfc06c48:	00000021 	move	zero,zero
bfc06c4c:	3c1213b7 	lui	s2,0x13b7
bfc06c50:	36528060 	ori	s2,s2,0x8060
bfc06c54:	00000000 	nop
bfc06c58:	3c143b18 	lui	s4,0x3b18
bfc06c5c:	36942cc0 	ori	s4,s4,0x2cc0
bfc06c60:	16140360 	bne	s0,s4,bfc079e4 <inst_error>
bfc06c64:	00000000 	nop
bfc06c68:	3c1513b7 	lui	s5,0x13b7
bfc06c6c:	36b58060 	ori	s5,s5,0x8060
bfc06c70:	1655035c 	bne	s2,s5,bfc079e4 <inst_error>
bfc06c74:	00000000 	nop
bfc06c78:	3c0c71db 	lui	t4,0x71db
bfc06c7c:	358c7228 	ori	t4,t4,0x7228
bfc06c80:	3c0d4e0f 	lui	t5,0x4e0f
bfc06c84:	35ad5080 	ori	t5,t5,0x5080
bfc06c88:	24100000 	li	s0,0
bfc06c8c:	24120000 	li	s2,0
bfc06c90:	1000000a 	b	bfc06cbc <main+0x6cbc>
bfc06c94:	00000000 	nop
bfc06c98:	3c1071db 	lui	s0,0x71db
bfc06c9c:	36107228 	ori	s0,s0,0x7228
bfc06ca0:	10000011 	b	bfc06ce8 <main+0x6ce8>
bfc06ca4:	00000000 	nop
bfc06ca8:	10000011 	b	bfc06cf0 <main+0x6cf0>
bfc06cac:	00000000 	nop
bfc06cb0:	00000021 	move	zero,zero
bfc06cb4:	00000021 	move	zero,zero
bfc06cb8:	00000021 	move	zero,zero
bfc06cbc:	1000fff6 	b	bfc06c98 <main+0x6c98>
bfc06cc0:	00000000 	nop
bfc06cc4:	1000000a 	b	bfc06cf0 <main+0x6cf0>
bfc06cc8:	00000000 	nop
bfc06ccc:	00000021 	move	zero,zero
bfc06cd0:	00000021 	move	zero,zero
bfc06cd4:	00000021 	move	zero,zero
bfc06cd8:	00000021 	move	zero,zero
bfc06cdc:	00000021 	move	zero,zero
bfc06ce0:	00000021 	move	zero,zero
bfc06ce4:	00000021 	move	zero,zero
bfc06ce8:	3c124e0f 	lui	s2,0x4e0f
bfc06cec:	36525080 	ori	s2,s2,0x5080
bfc06cf0:	00000000 	nop
bfc06cf4:	3c1471db 	lui	s4,0x71db
bfc06cf8:	36947228 	ori	s4,s4,0x7228
bfc06cfc:	16140339 	bne	s0,s4,bfc079e4 <inst_error>
bfc06d00:	00000000 	nop
bfc06d04:	3c154e0f 	lui	s5,0x4e0f
bfc06d08:	36b55080 	ori	s5,s5,0x5080
bfc06d0c:	16550335 	bne	s2,s5,bfc079e4 <inst_error>
bfc06d10:	00000000 	nop
bfc06d14:	3c0c536a 	lui	t4,0x536a
bfc06d18:	358c6dac 	ori	t4,t4,0x6dac
bfc06d1c:	3c0d43aa 	lui	t5,0x43aa
bfc06d20:	35ad60c0 	ori	t5,t5,0x60c0
bfc06d24:	24100000 	li	s0,0
bfc06d28:	24120000 	li	s2,0
bfc06d2c:	1000000a 	b	bfc06d58 <main+0x6d58>
bfc06d30:	00000000 	nop
bfc06d34:	3c10536a 	lui	s0,0x536a
bfc06d38:	36106dac 	ori	s0,s0,0x6dac
bfc06d3c:	10000011 	b	bfc06d84 <main+0x6d84>
bfc06d40:	00000000 	nop
bfc06d44:	10000011 	b	bfc06d8c <main+0x6d8c>
bfc06d48:	00000000 	nop
bfc06d4c:	00000021 	move	zero,zero
bfc06d50:	00000021 	move	zero,zero
bfc06d54:	00000021 	move	zero,zero
bfc06d58:	1000fff6 	b	bfc06d34 <main+0x6d34>
bfc06d5c:	00000000 	nop
bfc06d60:	1000000a 	b	bfc06d8c <main+0x6d8c>
bfc06d64:	00000000 	nop
bfc06d68:	00000021 	move	zero,zero
bfc06d6c:	00000021 	move	zero,zero
bfc06d70:	00000021 	move	zero,zero
bfc06d74:	00000021 	move	zero,zero
bfc06d78:	00000021 	move	zero,zero
bfc06d7c:	00000021 	move	zero,zero
bfc06d80:	00000021 	move	zero,zero
bfc06d84:	3c1243aa 	lui	s2,0x43aa
bfc06d88:	365260c0 	ori	s2,s2,0x60c0
bfc06d8c:	00000000 	nop
bfc06d90:	3c14536a 	lui	s4,0x536a
bfc06d94:	36946dac 	ori	s4,s4,0x6dac
bfc06d98:	16140312 	bne	s0,s4,bfc079e4 <inst_error>
bfc06d9c:	00000000 	nop
bfc06da0:	3c1543aa 	lui	s5,0x43aa
bfc06da4:	36b560c0 	ori	s5,s5,0x60c0
bfc06da8:	1655030e 	bne	s2,s5,bfc079e4 <inst_error>
bfc06dac:	00000000 	nop
bfc06db0:	3c0c2cd0 	lui	t4,0x2cd0
bfc06db4:	358c30d8 	ori	t4,t4,0x30d8
bfc06db8:	3c0d8912 	lui	t5,0x8912
bfc06dbc:	35ad6580 	ori	t5,t5,0x6580
bfc06dc0:	24100000 	li	s0,0
bfc06dc4:	24120000 	li	s2,0
bfc06dc8:	1000000a 	b	bfc06df4 <main+0x6df4>
bfc06dcc:	00000000 	nop
bfc06dd0:	3c102cd0 	lui	s0,0x2cd0
bfc06dd4:	361030d8 	ori	s0,s0,0x30d8
bfc06dd8:	10000011 	b	bfc06e20 <main+0x6e20>
bfc06ddc:	00000000 	nop
bfc06de0:	10000011 	b	bfc06e28 <main+0x6e28>
bfc06de4:	00000000 	nop
bfc06de8:	00000021 	move	zero,zero
bfc06dec:	00000021 	move	zero,zero
bfc06df0:	00000021 	move	zero,zero
bfc06df4:	1000fff6 	b	bfc06dd0 <main+0x6dd0>
bfc06df8:	00000000 	nop
bfc06dfc:	1000000a 	b	bfc06e28 <main+0x6e28>
bfc06e00:	00000000 	nop
bfc06e04:	00000021 	move	zero,zero
bfc06e08:	00000021 	move	zero,zero
bfc06e0c:	00000021 	move	zero,zero
bfc06e10:	00000021 	move	zero,zero
bfc06e14:	00000021 	move	zero,zero
bfc06e18:	00000021 	move	zero,zero
bfc06e1c:	00000021 	move	zero,zero
bfc06e20:	3c128912 	lui	s2,0x8912
bfc06e24:	36526580 	ori	s2,s2,0x6580
bfc06e28:	00000000 	nop
bfc06e2c:	3c142cd0 	lui	s4,0x2cd0
bfc06e30:	369430d8 	ori	s4,s4,0x30d8
bfc06e34:	161402eb 	bne	s0,s4,bfc079e4 <inst_error>
bfc06e38:	00000000 	nop
bfc06e3c:	3c158912 	lui	s5,0x8912
bfc06e40:	36b56580 	ori	s5,s5,0x6580
bfc06e44:	165502e7 	bne	s2,s5,bfc079e4 <inst_error>
bfc06e48:	00000000 	nop
bfc06e4c:	3c0c24c2 	lui	t4,0x24c2
bfc06e50:	358c05c4 	ori	t4,t4,0x5c4
bfc06e54:	3c0d366a 	lui	t5,0x366a
bfc06e58:	35ad9a58 	ori	t5,t5,0x9a58
bfc06e5c:	24100000 	li	s0,0
bfc06e60:	24120000 	li	s2,0
bfc06e64:	1000000a 	b	bfc06e90 <main+0x6e90>
bfc06e68:	00000000 	nop
bfc06e6c:	3c1024c2 	lui	s0,0x24c2
bfc06e70:	361005c4 	ori	s0,s0,0x5c4
bfc06e74:	10000011 	b	bfc06ebc <main+0x6ebc>
bfc06e78:	00000000 	nop
bfc06e7c:	10000011 	b	bfc06ec4 <main+0x6ec4>
bfc06e80:	00000000 	nop
bfc06e84:	00000021 	move	zero,zero
bfc06e88:	00000021 	move	zero,zero
bfc06e8c:	00000021 	move	zero,zero
bfc06e90:	1000fff6 	b	bfc06e6c <main+0x6e6c>
bfc06e94:	00000000 	nop
bfc06e98:	1000000a 	b	bfc06ec4 <main+0x6ec4>
bfc06e9c:	00000000 	nop
bfc06ea0:	00000021 	move	zero,zero
bfc06ea4:	00000021 	move	zero,zero
bfc06ea8:	00000021 	move	zero,zero
bfc06eac:	00000021 	move	zero,zero
bfc06eb0:	00000021 	move	zero,zero
bfc06eb4:	00000021 	move	zero,zero
bfc06eb8:	00000021 	move	zero,zero
bfc06ebc:	3c12366a 	lui	s2,0x366a
bfc06ec0:	36529a58 	ori	s2,s2,0x9a58
bfc06ec4:	00000000 	nop
bfc06ec8:	3c1424c2 	lui	s4,0x24c2
bfc06ecc:	369405c4 	ori	s4,s4,0x5c4
bfc06ed0:	161402c4 	bne	s0,s4,bfc079e4 <inst_error>
bfc06ed4:	00000000 	nop
bfc06ed8:	3c15366a 	lui	s5,0x366a
bfc06edc:	36b59a58 	ori	s5,s5,0x9a58
bfc06ee0:	165502c0 	bne	s2,s5,bfc079e4 <inst_error>
bfc06ee4:	00000000 	nop
bfc06ee8:	3c0c7ef5 	lui	t4,0x7ef5
bfc06eec:	358cd5c0 	ori	t4,t4,0xd5c0
bfc06ef0:	3c0da6d5 	lui	t5,0xa6d5
bfc06ef4:	35ade148 	ori	t5,t5,0xe148
bfc06ef8:	24100000 	li	s0,0
bfc06efc:	24120000 	li	s2,0
bfc06f00:	1000000a 	b	bfc06f2c <main+0x6f2c>
bfc06f04:	00000000 	nop
bfc06f08:	3c107ef5 	lui	s0,0x7ef5
bfc06f0c:	3610d5c0 	ori	s0,s0,0xd5c0
bfc06f10:	10000011 	b	bfc06f58 <main+0x6f58>
bfc06f14:	00000000 	nop
bfc06f18:	10000011 	b	bfc06f60 <main+0x6f60>
bfc06f1c:	00000000 	nop
bfc06f20:	00000021 	move	zero,zero
bfc06f24:	00000021 	move	zero,zero
bfc06f28:	00000021 	move	zero,zero
bfc06f2c:	1000fff6 	b	bfc06f08 <main+0x6f08>
bfc06f30:	00000000 	nop
bfc06f34:	1000000a 	b	bfc06f60 <main+0x6f60>
bfc06f38:	00000000 	nop
bfc06f3c:	00000021 	move	zero,zero
bfc06f40:	00000021 	move	zero,zero
bfc06f44:	00000021 	move	zero,zero
bfc06f48:	00000021 	move	zero,zero
bfc06f4c:	00000021 	move	zero,zero
bfc06f50:	00000021 	move	zero,zero
bfc06f54:	00000021 	move	zero,zero
bfc06f58:	3c12a6d5 	lui	s2,0xa6d5
bfc06f5c:	3652e148 	ori	s2,s2,0xe148
bfc06f60:	00000000 	nop
bfc06f64:	3c147ef5 	lui	s4,0x7ef5
bfc06f68:	3694d5c0 	ori	s4,s4,0xd5c0
bfc06f6c:	1614029d 	bne	s0,s4,bfc079e4 <inst_error>
bfc06f70:	00000000 	nop
bfc06f74:	3c15a6d5 	lui	s5,0xa6d5
bfc06f78:	36b5e148 	ori	s5,s5,0xe148
bfc06f7c:	16550299 	bne	s2,s5,bfc079e4 <inst_error>
bfc06f80:	00000000 	nop
bfc06f84:	3c0c209c 	lui	t4,0x209c
bfc06f88:	358cb5f0 	ori	t4,t4,0xb5f0
bfc06f8c:	3c0dd3e5 	lui	t5,0xd3e5
bfc06f90:	35ad1e84 	ori	t5,t5,0x1e84
bfc06f94:	24100000 	li	s0,0
bfc06f98:	24120000 	li	s2,0
bfc06f9c:	1000000a 	b	bfc06fc8 <main+0x6fc8>
bfc06fa0:	00000000 	nop
bfc06fa4:	3c10209c 	lui	s0,0x209c
bfc06fa8:	3610b5f0 	ori	s0,s0,0xb5f0
bfc06fac:	10000011 	b	bfc06ff4 <main+0x6ff4>
bfc06fb0:	00000000 	nop
bfc06fb4:	10000011 	b	bfc06ffc <main+0x6ffc>
bfc06fb8:	00000000 	nop
bfc06fbc:	00000021 	move	zero,zero
bfc06fc0:	00000021 	move	zero,zero
bfc06fc4:	00000021 	move	zero,zero
bfc06fc8:	1000fff6 	b	bfc06fa4 <main+0x6fa4>
bfc06fcc:	00000000 	nop
bfc06fd0:	1000000a 	b	bfc06ffc <main+0x6ffc>
bfc06fd4:	00000000 	nop
bfc06fd8:	00000021 	move	zero,zero
bfc06fdc:	00000021 	move	zero,zero
bfc06fe0:	00000021 	move	zero,zero
bfc06fe4:	00000021 	move	zero,zero
bfc06fe8:	00000021 	move	zero,zero
bfc06fec:	00000021 	move	zero,zero
bfc06ff0:	00000021 	move	zero,zero
bfc06ff4:	3c12d3e5 	lui	s2,0xd3e5
bfc06ff8:	36521e84 	ori	s2,s2,0x1e84
bfc06ffc:	00000000 	nop
bfc07000:	3c14209c 	lui	s4,0x209c
bfc07004:	3694b5f0 	ori	s4,s4,0xb5f0
bfc07008:	16140276 	bne	s0,s4,bfc079e4 <inst_error>
bfc0700c:	00000000 	nop
bfc07010:	3c15d3e5 	lui	s5,0xd3e5
bfc07014:	36b51e84 	ori	s5,s5,0x1e84
bfc07018:	16550272 	bne	s2,s5,bfc079e4 <inst_error>
bfc0701c:	00000000 	nop
bfc07020:	3c0c1965 	lui	t4,0x1965
bfc07024:	358c4048 	ori	t4,t4,0x4048
bfc07028:	3c0ddf1c 	lui	t5,0xdf1c
bfc0702c:	35ad7410 	ori	t5,t5,0x7410
bfc07030:	24100000 	li	s0,0
bfc07034:	24120000 	li	s2,0
bfc07038:	1000000a 	b	bfc07064 <main+0x7064>
bfc0703c:	00000000 	nop
bfc07040:	3c101965 	lui	s0,0x1965
bfc07044:	36104048 	ori	s0,s0,0x4048
bfc07048:	10000011 	b	bfc07090 <main+0x7090>
bfc0704c:	00000000 	nop
bfc07050:	10000011 	b	bfc07098 <main+0x7098>
bfc07054:	00000000 	nop
bfc07058:	00000021 	move	zero,zero
bfc0705c:	00000021 	move	zero,zero
bfc07060:	00000021 	move	zero,zero
bfc07064:	1000fff6 	b	bfc07040 <main+0x7040>
bfc07068:	00000000 	nop
bfc0706c:	1000000a 	b	bfc07098 <main+0x7098>
bfc07070:	00000000 	nop
bfc07074:	00000021 	move	zero,zero
bfc07078:	00000021 	move	zero,zero
bfc0707c:	00000021 	move	zero,zero
bfc07080:	00000021 	move	zero,zero
bfc07084:	00000021 	move	zero,zero
bfc07088:	00000021 	move	zero,zero
bfc0708c:	00000021 	move	zero,zero
bfc07090:	3c12df1c 	lui	s2,0xdf1c
bfc07094:	36527410 	ori	s2,s2,0x7410
bfc07098:	00000000 	nop
bfc0709c:	3c141965 	lui	s4,0x1965
bfc070a0:	36944048 	ori	s4,s4,0x4048
bfc070a4:	1614024f 	bne	s0,s4,bfc079e4 <inst_error>
bfc070a8:	00000000 	nop
bfc070ac:	3c15df1c 	lui	s5,0xdf1c
bfc070b0:	36b57410 	ori	s5,s5,0x7410
bfc070b4:	1655024b 	bne	s2,s5,bfc079e4 <inst_error>
bfc070b8:	00000000 	nop
bfc070bc:	3c0c0102 	lui	t4,0x102
bfc070c0:	358c1bfa 	ori	t4,t4,0x1bfa
bfc070c4:	3c0d6134 	lui	t5,0x6134
bfc070c8:	35ad8c20 	ori	t5,t5,0x8c20
bfc070cc:	24100000 	li	s0,0
bfc070d0:	24120000 	li	s2,0
bfc070d4:	1000000a 	b	bfc07100 <main+0x7100>
bfc070d8:	00000000 	nop
bfc070dc:	3c100102 	lui	s0,0x102
bfc070e0:	36101bfa 	ori	s0,s0,0x1bfa
bfc070e4:	10000011 	b	bfc0712c <main+0x712c>
bfc070e8:	00000000 	nop
bfc070ec:	10000011 	b	bfc07134 <main+0x7134>
bfc070f0:	00000000 	nop
bfc070f4:	00000021 	move	zero,zero
bfc070f8:	00000021 	move	zero,zero
bfc070fc:	00000021 	move	zero,zero
bfc07100:	1000fff6 	b	bfc070dc <main+0x70dc>
bfc07104:	00000000 	nop
bfc07108:	1000000a 	b	bfc07134 <main+0x7134>
bfc0710c:	00000000 	nop
bfc07110:	00000021 	move	zero,zero
bfc07114:	00000021 	move	zero,zero
bfc07118:	00000021 	move	zero,zero
bfc0711c:	00000021 	move	zero,zero
bfc07120:	00000021 	move	zero,zero
bfc07124:	00000021 	move	zero,zero
bfc07128:	00000021 	move	zero,zero
bfc0712c:	3c126134 	lui	s2,0x6134
bfc07130:	36528c20 	ori	s2,s2,0x8c20
bfc07134:	00000000 	nop
bfc07138:	3c140102 	lui	s4,0x102
bfc0713c:	36941bfa 	ori	s4,s4,0x1bfa
bfc07140:	16140228 	bne	s0,s4,bfc079e4 <inst_error>
bfc07144:	00000000 	nop
bfc07148:	3c156134 	lui	s5,0x6134
bfc0714c:	36b58c20 	ori	s5,s5,0x8c20
bfc07150:	16550224 	bne	s2,s5,bfc079e4 <inst_error>
bfc07154:	00000000 	nop
bfc07158:	3c0cfb20 	lui	t4,0xfb20
bfc0715c:	358c5d30 	ori	t4,t4,0x5d30
bfc07160:	3c0de42e 	lui	t5,0xe42e
bfc07164:	35ad10f2 	ori	t5,t5,0x10f2
bfc07168:	24100000 	li	s0,0
bfc0716c:	24120000 	li	s2,0
bfc07170:	1000000a 	b	bfc0719c <main+0x719c>
bfc07174:	00000000 	nop
bfc07178:	3c10fb20 	lui	s0,0xfb20
bfc0717c:	36105d30 	ori	s0,s0,0x5d30
bfc07180:	10000011 	b	bfc071c8 <main+0x71c8>
bfc07184:	00000000 	nop
bfc07188:	10000011 	b	bfc071d0 <main+0x71d0>
bfc0718c:	00000000 	nop
bfc07190:	00000021 	move	zero,zero
bfc07194:	00000021 	move	zero,zero
bfc07198:	00000021 	move	zero,zero
bfc0719c:	1000fff6 	b	bfc07178 <main+0x7178>
bfc071a0:	00000000 	nop
bfc071a4:	1000000a 	b	bfc071d0 <main+0x71d0>
bfc071a8:	00000000 	nop
bfc071ac:	00000021 	move	zero,zero
bfc071b0:	00000021 	move	zero,zero
bfc071b4:	00000021 	move	zero,zero
bfc071b8:	00000021 	move	zero,zero
bfc071bc:	00000021 	move	zero,zero
bfc071c0:	00000021 	move	zero,zero
bfc071c4:	00000021 	move	zero,zero
bfc071c8:	3c12e42e 	lui	s2,0xe42e
bfc071cc:	365210f2 	ori	s2,s2,0x10f2
bfc071d0:	00000000 	nop
bfc071d4:	3c14fb20 	lui	s4,0xfb20
bfc071d8:	36945d30 	ori	s4,s4,0x5d30
bfc071dc:	16140201 	bne	s0,s4,bfc079e4 <inst_error>
bfc071e0:	00000000 	nop
bfc071e4:	3c15e42e 	lui	s5,0xe42e
bfc071e8:	36b510f2 	ori	s5,s5,0x10f2
bfc071ec:	165501fd 	bne	s2,s5,bfc079e4 <inst_error>
bfc071f0:	00000000 	nop
bfc071f4:	3c0c7de4 	lui	t4,0x7de4
bfc071f8:	358cd7ee 	ori	t4,t4,0xd7ee
bfc071fc:	3c0d6a84 	lui	t5,0x6a84
bfc07200:	35ad5adc 	ori	t5,t5,0x5adc
bfc07204:	24100000 	li	s0,0
bfc07208:	24120000 	li	s2,0
bfc0720c:	1000000a 	b	bfc07238 <main+0x7238>
bfc07210:	00000000 	nop
bfc07214:	3c107de4 	lui	s0,0x7de4
bfc07218:	3610d7ee 	ori	s0,s0,0xd7ee
bfc0721c:	10000011 	b	bfc07264 <main+0x7264>
bfc07220:	00000000 	nop
bfc07224:	10000011 	b	bfc0726c <main+0x726c>
bfc07228:	00000000 	nop
bfc0722c:	00000021 	move	zero,zero
bfc07230:	00000021 	move	zero,zero
bfc07234:	00000021 	move	zero,zero
bfc07238:	1000fff6 	b	bfc07214 <main+0x7214>
bfc0723c:	00000000 	nop
bfc07240:	1000000a 	b	bfc0726c <main+0x726c>
bfc07244:	00000000 	nop
bfc07248:	00000021 	move	zero,zero
bfc0724c:	00000021 	move	zero,zero
bfc07250:	00000021 	move	zero,zero
bfc07254:	00000021 	move	zero,zero
bfc07258:	00000021 	move	zero,zero
bfc0725c:	00000021 	move	zero,zero
bfc07260:	00000021 	move	zero,zero
bfc07264:	3c126a84 	lui	s2,0x6a84
bfc07268:	36525adc 	ori	s2,s2,0x5adc
bfc0726c:	00000000 	nop
bfc07270:	3c147de4 	lui	s4,0x7de4
bfc07274:	3694d7ee 	ori	s4,s4,0xd7ee
bfc07278:	161401da 	bne	s0,s4,bfc079e4 <inst_error>
bfc0727c:	00000000 	nop
bfc07280:	3c156a84 	lui	s5,0x6a84
bfc07284:	36b55adc 	ori	s5,s5,0x5adc
bfc07288:	165501d6 	bne	s2,s5,bfc079e4 <inst_error>
bfc0728c:	00000000 	nop
bfc07290:	3c0ce85f 	lui	t4,0xe85f
bfc07294:	358cbe40 	ori	t4,t4,0xbe40
bfc07298:	3c0dd008 	lui	t5,0xd008
bfc0729c:	35ad9c1c 	ori	t5,t5,0x9c1c
bfc072a0:	24100000 	li	s0,0
bfc072a4:	24120000 	li	s2,0
bfc072a8:	1000000a 	b	bfc072d4 <main+0x72d4>
bfc072ac:	00000000 	nop
bfc072b0:	3c10e85f 	lui	s0,0xe85f
bfc072b4:	3610be40 	ori	s0,s0,0xbe40
bfc072b8:	10000011 	b	bfc07300 <main+0x7300>
bfc072bc:	00000000 	nop
bfc072c0:	10000011 	b	bfc07308 <main+0x7308>
bfc072c4:	00000000 	nop
bfc072c8:	00000021 	move	zero,zero
bfc072cc:	00000021 	move	zero,zero
bfc072d0:	00000021 	move	zero,zero
bfc072d4:	1000fff6 	b	bfc072b0 <main+0x72b0>
bfc072d8:	00000000 	nop
bfc072dc:	1000000a 	b	bfc07308 <main+0x7308>
bfc072e0:	00000000 	nop
bfc072e4:	00000021 	move	zero,zero
bfc072e8:	00000021 	move	zero,zero
bfc072ec:	00000021 	move	zero,zero
bfc072f0:	00000021 	move	zero,zero
bfc072f4:	00000021 	move	zero,zero
bfc072f8:	00000021 	move	zero,zero
bfc072fc:	00000021 	move	zero,zero
bfc07300:	3c12d008 	lui	s2,0xd008
bfc07304:	36529c1c 	ori	s2,s2,0x9c1c
bfc07308:	00000000 	nop
bfc0730c:	3c14e85f 	lui	s4,0xe85f
bfc07310:	3694be40 	ori	s4,s4,0xbe40
bfc07314:	161401b3 	bne	s0,s4,bfc079e4 <inst_error>
bfc07318:	00000000 	nop
bfc0731c:	3c15d008 	lui	s5,0xd008
bfc07320:	36b59c1c 	ori	s5,s5,0x9c1c
bfc07324:	165501af 	bne	s2,s5,bfc079e4 <inst_error>
bfc07328:	00000000 	nop
bfc0732c:	3c0c5cc6 	lui	t4,0x5cc6
bfc07330:	358c3d8f 	ori	t4,t4,0x3d8f
bfc07334:	3c0d59dd 	lui	t5,0x59dd
bfc07338:	35adec46 	ori	t5,t5,0xec46
bfc0733c:	24100000 	li	s0,0
bfc07340:	24120000 	li	s2,0
bfc07344:	1000000a 	b	bfc07370 <main+0x7370>
bfc07348:	00000000 	nop
bfc0734c:	3c105cc6 	lui	s0,0x5cc6
bfc07350:	36103d8f 	ori	s0,s0,0x3d8f
bfc07354:	10000011 	b	bfc0739c <main+0x739c>
bfc07358:	00000000 	nop
bfc0735c:	10000011 	b	bfc073a4 <main+0x73a4>
bfc07360:	00000000 	nop
bfc07364:	00000021 	move	zero,zero
bfc07368:	00000021 	move	zero,zero
bfc0736c:	00000021 	move	zero,zero
bfc07370:	1000fff6 	b	bfc0734c <main+0x734c>
bfc07374:	00000000 	nop
bfc07378:	1000000a 	b	bfc073a4 <main+0x73a4>
bfc0737c:	00000000 	nop
bfc07380:	00000021 	move	zero,zero
bfc07384:	00000021 	move	zero,zero
bfc07388:	00000021 	move	zero,zero
bfc0738c:	00000021 	move	zero,zero
bfc07390:	00000021 	move	zero,zero
bfc07394:	00000021 	move	zero,zero
bfc07398:	00000021 	move	zero,zero
bfc0739c:	3c1259dd 	lui	s2,0x59dd
bfc073a0:	3652ec46 	ori	s2,s2,0xec46
bfc073a4:	00000000 	nop
bfc073a8:	3c145cc6 	lui	s4,0x5cc6
bfc073ac:	36943d8f 	ori	s4,s4,0x3d8f
bfc073b0:	1614018c 	bne	s0,s4,bfc079e4 <inst_error>
bfc073b4:	00000000 	nop
bfc073b8:	3c1559dd 	lui	s5,0x59dd
bfc073bc:	36b5ec46 	ori	s5,s5,0xec46
bfc073c0:	16550188 	bne	s2,s5,bfc079e4 <inst_error>
bfc073c4:	00000000 	nop
bfc073c8:	3c0c4247 	lui	t4,0x4247
bfc073cc:	358c9810 	ori	t4,t4,0x9810
bfc073d0:	3c0d335c 	lui	t5,0x335c
bfc073d4:	35ad1280 	ori	t5,t5,0x1280
bfc073d8:	24100000 	li	s0,0
bfc073dc:	24120000 	li	s2,0
bfc073e0:	1000000a 	b	bfc0740c <main+0x740c>
bfc073e4:	00000000 	nop
bfc073e8:	3c104247 	lui	s0,0x4247
bfc073ec:	36109810 	ori	s0,s0,0x9810
bfc073f0:	10000011 	b	bfc07438 <main+0x7438>
bfc073f4:	00000000 	nop
bfc073f8:	10000011 	b	bfc07440 <main+0x7440>
bfc073fc:	00000000 	nop
bfc07400:	00000021 	move	zero,zero
bfc07404:	00000021 	move	zero,zero
bfc07408:	00000021 	move	zero,zero
bfc0740c:	1000fff6 	b	bfc073e8 <main+0x73e8>
bfc07410:	00000000 	nop
bfc07414:	1000000a 	b	bfc07440 <main+0x7440>
bfc07418:	00000000 	nop
bfc0741c:	00000021 	move	zero,zero
bfc07420:	00000021 	move	zero,zero
bfc07424:	00000021 	move	zero,zero
bfc07428:	00000021 	move	zero,zero
bfc0742c:	00000021 	move	zero,zero
bfc07430:	00000021 	move	zero,zero
bfc07434:	00000021 	move	zero,zero
bfc07438:	3c12335c 	lui	s2,0x335c
bfc0743c:	36521280 	ori	s2,s2,0x1280
bfc07440:	00000000 	nop
bfc07444:	3c144247 	lui	s4,0x4247
bfc07448:	36949810 	ori	s4,s4,0x9810
bfc0744c:	16140165 	bne	s0,s4,bfc079e4 <inst_error>
bfc07450:	00000000 	nop
bfc07454:	3c15335c 	lui	s5,0x335c
bfc07458:	36b51280 	ori	s5,s5,0x1280
bfc0745c:	16550161 	bne	s2,s5,bfc079e4 <inst_error>
bfc07460:	00000000 	nop
bfc07464:	3c0cd819 	lui	t4,0xd819
bfc07468:	358c49c0 	ori	t4,t4,0x49c0
bfc0746c:	3c0de6b6 	lui	t5,0xe6b6
bfc07470:	35adc9a0 	ori	t5,t5,0xc9a0
bfc07474:	24100000 	li	s0,0
bfc07478:	24120000 	li	s2,0
bfc0747c:	1000000a 	b	bfc074a8 <main+0x74a8>
bfc07480:	00000000 	nop
bfc07484:	3c10d819 	lui	s0,0xd819
bfc07488:	361049c0 	ori	s0,s0,0x49c0
bfc0748c:	10000011 	b	bfc074d4 <main+0x74d4>
bfc07490:	00000000 	nop
bfc07494:	10000011 	b	bfc074dc <main+0x74dc>
bfc07498:	00000000 	nop
bfc0749c:	00000021 	move	zero,zero
bfc074a0:	00000021 	move	zero,zero
bfc074a4:	00000021 	move	zero,zero
bfc074a8:	1000fff6 	b	bfc07484 <main+0x7484>
bfc074ac:	00000000 	nop
bfc074b0:	1000000a 	b	bfc074dc <main+0x74dc>
bfc074b4:	00000000 	nop
bfc074b8:	00000021 	move	zero,zero
bfc074bc:	00000021 	move	zero,zero
bfc074c0:	00000021 	move	zero,zero
bfc074c4:	00000021 	move	zero,zero
bfc074c8:	00000021 	move	zero,zero
bfc074cc:	00000021 	move	zero,zero
bfc074d0:	00000021 	move	zero,zero
bfc074d4:	3c12e6b6 	lui	s2,0xe6b6
bfc074d8:	3652c9a0 	ori	s2,s2,0xc9a0
bfc074dc:	00000000 	nop
bfc074e0:	3c14d819 	lui	s4,0xd819
bfc074e4:	369449c0 	ori	s4,s4,0x49c0
bfc074e8:	1614013e 	bne	s0,s4,bfc079e4 <inst_error>
bfc074ec:	00000000 	nop
bfc074f0:	3c15e6b6 	lui	s5,0xe6b6
bfc074f4:	36b5c9a0 	ori	s5,s5,0xc9a0
bfc074f8:	1655013a 	bne	s2,s5,bfc079e4 <inst_error>
bfc074fc:	00000000 	nop
bfc07500:	3c0cc49c 	lui	t4,0xc49c
bfc07504:	358c14c8 	ori	t4,t4,0x14c8
bfc07508:	3c0db602 	lui	t5,0xb602
bfc0750c:	35ad50e0 	ori	t5,t5,0x50e0
bfc07510:	24100000 	li	s0,0
bfc07514:	24120000 	li	s2,0
bfc07518:	1000000a 	b	bfc07544 <main+0x7544>
bfc0751c:	00000000 	nop
bfc07520:	3c10c49c 	lui	s0,0xc49c
bfc07524:	361014c8 	ori	s0,s0,0x14c8
bfc07528:	10000011 	b	bfc07570 <main+0x7570>
bfc0752c:	00000000 	nop
bfc07530:	10000011 	b	bfc07578 <main+0x7578>
bfc07534:	00000000 	nop
bfc07538:	00000021 	move	zero,zero
bfc0753c:	00000021 	move	zero,zero
bfc07540:	00000021 	move	zero,zero
bfc07544:	1000fff6 	b	bfc07520 <main+0x7520>
bfc07548:	00000000 	nop
bfc0754c:	1000000a 	b	bfc07578 <main+0x7578>
bfc07550:	00000000 	nop
bfc07554:	00000021 	move	zero,zero
bfc07558:	00000021 	move	zero,zero
bfc0755c:	00000021 	move	zero,zero
bfc07560:	00000021 	move	zero,zero
bfc07564:	00000021 	move	zero,zero
bfc07568:	00000021 	move	zero,zero
bfc0756c:	00000021 	move	zero,zero
bfc07570:	3c12b602 	lui	s2,0xb602
bfc07574:	365250e0 	ori	s2,s2,0x50e0
bfc07578:	00000000 	nop
bfc0757c:	3c14c49c 	lui	s4,0xc49c
bfc07580:	369414c8 	ori	s4,s4,0x14c8
bfc07584:	16140117 	bne	s0,s4,bfc079e4 <inst_error>
bfc07588:	00000000 	nop
bfc0758c:	3c15b602 	lui	s5,0xb602
bfc07590:	36b550e0 	ori	s5,s5,0x50e0
bfc07594:	16550113 	bne	s2,s5,bfc079e4 <inst_error>
bfc07598:	00000000 	nop
bfc0759c:	3c0c02b2 	lui	t4,0x2b2
bfc075a0:	358c95e0 	ori	t4,t4,0x95e0
bfc075a4:	3c0d4424 	lui	t5,0x4424
bfc075a8:	35ad30f0 	ori	t5,t5,0x30f0
bfc075ac:	24100000 	li	s0,0
bfc075b0:	24120000 	li	s2,0
bfc075b4:	1000000a 	b	bfc075e0 <main+0x75e0>
bfc075b8:	00000000 	nop
bfc075bc:	3c1002b2 	lui	s0,0x2b2
bfc075c0:	361095e0 	ori	s0,s0,0x95e0
bfc075c4:	10000011 	b	bfc0760c <main+0x760c>
bfc075c8:	00000000 	nop
bfc075cc:	10000011 	b	bfc07614 <main+0x7614>
bfc075d0:	00000000 	nop
bfc075d4:	00000021 	move	zero,zero
bfc075d8:	00000021 	move	zero,zero
bfc075dc:	00000021 	move	zero,zero
bfc075e0:	1000fff6 	b	bfc075bc <main+0x75bc>
bfc075e4:	00000000 	nop
bfc075e8:	1000000a 	b	bfc07614 <main+0x7614>
bfc075ec:	00000000 	nop
bfc075f0:	00000021 	move	zero,zero
bfc075f4:	00000021 	move	zero,zero
bfc075f8:	00000021 	move	zero,zero
bfc075fc:	00000021 	move	zero,zero
bfc07600:	00000021 	move	zero,zero
bfc07604:	00000021 	move	zero,zero
bfc07608:	00000021 	move	zero,zero
bfc0760c:	3c124424 	lui	s2,0x4424
bfc07610:	365230f0 	ori	s2,s2,0x30f0
bfc07614:	00000000 	nop
bfc07618:	3c1402b2 	lui	s4,0x2b2
bfc0761c:	369495e0 	ori	s4,s4,0x95e0
bfc07620:	161400f0 	bne	s0,s4,bfc079e4 <inst_error>
bfc07624:	00000000 	nop
bfc07628:	3c154424 	lui	s5,0x4424
bfc0762c:	36b530f0 	ori	s5,s5,0x30f0
bfc07630:	165500ec 	bne	s2,s5,bfc079e4 <inst_error>
bfc07634:	00000000 	nop
bfc07638:	3c0c3ee9 	lui	t4,0x3ee9
bfc0763c:	358cf35c 	ori	t4,t4,0xf35c
bfc07640:	3c0d2ac4 	lui	t5,0x2ac4
bfc07644:	35add9cc 	ori	t5,t5,0xd9cc
bfc07648:	24100000 	li	s0,0
bfc0764c:	24120000 	li	s2,0
bfc07650:	1000000a 	b	bfc0767c <main+0x767c>
bfc07654:	00000000 	nop
bfc07658:	3c103ee9 	lui	s0,0x3ee9
bfc0765c:	3610f35c 	ori	s0,s0,0xf35c
bfc07660:	10000011 	b	bfc076a8 <main+0x76a8>
bfc07664:	00000000 	nop
bfc07668:	10000011 	b	bfc076b0 <main+0x76b0>
bfc0766c:	00000000 	nop
bfc07670:	00000021 	move	zero,zero
bfc07674:	00000021 	move	zero,zero
bfc07678:	00000021 	move	zero,zero
bfc0767c:	1000fff6 	b	bfc07658 <main+0x7658>
bfc07680:	00000000 	nop
bfc07684:	1000000a 	b	bfc076b0 <main+0x76b0>
bfc07688:	00000000 	nop
bfc0768c:	00000021 	move	zero,zero
bfc07690:	00000021 	move	zero,zero
bfc07694:	00000021 	move	zero,zero
bfc07698:	00000021 	move	zero,zero
bfc0769c:	00000021 	move	zero,zero
bfc076a0:	00000021 	move	zero,zero
bfc076a4:	00000021 	move	zero,zero
bfc076a8:	3c122ac4 	lui	s2,0x2ac4
bfc076ac:	3652d9cc 	ori	s2,s2,0xd9cc
bfc076b0:	00000000 	nop
bfc076b4:	3c143ee9 	lui	s4,0x3ee9
bfc076b8:	3694f35c 	ori	s4,s4,0xf35c
bfc076bc:	161400c9 	bne	s0,s4,bfc079e4 <inst_error>
bfc076c0:	00000000 	nop
bfc076c4:	3c152ac4 	lui	s5,0x2ac4
bfc076c8:	36b5d9cc 	ori	s5,s5,0xd9cc
bfc076cc:	165500c5 	bne	s2,s5,bfc079e4 <inst_error>
bfc076d0:	00000000 	nop
bfc076d4:	3c0ca53d 	lui	t4,0xa53d
bfc076d8:	358c5f40 	ori	t4,t4,0x5f40
bfc076dc:	3c0d5e99 	lui	t5,0x5e99
bfc076e0:	35ad7488 	ori	t5,t5,0x7488
bfc076e4:	24100000 	li	s0,0
bfc076e8:	24120000 	li	s2,0
bfc076ec:	1000000a 	b	bfc07718 <main+0x7718>
bfc076f0:	00000000 	nop
bfc076f4:	3c10a53d 	lui	s0,0xa53d
bfc076f8:	36105f40 	ori	s0,s0,0x5f40
bfc076fc:	10000011 	b	bfc07744 <main+0x7744>
bfc07700:	00000000 	nop
bfc07704:	10000011 	b	bfc0774c <main+0x774c>
bfc07708:	00000000 	nop
bfc0770c:	00000021 	move	zero,zero
bfc07710:	00000021 	move	zero,zero
bfc07714:	00000021 	move	zero,zero
bfc07718:	1000fff6 	b	bfc076f4 <main+0x76f4>
bfc0771c:	00000000 	nop
bfc07720:	1000000a 	b	bfc0774c <main+0x774c>
bfc07724:	00000000 	nop
bfc07728:	00000021 	move	zero,zero
bfc0772c:	00000021 	move	zero,zero
bfc07730:	00000021 	move	zero,zero
bfc07734:	00000021 	move	zero,zero
bfc07738:	00000021 	move	zero,zero
bfc0773c:	00000021 	move	zero,zero
bfc07740:	00000021 	move	zero,zero
bfc07744:	3c125e99 	lui	s2,0x5e99
bfc07748:	36527488 	ori	s2,s2,0x7488
bfc0774c:	00000000 	nop
bfc07750:	3c14a53d 	lui	s4,0xa53d
bfc07754:	36945f40 	ori	s4,s4,0x5f40
bfc07758:	161400a2 	bne	s0,s4,bfc079e4 <inst_error>
bfc0775c:	00000000 	nop
bfc07760:	3c155e99 	lui	s5,0x5e99
bfc07764:	36b57488 	ori	s5,s5,0x7488
bfc07768:	1655009e 	bne	s2,s5,bfc079e4 <inst_error>
bfc0776c:	00000000 	nop
bfc07770:	3c0c442a 	lui	t4,0x442a
bfc07774:	358cb5dd 	ori	t4,t4,0xb5dd
bfc07778:	3c0dc36f 	lui	t5,0xc36f
bfc0777c:	35ad026b 	ori	t5,t5,0x26b
bfc07780:	24100000 	li	s0,0
bfc07784:	24120000 	li	s2,0
bfc07788:	1000000a 	b	bfc077b4 <main+0x77b4>
bfc0778c:	00000000 	nop
bfc07790:	3c10442a 	lui	s0,0x442a
bfc07794:	3610b5dd 	ori	s0,s0,0xb5dd
bfc07798:	10000011 	b	bfc077e0 <main+0x77e0>
bfc0779c:	00000000 	nop
bfc077a0:	10000011 	b	bfc077e8 <main+0x77e8>
bfc077a4:	00000000 	nop
bfc077a8:	00000021 	move	zero,zero
bfc077ac:	00000021 	move	zero,zero
bfc077b0:	00000021 	move	zero,zero
bfc077b4:	1000fff6 	b	bfc07790 <main+0x7790>
bfc077b8:	00000000 	nop
bfc077bc:	1000000a 	b	bfc077e8 <main+0x77e8>
bfc077c0:	00000000 	nop
bfc077c4:	00000021 	move	zero,zero
bfc077c8:	00000021 	move	zero,zero
bfc077cc:	00000021 	move	zero,zero
bfc077d0:	00000021 	move	zero,zero
bfc077d4:	00000021 	move	zero,zero
bfc077d8:	00000021 	move	zero,zero
bfc077dc:	00000021 	move	zero,zero
bfc077e0:	3c12c36f 	lui	s2,0xc36f
bfc077e4:	3652026b 	ori	s2,s2,0x26b
bfc077e8:	00000000 	nop
bfc077ec:	3c14442a 	lui	s4,0x442a
bfc077f0:	3694b5dd 	ori	s4,s4,0xb5dd
bfc077f4:	1614007b 	bne	s0,s4,bfc079e4 <inst_error>
bfc077f8:	00000000 	nop
bfc077fc:	3c15c36f 	lui	s5,0xc36f
bfc07800:	36b5026b 	ori	s5,s5,0x26b
bfc07804:	16550077 	bne	s2,s5,bfc079e4 <inst_error>
bfc07808:	00000000 	nop
bfc0780c:	3c0c3322 	lui	t4,0x3322
bfc07810:	358cfda8 	ori	t4,t4,0xfda8
bfc07814:	3c0d9400 	lui	t5,0x9400
bfc07818:	35adf0a0 	ori	t5,t5,0xf0a0
bfc0781c:	24100000 	li	s0,0
bfc07820:	24120000 	li	s2,0
bfc07824:	1000000a 	b	bfc07850 <main+0x7850>
bfc07828:	00000000 	nop
bfc0782c:	3c103322 	lui	s0,0x3322
bfc07830:	3610fda8 	ori	s0,s0,0xfda8
bfc07834:	10000011 	b	bfc0787c <main+0x787c>
bfc07838:	00000000 	nop
bfc0783c:	10000011 	b	bfc07884 <main+0x7884>
bfc07840:	00000000 	nop
bfc07844:	00000021 	move	zero,zero
bfc07848:	00000021 	move	zero,zero
bfc0784c:	00000021 	move	zero,zero
bfc07850:	1000fff6 	b	bfc0782c <main+0x782c>
bfc07854:	00000000 	nop
bfc07858:	1000000a 	b	bfc07884 <main+0x7884>
bfc0785c:	00000000 	nop
bfc07860:	00000021 	move	zero,zero
bfc07864:	00000021 	move	zero,zero
bfc07868:	00000021 	move	zero,zero
bfc0786c:	00000021 	move	zero,zero
bfc07870:	00000021 	move	zero,zero
bfc07874:	00000021 	move	zero,zero
bfc07878:	00000021 	move	zero,zero
bfc0787c:	3c129400 	lui	s2,0x9400
bfc07880:	3652f0a0 	ori	s2,s2,0xf0a0
bfc07884:	00000000 	nop
bfc07888:	3c143322 	lui	s4,0x3322
bfc0788c:	3694fda8 	ori	s4,s4,0xfda8
bfc07890:	16140054 	bne	s0,s4,bfc079e4 <inst_error>
bfc07894:	00000000 	nop
bfc07898:	3c159400 	lui	s5,0x9400
bfc0789c:	36b5f0a0 	ori	s5,s5,0xf0a0
bfc078a0:	16550050 	bne	s2,s5,bfc079e4 <inst_error>
bfc078a4:	00000000 	nop
bfc078a8:	3c0cd0e2 	lui	t4,0xd0e2
bfc078ac:	358c5fc8 	ori	t4,t4,0x5fc8
bfc078b0:	3c0d34a6 	lui	t5,0x34a6
bfc078b4:	35adc1ec 	ori	t5,t5,0xc1ec
bfc078b8:	24100000 	li	s0,0
bfc078bc:	24120000 	li	s2,0
bfc078c0:	1000000a 	b	bfc078ec <main+0x78ec>
bfc078c4:	00000000 	nop
bfc078c8:	3c10d0e2 	lui	s0,0xd0e2
bfc078cc:	36105fc8 	ori	s0,s0,0x5fc8
bfc078d0:	10000011 	b	bfc07918 <main+0x7918>
bfc078d4:	00000000 	nop
bfc078d8:	10000011 	b	bfc07920 <main+0x7920>
bfc078dc:	00000000 	nop
bfc078e0:	00000021 	move	zero,zero
bfc078e4:	00000021 	move	zero,zero
bfc078e8:	00000021 	move	zero,zero
bfc078ec:	1000fff6 	b	bfc078c8 <main+0x78c8>
bfc078f0:	00000000 	nop
bfc078f4:	1000000a 	b	bfc07920 <main+0x7920>
bfc078f8:	00000000 	nop
bfc078fc:	00000021 	move	zero,zero
bfc07900:	00000021 	move	zero,zero
bfc07904:	00000021 	move	zero,zero
bfc07908:	00000021 	move	zero,zero
bfc0790c:	00000021 	move	zero,zero
bfc07910:	00000021 	move	zero,zero
bfc07914:	00000021 	move	zero,zero
bfc07918:	3c1234a6 	lui	s2,0x34a6
bfc0791c:	3652c1ec 	ori	s2,s2,0xc1ec
bfc07920:	00000000 	nop
bfc07924:	3c14d0e2 	lui	s4,0xd0e2
bfc07928:	36945fc8 	ori	s4,s4,0x5fc8
bfc0792c:	1614002d 	bne	s0,s4,bfc079e4 <inst_error>
bfc07930:	00000000 	nop
bfc07934:	3c1534a6 	lui	s5,0x34a6
bfc07938:	36b5c1ec 	ori	s5,s5,0xc1ec
bfc0793c:	16550029 	bne	s2,s5,bfc079e4 <inst_error>
bfc07940:	00000000 	nop
bfc07944:	3c0c7b07 	lui	t4,0x7b07
bfc07948:	358cc5ea 	ori	t4,t4,0xc5ea
bfc0794c:	3c0d22f0 	lui	t5,0x22f0
bfc07950:	35adcf9c 	ori	t5,t5,0xcf9c
bfc07954:	24100000 	li	s0,0
bfc07958:	24120000 	li	s2,0
bfc0795c:	1000000a 	b	bfc07988 <main+0x7988>
bfc07960:	00000000 	nop
bfc07964:	3c107b07 	lui	s0,0x7b07
bfc07968:	3610c5ea 	ori	s0,s0,0xc5ea
bfc0796c:	10000011 	b	bfc079b4 <main+0x79b4>
bfc07970:	00000000 	nop
bfc07974:	10000011 	b	bfc079bc <main+0x79bc>
bfc07978:	00000000 	nop
bfc0797c:	00000021 	move	zero,zero
bfc07980:	00000021 	move	zero,zero
bfc07984:	00000021 	move	zero,zero
bfc07988:	1000fff6 	b	bfc07964 <main+0x7964>
bfc0798c:	00000000 	nop
bfc07990:	1000000a 	b	bfc079bc <main+0x79bc>
bfc07994:	00000000 	nop
bfc07998:	00000021 	move	zero,zero
bfc0799c:	00000021 	move	zero,zero
bfc079a0:	00000021 	move	zero,zero
bfc079a4:	00000021 	move	zero,zero
bfc079a8:	00000021 	move	zero,zero
bfc079ac:	00000021 	move	zero,zero
bfc079b0:	00000021 	move	zero,zero
bfc079b4:	3c1222f0 	lui	s2,0x22f0
bfc079b8:	3652cf9c 	ori	s2,s2,0xcf9c
bfc079bc:	00000000 	nop
bfc079c0:	3c147b07 	lui	s4,0x7b07
bfc079c4:	3694c5ea 	ori	s4,s4,0xc5ea
bfc079c8:	16140006 	bne	s0,s4,bfc079e4 <inst_error>
bfc079cc:	00000000 	nop
bfc079d0:	3c1522f0 	lui	s5,0x22f0
bfc079d4:	36b5cf9c 	ori	s5,s5,0xcf9c
bfc079d8:	16550002 	bne	s2,s5,bfc079e4 <inst_error>
bfc079dc:	00000000 	nop
bfc079e0:	4a000000 	c2	0x0

bfc079e4 <inst_error>:
inst_error():
bfc079e4:	0000003f 	0x3f

Disassembly of section .reginfo:

00000000 <.reginfo>:
   0:	00353000 	0x353000
	...
