
build/lui:     file format elf32-tradlittlemips
build/lui


Disassembly of section .text:

bfc00000 <main>:
bfc00000:	3c085f00 	lui	t0,0x5f00
bfc00004:	3c105f00 	lui	s0,0x5f00
bfc00008:	15100322 	bne	t0,s0,bfc00c94 <inst_error>
bfc0000c:	00000000 	nop
bfc00010:	3c087d9c 	lui	t0,0x7d9c
bfc00014:	3c107d9c 	lui	s0,0x7d9c
bfc00018:	1510031e 	bne	t0,s0,bfc00c94 <inst_error>
bfc0001c:	00000000 	nop
bfc00020:	3c086599 	lui	t0,0x6599
bfc00024:	3c106599 	lui	s0,0x6599
bfc00028:	1510031a 	bne	t0,s0,bfc00c94 <inst_error>
bfc0002c:	00000000 	nop
bfc00030:	3c081de0 	lui	t0,0x1de0
bfc00034:	3c101de0 	lui	s0,0x1de0
bfc00038:	15100316 	bne	t0,s0,bfc00c94 <inst_error>
bfc0003c:	00000000 	nop
bfc00040:	3c08d948 	lui	t0,0xd948
bfc00044:	3c10d948 	lui	s0,0xd948
bfc00048:	15100312 	bne	t0,s0,bfc00c94 <inst_error>
bfc0004c:	00000000 	nop
bfc00050:	3c08bd60 	lui	t0,0xbd60
bfc00054:	3c10bd60 	lui	s0,0xbd60
bfc00058:	1510030e 	bne	t0,s0,bfc00c94 <inst_error>
bfc0005c:	00000000 	nop
bfc00060:	3c0849d0 	lui	t0,0x49d0
bfc00064:	3c1049d0 	lui	s0,0x49d0
bfc00068:	1510030a 	bne	t0,s0,bfc00c94 <inst_error>
bfc0006c:	00000000 	nop
bfc00070:	3c0838cd 	lui	t0,0x38cd
bfc00074:	3c1038cd 	lui	s0,0x38cd
bfc00078:	15100306 	bne	t0,s0,bfc00c94 <inst_error>
bfc0007c:	00000000 	nop
bfc00080:	3c081d4a 	lui	t0,0x1d4a
bfc00084:	3c101d4a 	lui	s0,0x1d4a
bfc00088:	15100302 	bne	t0,s0,bfc00c94 <inst_error>
bfc0008c:	00000000 	nop
bfc00090:	3c08aabc 	lui	t0,0xaabc
bfc00094:	3c10aabc 	lui	s0,0xaabc
bfc00098:	151002fe 	bne	t0,s0,bfc00c94 <inst_error>
bfc0009c:	00000000 	nop
bfc000a0:	3c08f425 	lui	t0,0xf425
bfc000a4:	3c10f425 	lui	s0,0xf425
bfc000a8:	151002fa 	bne	t0,s0,bfc00c94 <inst_error>
bfc000ac:	00000000 	nop
bfc000b0:	3c082da8 	lui	t0,0x2da8
bfc000b4:	3c102da8 	lui	s0,0x2da8
bfc000b8:	151002f6 	bne	t0,s0,bfc00c94 <inst_error>
bfc000bc:	00000000 	nop
bfc000c0:	3c088e8f 	lui	t0,0x8e8f
bfc000c4:	3c108e8f 	lui	s0,0x8e8f
bfc000c8:	151002f2 	bne	t0,s0,bfc00c94 <inst_error>
bfc000cc:	00000000 	nop
bfc000d0:	3c08f6d2 	lui	t0,0xf6d2
bfc000d4:	3c10f6d2 	lui	s0,0xf6d2
bfc000d8:	151002ee 	bne	t0,s0,bfc00c94 <inst_error>
bfc000dc:	00000000 	nop
bfc000e0:	3c08c76c 	lui	t0,0xc76c
bfc000e4:	3c10c76c 	lui	s0,0xc76c
bfc000e8:	151002ea 	bne	t0,s0,bfc00c94 <inst_error>
bfc000ec:	00000000 	nop
bfc000f0:	3c0839c5 	lui	t0,0x39c5
bfc000f4:	3c1039c5 	lui	s0,0x39c5
bfc000f8:	151002e6 	bne	t0,s0,bfc00c94 <inst_error>
bfc000fc:	00000000 	nop
bfc00100:	3c085064 	lui	t0,0x5064
bfc00104:	3c105064 	lui	s0,0x5064
bfc00108:	151002e2 	bne	t0,s0,bfc00c94 <inst_error>
bfc0010c:	00000000 	nop
bfc00110:	3c086280 	lui	t0,0x6280
bfc00114:	3c106280 	lui	s0,0x6280
bfc00118:	151002de 	bne	t0,s0,bfc00c94 <inst_error>
bfc0011c:	00000000 	nop
bfc00120:	3c083ff0 	lui	t0,0x3ff0
bfc00124:	3c103ff0 	lui	s0,0x3ff0
bfc00128:	151002da 	bne	t0,s0,bfc00c94 <inst_error>
bfc0012c:	00000000 	nop
bfc00130:	3c083976 	lui	t0,0x3976
bfc00134:	3c103976 	lui	s0,0x3976
bfc00138:	151002d6 	bne	t0,s0,bfc00c94 <inst_error>
bfc0013c:	00000000 	nop
bfc00140:	3c08bde8 	lui	t0,0xbde8
bfc00144:	3c10bde8 	lui	s0,0xbde8
bfc00148:	151002d2 	bne	t0,s0,bfc00c94 <inst_error>
bfc0014c:	00000000 	nop
bfc00150:	3c082338 	lui	t0,0x2338
bfc00154:	3c102338 	lui	s0,0x2338
bfc00158:	151002ce 	bne	t0,s0,bfc00c94 <inst_error>
bfc0015c:	00000000 	nop
bfc00160:	3c08831a 	lui	t0,0x831a
bfc00164:	3c10831a 	lui	s0,0x831a
bfc00168:	151002ca 	bne	t0,s0,bfc00c94 <inst_error>
bfc0016c:	00000000 	nop
bfc00170:	3c08822e 	lui	t0,0x822e
bfc00174:	3c10822e 	lui	s0,0x822e
bfc00178:	151002c6 	bne	t0,s0,bfc00c94 <inst_error>
bfc0017c:	00000000 	nop
bfc00180:	3c08f510 	lui	t0,0xf510
bfc00184:	3c10f510 	lui	s0,0xf510
bfc00188:	151002c2 	bne	t0,s0,bfc00c94 <inst_error>
bfc0018c:	00000000 	nop
bfc00190:	3c088d60 	lui	t0,0x8d60
bfc00194:	3c108d60 	lui	s0,0x8d60
bfc00198:	151002be 	bne	t0,s0,bfc00c94 <inst_error>
bfc0019c:	00000000 	nop
bfc001a0:	3c083f20 	lui	t0,0x3f20
bfc001a4:	3c103f20 	lui	s0,0x3f20
bfc001a8:	151002ba 	bne	t0,s0,bfc00c94 <inst_error>
bfc001ac:	00000000 	nop
bfc001b0:	3c08df4e 	lui	t0,0xdf4e
bfc001b4:	3c10df4e 	lui	s0,0xdf4e
bfc001b8:	151002b6 	bne	t0,s0,bfc00c94 <inst_error>
bfc001bc:	00000000 	nop
bfc001c0:	3c086a58 	lui	t0,0x6a58
bfc001c4:	3c106a58 	lui	s0,0x6a58
bfc001c8:	151002b2 	bne	t0,s0,bfc00c94 <inst_error>
bfc001cc:	00000000 	nop
bfc001d0:	3c084db6 	lui	t0,0x4db6
bfc001d4:	3c104db6 	lui	s0,0x4db6
bfc001d8:	151002ae 	bne	t0,s0,bfc00c94 <inst_error>
bfc001dc:	00000000 	nop
bfc001e0:	3c089170 	lui	t0,0x9170
bfc001e4:	3c109170 	lui	s0,0x9170
bfc001e8:	151002aa 	bne	t0,s0,bfc00c94 <inst_error>
bfc001ec:	00000000 	nop
bfc001f0:	3c08ed30 	lui	t0,0xed30
bfc001f4:	3c10ed30 	lui	s0,0xed30
bfc001f8:	151002a6 	bne	t0,s0,bfc00c94 <inst_error>
bfc001fc:	00000000 	nop
bfc00200:	3c088a8c 	lui	t0,0x8a8c
bfc00204:	3c108a8c 	lui	s0,0x8a8c
bfc00208:	151002a2 	bne	t0,s0,bfc00c94 <inst_error>
bfc0020c:	00000000 	nop
bfc00210:	3c085881 	lui	t0,0x5881
bfc00214:	3c105881 	lui	s0,0x5881
bfc00218:	1510029e 	bne	t0,s0,bfc00c94 <inst_error>
bfc0021c:	00000000 	nop
bfc00220:	3c087996 	lui	t0,0x7996
bfc00224:	3c107996 	lui	s0,0x7996
bfc00228:	1510029a 	bne	t0,s0,bfc00c94 <inst_error>
bfc0022c:	00000000 	nop
bfc00230:	3c08b62a 	lui	t0,0xb62a
bfc00234:	3c10b62a 	lui	s0,0xb62a
bfc00238:	15100296 	bne	t0,s0,bfc00c94 <inst_error>
bfc0023c:	00000000 	nop
bfc00240:	3c0824b4 	lui	t0,0x24b4
bfc00244:	3c1024b4 	lui	s0,0x24b4
bfc00248:	15100292 	bne	t0,s0,bfc00c94 <inst_error>
bfc0024c:	00000000 	nop
bfc00250:	3c084342 	lui	t0,0x4342
bfc00254:	3c104342 	lui	s0,0x4342
bfc00258:	1510028e 	bne	t0,s0,bfc00c94 <inst_error>
bfc0025c:	00000000 	nop
bfc00260:	3c08126f 	lui	t0,0x126f
bfc00264:	3c10126f 	lui	s0,0x126f
bfc00268:	1510028a 	bne	t0,s0,bfc00c94 <inst_error>
bfc0026c:	00000000 	nop
bfc00270:	3c085234 	lui	t0,0x5234
bfc00274:	3c105234 	lui	s0,0x5234
bfc00278:	15100286 	bne	t0,s0,bfc00c94 <inst_error>
bfc0027c:	00000000 	nop
bfc00280:	3c08db2a 	lui	t0,0xdb2a
bfc00284:	3c10db2a 	lui	s0,0xdb2a
bfc00288:	15100282 	bne	t0,s0,bfc00c94 <inst_error>
bfc0028c:	00000000 	nop
bfc00290:	3c08c6e4 	lui	t0,0xc6e4
bfc00294:	3c10c6e4 	lui	s0,0xc6e4
bfc00298:	1510027e 	bne	t0,s0,bfc00c94 <inst_error>
bfc0029c:	00000000 	nop
bfc002a0:	3c088eb4 	lui	t0,0x8eb4
bfc002a4:	3c108eb4 	lui	s0,0x8eb4
bfc002a8:	1510027a 	bne	t0,s0,bfc00c94 <inst_error>
bfc002ac:	00000000 	nop
bfc002b0:	3c08cf57 	lui	t0,0xcf57
bfc002b4:	3c10cf57 	lui	s0,0xcf57
bfc002b8:	15100276 	bne	t0,s0,bfc00c94 <inst_error>
bfc002bc:	00000000 	nop
bfc002c0:	3c08926e 	lui	t0,0x926e
bfc002c4:	3c10926e 	lui	s0,0x926e
bfc002c8:	15100272 	bne	t0,s0,bfc00c94 <inst_error>
bfc002cc:	00000000 	nop
bfc002d0:	3c084255 	lui	t0,0x4255
bfc002d4:	3c104255 	lui	s0,0x4255
bfc002d8:	1510026e 	bne	t0,s0,bfc00c94 <inst_error>
bfc002dc:	00000000 	nop
bfc002e0:	3c080280 	lui	t0,0x280
bfc002e4:	3c100280 	lui	s0,0x280
bfc002e8:	1510026a 	bne	t0,s0,bfc00c94 <inst_error>
bfc002ec:	00000000 	nop
bfc002f0:	3c08eacc 	lui	t0,0xeacc
bfc002f4:	3c10eacc 	lui	s0,0xeacc
bfc002f8:	15100266 	bne	t0,s0,bfc00c94 <inst_error>
bfc002fc:	00000000 	nop
bfc00300:	3c085fe8 	lui	t0,0x5fe8
bfc00304:	3c105fe8 	lui	s0,0x5fe8
bfc00308:	15100262 	bne	t0,s0,bfc00c94 <inst_error>
bfc0030c:	00000000 	nop
bfc00310:	3c087dda 	lui	t0,0x7dda
bfc00314:	3c107dda 	lui	s0,0x7dda
bfc00318:	1510025e 	bne	t0,s0,bfc00c94 <inst_error>
bfc0031c:	00000000 	nop
bfc00320:	3c084996 	lui	t0,0x4996
bfc00324:	3c104996 	lui	s0,0x4996
bfc00328:	1510025a 	bne	t0,s0,bfc00c94 <inst_error>
bfc0032c:	00000000 	nop
bfc00330:	3c08767a 	lui	t0,0x767a
bfc00334:	3c10767a 	lui	s0,0x767a
bfc00338:	15100256 	bne	t0,s0,bfc00c94 <inst_error>
bfc0033c:	00000000 	nop
bfc00340:	3c080c72 	lui	t0,0xc72
bfc00344:	3c100c72 	lui	s0,0xc72
bfc00348:	15100252 	bne	t0,s0,bfc00c94 <inst_error>
bfc0034c:	00000000 	nop
bfc00350:	3c083324 	lui	t0,0x3324
bfc00354:	3c103324 	lui	s0,0x3324
bfc00358:	1510024e 	bne	t0,s0,bfc00c94 <inst_error>
bfc0035c:	00000000 	nop
bfc00360:	3c081cd4 	lui	t0,0x1cd4
bfc00364:	3c101cd4 	lui	s0,0x1cd4
bfc00368:	1510024a 	bne	t0,s0,bfc00c94 <inst_error>
bfc0036c:	00000000 	nop
bfc00370:	3c08ee2c 	lui	t0,0xee2c
bfc00374:	3c10ee2c 	lui	s0,0xee2c
bfc00378:	15100246 	bne	t0,s0,bfc00c94 <inst_error>
bfc0037c:	00000000 	nop
bfc00380:	3c085935 	lui	t0,0x5935
bfc00384:	3c105935 	lui	s0,0x5935
bfc00388:	15100242 	bne	t0,s0,bfc00c94 <inst_error>
bfc0038c:	00000000 	nop
bfc00390:	3c089458 	lui	t0,0x9458
bfc00394:	3c109458 	lui	s0,0x9458
bfc00398:	1510023e 	bne	t0,s0,bfc00c94 <inst_error>
bfc0039c:	00000000 	nop
bfc003a0:	3c083256 	lui	t0,0x3256
bfc003a4:	3c103256 	lui	s0,0x3256
bfc003a8:	1510023a 	bne	t0,s0,bfc00c94 <inst_error>
bfc003ac:	00000000 	nop
bfc003b0:	3c089914 	lui	t0,0x9914
bfc003b4:	3c109914 	lui	s0,0x9914
bfc003b8:	15100236 	bne	t0,s0,bfc00c94 <inst_error>
bfc003bc:	00000000 	nop
bfc003c0:	3c08a590 	lui	t0,0xa590
bfc003c4:	3c10a590 	lui	s0,0xa590
bfc003c8:	15100232 	bne	t0,s0,bfc00c94 <inst_error>
bfc003cc:	00000000 	nop
bfc003d0:	3c08b880 	lui	t0,0xb880
bfc003d4:	3c10b880 	lui	s0,0xb880
bfc003d8:	1510022e 	bne	t0,s0,bfc00c94 <inst_error>
bfc003dc:	00000000 	nop
bfc003e0:	3c08f76a 	lui	t0,0xf76a
bfc003e4:	3c10f76a 	lui	s0,0xf76a
bfc003e8:	1510022a 	bne	t0,s0,bfc00c94 <inst_error>
bfc003ec:	00000000 	nop
bfc003f0:	3c082e02 	lui	t0,0x2e02
bfc003f4:	3c102e02 	lui	s0,0x2e02
bfc003f8:	15100226 	bne	t0,s0,bfc00c94 <inst_error>
bfc003fc:	00000000 	nop
bfc00400:	3c0828e6 	lui	t0,0x28e6
bfc00404:	3c1028e6 	lui	s0,0x28e6
bfc00408:	15100222 	bne	t0,s0,bfc00c94 <inst_error>
bfc0040c:	00000000 	nop
bfc00410:	3c08c120 	lui	t0,0xc120
bfc00414:	3c10c120 	lui	s0,0xc120
bfc00418:	1510021e 	bne	t0,s0,bfc00c94 <inst_error>
bfc0041c:	00000000 	nop
bfc00420:	3c08aa91 	lui	t0,0xaa91
bfc00424:	3c10aa91 	lui	s0,0xaa91
bfc00428:	1510021a 	bne	t0,s0,bfc00c94 <inst_error>
bfc0042c:	00000000 	nop
bfc00430:	3c082c84 	lui	t0,0x2c84
bfc00434:	3c102c84 	lui	s0,0x2c84
bfc00438:	15100216 	bne	t0,s0,bfc00c94 <inst_error>
bfc0043c:	00000000 	nop
bfc00440:	3c08f21e 	lui	t0,0xf21e
bfc00444:	3c10f21e 	lui	s0,0xf21e
bfc00448:	15100212 	bne	t0,s0,bfc00c94 <inst_error>
bfc0044c:	00000000 	nop
bfc00450:	3c08ebcb 	lui	t0,0xebcb
bfc00454:	3c10ebcb 	lui	s0,0xebcb
bfc00458:	1510020e 	bne	t0,s0,bfc00c94 <inst_error>
bfc0045c:	00000000 	nop
bfc00460:	3c08ba3a 	lui	t0,0xba3a
bfc00464:	3c10ba3a 	lui	s0,0xba3a
bfc00468:	1510020a 	bne	t0,s0,bfc00c94 <inst_error>
bfc0046c:	00000000 	nop
bfc00470:	3c082b51 	lui	t0,0x2b51
bfc00474:	3c102b51 	lui	s0,0x2b51
bfc00478:	15100206 	bne	t0,s0,bfc00c94 <inst_error>
bfc0047c:	00000000 	nop
bfc00480:	3c08354c 	lui	t0,0x354c
bfc00484:	3c10354c 	lui	s0,0x354c
bfc00488:	15100202 	bne	t0,s0,bfc00c94 <inst_error>
bfc0048c:	00000000 	nop
bfc00490:	3c08c055 	lui	t0,0xc055
bfc00494:	3c10c055 	lui	s0,0xc055
bfc00498:	151001fe 	bne	t0,s0,bfc00c94 <inst_error>
bfc0049c:	00000000 	nop
bfc004a0:	3c08f98b 	lui	t0,0xf98b
bfc004a4:	3c10f98b 	lui	s0,0xf98b
bfc004a8:	151001fa 	bne	t0,s0,bfc00c94 <inst_error>
bfc004ac:	00000000 	nop
bfc004b0:	3c0856da 	lui	t0,0x56da
bfc004b4:	3c1056da 	lui	s0,0x56da
bfc004b8:	151001f6 	bne	t0,s0,bfc00c94 <inst_error>
bfc004bc:	00000000 	nop
bfc004c0:	3c08fc0a 	lui	t0,0xfc0a
bfc004c4:	3c10fc0a 	lui	s0,0xfc0a
bfc004c8:	151001f2 	bne	t0,s0,bfc00c94 <inst_error>
bfc004cc:	00000000 	nop
bfc004d0:	3c08a144 	lui	t0,0xa144
bfc004d4:	3c10a144 	lui	s0,0xa144
bfc004d8:	151001ee 	bne	t0,s0,bfc00c94 <inst_error>
bfc004dc:	00000000 	nop
bfc004e0:	3c081409 	lui	t0,0x1409
bfc004e4:	3c101409 	lui	s0,0x1409
bfc004e8:	151001ea 	bne	t0,s0,bfc00c94 <inst_error>
bfc004ec:	00000000 	nop
bfc004f0:	3c08c552 	lui	t0,0xc552
bfc004f4:	3c10c552 	lui	s0,0xc552
bfc004f8:	151001e6 	bne	t0,s0,bfc00c94 <inst_error>
bfc004fc:	00000000 	nop
bfc00500:	3c089d60 	lui	t0,0x9d60
bfc00504:	3c109d60 	lui	s0,0x9d60
bfc00508:	151001e2 	bne	t0,s0,bfc00c94 <inst_error>
bfc0050c:	00000000 	nop
bfc00510:	3c08684b 	lui	t0,0x684b
bfc00514:	3c10684b 	lui	s0,0x684b
bfc00518:	151001de 	bne	t0,s0,bfc00c94 <inst_error>
bfc0051c:	00000000 	nop
bfc00520:	3c08ef08 	lui	t0,0xef08
bfc00524:	3c10ef08 	lui	s0,0xef08
bfc00528:	151001da 	bne	t0,s0,bfc00c94 <inst_error>
bfc0052c:	00000000 	nop
bfc00530:	3c08099a 	lui	t0,0x99a
bfc00534:	3c10099a 	lui	s0,0x99a
bfc00538:	151001d6 	bne	t0,s0,bfc00c94 <inst_error>
bfc0053c:	00000000 	nop
bfc00540:	3c0859ac 	lui	t0,0x59ac
bfc00544:	3c1059ac 	lui	s0,0x59ac
bfc00548:	151001d2 	bne	t0,s0,bfc00c94 <inst_error>
bfc0054c:	00000000 	nop
bfc00550:	3c08dd34 	lui	t0,0xdd34
bfc00554:	3c10dd34 	lui	s0,0xdd34
bfc00558:	151001ce 	bne	t0,s0,bfc00c94 <inst_error>
bfc0055c:	00000000 	nop
bfc00560:	3c083938 	lui	t0,0x3938
bfc00564:	3c103938 	lui	s0,0x3938
bfc00568:	151001ca 	bne	t0,s0,bfc00c94 <inst_error>
bfc0056c:	00000000 	nop
bfc00570:	3c0889e0 	lui	t0,0x89e0
bfc00574:	3c1089e0 	lui	s0,0x89e0
bfc00578:	151001c6 	bne	t0,s0,bfc00c94 <inst_error>
bfc0057c:	00000000 	nop
bfc00580:	3c08d1ec 	lui	t0,0xd1ec
bfc00584:	3c10d1ec 	lui	s0,0xd1ec
bfc00588:	151001c2 	bne	t0,s0,bfc00c94 <inst_error>
bfc0058c:	00000000 	nop
bfc00590:	3c081824 	lui	t0,0x1824
bfc00594:	3c101824 	lui	s0,0x1824
bfc00598:	151001be 	bne	t0,s0,bfc00c94 <inst_error>
bfc0059c:	00000000 	nop
bfc005a0:	3c08207e 	lui	t0,0x207e
bfc005a4:	3c10207e 	lui	s0,0x207e
bfc005a8:	151001ba 	bne	t0,s0,bfc00c94 <inst_error>
bfc005ac:	00000000 	nop
bfc005b0:	3c082558 	lui	t0,0x2558
bfc005b4:	3c102558 	lui	s0,0x2558
bfc005b8:	151001b6 	bne	t0,s0,bfc00c94 <inst_error>
bfc005bc:	00000000 	nop
bfc005c0:	3c08070e 	lui	t0,0x70e
bfc005c4:	3c10070e 	lui	s0,0x70e
bfc005c8:	151001b2 	bne	t0,s0,bfc00c94 <inst_error>
bfc005cc:	00000000 	nop
bfc005d0:	3c087283 	lui	t0,0x7283
bfc005d4:	3c107283 	lui	s0,0x7283
bfc005d8:	151001ae 	bne	t0,s0,bfc00c94 <inst_error>
bfc005dc:	00000000 	nop
bfc005e0:	3c08e7e0 	lui	t0,0xe7e0
bfc005e4:	3c10e7e0 	lui	s0,0xe7e0
bfc005e8:	151001aa 	bne	t0,s0,bfc00c94 <inst_error>
bfc005ec:	00000000 	nop
bfc005f0:	3c0885c4 	lui	t0,0x85c4
bfc005f4:	3c1085c4 	lui	s0,0x85c4
bfc005f8:	151001a6 	bne	t0,s0,bfc00c94 <inst_error>
bfc005fc:	00000000 	nop
bfc00600:	3c08fb40 	lui	t0,0xfb40
bfc00604:	3c10fb40 	lui	s0,0xfb40
bfc00608:	151001a2 	bne	t0,s0,bfc00c94 <inst_error>
bfc0060c:	00000000 	nop
bfc00610:	3c081ce3 	lui	t0,0x1ce3
bfc00614:	3c101ce3 	lui	s0,0x1ce3
bfc00618:	1510019e 	bne	t0,s0,bfc00c94 <inst_error>
bfc0061c:	00000000 	nop
bfc00620:	3c084694 	lui	t0,0x4694
bfc00624:	3c104694 	lui	s0,0x4694
bfc00628:	1510019a 	bne	t0,s0,bfc00c94 <inst_error>
bfc0062c:	00000000 	nop
bfc00630:	3c083340 	lui	t0,0x3340
bfc00634:	3c103340 	lui	s0,0x3340
bfc00638:	15100196 	bne	t0,s0,bfc00c94 <inst_error>
bfc0063c:	00000000 	nop
bfc00640:	3c085cf3 	lui	t0,0x5cf3
bfc00644:	3c105cf3 	lui	s0,0x5cf3
bfc00648:	15100192 	bne	t0,s0,bfc00c94 <inst_error>
bfc0064c:	00000000 	nop
bfc00650:	3c083242 	lui	t0,0x3242
bfc00654:	3c103242 	lui	s0,0x3242
bfc00658:	1510018e 	bne	t0,s0,bfc00c94 <inst_error>
bfc0065c:	00000000 	nop
bfc00660:	3c08cf48 	lui	t0,0xcf48
bfc00664:	3c10cf48 	lui	s0,0xcf48
bfc00668:	1510018a 	bne	t0,s0,bfc00c94 <inst_error>
bfc0066c:	00000000 	nop
bfc00670:	3c08b208 	lui	t0,0xb208
bfc00674:	3c10b208 	lui	s0,0xb208
bfc00678:	15100186 	bne	t0,s0,bfc00c94 <inst_error>
bfc0067c:	00000000 	nop
bfc00680:	3c081d46 	lui	t0,0x1d46
bfc00684:	3c101d46 	lui	s0,0x1d46
bfc00688:	15100182 	bne	t0,s0,bfc00c94 <inst_error>
bfc0068c:	00000000 	nop
bfc00690:	3c08311b 	lui	t0,0x311b
bfc00694:	3c10311b 	lui	s0,0x311b
bfc00698:	1510017e 	bne	t0,s0,bfc00c94 <inst_error>
bfc0069c:	00000000 	nop
bfc006a0:	3c08435c 	lui	t0,0x435c
bfc006a4:	3c10435c 	lui	s0,0x435c
bfc006a8:	1510017a 	bne	t0,s0,bfc00c94 <inst_error>
bfc006ac:	00000000 	nop
bfc006b0:	3c08f692 	lui	t0,0xf692
bfc006b4:	3c10f692 	lui	s0,0xf692
bfc006b8:	15100176 	bne	t0,s0,bfc00c94 <inst_error>
bfc006bc:	00000000 	nop
bfc006c0:	3c08eeaa 	lui	t0,0xeeaa
bfc006c4:	3c10eeaa 	lui	s0,0xeeaa
bfc006c8:	15100172 	bne	t0,s0,bfc00c94 <inst_error>
bfc006cc:	00000000 	nop
bfc006d0:	3c08d870 	lui	t0,0xd870
bfc006d4:	3c10d870 	lui	s0,0xd870
bfc006d8:	1510016e 	bne	t0,s0,bfc00c94 <inst_error>
bfc006dc:	00000000 	nop
bfc006e0:	3c08fae5 	lui	t0,0xfae5
bfc006e4:	3c10fae5 	lui	s0,0xfae5
bfc006e8:	1510016a 	bne	t0,s0,bfc00c94 <inst_error>
bfc006ec:	00000000 	nop
bfc006f0:	3c08228f 	lui	t0,0x228f
bfc006f4:	3c10228f 	lui	s0,0x228f
bfc006f8:	15100166 	bne	t0,s0,bfc00c94 <inst_error>
bfc006fc:	00000000 	nop
bfc00700:	3c086440 	lui	t0,0x6440
bfc00704:	3c106440 	lui	s0,0x6440
bfc00708:	15100162 	bne	t0,s0,bfc00c94 <inst_error>
bfc0070c:	00000000 	nop
bfc00710:	3c084410 	lui	t0,0x4410
bfc00714:	3c104410 	lui	s0,0x4410
bfc00718:	1510015e 	bne	t0,s0,bfc00c94 <inst_error>
bfc0071c:	00000000 	nop
bfc00720:	3c083560 	lui	t0,0x3560
bfc00724:	3c103560 	lui	s0,0x3560
bfc00728:	1510015a 	bne	t0,s0,bfc00c94 <inst_error>
bfc0072c:	00000000 	nop
bfc00730:	3c085db0 	lui	t0,0x5db0
bfc00734:	3c105db0 	lui	s0,0x5db0
bfc00738:	15100156 	bne	t0,s0,bfc00c94 <inst_error>
bfc0073c:	00000000 	nop
bfc00740:	3c08ade0 	lui	t0,0xade0
bfc00744:	3c10ade0 	lui	s0,0xade0
bfc00748:	15100152 	bne	t0,s0,bfc00c94 <inst_error>
bfc0074c:	00000000 	nop
bfc00750:	3c083b96 	lui	t0,0x3b96
bfc00754:	3c103b96 	lui	s0,0x3b96
bfc00758:	1510014e 	bne	t0,s0,bfc00c94 <inst_error>
bfc0075c:	00000000 	nop
bfc00760:	3c08e390 	lui	t0,0xe390
bfc00764:	3c10e390 	lui	s0,0xe390
bfc00768:	1510014a 	bne	t0,s0,bfc00c94 <inst_error>
bfc0076c:	00000000 	nop
bfc00770:	3c0895b9 	lui	t0,0x95b9
bfc00774:	3c1095b9 	lui	s0,0x95b9
bfc00778:	15100146 	bne	t0,s0,bfc00c94 <inst_error>
bfc0077c:	00000000 	nop
bfc00780:	3c08cf28 	lui	t0,0xcf28
bfc00784:	3c10cf28 	lui	s0,0xcf28
bfc00788:	15100142 	bne	t0,s0,bfc00c94 <inst_error>
bfc0078c:	00000000 	nop
bfc00790:	3c084d69 	lui	t0,0x4d69
bfc00794:	3c104d69 	lui	s0,0x4d69
bfc00798:	1510013e 	bne	t0,s0,bfc00c94 <inst_error>
bfc0079c:	00000000 	nop
bfc007a0:	3c080016 	lui	t0,0x16
bfc007a4:	3c100016 	lui	s0,0x16
bfc007a8:	1510013a 	bne	t0,s0,bfc00c94 <inst_error>
bfc007ac:	00000000 	nop
bfc007b0:	3c0894c5 	lui	t0,0x94c5
bfc007b4:	3c1094c5 	lui	s0,0x94c5
bfc007b8:	15100136 	bne	t0,s0,bfc00c94 <inst_error>
bfc007bc:	00000000 	nop
bfc007c0:	3c08d436 	lui	t0,0xd436
bfc007c4:	3c10d436 	lui	s0,0xd436
bfc007c8:	15100132 	bne	t0,s0,bfc00c94 <inst_error>
bfc007cc:	00000000 	nop
bfc007d0:	3c0894aa 	lui	t0,0x94aa
bfc007d4:	3c1094aa 	lui	s0,0x94aa
bfc007d8:	1510012e 	bne	t0,s0,bfc00c94 <inst_error>
bfc007dc:	00000000 	nop
bfc007e0:	3c083f08 	lui	t0,0x3f08
bfc007e4:	3c103f08 	lui	s0,0x3f08
bfc007e8:	1510012a 	bne	t0,s0,bfc00c94 <inst_error>
bfc007ec:	00000000 	nop
bfc007f0:	3c0878fe 	lui	t0,0x78fe
bfc007f4:	3c1078fe 	lui	s0,0x78fe
bfc007f8:	15100126 	bne	t0,s0,bfc00c94 <inst_error>
bfc007fc:	00000000 	nop
bfc00800:	3c087d2d 	lui	t0,0x7d2d
bfc00804:	3c107d2d 	lui	s0,0x7d2d
bfc00808:	15100122 	bne	t0,s0,bfc00c94 <inst_error>
bfc0080c:	00000000 	nop
bfc00810:	3c082c0a 	lui	t0,0x2c0a
bfc00814:	3c102c0a 	lui	s0,0x2c0a
bfc00818:	1510011e 	bne	t0,s0,bfc00c94 <inst_error>
bfc0081c:	00000000 	nop
bfc00820:	3c0888d5 	lui	t0,0x88d5
bfc00824:	3c1088d5 	lui	s0,0x88d5
bfc00828:	1510011a 	bne	t0,s0,bfc00c94 <inst_error>
bfc0082c:	00000000 	nop
bfc00830:	3c08b39d 	lui	t0,0xb39d
bfc00834:	3c10b39d 	lui	s0,0xb39d
bfc00838:	15100116 	bne	t0,s0,bfc00c94 <inst_error>
bfc0083c:	00000000 	nop
bfc00840:	3c08ca81 	lui	t0,0xca81
bfc00844:	3c10ca81 	lui	s0,0xca81
bfc00848:	15100112 	bne	t0,s0,bfc00c94 <inst_error>
bfc0084c:	00000000 	nop
bfc00850:	3c08b19c 	lui	t0,0xb19c
bfc00854:	3c10b19c 	lui	s0,0xb19c
bfc00858:	1510010e 	bne	t0,s0,bfc00c94 <inst_error>
bfc0085c:	00000000 	nop
bfc00860:	3c083817 	lui	t0,0x3817
bfc00864:	3c103817 	lui	s0,0x3817
bfc00868:	1510010a 	bne	t0,s0,bfc00c94 <inst_error>
bfc0086c:	00000000 	nop
bfc00870:	3c087870 	lui	t0,0x7870
bfc00874:	3c107870 	lui	s0,0x7870
bfc00878:	15100106 	bne	t0,s0,bfc00c94 <inst_error>
bfc0087c:	00000000 	nop
bfc00880:	3c08236f 	lui	t0,0x236f
bfc00884:	3c10236f 	lui	s0,0x236f
bfc00888:	15100102 	bne	t0,s0,bfc00c94 <inst_error>
bfc0088c:	00000000 	nop
bfc00890:	3c0835c0 	lui	t0,0x35c0
bfc00894:	3c1035c0 	lui	s0,0x35c0
bfc00898:	151000fe 	bne	t0,s0,bfc00c94 <inst_error>
bfc0089c:	00000000 	nop
bfc008a0:	3c086178 	lui	t0,0x6178
bfc008a4:	3c106178 	lui	s0,0x6178
bfc008a8:	151000fa 	bne	t0,s0,bfc00c94 <inst_error>
bfc008ac:	00000000 	nop
bfc008b0:	3c08a04c 	lui	t0,0xa04c
bfc008b4:	3c10a04c 	lui	s0,0xa04c
bfc008b8:	151000f6 	bne	t0,s0,bfc00c94 <inst_error>
bfc008bc:	00000000 	nop
bfc008c0:	3c082f68 	lui	t0,0x2f68
bfc008c4:	3c102f68 	lui	s0,0x2f68
bfc008c8:	151000f2 	bne	t0,s0,bfc00c94 <inst_error>
bfc008cc:	00000000 	nop
bfc008d0:	3c08b830 	lui	t0,0xb830
bfc008d4:	3c10b830 	lui	s0,0xb830
bfc008d8:	151000ee 	bne	t0,s0,bfc00c94 <inst_error>
bfc008dc:	00000000 	nop
bfc008e0:	3c089f80 	lui	t0,0x9f80
bfc008e4:	3c109f80 	lui	s0,0x9f80
bfc008e8:	151000ea 	bne	t0,s0,bfc00c94 <inst_error>
bfc008ec:	00000000 	nop
bfc008f0:	3c08af7a 	lui	t0,0xaf7a
bfc008f4:	3c10af7a 	lui	s0,0xaf7a
bfc008f8:	151000e6 	bne	t0,s0,bfc00c94 <inst_error>
bfc008fc:	00000000 	nop
bfc00900:	3c0883c5 	lui	t0,0x83c5
bfc00904:	3c1083c5 	lui	s0,0x83c5
bfc00908:	151000e2 	bne	t0,s0,bfc00c94 <inst_error>
bfc0090c:	00000000 	nop
bfc00910:	3c0889aa 	lui	t0,0x89aa
bfc00914:	3c1089aa 	lui	s0,0x89aa
bfc00918:	151000de 	bne	t0,s0,bfc00c94 <inst_error>
bfc0091c:	00000000 	nop
bfc00920:	3c083218 	lui	t0,0x3218
bfc00924:	3c103218 	lui	s0,0x3218
bfc00928:	151000da 	bne	t0,s0,bfc00c94 <inst_error>
bfc0092c:	00000000 	nop
bfc00930:	3c08767e 	lui	t0,0x767e
bfc00934:	3c10767e 	lui	s0,0x767e
bfc00938:	151000d6 	bne	t0,s0,bfc00c94 <inst_error>
bfc0093c:	00000000 	nop
bfc00940:	3c08d9de 	lui	t0,0xd9de
bfc00944:	3c10d9de 	lui	s0,0xd9de
bfc00948:	151000d2 	bne	t0,s0,bfc00c94 <inst_error>
bfc0094c:	00000000 	nop
bfc00950:	3c0878f6 	lui	t0,0x78f6
bfc00954:	3c1078f6 	lui	s0,0x78f6
bfc00958:	151000ce 	bne	t0,s0,bfc00c94 <inst_error>
bfc0095c:	00000000 	nop
bfc00960:	3c084bf6 	lui	t0,0x4bf6
bfc00964:	3c104bf6 	lui	s0,0x4bf6
bfc00968:	151000ca 	bne	t0,s0,bfc00c94 <inst_error>
bfc0096c:	00000000 	nop
bfc00970:	3c08fbea 	lui	t0,0xfbea
bfc00974:	3c10fbea 	lui	s0,0xfbea
bfc00978:	151000c6 	bne	t0,s0,bfc00c94 <inst_error>
bfc0097c:	00000000 	nop
bfc00980:	3c089f40 	lui	t0,0x9f40
bfc00984:	3c109f40 	lui	s0,0x9f40
bfc00988:	151000c2 	bne	t0,s0,bfc00c94 <inst_error>
bfc0098c:	00000000 	nop
bfc00990:	3c084f8c 	lui	t0,0x4f8c
bfc00994:	3c104f8c 	lui	s0,0x4f8c
bfc00998:	151000be 	bne	t0,s0,bfc00c94 <inst_error>
bfc0099c:	00000000 	nop
bfc009a0:	3c088d5c 	lui	t0,0x8d5c
bfc009a4:	3c108d5c 	lui	s0,0x8d5c
bfc009a8:	151000ba 	bne	t0,s0,bfc00c94 <inst_error>
bfc009ac:	00000000 	nop
bfc009b0:	3c08e6b0 	lui	t0,0xe6b0
bfc009b4:	3c10e6b0 	lui	s0,0xe6b0
bfc009b8:	151000b6 	bne	t0,s0,bfc00c94 <inst_error>
bfc009bc:	00000000 	nop
bfc009c0:	3c087526 	lui	t0,0x7526
bfc009c4:	3c107526 	lui	s0,0x7526
bfc009c8:	151000b2 	bne	t0,s0,bfc00c94 <inst_error>
bfc009cc:	00000000 	nop
bfc009d0:	3c08cdb5 	lui	t0,0xcdb5
bfc009d4:	3c10cdb5 	lui	s0,0xcdb5
bfc009d8:	151000ae 	bne	t0,s0,bfc00c94 <inst_error>
bfc009dc:	00000000 	nop
bfc009e0:	3c086fa6 	lui	t0,0x6fa6
bfc009e4:	3c106fa6 	lui	s0,0x6fa6
bfc009e8:	151000aa 	bne	t0,s0,bfc00c94 <inst_error>
bfc009ec:	00000000 	nop
bfc009f0:	3c086246 	lui	t0,0x6246
bfc009f4:	3c106246 	lui	s0,0x6246
bfc009f8:	151000a6 	bne	t0,s0,bfc00c94 <inst_error>
bfc009fc:	00000000 	nop
bfc00a00:	3c0825c3 	lui	t0,0x25c3
bfc00a04:	3c1025c3 	lui	s0,0x25c3
bfc00a08:	151000a2 	bne	t0,s0,bfc00c94 <inst_error>
bfc00a0c:	00000000 	nop
bfc00a10:	3c08cc40 	lui	t0,0xcc40
bfc00a14:	3c10cc40 	lui	s0,0xcc40
bfc00a18:	1510009e 	bne	t0,s0,bfc00c94 <inst_error>
bfc00a1c:	00000000 	nop
bfc00a20:	3c08425e 	lui	t0,0x425e
bfc00a24:	3c10425e 	lui	s0,0x425e
bfc00a28:	1510009a 	bne	t0,s0,bfc00c94 <inst_error>
bfc00a2c:	00000000 	nop
bfc00a30:	3c0847a9 	lui	t0,0x47a9
bfc00a34:	3c1047a9 	lui	s0,0x47a9
bfc00a38:	15100096 	bne	t0,s0,bfc00c94 <inst_error>
bfc00a3c:	00000000 	nop
bfc00a40:	3c08ec5c 	lui	t0,0xec5c
bfc00a44:	3c10ec5c 	lui	s0,0xec5c
bfc00a48:	15100092 	bne	t0,s0,bfc00c94 <inst_error>
bfc00a4c:	00000000 	nop
bfc00a50:	3c084f4f 	lui	t0,0x4f4f
bfc00a54:	3c104f4f 	lui	s0,0x4f4f
bfc00a58:	1510008e 	bne	t0,s0,bfc00c94 <inst_error>
bfc00a5c:	00000000 	nop
bfc00a60:	3c086764 	lui	t0,0x6764
bfc00a64:	3c106764 	lui	s0,0x6764
bfc00a68:	1510008a 	bne	t0,s0,bfc00c94 <inst_error>
bfc00a6c:	00000000 	nop
bfc00a70:	3c08ab11 	lui	t0,0xab11
bfc00a74:	3c10ab11 	lui	s0,0xab11
bfc00a78:	15100086 	bne	t0,s0,bfc00c94 <inst_error>
bfc00a7c:	00000000 	nop
bfc00a80:	3c08b530 	lui	t0,0xb530
bfc00a84:	3c10b530 	lui	s0,0xb530
bfc00a88:	15100082 	bne	t0,s0,bfc00c94 <inst_error>
bfc00a8c:	00000000 	nop
bfc00a90:	3c081840 	lui	t0,0x1840
bfc00a94:	3c101840 	lui	s0,0x1840
bfc00a98:	1510007e 	bne	t0,s0,bfc00c94 <inst_error>
bfc00a9c:	00000000 	nop
bfc00aa0:	3c08bec5 	lui	t0,0xbec5
bfc00aa4:	3c10bec5 	lui	s0,0xbec5
bfc00aa8:	1510007a 	bne	t0,s0,bfc00c94 <inst_error>
bfc00aac:	00000000 	nop
bfc00ab0:	3c086d72 	lui	t0,0x6d72
bfc00ab4:	3c106d72 	lui	s0,0x6d72
bfc00ab8:	15100076 	bne	t0,s0,bfc00c94 <inst_error>
bfc00abc:	00000000 	nop
bfc00ac0:	3c08c8f5 	lui	t0,0xc8f5
bfc00ac4:	3c10c8f5 	lui	s0,0xc8f5
bfc00ac8:	15100072 	bne	t0,s0,bfc00c94 <inst_error>
bfc00acc:	00000000 	nop
bfc00ad0:	3c089236 	lui	t0,0x9236
bfc00ad4:	3c109236 	lui	s0,0x9236
bfc00ad8:	1510006e 	bne	t0,s0,bfc00c94 <inst_error>
bfc00adc:	00000000 	nop
bfc00ae0:	3c08e5c0 	lui	t0,0xe5c0
bfc00ae4:	3c10e5c0 	lui	s0,0xe5c0
bfc00ae8:	1510006a 	bne	t0,s0,bfc00c94 <inst_error>
bfc00aec:	00000000 	nop
bfc00af0:	3c085f88 	lui	t0,0x5f88
bfc00af4:	3c105f88 	lui	s0,0x5f88
bfc00af8:	15100066 	bne	t0,s0,bfc00c94 <inst_error>
bfc00afc:	00000000 	nop
bfc00b00:	3c082660 	lui	t0,0x2660
bfc00b04:	3c102660 	lui	s0,0x2660
bfc00b08:	15100062 	bne	t0,s0,bfc00c94 <inst_error>
bfc00b0c:	00000000 	nop
bfc00b10:	3c08b680 	lui	t0,0xb680
bfc00b14:	3c10b680 	lui	s0,0xb680
bfc00b18:	1510005e 	bne	t0,s0,bfc00c94 <inst_error>
bfc00b1c:	00000000 	nop
bfc00b20:	3c0802e6 	lui	t0,0x2e6
bfc00b24:	3c1002e6 	lui	s0,0x2e6
bfc00b28:	1510005a 	bne	t0,s0,bfc00c94 <inst_error>
bfc00b2c:	00000000 	nop
bfc00b30:	3c0825ae 	lui	t0,0x25ae
bfc00b34:	3c1025ae 	lui	s0,0x25ae
bfc00b38:	15100056 	bne	t0,s0,bfc00c94 <inst_error>
bfc00b3c:	00000000 	nop
bfc00b40:	3c08f810 	lui	t0,0xf810
bfc00b44:	3c10f810 	lui	s0,0xf810
bfc00b48:	15100052 	bne	t0,s0,bfc00c94 <inst_error>
bfc00b4c:	00000000 	nop
bfc00b50:	3c08fca8 	lui	t0,0xfca8
bfc00b54:	3c10fca8 	lui	s0,0xfca8
bfc00b58:	1510004e 	bne	t0,s0,bfc00c94 <inst_error>
bfc00b5c:	00000000 	nop
bfc00b60:	3c081976 	lui	t0,0x1976
bfc00b64:	3c101976 	lui	s0,0x1976
bfc00b68:	1510004a 	bne	t0,s0,bfc00c94 <inst_error>
bfc00b6c:	00000000 	nop
bfc00b70:	3c0812ac 	lui	t0,0x12ac
bfc00b74:	3c1012ac 	lui	s0,0x12ac
bfc00b78:	15100046 	bne	t0,s0,bfc00c94 <inst_error>
bfc00b7c:	00000000 	nop
bfc00b80:	3c089bf3 	lui	t0,0x9bf3
bfc00b84:	3c109bf3 	lui	s0,0x9bf3
bfc00b88:	15100042 	bne	t0,s0,bfc00c94 <inst_error>
bfc00b8c:	00000000 	nop
bfc00b90:	3c088978 	lui	t0,0x8978
bfc00b94:	3c108978 	lui	s0,0x8978
bfc00b98:	1510003e 	bne	t0,s0,bfc00c94 <inst_error>
bfc00b9c:	00000000 	nop
bfc00ba0:	3c08842e 	lui	t0,0x842e
bfc00ba4:	3c10842e 	lui	s0,0x842e
bfc00ba8:	1510003a 	bne	t0,s0,bfc00c94 <inst_error>
bfc00bac:	00000000 	nop
bfc00bb0:	3c082f16 	lui	t0,0x2f16
bfc00bb4:	3c102f16 	lui	s0,0x2f16
bfc00bb8:	15100036 	bne	t0,s0,bfc00c94 <inst_error>
bfc00bbc:	00000000 	nop
bfc00bc0:	3c081a00 	lui	t0,0x1a00
bfc00bc4:	3c101a00 	lui	s0,0x1a00
bfc00bc8:	15100032 	bne	t0,s0,bfc00c94 <inst_error>
bfc00bcc:	00000000 	nop
bfc00bd0:	3c08aa14 	lui	t0,0xaa14
bfc00bd4:	3c10aa14 	lui	s0,0xaa14
bfc00bd8:	1510002e 	bne	t0,s0,bfc00c94 <inst_error>
bfc00bdc:	00000000 	nop
bfc00be0:	3c08fac7 	lui	t0,0xfac7
bfc00be4:	3c10fac7 	lui	s0,0xfac7
bfc00be8:	1510002a 	bne	t0,s0,bfc00c94 <inst_error>
bfc00bec:	00000000 	nop
bfc00bf0:	3c087fb0 	lui	t0,0x7fb0
bfc00bf4:	3c107fb0 	lui	s0,0x7fb0
bfc00bf8:	15100026 	bne	t0,s0,bfc00c94 <inst_error>
bfc00bfc:	00000000 	nop
bfc00c00:	3c082be1 	lui	t0,0x2be1
bfc00c04:	3c102be1 	lui	s0,0x2be1
bfc00c08:	15100022 	bne	t0,s0,bfc00c94 <inst_error>
bfc00c0c:	00000000 	nop
bfc00c10:	3c08ae7b 	lui	t0,0xae7b
bfc00c14:	3c10ae7b 	lui	s0,0xae7b
bfc00c18:	1510001e 	bne	t0,s0,bfc00c94 <inst_error>
bfc00c1c:	00000000 	nop
bfc00c20:	3c080e90 	lui	t0,0xe90
bfc00c24:	3c100e90 	lui	s0,0xe90
bfc00c28:	1510001a 	bne	t0,s0,bfc00c94 <inst_error>
bfc00c2c:	00000000 	nop
bfc00c30:	3c089ae2 	lui	t0,0x9ae2
bfc00c34:	3c109ae2 	lui	s0,0x9ae2
bfc00c38:	15100016 	bne	t0,s0,bfc00c94 <inst_error>
bfc00c3c:	00000000 	nop
bfc00c40:	3c0801c6 	lui	t0,0x1c6
bfc00c44:	3c1001c6 	lui	s0,0x1c6
bfc00c48:	15100012 	bne	t0,s0,bfc00c94 <inst_error>
bfc00c4c:	00000000 	nop
bfc00c50:	3c084dbc 	lui	t0,0x4dbc
bfc00c54:	3c104dbc 	lui	s0,0x4dbc
bfc00c58:	1510000e 	bne	t0,s0,bfc00c94 <inst_error>
bfc00c5c:	00000000 	nop
bfc00c60:	3c0804d8 	lui	t0,0x4d8
bfc00c64:	3c1004d8 	lui	s0,0x4d8
bfc00c68:	1510000a 	bne	t0,s0,bfc00c94 <inst_error>
bfc00c6c:	00000000 	nop
bfc00c70:	3c085738 	lui	t0,0x5738
bfc00c74:	3c105738 	lui	s0,0x5738
bfc00c78:	15100006 	bne	t0,s0,bfc00c94 <inst_error>
bfc00c7c:	00000000 	nop
bfc00c80:	3c080000 	lui	t0,0x0
bfc00c84:	24100000 	li	s0,0
bfc00c88:	15100002 	bne	t0,s0,bfc00c94 <inst_error>
bfc00c8c:	00000000 	nop
bfc00c90:	4a000000 	c2	0x0

bfc00c94 <inst_error>:
inst_error():
bfc00c94:	0000003f 	0x3f

Disassembly of section .reginfo:

00000000 <.reginfo>:
   0:	00010100 	sll	zero,at,0x4
	...
