
build/lw:     file format elf32-tradlittlemips
build/lw


Disassembly of section .text:

bfc00000 <main>:
bfc00000:	3c09c822 	lui	t1,0xc822
bfc00004:	3529c7e8 	ori	t1,t1,0xc7e8
bfc00008:	3c088010 	lui	t0,0x8010
bfc0000c:	350834c0 	ori	t0,t0,0x34c0
bfc00010:	240a66a8 	li	t2,26280
bfc00014:	240c66a8 	li	t4,26280
bfc00018:	ad0966a8 	sw	t1,26280(t0)
bfc0001c:	8d1066a8 	lw	s0,26280(t0)
bfc00020:	3c12c822 	lui	s2,0xc822
bfc00024:	3652c7e8 	ori	s2,s2,0xc7e8
bfc00028:	1612030b 	bne	s0,s2,bfc00c58 <inst_error>
bfc0002c:	00000000 	nop
bfc00030:	3c097173 	lui	t1,0x7173
bfc00034:	35297c10 	ori	t1,t1,0x7c10
bfc00038:	3c088010 	lui	t0,0x8010
bfc0003c:	3508f660 	ori	t0,t0,0xf660
bfc00040:	240a02e4 	li	t2,740
bfc00044:	240c02e4 	li	t4,740
bfc00048:	ad0902e4 	sw	t1,740(t0)
bfc0004c:	8d1002e4 	lw	s0,740(t0)
bfc00050:	3c127173 	lui	s2,0x7173
bfc00054:	36527c10 	ori	s2,s2,0x7c10
bfc00058:	161202ff 	bne	s0,s2,bfc00c58 <inst_error>
bfc0005c:	00000000 	nop
bfc00060:	3c090368 	lui	t1,0x368
bfc00064:	35292420 	ori	t1,t1,0x2420
bfc00068:	3c088010 	lui	t0,0x8010
bfc0006c:	350824e4 	ori	t0,t0,0x24e4
bfc00070:	240a1680 	li	t2,5760
bfc00074:	240c1680 	li	t4,5760
bfc00078:	ad091680 	sw	t1,5760(t0)
bfc0007c:	8d101680 	lw	s0,5760(t0)
bfc00080:	3c120368 	lui	s2,0x368
bfc00084:	36522420 	ori	s2,s2,0x2420
bfc00088:	161202f3 	bne	s0,s2,bfc00c58 <inst_error>
bfc0008c:	00000000 	nop
bfc00090:	3c096f59 	lui	t1,0x6f59
bfc00094:	3529f5d3 	ori	t1,t1,0xf5d3
bfc00098:	3c088010 	lui	t0,0x8010
bfc0009c:	3508abdc 	ori	t0,t0,0xabdc
bfc000a0:	240a01b0 	li	t2,432
bfc000a4:	240c01b0 	li	t4,432
bfc000a8:	ad0901b0 	sw	t1,432(t0)
bfc000ac:	8d1001b0 	lw	s0,432(t0)
bfc000b0:	3c126f59 	lui	s2,0x6f59
bfc000b4:	3652f5d3 	ori	s2,s2,0xf5d3
bfc000b8:	161202e7 	bne	s0,s2,bfc00c58 <inst_error>
bfc000bc:	00000000 	nop
bfc000c0:	3c0956d9 	lui	t1,0x56d9
bfc000c4:	35290696 	ori	t1,t1,0x696
bfc000c8:	3c088010 	lui	t0,0x8010
bfc000cc:	350828b4 	ori	t0,t0,0x28b4
bfc000d0:	240a1cf4 	li	t2,7412
bfc000d4:	240c1cf4 	li	t4,7412
bfc000d8:	ad091cf4 	sw	t1,7412(t0)
bfc000dc:	8d101cf4 	lw	s0,7412(t0)
bfc000e0:	3c1256d9 	lui	s2,0x56d9
bfc000e4:	36520696 	ori	s2,s2,0x696
bfc000e8:	161202db 	bne	s0,s2,bfc00c58 <inst_error>
bfc000ec:	00000000 	nop
bfc000f0:	3c09eda5 	lui	t1,0xeda5
bfc000f4:	35292048 	ori	t1,t1,0x2048
bfc000f8:	3c088010 	lui	t0,0x8010
bfc000fc:	35084ea8 	ori	t0,t0,0x4ea8
bfc00100:	240a2db0 	li	t2,11696
bfc00104:	240c2db0 	li	t4,11696
bfc00108:	ad092db0 	sw	t1,11696(t0)
bfc0010c:	8d102db0 	lw	s0,11696(t0)
bfc00110:	3c12eda5 	lui	s2,0xeda5
bfc00114:	36522048 	ori	s2,s2,0x2048
bfc00118:	161202cf 	bne	s0,s2,bfc00c58 <inst_error>
bfc0011c:	00000000 	nop
bfc00120:	3c09383e 	lui	t1,0x383e
bfc00124:	35298970 	ori	t1,t1,0x8970
bfc00128:	3c088010 	lui	t0,0x8010
bfc0012c:	35088ae4 	ori	t0,t0,0x8ae4
bfc00130:	240a6d88 	li	t2,28040
bfc00134:	240c6d88 	li	t4,28040
bfc00138:	ad096d88 	sw	t1,28040(t0)
bfc0013c:	8d106d88 	lw	s0,28040(t0)
bfc00140:	3c12383e 	lui	s2,0x383e
bfc00144:	36528970 	ori	s2,s2,0x8970
bfc00148:	161202c3 	bne	s0,s2,bfc00c58 <inst_error>
bfc0014c:	00000000 	nop
bfc00150:	3c0928c9 	lui	t1,0x28c9
bfc00154:	35290aca 	ori	t1,t1,0xaca
bfc00158:	3c088010 	lui	t0,0x8010
bfc0015c:	35083840 	ori	t0,t0,0x3840
bfc00160:	340ab058 	li	t2,0xb058
bfc00164:	340cb058 	li	t4,0xb058
bfc00168:	3c010001 	lui	at,0x1
bfc0016c:	00280821 	addu	at,at,t0
bfc00170:	ac29b058 	sw	t1,-20392(at)
bfc00174:	3c100001 	lui	s0,0x1
bfc00178:	02088021 	addu	s0,s0,t0
bfc0017c:	8e10b058 	lw	s0,-20392(s0)
bfc00180:	3c1228c9 	lui	s2,0x28c9
bfc00184:	36520aca 	ori	s2,s2,0xaca
bfc00188:	161202b3 	bne	s0,s2,bfc00c58 <inst_error>
bfc0018c:	00000000 	nop
bfc00190:	3c0954ac 	lui	t1,0x54ac
bfc00194:	3529a118 	ori	t1,t1,0xa118
bfc00198:	3c088010 	lui	t0,0x8010
bfc0019c:	350806c0 	ori	t0,t0,0x6c0
bfc001a0:	340aa6e4 	li	t2,0xa6e4
bfc001a4:	340ca6e4 	li	t4,0xa6e4
bfc001a8:	3c010001 	lui	at,0x1
bfc001ac:	00280821 	addu	at,at,t0
bfc001b0:	ac29a6e4 	sw	t1,-22812(at)
bfc001b4:	3c100001 	lui	s0,0x1
bfc001b8:	02088021 	addu	s0,s0,t0
bfc001bc:	8e10a6e4 	lw	s0,-22812(s0)
bfc001c0:	3c1254ac 	lui	s2,0x54ac
bfc001c4:	3652a118 	ori	s2,s2,0xa118
bfc001c8:	161202a3 	bne	s0,s2,bfc00c58 <inst_error>
bfc001cc:	00000000 	nop
bfc001d0:	3c09909e 	lui	t1,0x909e
bfc001d4:	352934d2 	ori	t1,t1,0x34d2
bfc001d8:	3c088010 	lui	t0,0x8010
bfc001dc:	350837c0 	ori	t0,t0,0x37c0
bfc001e0:	340aa8cc 	li	t2,0xa8cc
bfc001e4:	340ca8cc 	li	t4,0xa8cc
bfc001e8:	3c010001 	lui	at,0x1
bfc001ec:	00280821 	addu	at,at,t0
bfc001f0:	ac29a8cc 	sw	t1,-22324(at)
bfc001f4:	3c100001 	lui	s0,0x1
bfc001f8:	02088021 	addu	s0,s0,t0
bfc001fc:	8e10a8cc 	lw	s0,-22324(s0)
bfc00200:	3c12909e 	lui	s2,0x909e
bfc00204:	365234d2 	ori	s2,s2,0x34d2
bfc00208:	16120293 	bne	s0,s2,bfc00c58 <inst_error>
bfc0020c:	00000000 	nop
bfc00210:	3c09c4b1 	lui	t1,0xc4b1
bfc00214:	3529feb0 	ori	t1,t1,0xfeb0
bfc00218:	3c088010 	lui	t0,0x8010
bfc0021c:	35080cf8 	ori	t0,t0,0xcf8
bfc00220:	240a1288 	li	t2,4744
bfc00224:	240c1288 	li	t4,4744
bfc00228:	ad091288 	sw	t1,4744(t0)
bfc0022c:	8d101288 	lw	s0,4744(t0)
bfc00230:	3c12c4b1 	lui	s2,0xc4b1
bfc00234:	3652feb0 	ori	s2,s2,0xfeb0
bfc00238:	16120287 	bne	s0,s2,bfc00c58 <inst_error>
bfc0023c:	00000000 	nop
bfc00240:	3c09cb6c 	lui	t1,0xcb6c
bfc00244:	3529d8c0 	ori	t1,t1,0xd8c0
bfc00248:	3c088010 	lui	t0,0x8010
bfc0024c:	35086db8 	ori	t0,t0,0x6db8
bfc00250:	240a2050 	li	t2,8272
bfc00254:	240c2050 	li	t4,8272
bfc00258:	ad092050 	sw	t1,8272(t0)
bfc0025c:	8d102050 	lw	s0,8272(t0)
bfc00260:	3c12cb6c 	lui	s2,0xcb6c
bfc00264:	3652d8c0 	ori	s2,s2,0xd8c0
bfc00268:	1612027b 	bne	s0,s2,bfc00c58 <inst_error>
bfc0026c:	00000000 	nop
bfc00270:	3c096639 	lui	t1,0x6639
bfc00274:	35294aee 	ori	t1,t1,0x4aee
bfc00278:	3c088010 	lui	t0,0x8010
bfc0027c:	3508522c 	ori	t0,t0,0x522c
bfc00280:	340a94e4 	li	t2,0x94e4
bfc00284:	340c94e4 	li	t4,0x94e4
bfc00288:	3c010001 	lui	at,0x1
bfc0028c:	00280821 	addu	at,at,t0
bfc00290:	ac2994e4 	sw	t1,-27420(at)
bfc00294:	3c100001 	lui	s0,0x1
bfc00298:	02088021 	addu	s0,s0,t0
bfc0029c:	8e1094e4 	lw	s0,-27420(s0)
bfc002a0:	3c126639 	lui	s2,0x6639
bfc002a4:	36524aee 	ori	s2,s2,0x4aee
bfc002a8:	1612026b 	bne	s0,s2,bfc00c58 <inst_error>
bfc002ac:	00000000 	nop
bfc002b0:	3c0948d3 	lui	t1,0x48d3
bfc002b4:	352955e4 	ori	t1,t1,0x55e4
bfc002b8:	3c088010 	lui	t0,0x8010
bfc002bc:	35086b90 	ori	t0,t0,0x6b90
bfc002c0:	240a4af0 	li	t2,19184
bfc002c4:	240c4af0 	li	t4,19184
bfc002c8:	ad094af0 	sw	t1,19184(t0)
bfc002cc:	8d104af0 	lw	s0,19184(t0)
bfc002d0:	3c1248d3 	lui	s2,0x48d3
bfc002d4:	365255e4 	ori	s2,s2,0x55e4
bfc002d8:	1612025f 	bne	s0,s2,bfc00c58 <inst_error>
bfc002dc:	00000000 	nop
bfc002e0:	3c091bb4 	lui	t1,0x1bb4
bfc002e4:	35290b48 	ori	t1,t1,0xb48
bfc002e8:	3c088010 	lui	t0,0x8010
bfc002ec:	35082e6c 	ori	t0,t0,0x2e6c
bfc002f0:	340a9a68 	li	t2,0x9a68
bfc002f4:	340c9a68 	li	t4,0x9a68
bfc002f8:	3c010001 	lui	at,0x1
bfc002fc:	00280821 	addu	at,at,t0
bfc00300:	ac299a68 	sw	t1,-26008(at)
bfc00304:	3c100001 	lui	s0,0x1
bfc00308:	02088021 	addu	s0,s0,t0
bfc0030c:	8e109a68 	lw	s0,-26008(s0)
bfc00310:	3c121bb4 	lui	s2,0x1bb4
bfc00314:	36520b48 	ori	s2,s2,0xb48
bfc00318:	1612024f 	bne	s0,s2,bfc00c58 <inst_error>
bfc0031c:	00000000 	nop
bfc00320:	3c092a74 	lui	t1,0x2a74
bfc00324:	35298b22 	ori	t1,t1,0x8b22
bfc00328:	3c088010 	lui	t0,0x8010
bfc0032c:	35087160 	ori	t0,t0,0x7160
bfc00330:	340a81f0 	li	t2,0x81f0
bfc00334:	340c81f0 	li	t4,0x81f0
bfc00338:	3c010001 	lui	at,0x1
bfc0033c:	00280821 	addu	at,at,t0
bfc00340:	ac2981f0 	sw	t1,-32272(at)
bfc00344:	3c100001 	lui	s0,0x1
bfc00348:	02088021 	addu	s0,s0,t0
bfc0034c:	8e1081f0 	lw	s0,-32272(s0)
bfc00350:	3c122a74 	lui	s2,0x2a74
bfc00354:	36528b22 	ori	s2,s2,0x8b22
bfc00358:	1612023f 	bne	s0,s2,bfc00c58 <inst_error>
bfc0035c:	00000000 	nop
bfc00360:	3c09d5cf 	lui	t1,0xd5cf
bfc00364:	3529b394 	ori	t1,t1,0xb394
bfc00368:	3c088010 	lui	t0,0x8010
bfc0036c:	35087f00 	ori	t0,t0,0x7f00
bfc00370:	240a0514 	li	t2,1300
bfc00374:	240c0514 	li	t4,1300
bfc00378:	ad090514 	sw	t1,1300(t0)
bfc0037c:	8d100514 	lw	s0,1300(t0)
bfc00380:	3c12d5cf 	lui	s2,0xd5cf
bfc00384:	3652b394 	ori	s2,s2,0xb394
bfc00388:	16120233 	bne	s0,s2,bfc00c58 <inst_error>
bfc0038c:	00000000 	nop
bfc00390:	3c097244 	lui	t1,0x7244
bfc00394:	35295ce0 	ori	t1,t1,0x5ce0
bfc00398:	3c088010 	lui	t0,0x8010
bfc0039c:	350859e4 	ori	t0,t0,0x59e4
bfc003a0:	340a9f14 	li	t2,0x9f14
bfc003a4:	340c9f14 	li	t4,0x9f14
bfc003a8:	3c010001 	lui	at,0x1
bfc003ac:	00280821 	addu	at,at,t0
bfc003b0:	ac299f14 	sw	t1,-24812(at)
bfc003b4:	3c100001 	lui	s0,0x1
bfc003b8:	02088021 	addu	s0,s0,t0
bfc003bc:	8e109f14 	lw	s0,-24812(s0)
bfc003c0:	3c127244 	lui	s2,0x7244
bfc003c4:	36525ce0 	ori	s2,s2,0x5ce0
bfc003c8:	16120223 	bne	s0,s2,bfc00c58 <inst_error>
bfc003cc:	00000000 	nop
bfc003d0:	3c09c017 	lui	t1,0xc017
bfc003d4:	352902ce 	ori	t1,t1,0x2ce
bfc003d8:	3c088010 	lui	t0,0x8010
bfc003dc:	350802d8 	ori	t0,t0,0x2d8
bfc003e0:	240a7cd4 	li	t2,31956
bfc003e4:	240c7cd4 	li	t4,31956
bfc003e8:	ad097cd4 	sw	t1,31956(t0)
bfc003ec:	8d107cd4 	lw	s0,31956(t0)
bfc003f0:	3c12c017 	lui	s2,0xc017
bfc003f4:	365202ce 	ori	s2,s2,0x2ce
bfc003f8:	16120217 	bne	s0,s2,bfc00c58 <inst_error>
bfc003fc:	00000000 	nop
bfc00400:	3c09a616 	lui	t1,0xa616
bfc00404:	3529d1be 	ori	t1,t1,0xd1be
bfc00408:	3c088010 	lui	t0,0x8010
bfc0040c:	350807f0 	ori	t0,t0,0x7f0
bfc00410:	240a0ac4 	li	t2,2756
bfc00414:	240c0ac4 	li	t4,2756
bfc00418:	ad090ac4 	sw	t1,2756(t0)
bfc0041c:	8d100ac4 	lw	s0,2756(t0)
bfc00420:	3c12a616 	lui	s2,0xa616
bfc00424:	3652d1be 	ori	s2,s2,0xd1be
bfc00428:	1612020b 	bne	s0,s2,bfc00c58 <inst_error>
bfc0042c:	00000000 	nop
bfc00430:	3c09f145 	lui	t1,0xf145
bfc00434:	35296d95 	ori	t1,t1,0x6d95
bfc00438:	3c088010 	lui	t0,0x8010
bfc0043c:	35087754 	ori	t0,t0,0x7754
bfc00440:	240a1358 	li	t2,4952
bfc00444:	240c1358 	li	t4,4952
bfc00448:	ad091358 	sw	t1,4952(t0)
bfc0044c:	8d101358 	lw	s0,4952(t0)
bfc00450:	3c12f145 	lui	s2,0xf145
bfc00454:	36526d95 	ori	s2,s2,0x6d95
bfc00458:	161201ff 	bne	s0,s2,bfc00c58 <inst_error>
bfc0045c:	00000000 	nop
bfc00460:	3c09b98a 	lui	t1,0xb98a
bfc00464:	35290778 	ori	t1,t1,0x778
bfc00468:	3c088010 	lui	t0,0x8010
bfc0046c:	35081a74 	ori	t0,t0,0x1a74
bfc00470:	240a3408 	li	t2,13320
bfc00474:	240c3408 	li	t4,13320
bfc00478:	ad093408 	sw	t1,13320(t0)
bfc0047c:	8d103408 	lw	s0,13320(t0)
bfc00480:	3c12b98a 	lui	s2,0xb98a
bfc00484:	36520778 	ori	s2,s2,0x778
bfc00488:	161201f3 	bne	s0,s2,bfc00c58 <inst_error>
bfc0048c:	00000000 	nop
bfc00490:	3c097685 	lui	t1,0x7685
bfc00494:	35292c0e 	ori	t1,t1,0x2c0e
bfc00498:	3c088010 	lui	t0,0x8010
bfc0049c:	3508788c 	ori	t0,t0,0x788c
bfc004a0:	240a0dfc 	li	t2,3580
bfc004a4:	240c0dfc 	li	t4,3580
bfc004a8:	ad090dfc 	sw	t1,3580(t0)
bfc004ac:	8d100dfc 	lw	s0,3580(t0)
bfc004b0:	3c127685 	lui	s2,0x7685
bfc004b4:	36522c0e 	ori	s2,s2,0x2c0e
bfc004b8:	161201e7 	bne	s0,s2,bfc00c58 <inst_error>
bfc004bc:	00000000 	nop
bfc004c0:	3c093a4e 	lui	t1,0x3a4e
bfc004c4:	35296338 	ori	t1,t1,0x6338
bfc004c8:	3c088011 	lui	t0,0x8011
bfc004cc:	340aeba8 	li	t2,0xeba8
bfc004d0:	340ceba8 	li	t4,0xeba8
bfc004d4:	3c010001 	lui	at,0x1
bfc004d8:	00280821 	addu	at,at,t0
bfc004dc:	ac29eba8 	sw	t1,-5208(at)
bfc004e0:	3c100001 	lui	s0,0x1
bfc004e4:	02088021 	addu	s0,s0,t0
bfc004e8:	8e10eba8 	lw	s0,-5208(s0)
bfc004ec:	3c123a4e 	lui	s2,0x3a4e
bfc004f0:	36526338 	ori	s2,s2,0x6338
bfc004f4:	161201d8 	bne	s0,s2,bfc00c58 <inst_error>
bfc004f8:	00000000 	nop
bfc004fc:	3c098625 	lui	t1,0x8625
bfc00500:	3529f42c 	ori	t1,t1,0xf42c
bfc00504:	3c088011 	lui	t0,0x8011
bfc00508:	340afac0 	li	t2,0xfac0
bfc0050c:	340cfac0 	li	t4,0xfac0
bfc00510:	3c010001 	lui	at,0x1
bfc00514:	00280821 	addu	at,at,t0
bfc00518:	ac29fac0 	sw	t1,-1344(at)
bfc0051c:	3c100001 	lui	s0,0x1
bfc00520:	02088021 	addu	s0,s0,t0
bfc00524:	8e10fac0 	lw	s0,-1344(s0)
bfc00528:	3c128625 	lui	s2,0x8625
bfc0052c:	3652f42c 	ori	s2,s2,0xf42c
bfc00530:	161201c9 	bne	s0,s2,bfc00c58 <inst_error>
bfc00534:	00000000 	nop
bfc00538:	3c091624 	lui	t1,0x1624
bfc0053c:	35290da0 	ori	t1,t1,0xda0
bfc00540:	3c088011 	lui	t0,0x8011
bfc00544:	340afec4 	li	t2,0xfec4
bfc00548:	340cfec4 	li	t4,0xfec4
bfc0054c:	3c010001 	lui	at,0x1
bfc00550:	00280821 	addu	at,at,t0
bfc00554:	ac29fec4 	sw	t1,-316(at)
bfc00558:	3c100001 	lui	s0,0x1
bfc0055c:	02088021 	addu	s0,s0,t0
bfc00560:	8e10fec4 	lw	s0,-316(s0)
bfc00564:	3c121624 	lui	s2,0x1624
bfc00568:	36520da0 	ori	s2,s2,0xda0
bfc0056c:	161201ba 	bne	s0,s2,bfc00c58 <inst_error>
bfc00570:	00000000 	nop
bfc00574:	3c09325a 	lui	t1,0x325a
bfc00578:	352952cc 	ori	t1,t1,0x52cc
bfc0057c:	3c088011 	lui	t0,0x8011
bfc00580:	240a1310 	li	t2,4880
bfc00584:	240c1310 	li	t4,4880
bfc00588:	ad091310 	sw	t1,4880(t0)
bfc0058c:	8d101310 	lw	s0,4880(t0)
bfc00590:	3c12325a 	lui	s2,0x325a
bfc00594:	365252cc 	ori	s2,s2,0x52cc
bfc00598:	161201af 	bne	s0,s2,bfc00c58 <inst_error>
bfc0059c:	00000000 	nop
bfc005a0:	3c09848c 	lui	t1,0x848c
bfc005a4:	3529badf 	ori	t1,t1,0xbadf
bfc005a8:	3c088011 	lui	t0,0x8011
bfc005ac:	240a0828 	li	t2,2088
bfc005b0:	240c0828 	li	t4,2088
bfc005b4:	ad090828 	sw	t1,2088(t0)
bfc005b8:	8d100828 	lw	s0,2088(t0)
bfc005bc:	3c12848c 	lui	s2,0x848c
bfc005c0:	3652badf 	ori	s2,s2,0xbadf
bfc005c4:	161201a4 	bne	s0,s2,bfc00c58 <inst_error>
bfc005c8:	00000000 	nop
bfc005cc:	3c099569 	lui	t1,0x9569
bfc005d0:	35296380 	ori	t1,t1,0x6380
bfc005d4:	3c088011 	lui	t0,0x8011
bfc005d8:	340ae620 	li	t2,0xe620
bfc005dc:	340ce620 	li	t4,0xe620
bfc005e0:	3c010001 	lui	at,0x1
bfc005e4:	00280821 	addu	at,at,t0
bfc005e8:	ac29e620 	sw	t1,-6624(at)
bfc005ec:	3c100001 	lui	s0,0x1
bfc005f0:	02088021 	addu	s0,s0,t0
bfc005f4:	8e10e620 	lw	s0,-6624(s0)
bfc005f8:	3c129569 	lui	s2,0x9569
bfc005fc:	36526380 	ori	s2,s2,0x6380
bfc00600:	16120195 	bne	s0,s2,bfc00c58 <inst_error>
bfc00604:	00000000 	nop
bfc00608:	3c09cf5f 	lui	t1,0xcf5f
bfc0060c:	35297ec0 	ori	t1,t1,0x7ec0
bfc00610:	3c088011 	lui	t0,0x8011
bfc00614:	340ad68c 	li	t2,0xd68c
bfc00618:	340cd68c 	li	t4,0xd68c
bfc0061c:	3c010001 	lui	at,0x1
bfc00620:	00280821 	addu	at,at,t0
bfc00624:	ac29d68c 	sw	t1,-10612(at)
bfc00628:	3c100001 	lui	s0,0x1
bfc0062c:	02088021 	addu	s0,s0,t0
bfc00630:	8e10d68c 	lw	s0,-10612(s0)
bfc00634:	3c12cf5f 	lui	s2,0xcf5f
bfc00638:	36527ec0 	ori	s2,s2,0x7ec0
bfc0063c:	16120186 	bne	s0,s2,bfc00c58 <inst_error>
bfc00640:	00000000 	nop
bfc00644:	3c0982ae 	lui	t1,0x82ae
bfc00648:	352970d0 	ori	t1,t1,0x70d0
bfc0064c:	3c088011 	lui	t0,0x8011
bfc00650:	240a2524 	li	t2,9508
bfc00654:	240c2524 	li	t4,9508
bfc00658:	ad092524 	sw	t1,9508(t0)
bfc0065c:	8d102524 	lw	s0,9508(t0)
bfc00660:	3c1282ae 	lui	s2,0x82ae
bfc00664:	365270d0 	ori	s2,s2,0x70d0
bfc00668:	1612017b 	bne	s0,s2,bfc00c58 <inst_error>
bfc0066c:	00000000 	nop
bfc00670:	3c09c354 	lui	t1,0xc354
bfc00674:	3529a660 	ori	t1,t1,0xa660
bfc00678:	3c088011 	lui	t0,0x8011
bfc0067c:	240a6cf0 	li	t2,27888
bfc00680:	240c6cf0 	li	t4,27888
bfc00684:	ad096cf0 	sw	t1,27888(t0)
bfc00688:	8d106cf0 	lw	s0,27888(t0)
bfc0068c:	3c12c354 	lui	s2,0xc354
bfc00690:	3652a660 	ori	s2,s2,0xa660
bfc00694:	16120170 	bne	s0,s2,bfc00c58 <inst_error>
bfc00698:	00000000 	nop
bfc0069c:	3c0966a3 	lui	t1,0x66a3
bfc006a0:	35298db4 	ori	t1,t1,0x8db4
bfc006a4:	3c088011 	lui	t0,0x8011
bfc006a8:	240a2530 	li	t2,9520
bfc006ac:	240c2530 	li	t4,9520
bfc006b0:	ad092530 	sw	t1,9520(t0)
bfc006b4:	8d102530 	lw	s0,9520(t0)
bfc006b8:	3c1266a3 	lui	s2,0x66a3
bfc006bc:	36528db4 	ori	s2,s2,0x8db4
bfc006c0:	16120165 	bne	s0,s2,bfc00c58 <inst_error>
bfc006c4:	00000000 	nop
bfc006c8:	3c091364 	lui	t1,0x1364
bfc006cc:	35299030 	ori	t1,t1,0x9030
bfc006d0:	3c088011 	lui	t0,0x8011
bfc006d4:	240a5bc4 	li	t2,23492
bfc006d8:	240c5bc4 	li	t4,23492
bfc006dc:	ad095bc4 	sw	t1,23492(t0)
bfc006e0:	8d105bc4 	lw	s0,23492(t0)
bfc006e4:	3c121364 	lui	s2,0x1364
bfc006e8:	36529030 	ori	s2,s2,0x9030
bfc006ec:	1612015a 	bne	s0,s2,bfc00c58 <inst_error>
bfc006f0:	00000000 	nop
bfc006f4:	3c09b7f6 	lui	t1,0xb7f6
bfc006f8:	35296e24 	ori	t1,t1,0x6e24
bfc006fc:	3c088011 	lui	t0,0x8011
bfc00700:	240a28b0 	li	t2,10416
bfc00704:	240c28b0 	li	t4,10416
bfc00708:	ad0928b0 	sw	t1,10416(t0)
bfc0070c:	8d1028b0 	lw	s0,10416(t0)
bfc00710:	3c12b7f6 	lui	s2,0xb7f6
bfc00714:	36526e24 	ori	s2,s2,0x6e24
bfc00718:	1612014f 	bne	s0,s2,bfc00c58 <inst_error>
bfc0071c:	00000000 	nop
bfc00720:	3c09c268 	lui	t1,0xc268
bfc00724:	3529a414 	ori	t1,t1,0xa414
bfc00728:	3c088011 	lui	t0,0x8011
bfc0072c:	240a59c0 	li	t2,22976
bfc00730:	240c59c0 	li	t4,22976
bfc00734:	ad0959c0 	sw	t1,22976(t0)
bfc00738:	8d1059c0 	lw	s0,22976(t0)
bfc0073c:	3c12c268 	lui	s2,0xc268
bfc00740:	3652a414 	ori	s2,s2,0xa414
bfc00744:	16120144 	bne	s0,s2,bfc00c58 <inst_error>
bfc00748:	00000000 	nop
bfc0074c:	3c091020 	lui	t1,0x1020
bfc00750:	352944e3 	ori	t1,t1,0x44e3
bfc00754:	3c088011 	lui	t0,0x8011
bfc00758:	240a3d0c 	li	t2,15628
bfc0075c:	240c3d0c 	li	t4,15628
bfc00760:	ad093d0c 	sw	t1,15628(t0)
bfc00764:	8d103d0c 	lw	s0,15628(t0)
bfc00768:	3c121020 	lui	s2,0x1020
bfc0076c:	365244e3 	ori	s2,s2,0x44e3
bfc00770:	16120139 	bne	s0,s2,bfc00c58 <inst_error>
bfc00774:	00000000 	nop
bfc00778:	3c09ff0f 	lui	t1,0xff0f
bfc0077c:	3529205f 	ori	t1,t1,0x205f
bfc00780:	3c088011 	lui	t0,0x8011
bfc00784:	240a7be0 	li	t2,31712
bfc00788:	240c7be0 	li	t4,31712
bfc0078c:	ad097be0 	sw	t1,31712(t0)
bfc00790:	8d107be0 	lw	s0,31712(t0)
bfc00794:	3c12ff0f 	lui	s2,0xff0f
bfc00798:	3652205f 	ori	s2,s2,0x205f
bfc0079c:	1612012e 	bne	s0,s2,bfc00c58 <inst_error>
bfc007a0:	00000000 	nop
bfc007a4:	3c09e394 	lui	t1,0xe394
bfc007a8:	3529e882 	ori	t1,t1,0xe882
bfc007ac:	3c088011 	lui	t0,0x8011
bfc007b0:	240a3f00 	li	t2,16128
bfc007b4:	240c3f00 	li	t4,16128
bfc007b8:	ad093f00 	sw	t1,16128(t0)
bfc007bc:	8d103f00 	lw	s0,16128(t0)
bfc007c0:	3c12e394 	lui	s2,0xe394
bfc007c4:	3652e882 	ori	s2,s2,0xe882
bfc007c8:	16120123 	bne	s0,s2,bfc00c58 <inst_error>
bfc007cc:	00000000 	nop
bfc007d0:	3c096b53 	lui	t1,0x6b53
bfc007d4:	3529ef5a 	ori	t1,t1,0xef5a
bfc007d8:	3c088011 	lui	t0,0x8011
bfc007dc:	240a31d0 	li	t2,12752
bfc007e0:	240c31d0 	li	t4,12752
bfc007e4:	ad0931d0 	sw	t1,12752(t0)
bfc007e8:	8d1031d0 	lw	s0,12752(t0)
bfc007ec:	3c126b53 	lui	s2,0x6b53
bfc007f0:	3652ef5a 	ori	s2,s2,0xef5a
bfc007f4:	16120118 	bne	s0,s2,bfc00c58 <inst_error>
bfc007f8:	00000000 	nop
bfc007fc:	3c09d3ad 	lui	t1,0xd3ad
bfc00800:	35295b32 	ori	t1,t1,0x5b32
bfc00804:	3c088011 	lui	t0,0x8011
bfc00808:	340ad870 	li	t2,0xd870
bfc0080c:	340cd870 	li	t4,0xd870
bfc00810:	3c010001 	lui	at,0x1
bfc00814:	00280821 	addu	at,at,t0
bfc00818:	ac29d870 	sw	t1,-10128(at)
bfc0081c:	3c100001 	lui	s0,0x1
bfc00820:	02088021 	addu	s0,s0,t0
bfc00824:	8e10d870 	lw	s0,-10128(s0)
bfc00828:	3c12d3ad 	lui	s2,0xd3ad
bfc0082c:	36525b32 	ori	s2,s2,0x5b32
bfc00830:	16120109 	bne	s0,s2,bfc00c58 <inst_error>
bfc00834:	00000000 	nop
bfc00838:	3c090e61 	lui	t1,0xe61
bfc0083c:	3529fb40 	ori	t1,t1,0xfb40
bfc00840:	3c088011 	lui	t0,0x8011
bfc00844:	340a89e4 	li	t2,0x89e4
bfc00848:	340c89e4 	li	t4,0x89e4
bfc0084c:	3c010001 	lui	at,0x1
bfc00850:	00280821 	addu	at,at,t0
bfc00854:	ac2989e4 	sw	t1,-30236(at)
bfc00858:	3c100001 	lui	s0,0x1
bfc0085c:	02088021 	addu	s0,s0,t0
bfc00860:	8e1089e4 	lw	s0,-30236(s0)
bfc00864:	3c120e61 	lui	s2,0xe61
bfc00868:	3652fb40 	ori	s2,s2,0xfb40
bfc0086c:	161200fa 	bne	s0,s2,bfc00c58 <inst_error>
bfc00870:	00000000 	nop
bfc00874:	3c09cb58 	lui	t1,0xcb58
bfc00878:	3529118c 	ori	t1,t1,0x118c
bfc0087c:	3c088011 	lui	t0,0x8011
bfc00880:	340aa130 	li	t2,0xa130
bfc00884:	340ca130 	li	t4,0xa130
bfc00888:	3c010001 	lui	at,0x1
bfc0088c:	00280821 	addu	at,at,t0
bfc00890:	ac29a130 	sw	t1,-24272(at)
bfc00894:	3c100001 	lui	s0,0x1
bfc00898:	02088021 	addu	s0,s0,t0
bfc0089c:	8e10a130 	lw	s0,-24272(s0)
bfc008a0:	3c12cb58 	lui	s2,0xcb58
bfc008a4:	3652118c 	ori	s2,s2,0x118c
bfc008a8:	161200eb 	bne	s0,s2,bfc00c58 <inst_error>
bfc008ac:	00000000 	nop
bfc008b0:	3c09e56f 	lui	t1,0xe56f
bfc008b4:	3529b3a8 	ori	t1,t1,0xb3a8
bfc008b8:	3c088011 	lui	t0,0x8011
bfc008bc:	240a72ec 	li	t2,29420
bfc008c0:	240c72ec 	li	t4,29420
bfc008c4:	ad0972ec 	sw	t1,29420(t0)
bfc008c8:	8d1072ec 	lw	s0,29420(t0)
bfc008cc:	3c12e56f 	lui	s2,0xe56f
bfc008d0:	3652b3a8 	ori	s2,s2,0xb3a8
bfc008d4:	161200e0 	bne	s0,s2,bfc00c58 <inst_error>
bfc008d8:	00000000 	nop
bfc008dc:	3c096661 	lui	t1,0x6661
bfc008e0:	3529617c 	ori	t1,t1,0x617c
bfc008e4:	3c088011 	lui	t0,0x8011
bfc008e8:	240a4650 	li	t2,18000
bfc008ec:	240c4650 	li	t4,18000
bfc008f0:	ad094650 	sw	t1,18000(t0)
bfc008f4:	8d104650 	lw	s0,18000(t0)
bfc008f8:	3c126661 	lui	s2,0x6661
bfc008fc:	3652617c 	ori	s2,s2,0x617c
bfc00900:	161200d5 	bne	s0,s2,bfc00c58 <inst_error>
bfc00904:	00000000 	nop
bfc00908:	3c095f7c 	lui	t1,0x5f7c
bfc0090c:	352908b0 	ori	t1,t1,0x8b0
bfc00910:	3c088011 	lui	t0,0x8011
bfc00914:	340a8524 	li	t2,0x8524
bfc00918:	340c8524 	li	t4,0x8524
bfc0091c:	3c010001 	lui	at,0x1
bfc00920:	00280821 	addu	at,at,t0
bfc00924:	ac298524 	sw	t1,-31452(at)
bfc00928:	3c100001 	lui	s0,0x1
bfc0092c:	02088021 	addu	s0,s0,t0
bfc00930:	8e108524 	lw	s0,-31452(s0)
bfc00934:	3c125f7c 	lui	s2,0x5f7c
bfc00938:	365208b0 	ori	s2,s2,0x8b0
bfc0093c:	161200c6 	bne	s0,s2,bfc00c58 <inst_error>
bfc00940:	00000000 	nop
bfc00944:	3c092b1e 	lui	t1,0x2b1e
bfc00948:	3529a090 	ori	t1,t1,0xa090
bfc0094c:	3c088011 	lui	t0,0x8011
bfc00950:	240a0000 	li	t2,0
bfc00954:	240c0000 	li	t4,0
bfc00958:	ad090000 	sw	t1,0(t0)
bfc0095c:	8d100000 	lw	s0,0(t0)
bfc00960:	3c122b1e 	lui	s2,0x2b1e
bfc00964:	3652a090 	ori	s2,s2,0xa090
bfc00968:	161200bb 	bne	s0,s2,bfc00c58 <inst_error>
bfc0096c:	00000000 	nop
bfc00970:	3c09e4a9 	lui	t1,0xe4a9
bfc00974:	3529ee00 	ori	t1,t1,0xee00
bfc00978:	3c088011 	lui	t0,0x8011
bfc0097c:	240a0000 	li	t2,0
bfc00980:	240c0000 	li	t4,0
bfc00984:	ad090000 	sw	t1,0(t0)
bfc00988:	8d100000 	lw	s0,0(t0)
bfc0098c:	3c12e4a9 	lui	s2,0xe4a9
bfc00990:	3652ee00 	ori	s2,s2,0xee00
bfc00994:	161200b0 	bne	s0,s2,bfc00c58 <inst_error>
bfc00998:	00000000 	nop
bfc0099c:	3c096472 	lui	t1,0x6472
bfc009a0:	3529d096 	ori	t1,t1,0xd096
bfc009a4:	3c088011 	lui	t0,0x8011
bfc009a8:	240a0000 	li	t2,0
bfc009ac:	240c0000 	li	t4,0
bfc009b0:	ad090000 	sw	t1,0(t0)
bfc009b4:	8d100000 	lw	s0,0(t0)
bfc009b8:	3c126472 	lui	s2,0x6472
bfc009bc:	3652d096 	ori	s2,s2,0xd096
bfc009c0:	161200a5 	bne	s0,s2,bfc00c58 <inst_error>
bfc009c4:	00000000 	nop
bfc009c8:	3c09c60d 	lui	t1,0xc60d
bfc009cc:	3529fd1c 	ori	t1,t1,0xfd1c
bfc009d0:	3c088011 	lui	t0,0x8011
bfc009d4:	240a0000 	li	t2,0
bfc009d8:	240c0000 	li	t4,0
bfc009dc:	ad090000 	sw	t1,0(t0)
bfc009e0:	8d100000 	lw	s0,0(t0)
bfc009e4:	3c12c60d 	lui	s2,0xc60d
bfc009e8:	3652fd1c 	ori	s2,s2,0xfd1c
bfc009ec:	1612009a 	bne	s0,s2,bfc00c58 <inst_error>
bfc009f0:	00000000 	nop
bfc009f4:	3c09aaa5 	lui	t1,0xaaa5
bfc009f8:	35294652 	ori	t1,t1,0x4652
bfc009fc:	3c088011 	lui	t0,0x8011
bfc00a00:	240a0000 	li	t2,0
bfc00a04:	240c0000 	li	t4,0
bfc00a08:	ad090000 	sw	t1,0(t0)
bfc00a0c:	8d100000 	lw	s0,0(t0)
bfc00a10:	3c12aaa5 	lui	s2,0xaaa5
bfc00a14:	36524652 	ori	s2,s2,0x4652
bfc00a18:	1612008f 	bne	s0,s2,bfc00c58 <inst_error>
bfc00a1c:	00000000 	nop
bfc00a20:	3c09fd47 	lui	t1,0xfd47
bfc00a24:	3529929c 	ori	t1,t1,0x929c
bfc00a28:	3c088011 	lui	t0,0x8011
bfc00a2c:	240a0000 	li	t2,0
bfc00a30:	240c0000 	li	t4,0
bfc00a34:	ad090000 	sw	t1,0(t0)
bfc00a38:	8d100000 	lw	s0,0(t0)
bfc00a3c:	3c12fd47 	lui	s2,0xfd47
bfc00a40:	3652929c 	ori	s2,s2,0x929c
bfc00a44:	16120084 	bne	s0,s2,bfc00c58 <inst_error>
bfc00a48:	00000000 	nop
bfc00a4c:	3c09e40e 	lui	t1,0xe40e
bfc00a50:	35290b9e 	ori	t1,t1,0xb9e
bfc00a54:	3c088011 	lui	t0,0x8011
bfc00a58:	240a0000 	li	t2,0
bfc00a5c:	240c0000 	li	t4,0
bfc00a60:	ad090000 	sw	t1,0(t0)
bfc00a64:	8d100000 	lw	s0,0(t0)
bfc00a68:	3c12e40e 	lui	s2,0xe40e
bfc00a6c:	36520b9e 	ori	s2,s2,0xb9e
bfc00a70:	16120079 	bne	s0,s2,bfc00c58 <inst_error>
bfc00a74:	00000000 	nop
bfc00a78:	3c096bcb 	lui	t1,0x6bcb
bfc00a7c:	352955b4 	ori	t1,t1,0x55b4
bfc00a80:	3c088011 	lui	t0,0x8011
bfc00a84:	240a0000 	li	t2,0
bfc00a88:	240c0000 	li	t4,0
bfc00a8c:	ad090000 	sw	t1,0(t0)
bfc00a90:	8d100000 	lw	s0,0(t0)
bfc00a94:	3c126bcb 	lui	s2,0x6bcb
bfc00a98:	365255b4 	ori	s2,s2,0x55b4
bfc00a9c:	1612006e 	bne	s0,s2,bfc00c58 <inst_error>
bfc00aa0:	00000000 	nop
bfc00aa4:	3c09e6cb 	lui	t1,0xe6cb
bfc00aa8:	35292590 	ori	t1,t1,0x2590
bfc00aac:	3c088011 	lui	t0,0x8011
bfc00ab0:	240a0000 	li	t2,0
bfc00ab4:	240c0000 	li	t4,0
bfc00ab8:	ad090000 	sw	t1,0(t0)
bfc00abc:	8d100000 	lw	s0,0(t0)
bfc00ac0:	3c12e6cb 	lui	s2,0xe6cb
bfc00ac4:	36522590 	ori	s2,s2,0x2590
bfc00ac8:	16120063 	bne	s0,s2,bfc00c58 <inst_error>
bfc00acc:	00000000 	nop
bfc00ad0:	3c093d91 	lui	t1,0x3d91
bfc00ad4:	35291cb8 	ori	t1,t1,0x1cb8
bfc00ad8:	3c088011 	lui	t0,0x8011
bfc00adc:	240a0000 	li	t2,0
bfc00ae0:	240c0000 	li	t4,0
bfc00ae4:	ad090000 	sw	t1,0(t0)
bfc00ae8:	8d100000 	lw	s0,0(t0)
bfc00aec:	3c123d91 	lui	s2,0x3d91
bfc00af0:	36521cb8 	ori	s2,s2,0x1cb8
bfc00af4:	16120058 	bne	s0,s2,bfc00c58 <inst_error>
bfc00af8:	00000000 	nop
bfc00afc:	3c09e658 	lui	t1,0xe658
bfc00b00:	352974bd 	ori	t1,t1,0x74bd
bfc00b04:	3c088011 	lui	t0,0x8011
bfc00b08:	240a0000 	li	t2,0
bfc00b0c:	240c0000 	li	t4,0
bfc00b10:	ad090000 	sw	t1,0(t0)
bfc00b14:	8d100000 	lw	s0,0(t0)
bfc00b18:	3c12e658 	lui	s2,0xe658
bfc00b1c:	365274bd 	ori	s2,s2,0x74bd
bfc00b20:	1612004d 	bne	s0,s2,bfc00c58 <inst_error>
bfc00b24:	00000000 	nop
bfc00b28:	3c093a3c 	lui	t1,0x3a3c
bfc00b2c:	35299edc 	ori	t1,t1,0x9edc
bfc00b30:	3c088011 	lui	t0,0x8011
bfc00b34:	240a0000 	li	t2,0
bfc00b38:	240c0000 	li	t4,0
bfc00b3c:	ad090000 	sw	t1,0(t0)
bfc00b40:	8d100000 	lw	s0,0(t0)
bfc00b44:	3c123a3c 	lui	s2,0x3a3c
bfc00b48:	36529edc 	ori	s2,s2,0x9edc
bfc00b4c:	16120042 	bne	s0,s2,bfc00c58 <inst_error>
bfc00b50:	00000000 	nop
bfc00b54:	3c09bddd 	lui	t1,0xbddd
bfc00b58:	3529406e 	ori	t1,t1,0x406e
bfc00b5c:	3c088011 	lui	t0,0x8011
bfc00b60:	240a0000 	li	t2,0
bfc00b64:	240c0000 	li	t4,0
bfc00b68:	ad090000 	sw	t1,0(t0)
bfc00b6c:	8d100000 	lw	s0,0(t0)
bfc00b70:	3c12bddd 	lui	s2,0xbddd
bfc00b74:	3652406e 	ori	s2,s2,0x406e
bfc00b78:	16120037 	bne	s0,s2,bfc00c58 <inst_error>
bfc00b7c:	00000000 	nop
bfc00b80:	3c09fe6f 	lui	t1,0xfe6f
bfc00b84:	3529b690 	ori	t1,t1,0xb690
bfc00b88:	3c088011 	lui	t0,0x8011
bfc00b8c:	240a0000 	li	t2,0
bfc00b90:	240c0000 	li	t4,0
bfc00b94:	ad090000 	sw	t1,0(t0)
bfc00b98:	8d100000 	lw	s0,0(t0)
bfc00b9c:	3c12fe6f 	lui	s2,0xfe6f
bfc00ba0:	3652b690 	ori	s2,s2,0xb690
bfc00ba4:	1612002c 	bne	s0,s2,bfc00c58 <inst_error>
bfc00ba8:	00000000 	nop
bfc00bac:	3c09941b 	lui	t1,0x941b
bfc00bb0:	3529c8b2 	ori	t1,t1,0xc8b2
bfc00bb4:	3c088011 	lui	t0,0x8011
bfc00bb8:	240a0000 	li	t2,0
bfc00bbc:	240c0000 	li	t4,0
bfc00bc0:	ad090000 	sw	t1,0(t0)
bfc00bc4:	8d100000 	lw	s0,0(t0)
bfc00bc8:	3c12941b 	lui	s2,0x941b
bfc00bcc:	3652c8b2 	ori	s2,s2,0xc8b2
bfc00bd0:	16120021 	bne	s0,s2,bfc00c58 <inst_error>
bfc00bd4:	00000000 	nop
bfc00bd8:	3c099393 	lui	t1,0x9393
bfc00bdc:	3529289c 	ori	t1,t1,0x289c
bfc00be0:	3c088011 	lui	t0,0x8011
bfc00be4:	240a0000 	li	t2,0
bfc00be8:	240c0000 	li	t4,0
bfc00bec:	ad090000 	sw	t1,0(t0)
bfc00bf0:	8d100000 	lw	s0,0(t0)
bfc00bf4:	3c129393 	lui	s2,0x9393
bfc00bf8:	3652289c 	ori	s2,s2,0x289c
bfc00bfc:	16120016 	bne	s0,s2,bfc00c58 <inst_error>
bfc00c00:	00000000 	nop
bfc00c04:	3c0929b2 	lui	t1,0x29b2
bfc00c08:	3529c02d 	ori	t1,t1,0xc02d
bfc00c0c:	3c088011 	lui	t0,0x8011
bfc00c10:	240a0000 	li	t2,0
bfc00c14:	240c0000 	li	t4,0
bfc00c18:	ad090000 	sw	t1,0(t0)
bfc00c1c:	8d100000 	lw	s0,0(t0)
bfc00c20:	3c1229b2 	lui	s2,0x29b2
bfc00c24:	3652c02d 	ori	s2,s2,0xc02d
bfc00c28:	1612000b 	bne	s0,s2,bfc00c58 <inst_error>
bfc00c2c:	00000000 	nop
bfc00c30:	24090000 	li	t1,0
bfc00c34:	3c088011 	lui	t0,0x8011
bfc00c38:	240a0000 	li	t2,0
bfc00c3c:	240c0000 	li	t4,0
bfc00c40:	ad090000 	sw	t1,0(t0)
bfc00c44:	8d100000 	lw	s0,0(t0)
bfc00c48:	24120000 	li	s2,0
bfc00c4c:	16120002 	bne	s0,s2,bfc00c58 <inst_error>
bfc00c50:	00000000 	nop
bfc00c54:	4a000000 	c2	0x0

bfc00c58 <inst_error>:
inst_error():
bfc00c58:	0000003f 	0x3f

Disassembly of section .reginfo:

00000000 <.reginfo>:
   0:	00051702 	srl	v0,a1,0x1c
	...
