
build/mfhi:     file format elf32-tradlittlemips
build/mfhi


Disassembly of section .text:

bfc00000 <main>:
bfc00000:	3c08bd59 	lui	t0,0xbd59
bfc00004:	350872d1 	ori	t0,t0,0x72d1
bfc00008:	01000011 	mthi	t0
bfc0000c:	00008010 	mfhi	s0
bfc00010:	3c12bd59 	lui	s2,0xbd59
bfc00014:	365272d1 	ori	s2,s2,0x72d1
bfc00018:	1612063e 	bne	s0,s2,bfc01914 <inst_error>
bfc0001c:	00000000 	nop
bfc00020:	3c08b63e 	lui	t0,0xb63e
bfc00024:	350863e4 	ori	t0,t0,0x63e4
bfc00028:	01000011 	mthi	t0
bfc0002c:	00008010 	mfhi	s0
bfc00030:	3c12b63e 	lui	s2,0xb63e
bfc00034:	365263e4 	ori	s2,s2,0x63e4
bfc00038:	16120636 	bne	s0,s2,bfc01914 <inst_error>
bfc0003c:	00000000 	nop
bfc00040:	3c08c290 	lui	t0,0xc290
bfc00044:	35082fdc 	ori	t0,t0,0x2fdc
bfc00048:	01000011 	mthi	t0
bfc0004c:	00008010 	mfhi	s0
bfc00050:	3c12c290 	lui	s2,0xc290
bfc00054:	36522fdc 	ori	s2,s2,0x2fdc
bfc00058:	1612062e 	bne	s0,s2,bfc01914 <inst_error>
bfc0005c:	00000000 	nop
bfc00060:	3c087261 	lui	t0,0x7261
bfc00064:	35087ff5 	ori	t0,t0,0x7ff5
bfc00068:	01000011 	mthi	t0
bfc0006c:	00008010 	mfhi	s0
bfc00070:	3c127261 	lui	s2,0x7261
bfc00074:	36527ff5 	ori	s2,s2,0x7ff5
bfc00078:	16120626 	bne	s0,s2,bfc01914 <inst_error>
bfc0007c:	00000000 	nop
bfc00080:	3c083ea9 	lui	t0,0x3ea9
bfc00084:	35081bf2 	ori	t0,t0,0x1bf2
bfc00088:	01000011 	mthi	t0
bfc0008c:	00008010 	mfhi	s0
bfc00090:	3c123ea9 	lui	s2,0x3ea9
bfc00094:	36521bf2 	ori	s2,s2,0x1bf2
bfc00098:	1612061e 	bne	s0,s2,bfc01914 <inst_error>
bfc0009c:	00000000 	nop
bfc000a0:	3c08dab0 	lui	t0,0xdab0
bfc000a4:	3508b4f0 	ori	t0,t0,0xb4f0
bfc000a8:	01000011 	mthi	t0
bfc000ac:	00008010 	mfhi	s0
bfc000b0:	3c12dab0 	lui	s2,0xdab0
bfc000b4:	3652b4f0 	ori	s2,s2,0xb4f0
bfc000b8:	16120616 	bne	s0,s2,bfc01914 <inst_error>
bfc000bc:	00000000 	nop
bfc000c0:	3c08ad67 	lui	t0,0xad67
bfc000c4:	35086d58 	ori	t0,t0,0x6d58
bfc000c8:	01000011 	mthi	t0
bfc000cc:	00008010 	mfhi	s0
bfc000d0:	3c12ad67 	lui	s2,0xad67
bfc000d4:	36526d58 	ori	s2,s2,0x6d58
bfc000d8:	1612060e 	bne	s0,s2,bfc01914 <inst_error>
bfc000dc:	00000000 	nop
bfc000e0:	3c08f22d 	lui	t0,0xf22d
bfc000e4:	35087d6e 	ori	t0,t0,0x7d6e
bfc000e8:	01000011 	mthi	t0
bfc000ec:	00008010 	mfhi	s0
bfc000f0:	3c12f22d 	lui	s2,0xf22d
bfc000f4:	36527d6e 	ori	s2,s2,0x7d6e
bfc000f8:	16120606 	bne	s0,s2,bfc01914 <inst_error>
bfc000fc:	00000000 	nop
bfc00100:	3c08f2c5 	lui	t0,0xf2c5
bfc00104:	350897c2 	ori	t0,t0,0x97c2
bfc00108:	01000011 	mthi	t0
bfc0010c:	00008010 	mfhi	s0
bfc00110:	3c12f2c5 	lui	s2,0xf2c5
bfc00114:	365297c2 	ori	s2,s2,0x97c2
bfc00118:	161205fe 	bne	s0,s2,bfc01914 <inst_error>
bfc0011c:	00000000 	nop
bfc00120:	3c085721 	lui	t0,0x5721
bfc00124:	350861b0 	ori	t0,t0,0x61b0
bfc00128:	01000011 	mthi	t0
bfc0012c:	00008010 	mfhi	s0
bfc00130:	3c125721 	lui	s2,0x5721
bfc00134:	365261b0 	ori	s2,s2,0x61b0
bfc00138:	161205f6 	bne	s0,s2,bfc01914 <inst_error>
bfc0013c:	00000000 	nop
bfc00140:	3c08d1fb 	lui	t0,0xd1fb
bfc00144:	35080c12 	ori	t0,t0,0xc12
bfc00148:	01000011 	mthi	t0
bfc0014c:	00008010 	mfhi	s0
bfc00150:	3c12d1fb 	lui	s2,0xd1fb
bfc00154:	36520c12 	ori	s2,s2,0xc12
bfc00158:	161205ee 	bne	s0,s2,bfc01914 <inst_error>
bfc0015c:	00000000 	nop
bfc00160:	3c0854a5 	lui	t0,0x54a5
bfc00164:	3508493d 	ori	t0,t0,0x493d
bfc00168:	01000011 	mthi	t0
bfc0016c:	00008010 	mfhi	s0
bfc00170:	3c1254a5 	lui	s2,0x54a5
bfc00174:	3652493d 	ori	s2,s2,0x493d
bfc00178:	161205e6 	bne	s0,s2,bfc01914 <inst_error>
bfc0017c:	00000000 	nop
bfc00180:	3c089680 	lui	t0,0x9680
bfc00184:	35089138 	ori	t0,t0,0x9138
bfc00188:	01000011 	mthi	t0
bfc0018c:	00008010 	mfhi	s0
bfc00190:	3c129680 	lui	s2,0x9680
bfc00194:	36529138 	ori	s2,s2,0x9138
bfc00198:	161205de 	bne	s0,s2,bfc01914 <inst_error>
bfc0019c:	00000000 	nop
bfc001a0:	3c081439 	lui	t0,0x1439
bfc001a4:	3508f6ec 	ori	t0,t0,0xf6ec
bfc001a8:	01000011 	mthi	t0
bfc001ac:	00008010 	mfhi	s0
bfc001b0:	3c121439 	lui	s2,0x1439
bfc001b4:	3652f6ec 	ori	s2,s2,0xf6ec
bfc001b8:	161205d6 	bne	s0,s2,bfc01914 <inst_error>
bfc001bc:	00000000 	nop
bfc001c0:	3c08260f 	lui	t0,0x260f
bfc001c4:	35086c1e 	ori	t0,t0,0x6c1e
bfc001c8:	01000011 	mthi	t0
bfc001cc:	00008010 	mfhi	s0
bfc001d0:	3c12260f 	lui	s2,0x260f
bfc001d4:	36526c1e 	ori	s2,s2,0x6c1e
bfc001d8:	161205ce 	bne	s0,s2,bfc01914 <inst_error>
bfc001dc:	00000000 	nop
bfc001e0:	3c0834ed 	lui	t0,0x34ed
bfc001e4:	3508b2a0 	ori	t0,t0,0xb2a0
bfc001e8:	01000011 	mthi	t0
bfc001ec:	00008010 	mfhi	s0
bfc001f0:	3c1234ed 	lui	s2,0x34ed
bfc001f4:	3652b2a0 	ori	s2,s2,0xb2a0
bfc001f8:	161205c6 	bne	s0,s2,bfc01914 <inst_error>
bfc001fc:	00000000 	nop
bfc00200:	3c08020c 	lui	t0,0x20c
bfc00204:	3508ff2c 	ori	t0,t0,0xff2c
bfc00208:	01000011 	mthi	t0
bfc0020c:	00008010 	mfhi	s0
bfc00210:	3c12020c 	lui	s2,0x20c
bfc00214:	3652ff2c 	ori	s2,s2,0xff2c
bfc00218:	161205be 	bne	s0,s2,bfc01914 <inst_error>
bfc0021c:	00000000 	nop
bfc00220:	3c083fd6 	lui	t0,0x3fd6
bfc00224:	3508ae20 	ori	t0,t0,0xae20
bfc00228:	01000011 	mthi	t0
bfc0022c:	00008010 	mfhi	s0
bfc00230:	3c123fd6 	lui	s2,0x3fd6
bfc00234:	3652ae20 	ori	s2,s2,0xae20
bfc00238:	161205b6 	bne	s0,s2,bfc01914 <inst_error>
bfc0023c:	00000000 	nop
bfc00240:	3c08335f 	lui	t0,0x335f
bfc00244:	350857dc 	ori	t0,t0,0x57dc
bfc00248:	01000011 	mthi	t0
bfc0024c:	00008010 	mfhi	s0
bfc00250:	3c12335f 	lui	s2,0x335f
bfc00254:	365257dc 	ori	s2,s2,0x57dc
bfc00258:	161205ae 	bne	s0,s2,bfc01914 <inst_error>
bfc0025c:	00000000 	nop
bfc00260:	3c084457 	lui	t0,0x4457
bfc00264:	35086a40 	ori	t0,t0,0x6a40
bfc00268:	01000011 	mthi	t0
bfc0026c:	00008010 	mfhi	s0
bfc00270:	3c124457 	lui	s2,0x4457
bfc00274:	36526a40 	ori	s2,s2,0x6a40
bfc00278:	161205a6 	bne	s0,s2,bfc01914 <inst_error>
bfc0027c:	00000000 	nop
bfc00280:	3c08cbed 	lui	t0,0xcbed
bfc00284:	3508ef25 	ori	t0,t0,0xef25
bfc00288:	01000011 	mthi	t0
bfc0028c:	00008010 	mfhi	s0
bfc00290:	3c12cbed 	lui	s2,0xcbed
bfc00294:	3652ef25 	ori	s2,s2,0xef25
bfc00298:	1612059e 	bne	s0,s2,bfc01914 <inst_error>
bfc0029c:	00000000 	nop
bfc002a0:	3c08b538 	lui	t0,0xb538
bfc002a4:	3508bb0c 	ori	t0,t0,0xbb0c
bfc002a8:	01000011 	mthi	t0
bfc002ac:	00008010 	mfhi	s0
bfc002b0:	3c12b538 	lui	s2,0xb538
bfc002b4:	3652bb0c 	ori	s2,s2,0xbb0c
bfc002b8:	16120596 	bne	s0,s2,bfc01914 <inst_error>
bfc002bc:	00000000 	nop
bfc002c0:	3c0800bc 	lui	t0,0xbc
bfc002c4:	3508e9af 	ori	t0,t0,0xe9af
bfc002c8:	01000011 	mthi	t0
bfc002cc:	00008010 	mfhi	s0
bfc002d0:	3c1200bc 	lui	s2,0xbc
bfc002d4:	3652e9af 	ori	s2,s2,0xe9af
bfc002d8:	1612058e 	bne	s0,s2,bfc01914 <inst_error>
bfc002dc:	00000000 	nop
bfc002e0:	3c08dcdc 	lui	t0,0xdcdc
bfc002e4:	3508c9a3 	ori	t0,t0,0xc9a3
bfc002e8:	01000011 	mthi	t0
bfc002ec:	00008010 	mfhi	s0
bfc002f0:	3c12dcdc 	lui	s2,0xdcdc
bfc002f4:	3652c9a3 	ori	s2,s2,0xc9a3
bfc002f8:	16120586 	bne	s0,s2,bfc01914 <inst_error>
bfc002fc:	00000000 	nop
bfc00300:	3c085f10 	lui	t0,0x5f10
bfc00304:	3508dbe4 	ori	t0,t0,0xdbe4
bfc00308:	01000011 	mthi	t0
bfc0030c:	00008010 	mfhi	s0
bfc00310:	3c125f10 	lui	s2,0x5f10
bfc00314:	3652dbe4 	ori	s2,s2,0xdbe4
bfc00318:	1612057e 	bne	s0,s2,bfc01914 <inst_error>
bfc0031c:	00000000 	nop
bfc00320:	3c08a7d6 	lui	t0,0xa7d6
bfc00324:	3508bcbc 	ori	t0,t0,0xbcbc
bfc00328:	01000011 	mthi	t0
bfc0032c:	00008010 	mfhi	s0
bfc00330:	3c12a7d6 	lui	s2,0xa7d6
bfc00334:	3652bcbc 	ori	s2,s2,0xbcbc
bfc00338:	16120576 	bne	s0,s2,bfc01914 <inst_error>
bfc0033c:	00000000 	nop
bfc00340:	3c085373 	lui	t0,0x5373
bfc00344:	350859da 	ori	t0,t0,0x59da
bfc00348:	01000011 	mthi	t0
bfc0034c:	00008010 	mfhi	s0
bfc00350:	3c125373 	lui	s2,0x5373
bfc00354:	365259da 	ori	s2,s2,0x59da
bfc00358:	1612056e 	bne	s0,s2,bfc01914 <inst_error>
bfc0035c:	00000000 	nop
bfc00360:	3c0814f7 	lui	t0,0x14f7
bfc00364:	35089254 	ori	t0,t0,0x9254
bfc00368:	01000011 	mthi	t0
bfc0036c:	00008010 	mfhi	s0
bfc00370:	3c1214f7 	lui	s2,0x14f7
bfc00374:	36529254 	ori	s2,s2,0x9254
bfc00378:	16120566 	bne	s0,s2,bfc01914 <inst_error>
bfc0037c:	00000000 	nop
bfc00380:	3c08f210 	lui	t0,0xf210
bfc00384:	35086018 	ori	t0,t0,0x6018
bfc00388:	01000011 	mthi	t0
bfc0038c:	00008010 	mfhi	s0
bfc00390:	3c12f210 	lui	s2,0xf210
bfc00394:	36526018 	ori	s2,s2,0x6018
bfc00398:	1612055e 	bne	s0,s2,bfc01914 <inst_error>
bfc0039c:	00000000 	nop
bfc003a0:	3c08e350 	lui	t0,0xe350
bfc003a4:	3508b7d8 	ori	t0,t0,0xb7d8
bfc003a8:	01000011 	mthi	t0
bfc003ac:	00008010 	mfhi	s0
bfc003b0:	3c12e350 	lui	s2,0xe350
bfc003b4:	3652b7d8 	ori	s2,s2,0xb7d8
bfc003b8:	16120556 	bne	s0,s2,bfc01914 <inst_error>
bfc003bc:	00000000 	nop
bfc003c0:	3c0858ac 	lui	t0,0x58ac
bfc003c4:	3508e370 	ori	t0,t0,0xe370
bfc003c8:	01000011 	mthi	t0
bfc003cc:	00008010 	mfhi	s0
bfc003d0:	3c1258ac 	lui	s2,0x58ac
bfc003d4:	3652e370 	ori	s2,s2,0xe370
bfc003d8:	1612054e 	bne	s0,s2,bfc01914 <inst_error>
bfc003dc:	00000000 	nop
bfc003e0:	3c08ecbd 	lui	t0,0xecbd
bfc003e4:	3508a0d5 	ori	t0,t0,0xa0d5
bfc003e8:	01000011 	mthi	t0
bfc003ec:	00008010 	mfhi	s0
bfc003f0:	3c12ecbd 	lui	s2,0xecbd
bfc003f4:	3652a0d5 	ori	s2,s2,0xa0d5
bfc003f8:	16120546 	bne	s0,s2,bfc01914 <inst_error>
bfc003fc:	00000000 	nop
bfc00400:	3c08c527 	lui	t0,0xc527
bfc00404:	350843c0 	ori	t0,t0,0x43c0
bfc00408:	01000011 	mthi	t0
bfc0040c:	00008010 	mfhi	s0
bfc00410:	3c12c527 	lui	s2,0xc527
bfc00414:	365243c0 	ori	s2,s2,0x43c0
bfc00418:	1612053e 	bne	s0,s2,bfc01914 <inst_error>
bfc0041c:	00000000 	nop
bfc00420:	3c08552d 	lui	t0,0x552d
bfc00424:	3508ef30 	ori	t0,t0,0xef30
bfc00428:	01000011 	mthi	t0
bfc0042c:	00008010 	mfhi	s0
bfc00430:	3c12552d 	lui	s2,0x552d
bfc00434:	3652ef30 	ori	s2,s2,0xef30
bfc00438:	16120536 	bne	s0,s2,bfc01914 <inst_error>
bfc0043c:	00000000 	nop
bfc00440:	3c08b085 	lui	t0,0xb085
bfc00444:	35085d30 	ori	t0,t0,0x5d30
bfc00448:	01000011 	mthi	t0
bfc0044c:	00008010 	mfhi	s0
bfc00450:	3c12b085 	lui	s2,0xb085
bfc00454:	36525d30 	ori	s2,s2,0x5d30
bfc00458:	1612052e 	bne	s0,s2,bfc01914 <inst_error>
bfc0045c:	00000000 	nop
bfc00460:	3c086e6d 	lui	t0,0x6e6d
bfc00464:	3508c6b2 	ori	t0,t0,0xc6b2
bfc00468:	01000011 	mthi	t0
bfc0046c:	00008010 	mfhi	s0
bfc00470:	3c126e6d 	lui	s2,0x6e6d
bfc00474:	3652c6b2 	ori	s2,s2,0xc6b2
bfc00478:	16120526 	bne	s0,s2,bfc01914 <inst_error>
bfc0047c:	00000000 	nop
bfc00480:	3c085289 	lui	t0,0x5289
bfc00484:	01000011 	mthi	t0
bfc00488:	00008010 	mfhi	s0
bfc0048c:	3c125289 	lui	s2,0x5289
bfc00490:	16120520 	bne	s0,s2,bfc01914 <inst_error>
bfc00494:	00000000 	nop
bfc00498:	3c08ed24 	lui	t0,0xed24
bfc0049c:	3508abd4 	ori	t0,t0,0xabd4
bfc004a0:	01000011 	mthi	t0
bfc004a4:	00008010 	mfhi	s0
bfc004a8:	3c12ed24 	lui	s2,0xed24
bfc004ac:	3652abd4 	ori	s2,s2,0xabd4
bfc004b0:	16120518 	bne	s0,s2,bfc01914 <inst_error>
bfc004b4:	00000000 	nop
bfc004b8:	3c088cee 	lui	t0,0x8cee
bfc004bc:	3508aa08 	ori	t0,t0,0xaa08
bfc004c0:	01000011 	mthi	t0
bfc004c4:	00008010 	mfhi	s0
bfc004c8:	3c128cee 	lui	s2,0x8cee
bfc004cc:	3652aa08 	ori	s2,s2,0xaa08
bfc004d0:	16120510 	bne	s0,s2,bfc01914 <inst_error>
bfc004d4:	00000000 	nop
bfc004d8:	3c083ee6 	lui	t0,0x3ee6
bfc004dc:	350844c0 	ori	t0,t0,0x44c0
bfc004e0:	01000011 	mthi	t0
bfc004e4:	00008010 	mfhi	s0
bfc004e8:	3c123ee6 	lui	s2,0x3ee6
bfc004ec:	365244c0 	ori	s2,s2,0x44c0
bfc004f0:	16120508 	bne	s0,s2,bfc01914 <inst_error>
bfc004f4:	00000000 	nop
bfc004f8:	3c089a5d 	lui	t0,0x9a5d
bfc004fc:	35086fe0 	ori	t0,t0,0x6fe0
bfc00500:	01000011 	mthi	t0
bfc00504:	00008010 	mfhi	s0
bfc00508:	3c129a5d 	lui	s2,0x9a5d
bfc0050c:	36526fe0 	ori	s2,s2,0x6fe0
bfc00510:	16120500 	bne	s0,s2,bfc01914 <inst_error>
bfc00514:	00000000 	nop
bfc00518:	3c082eaf 	lui	t0,0x2eaf
bfc0051c:	350838e8 	ori	t0,t0,0x38e8
bfc00520:	01000011 	mthi	t0
bfc00524:	00008010 	mfhi	s0
bfc00528:	3c122eaf 	lui	s2,0x2eaf
bfc0052c:	365238e8 	ori	s2,s2,0x38e8
bfc00530:	161204f8 	bne	s0,s2,bfc01914 <inst_error>
bfc00534:	00000000 	nop
bfc00538:	3c08fd28 	lui	t0,0xfd28
bfc0053c:	35081a38 	ori	t0,t0,0x1a38
bfc00540:	01000011 	mthi	t0
bfc00544:	00008010 	mfhi	s0
bfc00548:	3c12fd28 	lui	s2,0xfd28
bfc0054c:	36521a38 	ori	s2,s2,0x1a38
bfc00550:	161204f0 	bne	s0,s2,bfc01914 <inst_error>
bfc00554:	00000000 	nop
bfc00558:	3c087399 	lui	t0,0x7399
bfc0055c:	350822d0 	ori	t0,t0,0x22d0
bfc00560:	01000011 	mthi	t0
bfc00564:	00008010 	mfhi	s0
bfc00568:	3c127399 	lui	s2,0x7399
bfc0056c:	365222d0 	ori	s2,s2,0x22d0
bfc00570:	161204e8 	bne	s0,s2,bfc01914 <inst_error>
bfc00574:	00000000 	nop
bfc00578:	3c0835e0 	lui	t0,0x35e0
bfc0057c:	35082b56 	ori	t0,t0,0x2b56
bfc00580:	01000011 	mthi	t0
bfc00584:	00008010 	mfhi	s0
bfc00588:	3c1235e0 	lui	s2,0x35e0
bfc0058c:	36522b56 	ori	s2,s2,0x2b56
bfc00590:	161204e0 	bne	s0,s2,bfc01914 <inst_error>
bfc00594:	00000000 	nop
bfc00598:	3c08ccf9 	lui	t0,0xccf9
bfc0059c:	350848ba 	ori	t0,t0,0x48ba
bfc005a0:	01000011 	mthi	t0
bfc005a4:	00008010 	mfhi	s0
bfc005a8:	3c12ccf9 	lui	s2,0xccf9
bfc005ac:	365248ba 	ori	s2,s2,0x48ba
bfc005b0:	161204d8 	bne	s0,s2,bfc01914 <inst_error>
bfc005b4:	00000000 	nop
bfc005b8:	3c082cd2 	lui	t0,0x2cd2
bfc005bc:	350806d8 	ori	t0,t0,0x6d8
bfc005c0:	01000011 	mthi	t0
bfc005c4:	00008010 	mfhi	s0
bfc005c8:	3c122cd2 	lui	s2,0x2cd2
bfc005cc:	365206d8 	ori	s2,s2,0x6d8
bfc005d0:	161204d0 	bne	s0,s2,bfc01914 <inst_error>
bfc005d4:	00000000 	nop
bfc005d8:	3c08783c 	lui	t0,0x783c
bfc005dc:	3508ec40 	ori	t0,t0,0xec40
bfc005e0:	01000011 	mthi	t0
bfc005e4:	00008010 	mfhi	s0
bfc005e8:	3c12783c 	lui	s2,0x783c
bfc005ec:	3652ec40 	ori	s2,s2,0xec40
bfc005f0:	161204c8 	bne	s0,s2,bfc01914 <inst_error>
bfc005f4:	00000000 	nop
bfc005f8:	3c083711 	lui	t0,0x3711
bfc005fc:	3508e200 	ori	t0,t0,0xe200
bfc00600:	01000011 	mthi	t0
bfc00604:	00008010 	mfhi	s0
bfc00608:	3c123711 	lui	s2,0x3711
bfc0060c:	3652e200 	ori	s2,s2,0xe200
bfc00610:	161204c0 	bne	s0,s2,bfc01914 <inst_error>
bfc00614:	00000000 	nop
bfc00618:	3c08364e 	lui	t0,0x364e
bfc0061c:	3508ca6e 	ori	t0,t0,0xca6e
bfc00620:	01000011 	mthi	t0
bfc00624:	00008010 	mfhi	s0
bfc00628:	3c12364e 	lui	s2,0x364e
bfc0062c:	3652ca6e 	ori	s2,s2,0xca6e
bfc00630:	161204b8 	bne	s0,s2,bfc01914 <inst_error>
bfc00634:	00000000 	nop
bfc00638:	3c0857b0 	lui	t0,0x57b0
bfc0063c:	3508d404 	ori	t0,t0,0xd404
bfc00640:	01000011 	mthi	t0
bfc00644:	00008010 	mfhi	s0
bfc00648:	3c1257b0 	lui	s2,0x57b0
bfc0064c:	3652d404 	ori	s2,s2,0xd404
bfc00650:	161204b0 	bne	s0,s2,bfc01914 <inst_error>
bfc00654:	00000000 	nop
bfc00658:	3c084e0a 	lui	t0,0x4e0a
bfc0065c:	35082670 	ori	t0,t0,0x2670
bfc00660:	01000011 	mthi	t0
bfc00664:	00008010 	mfhi	s0
bfc00668:	3c124e0a 	lui	s2,0x4e0a
bfc0066c:	36522670 	ori	s2,s2,0x2670
bfc00670:	161204a8 	bne	s0,s2,bfc01914 <inst_error>
bfc00674:	00000000 	nop
bfc00678:	3c08201e 	lui	t0,0x201e
bfc0067c:	3508c750 	ori	t0,t0,0xc750
bfc00680:	01000011 	mthi	t0
bfc00684:	00008010 	mfhi	s0
bfc00688:	3c12201e 	lui	s2,0x201e
bfc0068c:	3652c750 	ori	s2,s2,0xc750
bfc00690:	161204a0 	bne	s0,s2,bfc01914 <inst_error>
bfc00694:	00000000 	nop
bfc00698:	3c086ad8 	lui	t0,0x6ad8
bfc0069c:	35084ba0 	ori	t0,t0,0x4ba0
bfc006a0:	01000011 	mthi	t0
bfc006a4:	00008010 	mfhi	s0
bfc006a8:	3c126ad8 	lui	s2,0x6ad8
bfc006ac:	36524ba0 	ori	s2,s2,0x4ba0
bfc006b0:	16120498 	bne	s0,s2,bfc01914 <inst_error>
bfc006b4:	00000000 	nop
bfc006b8:	3c088607 	lui	t0,0x8607
bfc006bc:	3508994c 	ori	t0,t0,0x994c
bfc006c0:	01000011 	mthi	t0
bfc006c4:	00008010 	mfhi	s0
bfc006c8:	3c128607 	lui	s2,0x8607
bfc006cc:	3652994c 	ori	s2,s2,0x994c
bfc006d0:	16120490 	bne	s0,s2,bfc01914 <inst_error>
bfc006d4:	00000000 	nop
bfc006d8:	3c08d81d 	lui	t0,0xd81d
bfc006dc:	350841ea 	ori	t0,t0,0x41ea
bfc006e0:	01000011 	mthi	t0
bfc006e4:	00008010 	mfhi	s0
bfc006e8:	3c12d81d 	lui	s2,0xd81d
bfc006ec:	365241ea 	ori	s2,s2,0x41ea
bfc006f0:	16120488 	bne	s0,s2,bfc01914 <inst_error>
bfc006f4:	00000000 	nop
bfc006f8:	3c088428 	lui	t0,0x8428
bfc006fc:	35084dc0 	ori	t0,t0,0x4dc0
bfc00700:	01000011 	mthi	t0
bfc00704:	00008010 	mfhi	s0
bfc00708:	3c128428 	lui	s2,0x8428
bfc0070c:	36524dc0 	ori	s2,s2,0x4dc0
bfc00710:	16120480 	bne	s0,s2,bfc01914 <inst_error>
bfc00714:	00000000 	nop
bfc00718:	3c08dbe9 	lui	t0,0xdbe9
bfc0071c:	3508f33a 	ori	t0,t0,0xf33a
bfc00720:	01000011 	mthi	t0
bfc00724:	00008010 	mfhi	s0
bfc00728:	3c12dbe9 	lui	s2,0xdbe9
bfc0072c:	3652f33a 	ori	s2,s2,0xf33a
bfc00730:	16120478 	bne	s0,s2,bfc01914 <inst_error>
bfc00734:	00000000 	nop
bfc00738:	3c087178 	lui	t0,0x7178
bfc0073c:	35080f80 	ori	t0,t0,0xf80
bfc00740:	01000011 	mthi	t0
bfc00744:	00008010 	mfhi	s0
bfc00748:	3c127178 	lui	s2,0x7178
bfc0074c:	36520f80 	ori	s2,s2,0xf80
bfc00750:	16120470 	bne	s0,s2,bfc01914 <inst_error>
bfc00754:	00000000 	nop
bfc00758:	3c080d95 	lui	t0,0xd95
bfc0075c:	35082de0 	ori	t0,t0,0x2de0
bfc00760:	01000011 	mthi	t0
bfc00764:	00008010 	mfhi	s0
bfc00768:	3c120d95 	lui	s2,0xd95
bfc0076c:	36522de0 	ori	s2,s2,0x2de0
bfc00770:	16120468 	bne	s0,s2,bfc01914 <inst_error>
bfc00774:	00000000 	nop
bfc00778:	3c0816ec 	lui	t0,0x16ec
bfc0077c:	35084528 	ori	t0,t0,0x4528
bfc00780:	01000011 	mthi	t0
bfc00784:	00008010 	mfhi	s0
bfc00788:	3c1216ec 	lui	s2,0x16ec
bfc0078c:	36524528 	ori	s2,s2,0x4528
bfc00790:	16120460 	bne	s0,s2,bfc01914 <inst_error>
bfc00794:	00000000 	nop
bfc00798:	3c084776 	lui	t0,0x4776
bfc0079c:	3508e0ae 	ori	t0,t0,0xe0ae
bfc007a0:	01000011 	mthi	t0
bfc007a4:	00008010 	mfhi	s0
bfc007a8:	3c124776 	lui	s2,0x4776
bfc007ac:	3652e0ae 	ori	s2,s2,0xe0ae
bfc007b0:	16120458 	bne	s0,s2,bfc01914 <inst_error>
bfc007b4:	00000000 	nop
bfc007b8:	3c089408 	lui	t0,0x9408
bfc007bc:	35087e02 	ori	t0,t0,0x7e02
bfc007c0:	01000011 	mthi	t0
bfc007c4:	00008010 	mfhi	s0
bfc007c8:	3c129408 	lui	s2,0x9408
bfc007cc:	36527e02 	ori	s2,s2,0x7e02
bfc007d0:	16120450 	bne	s0,s2,bfc01914 <inst_error>
bfc007d4:	00000000 	nop
bfc007d8:	3c08b36c 	lui	t0,0xb36c
bfc007dc:	35089cfc 	ori	t0,t0,0x9cfc
bfc007e0:	01000011 	mthi	t0
bfc007e4:	00008010 	mfhi	s0
bfc007e8:	3c12b36c 	lui	s2,0xb36c
bfc007ec:	36529cfc 	ori	s2,s2,0x9cfc
bfc007f0:	16120448 	bne	s0,s2,bfc01914 <inst_error>
bfc007f4:	00000000 	nop
bfc007f8:	3c084658 	lui	t0,0x4658
bfc007fc:	35087f08 	ori	t0,t0,0x7f08
bfc00800:	01000011 	mthi	t0
bfc00804:	00008010 	mfhi	s0
bfc00808:	3c124658 	lui	s2,0x4658
bfc0080c:	36527f08 	ori	s2,s2,0x7f08
bfc00810:	16120440 	bne	s0,s2,bfc01914 <inst_error>
bfc00814:	00000000 	nop
bfc00818:	3c082225 	lui	t0,0x2225
bfc0081c:	350845bc 	ori	t0,t0,0x45bc
bfc00820:	01000011 	mthi	t0
bfc00824:	00008010 	mfhi	s0
bfc00828:	3c122225 	lui	s2,0x2225
bfc0082c:	365245bc 	ori	s2,s2,0x45bc
bfc00830:	16120438 	bne	s0,s2,bfc01914 <inst_error>
bfc00834:	00000000 	nop
bfc00838:	3c08d3c6 	lui	t0,0xd3c6
bfc0083c:	350817c0 	ori	t0,t0,0x17c0
bfc00840:	01000011 	mthi	t0
bfc00844:	00008010 	mfhi	s0
bfc00848:	3c12d3c6 	lui	s2,0xd3c6
bfc0084c:	365217c0 	ori	s2,s2,0x17c0
bfc00850:	16120430 	bne	s0,s2,bfc01914 <inst_error>
bfc00854:	00000000 	nop
bfc00858:	3c082e6b 	lui	t0,0x2e6b
bfc0085c:	3508fd75 	ori	t0,t0,0xfd75
bfc00860:	01000011 	mthi	t0
bfc00864:	00008010 	mfhi	s0
bfc00868:	3c122e6b 	lui	s2,0x2e6b
bfc0086c:	3652fd75 	ori	s2,s2,0xfd75
bfc00870:	16120428 	bne	s0,s2,bfc01914 <inst_error>
bfc00874:	00000000 	nop
bfc00878:	3c083130 	lui	t0,0x3130
bfc0087c:	3508e930 	ori	t0,t0,0xe930
bfc00880:	01000011 	mthi	t0
bfc00884:	00008010 	mfhi	s0
bfc00888:	3c123130 	lui	s2,0x3130
bfc0088c:	3652e930 	ori	s2,s2,0xe930
bfc00890:	16120420 	bne	s0,s2,bfc01914 <inst_error>
bfc00894:	00000000 	nop
bfc00898:	3c08ffca 	lui	t0,0xffca
bfc0089c:	350805f8 	ori	t0,t0,0x5f8
bfc008a0:	01000011 	mthi	t0
bfc008a4:	00008010 	mfhi	s0
bfc008a8:	3c12ffca 	lui	s2,0xffca
bfc008ac:	365205f8 	ori	s2,s2,0x5f8
bfc008b0:	16120418 	bne	s0,s2,bfc01914 <inst_error>
bfc008b4:	00000000 	nop
bfc008b8:	3c081026 	lui	t0,0x1026
bfc008bc:	350893fa 	ori	t0,t0,0x93fa
bfc008c0:	01000011 	mthi	t0
bfc008c4:	00008010 	mfhi	s0
bfc008c8:	3c121026 	lui	s2,0x1026
bfc008cc:	365293fa 	ori	s2,s2,0x93fa
bfc008d0:	16120410 	bne	s0,s2,bfc01914 <inst_error>
bfc008d4:	00000000 	nop
bfc008d8:	3c08d3fe 	lui	t0,0xd3fe
bfc008dc:	35083f14 	ori	t0,t0,0x3f14
bfc008e0:	01000011 	mthi	t0
bfc008e4:	00008010 	mfhi	s0
bfc008e8:	3c12d3fe 	lui	s2,0xd3fe
bfc008ec:	36523f14 	ori	s2,s2,0x3f14
bfc008f0:	16120408 	bne	s0,s2,bfc01914 <inst_error>
bfc008f4:	00000000 	nop
bfc008f8:	3c088b1d 	lui	t0,0x8b1d
bfc008fc:	3508e170 	ori	t0,t0,0xe170
bfc00900:	01000011 	mthi	t0
bfc00904:	00008010 	mfhi	s0
bfc00908:	3c128b1d 	lui	s2,0x8b1d
bfc0090c:	3652e170 	ori	s2,s2,0xe170
bfc00910:	16120400 	bne	s0,s2,bfc01914 <inst_error>
bfc00914:	00000000 	nop
bfc00918:	3c08956a 	lui	t0,0x956a
bfc0091c:	3508769b 	ori	t0,t0,0x769b
bfc00920:	01000011 	mthi	t0
bfc00924:	00008010 	mfhi	s0
bfc00928:	3c12956a 	lui	s2,0x956a
bfc0092c:	3652769b 	ori	s2,s2,0x769b
bfc00930:	161203f8 	bne	s0,s2,bfc01914 <inst_error>
bfc00934:	00000000 	nop
bfc00938:	3c08ace6 	lui	t0,0xace6
bfc0093c:	35086bcc 	ori	t0,t0,0x6bcc
bfc00940:	01000011 	mthi	t0
bfc00944:	00008010 	mfhi	s0
bfc00948:	3c12ace6 	lui	s2,0xace6
bfc0094c:	36526bcc 	ori	s2,s2,0x6bcc
bfc00950:	161203f0 	bne	s0,s2,bfc01914 <inst_error>
bfc00954:	00000000 	nop
bfc00958:	3c08d0fd 	lui	t0,0xd0fd
bfc0095c:	350819f0 	ori	t0,t0,0x19f0
bfc00960:	01000011 	mthi	t0
bfc00964:	00008010 	mfhi	s0
bfc00968:	3c12d0fd 	lui	s2,0xd0fd
bfc0096c:	365219f0 	ori	s2,s2,0x19f0
bfc00970:	161203e8 	bne	s0,s2,bfc01914 <inst_error>
bfc00974:	00000000 	nop
bfc00978:	3c08ed13 	lui	t0,0xed13
bfc0097c:	3508df18 	ori	t0,t0,0xdf18
bfc00980:	01000011 	mthi	t0
bfc00984:	00008010 	mfhi	s0
bfc00988:	3c12ed13 	lui	s2,0xed13
bfc0098c:	3652df18 	ori	s2,s2,0xdf18
bfc00990:	161203e0 	bne	s0,s2,bfc01914 <inst_error>
bfc00994:	00000000 	nop
bfc00998:	3c08a1ba 	lui	t0,0xa1ba
bfc0099c:	3508d7a6 	ori	t0,t0,0xd7a6
bfc009a0:	01000011 	mthi	t0
bfc009a4:	00008010 	mfhi	s0
bfc009a8:	3c12a1ba 	lui	s2,0xa1ba
bfc009ac:	3652d7a6 	ori	s2,s2,0xd7a6
bfc009b0:	161203d8 	bne	s0,s2,bfc01914 <inst_error>
bfc009b4:	00000000 	nop
bfc009b8:	3c082ad7 	lui	t0,0x2ad7
bfc009bc:	350814b0 	ori	t0,t0,0x14b0
bfc009c0:	01000011 	mthi	t0
bfc009c4:	00008010 	mfhi	s0
bfc009c8:	3c122ad7 	lui	s2,0x2ad7
bfc009cc:	365214b0 	ori	s2,s2,0x14b0
bfc009d0:	161203d0 	bne	s0,s2,bfc01914 <inst_error>
bfc009d4:	00000000 	nop
bfc009d8:	3c081417 	lui	t0,0x1417
bfc009dc:	35082b70 	ori	t0,t0,0x2b70
bfc009e0:	01000011 	mthi	t0
bfc009e4:	00008010 	mfhi	s0
bfc009e8:	3c121417 	lui	s2,0x1417
bfc009ec:	36522b70 	ori	s2,s2,0x2b70
bfc009f0:	161203c8 	bne	s0,s2,bfc01914 <inst_error>
bfc009f4:	00000000 	nop
bfc009f8:	3c087cff 	lui	t0,0x7cff
bfc009fc:	35084e80 	ori	t0,t0,0x4e80
bfc00a00:	01000011 	mthi	t0
bfc00a04:	00008010 	mfhi	s0
bfc00a08:	3c127cff 	lui	s2,0x7cff
bfc00a0c:	36524e80 	ori	s2,s2,0x4e80
bfc00a10:	161203c0 	bne	s0,s2,bfc01914 <inst_error>
bfc00a14:	00000000 	nop
bfc00a18:	3c08171f 	lui	t0,0x171f
bfc00a1c:	350865d8 	ori	t0,t0,0x65d8
bfc00a20:	01000011 	mthi	t0
bfc00a24:	00008010 	mfhi	s0
bfc00a28:	3c12171f 	lui	s2,0x171f
bfc00a2c:	365265d8 	ori	s2,s2,0x65d8
bfc00a30:	161203b8 	bne	s0,s2,bfc01914 <inst_error>
bfc00a34:	00000000 	nop
bfc00a38:	3c08cb7c 	lui	t0,0xcb7c
bfc00a3c:	35086c00 	ori	t0,t0,0x6c00
bfc00a40:	01000011 	mthi	t0
bfc00a44:	00008010 	mfhi	s0
bfc00a48:	3c12cb7c 	lui	s2,0xcb7c
bfc00a4c:	36526c00 	ori	s2,s2,0x6c00
bfc00a50:	161203b0 	bne	s0,s2,bfc01914 <inst_error>
bfc00a54:	00000000 	nop
bfc00a58:	3c089d1b 	lui	t0,0x9d1b
bfc00a5c:	35085482 	ori	t0,t0,0x5482
bfc00a60:	01000011 	mthi	t0
bfc00a64:	00008010 	mfhi	s0
bfc00a68:	3c129d1b 	lui	s2,0x9d1b
bfc00a6c:	36525482 	ori	s2,s2,0x5482
bfc00a70:	161203a8 	bne	s0,s2,bfc01914 <inst_error>
bfc00a74:	00000000 	nop
bfc00a78:	3c081445 	lui	t0,0x1445
bfc00a7c:	3508c71c 	ori	t0,t0,0xc71c
bfc00a80:	01000011 	mthi	t0
bfc00a84:	00008010 	mfhi	s0
bfc00a88:	3c121445 	lui	s2,0x1445
bfc00a8c:	3652c71c 	ori	s2,s2,0xc71c
bfc00a90:	161203a0 	bne	s0,s2,bfc01914 <inst_error>
bfc00a94:	00000000 	nop
bfc00a98:	3c080961 	lui	t0,0x961
bfc00a9c:	35080836 	ori	t0,t0,0x836
bfc00aa0:	01000011 	mthi	t0
bfc00aa4:	00008010 	mfhi	s0
bfc00aa8:	3c120961 	lui	s2,0x961
bfc00aac:	36520836 	ori	s2,s2,0x836
bfc00ab0:	16120398 	bne	s0,s2,bfc01914 <inst_error>
bfc00ab4:	00000000 	nop
bfc00ab8:	3c087815 	lui	t0,0x7815
bfc00abc:	3508eb60 	ori	t0,t0,0xeb60
bfc00ac0:	01000011 	mthi	t0
bfc00ac4:	00008010 	mfhi	s0
bfc00ac8:	3c127815 	lui	s2,0x7815
bfc00acc:	3652eb60 	ori	s2,s2,0xeb60
bfc00ad0:	16120390 	bne	s0,s2,bfc01914 <inst_error>
bfc00ad4:	00000000 	nop
bfc00ad8:	3c0870fa 	lui	t0,0x70fa
bfc00adc:	35082370 	ori	t0,t0,0x2370
bfc00ae0:	01000011 	mthi	t0
bfc00ae4:	00008010 	mfhi	s0
bfc00ae8:	3c1270fa 	lui	s2,0x70fa
bfc00aec:	36522370 	ori	s2,s2,0x2370
bfc00af0:	16120388 	bne	s0,s2,bfc01914 <inst_error>
bfc00af4:	00000000 	nop
bfc00af8:	3c089130 	lui	t0,0x9130
bfc00afc:	35084650 	ori	t0,t0,0x4650
bfc00b00:	01000011 	mthi	t0
bfc00b04:	00008010 	mfhi	s0
bfc00b08:	3c129130 	lui	s2,0x9130
bfc00b0c:	36524650 	ori	s2,s2,0x4650
bfc00b10:	16120380 	bne	s0,s2,bfc01914 <inst_error>
bfc00b14:	00000000 	nop
bfc00b18:	3c080182 	lui	t0,0x182
bfc00b1c:	3508aca8 	ori	t0,t0,0xaca8
bfc00b20:	01000011 	mthi	t0
bfc00b24:	00008010 	mfhi	s0
bfc00b28:	3c120182 	lui	s2,0x182
bfc00b2c:	3652aca8 	ori	s2,s2,0xaca8
bfc00b30:	16120378 	bne	s0,s2,bfc01914 <inst_error>
bfc00b34:	00000000 	nop
bfc00b38:	3c08ac51 	lui	t0,0xac51
bfc00b3c:	35089e50 	ori	t0,t0,0x9e50
bfc00b40:	01000011 	mthi	t0
bfc00b44:	00008010 	mfhi	s0
bfc00b48:	3c12ac51 	lui	s2,0xac51
bfc00b4c:	36529e50 	ori	s2,s2,0x9e50
bfc00b50:	16120370 	bne	s0,s2,bfc01914 <inst_error>
bfc00b54:	00000000 	nop
bfc00b58:	3c08f2b1 	lui	t0,0xf2b1
bfc00b5c:	35088ec0 	ori	t0,t0,0x8ec0
bfc00b60:	01000011 	mthi	t0
bfc00b64:	00008010 	mfhi	s0
bfc00b68:	3c12f2b1 	lui	s2,0xf2b1
bfc00b6c:	36528ec0 	ori	s2,s2,0x8ec0
bfc00b70:	16120368 	bne	s0,s2,bfc01914 <inst_error>
bfc00b74:	00000000 	nop
bfc00b78:	3c08b2d1 	lui	t0,0xb2d1
bfc00b7c:	35087089 	ori	t0,t0,0x7089
bfc00b80:	01000011 	mthi	t0
bfc00b84:	00008010 	mfhi	s0
bfc00b88:	3c12b2d1 	lui	s2,0xb2d1
bfc00b8c:	36527089 	ori	s2,s2,0x7089
bfc00b90:	16120360 	bne	s0,s2,bfc01914 <inst_error>
bfc00b94:	00000000 	nop
bfc00b98:	3c08892a 	lui	t0,0x892a
bfc00b9c:	3508fd04 	ori	t0,t0,0xfd04
bfc00ba0:	01000011 	mthi	t0
bfc00ba4:	00008010 	mfhi	s0
bfc00ba8:	3c12892a 	lui	s2,0x892a
bfc00bac:	3652fd04 	ori	s2,s2,0xfd04
bfc00bb0:	16120358 	bne	s0,s2,bfc01914 <inst_error>
bfc00bb4:	00000000 	nop
bfc00bb8:	3c0879f9 	lui	t0,0x79f9
bfc00bbc:	35086348 	ori	t0,t0,0x6348
bfc00bc0:	01000011 	mthi	t0
bfc00bc4:	00008010 	mfhi	s0
bfc00bc8:	3c1279f9 	lui	s2,0x79f9
bfc00bcc:	36526348 	ori	s2,s2,0x6348
bfc00bd0:	16120350 	bne	s0,s2,bfc01914 <inst_error>
bfc00bd4:	00000000 	nop
bfc00bd8:	3c08e4ad 	lui	t0,0xe4ad
bfc00bdc:	35083ddd 	ori	t0,t0,0x3ddd
bfc00be0:	01000011 	mthi	t0
bfc00be4:	00008010 	mfhi	s0
bfc00be8:	3c12e4ad 	lui	s2,0xe4ad
bfc00bec:	36523ddd 	ori	s2,s2,0x3ddd
bfc00bf0:	16120348 	bne	s0,s2,bfc01914 <inst_error>
bfc00bf4:	00000000 	nop
bfc00bf8:	3c081508 	lui	t0,0x1508
bfc00bfc:	3508b690 	ori	t0,t0,0xb690
bfc00c00:	01000011 	mthi	t0
bfc00c04:	00008010 	mfhi	s0
bfc00c08:	3c121508 	lui	s2,0x1508
bfc00c0c:	3652b690 	ori	s2,s2,0xb690
bfc00c10:	16120340 	bne	s0,s2,bfc01914 <inst_error>
bfc00c14:	00000000 	nop
bfc00c18:	3c08dcae 	lui	t0,0xdcae
bfc00c1c:	35085c80 	ori	t0,t0,0x5c80
bfc00c20:	01000011 	mthi	t0
bfc00c24:	00008010 	mfhi	s0
bfc00c28:	3c12dcae 	lui	s2,0xdcae
bfc00c2c:	36525c80 	ori	s2,s2,0x5c80
bfc00c30:	16120338 	bne	s0,s2,bfc01914 <inst_error>
bfc00c34:	00000000 	nop
bfc00c38:	3c084d20 	lui	t0,0x4d20
bfc00c3c:	3508d118 	ori	t0,t0,0xd118
bfc00c40:	01000011 	mthi	t0
bfc00c44:	00008010 	mfhi	s0
bfc00c48:	3c124d20 	lui	s2,0x4d20
bfc00c4c:	3652d118 	ori	s2,s2,0xd118
bfc00c50:	16120330 	bne	s0,s2,bfc01914 <inst_error>
bfc00c54:	00000000 	nop
bfc00c58:	3c087c0d 	lui	t0,0x7c0d
bfc00c5c:	3508b120 	ori	t0,t0,0xb120
bfc00c60:	01000011 	mthi	t0
bfc00c64:	00008010 	mfhi	s0
bfc00c68:	3c127c0d 	lui	s2,0x7c0d
bfc00c6c:	3652b120 	ori	s2,s2,0xb120
bfc00c70:	16120328 	bne	s0,s2,bfc01914 <inst_error>
bfc00c74:	00000000 	nop
bfc00c78:	3c085064 	lui	t0,0x5064
bfc00c7c:	3508e560 	ori	t0,t0,0xe560
bfc00c80:	01000011 	mthi	t0
bfc00c84:	00008010 	mfhi	s0
bfc00c88:	3c125064 	lui	s2,0x5064
bfc00c8c:	3652e560 	ori	s2,s2,0xe560
bfc00c90:	16120320 	bne	s0,s2,bfc01914 <inst_error>
bfc00c94:	00000000 	nop
bfc00c98:	3c084c15 	lui	t0,0x4c15
bfc00c9c:	3508f2d5 	ori	t0,t0,0xf2d5
bfc00ca0:	01000011 	mthi	t0
bfc00ca4:	00008010 	mfhi	s0
bfc00ca8:	3c124c15 	lui	s2,0x4c15
bfc00cac:	3652f2d5 	ori	s2,s2,0xf2d5
bfc00cb0:	16120318 	bne	s0,s2,bfc01914 <inst_error>
bfc00cb4:	00000000 	nop
bfc00cb8:	3c08c46d 	lui	t0,0xc46d
bfc00cbc:	3508ac00 	ori	t0,t0,0xac00
bfc00cc0:	01000011 	mthi	t0
bfc00cc4:	00008010 	mfhi	s0
bfc00cc8:	3c12c46d 	lui	s2,0xc46d
bfc00ccc:	3652ac00 	ori	s2,s2,0xac00
bfc00cd0:	16120310 	bne	s0,s2,bfc01914 <inst_error>
bfc00cd4:	00000000 	nop
bfc00cd8:	3c0813bf 	lui	t0,0x13bf
bfc00cdc:	350878e0 	ori	t0,t0,0x78e0
bfc00ce0:	01000011 	mthi	t0
bfc00ce4:	00008010 	mfhi	s0
bfc00ce8:	3c1213bf 	lui	s2,0x13bf
bfc00cec:	365278e0 	ori	s2,s2,0x78e0
bfc00cf0:	16120308 	bne	s0,s2,bfc01914 <inst_error>
bfc00cf4:	00000000 	nop
bfc00cf8:	3c08801d 	lui	t0,0x801d
bfc00cfc:	3508a900 	ori	t0,t0,0xa900
bfc00d00:	01000011 	mthi	t0
bfc00d04:	00008010 	mfhi	s0
bfc00d08:	3c12801d 	lui	s2,0x801d
bfc00d0c:	3652a900 	ori	s2,s2,0xa900
bfc00d10:	16120300 	bne	s0,s2,bfc01914 <inst_error>
bfc00d14:	00000000 	nop
bfc00d18:	3c080461 	lui	t0,0x461
bfc00d1c:	35087750 	ori	t0,t0,0x7750
bfc00d20:	01000011 	mthi	t0
bfc00d24:	00008010 	mfhi	s0
bfc00d28:	3c120461 	lui	s2,0x461
bfc00d2c:	36527750 	ori	s2,s2,0x7750
bfc00d30:	161202f8 	bne	s0,s2,bfc01914 <inst_error>
bfc00d34:	00000000 	nop
bfc00d38:	3c08a564 	lui	t0,0xa564
bfc00d3c:	3508430b 	ori	t0,t0,0x430b
bfc00d40:	01000011 	mthi	t0
bfc00d44:	00008010 	mfhi	s0
bfc00d48:	3c12a564 	lui	s2,0xa564
bfc00d4c:	3652430b 	ori	s2,s2,0x430b
bfc00d50:	161202f0 	bne	s0,s2,bfc01914 <inst_error>
bfc00d54:	00000000 	nop
bfc00d58:	3c085666 	lui	t0,0x5666
bfc00d5c:	35082adc 	ori	t0,t0,0x2adc
bfc00d60:	01000011 	mthi	t0
bfc00d64:	00008010 	mfhi	s0
bfc00d68:	3c125666 	lui	s2,0x5666
bfc00d6c:	36522adc 	ori	s2,s2,0x2adc
bfc00d70:	161202e8 	bne	s0,s2,bfc01914 <inst_error>
bfc00d74:	00000000 	nop
bfc00d78:	3c085331 	lui	t0,0x5331
bfc00d7c:	35087267 	ori	t0,t0,0x7267
bfc00d80:	01000011 	mthi	t0
bfc00d84:	00008010 	mfhi	s0
bfc00d88:	3c125331 	lui	s2,0x5331
bfc00d8c:	36527267 	ori	s2,s2,0x7267
bfc00d90:	161202e0 	bne	s0,s2,bfc01914 <inst_error>
bfc00d94:	00000000 	nop
bfc00d98:	3c08dcc2 	lui	t0,0xdcc2
bfc00d9c:	3508f8d6 	ori	t0,t0,0xf8d6
bfc00da0:	01000011 	mthi	t0
bfc00da4:	00008010 	mfhi	s0
bfc00da8:	3c12dcc2 	lui	s2,0xdcc2
bfc00dac:	3652f8d6 	ori	s2,s2,0xf8d6
bfc00db0:	161202d8 	bne	s0,s2,bfc01914 <inst_error>
bfc00db4:	00000000 	nop
bfc00db8:	3c087f9b 	lui	t0,0x7f9b
bfc00dbc:	350808c0 	ori	t0,t0,0x8c0
bfc00dc0:	01000011 	mthi	t0
bfc00dc4:	00008010 	mfhi	s0
bfc00dc8:	3c127f9b 	lui	s2,0x7f9b
bfc00dcc:	365208c0 	ori	s2,s2,0x8c0
bfc00dd0:	161202d0 	bne	s0,s2,bfc01914 <inst_error>
bfc00dd4:	00000000 	nop
bfc00dd8:	3c082aea 	lui	t0,0x2aea
bfc00ddc:	3508842c 	ori	t0,t0,0x842c
bfc00de0:	01000011 	mthi	t0
bfc00de4:	00008010 	mfhi	s0
bfc00de8:	3c122aea 	lui	s2,0x2aea
bfc00dec:	3652842c 	ori	s2,s2,0x842c
bfc00df0:	161202c8 	bne	s0,s2,bfc01914 <inst_error>
bfc00df4:	00000000 	nop
bfc00df8:	3c082b3e 	lui	t0,0x2b3e
bfc00dfc:	35085458 	ori	t0,t0,0x5458
bfc00e00:	01000011 	mthi	t0
bfc00e04:	00008010 	mfhi	s0
bfc00e08:	3c122b3e 	lui	s2,0x2b3e
bfc00e0c:	36525458 	ori	s2,s2,0x5458
bfc00e10:	161202c0 	bne	s0,s2,bfc01914 <inst_error>
bfc00e14:	00000000 	nop
bfc00e18:	3c08df41 	lui	t0,0xdf41
bfc00e1c:	35080fc0 	ori	t0,t0,0xfc0
bfc00e20:	01000011 	mthi	t0
bfc00e24:	00008010 	mfhi	s0
bfc00e28:	3c12df41 	lui	s2,0xdf41
bfc00e2c:	36520fc0 	ori	s2,s2,0xfc0
bfc00e30:	161202b8 	bne	s0,s2,bfc01914 <inst_error>
bfc00e34:	00000000 	nop
bfc00e38:	3c08c20e 	lui	t0,0xc20e
bfc00e3c:	35085b9c 	ori	t0,t0,0x5b9c
bfc00e40:	01000011 	mthi	t0
bfc00e44:	00008010 	mfhi	s0
bfc00e48:	3c12c20e 	lui	s2,0xc20e
bfc00e4c:	36525b9c 	ori	s2,s2,0x5b9c
bfc00e50:	161202b0 	bne	s0,s2,bfc01914 <inst_error>
bfc00e54:	00000000 	nop
bfc00e58:	3c0869b5 	lui	t0,0x69b5
bfc00e5c:	3508f0d6 	ori	t0,t0,0xf0d6
bfc00e60:	01000011 	mthi	t0
bfc00e64:	00008010 	mfhi	s0
bfc00e68:	3c1269b5 	lui	s2,0x69b5
bfc00e6c:	3652f0d6 	ori	s2,s2,0xf0d6
bfc00e70:	161202a8 	bne	s0,s2,bfc01914 <inst_error>
bfc00e74:	00000000 	nop
bfc00e78:	3c082bfd 	lui	t0,0x2bfd
bfc00e7c:	350857a6 	ori	t0,t0,0x57a6
bfc00e80:	01000011 	mthi	t0
bfc00e84:	00008010 	mfhi	s0
bfc00e88:	3c122bfd 	lui	s2,0x2bfd
bfc00e8c:	365257a6 	ori	s2,s2,0x57a6
bfc00e90:	161202a0 	bne	s0,s2,bfc01914 <inst_error>
bfc00e94:	00000000 	nop
bfc00e98:	3c08a9bc 	lui	t0,0xa9bc
bfc00e9c:	35081acc 	ori	t0,t0,0x1acc
bfc00ea0:	01000011 	mthi	t0
bfc00ea4:	00008010 	mfhi	s0
bfc00ea8:	3c12a9bc 	lui	s2,0xa9bc
bfc00eac:	36521acc 	ori	s2,s2,0x1acc
bfc00eb0:	16120298 	bne	s0,s2,bfc01914 <inst_error>
bfc00eb4:	00000000 	nop
bfc00eb8:	3c08e8cd 	lui	t0,0xe8cd
bfc00ebc:	3508c640 	ori	t0,t0,0xc640
bfc00ec0:	01000011 	mthi	t0
bfc00ec4:	00008010 	mfhi	s0
bfc00ec8:	3c12e8cd 	lui	s2,0xe8cd
bfc00ecc:	3652c640 	ori	s2,s2,0xc640
bfc00ed0:	16120290 	bne	s0,s2,bfc01914 <inst_error>
bfc00ed4:	00000000 	nop
bfc00ed8:	3c080ee2 	lui	t0,0xee2
bfc00edc:	3508a818 	ori	t0,t0,0xa818
bfc00ee0:	01000011 	mthi	t0
bfc00ee4:	00008010 	mfhi	s0
bfc00ee8:	3c120ee2 	lui	s2,0xee2
bfc00eec:	3652a818 	ori	s2,s2,0xa818
bfc00ef0:	16120288 	bne	s0,s2,bfc01914 <inst_error>
bfc00ef4:	00000000 	nop
bfc00ef8:	3c08cb71 	lui	t0,0xcb71
bfc00efc:	3508a800 	ori	t0,t0,0xa800
bfc00f00:	01000011 	mthi	t0
bfc00f04:	00008010 	mfhi	s0
bfc00f08:	3c12cb71 	lui	s2,0xcb71
bfc00f0c:	3652a800 	ori	s2,s2,0xa800
bfc00f10:	16120280 	bne	s0,s2,bfc01914 <inst_error>
bfc00f14:	00000000 	nop
bfc00f18:	3c0809ed 	lui	t0,0x9ed
bfc00f1c:	3508f428 	ori	t0,t0,0xf428
bfc00f20:	01000011 	mthi	t0
bfc00f24:	00008010 	mfhi	s0
bfc00f28:	3c1209ed 	lui	s2,0x9ed
bfc00f2c:	3652f428 	ori	s2,s2,0xf428
bfc00f30:	16120278 	bne	s0,s2,bfc01914 <inst_error>
bfc00f34:	00000000 	nop
bfc00f38:	3c08ed82 	lui	t0,0xed82
bfc00f3c:	35083800 	ori	t0,t0,0x3800
bfc00f40:	01000011 	mthi	t0
bfc00f44:	00008010 	mfhi	s0
bfc00f48:	3c12ed82 	lui	s2,0xed82
bfc00f4c:	36523800 	ori	s2,s2,0x3800
bfc00f50:	16120270 	bne	s0,s2,bfc01914 <inst_error>
bfc00f54:	00000000 	nop
bfc00f58:	3c08d93a 	lui	t0,0xd93a
bfc00f5c:	3508b3f8 	ori	t0,t0,0xb3f8
bfc00f60:	01000011 	mthi	t0
bfc00f64:	00008010 	mfhi	s0
bfc00f68:	3c12d93a 	lui	s2,0xd93a
bfc00f6c:	3652b3f8 	ori	s2,s2,0xb3f8
bfc00f70:	16120268 	bne	s0,s2,bfc01914 <inst_error>
bfc00f74:	00000000 	nop
bfc00f78:	3c08afb6 	lui	t0,0xafb6
bfc00f7c:	3508e9c0 	ori	t0,t0,0xe9c0
bfc00f80:	01000011 	mthi	t0
bfc00f84:	00008010 	mfhi	s0
bfc00f88:	3c12afb6 	lui	s2,0xafb6
bfc00f8c:	3652e9c0 	ori	s2,s2,0xe9c0
bfc00f90:	16120260 	bne	s0,s2,bfc01914 <inst_error>
bfc00f94:	00000000 	nop
bfc00f98:	3c08a293 	lui	t0,0xa293
bfc00f9c:	35087eb0 	ori	t0,t0,0x7eb0
bfc00fa0:	01000011 	mthi	t0
bfc00fa4:	00008010 	mfhi	s0
bfc00fa8:	3c12a293 	lui	s2,0xa293
bfc00fac:	36527eb0 	ori	s2,s2,0x7eb0
bfc00fb0:	16120258 	bne	s0,s2,bfc01914 <inst_error>
bfc00fb4:	00000000 	nop
bfc00fb8:	3c08c36b 	lui	t0,0xc36b
bfc00fbc:	35084870 	ori	t0,t0,0x4870
bfc00fc0:	01000011 	mthi	t0
bfc00fc4:	00008010 	mfhi	s0
bfc00fc8:	3c12c36b 	lui	s2,0xc36b
bfc00fcc:	36524870 	ori	s2,s2,0x4870
bfc00fd0:	16120250 	bne	s0,s2,bfc01914 <inst_error>
bfc00fd4:	00000000 	nop
bfc00fd8:	3c08ea86 	lui	t0,0xea86
bfc00fdc:	350833d0 	ori	t0,t0,0x33d0
bfc00fe0:	01000011 	mthi	t0
bfc00fe4:	00008010 	mfhi	s0
bfc00fe8:	3c12ea86 	lui	s2,0xea86
bfc00fec:	365233d0 	ori	s2,s2,0x33d0
bfc00ff0:	16120248 	bne	s0,s2,bfc01914 <inst_error>
bfc00ff4:	00000000 	nop
bfc00ff8:	3c084f81 	lui	t0,0x4f81
bfc00ffc:	35084438 	ori	t0,t0,0x4438
bfc01000:	01000011 	mthi	t0
bfc01004:	00008010 	mfhi	s0
bfc01008:	3c124f81 	lui	s2,0x4f81
bfc0100c:	36524438 	ori	s2,s2,0x4438
bfc01010:	16120240 	bne	s0,s2,bfc01914 <inst_error>
bfc01014:	00000000 	nop
bfc01018:	3c087ef5 	lui	t0,0x7ef5
bfc0101c:	350898e8 	ori	t0,t0,0x98e8
bfc01020:	01000011 	mthi	t0
bfc01024:	00008010 	mfhi	s0
bfc01028:	3c127ef5 	lui	s2,0x7ef5
bfc0102c:	365298e8 	ori	s2,s2,0x98e8
bfc01030:	16120238 	bne	s0,s2,bfc01914 <inst_error>
bfc01034:	00000000 	nop
bfc01038:	3c081c2d 	lui	t0,0x1c2d
bfc0103c:	3508e7d0 	ori	t0,t0,0xe7d0
bfc01040:	01000011 	mthi	t0
bfc01044:	00008010 	mfhi	s0
bfc01048:	3c121c2d 	lui	s2,0x1c2d
bfc0104c:	3652e7d0 	ori	s2,s2,0xe7d0
bfc01050:	16120230 	bne	s0,s2,bfc01914 <inst_error>
bfc01054:	00000000 	nop
bfc01058:	3c08ccfd 	lui	t0,0xccfd
bfc0105c:	3508fbc9 	ori	t0,t0,0xfbc9
bfc01060:	01000011 	mthi	t0
bfc01064:	00008010 	mfhi	s0
bfc01068:	3c12ccfd 	lui	s2,0xccfd
bfc0106c:	3652fbc9 	ori	s2,s2,0xfbc9
bfc01070:	16120228 	bne	s0,s2,bfc01914 <inst_error>
bfc01074:	00000000 	nop
bfc01078:	3c08d9d2 	lui	t0,0xd9d2
bfc0107c:	3508d81a 	ori	t0,t0,0xd81a
bfc01080:	01000011 	mthi	t0
bfc01084:	00008010 	mfhi	s0
bfc01088:	3c12d9d2 	lui	s2,0xd9d2
bfc0108c:	3652d81a 	ori	s2,s2,0xd81a
bfc01090:	16120220 	bne	s0,s2,bfc01914 <inst_error>
bfc01094:	00000000 	nop
bfc01098:	3c0821fa 	lui	t0,0x21fa
bfc0109c:	3508397c 	ori	t0,t0,0x397c
bfc010a0:	01000011 	mthi	t0
bfc010a4:	00008010 	mfhi	s0
bfc010a8:	3c1221fa 	lui	s2,0x21fa
bfc010ac:	3652397c 	ori	s2,s2,0x397c
bfc010b0:	16120218 	bne	s0,s2,bfc01914 <inst_error>
bfc010b4:	00000000 	nop
bfc010b8:	3c083d1c 	lui	t0,0x3d1c
bfc010bc:	3508f92c 	ori	t0,t0,0xf92c
bfc010c0:	01000011 	mthi	t0
bfc010c4:	00008010 	mfhi	s0
bfc010c8:	3c123d1c 	lui	s2,0x3d1c
bfc010cc:	3652f92c 	ori	s2,s2,0xf92c
bfc010d0:	16120210 	bne	s0,s2,bfc01914 <inst_error>
bfc010d4:	00000000 	nop
bfc010d8:	3c08137a 	lui	t0,0x137a
bfc010dc:	3508f739 	ori	t0,t0,0xf739
bfc010e0:	01000011 	mthi	t0
bfc010e4:	00008010 	mfhi	s0
bfc010e8:	3c12137a 	lui	s2,0x137a
bfc010ec:	3652f739 	ori	s2,s2,0xf739
bfc010f0:	16120208 	bne	s0,s2,bfc01914 <inst_error>
bfc010f4:	00000000 	nop
bfc010f8:	3c089d32 	lui	t0,0x9d32
bfc010fc:	35085d28 	ori	t0,t0,0x5d28
bfc01100:	01000011 	mthi	t0
bfc01104:	00008010 	mfhi	s0
bfc01108:	3c129d32 	lui	s2,0x9d32
bfc0110c:	36525d28 	ori	s2,s2,0x5d28
bfc01110:	16120200 	bne	s0,s2,bfc01914 <inst_error>
bfc01114:	00000000 	nop
bfc01118:	3c088bc7 	lui	t0,0x8bc7
bfc0111c:	350884f8 	ori	t0,t0,0x84f8
bfc01120:	01000011 	mthi	t0
bfc01124:	00008010 	mfhi	s0
bfc01128:	3c128bc7 	lui	s2,0x8bc7
bfc0112c:	365284f8 	ori	s2,s2,0x84f8
bfc01130:	161201f8 	bne	s0,s2,bfc01914 <inst_error>
bfc01134:	00000000 	nop
bfc01138:	3c08267e 	lui	t0,0x267e
bfc0113c:	3508ae80 	ori	t0,t0,0xae80
bfc01140:	01000011 	mthi	t0
bfc01144:	00008010 	mfhi	s0
bfc01148:	3c12267e 	lui	s2,0x267e
bfc0114c:	3652ae80 	ori	s2,s2,0xae80
bfc01150:	161201f0 	bne	s0,s2,bfc01914 <inst_error>
bfc01154:	00000000 	nop
bfc01158:	3c08abfa 	lui	t0,0xabfa
bfc0115c:	3508c0ca 	ori	t0,t0,0xc0ca
bfc01160:	01000011 	mthi	t0
bfc01164:	00008010 	mfhi	s0
bfc01168:	3c12abfa 	lui	s2,0xabfa
bfc0116c:	3652c0ca 	ori	s2,s2,0xc0ca
bfc01170:	161201e8 	bne	s0,s2,bfc01914 <inst_error>
bfc01174:	00000000 	nop
bfc01178:	3c087a28 	lui	t0,0x7a28
bfc0117c:	35086b6c 	ori	t0,t0,0x6b6c
bfc01180:	01000011 	mthi	t0
bfc01184:	00008010 	mfhi	s0
bfc01188:	3c127a28 	lui	s2,0x7a28
bfc0118c:	36526b6c 	ori	s2,s2,0x6b6c
bfc01190:	161201e0 	bne	s0,s2,bfc01914 <inst_error>
bfc01194:	00000000 	nop
bfc01198:	3c08741a 	lui	t0,0x741a
bfc0119c:	3508c718 	ori	t0,t0,0xc718
bfc011a0:	01000011 	mthi	t0
bfc011a4:	00008010 	mfhi	s0
bfc011a8:	3c12741a 	lui	s2,0x741a
bfc011ac:	3652c718 	ori	s2,s2,0xc718
bfc011b0:	161201d8 	bne	s0,s2,bfc01914 <inst_error>
bfc011b4:	00000000 	nop
bfc011b8:	3c080a0d 	lui	t0,0xa0d
bfc011bc:	35084930 	ori	t0,t0,0x4930
bfc011c0:	01000011 	mthi	t0
bfc011c4:	00008010 	mfhi	s0
bfc011c8:	3c120a0d 	lui	s2,0xa0d
bfc011cc:	36524930 	ori	s2,s2,0x4930
bfc011d0:	161201d0 	bne	s0,s2,bfc01914 <inst_error>
bfc011d4:	00000000 	nop
bfc011d8:	3c08c86e 	lui	t0,0xc86e
bfc011dc:	3508c474 	ori	t0,t0,0xc474
bfc011e0:	01000011 	mthi	t0
bfc011e4:	00008010 	mfhi	s0
bfc011e8:	3c12c86e 	lui	s2,0xc86e
bfc011ec:	3652c474 	ori	s2,s2,0xc474
bfc011f0:	161201c8 	bne	s0,s2,bfc01914 <inst_error>
bfc011f4:	00000000 	nop
bfc011f8:	3c0807fe 	lui	t0,0x7fe
bfc011fc:	3508cfd8 	ori	t0,t0,0xcfd8
bfc01200:	01000011 	mthi	t0
bfc01204:	00008010 	mfhi	s0
bfc01208:	3c1207fe 	lui	s2,0x7fe
bfc0120c:	3652cfd8 	ori	s2,s2,0xcfd8
bfc01210:	161201c0 	bne	s0,s2,bfc01914 <inst_error>
bfc01214:	00000000 	nop
bfc01218:	3c089090 	lui	t0,0x9090
bfc0121c:	3508280e 	ori	t0,t0,0x280e
bfc01220:	01000011 	mthi	t0
bfc01224:	00008010 	mfhi	s0
bfc01228:	3c129090 	lui	s2,0x9090
bfc0122c:	3652280e 	ori	s2,s2,0x280e
bfc01230:	161201b8 	bne	s0,s2,bfc01914 <inst_error>
bfc01234:	00000000 	nop
bfc01238:	3c08cf1d 	lui	t0,0xcf1d
bfc0123c:	35083292 	ori	t0,t0,0x3292
bfc01240:	01000011 	mthi	t0
bfc01244:	00008010 	mfhi	s0
bfc01248:	3c12cf1d 	lui	s2,0xcf1d
bfc0124c:	36523292 	ori	s2,s2,0x3292
bfc01250:	161201b0 	bne	s0,s2,bfc01914 <inst_error>
bfc01254:	00000000 	nop
bfc01258:	3c08fd88 	lui	t0,0xfd88
bfc0125c:	3508b12c 	ori	t0,t0,0xb12c
bfc01260:	01000011 	mthi	t0
bfc01264:	00008010 	mfhi	s0
bfc01268:	3c12fd88 	lui	s2,0xfd88
bfc0126c:	3652b12c 	ori	s2,s2,0xb12c
bfc01270:	161201a8 	bne	s0,s2,bfc01914 <inst_error>
bfc01274:	00000000 	nop
bfc01278:	3c08dfef 	lui	t0,0xdfef
bfc0127c:	35080d77 	ori	t0,t0,0xd77
bfc01280:	01000011 	mthi	t0
bfc01284:	00008010 	mfhi	s0
bfc01288:	3c12dfef 	lui	s2,0xdfef
bfc0128c:	36520d77 	ori	s2,s2,0xd77
bfc01290:	161201a0 	bne	s0,s2,bfc01914 <inst_error>
bfc01294:	00000000 	nop
bfc01298:	3c08f0e0 	lui	t0,0xf0e0
bfc0129c:	3508e745 	ori	t0,t0,0xe745
bfc012a0:	01000011 	mthi	t0
bfc012a4:	00008010 	mfhi	s0
bfc012a8:	3c12f0e0 	lui	s2,0xf0e0
bfc012ac:	3652e745 	ori	s2,s2,0xe745
bfc012b0:	16120198 	bne	s0,s2,bfc01914 <inst_error>
bfc012b4:	00000000 	nop
bfc012b8:	3c0839cc 	lui	t0,0x39cc
bfc012bc:	3508fe78 	ori	t0,t0,0xfe78
bfc012c0:	01000011 	mthi	t0
bfc012c4:	00008010 	mfhi	s0
bfc012c8:	3c1239cc 	lui	s2,0x39cc
bfc012cc:	3652fe78 	ori	s2,s2,0xfe78
bfc012d0:	16120190 	bne	s0,s2,bfc01914 <inst_error>
bfc012d4:	00000000 	nop
bfc012d8:	3c08f5eb 	lui	t0,0xf5eb
bfc012dc:	3508f940 	ori	t0,t0,0xf940
bfc012e0:	01000011 	mthi	t0
bfc012e4:	00008010 	mfhi	s0
bfc012e8:	3c12f5eb 	lui	s2,0xf5eb
bfc012ec:	3652f940 	ori	s2,s2,0xf940
bfc012f0:	16120188 	bne	s0,s2,bfc01914 <inst_error>
bfc012f4:	00000000 	nop
bfc012f8:	3c08e561 	lui	t0,0xe561
bfc012fc:	35083120 	ori	t0,t0,0x3120
bfc01300:	01000011 	mthi	t0
bfc01304:	00008010 	mfhi	s0
bfc01308:	3c12e561 	lui	s2,0xe561
bfc0130c:	36523120 	ori	s2,s2,0x3120
bfc01310:	16120180 	bne	s0,s2,bfc01914 <inst_error>
bfc01314:	00000000 	nop
bfc01318:	3c085a17 	lui	t0,0x5a17
bfc0131c:	3508d5e0 	ori	t0,t0,0xd5e0
bfc01320:	01000011 	mthi	t0
bfc01324:	00008010 	mfhi	s0
bfc01328:	3c125a17 	lui	s2,0x5a17
bfc0132c:	3652d5e0 	ori	s2,s2,0xd5e0
bfc01330:	16120178 	bne	s0,s2,bfc01914 <inst_error>
bfc01334:	00000000 	nop
bfc01338:	3c08c0a5 	lui	t0,0xc0a5
bfc0133c:	3508ebf0 	ori	t0,t0,0xebf0
bfc01340:	01000011 	mthi	t0
bfc01344:	00008010 	mfhi	s0
bfc01348:	3c12c0a5 	lui	s2,0xc0a5
bfc0134c:	3652ebf0 	ori	s2,s2,0xebf0
bfc01350:	16120170 	bne	s0,s2,bfc01914 <inst_error>
bfc01354:	00000000 	nop
bfc01358:	3c0821ad 	lui	t0,0x21ad
bfc0135c:	35081844 	ori	t0,t0,0x1844
bfc01360:	01000011 	mthi	t0
bfc01364:	00008010 	mfhi	s0
bfc01368:	3c1221ad 	lui	s2,0x21ad
bfc0136c:	36521844 	ori	s2,s2,0x1844
bfc01370:	16120168 	bne	s0,s2,bfc01914 <inst_error>
bfc01374:	00000000 	nop
bfc01378:	3c08cafe 	lui	t0,0xcafe
bfc0137c:	3508e354 	ori	t0,t0,0xe354
bfc01380:	01000011 	mthi	t0
bfc01384:	00008010 	mfhi	s0
bfc01388:	3c12cafe 	lui	s2,0xcafe
bfc0138c:	3652e354 	ori	s2,s2,0xe354
bfc01390:	16120160 	bne	s0,s2,bfc01914 <inst_error>
bfc01394:	00000000 	nop
bfc01398:	3c08dba0 	lui	t0,0xdba0
bfc0139c:	3508c238 	ori	t0,t0,0xc238
bfc013a0:	01000011 	mthi	t0
bfc013a4:	00008010 	mfhi	s0
bfc013a8:	3c12dba0 	lui	s2,0xdba0
bfc013ac:	3652c238 	ori	s2,s2,0xc238
bfc013b0:	16120158 	bne	s0,s2,bfc01914 <inst_error>
bfc013b4:	00000000 	nop
bfc013b8:	3c0829c4 	lui	t0,0x29c4
bfc013bc:	35088260 	ori	t0,t0,0x8260
bfc013c0:	01000011 	mthi	t0
bfc013c4:	00008010 	mfhi	s0
bfc013c8:	3c1229c4 	lui	s2,0x29c4
bfc013cc:	36528260 	ori	s2,s2,0x8260
bfc013d0:	16120150 	bne	s0,s2,bfc01914 <inst_error>
bfc013d4:	00000000 	nop
bfc013d8:	3c0896a7 	lui	t0,0x96a7
bfc013dc:	350808b0 	ori	t0,t0,0x8b0
bfc013e0:	01000011 	mthi	t0
bfc013e4:	00008010 	mfhi	s0
bfc013e8:	3c1296a7 	lui	s2,0x96a7
bfc013ec:	365208b0 	ori	s2,s2,0x8b0
bfc013f0:	16120148 	bne	s0,s2,bfc01914 <inst_error>
bfc013f4:	00000000 	nop
bfc013f8:	3c086c76 	lui	t0,0x6c76
bfc013fc:	3508aaa0 	ori	t0,t0,0xaaa0
bfc01400:	01000011 	mthi	t0
bfc01404:	00008010 	mfhi	s0
bfc01408:	3c126c76 	lui	s2,0x6c76
bfc0140c:	3652aaa0 	ori	s2,s2,0xaaa0
bfc01410:	16120140 	bne	s0,s2,bfc01914 <inst_error>
bfc01414:	00000000 	nop
bfc01418:	3c081853 	lui	t0,0x1853
bfc0141c:	3508fe90 	ori	t0,t0,0xfe90
bfc01420:	01000011 	mthi	t0
bfc01424:	00008010 	mfhi	s0
bfc01428:	3c121853 	lui	s2,0x1853
bfc0142c:	3652fe90 	ori	s2,s2,0xfe90
bfc01430:	16120138 	bne	s0,s2,bfc01914 <inst_error>
bfc01434:	00000000 	nop
bfc01438:	3c08f2c8 	lui	t0,0xf2c8
bfc0143c:	35083a02 	ori	t0,t0,0x3a02
bfc01440:	01000011 	mthi	t0
bfc01444:	00008010 	mfhi	s0
bfc01448:	3c12f2c8 	lui	s2,0xf2c8
bfc0144c:	36523a02 	ori	s2,s2,0x3a02
bfc01450:	16120130 	bne	s0,s2,bfc01914 <inst_error>
bfc01454:	00000000 	nop
bfc01458:	3c0835be 	lui	t0,0x35be
bfc0145c:	35085d20 	ori	t0,t0,0x5d20
bfc01460:	01000011 	mthi	t0
bfc01464:	00008010 	mfhi	s0
bfc01468:	3c1235be 	lui	s2,0x35be
bfc0146c:	36525d20 	ori	s2,s2,0x5d20
bfc01470:	16120128 	bne	s0,s2,bfc01914 <inst_error>
bfc01474:	00000000 	nop
bfc01478:	3c08fa6a 	lui	t0,0xfa6a
bfc0147c:	35084e08 	ori	t0,t0,0x4e08
bfc01480:	01000011 	mthi	t0
bfc01484:	00008010 	mfhi	s0
bfc01488:	3c12fa6a 	lui	s2,0xfa6a
bfc0148c:	36524e08 	ori	s2,s2,0x4e08
bfc01490:	16120120 	bne	s0,s2,bfc01914 <inst_error>
bfc01494:	00000000 	nop
bfc01498:	3c08a823 	lui	t0,0xa823
bfc0149c:	35085ae0 	ori	t0,t0,0x5ae0
bfc014a0:	01000011 	mthi	t0
bfc014a4:	00008010 	mfhi	s0
bfc014a8:	3c12a823 	lui	s2,0xa823
bfc014ac:	36525ae0 	ori	s2,s2,0x5ae0
bfc014b0:	16120118 	bne	s0,s2,bfc01914 <inst_error>
bfc014b4:	00000000 	nop
bfc014b8:	3c0887ef 	lui	t0,0x87ef
bfc014bc:	350817a8 	ori	t0,t0,0x17a8
bfc014c0:	01000011 	mthi	t0
bfc014c4:	00008010 	mfhi	s0
bfc014c8:	3c1287ef 	lui	s2,0x87ef
bfc014cc:	365217a8 	ori	s2,s2,0x17a8
bfc014d0:	16120110 	bne	s0,s2,bfc01914 <inst_error>
bfc014d4:	00000000 	nop
bfc014d8:	3c08527e 	lui	t0,0x527e
bfc014dc:	35080b50 	ori	t0,t0,0xb50
bfc014e0:	01000011 	mthi	t0
bfc014e4:	00008010 	mfhi	s0
bfc014e8:	3c12527e 	lui	s2,0x527e
bfc014ec:	36520b50 	ori	s2,s2,0xb50
bfc014f0:	16120108 	bne	s0,s2,bfc01914 <inst_error>
bfc014f4:	00000000 	nop
bfc014f8:	3c088ee9 	lui	t0,0x8ee9
bfc014fc:	3508ce78 	ori	t0,t0,0xce78
bfc01500:	01000011 	mthi	t0
bfc01504:	00008010 	mfhi	s0
bfc01508:	3c128ee9 	lui	s2,0x8ee9
bfc0150c:	3652ce78 	ori	s2,s2,0xce78
bfc01510:	16120100 	bne	s0,s2,bfc01914 <inst_error>
bfc01514:	00000000 	nop
bfc01518:	3c08b1d6 	lui	t0,0xb1d6
bfc0151c:	350873f7 	ori	t0,t0,0x73f7
bfc01520:	01000011 	mthi	t0
bfc01524:	00008010 	mfhi	s0
bfc01528:	3c12b1d6 	lui	s2,0xb1d6
bfc0152c:	365273f7 	ori	s2,s2,0x73f7
bfc01530:	161200f8 	bne	s0,s2,bfc01914 <inst_error>
bfc01534:	00000000 	nop
bfc01538:	3c08d81e 	lui	t0,0xd81e
bfc0153c:	350841dc 	ori	t0,t0,0x41dc
bfc01540:	01000011 	mthi	t0
bfc01544:	00008010 	mfhi	s0
bfc01548:	3c12d81e 	lui	s2,0xd81e
bfc0154c:	365241dc 	ori	s2,s2,0x41dc
bfc01550:	161200f0 	bne	s0,s2,bfc01914 <inst_error>
bfc01554:	00000000 	nop
bfc01558:	3c0888b5 	lui	t0,0x88b5
bfc0155c:	35085ae8 	ori	t0,t0,0x5ae8
bfc01560:	01000011 	mthi	t0
bfc01564:	00008010 	mfhi	s0
bfc01568:	3c1288b5 	lui	s2,0x88b5
bfc0156c:	36525ae8 	ori	s2,s2,0x5ae8
bfc01570:	161200e8 	bne	s0,s2,bfc01914 <inst_error>
bfc01574:	00000000 	nop
bfc01578:	3c084a56 	lui	t0,0x4a56
bfc0157c:	35080fc8 	ori	t0,t0,0xfc8
bfc01580:	01000011 	mthi	t0
bfc01584:	00008010 	mfhi	s0
bfc01588:	3c124a56 	lui	s2,0x4a56
bfc0158c:	36520fc8 	ori	s2,s2,0xfc8
bfc01590:	161200e0 	bne	s0,s2,bfc01914 <inst_error>
bfc01594:	00000000 	nop
bfc01598:	3c085413 	lui	t0,0x5413
bfc0159c:	35088184 	ori	t0,t0,0x8184
bfc015a0:	01000011 	mthi	t0
bfc015a4:	00008010 	mfhi	s0
bfc015a8:	3c125413 	lui	s2,0x5413
bfc015ac:	36528184 	ori	s2,s2,0x8184
bfc015b0:	161200d8 	bne	s0,s2,bfc01914 <inst_error>
bfc015b4:	00000000 	nop
bfc015b8:	3c083fa8 	lui	t0,0x3fa8
bfc015bc:	3508e9fa 	ori	t0,t0,0xe9fa
bfc015c0:	01000011 	mthi	t0
bfc015c4:	00008010 	mfhi	s0
bfc015c8:	3c123fa8 	lui	s2,0x3fa8
bfc015cc:	3652e9fa 	ori	s2,s2,0xe9fa
bfc015d0:	161200d0 	bne	s0,s2,bfc01914 <inst_error>
bfc015d4:	00000000 	nop
bfc015d8:	3c086837 	lui	t0,0x6837
bfc015dc:	3508b9d0 	ori	t0,t0,0xb9d0
bfc015e0:	01000011 	mthi	t0
bfc015e4:	00008010 	mfhi	s0
bfc015e8:	3c126837 	lui	s2,0x6837
bfc015ec:	3652b9d0 	ori	s2,s2,0xb9d0
bfc015f0:	161200c8 	bne	s0,s2,bfc01914 <inst_error>
bfc015f4:	00000000 	nop
bfc015f8:	3c08962d 	lui	t0,0x962d
bfc015fc:	350837c0 	ori	t0,t0,0x37c0
bfc01600:	01000011 	mthi	t0
bfc01604:	00008010 	mfhi	s0
bfc01608:	3c12962d 	lui	s2,0x962d
bfc0160c:	365237c0 	ori	s2,s2,0x37c0
bfc01610:	161200c0 	bne	s0,s2,bfc01914 <inst_error>
bfc01614:	00000000 	nop
bfc01618:	3c083bf2 	lui	t0,0x3bf2
bfc0161c:	3508c876 	ori	t0,t0,0xc876
bfc01620:	01000011 	mthi	t0
bfc01624:	00008010 	mfhi	s0
bfc01628:	3c123bf2 	lui	s2,0x3bf2
bfc0162c:	3652c876 	ori	s2,s2,0xc876
bfc01630:	161200b8 	bne	s0,s2,bfc01914 <inst_error>
bfc01634:	00000000 	nop
bfc01638:	3c086fe3 	lui	t0,0x6fe3
bfc0163c:	35089b38 	ori	t0,t0,0x9b38
bfc01640:	01000011 	mthi	t0
bfc01644:	00008010 	mfhi	s0
bfc01648:	3c126fe3 	lui	s2,0x6fe3
bfc0164c:	36529b38 	ori	s2,s2,0x9b38
bfc01650:	161200b0 	bne	s0,s2,bfc01914 <inst_error>
bfc01654:	00000000 	nop
bfc01658:	3c0875b2 	lui	t0,0x75b2
bfc0165c:	350813bf 	ori	t0,t0,0x13bf
bfc01660:	01000011 	mthi	t0
bfc01664:	00008010 	mfhi	s0
bfc01668:	3c1275b2 	lui	s2,0x75b2
bfc0166c:	365213bf 	ori	s2,s2,0x13bf
bfc01670:	161200a8 	bne	s0,s2,bfc01914 <inst_error>
bfc01674:	00000000 	nop
bfc01678:	3c08639e 	lui	t0,0x639e
bfc0167c:	350845f0 	ori	t0,t0,0x45f0
bfc01680:	01000011 	mthi	t0
bfc01684:	00008010 	mfhi	s0
bfc01688:	3c12639e 	lui	s2,0x639e
bfc0168c:	365245f0 	ori	s2,s2,0x45f0
bfc01690:	161200a0 	bne	s0,s2,bfc01914 <inst_error>
bfc01694:	00000000 	nop
bfc01698:	3c085f86 	lui	t0,0x5f86
bfc0169c:	35089614 	ori	t0,t0,0x9614
bfc016a0:	01000011 	mthi	t0
bfc016a4:	00008010 	mfhi	s0
bfc016a8:	3c125f86 	lui	s2,0x5f86
bfc016ac:	36529614 	ori	s2,s2,0x9614
bfc016b0:	16120098 	bne	s0,s2,bfc01914 <inst_error>
bfc016b4:	00000000 	nop
bfc016b8:	3c08d70e 	lui	t0,0xd70e
bfc016bc:	35080800 	ori	t0,t0,0x800
bfc016c0:	01000011 	mthi	t0
bfc016c4:	00008010 	mfhi	s0
bfc016c8:	3c12d70e 	lui	s2,0xd70e
bfc016cc:	36520800 	ori	s2,s2,0x800
bfc016d0:	16120090 	bne	s0,s2,bfc01914 <inst_error>
bfc016d4:	00000000 	nop
bfc016d8:	3c08cecd 	lui	t0,0xcecd
bfc016dc:	3508fe00 	ori	t0,t0,0xfe00
bfc016e0:	01000011 	mthi	t0
bfc016e4:	00008010 	mfhi	s0
bfc016e8:	3c12cecd 	lui	s2,0xcecd
bfc016ec:	3652fe00 	ori	s2,s2,0xfe00
bfc016f0:	16120088 	bne	s0,s2,bfc01914 <inst_error>
bfc016f4:	00000000 	nop
bfc016f8:	3c08f2f1 	lui	t0,0xf2f1
bfc016fc:	35085369 	ori	t0,t0,0x5369
bfc01700:	01000011 	mthi	t0
bfc01704:	00008010 	mfhi	s0
bfc01708:	3c12f2f1 	lui	s2,0xf2f1
bfc0170c:	36525369 	ori	s2,s2,0x5369
bfc01710:	16120080 	bne	s0,s2,bfc01914 <inst_error>
bfc01714:	00000000 	nop
bfc01718:	3c081093 	lui	t0,0x1093
bfc0171c:	3508e1b0 	ori	t0,t0,0xe1b0
bfc01720:	01000011 	mthi	t0
bfc01724:	00008010 	mfhi	s0
bfc01728:	3c121093 	lui	s2,0x1093
bfc0172c:	3652e1b0 	ori	s2,s2,0xe1b0
bfc01730:	16120078 	bne	s0,s2,bfc01914 <inst_error>
bfc01734:	00000000 	nop
bfc01738:	3c08e8bf 	lui	t0,0xe8bf
bfc0173c:	35083068 	ori	t0,t0,0x3068
bfc01740:	01000011 	mthi	t0
bfc01744:	00008010 	mfhi	s0
bfc01748:	3c12e8bf 	lui	s2,0xe8bf
bfc0174c:	36523068 	ori	s2,s2,0x3068
bfc01750:	16120070 	bne	s0,s2,bfc01914 <inst_error>
bfc01754:	00000000 	nop
bfc01758:	3c081e13 	lui	t0,0x1e13
bfc0175c:	35081a58 	ori	t0,t0,0x1a58
bfc01760:	01000011 	mthi	t0
bfc01764:	00008010 	mfhi	s0
bfc01768:	3c121e13 	lui	s2,0x1e13
bfc0176c:	36521a58 	ori	s2,s2,0x1a58
bfc01770:	16120068 	bne	s0,s2,bfc01914 <inst_error>
bfc01774:	00000000 	nop
bfc01778:	3c082bdb 	lui	t0,0x2bdb
bfc0177c:	35084000 	ori	t0,t0,0x4000
bfc01780:	01000011 	mthi	t0
bfc01784:	00008010 	mfhi	s0
bfc01788:	3c122bdb 	lui	s2,0x2bdb
bfc0178c:	36524000 	ori	s2,s2,0x4000
bfc01790:	16120060 	bne	s0,s2,bfc01914 <inst_error>
bfc01794:	00000000 	nop
bfc01798:	3c084588 	lui	t0,0x4588
bfc0179c:	35083c27 	ori	t0,t0,0x3c27
bfc017a0:	01000011 	mthi	t0
bfc017a4:	00008010 	mfhi	s0
bfc017a8:	3c124588 	lui	s2,0x4588
bfc017ac:	36523c27 	ori	s2,s2,0x3c27
bfc017b0:	16120058 	bne	s0,s2,bfc01914 <inst_error>
bfc017b4:	00000000 	nop
bfc017b8:	3c087967 	lui	t0,0x7967
bfc017bc:	35081072 	ori	t0,t0,0x1072
bfc017c0:	01000011 	mthi	t0
bfc017c4:	00008010 	mfhi	s0
bfc017c8:	3c127967 	lui	s2,0x7967
bfc017cc:	36521072 	ori	s2,s2,0x1072
bfc017d0:	16120050 	bne	s0,s2,bfc01914 <inst_error>
bfc017d4:	00000000 	nop
bfc017d8:	3c08a711 	lui	t0,0xa711
bfc017dc:	3508320c 	ori	t0,t0,0x320c
bfc017e0:	01000011 	mthi	t0
bfc017e4:	00008010 	mfhi	s0
bfc017e8:	3c12a711 	lui	s2,0xa711
bfc017ec:	3652320c 	ori	s2,s2,0x320c
bfc017f0:	16120048 	bne	s0,s2,bfc01914 <inst_error>
bfc017f4:	00000000 	nop
bfc017f8:	3c081e85 	lui	t0,0x1e85
bfc017fc:	35083ed0 	ori	t0,t0,0x3ed0
bfc01800:	01000011 	mthi	t0
bfc01804:	00008010 	mfhi	s0
bfc01808:	3c121e85 	lui	s2,0x1e85
bfc0180c:	36523ed0 	ori	s2,s2,0x3ed0
bfc01810:	16120040 	bne	s0,s2,bfc01914 <inst_error>
bfc01814:	00000000 	nop
bfc01818:	3c08b13d 	lui	t0,0xb13d
bfc0181c:	3508c7b0 	ori	t0,t0,0xc7b0
bfc01820:	01000011 	mthi	t0
bfc01824:	00008010 	mfhi	s0
bfc01828:	3c12b13d 	lui	s2,0xb13d
bfc0182c:	3652c7b0 	ori	s2,s2,0xc7b0
bfc01830:	16120038 	bne	s0,s2,bfc01914 <inst_error>
bfc01834:	00000000 	nop
bfc01838:	3c089455 	lui	t0,0x9455
bfc0183c:	3508b820 	ori	t0,t0,0xb820
bfc01840:	01000011 	mthi	t0
bfc01844:	00008010 	mfhi	s0
bfc01848:	3c129455 	lui	s2,0x9455
bfc0184c:	3652b820 	ori	s2,s2,0xb820
bfc01850:	16120030 	bne	s0,s2,bfc01914 <inst_error>
bfc01854:	00000000 	nop
bfc01858:	3c0821c9 	lui	t0,0x21c9
bfc0185c:	35088e94 	ori	t0,t0,0x8e94
bfc01860:	01000011 	mthi	t0
bfc01864:	00008010 	mfhi	s0
bfc01868:	3c1221c9 	lui	s2,0x21c9
bfc0186c:	36528e94 	ori	s2,s2,0x8e94
bfc01870:	16120028 	bne	s0,s2,bfc01914 <inst_error>
bfc01874:	00000000 	nop
bfc01878:	3c08448a 	lui	t0,0x448a
bfc0187c:	3508d510 	ori	t0,t0,0xd510
bfc01880:	01000011 	mthi	t0
bfc01884:	00008010 	mfhi	s0
bfc01888:	3c12448a 	lui	s2,0x448a
bfc0188c:	3652d510 	ori	s2,s2,0xd510
bfc01890:	16120020 	bne	s0,s2,bfc01914 <inst_error>
bfc01894:	00000000 	nop
bfc01898:	3c0843e2 	lui	t0,0x43e2
bfc0189c:	3508f916 	ori	t0,t0,0xf916
bfc018a0:	01000011 	mthi	t0
bfc018a4:	00008010 	mfhi	s0
bfc018a8:	3c1243e2 	lui	s2,0x43e2
bfc018ac:	3652f916 	ori	s2,s2,0xf916
bfc018b0:	16120018 	bne	s0,s2,bfc01914 <inst_error>
bfc018b4:	00000000 	nop
bfc018b8:	3c0850be 	lui	t0,0x50be
bfc018bc:	3508495c 	ori	t0,t0,0x495c
bfc018c0:	01000011 	mthi	t0
bfc018c4:	00008010 	mfhi	s0
bfc018c8:	3c1250be 	lui	s2,0x50be
bfc018cc:	3652495c 	ori	s2,s2,0x495c
bfc018d0:	16120010 	bne	s0,s2,bfc01914 <inst_error>
bfc018d4:	00000000 	nop
bfc018d8:	3c088474 	lui	t0,0x8474
bfc018dc:	35087a80 	ori	t0,t0,0x7a80
bfc018e0:	01000011 	mthi	t0
bfc018e4:	00008010 	mfhi	s0
bfc018e8:	3c128474 	lui	s2,0x8474
bfc018ec:	36527a80 	ori	s2,s2,0x7a80
bfc018f0:	16120008 	bne	s0,s2,bfc01914 <inst_error>
bfc018f4:	00000000 	nop
bfc018f8:	24080000 	li	t0,0
bfc018fc:	01000011 	mthi	t0
bfc01900:	00008010 	mfhi	s0
bfc01904:	24120000 	li	s2,0
bfc01908:	16120002 	bne	s0,s2,bfc01914 <inst_error>
bfc0190c:	00000000 	nop
bfc01910:	4a000000 	c2	0x0

bfc01914 <inst_error>:
inst_error():
bfc01914:	4a000000 	c2	0x0

Disassembly of section .reginfo:

00000000 <.reginfo>:
   0:	00050100 	sll	zero,a1,0x4
	...
