
build/mflo:     file format elf32-tradlittlemips
build/mflo


Disassembly of section .text:

bfc00000 <main>:
bfc00000:	3c0808fc 	lui	t0,0x8fc
bfc00004:	01000013 	mtlo	t0
bfc00008:	00008012 	mflo	s0
bfc0000c:	3c1208fc 	lui	s2,0x8fc
bfc00010:	16120640 	bne	s0,s2,bfc01914 <inst_error>
bfc00014:	00000000 	nop
bfc00018:	3c08c021 	lui	t0,0xc021
bfc0001c:	3508e948 	ori	t0,t0,0xe948
bfc00020:	01000013 	mtlo	t0
bfc00024:	00008012 	mflo	s0
bfc00028:	3c12c021 	lui	s2,0xc021
bfc0002c:	3652e948 	ori	s2,s2,0xe948
bfc00030:	16120638 	bne	s0,s2,bfc01914 <inst_error>
bfc00034:	00000000 	nop
bfc00038:	3c08eff0 	lui	t0,0xeff0
bfc0003c:	3508883e 	ori	t0,t0,0x883e
bfc00040:	01000013 	mtlo	t0
bfc00044:	00008012 	mflo	s0
bfc00048:	3c12eff0 	lui	s2,0xeff0
bfc0004c:	3652883e 	ori	s2,s2,0x883e
bfc00050:	16120630 	bne	s0,s2,bfc01914 <inst_error>
bfc00054:	00000000 	nop
bfc00058:	3c088d1c 	lui	t0,0x8d1c
bfc0005c:	3508588c 	ori	t0,t0,0x588c
bfc00060:	01000013 	mtlo	t0
bfc00064:	00008012 	mflo	s0
bfc00068:	3c128d1c 	lui	s2,0x8d1c
bfc0006c:	3652588c 	ori	s2,s2,0x588c
bfc00070:	16120628 	bne	s0,s2,bfc01914 <inst_error>
bfc00074:	00000000 	nop
bfc00078:	3c0804eb 	lui	t0,0x4eb
bfc0007c:	3508a480 	ori	t0,t0,0xa480
bfc00080:	01000013 	mtlo	t0
bfc00084:	00008012 	mflo	s0
bfc00088:	3c1204eb 	lui	s2,0x4eb
bfc0008c:	3652a480 	ori	s2,s2,0xa480
bfc00090:	16120620 	bne	s0,s2,bfc01914 <inst_error>
bfc00094:	00000000 	nop
bfc00098:	3c084f6c 	lui	t0,0x4f6c
bfc0009c:	3508eec0 	ori	t0,t0,0xeec0
bfc000a0:	01000013 	mtlo	t0
bfc000a4:	00008012 	mflo	s0
bfc000a8:	3c124f6c 	lui	s2,0x4f6c
bfc000ac:	3652eec0 	ori	s2,s2,0xeec0
bfc000b0:	16120618 	bne	s0,s2,bfc01914 <inst_error>
bfc000b4:	00000000 	nop
bfc000b8:	3c08bfc9 	lui	t0,0xbfc9
bfc000bc:	3508f610 	ori	t0,t0,0xf610
bfc000c0:	01000013 	mtlo	t0
bfc000c4:	00008012 	mflo	s0
bfc000c8:	3c12bfc9 	lui	s2,0xbfc9
bfc000cc:	3652f610 	ori	s2,s2,0xf610
bfc000d0:	16120610 	bne	s0,s2,bfc01914 <inst_error>
bfc000d4:	00000000 	nop
bfc000d8:	3c08a1b5 	lui	t0,0xa1b5
bfc000dc:	35089045 	ori	t0,t0,0x9045
bfc000e0:	01000013 	mtlo	t0
bfc000e4:	00008012 	mflo	s0
bfc000e8:	3c12a1b5 	lui	s2,0xa1b5
bfc000ec:	36529045 	ori	s2,s2,0x9045
bfc000f0:	16120608 	bne	s0,s2,bfc01914 <inst_error>
bfc000f4:	00000000 	nop
bfc000f8:	3c089499 	lui	t0,0x9499
bfc000fc:	35081e58 	ori	t0,t0,0x1e58
bfc00100:	01000013 	mtlo	t0
bfc00104:	00008012 	mflo	s0
bfc00108:	3c129499 	lui	s2,0x9499
bfc0010c:	36521e58 	ori	s2,s2,0x1e58
bfc00110:	16120600 	bne	s0,s2,bfc01914 <inst_error>
bfc00114:	00000000 	nop
bfc00118:	3c081752 	lui	t0,0x1752
bfc0011c:	35083780 	ori	t0,t0,0x3780
bfc00120:	01000013 	mtlo	t0
bfc00124:	00008012 	mflo	s0
bfc00128:	3c121752 	lui	s2,0x1752
bfc0012c:	36523780 	ori	s2,s2,0x3780
bfc00130:	161205f8 	bne	s0,s2,bfc01914 <inst_error>
bfc00134:	00000000 	nop
bfc00138:	3c08ae6c 	lui	t0,0xae6c
bfc0013c:	350887b5 	ori	t0,t0,0x87b5
bfc00140:	01000013 	mtlo	t0
bfc00144:	00008012 	mflo	s0
bfc00148:	3c12ae6c 	lui	s2,0xae6c
bfc0014c:	365287b5 	ori	s2,s2,0x87b5
bfc00150:	161205f0 	bne	s0,s2,bfc01914 <inst_error>
bfc00154:	00000000 	nop
bfc00158:	3c08d100 	lui	t0,0xd100
bfc0015c:	3508fad4 	ori	t0,t0,0xfad4
bfc00160:	01000013 	mtlo	t0
bfc00164:	00008012 	mflo	s0
bfc00168:	3c12d100 	lui	s2,0xd100
bfc0016c:	3652fad4 	ori	s2,s2,0xfad4
bfc00170:	161205e8 	bne	s0,s2,bfc01914 <inst_error>
bfc00174:	00000000 	nop
bfc00178:	3c089b90 	lui	t0,0x9b90
bfc0017c:	3508bc1a 	ori	t0,t0,0xbc1a
bfc00180:	01000013 	mtlo	t0
bfc00184:	00008012 	mflo	s0
bfc00188:	3c129b90 	lui	s2,0x9b90
bfc0018c:	3652bc1a 	ori	s2,s2,0xbc1a
bfc00190:	161205e0 	bne	s0,s2,bfc01914 <inst_error>
bfc00194:	00000000 	nop
bfc00198:	3c08a31b 	lui	t0,0xa31b
bfc0019c:	35080900 	ori	t0,t0,0x900
bfc001a0:	01000013 	mtlo	t0
bfc001a4:	00008012 	mflo	s0
bfc001a8:	3c12a31b 	lui	s2,0xa31b
bfc001ac:	36520900 	ori	s2,s2,0x900
bfc001b0:	161205d8 	bne	s0,s2,bfc01914 <inst_error>
bfc001b4:	00000000 	nop
bfc001b8:	3c08f96f 	lui	t0,0xf96f
bfc001bc:	3508ee06 	ori	t0,t0,0xee06
bfc001c0:	01000013 	mtlo	t0
bfc001c4:	00008012 	mflo	s0
bfc001c8:	3c12f96f 	lui	s2,0xf96f
bfc001cc:	3652ee06 	ori	s2,s2,0xee06
bfc001d0:	161205d0 	bne	s0,s2,bfc01914 <inst_error>
bfc001d4:	00000000 	nop
bfc001d8:	3c0839b6 	lui	t0,0x39b6
bfc001dc:	3508da7c 	ori	t0,t0,0xda7c
bfc001e0:	01000013 	mtlo	t0
bfc001e4:	00008012 	mflo	s0
bfc001e8:	3c1239b6 	lui	s2,0x39b6
bfc001ec:	3652da7c 	ori	s2,s2,0xda7c
bfc001f0:	161205c8 	bne	s0,s2,bfc01914 <inst_error>
bfc001f4:	00000000 	nop
bfc001f8:	3c081e4a 	lui	t0,0x1e4a
bfc001fc:	3508f85a 	ori	t0,t0,0xf85a
bfc00200:	01000013 	mtlo	t0
bfc00204:	00008012 	mflo	s0
bfc00208:	3c121e4a 	lui	s2,0x1e4a
bfc0020c:	3652f85a 	ori	s2,s2,0xf85a
bfc00210:	161205c0 	bne	s0,s2,bfc01914 <inst_error>
bfc00214:	00000000 	nop
bfc00218:	3c082ef1 	lui	t0,0x2ef1
bfc0021c:	3508759b 	ori	t0,t0,0x759b
bfc00220:	01000013 	mtlo	t0
bfc00224:	00008012 	mflo	s0
bfc00228:	3c122ef1 	lui	s2,0x2ef1
bfc0022c:	3652759b 	ori	s2,s2,0x759b
bfc00230:	161205b8 	bne	s0,s2,bfc01914 <inst_error>
bfc00234:	00000000 	nop
bfc00238:	3c084e9b 	lui	t0,0x4e9b
bfc0023c:	35089200 	ori	t0,t0,0x9200
bfc00240:	01000013 	mtlo	t0
bfc00244:	00008012 	mflo	s0
bfc00248:	3c124e9b 	lui	s2,0x4e9b
bfc0024c:	36529200 	ori	s2,s2,0x9200
bfc00250:	161205b0 	bne	s0,s2,bfc01914 <inst_error>
bfc00254:	00000000 	nop
bfc00258:	3c089b13 	lui	t0,0x9b13
bfc0025c:	35080250 	ori	t0,t0,0x250
bfc00260:	01000013 	mtlo	t0
bfc00264:	00008012 	mflo	s0
bfc00268:	3c129b13 	lui	s2,0x9b13
bfc0026c:	36520250 	ori	s2,s2,0x250
bfc00270:	161205a8 	bne	s0,s2,bfc01914 <inst_error>
bfc00274:	00000000 	nop
bfc00278:	3c08dcee 	lui	t0,0xdcee
bfc0027c:	350801c8 	ori	t0,t0,0x1c8
bfc00280:	01000013 	mtlo	t0
bfc00284:	00008012 	mflo	s0
bfc00288:	3c12dcee 	lui	s2,0xdcee
bfc0028c:	365201c8 	ori	s2,s2,0x1c8
bfc00290:	161205a0 	bne	s0,s2,bfc01914 <inst_error>
bfc00294:	00000000 	nop
bfc00298:	3c084eb3 	lui	t0,0x4eb3
bfc0029c:	35082d84 	ori	t0,t0,0x2d84
bfc002a0:	01000013 	mtlo	t0
bfc002a4:	00008012 	mflo	s0
bfc002a8:	3c124eb3 	lui	s2,0x4eb3
bfc002ac:	36522d84 	ori	s2,s2,0x2d84
bfc002b0:	16120598 	bne	s0,s2,bfc01914 <inst_error>
bfc002b4:	00000000 	nop
bfc002b8:	3c0857a0 	lui	t0,0x57a0
bfc002bc:	35080240 	ori	t0,t0,0x240
bfc002c0:	01000013 	mtlo	t0
bfc002c4:	00008012 	mflo	s0
bfc002c8:	3c1257a0 	lui	s2,0x57a0
bfc002cc:	36520240 	ori	s2,s2,0x240
bfc002d0:	16120590 	bne	s0,s2,bfc01914 <inst_error>
bfc002d4:	00000000 	nop
bfc002d8:	3c08dbcd 	lui	t0,0xdbcd
bfc002dc:	35088ea4 	ori	t0,t0,0x8ea4
bfc002e0:	01000013 	mtlo	t0
bfc002e4:	00008012 	mflo	s0
bfc002e8:	3c12dbcd 	lui	s2,0xdbcd
bfc002ec:	36528ea4 	ori	s2,s2,0x8ea4
bfc002f0:	16120588 	bne	s0,s2,bfc01914 <inst_error>
bfc002f4:	00000000 	nop
bfc002f8:	3c086a50 	lui	t0,0x6a50
bfc002fc:	3508c5a8 	ori	t0,t0,0xc5a8
bfc00300:	01000013 	mtlo	t0
bfc00304:	00008012 	mflo	s0
bfc00308:	3c126a50 	lui	s2,0x6a50
bfc0030c:	3652c5a8 	ori	s2,s2,0xc5a8
bfc00310:	16120580 	bne	s0,s2,bfc01914 <inst_error>
bfc00314:	00000000 	nop
bfc00318:	3c08d469 	lui	t0,0xd469
bfc0031c:	35089cd9 	ori	t0,t0,0x9cd9
bfc00320:	01000013 	mtlo	t0
bfc00324:	00008012 	mflo	s0
bfc00328:	3c12d469 	lui	s2,0xd469
bfc0032c:	36529cd9 	ori	s2,s2,0x9cd9
bfc00330:	16120578 	bne	s0,s2,bfc01914 <inst_error>
bfc00334:	00000000 	nop
bfc00338:	3c0889c4 	lui	t0,0x89c4
bfc0033c:	3508604e 	ori	t0,t0,0x604e
bfc00340:	01000013 	mtlo	t0
bfc00344:	00008012 	mflo	s0
bfc00348:	3c1289c4 	lui	s2,0x89c4
bfc0034c:	3652604e 	ori	s2,s2,0x604e
bfc00350:	16120570 	bne	s0,s2,bfc01914 <inst_error>
bfc00354:	00000000 	nop
bfc00358:	3c084385 	lui	t0,0x4385
bfc0035c:	35085984 	ori	t0,t0,0x5984
bfc00360:	01000013 	mtlo	t0
bfc00364:	00008012 	mflo	s0
bfc00368:	3c124385 	lui	s2,0x4385
bfc0036c:	36525984 	ori	s2,s2,0x5984
bfc00370:	16120568 	bne	s0,s2,bfc01914 <inst_error>
bfc00374:	00000000 	nop
bfc00378:	3c082134 	lui	t0,0x2134
bfc0037c:	3508659c 	ori	t0,t0,0x659c
bfc00380:	01000013 	mtlo	t0
bfc00384:	00008012 	mflo	s0
bfc00388:	3c122134 	lui	s2,0x2134
bfc0038c:	3652659c 	ori	s2,s2,0x659c
bfc00390:	16120560 	bne	s0,s2,bfc01914 <inst_error>
bfc00394:	00000000 	nop
bfc00398:	3c08d0b1 	lui	t0,0xd0b1
bfc0039c:	3508a0a0 	ori	t0,t0,0xa0a0
bfc003a0:	01000013 	mtlo	t0
bfc003a4:	00008012 	mflo	s0
bfc003a8:	3c12d0b1 	lui	s2,0xd0b1
bfc003ac:	3652a0a0 	ori	s2,s2,0xa0a0
bfc003b0:	16120558 	bne	s0,s2,bfc01914 <inst_error>
bfc003b4:	00000000 	nop
bfc003b8:	3c08164d 	lui	t0,0x164d
bfc003bc:	35080d80 	ori	t0,t0,0xd80
bfc003c0:	01000013 	mtlo	t0
bfc003c4:	00008012 	mflo	s0
bfc003c8:	3c12164d 	lui	s2,0x164d
bfc003cc:	36520d80 	ori	s2,s2,0xd80
bfc003d0:	16120550 	bne	s0,s2,bfc01914 <inst_error>
bfc003d4:	00000000 	nop
bfc003d8:	3c08b2ec 	lui	t0,0xb2ec
bfc003dc:	3508642c 	ori	t0,t0,0x642c
bfc003e0:	01000013 	mtlo	t0
bfc003e4:	00008012 	mflo	s0
bfc003e8:	3c12b2ec 	lui	s2,0xb2ec
bfc003ec:	3652642c 	ori	s2,s2,0x642c
bfc003f0:	16120548 	bne	s0,s2,bfc01914 <inst_error>
bfc003f4:	00000000 	nop
bfc003f8:	3c0840d0 	lui	t0,0x40d0
bfc003fc:	35082caa 	ori	t0,t0,0x2caa
bfc00400:	01000013 	mtlo	t0
bfc00404:	00008012 	mflo	s0
bfc00408:	3c1240d0 	lui	s2,0x40d0
bfc0040c:	36522caa 	ori	s2,s2,0x2caa
bfc00410:	16120540 	bne	s0,s2,bfc01914 <inst_error>
bfc00414:	00000000 	nop
bfc00418:	3c08713e 	lui	t0,0x713e
bfc0041c:	35083840 	ori	t0,t0,0x3840
bfc00420:	01000013 	mtlo	t0
bfc00424:	00008012 	mflo	s0
bfc00428:	3c12713e 	lui	s2,0x713e
bfc0042c:	36523840 	ori	s2,s2,0x3840
bfc00430:	16120538 	bne	s0,s2,bfc01914 <inst_error>
bfc00434:	00000000 	nop
bfc00438:	3c082a02 	lui	t0,0x2a02
bfc0043c:	3508c9ff 	ori	t0,t0,0xc9ff
bfc00440:	01000013 	mtlo	t0
bfc00444:	00008012 	mflo	s0
bfc00448:	3c122a02 	lui	s2,0x2a02
bfc0044c:	3652c9ff 	ori	s2,s2,0xc9ff
bfc00450:	16120530 	bne	s0,s2,bfc01914 <inst_error>
bfc00454:	00000000 	nop
bfc00458:	3c082366 	lui	t0,0x2366
bfc0045c:	3508722b 	ori	t0,t0,0x722b
bfc00460:	01000013 	mtlo	t0
bfc00464:	00008012 	mflo	s0
bfc00468:	3c122366 	lui	s2,0x2366
bfc0046c:	3652722b 	ori	s2,s2,0x722b
bfc00470:	16120528 	bne	s0,s2,bfc01914 <inst_error>
bfc00474:	00000000 	nop
bfc00478:	3c08ad99 	lui	t0,0xad99
bfc0047c:	35083150 	ori	t0,t0,0x3150
bfc00480:	01000013 	mtlo	t0
bfc00484:	00008012 	mflo	s0
bfc00488:	3c12ad99 	lui	s2,0xad99
bfc0048c:	36523150 	ori	s2,s2,0x3150
bfc00490:	16120520 	bne	s0,s2,bfc01914 <inst_error>
bfc00494:	00000000 	nop
bfc00498:	3c086568 	lui	t0,0x6568
bfc0049c:	3508c99e 	ori	t0,t0,0xc99e
bfc004a0:	01000013 	mtlo	t0
bfc004a4:	00008012 	mflo	s0
bfc004a8:	3c126568 	lui	s2,0x6568
bfc004ac:	3652c99e 	ori	s2,s2,0xc99e
bfc004b0:	16120518 	bne	s0,s2,bfc01914 <inst_error>
bfc004b4:	00000000 	nop
bfc004b8:	3c08f17a 	lui	t0,0xf17a
bfc004bc:	35081170 	ori	t0,t0,0x1170
bfc004c0:	01000013 	mtlo	t0
bfc004c4:	00008012 	mflo	s0
bfc004c8:	3c12f17a 	lui	s2,0xf17a
bfc004cc:	36521170 	ori	s2,s2,0x1170
bfc004d0:	16120510 	bne	s0,s2,bfc01914 <inst_error>
bfc004d4:	00000000 	nop
bfc004d8:	3c08a336 	lui	t0,0xa336
bfc004dc:	350841a9 	ori	t0,t0,0x41a9
bfc004e0:	01000013 	mtlo	t0
bfc004e4:	00008012 	mflo	s0
bfc004e8:	3c12a336 	lui	s2,0xa336
bfc004ec:	365241a9 	ori	s2,s2,0x41a9
bfc004f0:	16120508 	bne	s0,s2,bfc01914 <inst_error>
bfc004f4:	00000000 	nop
bfc004f8:	3c0899ab 	lui	t0,0x99ab
bfc004fc:	350821a0 	ori	t0,t0,0x21a0
bfc00500:	01000013 	mtlo	t0
bfc00504:	00008012 	mflo	s0
bfc00508:	3c1299ab 	lui	s2,0x99ab
bfc0050c:	365221a0 	ori	s2,s2,0x21a0
bfc00510:	16120500 	bne	s0,s2,bfc01914 <inst_error>
bfc00514:	00000000 	nop
bfc00518:	3c088611 	lui	t0,0x8611
bfc0051c:	3508118c 	ori	t0,t0,0x118c
bfc00520:	01000013 	mtlo	t0
bfc00524:	00008012 	mflo	s0
bfc00528:	3c128611 	lui	s2,0x8611
bfc0052c:	3652118c 	ori	s2,s2,0x118c
bfc00530:	161204f8 	bne	s0,s2,bfc01914 <inst_error>
bfc00534:	00000000 	nop
bfc00538:	3c0809e8 	lui	t0,0x9e8
bfc0053c:	3508f575 	ori	t0,t0,0xf575
bfc00540:	01000013 	mtlo	t0
bfc00544:	00008012 	mflo	s0
bfc00548:	3c1209e8 	lui	s2,0x9e8
bfc0054c:	3652f575 	ori	s2,s2,0xf575
bfc00550:	161204f0 	bne	s0,s2,bfc01914 <inst_error>
bfc00554:	00000000 	nop
bfc00558:	3c08f43f 	lui	t0,0xf43f
bfc0055c:	350840ae 	ori	t0,t0,0x40ae
bfc00560:	01000013 	mtlo	t0
bfc00564:	00008012 	mflo	s0
bfc00568:	3c12f43f 	lui	s2,0xf43f
bfc0056c:	365240ae 	ori	s2,s2,0x40ae
bfc00570:	161204e8 	bne	s0,s2,bfc01914 <inst_error>
bfc00574:	00000000 	nop
bfc00578:	3c08397a 	lui	t0,0x397a
bfc0057c:	35081bb9 	ori	t0,t0,0x1bb9
bfc00580:	01000013 	mtlo	t0
bfc00584:	00008012 	mflo	s0
bfc00588:	3c12397a 	lui	s2,0x397a
bfc0058c:	36521bb9 	ori	s2,s2,0x1bb9
bfc00590:	161204e0 	bne	s0,s2,bfc01914 <inst_error>
bfc00594:	00000000 	nop
bfc00598:	3c08171e 	lui	t0,0x171e
bfc0059c:	3508590c 	ori	t0,t0,0x590c
bfc005a0:	01000013 	mtlo	t0
bfc005a4:	00008012 	mflo	s0
bfc005a8:	3c12171e 	lui	s2,0x171e
bfc005ac:	3652590c 	ori	s2,s2,0x590c
bfc005b0:	161204d8 	bne	s0,s2,bfc01914 <inst_error>
bfc005b4:	00000000 	nop
bfc005b8:	3c086c38 	lui	t0,0x6c38
bfc005bc:	35087e12 	ori	t0,t0,0x7e12
bfc005c0:	01000013 	mtlo	t0
bfc005c4:	00008012 	mflo	s0
bfc005c8:	3c126c38 	lui	s2,0x6c38
bfc005cc:	36527e12 	ori	s2,s2,0x7e12
bfc005d0:	161204d0 	bne	s0,s2,bfc01914 <inst_error>
bfc005d4:	00000000 	nop
bfc005d8:	3c0809be 	lui	t0,0x9be
bfc005dc:	3508cd5f 	ori	t0,t0,0xcd5f
bfc005e0:	01000013 	mtlo	t0
bfc005e4:	00008012 	mflo	s0
bfc005e8:	3c1209be 	lui	s2,0x9be
bfc005ec:	3652cd5f 	ori	s2,s2,0xcd5f
bfc005f0:	161204c8 	bne	s0,s2,bfc01914 <inst_error>
bfc005f4:	00000000 	nop
bfc005f8:	3c0873e0 	lui	t0,0x73e0
bfc005fc:	35087a20 	ori	t0,t0,0x7a20
bfc00600:	01000013 	mtlo	t0
bfc00604:	00008012 	mflo	s0
bfc00608:	3c1273e0 	lui	s2,0x73e0
bfc0060c:	36527a20 	ori	s2,s2,0x7a20
bfc00610:	161204c0 	bne	s0,s2,bfc01914 <inst_error>
bfc00614:	00000000 	nop
bfc00618:	3c08d2d6 	lui	t0,0xd2d6
bfc0061c:	35084d50 	ori	t0,t0,0x4d50
bfc00620:	01000013 	mtlo	t0
bfc00624:	00008012 	mflo	s0
bfc00628:	3c12d2d6 	lui	s2,0xd2d6
bfc0062c:	36524d50 	ori	s2,s2,0x4d50
bfc00630:	161204b8 	bne	s0,s2,bfc01914 <inst_error>
bfc00634:	00000000 	nop
bfc00638:	3c08cae4 	lui	t0,0xcae4
bfc0063c:	3508b160 	ori	t0,t0,0xb160
bfc00640:	01000013 	mtlo	t0
bfc00644:	00008012 	mflo	s0
bfc00648:	3c12cae4 	lui	s2,0xcae4
bfc0064c:	3652b160 	ori	s2,s2,0xb160
bfc00650:	161204b0 	bne	s0,s2,bfc01914 <inst_error>
bfc00654:	00000000 	nop
bfc00658:	3c0846d4 	lui	t0,0x46d4
bfc0065c:	35085ca8 	ori	t0,t0,0x5ca8
bfc00660:	01000013 	mtlo	t0
bfc00664:	00008012 	mflo	s0
bfc00668:	3c1246d4 	lui	s2,0x46d4
bfc0066c:	36525ca8 	ori	s2,s2,0x5ca8
bfc00670:	161204a8 	bne	s0,s2,bfc01914 <inst_error>
bfc00674:	00000000 	nop
bfc00678:	3c083c84 	lui	t0,0x3c84
bfc0067c:	35083dce 	ori	t0,t0,0x3dce
bfc00680:	01000013 	mtlo	t0
bfc00684:	00008012 	mflo	s0
bfc00688:	3c123c84 	lui	s2,0x3c84
bfc0068c:	36523dce 	ori	s2,s2,0x3dce
bfc00690:	161204a0 	bne	s0,s2,bfc01914 <inst_error>
bfc00694:	00000000 	nop
bfc00698:	3c0890d1 	lui	t0,0x90d1
bfc0069c:	3508a267 	ori	t0,t0,0xa267
bfc006a0:	01000013 	mtlo	t0
bfc006a4:	00008012 	mflo	s0
bfc006a8:	3c1290d1 	lui	s2,0x90d1
bfc006ac:	3652a267 	ori	s2,s2,0xa267
bfc006b0:	16120498 	bne	s0,s2,bfc01914 <inst_error>
bfc006b4:	00000000 	nop
bfc006b8:	3c08129d 	lui	t0,0x129d
bfc006bc:	35084a7e 	ori	t0,t0,0x4a7e
bfc006c0:	01000013 	mtlo	t0
bfc006c4:	00008012 	mflo	s0
bfc006c8:	3c12129d 	lui	s2,0x129d
bfc006cc:	36524a7e 	ori	s2,s2,0x4a7e
bfc006d0:	16120490 	bne	s0,s2,bfc01914 <inst_error>
bfc006d4:	00000000 	nop
bfc006d8:	3c08fccd 	lui	t0,0xfccd
bfc006dc:	3508b42e 	ori	t0,t0,0xb42e
bfc006e0:	01000013 	mtlo	t0
bfc006e4:	00008012 	mflo	s0
bfc006e8:	3c12fccd 	lui	s2,0xfccd
bfc006ec:	3652b42e 	ori	s2,s2,0xb42e
bfc006f0:	16120488 	bne	s0,s2,bfc01914 <inst_error>
bfc006f4:	00000000 	nop
bfc006f8:	3c08d705 	lui	t0,0xd705
bfc006fc:	35089700 	ori	t0,t0,0x9700
bfc00700:	01000013 	mtlo	t0
bfc00704:	00008012 	mflo	s0
bfc00708:	3c12d705 	lui	s2,0xd705
bfc0070c:	36529700 	ori	s2,s2,0x9700
bfc00710:	16120480 	bne	s0,s2,bfc01914 <inst_error>
bfc00714:	00000000 	nop
bfc00718:	3c080a4b 	lui	t0,0xa4b
bfc0071c:	3508664c 	ori	t0,t0,0x664c
bfc00720:	01000013 	mtlo	t0
bfc00724:	00008012 	mflo	s0
bfc00728:	3c120a4b 	lui	s2,0xa4b
bfc0072c:	3652664c 	ori	s2,s2,0x664c
bfc00730:	16120478 	bne	s0,s2,bfc01914 <inst_error>
bfc00734:	00000000 	nop
bfc00738:	3c08abed 	lui	t0,0xabed
bfc0073c:	3508fcc0 	ori	t0,t0,0xfcc0
bfc00740:	01000013 	mtlo	t0
bfc00744:	00008012 	mflo	s0
bfc00748:	3c12abed 	lui	s2,0xabed
bfc0074c:	3652fcc0 	ori	s2,s2,0xfcc0
bfc00750:	16120470 	bne	s0,s2,bfc01914 <inst_error>
bfc00754:	00000000 	nop
bfc00758:	3c0804f0 	lui	t0,0x4f0
bfc0075c:	35089b68 	ori	t0,t0,0x9b68
bfc00760:	01000013 	mtlo	t0
bfc00764:	00008012 	mflo	s0
bfc00768:	3c1204f0 	lui	s2,0x4f0
bfc0076c:	36529b68 	ori	s2,s2,0x9b68
bfc00770:	16120468 	bne	s0,s2,bfc01914 <inst_error>
bfc00774:	00000000 	nop
bfc00778:	3c08b726 	lui	t0,0xb726
bfc0077c:	35081aa0 	ori	t0,t0,0x1aa0
bfc00780:	01000013 	mtlo	t0
bfc00784:	00008012 	mflo	s0
bfc00788:	3c12b726 	lui	s2,0xb726
bfc0078c:	36521aa0 	ori	s2,s2,0x1aa0
bfc00790:	16120460 	bne	s0,s2,bfc01914 <inst_error>
bfc00794:	00000000 	nop
bfc00798:	3c08b2ae 	lui	t0,0xb2ae
bfc0079c:	3508d1e0 	ori	t0,t0,0xd1e0
bfc007a0:	01000013 	mtlo	t0
bfc007a4:	00008012 	mflo	s0
bfc007a8:	3c12b2ae 	lui	s2,0xb2ae
bfc007ac:	3652d1e0 	ori	s2,s2,0xd1e0
bfc007b0:	16120458 	bne	s0,s2,bfc01914 <inst_error>
bfc007b4:	00000000 	nop
bfc007b8:	3c08725b 	lui	t0,0x725b
bfc007bc:	3508f330 	ori	t0,t0,0xf330
bfc007c0:	01000013 	mtlo	t0
bfc007c4:	00008012 	mflo	s0
bfc007c8:	3c12725b 	lui	s2,0x725b
bfc007cc:	3652f330 	ori	s2,s2,0xf330
bfc007d0:	16120450 	bne	s0,s2,bfc01914 <inst_error>
bfc007d4:	00000000 	nop
bfc007d8:	3c08a2ed 	lui	t0,0xa2ed
bfc007dc:	350862c4 	ori	t0,t0,0x62c4
bfc007e0:	01000013 	mtlo	t0
bfc007e4:	00008012 	mflo	s0
bfc007e8:	3c12a2ed 	lui	s2,0xa2ed
bfc007ec:	365262c4 	ori	s2,s2,0x62c4
bfc007f0:	16120448 	bne	s0,s2,bfc01914 <inst_error>
bfc007f4:	00000000 	nop
bfc007f8:	3c0839bb 	lui	t0,0x39bb
bfc007fc:	3508041e 	ori	t0,t0,0x41e
bfc00800:	01000013 	mtlo	t0
bfc00804:	00008012 	mflo	s0
bfc00808:	3c1239bb 	lui	s2,0x39bb
bfc0080c:	3652041e 	ori	s2,s2,0x41e
bfc00810:	16120440 	bne	s0,s2,bfc01914 <inst_error>
bfc00814:	00000000 	nop
bfc00818:	3c08076f 	lui	t0,0x76f
bfc0081c:	3508516a 	ori	t0,t0,0x516a
bfc00820:	01000013 	mtlo	t0
bfc00824:	00008012 	mflo	s0
bfc00828:	3c12076f 	lui	s2,0x76f
bfc0082c:	3652516a 	ori	s2,s2,0x516a
bfc00830:	16120438 	bne	s0,s2,bfc01914 <inst_error>
bfc00834:	00000000 	nop
bfc00838:	3c084771 	lui	t0,0x4771
bfc0083c:	350824e0 	ori	t0,t0,0x24e0
bfc00840:	01000013 	mtlo	t0
bfc00844:	00008012 	mflo	s0
bfc00848:	3c124771 	lui	s2,0x4771
bfc0084c:	365224e0 	ori	s2,s2,0x24e0
bfc00850:	16120430 	bne	s0,s2,bfc01914 <inst_error>
bfc00854:	00000000 	nop
bfc00858:	3c08aa6a 	lui	t0,0xaa6a
bfc0085c:	35089390 	ori	t0,t0,0x9390
bfc00860:	01000013 	mtlo	t0
bfc00864:	00008012 	mflo	s0
bfc00868:	3c12aa6a 	lui	s2,0xaa6a
bfc0086c:	36529390 	ori	s2,s2,0x9390
bfc00870:	16120428 	bne	s0,s2,bfc01914 <inst_error>
bfc00874:	00000000 	nop
bfc00878:	3c08cce6 	lui	t0,0xcce6
bfc0087c:	35083c0c 	ori	t0,t0,0x3c0c
bfc00880:	01000013 	mtlo	t0
bfc00884:	00008012 	mflo	s0
bfc00888:	3c12cce6 	lui	s2,0xcce6
bfc0088c:	36523c0c 	ori	s2,s2,0x3c0c
bfc00890:	16120420 	bne	s0,s2,bfc01914 <inst_error>
bfc00894:	00000000 	nop
bfc00898:	3c081dc7 	lui	t0,0x1dc7
bfc0089c:	3508b89c 	ori	t0,t0,0xb89c
bfc008a0:	01000013 	mtlo	t0
bfc008a4:	00008012 	mflo	s0
bfc008a8:	3c121dc7 	lui	s2,0x1dc7
bfc008ac:	3652b89c 	ori	s2,s2,0xb89c
bfc008b0:	16120418 	bne	s0,s2,bfc01914 <inst_error>
bfc008b4:	00000000 	nop
bfc008b8:	3c083c39 	lui	t0,0x3c39
bfc008bc:	350850e0 	ori	t0,t0,0x50e0
bfc008c0:	01000013 	mtlo	t0
bfc008c4:	00008012 	mflo	s0
bfc008c8:	3c123c39 	lui	s2,0x3c39
bfc008cc:	365250e0 	ori	s2,s2,0x50e0
bfc008d0:	16120410 	bne	s0,s2,bfc01914 <inst_error>
bfc008d4:	00000000 	nop
bfc008d8:	3c08ae49 	lui	t0,0xae49
bfc008dc:	350826a2 	ori	t0,t0,0x26a2
bfc008e0:	01000013 	mtlo	t0
bfc008e4:	00008012 	mflo	s0
bfc008e8:	3c12ae49 	lui	s2,0xae49
bfc008ec:	365226a2 	ori	s2,s2,0x26a2
bfc008f0:	16120408 	bne	s0,s2,bfc01914 <inst_error>
bfc008f4:	00000000 	nop
bfc008f8:	3c08e091 	lui	t0,0xe091
bfc008fc:	35087420 	ori	t0,t0,0x7420
bfc00900:	01000013 	mtlo	t0
bfc00904:	00008012 	mflo	s0
bfc00908:	3c12e091 	lui	s2,0xe091
bfc0090c:	36527420 	ori	s2,s2,0x7420
bfc00910:	16120400 	bne	s0,s2,bfc01914 <inst_error>
bfc00914:	00000000 	nop
bfc00918:	3c08a36e 	lui	t0,0xa36e
bfc0091c:	35086448 	ori	t0,t0,0x6448
bfc00920:	01000013 	mtlo	t0
bfc00924:	00008012 	mflo	s0
bfc00928:	3c12a36e 	lui	s2,0xa36e
bfc0092c:	36526448 	ori	s2,s2,0x6448
bfc00930:	161203f8 	bne	s0,s2,bfc01914 <inst_error>
bfc00934:	00000000 	nop
bfc00938:	3c08df56 	lui	t0,0xdf56
bfc0093c:	3508da8b 	ori	t0,t0,0xda8b
bfc00940:	01000013 	mtlo	t0
bfc00944:	00008012 	mflo	s0
bfc00948:	3c12df56 	lui	s2,0xdf56
bfc0094c:	3652da8b 	ori	s2,s2,0xda8b
bfc00950:	161203f0 	bne	s0,s2,bfc01914 <inst_error>
bfc00954:	00000000 	nop
bfc00958:	3c08aced 	lui	t0,0xaced
bfc0095c:	3508effc 	ori	t0,t0,0xeffc
bfc00960:	01000013 	mtlo	t0
bfc00964:	00008012 	mflo	s0
bfc00968:	3c12aced 	lui	s2,0xaced
bfc0096c:	3652effc 	ori	s2,s2,0xeffc
bfc00970:	161203e8 	bne	s0,s2,bfc01914 <inst_error>
bfc00974:	00000000 	nop
bfc00978:	3c08771b 	lui	t0,0x771b
bfc0097c:	3508fc28 	ori	t0,t0,0xfc28
bfc00980:	01000013 	mtlo	t0
bfc00984:	00008012 	mflo	s0
bfc00988:	3c12771b 	lui	s2,0x771b
bfc0098c:	3652fc28 	ori	s2,s2,0xfc28
bfc00990:	161203e0 	bne	s0,s2,bfc01914 <inst_error>
bfc00994:	00000000 	nop
bfc00998:	3c08418e 	lui	t0,0x418e
bfc0099c:	3508f953 	ori	t0,t0,0xf953
bfc009a0:	01000013 	mtlo	t0
bfc009a4:	00008012 	mflo	s0
bfc009a8:	3c12418e 	lui	s2,0x418e
bfc009ac:	3652f953 	ori	s2,s2,0xf953
bfc009b0:	161203d8 	bne	s0,s2,bfc01914 <inst_error>
bfc009b4:	00000000 	nop
bfc009b8:	3c08af65 	lui	t0,0xaf65
bfc009bc:	3508ef96 	ori	t0,t0,0xef96
bfc009c0:	01000013 	mtlo	t0
bfc009c4:	00008012 	mflo	s0
bfc009c8:	3c12af65 	lui	s2,0xaf65
bfc009cc:	3652ef96 	ori	s2,s2,0xef96
bfc009d0:	161203d0 	bne	s0,s2,bfc01914 <inst_error>
bfc009d4:	00000000 	nop
bfc009d8:	3c08e739 	lui	t0,0xe739
bfc009dc:	3508d10c 	ori	t0,t0,0xd10c
bfc009e0:	01000013 	mtlo	t0
bfc009e4:	00008012 	mflo	s0
bfc009e8:	3c12e739 	lui	s2,0xe739
bfc009ec:	3652d10c 	ori	s2,s2,0xd10c
bfc009f0:	161203c8 	bne	s0,s2,bfc01914 <inst_error>
bfc009f4:	00000000 	nop
bfc009f8:	3c0817b0 	lui	t0,0x17b0
bfc009fc:	3508f8d4 	ori	t0,t0,0xf8d4
bfc00a00:	01000013 	mtlo	t0
bfc00a04:	00008012 	mflo	s0
bfc00a08:	3c1217b0 	lui	s2,0x17b0
bfc00a0c:	3652f8d4 	ori	s2,s2,0xf8d4
bfc00a10:	161203c0 	bne	s0,s2,bfc01914 <inst_error>
bfc00a14:	00000000 	nop
bfc00a18:	3c08da94 	lui	t0,0xda94
bfc00a1c:	35087912 	ori	t0,t0,0x7912
bfc00a20:	01000013 	mtlo	t0
bfc00a24:	00008012 	mflo	s0
bfc00a28:	3c12da94 	lui	s2,0xda94
bfc00a2c:	36527912 	ori	s2,s2,0x7912
bfc00a30:	161203b8 	bne	s0,s2,bfc01914 <inst_error>
bfc00a34:	00000000 	nop
bfc00a38:	3c082c1b 	lui	t0,0x2c1b
bfc00a3c:	3508d684 	ori	t0,t0,0xd684
bfc00a40:	01000013 	mtlo	t0
bfc00a44:	00008012 	mflo	s0
bfc00a48:	3c122c1b 	lui	s2,0x2c1b
bfc00a4c:	3652d684 	ori	s2,s2,0xd684
bfc00a50:	161203b0 	bne	s0,s2,bfc01914 <inst_error>
bfc00a54:	00000000 	nop
bfc00a58:	3c08da0f 	lui	t0,0xda0f
bfc00a5c:	3508792c 	ori	t0,t0,0x792c
bfc00a60:	01000013 	mtlo	t0
bfc00a64:	00008012 	mflo	s0
bfc00a68:	3c12da0f 	lui	s2,0xda0f
bfc00a6c:	3652792c 	ori	s2,s2,0x792c
bfc00a70:	161203a8 	bne	s0,s2,bfc01914 <inst_error>
bfc00a74:	00000000 	nop
bfc00a78:	3c08465d 	lui	t0,0x465d
bfc00a7c:	350856f8 	ori	t0,t0,0x56f8
bfc00a80:	01000013 	mtlo	t0
bfc00a84:	00008012 	mflo	s0
bfc00a88:	3c12465d 	lui	s2,0x465d
bfc00a8c:	365256f8 	ori	s2,s2,0x56f8
bfc00a90:	161203a0 	bne	s0,s2,bfc01914 <inst_error>
bfc00a94:	00000000 	nop
bfc00a98:	3c081f06 	lui	t0,0x1f06
bfc00a9c:	3508c400 	ori	t0,t0,0xc400
bfc00aa0:	01000013 	mtlo	t0
bfc00aa4:	00008012 	mflo	s0
bfc00aa8:	3c121f06 	lui	s2,0x1f06
bfc00aac:	3652c400 	ori	s2,s2,0xc400
bfc00ab0:	16120398 	bne	s0,s2,bfc01914 <inst_error>
bfc00ab4:	00000000 	nop
bfc00ab8:	3c08aba4 	lui	t0,0xaba4
bfc00abc:	3508647f 	ori	t0,t0,0x647f
bfc00ac0:	01000013 	mtlo	t0
bfc00ac4:	00008012 	mflo	s0
bfc00ac8:	3c12aba4 	lui	s2,0xaba4
bfc00acc:	3652647f 	ori	s2,s2,0x647f
bfc00ad0:	16120390 	bne	s0,s2,bfc01914 <inst_error>
bfc00ad4:	00000000 	nop
bfc00ad8:	3c089a03 	lui	t0,0x9a03
bfc00adc:	35085369 	ori	t0,t0,0x5369
bfc00ae0:	01000013 	mtlo	t0
bfc00ae4:	00008012 	mflo	s0
bfc00ae8:	3c129a03 	lui	s2,0x9a03
bfc00aec:	36525369 	ori	s2,s2,0x5369
bfc00af0:	16120388 	bne	s0,s2,bfc01914 <inst_error>
bfc00af4:	00000000 	nop
bfc00af8:	3c08be93 	lui	t0,0xbe93
bfc00afc:	35083612 	ori	t0,t0,0x3612
bfc00b00:	01000013 	mtlo	t0
bfc00b04:	00008012 	mflo	s0
bfc00b08:	3c12be93 	lui	s2,0xbe93
bfc00b0c:	36523612 	ori	s2,s2,0x3612
bfc00b10:	16120380 	bne	s0,s2,bfc01914 <inst_error>
bfc00b14:	00000000 	nop
bfc00b18:	3c08c479 	lui	t0,0xc479
bfc00b1c:	3508087c 	ori	t0,t0,0x87c
bfc00b20:	01000013 	mtlo	t0
bfc00b24:	00008012 	mflo	s0
bfc00b28:	3c12c479 	lui	s2,0xc479
bfc00b2c:	3652087c 	ori	s2,s2,0x87c
bfc00b30:	16120378 	bne	s0,s2,bfc01914 <inst_error>
bfc00b34:	00000000 	nop
bfc00b38:	3c0882f5 	lui	t0,0x82f5
bfc00b3c:	350818c8 	ori	t0,t0,0x18c8
bfc00b40:	01000013 	mtlo	t0
bfc00b44:	00008012 	mflo	s0
bfc00b48:	3c1282f5 	lui	s2,0x82f5
bfc00b4c:	365218c8 	ori	s2,s2,0x18c8
bfc00b50:	16120370 	bne	s0,s2,bfc01914 <inst_error>
bfc00b54:	00000000 	nop
bfc00b58:	3c08263c 	lui	t0,0x263c
bfc00b5c:	35084f70 	ori	t0,t0,0x4f70
bfc00b60:	01000013 	mtlo	t0
bfc00b64:	00008012 	mflo	s0
bfc00b68:	3c12263c 	lui	s2,0x263c
bfc00b6c:	36524f70 	ori	s2,s2,0x4f70
bfc00b70:	16120368 	bne	s0,s2,bfc01914 <inst_error>
bfc00b74:	00000000 	nop
bfc00b78:	3c083f42 	lui	t0,0x3f42
bfc00b7c:	35088cc0 	ori	t0,t0,0x8cc0
bfc00b80:	01000013 	mtlo	t0
bfc00b84:	00008012 	mflo	s0
bfc00b88:	3c123f42 	lui	s2,0x3f42
bfc00b8c:	36528cc0 	ori	s2,s2,0x8cc0
bfc00b90:	16120360 	bne	s0,s2,bfc01914 <inst_error>
bfc00b94:	00000000 	nop
bfc00b98:	3c08b9c3 	lui	t0,0xb9c3
bfc00b9c:	3508c714 	ori	t0,t0,0xc714
bfc00ba0:	01000013 	mtlo	t0
bfc00ba4:	00008012 	mflo	s0
bfc00ba8:	3c12b9c3 	lui	s2,0xb9c3
bfc00bac:	3652c714 	ori	s2,s2,0xc714
bfc00bb0:	16120358 	bne	s0,s2,bfc01914 <inst_error>
bfc00bb4:	00000000 	nop
bfc00bb8:	3c0879a5 	lui	t0,0x79a5
bfc00bbc:	350807ae 	ori	t0,t0,0x7ae
bfc00bc0:	01000013 	mtlo	t0
bfc00bc4:	00008012 	mflo	s0
bfc00bc8:	3c1279a5 	lui	s2,0x79a5
bfc00bcc:	365207ae 	ori	s2,s2,0x7ae
bfc00bd0:	16120350 	bne	s0,s2,bfc01914 <inst_error>
bfc00bd4:	00000000 	nop
bfc00bd8:	3c08147d 	lui	t0,0x147d
bfc00bdc:	35084978 	ori	t0,t0,0x4978
bfc00be0:	01000013 	mtlo	t0
bfc00be4:	00008012 	mflo	s0
bfc00be8:	3c12147d 	lui	s2,0x147d
bfc00bec:	36524978 	ori	s2,s2,0x4978
bfc00bf0:	16120348 	bne	s0,s2,bfc01914 <inst_error>
bfc00bf4:	00000000 	nop
bfc00bf8:	3c08d76f 	lui	t0,0xd76f
bfc00bfc:	35087838 	ori	t0,t0,0x7838
bfc00c00:	01000013 	mtlo	t0
bfc00c04:	00008012 	mflo	s0
bfc00c08:	3c12d76f 	lui	s2,0xd76f
bfc00c0c:	36527838 	ori	s2,s2,0x7838
bfc00c10:	16120340 	bne	s0,s2,bfc01914 <inst_error>
bfc00c14:	00000000 	nop
bfc00c18:	3c08279b 	lui	t0,0x279b
bfc00c1c:	3508d2c8 	ori	t0,t0,0xd2c8
bfc00c20:	01000013 	mtlo	t0
bfc00c24:	00008012 	mflo	s0
bfc00c28:	3c12279b 	lui	s2,0x279b
bfc00c2c:	3652d2c8 	ori	s2,s2,0xd2c8
bfc00c30:	16120338 	bne	s0,s2,bfc01914 <inst_error>
bfc00c34:	00000000 	nop
bfc00c38:	3c08c31a 	lui	t0,0xc31a
bfc00c3c:	35080952 	ori	t0,t0,0x952
bfc00c40:	01000013 	mtlo	t0
bfc00c44:	00008012 	mflo	s0
bfc00c48:	3c12c31a 	lui	s2,0xc31a
bfc00c4c:	36520952 	ori	s2,s2,0x952
bfc00c50:	16120330 	bne	s0,s2,bfc01914 <inst_error>
bfc00c54:	00000000 	nop
bfc00c58:	3c0857f1 	lui	t0,0x57f1
bfc00c5c:	3508d4e8 	ori	t0,t0,0xd4e8
bfc00c60:	01000013 	mtlo	t0
bfc00c64:	00008012 	mflo	s0
bfc00c68:	3c1257f1 	lui	s2,0x57f1
bfc00c6c:	3652d4e8 	ori	s2,s2,0xd4e8
bfc00c70:	16120328 	bne	s0,s2,bfc01914 <inst_error>
bfc00c74:	00000000 	nop
bfc00c78:	3c0825bf 	lui	t0,0x25bf
bfc00c7c:	3508d56c 	ori	t0,t0,0xd56c
bfc00c80:	01000013 	mtlo	t0
bfc00c84:	00008012 	mflo	s0
bfc00c88:	3c1225bf 	lui	s2,0x25bf
bfc00c8c:	3652d56c 	ori	s2,s2,0xd56c
bfc00c90:	16120320 	bne	s0,s2,bfc01914 <inst_error>
bfc00c94:	00000000 	nop
bfc00c98:	3c082cce 	lui	t0,0x2cce
bfc00c9c:	3508b210 	ori	t0,t0,0xb210
bfc00ca0:	01000013 	mtlo	t0
bfc00ca4:	00008012 	mflo	s0
bfc00ca8:	3c122cce 	lui	s2,0x2cce
bfc00cac:	3652b210 	ori	s2,s2,0xb210
bfc00cb0:	16120318 	bne	s0,s2,bfc01914 <inst_error>
bfc00cb4:	00000000 	nop
bfc00cb8:	3c08cf89 	lui	t0,0xcf89
bfc00cbc:	3508e754 	ori	t0,t0,0xe754
bfc00cc0:	01000013 	mtlo	t0
bfc00cc4:	00008012 	mflo	s0
bfc00cc8:	3c12cf89 	lui	s2,0xcf89
bfc00ccc:	3652e754 	ori	s2,s2,0xe754
bfc00cd0:	16120310 	bne	s0,s2,bfc01914 <inst_error>
bfc00cd4:	00000000 	nop
bfc00cd8:	3c080f19 	lui	t0,0xf19
bfc00cdc:	35089350 	ori	t0,t0,0x9350
bfc00ce0:	01000013 	mtlo	t0
bfc00ce4:	00008012 	mflo	s0
bfc00ce8:	3c120f19 	lui	s2,0xf19
bfc00cec:	36529350 	ori	s2,s2,0x9350
bfc00cf0:	16120308 	bne	s0,s2,bfc01914 <inst_error>
bfc00cf4:	00000000 	nop
bfc00cf8:	3c08e0bb 	lui	t0,0xe0bb
bfc00cfc:	35080e50 	ori	t0,t0,0xe50
bfc00d00:	01000013 	mtlo	t0
bfc00d04:	00008012 	mflo	s0
bfc00d08:	3c12e0bb 	lui	s2,0xe0bb
bfc00d0c:	36520e50 	ori	s2,s2,0xe50
bfc00d10:	16120300 	bne	s0,s2,bfc01914 <inst_error>
bfc00d14:	00000000 	nop
bfc00d18:	3c08ec9b 	lui	t0,0xec9b
bfc00d1c:	35085890 	ori	t0,t0,0x5890
bfc00d20:	01000013 	mtlo	t0
bfc00d24:	00008012 	mflo	s0
bfc00d28:	3c12ec9b 	lui	s2,0xec9b
bfc00d2c:	36525890 	ori	s2,s2,0x5890
bfc00d30:	161202f8 	bne	s0,s2,bfc01914 <inst_error>
bfc00d34:	00000000 	nop
bfc00d38:	3c089797 	lui	t0,0x9797
bfc00d3c:	350868d0 	ori	t0,t0,0x68d0
bfc00d40:	01000013 	mtlo	t0
bfc00d44:	00008012 	mflo	s0
bfc00d48:	3c129797 	lui	s2,0x9797
bfc00d4c:	365268d0 	ori	s2,s2,0x68d0
bfc00d50:	161202f0 	bne	s0,s2,bfc01914 <inst_error>
bfc00d54:	00000000 	nop
bfc00d58:	3c086ff8 	lui	t0,0x6ff8
bfc00d5c:	35081296 	ori	t0,t0,0x1296
bfc00d60:	01000013 	mtlo	t0
bfc00d64:	00008012 	mflo	s0
bfc00d68:	3c126ff8 	lui	s2,0x6ff8
bfc00d6c:	36521296 	ori	s2,s2,0x1296
bfc00d70:	161202e8 	bne	s0,s2,bfc01914 <inst_error>
bfc00d74:	00000000 	nop
bfc00d78:	3c089435 	lui	t0,0x9435
bfc00d7c:	3508642a 	ori	t0,t0,0x642a
bfc00d80:	01000013 	mtlo	t0
bfc00d84:	00008012 	mflo	s0
bfc00d88:	3c129435 	lui	s2,0x9435
bfc00d8c:	3652642a 	ori	s2,s2,0x642a
bfc00d90:	161202e0 	bne	s0,s2,bfc01914 <inst_error>
bfc00d94:	00000000 	nop
bfc00d98:	3c086442 	lui	t0,0x6442
bfc00d9c:	350863d0 	ori	t0,t0,0x63d0
bfc00da0:	01000013 	mtlo	t0
bfc00da4:	00008012 	mflo	s0
bfc00da8:	3c126442 	lui	s2,0x6442
bfc00dac:	365263d0 	ori	s2,s2,0x63d0
bfc00db0:	161202d8 	bne	s0,s2,bfc01914 <inst_error>
bfc00db4:	00000000 	nop
bfc00db8:	3c08dcfd 	lui	t0,0xdcfd
bfc00dbc:	3508b8c0 	ori	t0,t0,0xb8c0
bfc00dc0:	01000013 	mtlo	t0
bfc00dc4:	00008012 	mflo	s0
bfc00dc8:	3c12dcfd 	lui	s2,0xdcfd
bfc00dcc:	3652b8c0 	ori	s2,s2,0xb8c0
bfc00dd0:	161202d0 	bne	s0,s2,bfc01914 <inst_error>
bfc00dd4:	00000000 	nop
bfc00dd8:	3c083a57 	lui	t0,0x3a57
bfc00ddc:	35088b8c 	ori	t0,t0,0x8b8c
bfc00de0:	01000013 	mtlo	t0
bfc00de4:	00008012 	mflo	s0
bfc00de8:	3c123a57 	lui	s2,0x3a57
bfc00dec:	36528b8c 	ori	s2,s2,0x8b8c
bfc00df0:	161202c8 	bne	s0,s2,bfc01914 <inst_error>
bfc00df4:	00000000 	nop
bfc00df8:	3c08462d 	lui	t0,0x462d
bfc00dfc:	3508e0d8 	ori	t0,t0,0xe0d8
bfc00e00:	01000013 	mtlo	t0
bfc00e04:	00008012 	mflo	s0
bfc00e08:	3c12462d 	lui	s2,0x462d
bfc00e0c:	3652e0d8 	ori	s2,s2,0xe0d8
bfc00e10:	161202c0 	bne	s0,s2,bfc01914 <inst_error>
bfc00e14:	00000000 	nop
bfc00e18:	3c08dad1 	lui	t0,0xdad1
bfc00e1c:	3508f304 	ori	t0,t0,0xf304
bfc00e20:	01000013 	mtlo	t0
bfc00e24:	00008012 	mflo	s0
bfc00e28:	3c12dad1 	lui	s2,0xdad1
bfc00e2c:	3652f304 	ori	s2,s2,0xf304
bfc00e30:	161202b8 	bne	s0,s2,bfc01914 <inst_error>
bfc00e34:	00000000 	nop
bfc00e38:	3c08222f 	lui	t0,0x222f
bfc00e3c:	3508e700 	ori	t0,t0,0xe700
bfc00e40:	01000013 	mtlo	t0
bfc00e44:	00008012 	mflo	s0
bfc00e48:	3c12222f 	lui	s2,0x222f
bfc00e4c:	3652e700 	ori	s2,s2,0xe700
bfc00e50:	161202b0 	bne	s0,s2,bfc01914 <inst_error>
bfc00e54:	00000000 	nop
bfc00e58:	3c081274 	lui	t0,0x1274
bfc00e5c:	35084d00 	ori	t0,t0,0x4d00
bfc00e60:	01000013 	mtlo	t0
bfc00e64:	00008012 	mflo	s0
bfc00e68:	3c121274 	lui	s2,0x1274
bfc00e6c:	36524d00 	ori	s2,s2,0x4d00
bfc00e70:	161202a8 	bne	s0,s2,bfc01914 <inst_error>
bfc00e74:	00000000 	nop
bfc00e78:	3c083bec 	lui	t0,0x3bec
bfc00e7c:	35087600 	ori	t0,t0,0x7600
bfc00e80:	01000013 	mtlo	t0
bfc00e84:	00008012 	mflo	s0
bfc00e88:	3c123bec 	lui	s2,0x3bec
bfc00e8c:	36527600 	ori	s2,s2,0x7600
bfc00e90:	161202a0 	bne	s0,s2,bfc01914 <inst_error>
bfc00e94:	00000000 	nop
bfc00e98:	3c08fb82 	lui	t0,0xfb82
bfc00e9c:	3508fa00 	ori	t0,t0,0xfa00
bfc00ea0:	01000013 	mtlo	t0
bfc00ea4:	00008012 	mflo	s0
bfc00ea8:	3c12fb82 	lui	s2,0xfb82
bfc00eac:	3652fa00 	ori	s2,s2,0xfa00
bfc00eb0:	16120298 	bne	s0,s2,bfc01914 <inst_error>
bfc00eb4:	00000000 	nop
bfc00eb8:	3c0841ec 	lui	t0,0x41ec
bfc00ebc:	35082d80 	ori	t0,t0,0x2d80
bfc00ec0:	01000013 	mtlo	t0
bfc00ec4:	00008012 	mflo	s0
bfc00ec8:	3c1241ec 	lui	s2,0x41ec
bfc00ecc:	36522d80 	ori	s2,s2,0x2d80
bfc00ed0:	16120290 	bne	s0,s2,bfc01914 <inst_error>
bfc00ed4:	00000000 	nop
bfc00ed8:	3c08b0c2 	lui	t0,0xb0c2
bfc00edc:	3508c2c8 	ori	t0,t0,0xc2c8
bfc00ee0:	01000013 	mtlo	t0
bfc00ee4:	00008012 	mflo	s0
bfc00ee8:	3c12b0c2 	lui	s2,0xb0c2
bfc00eec:	3652c2c8 	ori	s2,s2,0xc2c8
bfc00ef0:	16120288 	bne	s0,s2,bfc01914 <inst_error>
bfc00ef4:	00000000 	nop
bfc00ef8:	3c08db6a 	lui	t0,0xdb6a
bfc00efc:	35085fa0 	ori	t0,t0,0x5fa0
bfc00f00:	01000013 	mtlo	t0
bfc00f04:	00008012 	mflo	s0
bfc00f08:	3c12db6a 	lui	s2,0xdb6a
bfc00f0c:	36525fa0 	ori	s2,s2,0x5fa0
bfc00f10:	16120280 	bne	s0,s2,bfc01914 <inst_error>
bfc00f14:	00000000 	nop
bfc00f18:	3c08e400 	lui	t0,0xe400
bfc00f1c:	3508b300 	ori	t0,t0,0xb300
bfc00f20:	01000013 	mtlo	t0
bfc00f24:	00008012 	mflo	s0
bfc00f28:	3c12e400 	lui	s2,0xe400
bfc00f2c:	3652b300 	ori	s2,s2,0xb300
bfc00f30:	16120278 	bne	s0,s2,bfc01914 <inst_error>
bfc00f34:	00000000 	nop
bfc00f38:	3c086fbf 	lui	t0,0x6fbf
bfc00f3c:	350882c0 	ori	t0,t0,0x82c0
bfc00f40:	01000013 	mtlo	t0
bfc00f44:	00008012 	mflo	s0
bfc00f48:	3c126fbf 	lui	s2,0x6fbf
bfc00f4c:	365282c0 	ori	s2,s2,0x82c0
bfc00f50:	16120270 	bne	s0,s2,bfc01914 <inst_error>
bfc00f54:	00000000 	nop
bfc00f58:	3c08cdd4 	lui	t0,0xcdd4
bfc00f5c:	3508dff4 	ori	t0,t0,0xdff4
bfc00f60:	01000013 	mtlo	t0
bfc00f64:	00008012 	mflo	s0
bfc00f68:	3c12cdd4 	lui	s2,0xcdd4
bfc00f6c:	3652dff4 	ori	s2,s2,0xdff4
bfc00f70:	16120268 	bne	s0,s2,bfc01914 <inst_error>
bfc00f74:	00000000 	nop
bfc00f78:	3c085bbc 	lui	t0,0x5bbc
bfc00f7c:	35088513 	ori	t0,t0,0x8513
bfc00f80:	01000013 	mtlo	t0
bfc00f84:	00008012 	mflo	s0
bfc00f88:	3c125bbc 	lui	s2,0x5bbc
bfc00f8c:	36528513 	ori	s2,s2,0x8513
bfc00f90:	16120260 	bne	s0,s2,bfc01914 <inst_error>
bfc00f94:	00000000 	nop
bfc00f98:	3c085f47 	lui	t0,0x5f47
bfc00f9c:	350880f8 	ori	t0,t0,0x80f8
bfc00fa0:	01000013 	mtlo	t0
bfc00fa4:	00008012 	mflo	s0
bfc00fa8:	3c125f47 	lui	s2,0x5f47
bfc00fac:	365280f8 	ori	s2,s2,0x80f8
bfc00fb0:	16120258 	bne	s0,s2,bfc01914 <inst_error>
bfc00fb4:	00000000 	nop
bfc00fb8:	3c08b103 	lui	t0,0xb103
bfc00fbc:	3508b691 	ori	t0,t0,0xb691
bfc00fc0:	01000013 	mtlo	t0
bfc00fc4:	00008012 	mflo	s0
bfc00fc8:	3c12b103 	lui	s2,0xb103
bfc00fcc:	3652b691 	ori	s2,s2,0xb691
bfc00fd0:	16120250 	bne	s0,s2,bfc01914 <inst_error>
bfc00fd4:	00000000 	nop
bfc00fd8:	3c08b44d 	lui	t0,0xb44d
bfc00fdc:	3508599a 	ori	t0,t0,0x599a
bfc00fe0:	01000013 	mtlo	t0
bfc00fe4:	00008012 	mflo	s0
bfc00fe8:	3c12b44d 	lui	s2,0xb44d
bfc00fec:	3652599a 	ori	s2,s2,0x599a
bfc00ff0:	16120248 	bne	s0,s2,bfc01914 <inst_error>
bfc00ff4:	00000000 	nop
bfc00ff8:	3c0807ba 	lui	t0,0x7ba
bfc00ffc:	35087fd0 	ori	t0,t0,0x7fd0
bfc01000:	01000013 	mtlo	t0
bfc01004:	00008012 	mflo	s0
bfc01008:	3c1207ba 	lui	s2,0x7ba
bfc0100c:	36527fd0 	ori	s2,s2,0x7fd0
bfc01010:	16120240 	bne	s0,s2,bfc01914 <inst_error>
bfc01014:	00000000 	nop
bfc01018:	3c08e0d0 	lui	t0,0xe0d0
bfc0101c:	350895ce 	ori	t0,t0,0x95ce
bfc01020:	01000013 	mtlo	t0
bfc01024:	00008012 	mflo	s0
bfc01028:	3c12e0d0 	lui	s2,0xe0d0
bfc0102c:	365295ce 	ori	s2,s2,0x95ce
bfc01030:	16120238 	bne	s0,s2,bfc01914 <inst_error>
bfc01034:	00000000 	nop
bfc01038:	3c08a827 	lui	t0,0xa827
bfc0103c:	3508346a 	ori	t0,t0,0x346a
bfc01040:	01000013 	mtlo	t0
bfc01044:	00008012 	mflo	s0
bfc01048:	3c12a827 	lui	s2,0xa827
bfc0104c:	3652346a 	ori	s2,s2,0x346a
bfc01050:	16120230 	bne	s0,s2,bfc01914 <inst_error>
bfc01054:	00000000 	nop
bfc01058:	3c08a5e0 	lui	t0,0xa5e0
bfc0105c:	35088312 	ori	t0,t0,0x8312
bfc01060:	01000013 	mtlo	t0
bfc01064:	00008012 	mflo	s0
bfc01068:	3c12a5e0 	lui	s2,0xa5e0
bfc0106c:	36528312 	ori	s2,s2,0x8312
bfc01070:	16120228 	bne	s0,s2,bfc01914 <inst_error>
bfc01074:	00000000 	nop
bfc01078:	3c080c5d 	lui	t0,0xc5d
bfc0107c:	35083937 	ori	t0,t0,0x3937
bfc01080:	01000013 	mtlo	t0
bfc01084:	00008012 	mflo	s0
bfc01088:	3c120c5d 	lui	s2,0xc5d
bfc0108c:	36523937 	ori	s2,s2,0x3937
bfc01090:	16120220 	bne	s0,s2,bfc01914 <inst_error>
bfc01094:	00000000 	nop
bfc01098:	3c08d4de 	lui	t0,0xd4de
bfc0109c:	3508fa00 	ori	t0,t0,0xfa00
bfc010a0:	01000013 	mtlo	t0
bfc010a4:	00008012 	mflo	s0
bfc010a8:	3c12d4de 	lui	s2,0xd4de
bfc010ac:	3652fa00 	ori	s2,s2,0xfa00
bfc010b0:	16120218 	bne	s0,s2,bfc01914 <inst_error>
bfc010b4:	00000000 	nop
bfc010b8:	3c088eae 	lui	t0,0x8eae
bfc010bc:	3508b5be 	ori	t0,t0,0xb5be
bfc010c0:	01000013 	mtlo	t0
bfc010c4:	00008012 	mflo	s0
bfc010c8:	3c128eae 	lui	s2,0x8eae
bfc010cc:	3652b5be 	ori	s2,s2,0xb5be
bfc010d0:	16120210 	bne	s0,s2,bfc01914 <inst_error>
bfc010d4:	00000000 	nop
bfc010d8:	3c08f515 	lui	t0,0xf515
bfc010dc:	35084cd0 	ori	t0,t0,0x4cd0
bfc010e0:	01000013 	mtlo	t0
bfc010e4:	00008012 	mflo	s0
bfc010e8:	3c12f515 	lui	s2,0xf515
bfc010ec:	36524cd0 	ori	s2,s2,0x4cd0
bfc010f0:	16120208 	bne	s0,s2,bfc01914 <inst_error>
bfc010f4:	00000000 	nop
bfc010f8:	3c08c0e5 	lui	t0,0xc0e5
bfc010fc:	3508f104 	ori	t0,t0,0xf104
bfc01100:	01000013 	mtlo	t0
bfc01104:	00008012 	mflo	s0
bfc01108:	3c12c0e5 	lui	s2,0xc0e5
bfc0110c:	3652f104 	ori	s2,s2,0xf104
bfc01110:	16120200 	bne	s0,s2,bfc01914 <inst_error>
bfc01114:	00000000 	nop
bfc01118:	3c0845ba 	lui	t0,0x45ba
bfc0111c:	35089b88 	ori	t0,t0,0x9b88
bfc01120:	01000013 	mtlo	t0
bfc01124:	00008012 	mflo	s0
bfc01128:	3c1245ba 	lui	s2,0x45ba
bfc0112c:	36529b88 	ori	s2,s2,0x9b88
bfc01130:	161201f8 	bne	s0,s2,bfc01914 <inst_error>
bfc01134:	00000000 	nop
bfc01138:	3c080c6f 	lui	t0,0xc6f
bfc0113c:	35084b7d 	ori	t0,t0,0x4b7d
bfc01140:	01000013 	mtlo	t0
bfc01144:	00008012 	mflo	s0
bfc01148:	3c120c6f 	lui	s2,0xc6f
bfc0114c:	36524b7d 	ori	s2,s2,0x4b7d
bfc01150:	161201f0 	bne	s0,s2,bfc01914 <inst_error>
bfc01154:	00000000 	nop
bfc01158:	3c0884d2 	lui	t0,0x84d2
bfc0115c:	3508ee9d 	ori	t0,t0,0xee9d
bfc01160:	01000013 	mtlo	t0
bfc01164:	00008012 	mflo	s0
bfc01168:	3c1284d2 	lui	s2,0x84d2
bfc0116c:	3652ee9d 	ori	s2,s2,0xee9d
bfc01170:	161201e8 	bne	s0,s2,bfc01914 <inst_error>
bfc01174:	00000000 	nop
bfc01178:	3c080b8c 	lui	t0,0xb8c
bfc0117c:	3508ca60 	ori	t0,t0,0xca60
bfc01180:	01000013 	mtlo	t0
bfc01184:	00008012 	mflo	s0
bfc01188:	3c120b8c 	lui	s2,0xb8c
bfc0118c:	3652ca60 	ori	s2,s2,0xca60
bfc01190:	161201e0 	bne	s0,s2,bfc01914 <inst_error>
bfc01194:	00000000 	nop
bfc01198:	3c083417 	lui	t0,0x3417
bfc0119c:	35087838 	ori	t0,t0,0x7838
bfc011a0:	01000013 	mtlo	t0
bfc011a4:	00008012 	mflo	s0
bfc011a8:	3c123417 	lui	s2,0x3417
bfc011ac:	36527838 	ori	s2,s2,0x7838
bfc011b0:	161201d8 	bne	s0,s2,bfc01914 <inst_error>
bfc011b4:	00000000 	nop
bfc011b8:	3c08d497 	lui	t0,0xd497
bfc011bc:	3508762d 	ori	t0,t0,0x762d
bfc011c0:	01000013 	mtlo	t0
bfc011c4:	00008012 	mflo	s0
bfc011c8:	3c12d497 	lui	s2,0xd497
bfc011cc:	3652762d 	ori	s2,s2,0x762d
bfc011d0:	161201d0 	bne	s0,s2,bfc01914 <inst_error>
bfc011d4:	00000000 	nop
bfc011d8:	3c08a9d9 	lui	t0,0xa9d9
bfc011dc:	3508686c 	ori	t0,t0,0x686c
bfc011e0:	01000013 	mtlo	t0
bfc011e4:	00008012 	mflo	s0
bfc011e8:	3c12a9d9 	lui	s2,0xa9d9
bfc011ec:	3652686c 	ori	s2,s2,0x686c
bfc011f0:	161201c8 	bne	s0,s2,bfc01914 <inst_error>
bfc011f4:	00000000 	nop
bfc011f8:	3c0870e5 	lui	t0,0x70e5
bfc011fc:	35088844 	ori	t0,t0,0x8844
bfc01200:	01000013 	mtlo	t0
bfc01204:	00008012 	mflo	s0
bfc01208:	3c1270e5 	lui	s2,0x70e5
bfc0120c:	36528844 	ori	s2,s2,0x8844
bfc01210:	161201c0 	bne	s0,s2,bfc01914 <inst_error>
bfc01214:	00000000 	nop
bfc01218:	3c08a359 	lui	t0,0xa359
bfc0121c:	350863da 	ori	t0,t0,0x63da
bfc01220:	01000013 	mtlo	t0
bfc01224:	00008012 	mflo	s0
bfc01228:	3c12a359 	lui	s2,0xa359
bfc0122c:	365263da 	ori	s2,s2,0x63da
bfc01230:	161201b8 	bne	s0,s2,bfc01914 <inst_error>
bfc01234:	00000000 	nop
bfc01238:	3c08d596 	lui	t0,0xd596
bfc0123c:	3508c72c 	ori	t0,t0,0xc72c
bfc01240:	01000013 	mtlo	t0
bfc01244:	00008012 	mflo	s0
bfc01248:	3c12d596 	lui	s2,0xd596
bfc0124c:	3652c72c 	ori	s2,s2,0xc72c
bfc01250:	161201b0 	bne	s0,s2,bfc01914 <inst_error>
bfc01254:	00000000 	nop
bfc01258:	3c086d90 	lui	t0,0x6d90
bfc0125c:	3508cae6 	ori	t0,t0,0xcae6
bfc01260:	01000013 	mtlo	t0
bfc01264:	00008012 	mflo	s0
bfc01268:	3c126d90 	lui	s2,0x6d90
bfc0126c:	3652cae6 	ori	s2,s2,0xcae6
bfc01270:	161201a8 	bne	s0,s2,bfc01914 <inst_error>
bfc01274:	00000000 	nop
bfc01278:	3c08aecd 	lui	t0,0xaecd
bfc0127c:	350804a4 	ori	t0,t0,0x4a4
bfc01280:	01000013 	mtlo	t0
bfc01284:	00008012 	mflo	s0
bfc01288:	3c12aecd 	lui	s2,0xaecd
bfc0128c:	365204a4 	ori	s2,s2,0x4a4
bfc01290:	161201a0 	bne	s0,s2,bfc01914 <inst_error>
bfc01294:	00000000 	nop
bfc01298:	3c08d0db 	lui	t0,0xd0db
bfc0129c:	350839f8 	ori	t0,t0,0x39f8
bfc012a0:	01000013 	mtlo	t0
bfc012a4:	00008012 	mflo	s0
bfc012a8:	3c12d0db 	lui	s2,0xd0db
bfc012ac:	365239f8 	ori	s2,s2,0x39f8
bfc012b0:	16120198 	bne	s0,s2,bfc01914 <inst_error>
bfc012b4:	00000000 	nop
bfc012b8:	3c082751 	lui	t0,0x2751
bfc012bc:	3508a62f 	ori	t0,t0,0xa62f
bfc012c0:	01000013 	mtlo	t0
bfc012c4:	00008012 	mflo	s0
bfc012c8:	3c122751 	lui	s2,0x2751
bfc012cc:	3652a62f 	ori	s2,s2,0xa62f
bfc012d0:	16120190 	bne	s0,s2,bfc01914 <inst_error>
bfc012d4:	00000000 	nop
bfc012d8:	3c08ea6b 	lui	t0,0xea6b
bfc012dc:	35080fdc 	ori	t0,t0,0xfdc
bfc012e0:	01000013 	mtlo	t0
bfc012e4:	00008012 	mflo	s0
bfc012e8:	3c12ea6b 	lui	s2,0xea6b
bfc012ec:	36520fdc 	ori	s2,s2,0xfdc
bfc012f0:	16120188 	bne	s0,s2,bfc01914 <inst_error>
bfc012f4:	00000000 	nop
bfc012f8:	3c08e6c8 	lui	t0,0xe6c8
bfc012fc:	35083e0b 	ori	t0,t0,0x3e0b
bfc01300:	01000013 	mtlo	t0
bfc01304:	00008012 	mflo	s0
bfc01308:	3c12e6c8 	lui	s2,0xe6c8
bfc0130c:	36523e0b 	ori	s2,s2,0x3e0b
bfc01310:	16120180 	bne	s0,s2,bfc01914 <inst_error>
bfc01314:	00000000 	nop
bfc01318:	3c085f9c 	lui	t0,0x5f9c
bfc0131c:	35087280 	ori	t0,t0,0x7280
bfc01320:	01000013 	mtlo	t0
bfc01324:	00008012 	mflo	s0
bfc01328:	3c125f9c 	lui	s2,0x5f9c
bfc0132c:	36527280 	ori	s2,s2,0x7280
bfc01330:	16120178 	bne	s0,s2,bfc01914 <inst_error>
bfc01334:	00000000 	nop
bfc01338:	3c08bf64 	lui	t0,0xbf64
bfc0133c:	3508e945 	ori	t0,t0,0xe945
bfc01340:	01000013 	mtlo	t0
bfc01344:	00008012 	mflo	s0
bfc01348:	3c12bf64 	lui	s2,0xbf64
bfc0134c:	3652e945 	ori	s2,s2,0xe945
bfc01350:	16120170 	bne	s0,s2,bfc01914 <inst_error>
bfc01354:	00000000 	nop
bfc01358:	3c08eef5 	lui	t0,0xeef5
bfc0135c:	35087a00 	ori	t0,t0,0x7a00
bfc01360:	01000013 	mtlo	t0
bfc01364:	00008012 	mflo	s0
bfc01368:	3c12eef5 	lui	s2,0xeef5
bfc0136c:	36527a00 	ori	s2,s2,0x7a00
bfc01370:	16120168 	bne	s0,s2,bfc01914 <inst_error>
bfc01374:	00000000 	nop
bfc01378:	3c086452 	lui	t0,0x6452
bfc0137c:	3508d9be 	ori	t0,t0,0xd9be
bfc01380:	01000013 	mtlo	t0
bfc01384:	00008012 	mflo	s0
bfc01388:	3c126452 	lui	s2,0x6452
bfc0138c:	3652d9be 	ori	s2,s2,0xd9be
bfc01390:	16120160 	bne	s0,s2,bfc01914 <inst_error>
bfc01394:	00000000 	nop
bfc01398:	3c08a66f 	lui	t0,0xa66f
bfc0139c:	35084d68 	ori	t0,t0,0x4d68
bfc013a0:	01000013 	mtlo	t0
bfc013a4:	00008012 	mflo	s0
bfc013a8:	3c12a66f 	lui	s2,0xa66f
bfc013ac:	36524d68 	ori	s2,s2,0x4d68
bfc013b0:	16120158 	bne	s0,s2,bfc01914 <inst_error>
bfc013b4:	00000000 	nop
bfc013b8:	3c08c695 	lui	t0,0xc695
bfc013bc:	3508396f 	ori	t0,t0,0x396f
bfc013c0:	01000013 	mtlo	t0
bfc013c4:	00008012 	mflo	s0
bfc013c8:	3c12c695 	lui	s2,0xc695
bfc013cc:	3652396f 	ori	s2,s2,0x396f
bfc013d0:	16120150 	bne	s0,s2,bfc01914 <inst_error>
bfc013d4:	00000000 	nop
bfc013d8:	3c08b387 	lui	t0,0xb387
bfc013dc:	3508245c 	ori	t0,t0,0x245c
bfc013e0:	01000013 	mtlo	t0
bfc013e4:	00008012 	mflo	s0
bfc013e8:	3c12b387 	lui	s2,0xb387
bfc013ec:	3652245c 	ori	s2,s2,0x245c
bfc013f0:	16120148 	bne	s0,s2,bfc01914 <inst_error>
bfc013f4:	00000000 	nop
bfc013f8:	3c0880fa 	lui	t0,0x80fa
bfc013fc:	3508e1f8 	ori	t0,t0,0xe1f8
bfc01400:	01000013 	mtlo	t0
bfc01404:	00008012 	mflo	s0
bfc01408:	3c1280fa 	lui	s2,0x80fa
bfc0140c:	3652e1f8 	ori	s2,s2,0xe1f8
bfc01410:	16120140 	bne	s0,s2,bfc01914 <inst_error>
bfc01414:	00000000 	nop
bfc01418:	3c08cacb 	lui	t0,0xcacb
bfc0141c:	35084c06 	ori	t0,t0,0x4c06
bfc01420:	01000013 	mtlo	t0
bfc01424:	00008012 	mflo	s0
bfc01428:	3c12cacb 	lui	s2,0xcacb
bfc0142c:	36524c06 	ori	s2,s2,0x4c06
bfc01430:	16120138 	bne	s0,s2,bfc01914 <inst_error>
bfc01434:	00000000 	nop
bfc01438:	3c086b12 	lui	t0,0x6b12
bfc0143c:	350813ac 	ori	t0,t0,0x13ac
bfc01440:	01000013 	mtlo	t0
bfc01444:	00008012 	mflo	s0
bfc01448:	3c126b12 	lui	s2,0x6b12
bfc0144c:	365213ac 	ori	s2,s2,0x13ac
bfc01450:	16120130 	bne	s0,s2,bfc01914 <inst_error>
bfc01454:	00000000 	nop
bfc01458:	3c080f31 	lui	t0,0xf31
bfc0145c:	350805eb 	ori	t0,t0,0x5eb
bfc01460:	01000013 	mtlo	t0
bfc01464:	00008012 	mflo	s0
bfc01468:	3c120f31 	lui	s2,0xf31
bfc0146c:	365205eb 	ori	s2,s2,0x5eb
bfc01470:	16120128 	bne	s0,s2,bfc01914 <inst_error>
bfc01474:	00000000 	nop
bfc01478:	3c082e6b 	lui	t0,0x2e6b
bfc0147c:	3508a840 	ori	t0,t0,0xa840
bfc01480:	01000013 	mtlo	t0
bfc01484:	00008012 	mflo	s0
bfc01488:	3c122e6b 	lui	s2,0x2e6b
bfc0148c:	3652a840 	ori	s2,s2,0xa840
bfc01490:	16120120 	bne	s0,s2,bfc01914 <inst_error>
bfc01494:	00000000 	nop
bfc01498:	3c08a385 	lui	t0,0xa385
bfc0149c:	3508a463 	ori	t0,t0,0xa463
bfc014a0:	01000013 	mtlo	t0
bfc014a4:	00008012 	mflo	s0
bfc014a8:	3c12a385 	lui	s2,0xa385
bfc014ac:	3652a463 	ori	s2,s2,0xa463
bfc014b0:	16120118 	bne	s0,s2,bfc01914 <inst_error>
bfc014b4:	00000000 	nop
bfc014b8:	3c088c0e 	lui	t0,0x8c0e
bfc014bc:	35087606 	ori	t0,t0,0x7606
bfc014c0:	01000013 	mtlo	t0
bfc014c4:	00008012 	mflo	s0
bfc014c8:	3c128c0e 	lui	s2,0x8c0e
bfc014cc:	36527606 	ori	s2,s2,0x7606
bfc014d0:	16120110 	bne	s0,s2,bfc01914 <inst_error>
bfc014d4:	00000000 	nop
bfc014d8:	3c08f914 	lui	t0,0xf914
bfc014dc:	35084faa 	ori	t0,t0,0x4faa
bfc014e0:	01000013 	mtlo	t0
bfc014e4:	00008012 	mflo	s0
bfc014e8:	3c12f914 	lui	s2,0xf914
bfc014ec:	36524faa 	ori	s2,s2,0x4faa
bfc014f0:	16120108 	bne	s0,s2,bfc01914 <inst_error>
bfc014f4:	00000000 	nop
bfc014f8:	3c083845 	lui	t0,0x3845
bfc014fc:	35081c96 	ori	t0,t0,0x1c96
bfc01500:	01000013 	mtlo	t0
bfc01504:	00008012 	mflo	s0
bfc01508:	3c123845 	lui	s2,0x3845
bfc0150c:	36521c96 	ori	s2,s2,0x1c96
bfc01510:	16120100 	bne	s0,s2,bfc01914 <inst_error>
bfc01514:	00000000 	nop
bfc01518:	3c0890f8 	lui	t0,0x90f8
bfc0151c:	350841b0 	ori	t0,t0,0x41b0
bfc01520:	01000013 	mtlo	t0
bfc01524:	00008012 	mflo	s0
bfc01528:	3c1290f8 	lui	s2,0x90f8
bfc0152c:	365241b0 	ori	s2,s2,0x41b0
bfc01530:	161200f8 	bne	s0,s2,bfc01914 <inst_error>
bfc01534:	00000000 	nop
bfc01538:	3c08bf32 	lui	t0,0xbf32
bfc0153c:	3508daac 	ori	t0,t0,0xdaac
bfc01540:	01000013 	mtlo	t0
bfc01544:	00008012 	mflo	s0
bfc01548:	3c12bf32 	lui	s2,0xbf32
bfc0154c:	3652daac 	ori	s2,s2,0xdaac
bfc01550:	161200f0 	bne	s0,s2,bfc01914 <inst_error>
bfc01554:	00000000 	nop
bfc01558:	3c080b48 	lui	t0,0xb48
bfc0155c:	3508d9da 	ori	t0,t0,0xd9da
bfc01560:	01000013 	mtlo	t0
bfc01564:	00008012 	mflo	s0
bfc01568:	3c120b48 	lui	s2,0xb48
bfc0156c:	3652d9da 	ori	s2,s2,0xd9da
bfc01570:	161200e8 	bne	s0,s2,bfc01914 <inst_error>
bfc01574:	00000000 	nop
bfc01578:	3c08d110 	lui	t0,0xd110
bfc0157c:	350844c0 	ori	t0,t0,0x44c0
bfc01580:	01000013 	mtlo	t0
bfc01584:	00008012 	mflo	s0
bfc01588:	3c12d110 	lui	s2,0xd110
bfc0158c:	365244c0 	ori	s2,s2,0x44c0
bfc01590:	161200e0 	bne	s0,s2,bfc01914 <inst_error>
bfc01594:	00000000 	nop
bfc01598:	3c08a2c9 	lui	t0,0xa2c9
bfc0159c:	3508f890 	ori	t0,t0,0xf890
bfc015a0:	01000013 	mtlo	t0
bfc015a4:	00008012 	mflo	s0
bfc015a8:	3c12a2c9 	lui	s2,0xa2c9
bfc015ac:	3652f890 	ori	s2,s2,0xf890
bfc015b0:	161200d8 	bne	s0,s2,bfc01914 <inst_error>
bfc015b4:	00000000 	nop
bfc015b8:	3c08dd33 	lui	t0,0xdd33
bfc015bc:	35088118 	ori	t0,t0,0x8118
bfc015c0:	01000013 	mtlo	t0
bfc015c4:	00008012 	mflo	s0
bfc015c8:	3c12dd33 	lui	s2,0xdd33
bfc015cc:	36528118 	ori	s2,s2,0x8118
bfc015d0:	161200d0 	bne	s0,s2,bfc01914 <inst_error>
bfc015d4:	00000000 	nop
bfc015d8:	3c087cba 	lui	t0,0x7cba
bfc015dc:	35089c60 	ori	t0,t0,0x9c60
bfc015e0:	01000013 	mtlo	t0
bfc015e4:	00008012 	mflo	s0
bfc015e8:	3c127cba 	lui	s2,0x7cba
bfc015ec:	36529c60 	ori	s2,s2,0x9c60
bfc015f0:	161200c8 	bne	s0,s2,bfc01914 <inst_error>
bfc015f4:	00000000 	nop
bfc015f8:	3c08273a 	lui	t0,0x273a
bfc015fc:	350838c8 	ori	t0,t0,0x38c8
bfc01600:	01000013 	mtlo	t0
bfc01604:	00008012 	mflo	s0
bfc01608:	3c12273a 	lui	s2,0x273a
bfc0160c:	365238c8 	ori	s2,s2,0x38c8
bfc01610:	161200c0 	bne	s0,s2,bfc01914 <inst_error>
bfc01614:	00000000 	nop
bfc01618:	3c0817b3 	lui	t0,0x17b3
bfc0161c:	35084198 	ori	t0,t0,0x4198
bfc01620:	01000013 	mtlo	t0
bfc01624:	00008012 	mflo	s0
bfc01628:	3c1217b3 	lui	s2,0x17b3
bfc0162c:	36524198 	ori	s2,s2,0x4198
bfc01630:	161200b8 	bne	s0,s2,bfc01914 <inst_error>
bfc01634:	00000000 	nop
bfc01638:	3c087695 	lui	t0,0x7695
bfc0163c:	3508caff 	ori	t0,t0,0xcaff
bfc01640:	01000013 	mtlo	t0
bfc01644:	00008012 	mflo	s0
bfc01648:	3c127695 	lui	s2,0x7695
bfc0164c:	3652caff 	ori	s2,s2,0xcaff
bfc01650:	161200b0 	bne	s0,s2,bfc01914 <inst_error>
bfc01654:	00000000 	nop
bfc01658:	3c08eb49 	lui	t0,0xeb49
bfc0165c:	35080042 	ori	t0,t0,0x42
bfc01660:	01000013 	mtlo	t0
bfc01664:	00008012 	mflo	s0
bfc01668:	3c12eb49 	lui	s2,0xeb49
bfc0166c:	36520042 	ori	s2,s2,0x42
bfc01670:	161200a8 	bne	s0,s2,bfc01914 <inst_error>
bfc01674:	00000000 	nop
bfc01678:	3c08245f 	lui	t0,0x245f
bfc0167c:	35084617 	ori	t0,t0,0x4617
bfc01680:	01000013 	mtlo	t0
bfc01684:	00008012 	mflo	s0
bfc01688:	3c12245f 	lui	s2,0x245f
bfc0168c:	36524617 	ori	s2,s2,0x4617
bfc01690:	161200a0 	bne	s0,s2,bfc01914 <inst_error>
bfc01694:	00000000 	nop
bfc01698:	3c0889f4 	lui	t0,0x89f4
bfc0169c:	3508294a 	ori	t0,t0,0x294a
bfc016a0:	01000013 	mtlo	t0
bfc016a4:	00008012 	mflo	s0
bfc016a8:	3c1289f4 	lui	s2,0x89f4
bfc016ac:	3652294a 	ori	s2,s2,0x294a
bfc016b0:	16120098 	bne	s0,s2,bfc01914 <inst_error>
bfc016b4:	00000000 	nop
bfc016b8:	3c08ef3c 	lui	t0,0xef3c
bfc016bc:	3508c814 	ori	t0,t0,0xc814
bfc016c0:	01000013 	mtlo	t0
bfc016c4:	00008012 	mflo	s0
bfc016c8:	3c12ef3c 	lui	s2,0xef3c
bfc016cc:	3652c814 	ori	s2,s2,0xc814
bfc016d0:	16120090 	bne	s0,s2,bfc01914 <inst_error>
bfc016d4:	00000000 	nop
bfc016d8:	3c084aa2 	lui	t0,0x4aa2
bfc016dc:	35085840 	ori	t0,t0,0x5840
bfc016e0:	01000013 	mtlo	t0
bfc016e4:	00008012 	mflo	s0
bfc016e8:	3c124aa2 	lui	s2,0x4aa2
bfc016ec:	36525840 	ori	s2,s2,0x5840
bfc016f0:	16120088 	bne	s0,s2,bfc01914 <inst_error>
bfc016f4:	00000000 	nop
bfc016f8:	3c083831 	lui	t0,0x3831
bfc016fc:	35082b80 	ori	t0,t0,0x2b80
bfc01700:	01000013 	mtlo	t0
bfc01704:	00008012 	mflo	s0
bfc01708:	3c123831 	lui	s2,0x3831
bfc0170c:	36522b80 	ori	s2,s2,0x2b80
bfc01710:	16120080 	bne	s0,s2,bfc01914 <inst_error>
bfc01714:	00000000 	nop
bfc01718:	3c08c735 	lui	t0,0xc735
bfc0171c:	3508a61a 	ori	t0,t0,0xa61a
bfc01720:	01000013 	mtlo	t0
bfc01724:	00008012 	mflo	s0
bfc01728:	3c12c735 	lui	s2,0xc735
bfc0172c:	3652a61a 	ori	s2,s2,0xa61a
bfc01730:	16120078 	bne	s0,s2,bfc01914 <inst_error>
bfc01734:	00000000 	nop
bfc01738:	3c082125 	lui	t0,0x2125
bfc0173c:	35089636 	ori	t0,t0,0x9636
bfc01740:	01000013 	mtlo	t0
bfc01744:	00008012 	mflo	s0
bfc01748:	3c122125 	lui	s2,0x2125
bfc0174c:	36529636 	ori	s2,s2,0x9636
bfc01750:	16120070 	bne	s0,s2,bfc01914 <inst_error>
bfc01754:	00000000 	nop
bfc01758:	3c086cbb 	lui	t0,0x6cbb
bfc0175c:	3508c948 	ori	t0,t0,0xc948
bfc01760:	01000013 	mtlo	t0
bfc01764:	00008012 	mflo	s0
bfc01768:	3c126cbb 	lui	s2,0x6cbb
bfc0176c:	3652c948 	ori	s2,s2,0xc948
bfc01770:	16120068 	bne	s0,s2,bfc01914 <inst_error>
bfc01774:	00000000 	nop
bfc01778:	3c08db42 	lui	t0,0xdb42
bfc0177c:	350825c8 	ori	t0,t0,0x25c8
bfc01780:	01000013 	mtlo	t0
bfc01784:	00008012 	mflo	s0
bfc01788:	3c12db42 	lui	s2,0xdb42
bfc0178c:	365225c8 	ori	s2,s2,0x25c8
bfc01790:	16120060 	bne	s0,s2,bfc01914 <inst_error>
bfc01794:	00000000 	nop
bfc01798:	3c08090d 	lui	t0,0x90d
bfc0179c:	35082c14 	ori	t0,t0,0x2c14
bfc017a0:	01000013 	mtlo	t0
bfc017a4:	00008012 	mflo	s0
bfc017a8:	3c12090d 	lui	s2,0x90d
bfc017ac:	36522c14 	ori	s2,s2,0x2c14
bfc017b0:	16120058 	bne	s0,s2,bfc01914 <inst_error>
bfc017b4:	00000000 	nop
bfc017b8:	3c08a1f9 	lui	t0,0xa1f9
bfc017bc:	3508a058 	ori	t0,t0,0xa058
bfc017c0:	01000013 	mtlo	t0
bfc017c4:	00008012 	mflo	s0
bfc017c8:	3c12a1f9 	lui	s2,0xa1f9
bfc017cc:	3652a058 	ori	s2,s2,0xa058
bfc017d0:	16120050 	bne	s0,s2,bfc01914 <inst_error>
bfc017d4:	00000000 	nop
bfc017d8:	3c08c692 	lui	t0,0xc692
bfc017dc:	35089c4a 	ori	t0,t0,0x9c4a
bfc017e0:	01000013 	mtlo	t0
bfc017e4:	00008012 	mflo	s0
bfc017e8:	3c12c692 	lui	s2,0xc692
bfc017ec:	36529c4a 	ori	s2,s2,0x9c4a
bfc017f0:	16120048 	bne	s0,s2,bfc01914 <inst_error>
bfc017f4:	00000000 	nop
bfc017f8:	3c08418a 	lui	t0,0x418a
bfc017fc:	35081c8b 	ori	t0,t0,0x1c8b
bfc01800:	01000013 	mtlo	t0
bfc01804:	00008012 	mflo	s0
bfc01808:	3c12418a 	lui	s2,0x418a
bfc0180c:	36521c8b 	ori	s2,s2,0x1c8b
bfc01810:	16120040 	bne	s0,s2,bfc01914 <inst_error>
bfc01814:	00000000 	nop
bfc01818:	3c0827dd 	lui	t0,0x27dd
bfc0181c:	3508ff44 	ori	t0,t0,0xff44
bfc01820:	01000013 	mtlo	t0
bfc01824:	00008012 	mflo	s0
bfc01828:	3c1227dd 	lui	s2,0x27dd
bfc0182c:	3652ff44 	ori	s2,s2,0xff44
bfc01830:	16120038 	bne	s0,s2,bfc01914 <inst_error>
bfc01834:	00000000 	nop
bfc01838:	3c08f915 	lui	t0,0xf915
bfc0183c:	350884ee 	ori	t0,t0,0x84ee
bfc01840:	01000013 	mtlo	t0
bfc01844:	00008012 	mflo	s0
bfc01848:	3c12f915 	lui	s2,0xf915
bfc0184c:	365284ee 	ori	s2,s2,0x84ee
bfc01850:	16120030 	bne	s0,s2,bfc01914 <inst_error>
bfc01854:	00000000 	nop
bfc01858:	3c0819a2 	lui	t0,0x19a2
bfc0185c:	35081b80 	ori	t0,t0,0x1b80
bfc01860:	01000013 	mtlo	t0
bfc01864:	00008012 	mflo	s0
bfc01868:	3c1219a2 	lui	s2,0x19a2
bfc0186c:	36521b80 	ori	s2,s2,0x1b80
bfc01870:	16120028 	bne	s0,s2,bfc01914 <inst_error>
bfc01874:	00000000 	nop
bfc01878:	3c08eb87 	lui	t0,0xeb87
bfc0187c:	35080570 	ori	t0,t0,0x570
bfc01880:	01000013 	mtlo	t0
bfc01884:	00008012 	mflo	s0
bfc01888:	3c12eb87 	lui	s2,0xeb87
bfc0188c:	36520570 	ori	s2,s2,0x570
bfc01890:	16120020 	bne	s0,s2,bfc01914 <inst_error>
bfc01894:	00000000 	nop
bfc01898:	3c08a1b3 	lui	t0,0xa1b3
bfc0189c:	3508d47e 	ori	t0,t0,0xd47e
bfc018a0:	01000013 	mtlo	t0
bfc018a4:	00008012 	mflo	s0
bfc018a8:	3c12a1b3 	lui	s2,0xa1b3
bfc018ac:	3652d47e 	ori	s2,s2,0xd47e
bfc018b0:	16120018 	bne	s0,s2,bfc01914 <inst_error>
bfc018b4:	00000000 	nop
bfc018b8:	3c087759 	lui	t0,0x7759
bfc018bc:	35087560 	ori	t0,t0,0x7560
bfc018c0:	01000013 	mtlo	t0
bfc018c4:	00008012 	mflo	s0
bfc018c8:	3c127759 	lui	s2,0x7759
bfc018cc:	36527560 	ori	s2,s2,0x7560
bfc018d0:	16120010 	bne	s0,s2,bfc01914 <inst_error>
bfc018d4:	00000000 	nop
bfc018d8:	3c087a82 	lui	t0,0x7a82
bfc018dc:	3508fb9e 	ori	t0,t0,0xfb9e
bfc018e0:	01000013 	mtlo	t0
bfc018e4:	00008012 	mflo	s0
bfc018e8:	3c127a82 	lui	s2,0x7a82
bfc018ec:	3652fb9e 	ori	s2,s2,0xfb9e
bfc018f0:	16120008 	bne	s0,s2,bfc01914 <inst_error>
bfc018f4:	00000000 	nop
bfc018f8:	24080000 	li	t0,0
bfc018fc:	01000013 	mtlo	t0
bfc01900:	00008012 	mflo	s0
bfc01904:	24120000 	li	s2,0
bfc01908:	16120002 	bne	s0,s2,bfc01914 <inst_error>
bfc0190c:	00000000 	nop
bfc01910:	4a000000 	c2	0x0

bfc01914 <inst_error>:
inst_error():
bfc01914:	4a000000 	c2	0x0

Disassembly of section .reginfo:

00000000 <.reginfo>:
   0:	00050100 	sll	zero,a1,0x4
	...
