
build/mtlo:     file format elf32-tradlittlemips
build/mtlo


Disassembly of section .text:

bfc00000 <main>:
bfc00000:	3c08c10d 	lui	t0,0xc10d
bfc00004:	350876f1 	ori	t0,t0,0x76f1
bfc00008:	01000013 	mtlo	t0
bfc0000c:	00008012 	mflo	s0
bfc00010:	3c12c10d 	lui	s2,0xc10d
bfc00014:	365276f1 	ori	s2,s2,0x76f1
bfc00018:	16120640 	bne	s0,s2,bfc0191c <inst_error>
bfc0001c:	00000000 	nop
bfc00020:	3c086a7f 	lui	t0,0x6a7f
bfc00024:	350852c1 	ori	t0,t0,0x52c1
bfc00028:	01000013 	mtlo	t0
bfc0002c:	00008012 	mflo	s0
bfc00030:	3c126a7f 	lui	s2,0x6a7f
bfc00034:	365252c1 	ori	s2,s2,0x52c1
bfc00038:	16120638 	bne	s0,s2,bfc0191c <inst_error>
bfc0003c:	00000000 	nop
bfc00040:	3c08b96c 	lui	t0,0xb96c
bfc00044:	350812c0 	ori	t0,t0,0x12c0
bfc00048:	01000013 	mtlo	t0
bfc0004c:	00008012 	mflo	s0
bfc00050:	3c12b96c 	lui	s2,0xb96c
bfc00054:	365212c0 	ori	s2,s2,0x12c0
bfc00058:	16120630 	bne	s0,s2,bfc0191c <inst_error>
bfc0005c:	00000000 	nop
bfc00060:	3c08922c 	lui	t0,0x922c
bfc00064:	3508b737 	ori	t0,t0,0xb737
bfc00068:	01000013 	mtlo	t0
bfc0006c:	00008012 	mflo	s0
bfc00070:	3c12922c 	lui	s2,0x922c
bfc00074:	3652b737 	ori	s2,s2,0xb737
bfc00078:	16120628 	bne	s0,s2,bfc0191c <inst_error>
bfc0007c:	00000000 	nop
bfc00080:	3c08d8f8 	lui	t0,0xd8f8
bfc00084:	350877fc 	ori	t0,t0,0x77fc
bfc00088:	01000013 	mtlo	t0
bfc0008c:	00008012 	mflo	s0
bfc00090:	3c12d8f8 	lui	s2,0xd8f8
bfc00094:	365277fc 	ori	s2,s2,0x77fc
bfc00098:	16120620 	bne	s0,s2,bfc0191c <inst_error>
bfc0009c:	00000000 	nop
bfc000a0:	3c086fdf 	lui	t0,0x6fdf
bfc000a4:	35081878 	ori	t0,t0,0x1878
bfc000a8:	01000013 	mtlo	t0
bfc000ac:	00008012 	mflo	s0
bfc000b0:	3c126fdf 	lui	s2,0x6fdf
bfc000b4:	36521878 	ori	s2,s2,0x1878
bfc000b8:	16120618 	bne	s0,s2,bfc0191c <inst_error>
bfc000bc:	00000000 	nop
bfc000c0:	3c085f76 	lui	t0,0x5f76
bfc000c4:	3508d12d 	ori	t0,t0,0xd12d
bfc000c8:	01000013 	mtlo	t0
bfc000cc:	00008012 	mflo	s0
bfc000d0:	3c125f76 	lui	s2,0x5f76
bfc000d4:	3652d12d 	ori	s2,s2,0xd12d
bfc000d8:	16120610 	bne	s0,s2,bfc0191c <inst_error>
bfc000dc:	00000000 	nop
bfc000e0:	3c0827c1 	lui	t0,0x27c1
bfc000e4:	35080798 	ori	t0,t0,0x798
bfc000e8:	01000013 	mtlo	t0
bfc000ec:	00008012 	mflo	s0
bfc000f0:	3c1227c1 	lui	s2,0x27c1
bfc000f4:	36520798 	ori	s2,s2,0x798
bfc000f8:	16120608 	bne	s0,s2,bfc0191c <inst_error>
bfc000fc:	00000000 	nop
bfc00100:	3c0883c8 	lui	t0,0x83c8
bfc00104:	3508378b 	ori	t0,t0,0x378b
bfc00108:	01000013 	mtlo	t0
bfc0010c:	00008012 	mflo	s0
bfc00110:	3c1283c8 	lui	s2,0x83c8
bfc00114:	3652378b 	ori	s2,s2,0x378b
bfc00118:	16120600 	bne	s0,s2,bfc0191c <inst_error>
bfc0011c:	00000000 	nop
bfc00120:	3c0862bb 	lui	t0,0x62bb
bfc00124:	3508439d 	ori	t0,t0,0x439d
bfc00128:	01000013 	mtlo	t0
bfc0012c:	00008012 	mflo	s0
bfc00130:	3c1262bb 	lui	s2,0x62bb
bfc00134:	3652439d 	ori	s2,s2,0x439d
bfc00138:	161205f8 	bne	s0,s2,bfc0191c <inst_error>
bfc0013c:	00000000 	nop
bfc00140:	3c084307 	lui	t0,0x4307
bfc00144:	35088560 	ori	t0,t0,0x8560
bfc00148:	01000013 	mtlo	t0
bfc0014c:	00008012 	mflo	s0
bfc00150:	3c124307 	lui	s2,0x4307
bfc00154:	36528560 	ori	s2,s2,0x8560
bfc00158:	161205f0 	bne	s0,s2,bfc0191c <inst_error>
bfc0015c:	00000000 	nop
bfc00160:	3c08a39c 	lui	t0,0xa39c
bfc00164:	35080200 	ori	t0,t0,0x200
bfc00168:	01000013 	mtlo	t0
bfc0016c:	00008012 	mflo	s0
bfc00170:	3c12a39c 	lui	s2,0xa39c
bfc00174:	36520200 	ori	s2,s2,0x200
bfc00178:	161205e8 	bne	s0,s2,bfc0191c <inst_error>
bfc0017c:	00000000 	nop
bfc00180:	3c08a15b 	lui	t0,0xa15b
bfc00184:	350859c0 	ori	t0,t0,0x59c0
bfc00188:	01000013 	mtlo	t0
bfc0018c:	00008012 	mflo	s0
bfc00190:	3c12a15b 	lui	s2,0xa15b
bfc00194:	365259c0 	ori	s2,s2,0x59c0
bfc00198:	161205e0 	bne	s0,s2,bfc0191c <inst_error>
bfc0019c:	00000000 	nop
bfc001a0:	3c089010 	lui	t0,0x9010
bfc001a4:	3508f9ac 	ori	t0,t0,0xf9ac
bfc001a8:	01000013 	mtlo	t0
bfc001ac:	00008012 	mflo	s0
bfc001b0:	3c129010 	lui	s2,0x9010
bfc001b4:	3652f9ac 	ori	s2,s2,0xf9ac
bfc001b8:	161205d8 	bne	s0,s2,bfc0191c <inst_error>
bfc001bc:	00000000 	nop
bfc001c0:	3c081a10 	lui	t0,0x1a10
bfc001c4:	350818e9 	ori	t0,t0,0x18e9
bfc001c8:	01000013 	mtlo	t0
bfc001cc:	00008012 	mflo	s0
bfc001d0:	3c121a10 	lui	s2,0x1a10
bfc001d4:	365218e9 	ori	s2,s2,0x18e9
bfc001d8:	161205d0 	bne	s0,s2,bfc0191c <inst_error>
bfc001dc:	00000000 	nop
bfc001e0:	3c082481 	lui	t0,0x2481
bfc001e4:	3508262b 	ori	t0,t0,0x262b
bfc001e8:	01000013 	mtlo	t0
bfc001ec:	00008012 	mflo	s0
bfc001f0:	3c122481 	lui	s2,0x2481
bfc001f4:	3652262b 	ori	s2,s2,0x262b
bfc001f8:	161205c8 	bne	s0,s2,bfc0191c <inst_error>
bfc001fc:	00000000 	nop
bfc00200:	3c08c969 	lui	t0,0xc969
bfc00204:	3508cb90 	ori	t0,t0,0xcb90
bfc00208:	01000013 	mtlo	t0
bfc0020c:	00008012 	mflo	s0
bfc00210:	3c12c969 	lui	s2,0xc969
bfc00214:	3652cb90 	ori	s2,s2,0xcb90
bfc00218:	161205c0 	bne	s0,s2,bfc0191c <inst_error>
bfc0021c:	00000000 	nop
bfc00220:	3c08dbf1 	lui	t0,0xdbf1
bfc00224:	3508fb66 	ori	t0,t0,0xfb66
bfc00228:	01000013 	mtlo	t0
bfc0022c:	00008012 	mflo	s0
bfc00230:	3c12dbf1 	lui	s2,0xdbf1
bfc00234:	3652fb66 	ori	s2,s2,0xfb66
bfc00238:	161205b8 	bne	s0,s2,bfc0191c <inst_error>
bfc0023c:	00000000 	nop
bfc00240:	3c089a56 	lui	t0,0x9a56
bfc00244:	3508cef0 	ori	t0,t0,0xcef0
bfc00248:	01000013 	mtlo	t0
bfc0024c:	00008012 	mflo	s0
bfc00250:	3c129a56 	lui	s2,0x9a56
bfc00254:	3652cef0 	ori	s2,s2,0xcef0
bfc00258:	161205b0 	bne	s0,s2,bfc0191c <inst_error>
bfc0025c:	00000000 	nop
bfc00260:	3c087791 	lui	t0,0x7791
bfc00264:	350842c4 	ori	t0,t0,0x42c4
bfc00268:	01000013 	mtlo	t0
bfc0026c:	00008012 	mflo	s0
bfc00270:	3c127791 	lui	s2,0x7791
bfc00274:	365242c4 	ori	s2,s2,0x42c4
bfc00278:	161205a8 	bne	s0,s2,bfc0191c <inst_error>
bfc0027c:	00000000 	nop
bfc00280:	3c08346b 	lui	t0,0x346b
bfc00284:	3508a966 	ori	t0,t0,0xa966
bfc00288:	01000013 	mtlo	t0
bfc0028c:	00008012 	mflo	s0
bfc00290:	3c12346b 	lui	s2,0x346b
bfc00294:	3652a966 	ori	s2,s2,0xa966
bfc00298:	161205a0 	bne	s0,s2,bfc0191c <inst_error>
bfc0029c:	00000000 	nop
bfc002a0:	3c083178 	lui	t0,0x3178
bfc002a4:	35081768 	ori	t0,t0,0x1768
bfc002a8:	01000013 	mtlo	t0
bfc002ac:	00008012 	mflo	s0
bfc002b0:	3c123178 	lui	s2,0x3178
bfc002b4:	36521768 	ori	s2,s2,0x1768
bfc002b8:	16120598 	bne	s0,s2,bfc0191c <inst_error>
bfc002bc:	00000000 	nop
bfc002c0:	3c08059e 	lui	t0,0x59e
bfc002c4:	3508c06c 	ori	t0,t0,0xc06c
bfc002c8:	01000013 	mtlo	t0
bfc002cc:	00008012 	mflo	s0
bfc002d0:	3c12059e 	lui	s2,0x59e
bfc002d4:	3652c06c 	ori	s2,s2,0xc06c
bfc002d8:	16120590 	bne	s0,s2,bfc0191c <inst_error>
bfc002dc:	00000000 	nop
bfc002e0:	3c08f8b4 	lui	t0,0xf8b4
bfc002e4:	3508e6e0 	ori	t0,t0,0xe6e0
bfc002e8:	01000013 	mtlo	t0
bfc002ec:	00008012 	mflo	s0
bfc002f0:	3c12f8b4 	lui	s2,0xf8b4
bfc002f4:	3652e6e0 	ori	s2,s2,0xe6e0
bfc002f8:	16120588 	bne	s0,s2,bfc0191c <inst_error>
bfc002fc:	00000000 	nop
bfc00300:	3c08e7ab 	lui	t0,0xe7ab
bfc00304:	3508df10 	ori	t0,t0,0xdf10
bfc00308:	01000013 	mtlo	t0
bfc0030c:	00008012 	mflo	s0
bfc00310:	3c12e7ab 	lui	s2,0xe7ab
bfc00314:	3652df10 	ori	s2,s2,0xdf10
bfc00318:	16120580 	bne	s0,s2,bfc0191c <inst_error>
bfc0031c:	00000000 	nop
bfc00320:	3c085876 	lui	t0,0x5876
bfc00324:	3508a580 	ori	t0,t0,0xa580
bfc00328:	01000013 	mtlo	t0
bfc0032c:	00008012 	mflo	s0
bfc00330:	3c125876 	lui	s2,0x5876
bfc00334:	3652a580 	ori	s2,s2,0xa580
bfc00338:	16120578 	bne	s0,s2,bfc0191c <inst_error>
bfc0033c:	00000000 	nop
bfc00340:	3c080f99 	lui	t0,0xf99
bfc00344:	3508f508 	ori	t0,t0,0xf508
bfc00348:	01000013 	mtlo	t0
bfc0034c:	00008012 	mflo	s0
bfc00350:	3c120f99 	lui	s2,0xf99
bfc00354:	3652f508 	ori	s2,s2,0xf508
bfc00358:	16120570 	bne	s0,s2,bfc0191c <inst_error>
bfc0035c:	00000000 	nop
bfc00360:	3c0851d1 	lui	t0,0x51d1
bfc00364:	35080180 	ori	t0,t0,0x180
bfc00368:	01000013 	mtlo	t0
bfc0036c:	00008012 	mflo	s0
bfc00370:	3c1251d1 	lui	s2,0x51d1
bfc00374:	36520180 	ori	s2,s2,0x180
bfc00378:	16120568 	bne	s0,s2,bfc0191c <inst_error>
bfc0037c:	00000000 	nop
bfc00380:	3c085fbf 	lui	t0,0x5fbf
bfc00384:	3508a69c 	ori	t0,t0,0xa69c
bfc00388:	01000013 	mtlo	t0
bfc0038c:	00008012 	mflo	s0
bfc00390:	3c125fbf 	lui	s2,0x5fbf
bfc00394:	3652a69c 	ori	s2,s2,0xa69c
bfc00398:	16120560 	bne	s0,s2,bfc0191c <inst_error>
bfc0039c:	00000000 	nop
bfc003a0:	3c085879 	lui	t0,0x5879
bfc003a4:	35087692 	ori	t0,t0,0x7692
bfc003a8:	01000013 	mtlo	t0
bfc003ac:	00008012 	mflo	s0
bfc003b0:	3c125879 	lui	s2,0x5879
bfc003b4:	36527692 	ori	s2,s2,0x7692
bfc003b8:	16120558 	bne	s0,s2,bfc0191c <inst_error>
bfc003bc:	00000000 	nop
bfc003c0:	3c080f1b 	lui	t0,0xf1b
bfc003c4:	3508deb0 	ori	t0,t0,0xdeb0
bfc003c8:	01000013 	mtlo	t0
bfc003cc:	00008012 	mflo	s0
bfc003d0:	3c120f1b 	lui	s2,0xf1b
bfc003d4:	3652deb0 	ori	s2,s2,0xdeb0
bfc003d8:	16120550 	bne	s0,s2,bfc0191c <inst_error>
bfc003dc:	00000000 	nop
bfc003e0:	3c08a64b 	lui	t0,0xa64b
bfc003e4:	350898f4 	ori	t0,t0,0x98f4
bfc003e8:	01000013 	mtlo	t0
bfc003ec:	00008012 	mflo	s0
bfc003f0:	3c12a64b 	lui	s2,0xa64b
bfc003f4:	365298f4 	ori	s2,s2,0x98f4
bfc003f8:	16120548 	bne	s0,s2,bfc0191c <inst_error>
bfc003fc:	00000000 	nop
bfc00400:	3c08907e 	lui	t0,0x907e
bfc00404:	3508b570 	ori	t0,t0,0xb570
bfc00408:	01000013 	mtlo	t0
bfc0040c:	00008012 	mflo	s0
bfc00410:	3c12907e 	lui	s2,0x907e
bfc00414:	3652b570 	ori	s2,s2,0xb570
bfc00418:	16120540 	bne	s0,s2,bfc0191c <inst_error>
bfc0041c:	00000000 	nop
bfc00420:	3c0875cf 	lui	t0,0x75cf
bfc00424:	35088e5b 	ori	t0,t0,0x8e5b
bfc00428:	01000013 	mtlo	t0
bfc0042c:	00008012 	mflo	s0
bfc00430:	3c1275cf 	lui	s2,0x75cf
bfc00434:	36528e5b 	ori	s2,s2,0x8e5b
bfc00438:	16120538 	bne	s0,s2,bfc0191c <inst_error>
bfc0043c:	00000000 	nop
bfc00440:	3c08a598 	lui	t0,0xa598
bfc00444:	35087b6d 	ori	t0,t0,0x7b6d
bfc00448:	01000013 	mtlo	t0
bfc0044c:	00008012 	mflo	s0
bfc00450:	3c12a598 	lui	s2,0xa598
bfc00454:	36527b6d 	ori	s2,s2,0x7b6d
bfc00458:	16120530 	bne	s0,s2,bfc0191c <inst_error>
bfc0045c:	00000000 	nop
bfc00460:	3c080968 	lui	t0,0x968
bfc00464:	35080359 	ori	t0,t0,0x359
bfc00468:	01000013 	mtlo	t0
bfc0046c:	00008012 	mflo	s0
bfc00470:	3c120968 	lui	s2,0x968
bfc00474:	36520359 	ori	s2,s2,0x359
bfc00478:	16120528 	bne	s0,s2,bfc0191c <inst_error>
bfc0047c:	00000000 	nop
bfc00480:	3c08442c 	lui	t0,0x442c
bfc00484:	3508841e 	ori	t0,t0,0x841e
bfc00488:	01000013 	mtlo	t0
bfc0048c:	00008012 	mflo	s0
bfc00490:	3c12442c 	lui	s2,0x442c
bfc00494:	3652841e 	ori	s2,s2,0x841e
bfc00498:	16120520 	bne	s0,s2,bfc0191c <inst_error>
bfc0049c:	00000000 	nop
bfc004a0:	3c087d6e 	lui	t0,0x7d6e
bfc004a4:	3508f3ac 	ori	t0,t0,0xf3ac
bfc004a8:	01000013 	mtlo	t0
bfc004ac:	00008012 	mflo	s0
bfc004b0:	3c127d6e 	lui	s2,0x7d6e
bfc004b4:	3652f3ac 	ori	s2,s2,0xf3ac
bfc004b8:	16120518 	bne	s0,s2,bfc0191c <inst_error>
bfc004bc:	00000000 	nop
bfc004c0:	3c08ddd0 	lui	t0,0xddd0
bfc004c4:	3508e8d8 	ori	t0,t0,0xe8d8
bfc004c8:	01000013 	mtlo	t0
bfc004cc:	00008012 	mflo	s0
bfc004d0:	3c12ddd0 	lui	s2,0xddd0
bfc004d4:	3652e8d8 	ori	s2,s2,0xe8d8
bfc004d8:	16120510 	bne	s0,s2,bfc0191c <inst_error>
bfc004dc:	00000000 	nop
bfc004e0:	3c08cd39 	lui	t0,0xcd39
bfc004e4:	3508e268 	ori	t0,t0,0xe268
bfc004e8:	01000013 	mtlo	t0
bfc004ec:	00008012 	mflo	s0
bfc004f0:	3c12cd39 	lui	s2,0xcd39
bfc004f4:	3652e268 	ori	s2,s2,0xe268
bfc004f8:	16120508 	bne	s0,s2,bfc0191c <inst_error>
bfc004fc:	00000000 	nop
bfc00500:	3c08cfcc 	lui	t0,0xcfcc
bfc00504:	35087012 	ori	t0,t0,0x7012
bfc00508:	01000013 	mtlo	t0
bfc0050c:	00008012 	mflo	s0
bfc00510:	3c12cfcc 	lui	s2,0xcfcc
bfc00514:	36527012 	ori	s2,s2,0x7012
bfc00518:	16120500 	bne	s0,s2,bfc0191c <inst_error>
bfc0051c:	00000000 	nop
bfc00520:	3c0814a7 	lui	t0,0x14a7
bfc00524:	3508a300 	ori	t0,t0,0xa300
bfc00528:	01000013 	mtlo	t0
bfc0052c:	00008012 	mflo	s0
bfc00530:	3c1214a7 	lui	s2,0x14a7
bfc00534:	3652a300 	ori	s2,s2,0xa300
bfc00538:	161204f8 	bne	s0,s2,bfc0191c <inst_error>
bfc0053c:	00000000 	nop
bfc00540:	3c08f6d0 	lui	t0,0xf6d0
bfc00544:	3508eafa 	ori	t0,t0,0xeafa
bfc00548:	01000013 	mtlo	t0
bfc0054c:	00008012 	mflo	s0
bfc00550:	3c12f6d0 	lui	s2,0xf6d0
bfc00554:	3652eafa 	ori	s2,s2,0xeafa
bfc00558:	161204f0 	bne	s0,s2,bfc0191c <inst_error>
bfc0055c:	00000000 	nop
bfc00560:	3c088865 	lui	t0,0x8865
bfc00564:	35082e00 	ori	t0,t0,0x2e00
bfc00568:	01000013 	mtlo	t0
bfc0056c:	00008012 	mflo	s0
bfc00570:	3c128865 	lui	s2,0x8865
bfc00574:	36522e00 	ori	s2,s2,0x2e00
bfc00578:	161204e8 	bne	s0,s2,bfc0191c <inst_error>
bfc0057c:	00000000 	nop
bfc00580:	3c0843f5 	lui	t0,0x43f5
bfc00584:	35083fbf 	ori	t0,t0,0x3fbf
bfc00588:	01000013 	mtlo	t0
bfc0058c:	00008012 	mflo	s0
bfc00590:	3c1243f5 	lui	s2,0x43f5
bfc00594:	36523fbf 	ori	s2,s2,0x3fbf
bfc00598:	161204e0 	bne	s0,s2,bfc0191c <inst_error>
bfc0059c:	00000000 	nop
bfc005a0:	3c085862 	lui	t0,0x5862
bfc005a4:	3508c2a8 	ori	t0,t0,0xc2a8
bfc005a8:	01000013 	mtlo	t0
bfc005ac:	00008012 	mflo	s0
bfc005b0:	3c125862 	lui	s2,0x5862
bfc005b4:	3652c2a8 	ori	s2,s2,0xc2a8
bfc005b8:	161204d8 	bne	s0,s2,bfc0191c <inst_error>
bfc005bc:	00000000 	nop
bfc005c0:	3c0807f1 	lui	t0,0x7f1
bfc005c4:	3508333a 	ori	t0,t0,0x333a
bfc005c8:	01000013 	mtlo	t0
bfc005cc:	00008012 	mflo	s0
bfc005d0:	3c1207f1 	lui	s2,0x7f1
bfc005d4:	3652333a 	ori	s2,s2,0x333a
bfc005d8:	161204d0 	bne	s0,s2,bfc0191c <inst_error>
bfc005dc:	00000000 	nop
bfc005e0:	3c083c01 	lui	t0,0x3c01
bfc005e4:	350809a9 	ori	t0,t0,0x9a9
bfc005e8:	01000013 	mtlo	t0
bfc005ec:	00008012 	mflo	s0
bfc005f0:	3c123c01 	lui	s2,0x3c01
bfc005f4:	365209a9 	ori	s2,s2,0x9a9
bfc005f8:	161204c8 	bne	s0,s2,bfc0191c <inst_error>
bfc005fc:	00000000 	nop
bfc00600:	3c08e78d 	lui	t0,0xe78d
bfc00604:	35087108 	ori	t0,t0,0x7108
bfc00608:	01000013 	mtlo	t0
bfc0060c:	00008012 	mflo	s0
bfc00610:	3c12e78d 	lui	s2,0xe78d
bfc00614:	36527108 	ori	s2,s2,0x7108
bfc00618:	161204c0 	bne	s0,s2,bfc0191c <inst_error>
bfc0061c:	00000000 	nop
bfc00620:	3c086fb5 	lui	t0,0x6fb5
bfc00624:	3508f934 	ori	t0,t0,0xf934
bfc00628:	01000013 	mtlo	t0
bfc0062c:	00008012 	mflo	s0
bfc00630:	3c126fb5 	lui	s2,0x6fb5
bfc00634:	3652f934 	ori	s2,s2,0xf934
bfc00638:	161204b8 	bne	s0,s2,bfc0191c <inst_error>
bfc0063c:	00000000 	nop
bfc00640:	3c08a252 	lui	t0,0xa252
bfc00644:	350893e0 	ori	t0,t0,0x93e0
bfc00648:	01000013 	mtlo	t0
bfc0064c:	00008012 	mflo	s0
bfc00650:	3c12a252 	lui	s2,0xa252
bfc00654:	365293e0 	ori	s2,s2,0x93e0
bfc00658:	161204b0 	bne	s0,s2,bfc0191c <inst_error>
bfc0065c:	00000000 	nop
bfc00660:	3c080cea 	lui	t0,0xcea
bfc00664:	35085e2c 	ori	t0,t0,0x5e2c
bfc00668:	01000013 	mtlo	t0
bfc0066c:	00008012 	mflo	s0
bfc00670:	3c120cea 	lui	s2,0xcea
bfc00674:	36525e2c 	ori	s2,s2,0x5e2c
bfc00678:	161204a8 	bne	s0,s2,bfc0191c <inst_error>
bfc0067c:	00000000 	nop
bfc00680:	3c08d215 	lui	t0,0xd215
bfc00684:	350883a9 	ori	t0,t0,0x83a9
bfc00688:	01000013 	mtlo	t0
bfc0068c:	00008012 	mflo	s0
bfc00690:	3c12d215 	lui	s2,0xd215
bfc00694:	365283a9 	ori	s2,s2,0x83a9
bfc00698:	161204a0 	bne	s0,s2,bfc0191c <inst_error>
bfc0069c:	00000000 	nop
bfc006a0:	3c089974 	lui	t0,0x9974
bfc006a4:	3508d2c0 	ori	t0,t0,0xd2c0
bfc006a8:	01000013 	mtlo	t0
bfc006ac:	00008012 	mflo	s0
bfc006b0:	3c129974 	lui	s2,0x9974
bfc006b4:	3652d2c0 	ori	s2,s2,0xd2c0
bfc006b8:	16120498 	bne	s0,s2,bfc0191c <inst_error>
bfc006bc:	00000000 	nop
bfc006c0:	3c084be0 	lui	t0,0x4be0
bfc006c4:	3508de04 	ori	t0,t0,0xde04
bfc006c8:	01000013 	mtlo	t0
bfc006cc:	00008012 	mflo	s0
bfc006d0:	3c124be0 	lui	s2,0x4be0
bfc006d4:	3652de04 	ori	s2,s2,0xde04
bfc006d8:	16120490 	bne	s0,s2,bfc0191c <inst_error>
bfc006dc:	00000000 	nop
bfc006e0:	3c08e202 	lui	t0,0xe202
bfc006e4:	3508d688 	ori	t0,t0,0xd688
bfc006e8:	01000013 	mtlo	t0
bfc006ec:	00008012 	mflo	s0
bfc006f0:	3c12e202 	lui	s2,0xe202
bfc006f4:	3652d688 	ori	s2,s2,0xd688
bfc006f8:	16120488 	bne	s0,s2,bfc0191c <inst_error>
bfc006fc:	00000000 	nop
bfc00700:	3c087721 	lui	t0,0x7721
bfc00704:	3508dd70 	ori	t0,t0,0xdd70
bfc00708:	01000013 	mtlo	t0
bfc0070c:	00008012 	mflo	s0
bfc00710:	3c127721 	lui	s2,0x7721
bfc00714:	3652dd70 	ori	s2,s2,0xdd70
bfc00718:	16120480 	bne	s0,s2,bfc0191c <inst_error>
bfc0071c:	00000000 	nop
bfc00720:	3c08eea0 	lui	t0,0xeea0
bfc00724:	3508eb80 	ori	t0,t0,0xeb80
bfc00728:	01000013 	mtlo	t0
bfc0072c:	00008012 	mflo	s0
bfc00730:	3c12eea0 	lui	s2,0xeea0
bfc00734:	3652eb80 	ori	s2,s2,0xeb80
bfc00738:	16120478 	bne	s0,s2,bfc0191c <inst_error>
bfc0073c:	00000000 	nop
bfc00740:	3c0827ce 	lui	t0,0x27ce
bfc00744:	35082d80 	ori	t0,t0,0x2d80
bfc00748:	01000013 	mtlo	t0
bfc0074c:	00008012 	mflo	s0
bfc00750:	3c1227ce 	lui	s2,0x27ce
bfc00754:	36522d80 	ori	s2,s2,0x2d80
bfc00758:	16120470 	bne	s0,s2,bfc0191c <inst_error>
bfc0075c:	00000000 	nop
bfc00760:	3c082212 	lui	t0,0x2212
bfc00764:	350810de 	ori	t0,t0,0x10de
bfc00768:	01000013 	mtlo	t0
bfc0076c:	00008012 	mflo	s0
bfc00770:	3c122212 	lui	s2,0x2212
bfc00774:	365210de 	ori	s2,s2,0x10de
bfc00778:	16120468 	bne	s0,s2,bfc0191c <inst_error>
bfc0077c:	00000000 	nop
bfc00780:	3c08adfe 	lui	t0,0xadfe
bfc00784:	35082084 	ori	t0,t0,0x2084
bfc00788:	01000013 	mtlo	t0
bfc0078c:	00008012 	mflo	s0
bfc00790:	3c12adfe 	lui	s2,0xadfe
bfc00794:	36522084 	ori	s2,s2,0x2084
bfc00798:	16120460 	bne	s0,s2,bfc0191c <inst_error>
bfc0079c:	00000000 	nop
bfc007a0:	3c0860c1 	lui	t0,0x60c1
bfc007a4:	35084900 	ori	t0,t0,0x4900
bfc007a8:	01000013 	mtlo	t0
bfc007ac:	00008012 	mflo	s0
bfc007b0:	3c1260c1 	lui	s2,0x60c1
bfc007b4:	36524900 	ori	s2,s2,0x4900
bfc007b8:	16120458 	bne	s0,s2,bfc0191c <inst_error>
bfc007bc:	00000000 	nop
bfc007c0:	3c08e709 	lui	t0,0xe709
bfc007c4:	3508b380 	ori	t0,t0,0xb380
bfc007c8:	01000013 	mtlo	t0
bfc007cc:	00008012 	mflo	s0
bfc007d0:	3c12e709 	lui	s2,0xe709
bfc007d4:	3652b380 	ori	s2,s2,0xb380
bfc007d8:	16120450 	bne	s0,s2,bfc0191c <inst_error>
bfc007dc:	00000000 	nop
bfc007e0:	3c08a25a 	lui	t0,0xa25a
bfc007e4:	35083204 	ori	t0,t0,0x3204
bfc007e8:	01000013 	mtlo	t0
bfc007ec:	00008012 	mflo	s0
bfc007f0:	3c12a25a 	lui	s2,0xa25a
bfc007f4:	36523204 	ori	s2,s2,0x3204
bfc007f8:	16120448 	bne	s0,s2,bfc0191c <inst_error>
bfc007fc:	00000000 	nop
bfc00800:	3c082ec2 	lui	t0,0x2ec2
bfc00804:	3508bd00 	ori	t0,t0,0xbd00
bfc00808:	01000013 	mtlo	t0
bfc0080c:	00008012 	mflo	s0
bfc00810:	3c122ec2 	lui	s2,0x2ec2
bfc00814:	3652bd00 	ori	s2,s2,0xbd00
bfc00818:	16120440 	bne	s0,s2,bfc0191c <inst_error>
bfc0081c:	00000000 	nop
bfc00820:	3c084926 	lui	t0,0x4926
bfc00824:	3508c711 	ori	t0,t0,0xc711
bfc00828:	01000013 	mtlo	t0
bfc0082c:	00008012 	mflo	s0
bfc00830:	3c124926 	lui	s2,0x4926
bfc00834:	3652c711 	ori	s2,s2,0xc711
bfc00838:	16120438 	bne	s0,s2,bfc0191c <inst_error>
bfc0083c:	00000000 	nop
bfc00840:	3c08455c 	lui	t0,0x455c
bfc00844:	35080b90 	ori	t0,t0,0xb90
bfc00848:	01000013 	mtlo	t0
bfc0084c:	00008012 	mflo	s0
bfc00850:	3c12455c 	lui	s2,0x455c
bfc00854:	36520b90 	ori	s2,s2,0xb90
bfc00858:	16120430 	bne	s0,s2,bfc0191c <inst_error>
bfc0085c:	00000000 	nop
bfc00860:	3c0835f2 	lui	t0,0x35f2
bfc00864:	35085570 	ori	t0,t0,0x5570
bfc00868:	01000013 	mtlo	t0
bfc0086c:	00008012 	mflo	s0
bfc00870:	3c1235f2 	lui	s2,0x35f2
bfc00874:	36525570 	ori	s2,s2,0x5570
bfc00878:	16120428 	bne	s0,s2,bfc0191c <inst_error>
bfc0087c:	00000000 	nop
bfc00880:	3c08e450 	lui	t0,0xe450
bfc00884:	3508b640 	ori	t0,t0,0xb640
bfc00888:	01000013 	mtlo	t0
bfc0088c:	00008012 	mflo	s0
bfc00890:	3c12e450 	lui	s2,0xe450
bfc00894:	3652b640 	ori	s2,s2,0xb640
bfc00898:	16120420 	bne	s0,s2,bfc0191c <inst_error>
bfc0089c:	00000000 	nop
bfc008a0:	3c086d67 	lui	t0,0x6d67
bfc008a4:	350857fa 	ori	t0,t0,0x57fa
bfc008a8:	01000013 	mtlo	t0
bfc008ac:	00008012 	mflo	s0
bfc008b0:	3c126d67 	lui	s2,0x6d67
bfc008b4:	365257fa 	ori	s2,s2,0x57fa
bfc008b8:	16120418 	bne	s0,s2,bfc0191c <inst_error>
bfc008bc:	00000000 	nop
bfc008c0:	3c083f5e 	lui	t0,0x3f5e
bfc008c4:	3508532c 	ori	t0,t0,0x532c
bfc008c8:	01000013 	mtlo	t0
bfc008cc:	00008012 	mflo	s0
bfc008d0:	3c123f5e 	lui	s2,0x3f5e
bfc008d4:	3652532c 	ori	s2,s2,0x532c
bfc008d8:	16120410 	bne	s0,s2,bfc0191c <inst_error>
bfc008dc:	00000000 	nop
bfc008e0:	3c08aaad 	lui	t0,0xaaad
bfc008e4:	35087566 	ori	t0,t0,0x7566
bfc008e8:	01000013 	mtlo	t0
bfc008ec:	00008012 	mflo	s0
bfc008f0:	3c12aaad 	lui	s2,0xaaad
bfc008f4:	36527566 	ori	s2,s2,0x7566
bfc008f8:	16120408 	bne	s0,s2,bfc0191c <inst_error>
bfc008fc:	00000000 	nop
bfc00900:	3c08c9ee 	lui	t0,0xc9ee
bfc00904:	3508d0e0 	ori	t0,t0,0xd0e0
bfc00908:	01000013 	mtlo	t0
bfc0090c:	00008012 	mflo	s0
bfc00910:	3c12c9ee 	lui	s2,0xc9ee
bfc00914:	3652d0e0 	ori	s2,s2,0xd0e0
bfc00918:	16120400 	bne	s0,s2,bfc0191c <inst_error>
bfc0091c:	00000000 	nop
bfc00920:	3c084e4e 	lui	t0,0x4e4e
bfc00924:	350890f8 	ori	t0,t0,0x90f8
bfc00928:	01000013 	mtlo	t0
bfc0092c:	00008012 	mflo	s0
bfc00930:	3c124e4e 	lui	s2,0x4e4e
bfc00934:	365290f8 	ori	s2,s2,0x90f8
bfc00938:	161203f8 	bne	s0,s2,bfc0191c <inst_error>
bfc0093c:	00000000 	nop
bfc00940:	3c08b726 	lui	t0,0xb726
bfc00944:	35087010 	ori	t0,t0,0x7010
bfc00948:	01000013 	mtlo	t0
bfc0094c:	00008012 	mflo	s0
bfc00950:	3c12b726 	lui	s2,0xb726
bfc00954:	36527010 	ori	s2,s2,0x7010
bfc00958:	161203f0 	bne	s0,s2,bfc0191c <inst_error>
bfc0095c:	00000000 	nop
bfc00960:	3c0873dc 	lui	t0,0x73dc
bfc00964:	3508d35f 	ori	t0,t0,0xd35f
bfc00968:	01000013 	mtlo	t0
bfc0096c:	00008012 	mflo	s0
bfc00970:	3c1273dc 	lui	s2,0x73dc
bfc00974:	3652d35f 	ori	s2,s2,0xd35f
bfc00978:	161203e8 	bne	s0,s2,bfc0191c <inst_error>
bfc0097c:	00000000 	nop
bfc00980:	3c08cabd 	lui	t0,0xcabd
bfc00984:	3508ea28 	ori	t0,t0,0xea28
bfc00988:	01000013 	mtlo	t0
bfc0098c:	00008012 	mflo	s0
bfc00990:	3c12cabd 	lui	s2,0xcabd
bfc00994:	3652ea28 	ori	s2,s2,0xea28
bfc00998:	161203e0 	bne	s0,s2,bfc0191c <inst_error>
bfc0099c:	00000000 	nop
bfc009a0:	3c08368d 	lui	t0,0x368d
bfc009a4:	350832c0 	ori	t0,t0,0x32c0
bfc009a8:	01000013 	mtlo	t0
bfc009ac:	00008012 	mflo	s0
bfc009b0:	3c12368d 	lui	s2,0x368d
bfc009b4:	365232c0 	ori	s2,s2,0x32c0
bfc009b8:	161203d8 	bne	s0,s2,bfc0191c <inst_error>
bfc009bc:	00000000 	nop
bfc009c0:	3c089efd 	lui	t0,0x9efd
bfc009c4:	350847c0 	ori	t0,t0,0x47c0
bfc009c8:	01000013 	mtlo	t0
bfc009cc:	00008012 	mflo	s0
bfc009d0:	3c129efd 	lui	s2,0x9efd
bfc009d4:	365247c0 	ori	s2,s2,0x47c0
bfc009d8:	161203d0 	bne	s0,s2,bfc0191c <inst_error>
bfc009dc:	00000000 	nop
bfc009e0:	3c08f2fb 	lui	t0,0xf2fb
bfc009e4:	350820bc 	ori	t0,t0,0x20bc
bfc009e8:	01000013 	mtlo	t0
bfc009ec:	00008012 	mflo	s0
bfc009f0:	3c12f2fb 	lui	s2,0xf2fb
bfc009f4:	365220bc 	ori	s2,s2,0x20bc
bfc009f8:	161203c8 	bne	s0,s2,bfc0191c <inst_error>
bfc009fc:	00000000 	nop
bfc00a00:	3c087eb8 	lui	t0,0x7eb8
bfc00a04:	35081a10 	ori	t0,t0,0x1a10
bfc00a08:	01000013 	mtlo	t0
bfc00a0c:	00008012 	mflo	s0
bfc00a10:	3c127eb8 	lui	s2,0x7eb8
bfc00a14:	36521a10 	ori	s2,s2,0x1a10
bfc00a18:	161203c0 	bne	s0,s2,bfc0191c <inst_error>
bfc00a1c:	00000000 	nop
bfc00a20:	3c085fee 	lui	t0,0x5fee
bfc00a24:	3508c790 	ori	t0,t0,0xc790
bfc00a28:	01000013 	mtlo	t0
bfc00a2c:	00008012 	mflo	s0
bfc00a30:	3c125fee 	lui	s2,0x5fee
bfc00a34:	3652c790 	ori	s2,s2,0xc790
bfc00a38:	161203b8 	bne	s0,s2,bfc0191c <inst_error>
bfc00a3c:	00000000 	nop
bfc00a40:	3c08660a 	lui	t0,0x660a
bfc00a44:	3508d054 	ori	t0,t0,0xd054
bfc00a48:	01000013 	mtlo	t0
bfc00a4c:	00008012 	mflo	s0
bfc00a50:	3c12660a 	lui	s2,0x660a
bfc00a54:	3652d054 	ori	s2,s2,0xd054
bfc00a58:	161203b0 	bne	s0,s2,bfc0191c <inst_error>
bfc00a5c:	00000000 	nop
bfc00a60:	3c08a172 	lui	t0,0xa172
bfc00a64:	35087138 	ori	t0,t0,0x7138
bfc00a68:	01000013 	mtlo	t0
bfc00a6c:	00008012 	mflo	s0
bfc00a70:	3c12a172 	lui	s2,0xa172
bfc00a74:	36527138 	ori	s2,s2,0x7138
bfc00a78:	161203a8 	bne	s0,s2,bfc0191c <inst_error>
bfc00a7c:	00000000 	nop
bfc00a80:	3c08c485 	lui	t0,0xc485
bfc00a84:	35083f3e 	ori	t0,t0,0x3f3e
bfc00a88:	01000013 	mtlo	t0
bfc00a8c:	00008012 	mflo	s0
bfc00a90:	3c12c485 	lui	s2,0xc485
bfc00a94:	36523f3e 	ori	s2,s2,0x3f3e
bfc00a98:	161203a0 	bne	s0,s2,bfc0191c <inst_error>
bfc00a9c:	00000000 	nop
bfc00aa0:	3c089d8f 	lui	t0,0x9d8f
bfc00aa4:	35088f46 	ori	t0,t0,0x8f46
bfc00aa8:	01000013 	mtlo	t0
bfc00aac:	00008012 	mflo	s0
bfc00ab0:	3c129d8f 	lui	s2,0x9d8f
bfc00ab4:	36528f46 	ori	s2,s2,0x8f46
bfc00ab8:	16120398 	bne	s0,s2,bfc0191c <inst_error>
bfc00abc:	00000000 	nop
bfc00ac0:	3c08d86c 	lui	t0,0xd86c
bfc00ac4:	35084628 	ori	t0,t0,0x4628
bfc00ac8:	01000013 	mtlo	t0
bfc00acc:	00008012 	mflo	s0
bfc00ad0:	3c12d86c 	lui	s2,0xd86c
bfc00ad4:	36524628 	ori	s2,s2,0x4628
bfc00ad8:	16120390 	bne	s0,s2,bfc0191c <inst_error>
bfc00adc:	00000000 	nop
bfc00ae0:	3c080b40 	lui	t0,0xb40
bfc00ae4:	35086640 	ori	t0,t0,0x6640
bfc00ae8:	01000013 	mtlo	t0
bfc00aec:	00008012 	mflo	s0
bfc00af0:	3c120b40 	lui	s2,0xb40
bfc00af4:	36526640 	ori	s2,s2,0x6640
bfc00af8:	16120388 	bne	s0,s2,bfc0191c <inst_error>
bfc00afc:	00000000 	nop
bfc00b00:	3c08d1cd 	lui	t0,0xd1cd
bfc00b04:	3508f558 	ori	t0,t0,0xf558
bfc00b08:	01000013 	mtlo	t0
bfc00b0c:	00008012 	mflo	s0
bfc00b10:	3c12d1cd 	lui	s2,0xd1cd
bfc00b14:	3652f558 	ori	s2,s2,0xf558
bfc00b18:	16120380 	bne	s0,s2,bfc0191c <inst_error>
bfc00b1c:	00000000 	nop
bfc00b20:	3c08725e 	lui	t0,0x725e
bfc00b24:	3508f499 	ori	t0,t0,0xf499
bfc00b28:	01000013 	mtlo	t0
bfc00b2c:	00008012 	mflo	s0
bfc00b30:	3c12725e 	lui	s2,0x725e
bfc00b34:	3652f499 	ori	s2,s2,0xf499
bfc00b38:	16120378 	bne	s0,s2,bfc0191c <inst_error>
bfc00b3c:	00000000 	nop
bfc00b40:	3c080a78 	lui	t0,0xa78
bfc00b44:	3508947a 	ori	t0,t0,0x947a
bfc00b48:	01000013 	mtlo	t0
bfc00b4c:	00008012 	mflo	s0
bfc00b50:	3c120a78 	lui	s2,0xa78
bfc00b54:	3652947a 	ori	s2,s2,0x947a
bfc00b58:	16120370 	bne	s0,s2,bfc0191c <inst_error>
bfc00b5c:	00000000 	nop
bfc00b60:	3c084020 	lui	t0,0x4020
bfc00b64:	35086560 	ori	t0,t0,0x6560
bfc00b68:	01000013 	mtlo	t0
bfc00b6c:	00008012 	mflo	s0
bfc00b70:	3c124020 	lui	s2,0x4020
bfc00b74:	36526560 	ori	s2,s2,0x6560
bfc00b78:	16120368 	bne	s0,s2,bfc0191c <inst_error>
bfc00b7c:	00000000 	nop
bfc00b80:	3c083fd4 	lui	t0,0x3fd4
bfc00b84:	35081a90 	ori	t0,t0,0x1a90
bfc00b88:	01000013 	mtlo	t0
bfc00b8c:	00008012 	mflo	s0
bfc00b90:	3c123fd4 	lui	s2,0x3fd4
bfc00b94:	36521a90 	ori	s2,s2,0x1a90
bfc00b98:	16120360 	bne	s0,s2,bfc0191c <inst_error>
bfc00b9c:	00000000 	nop
bfc00ba0:	3c0861df 	lui	t0,0x61df
bfc00ba4:	3508f1be 	ori	t0,t0,0xf1be
bfc00ba8:	01000013 	mtlo	t0
bfc00bac:	00008012 	mflo	s0
bfc00bb0:	3c1261df 	lui	s2,0x61df
bfc00bb4:	3652f1be 	ori	s2,s2,0xf1be
bfc00bb8:	16120358 	bne	s0,s2,bfc0191c <inst_error>
bfc00bbc:	00000000 	nop
bfc00bc0:	3c083cb5 	lui	t0,0x3cb5
bfc00bc4:	35082e45 	ori	t0,t0,0x2e45
bfc00bc8:	01000013 	mtlo	t0
bfc00bcc:	00008012 	mflo	s0
bfc00bd0:	3c123cb5 	lui	s2,0x3cb5
bfc00bd4:	36522e45 	ori	s2,s2,0x2e45
bfc00bd8:	16120350 	bne	s0,s2,bfc0191c <inst_error>
bfc00bdc:	00000000 	nop
bfc00be0:	3c089cdf 	lui	t0,0x9cdf
bfc00be4:	35081840 	ori	t0,t0,0x1840
bfc00be8:	01000013 	mtlo	t0
bfc00bec:	00008012 	mflo	s0
bfc00bf0:	3c129cdf 	lui	s2,0x9cdf
bfc00bf4:	36521840 	ori	s2,s2,0x1840
bfc00bf8:	16120348 	bne	s0,s2,bfc0191c <inst_error>
bfc00bfc:	00000000 	nop
bfc00c00:	3c08aa32 	lui	t0,0xaa32
bfc00c04:	35083fe3 	ori	t0,t0,0x3fe3
bfc00c08:	01000013 	mtlo	t0
bfc00c0c:	00008012 	mflo	s0
bfc00c10:	3c12aa32 	lui	s2,0xaa32
bfc00c14:	36523fe3 	ori	s2,s2,0x3fe3
bfc00c18:	16120340 	bne	s0,s2,bfc0191c <inst_error>
bfc00c1c:	00000000 	nop
bfc00c20:	3c08af6c 	lui	t0,0xaf6c
bfc00c24:	35088000 	ori	t0,t0,0x8000
bfc00c28:	01000013 	mtlo	t0
bfc00c2c:	00008012 	mflo	s0
bfc00c30:	3c12af6c 	lui	s2,0xaf6c
bfc00c34:	36528000 	ori	s2,s2,0x8000
bfc00c38:	16120338 	bne	s0,s2,bfc0191c <inst_error>
bfc00c3c:	00000000 	nop
bfc00c40:	3c087a62 	lui	t0,0x7a62
bfc00c44:	3508436c 	ori	t0,t0,0x436c
bfc00c48:	01000013 	mtlo	t0
bfc00c4c:	00008012 	mflo	s0
bfc00c50:	3c127a62 	lui	s2,0x7a62
bfc00c54:	3652436c 	ori	s2,s2,0x436c
bfc00c58:	16120330 	bne	s0,s2,bfc0191c <inst_error>
bfc00c5c:	00000000 	nop
bfc00c60:	3c08d5c8 	lui	t0,0xd5c8
bfc00c64:	35088536 	ori	t0,t0,0x8536
bfc00c68:	01000013 	mtlo	t0
bfc00c6c:	00008012 	mflo	s0
bfc00c70:	3c12d5c8 	lui	s2,0xd5c8
bfc00c74:	36528536 	ori	s2,s2,0x8536
bfc00c78:	16120328 	bne	s0,s2,bfc0191c <inst_error>
bfc00c7c:	00000000 	nop
bfc00c80:	3c08dcd3 	lui	t0,0xdcd3
bfc00c84:	35083c05 	ori	t0,t0,0x3c05
bfc00c88:	01000013 	mtlo	t0
bfc00c8c:	00008012 	mflo	s0
bfc00c90:	3c12dcd3 	lui	s2,0xdcd3
bfc00c94:	36523c05 	ori	s2,s2,0x3c05
bfc00c98:	16120320 	bne	s0,s2,bfc0191c <inst_error>
bfc00c9c:	00000000 	nop
bfc00ca0:	3c086d9e 	lui	t0,0x6d9e
bfc00ca4:	35089ad4 	ori	t0,t0,0x9ad4
bfc00ca8:	01000013 	mtlo	t0
bfc00cac:	00008012 	mflo	s0
bfc00cb0:	3c126d9e 	lui	s2,0x6d9e
bfc00cb4:	36529ad4 	ori	s2,s2,0x9ad4
bfc00cb8:	16120318 	bne	s0,s2,bfc0191c <inst_error>
bfc00cbc:	00000000 	nop
bfc00cc0:	3c08fa2d 	lui	t0,0xfa2d
bfc00cc4:	3508291c 	ori	t0,t0,0x291c
bfc00cc8:	01000013 	mtlo	t0
bfc00ccc:	00008012 	mflo	s0
bfc00cd0:	3c12fa2d 	lui	s2,0xfa2d
bfc00cd4:	3652291c 	ori	s2,s2,0x291c
bfc00cd8:	16120310 	bne	s0,s2,bfc0191c <inst_error>
bfc00cdc:	00000000 	nop
bfc00ce0:	3c087623 	lui	t0,0x7623
bfc00ce4:	3508c300 	ori	t0,t0,0xc300
bfc00ce8:	01000013 	mtlo	t0
bfc00cec:	00008012 	mflo	s0
bfc00cf0:	3c127623 	lui	s2,0x7623
bfc00cf4:	3652c300 	ori	s2,s2,0xc300
bfc00cf8:	16120308 	bne	s0,s2,bfc0191c <inst_error>
bfc00cfc:	00000000 	nop
bfc00d00:	3c089f01 	lui	t0,0x9f01
bfc00d04:	350887e7 	ori	t0,t0,0x87e7
bfc00d08:	01000013 	mtlo	t0
bfc00d0c:	00008012 	mflo	s0
bfc00d10:	3c129f01 	lui	s2,0x9f01
bfc00d14:	365287e7 	ori	s2,s2,0x87e7
bfc00d18:	16120300 	bne	s0,s2,bfc0191c <inst_error>
bfc00d1c:	00000000 	nop
bfc00d20:	3c080533 	lui	t0,0x533
bfc00d24:	35089b47 	ori	t0,t0,0x9b47
bfc00d28:	01000013 	mtlo	t0
bfc00d2c:	00008012 	mflo	s0
bfc00d30:	3c120533 	lui	s2,0x533
bfc00d34:	36529b47 	ori	s2,s2,0x9b47
bfc00d38:	161202f8 	bne	s0,s2,bfc0191c <inst_error>
bfc00d3c:	00000000 	nop
bfc00d40:	3c08e218 	lui	t0,0xe218
bfc00d44:	3508cca0 	ori	t0,t0,0xcca0
bfc00d48:	01000013 	mtlo	t0
bfc00d4c:	00008012 	mflo	s0
bfc00d50:	3c12e218 	lui	s2,0xe218
bfc00d54:	3652cca0 	ori	s2,s2,0xcca0
bfc00d58:	161202f0 	bne	s0,s2,bfc0191c <inst_error>
bfc00d5c:	00000000 	nop
bfc00d60:	3c08d763 	lui	t0,0xd763
bfc00d64:	35086e61 	ori	t0,t0,0x6e61
bfc00d68:	01000013 	mtlo	t0
bfc00d6c:	00008012 	mflo	s0
bfc00d70:	3c12d763 	lui	s2,0xd763
bfc00d74:	36526e61 	ori	s2,s2,0x6e61
bfc00d78:	161202e8 	bne	s0,s2,bfc0191c <inst_error>
bfc00d7c:	00000000 	nop
bfc00d80:	3c083de0 	lui	t0,0x3de0
bfc00d84:	350848f8 	ori	t0,t0,0x48f8
bfc00d88:	01000013 	mtlo	t0
bfc00d8c:	00008012 	mflo	s0
bfc00d90:	3c123de0 	lui	s2,0x3de0
bfc00d94:	365248f8 	ori	s2,s2,0x48f8
bfc00d98:	161202e0 	bne	s0,s2,bfc0191c <inst_error>
bfc00d9c:	00000000 	nop
bfc00da0:	3c088f2b 	lui	t0,0x8f2b
bfc00da4:	3508ee38 	ori	t0,t0,0xee38
bfc00da8:	01000013 	mtlo	t0
bfc00dac:	00008012 	mflo	s0
bfc00db0:	3c128f2b 	lui	s2,0x8f2b
bfc00db4:	3652ee38 	ori	s2,s2,0xee38
bfc00db8:	161202d8 	bne	s0,s2,bfc0191c <inst_error>
bfc00dbc:	00000000 	nop
bfc00dc0:	3c089d60 	lui	t0,0x9d60
bfc00dc4:	35085711 	ori	t0,t0,0x5711
bfc00dc8:	01000013 	mtlo	t0
bfc00dcc:	00008012 	mflo	s0
bfc00dd0:	3c129d60 	lui	s2,0x9d60
bfc00dd4:	36525711 	ori	s2,s2,0x5711
bfc00dd8:	161202d0 	bne	s0,s2,bfc0191c <inst_error>
bfc00ddc:	00000000 	nop
bfc00de0:	3c08a96e 	lui	t0,0xa96e
bfc00de4:	3508dee1 	ori	t0,t0,0xdee1
bfc00de8:	01000013 	mtlo	t0
bfc00dec:	00008012 	mflo	s0
bfc00df0:	3c12a96e 	lui	s2,0xa96e
bfc00df4:	3652dee1 	ori	s2,s2,0xdee1
bfc00df8:	161202c8 	bne	s0,s2,bfc0191c <inst_error>
bfc00dfc:	00000000 	nop
bfc00e00:	3c082b8b 	lui	t0,0x2b8b
bfc00e04:	35086d80 	ori	t0,t0,0x6d80
bfc00e08:	01000013 	mtlo	t0
bfc00e0c:	00008012 	mflo	s0
bfc00e10:	3c122b8b 	lui	s2,0x2b8b
bfc00e14:	36526d80 	ori	s2,s2,0x6d80
bfc00e18:	161202c0 	bne	s0,s2,bfc0191c <inst_error>
bfc00e1c:	00000000 	nop
bfc00e20:	3c086064 	lui	t0,0x6064
bfc00e24:	35086124 	ori	t0,t0,0x6124
bfc00e28:	01000013 	mtlo	t0
bfc00e2c:	00008012 	mflo	s0
bfc00e30:	3c126064 	lui	s2,0x6064
bfc00e34:	36526124 	ori	s2,s2,0x6124
bfc00e38:	161202b8 	bne	s0,s2,bfc0191c <inst_error>
bfc00e3c:	00000000 	nop
bfc00e40:	3c08a6be 	lui	t0,0xa6be
bfc00e44:	3508c718 	ori	t0,t0,0xc718
bfc00e48:	01000013 	mtlo	t0
bfc00e4c:	00008012 	mflo	s0
bfc00e50:	3c12a6be 	lui	s2,0xa6be
bfc00e54:	3652c718 	ori	s2,s2,0xc718
bfc00e58:	161202b0 	bne	s0,s2,bfc0191c <inst_error>
bfc00e5c:	00000000 	nop
bfc00e60:	3c081078 	lui	t0,0x1078
bfc00e64:	35080a80 	ori	t0,t0,0xa80
bfc00e68:	01000013 	mtlo	t0
bfc00e6c:	00008012 	mflo	s0
bfc00e70:	3c121078 	lui	s2,0x1078
bfc00e74:	36520a80 	ori	s2,s2,0xa80
bfc00e78:	161202a8 	bne	s0,s2,bfc0191c <inst_error>
bfc00e7c:	00000000 	nop
bfc00e80:	3c0857dc 	lui	t0,0x57dc
bfc00e84:	35081f16 	ori	t0,t0,0x1f16
bfc00e88:	01000013 	mtlo	t0
bfc00e8c:	00008012 	mflo	s0
bfc00e90:	3c1257dc 	lui	s2,0x57dc
bfc00e94:	36521f16 	ori	s2,s2,0x1f16
bfc00e98:	161202a0 	bne	s0,s2,bfc0191c <inst_error>
bfc00e9c:	00000000 	nop
bfc00ea0:	3c08c3d0 	lui	t0,0xc3d0
bfc00ea4:	35081ea0 	ori	t0,t0,0x1ea0
bfc00ea8:	01000013 	mtlo	t0
bfc00eac:	00008012 	mflo	s0
bfc00eb0:	3c12c3d0 	lui	s2,0xc3d0
bfc00eb4:	36521ea0 	ori	s2,s2,0x1ea0
bfc00eb8:	16120298 	bne	s0,s2,bfc0191c <inst_error>
bfc00ebc:	00000000 	nop
bfc00ec0:	3c0870a6 	lui	t0,0x70a6
bfc00ec4:	35081f92 	ori	t0,t0,0x1f92
bfc00ec8:	01000013 	mtlo	t0
bfc00ecc:	00008012 	mflo	s0
bfc00ed0:	3c1270a6 	lui	s2,0x70a6
bfc00ed4:	36521f92 	ori	s2,s2,0x1f92
bfc00ed8:	16120290 	bne	s0,s2,bfc0191c <inst_error>
bfc00edc:	00000000 	nop
bfc00ee0:	3c08c29c 	lui	t0,0xc29c
bfc00ee4:	35087920 	ori	t0,t0,0x7920
bfc00ee8:	01000013 	mtlo	t0
bfc00eec:	00008012 	mflo	s0
bfc00ef0:	3c12c29c 	lui	s2,0xc29c
bfc00ef4:	36527920 	ori	s2,s2,0x7920
bfc00ef8:	16120288 	bne	s0,s2,bfc0191c <inst_error>
bfc00efc:	00000000 	nop
bfc00f00:	3c08bc7a 	lui	t0,0xbc7a
bfc00f04:	3508ff48 	ori	t0,t0,0xff48
bfc00f08:	01000013 	mtlo	t0
bfc00f0c:	00008012 	mflo	s0
bfc00f10:	3c12bc7a 	lui	s2,0xbc7a
bfc00f14:	3652ff48 	ori	s2,s2,0xff48
bfc00f18:	16120280 	bne	s0,s2,bfc0191c <inst_error>
bfc00f1c:	00000000 	nop
bfc00f20:	3c08b79d 	lui	t0,0xb79d
bfc00f24:	350819a8 	ori	t0,t0,0x19a8
bfc00f28:	01000013 	mtlo	t0
bfc00f2c:	00008012 	mflo	s0
bfc00f30:	3c12b79d 	lui	s2,0xb79d
bfc00f34:	365219a8 	ori	s2,s2,0x19a8
bfc00f38:	16120278 	bne	s0,s2,bfc0191c <inst_error>
bfc00f3c:	00000000 	nop
bfc00f40:	3c08f148 	lui	t0,0xf148
bfc00f44:	35084420 	ori	t0,t0,0x4420
bfc00f48:	01000013 	mtlo	t0
bfc00f4c:	00008012 	mflo	s0
bfc00f50:	3c12f148 	lui	s2,0xf148
bfc00f54:	36524420 	ori	s2,s2,0x4420
bfc00f58:	16120270 	bne	s0,s2,bfc0191c <inst_error>
bfc00f5c:	00000000 	nop
bfc00f60:	3c086920 	lui	t0,0x6920
bfc00f64:	35085bf0 	ori	t0,t0,0x5bf0
bfc00f68:	01000013 	mtlo	t0
bfc00f6c:	00008012 	mflo	s0
bfc00f70:	3c126920 	lui	s2,0x6920
bfc00f74:	36525bf0 	ori	s2,s2,0x5bf0
bfc00f78:	16120268 	bne	s0,s2,bfc0191c <inst_error>
bfc00f7c:	00000000 	nop
bfc00f80:	3c08bdec 	lui	t0,0xbdec
bfc00f84:	35087d1c 	ori	t0,t0,0x7d1c
bfc00f88:	01000013 	mtlo	t0
bfc00f8c:	00008012 	mflo	s0
bfc00f90:	3c12bdec 	lui	s2,0xbdec
bfc00f94:	36527d1c 	ori	s2,s2,0x7d1c
bfc00f98:	16120260 	bne	s0,s2,bfc0191c <inst_error>
bfc00f9c:	00000000 	nop
bfc00fa0:	3c08e1ce 	lui	t0,0xe1ce
bfc00fa4:	35084750 	ori	t0,t0,0x4750
bfc00fa8:	01000013 	mtlo	t0
bfc00fac:	00008012 	mflo	s0
bfc00fb0:	3c12e1ce 	lui	s2,0xe1ce
bfc00fb4:	36524750 	ori	s2,s2,0x4750
bfc00fb8:	16120258 	bne	s0,s2,bfc0191c <inst_error>
bfc00fbc:	00000000 	nop
bfc00fc0:	3c0863d0 	lui	t0,0x63d0
bfc00fc4:	35085f88 	ori	t0,t0,0x5f88
bfc00fc8:	01000013 	mtlo	t0
bfc00fcc:	00008012 	mflo	s0
bfc00fd0:	3c1263d0 	lui	s2,0x63d0
bfc00fd4:	36525f88 	ori	s2,s2,0x5f88
bfc00fd8:	16120250 	bne	s0,s2,bfc0191c <inst_error>
bfc00fdc:	00000000 	nop
bfc00fe0:	3c08c44c 	lui	t0,0xc44c
bfc00fe4:	3508d8c0 	ori	t0,t0,0xd8c0
bfc00fe8:	01000013 	mtlo	t0
bfc00fec:	00008012 	mflo	s0
bfc00ff0:	3c12c44c 	lui	s2,0xc44c
bfc00ff4:	3652d8c0 	ori	s2,s2,0xd8c0
bfc00ff8:	16120248 	bne	s0,s2,bfc0191c <inst_error>
bfc00ffc:	00000000 	nop
bfc01000:	3c0855bd 	lui	t0,0x55bd
bfc01004:	3508d470 	ori	t0,t0,0xd470
bfc01008:	01000013 	mtlo	t0
bfc0100c:	00008012 	mflo	s0
bfc01010:	3c1255bd 	lui	s2,0x55bd
bfc01014:	3652d470 	ori	s2,s2,0xd470
bfc01018:	16120240 	bne	s0,s2,bfc0191c <inst_error>
bfc0101c:	00000000 	nop
bfc01020:	3c08b70e 	lui	t0,0xb70e
bfc01024:	3508bdf2 	ori	t0,t0,0xbdf2
bfc01028:	01000013 	mtlo	t0
bfc0102c:	00008012 	mflo	s0
bfc01030:	3c12b70e 	lui	s2,0xb70e
bfc01034:	3652bdf2 	ori	s2,s2,0xbdf2
bfc01038:	16120238 	bne	s0,s2,bfc0191c <inst_error>
bfc0103c:	00000000 	nop
bfc01040:	3c08617d 	lui	t0,0x617d
bfc01044:	3508ee1e 	ori	t0,t0,0xee1e
bfc01048:	01000013 	mtlo	t0
bfc0104c:	00008012 	mflo	s0
bfc01050:	3c12617d 	lui	s2,0x617d
bfc01054:	3652ee1e 	ori	s2,s2,0xee1e
bfc01058:	16120230 	bne	s0,s2,bfc0191c <inst_error>
bfc0105c:	00000000 	nop
bfc01060:	3c0846f9 	lui	t0,0x46f9
bfc01064:	350847e4 	ori	t0,t0,0x47e4
bfc01068:	01000013 	mtlo	t0
bfc0106c:	00008012 	mflo	s0
bfc01070:	3c1246f9 	lui	s2,0x46f9
bfc01074:	365247e4 	ori	s2,s2,0x47e4
bfc01078:	16120228 	bne	s0,s2,bfc0191c <inst_error>
bfc0107c:	00000000 	nop
bfc01080:	3c08de5a 	lui	t0,0xde5a
bfc01084:	35080ca3 	ori	t0,t0,0xca3
bfc01088:	01000013 	mtlo	t0
bfc0108c:	00008012 	mflo	s0
bfc01090:	3c12de5a 	lui	s2,0xde5a
bfc01094:	36520ca3 	ori	s2,s2,0xca3
bfc01098:	16120220 	bne	s0,s2,bfc0191c <inst_error>
bfc0109c:	00000000 	nop
bfc010a0:	3c08d1fb 	lui	t0,0xd1fb
bfc010a4:	35080a10 	ori	t0,t0,0xa10
bfc010a8:	01000013 	mtlo	t0
bfc010ac:	00008012 	mflo	s0
bfc010b0:	3c12d1fb 	lui	s2,0xd1fb
bfc010b4:	36520a10 	ori	s2,s2,0xa10
bfc010b8:	16120218 	bne	s0,s2,bfc0191c <inst_error>
bfc010bc:	00000000 	nop
bfc010c0:	3c08291f 	lui	t0,0x291f
bfc010c4:	350881e8 	ori	t0,t0,0x81e8
bfc010c8:	01000013 	mtlo	t0
bfc010cc:	00008012 	mflo	s0
bfc010d0:	3c12291f 	lui	s2,0x291f
bfc010d4:	365281e8 	ori	s2,s2,0x81e8
bfc010d8:	16120210 	bne	s0,s2,bfc0191c <inst_error>
bfc010dc:	00000000 	nop
bfc010e0:	3c0822f9 	lui	t0,0x22f9
bfc010e4:	3508dafe 	ori	t0,t0,0xdafe
bfc010e8:	01000013 	mtlo	t0
bfc010ec:	00008012 	mflo	s0
bfc010f0:	3c1222f9 	lui	s2,0x22f9
bfc010f4:	3652dafe 	ori	s2,s2,0xdafe
bfc010f8:	16120208 	bne	s0,s2,bfc0191c <inst_error>
bfc010fc:	00000000 	nop
bfc01100:	3c0814ad 	lui	t0,0x14ad
bfc01104:	3508a52c 	ori	t0,t0,0xa52c
bfc01108:	01000013 	mtlo	t0
bfc0110c:	00008012 	mflo	s0
bfc01110:	3c1214ad 	lui	s2,0x14ad
bfc01114:	3652a52c 	ori	s2,s2,0xa52c
bfc01118:	16120200 	bne	s0,s2,bfc0191c <inst_error>
bfc0111c:	00000000 	nop
bfc01120:	3c088024 	lui	t0,0x8024
bfc01124:	35087a80 	ori	t0,t0,0x7a80
bfc01128:	01000013 	mtlo	t0
bfc0112c:	00008012 	mflo	s0
bfc01130:	3c128024 	lui	s2,0x8024
bfc01134:	36527a80 	ori	s2,s2,0x7a80
bfc01138:	161201f8 	bne	s0,s2,bfc0191c <inst_error>
bfc0113c:	00000000 	nop
bfc01140:	3c08cd28 	lui	t0,0xcd28
bfc01144:	350863c0 	ori	t0,t0,0x63c0
bfc01148:	01000013 	mtlo	t0
bfc0114c:	00008012 	mflo	s0
bfc01150:	3c12cd28 	lui	s2,0xcd28
bfc01154:	365263c0 	ori	s2,s2,0x63c0
bfc01158:	161201f0 	bne	s0,s2,bfc0191c <inst_error>
bfc0115c:	00000000 	nop
bfc01160:	3c08b1a0 	lui	t0,0xb1a0
bfc01164:	35088d7c 	ori	t0,t0,0x8d7c
bfc01168:	01000013 	mtlo	t0
bfc0116c:	00008012 	mflo	s0
bfc01170:	3c12b1a0 	lui	s2,0xb1a0
bfc01174:	36528d7c 	ori	s2,s2,0x8d7c
bfc01178:	161201e8 	bne	s0,s2,bfc0191c <inst_error>
bfc0117c:	00000000 	nop
bfc01180:	3c086f75 	lui	t0,0x6f75
bfc01184:	350815ec 	ori	t0,t0,0x15ec
bfc01188:	01000013 	mtlo	t0
bfc0118c:	00008012 	mflo	s0
bfc01190:	3c126f75 	lui	s2,0x6f75
bfc01194:	365215ec 	ori	s2,s2,0x15ec
bfc01198:	161201e0 	bne	s0,s2,bfc0191c <inst_error>
bfc0119c:	00000000 	nop
bfc011a0:	3c084e03 	lui	t0,0x4e03
bfc011a4:	35085a34 	ori	t0,t0,0x5a34
bfc011a8:	01000013 	mtlo	t0
bfc011ac:	00008012 	mflo	s0
bfc011b0:	3c124e03 	lui	s2,0x4e03
bfc011b4:	36525a34 	ori	s2,s2,0x5a34
bfc011b8:	161201d8 	bne	s0,s2,bfc0191c <inst_error>
bfc011bc:	00000000 	nop
bfc011c0:	3c08ec70 	lui	t0,0xec70
bfc011c4:	350887e5 	ori	t0,t0,0x87e5
bfc011c8:	01000013 	mtlo	t0
bfc011cc:	00008012 	mflo	s0
bfc011d0:	3c12ec70 	lui	s2,0xec70
bfc011d4:	365287e5 	ori	s2,s2,0x87e5
bfc011d8:	161201d0 	bne	s0,s2,bfc0191c <inst_error>
bfc011dc:	00000000 	nop
bfc011e0:	3c08e7db 	lui	t0,0xe7db
bfc011e4:	3508cb60 	ori	t0,t0,0xcb60
bfc011e8:	01000013 	mtlo	t0
bfc011ec:	00008012 	mflo	s0
bfc011f0:	3c12e7db 	lui	s2,0xe7db
bfc011f4:	3652cb60 	ori	s2,s2,0xcb60
bfc011f8:	161201c8 	bne	s0,s2,bfc0191c <inst_error>
bfc011fc:	00000000 	nop
bfc01200:	3c08e580 	lui	t0,0xe580
bfc01204:	350891f4 	ori	t0,t0,0x91f4
bfc01208:	01000013 	mtlo	t0
bfc0120c:	00008012 	mflo	s0
bfc01210:	3c12e580 	lui	s2,0xe580
bfc01214:	365291f4 	ori	s2,s2,0x91f4
bfc01218:	161201c0 	bne	s0,s2,bfc0191c <inst_error>
bfc0121c:	00000000 	nop
bfc01220:	3c085a91 	lui	t0,0x5a91
bfc01224:	350804a0 	ori	t0,t0,0x4a0
bfc01228:	01000013 	mtlo	t0
bfc0122c:	00008012 	mflo	s0
bfc01230:	3c125a91 	lui	s2,0x5a91
bfc01234:	365204a0 	ori	s2,s2,0x4a0
bfc01238:	161201b8 	bne	s0,s2,bfc0191c <inst_error>
bfc0123c:	00000000 	nop
bfc01240:	3c087d14 	lui	t0,0x7d14
bfc01244:	35080682 	ori	t0,t0,0x682
bfc01248:	01000013 	mtlo	t0
bfc0124c:	00008012 	mflo	s0
bfc01250:	3c127d14 	lui	s2,0x7d14
bfc01254:	36520682 	ori	s2,s2,0x682
bfc01258:	161201b0 	bne	s0,s2,bfc0191c <inst_error>
bfc0125c:	00000000 	nop
bfc01260:	3c08dceb 	lui	t0,0xdceb
bfc01264:	35086950 	ori	t0,t0,0x6950
bfc01268:	01000013 	mtlo	t0
bfc0126c:	00008012 	mflo	s0
bfc01270:	3c12dceb 	lui	s2,0xdceb
bfc01274:	36526950 	ori	s2,s2,0x6950
bfc01278:	161201a8 	bne	s0,s2,bfc0191c <inst_error>
bfc0127c:	00000000 	nop
bfc01280:	3c084511 	lui	t0,0x4511
bfc01284:	3508b208 	ori	t0,t0,0xb208
bfc01288:	01000013 	mtlo	t0
bfc0128c:	00008012 	mflo	s0
bfc01290:	3c124511 	lui	s2,0x4511
bfc01294:	3652b208 	ori	s2,s2,0xb208
bfc01298:	161201a0 	bne	s0,s2,bfc0191c <inst_error>
bfc0129c:	00000000 	nop
bfc012a0:	3c08f34d 	lui	t0,0xf34d
bfc012a4:	3508c984 	ori	t0,t0,0xc984
bfc012a8:	01000013 	mtlo	t0
bfc012ac:	00008012 	mflo	s0
bfc012b0:	3c12f34d 	lui	s2,0xf34d
bfc012b4:	3652c984 	ori	s2,s2,0xc984
bfc012b8:	16120198 	bne	s0,s2,bfc0191c <inst_error>
bfc012bc:	00000000 	nop
bfc012c0:	3c08e215 	lui	t0,0xe215
bfc012c4:	35082930 	ori	t0,t0,0x2930
bfc012c8:	01000013 	mtlo	t0
bfc012cc:	00008012 	mflo	s0
bfc012d0:	3c12e215 	lui	s2,0xe215
bfc012d4:	36522930 	ori	s2,s2,0x2930
bfc012d8:	16120190 	bne	s0,s2,bfc0191c <inst_error>
bfc012dc:	00000000 	nop
bfc012e0:	3c082ca6 	lui	t0,0x2ca6
bfc012e4:	35083aa0 	ori	t0,t0,0x3aa0
bfc012e8:	01000013 	mtlo	t0
bfc012ec:	00008012 	mflo	s0
bfc012f0:	3c122ca6 	lui	s2,0x2ca6
bfc012f4:	36523aa0 	ori	s2,s2,0x3aa0
bfc012f8:	16120188 	bne	s0,s2,bfc0191c <inst_error>
bfc012fc:	00000000 	nop
bfc01300:	3c08aa58 	lui	t0,0xaa58
bfc01304:	3508aaf8 	ori	t0,t0,0xaaf8
bfc01308:	01000013 	mtlo	t0
bfc0130c:	00008012 	mflo	s0
bfc01310:	3c12aa58 	lui	s2,0xaa58
bfc01314:	3652aaf8 	ori	s2,s2,0xaaf8
bfc01318:	16120180 	bne	s0,s2,bfc0191c <inst_error>
bfc0131c:	00000000 	nop
bfc01320:	3c0859f0 	lui	t0,0x59f0
bfc01324:	3508d4c0 	ori	t0,t0,0xd4c0
bfc01328:	01000013 	mtlo	t0
bfc0132c:	00008012 	mflo	s0
bfc01330:	3c1259f0 	lui	s2,0x59f0
bfc01334:	3652d4c0 	ori	s2,s2,0xd4c0
bfc01338:	16120178 	bne	s0,s2,bfc0191c <inst_error>
bfc0133c:	00000000 	nop
bfc01340:	3c081f8a 	lui	t0,0x1f8a
bfc01344:	3508d31a 	ori	t0,t0,0xd31a
bfc01348:	01000013 	mtlo	t0
bfc0134c:	00008012 	mflo	s0
bfc01350:	3c121f8a 	lui	s2,0x1f8a
bfc01354:	3652d31a 	ori	s2,s2,0xd31a
bfc01358:	16120170 	bne	s0,s2,bfc0191c <inst_error>
bfc0135c:	00000000 	nop
bfc01360:	3c08cc81 	lui	t0,0xcc81
bfc01364:	3508d4b7 	ori	t0,t0,0xd4b7
bfc01368:	01000013 	mtlo	t0
bfc0136c:	00008012 	mflo	s0
bfc01370:	3c12cc81 	lui	s2,0xcc81
bfc01374:	3652d4b7 	ori	s2,s2,0xd4b7
bfc01378:	16120168 	bne	s0,s2,bfc0191c <inst_error>
bfc0137c:	00000000 	nop
bfc01380:	3c08329d 	lui	t0,0x329d
bfc01384:	3508cb30 	ori	t0,t0,0xcb30
bfc01388:	01000013 	mtlo	t0
bfc0138c:	00008012 	mflo	s0
bfc01390:	3c12329d 	lui	s2,0x329d
bfc01394:	3652cb30 	ori	s2,s2,0xcb30
bfc01398:	16120160 	bne	s0,s2,bfc0191c <inst_error>
bfc0139c:	00000000 	nop
bfc013a0:	3c087ca6 	lui	t0,0x7ca6
bfc013a4:	35082fd0 	ori	t0,t0,0x2fd0
bfc013a8:	01000013 	mtlo	t0
bfc013ac:	00008012 	mflo	s0
bfc013b0:	3c127ca6 	lui	s2,0x7ca6
bfc013b4:	36522fd0 	ori	s2,s2,0x2fd0
bfc013b8:	16120158 	bne	s0,s2,bfc0191c <inst_error>
bfc013bc:	00000000 	nop
bfc013c0:	3c0893fa 	lui	t0,0x93fa
bfc013c4:	3508ad78 	ori	t0,t0,0xad78
bfc013c8:	01000013 	mtlo	t0
bfc013cc:	00008012 	mflo	s0
bfc013d0:	3c1293fa 	lui	s2,0x93fa
bfc013d4:	3652ad78 	ori	s2,s2,0xad78
bfc013d8:	16120150 	bne	s0,s2,bfc0191c <inst_error>
bfc013dc:	00000000 	nop
bfc013e0:	3c088271 	lui	t0,0x8271
bfc013e4:	35083960 	ori	t0,t0,0x3960
bfc013e8:	01000013 	mtlo	t0
bfc013ec:	00008012 	mflo	s0
bfc013f0:	3c128271 	lui	s2,0x8271
bfc013f4:	36523960 	ori	s2,s2,0x3960
bfc013f8:	16120148 	bne	s0,s2,bfc0191c <inst_error>
bfc013fc:	00000000 	nop
bfc01400:	3c0813be 	lui	t0,0x13be
bfc01404:	350836f0 	ori	t0,t0,0x36f0
bfc01408:	01000013 	mtlo	t0
bfc0140c:	00008012 	mflo	s0
bfc01410:	3c1213be 	lui	s2,0x13be
bfc01414:	365236f0 	ori	s2,s2,0x36f0
bfc01418:	16120140 	bne	s0,s2,bfc0191c <inst_error>
bfc0141c:	00000000 	nop
bfc01420:	3c08578d 	lui	t0,0x578d
bfc01424:	350890c0 	ori	t0,t0,0x90c0
bfc01428:	01000013 	mtlo	t0
bfc0142c:	00008012 	mflo	s0
bfc01430:	3c12578d 	lui	s2,0x578d
bfc01434:	365290c0 	ori	s2,s2,0x90c0
bfc01438:	16120138 	bne	s0,s2,bfc0191c <inst_error>
bfc0143c:	00000000 	nop
bfc01440:	3c085084 	lui	t0,0x5084
bfc01444:	3508f9c8 	ori	t0,t0,0xf9c8
bfc01448:	01000013 	mtlo	t0
bfc0144c:	00008012 	mflo	s0
bfc01450:	3c125084 	lui	s2,0x5084
bfc01454:	3652f9c8 	ori	s2,s2,0xf9c8
bfc01458:	16120130 	bne	s0,s2,bfc0191c <inst_error>
bfc0145c:	00000000 	nop
bfc01460:	3c089b35 	lui	t0,0x9b35
bfc01464:	35084320 	ori	t0,t0,0x4320
bfc01468:	01000013 	mtlo	t0
bfc0146c:	00008012 	mflo	s0
bfc01470:	3c129b35 	lui	s2,0x9b35
bfc01474:	36524320 	ori	s2,s2,0x4320
bfc01478:	16120128 	bne	s0,s2,bfc0191c <inst_error>
bfc0147c:	00000000 	nop
bfc01480:	3c082703 	lui	t0,0x2703
bfc01484:	35084740 	ori	t0,t0,0x4740
bfc01488:	01000013 	mtlo	t0
bfc0148c:	00008012 	mflo	s0
bfc01490:	3c122703 	lui	s2,0x2703
bfc01494:	36524740 	ori	s2,s2,0x4740
bfc01498:	16120120 	bne	s0,s2,bfc0191c <inst_error>
bfc0149c:	00000000 	nop
bfc014a0:	3c08716f 	lui	t0,0x716f
bfc014a4:	350802dc 	ori	t0,t0,0x2dc
bfc014a8:	01000013 	mtlo	t0
bfc014ac:	00008012 	mflo	s0
bfc014b0:	3c12716f 	lui	s2,0x716f
bfc014b4:	365202dc 	ori	s2,s2,0x2dc
bfc014b8:	16120118 	bne	s0,s2,bfc0191c <inst_error>
bfc014bc:	00000000 	nop
bfc014c0:	3c081fc9 	lui	t0,0x1fc9
bfc014c4:	35082e60 	ori	t0,t0,0x2e60
bfc014c8:	01000013 	mtlo	t0
bfc014cc:	00008012 	mflo	s0
bfc014d0:	3c121fc9 	lui	s2,0x1fc9
bfc014d4:	36522e60 	ori	s2,s2,0x2e60
bfc014d8:	16120110 	bne	s0,s2,bfc0191c <inst_error>
bfc014dc:	00000000 	nop
bfc014e0:	3c08b2fa 	lui	t0,0xb2fa
bfc014e4:	3508d4e0 	ori	t0,t0,0xd4e0
bfc014e8:	01000013 	mtlo	t0
bfc014ec:	00008012 	mflo	s0
bfc014f0:	3c12b2fa 	lui	s2,0xb2fa
bfc014f4:	3652d4e0 	ori	s2,s2,0xd4e0
bfc014f8:	16120108 	bne	s0,s2,bfc0191c <inst_error>
bfc014fc:	00000000 	nop
bfc01500:	3c088647 	lui	t0,0x8647
bfc01504:	3508273f 	ori	t0,t0,0x273f
bfc01508:	01000013 	mtlo	t0
bfc0150c:	00008012 	mflo	s0
bfc01510:	3c128647 	lui	s2,0x8647
bfc01514:	3652273f 	ori	s2,s2,0x273f
bfc01518:	16120100 	bne	s0,s2,bfc0191c <inst_error>
bfc0151c:	00000000 	nop
bfc01520:	3c083ee2 	lui	t0,0x3ee2
bfc01524:	3508e33c 	ori	t0,t0,0xe33c
bfc01528:	01000013 	mtlo	t0
bfc0152c:	00008012 	mflo	s0
bfc01530:	3c123ee2 	lui	s2,0x3ee2
bfc01534:	3652e33c 	ori	s2,s2,0xe33c
bfc01538:	161200f8 	bne	s0,s2,bfc0191c <inst_error>
bfc0153c:	00000000 	nop
bfc01540:	3c08eae9 	lui	t0,0xeae9
bfc01544:	35087850 	ori	t0,t0,0x7850
bfc01548:	01000013 	mtlo	t0
bfc0154c:	00008012 	mflo	s0
bfc01550:	3c12eae9 	lui	s2,0xeae9
bfc01554:	36527850 	ori	s2,s2,0x7850
bfc01558:	161200f0 	bne	s0,s2,bfc0191c <inst_error>
bfc0155c:	00000000 	nop
bfc01560:	3c0868f0 	lui	t0,0x68f0
bfc01564:	35080140 	ori	t0,t0,0x140
bfc01568:	01000013 	mtlo	t0
bfc0156c:	00008012 	mflo	s0
bfc01570:	3c1268f0 	lui	s2,0x68f0
bfc01574:	36520140 	ori	s2,s2,0x140
bfc01578:	161200e8 	bne	s0,s2,bfc0191c <inst_error>
bfc0157c:	00000000 	nop
bfc01580:	3c0830f5 	lui	t0,0x30f5
bfc01584:	350885e0 	ori	t0,t0,0x85e0
bfc01588:	01000013 	mtlo	t0
bfc0158c:	00008012 	mflo	s0
bfc01590:	3c1230f5 	lui	s2,0x30f5
bfc01594:	365285e0 	ori	s2,s2,0x85e0
bfc01598:	161200e0 	bne	s0,s2,bfc0191c <inst_error>
bfc0159c:	00000000 	nop
bfc015a0:	3c0864d4 	lui	t0,0x64d4
bfc015a4:	35083ee8 	ori	t0,t0,0x3ee8
bfc015a8:	01000013 	mtlo	t0
bfc015ac:	00008012 	mflo	s0
bfc015b0:	3c1264d4 	lui	s2,0x64d4
bfc015b4:	36523ee8 	ori	s2,s2,0x3ee8
bfc015b8:	161200d8 	bne	s0,s2,bfc0191c <inst_error>
bfc015bc:	00000000 	nop
bfc015c0:	3c081700 	lui	t0,0x1700
bfc015c4:	3508565c 	ori	t0,t0,0x565c
bfc015c8:	01000013 	mtlo	t0
bfc015cc:	00008012 	mflo	s0
bfc015d0:	3c121700 	lui	s2,0x1700
bfc015d4:	3652565c 	ori	s2,s2,0x565c
bfc015d8:	161200d0 	bne	s0,s2,bfc0191c <inst_error>
bfc015dc:	00000000 	nop
bfc015e0:	3c08efd2 	lui	t0,0xefd2
bfc015e4:	35080ca0 	ori	t0,t0,0xca0
bfc015e8:	01000013 	mtlo	t0
bfc015ec:	00008012 	mflo	s0
bfc015f0:	3c12efd2 	lui	s2,0xefd2
bfc015f4:	36520ca0 	ori	s2,s2,0xca0
bfc015f8:	161200c8 	bne	s0,s2,bfc0191c <inst_error>
bfc015fc:	00000000 	nop
bfc01600:	3c08a42e 	lui	t0,0xa42e
bfc01604:	35084ca4 	ori	t0,t0,0x4ca4
bfc01608:	01000013 	mtlo	t0
bfc0160c:	00008012 	mflo	s0
bfc01610:	3c12a42e 	lui	s2,0xa42e
bfc01614:	36524ca4 	ori	s2,s2,0x4ca4
bfc01618:	161200c0 	bne	s0,s2,bfc0191c <inst_error>
bfc0161c:	00000000 	nop
bfc01620:	3c081cc1 	lui	t0,0x1cc1
bfc01624:	35086ab8 	ori	t0,t0,0x6ab8
bfc01628:	01000013 	mtlo	t0
bfc0162c:	00008012 	mflo	s0
bfc01630:	3c121cc1 	lui	s2,0x1cc1
bfc01634:	36526ab8 	ori	s2,s2,0x6ab8
bfc01638:	161200b8 	bne	s0,s2,bfc0191c <inst_error>
bfc0163c:	00000000 	nop
bfc01640:	3c081271 	lui	t0,0x1271
bfc01644:	35086a00 	ori	t0,t0,0x6a00
bfc01648:	01000013 	mtlo	t0
bfc0164c:	00008012 	mflo	s0
bfc01650:	3c121271 	lui	s2,0x1271
bfc01654:	36526a00 	ori	s2,s2,0x6a00
bfc01658:	161200b0 	bne	s0,s2,bfc0191c <inst_error>
bfc0165c:	00000000 	nop
bfc01660:	3c08516e 	lui	t0,0x516e
bfc01664:	35089dd0 	ori	t0,t0,0x9dd0
bfc01668:	01000013 	mtlo	t0
bfc0166c:	00008012 	mflo	s0
bfc01670:	3c12516e 	lui	s2,0x516e
bfc01674:	36529dd0 	ori	s2,s2,0x9dd0
bfc01678:	161200a8 	bne	s0,s2,bfc0191c <inst_error>
bfc0167c:	00000000 	nop
bfc01680:	3c0840b9 	lui	t0,0x40b9
bfc01684:	3508e420 	ori	t0,t0,0xe420
bfc01688:	01000013 	mtlo	t0
bfc0168c:	00008012 	mflo	s0
bfc01690:	3c1240b9 	lui	s2,0x40b9
bfc01694:	3652e420 	ori	s2,s2,0xe420
bfc01698:	161200a0 	bne	s0,s2,bfc0191c <inst_error>
bfc0169c:	00000000 	nop
bfc016a0:	3c08663e 	lui	t0,0x663e
bfc016a4:	350853c4 	ori	t0,t0,0x53c4
bfc016a8:	01000013 	mtlo	t0
bfc016ac:	00008012 	mflo	s0
bfc016b0:	3c12663e 	lui	s2,0x663e
bfc016b4:	365253c4 	ori	s2,s2,0x53c4
bfc016b8:	16120098 	bne	s0,s2,bfc0191c <inst_error>
bfc016bc:	00000000 	nop
bfc016c0:	3c081e52 	lui	t0,0x1e52
bfc016c4:	3508da16 	ori	t0,t0,0xda16
bfc016c8:	01000013 	mtlo	t0
bfc016cc:	00008012 	mflo	s0
bfc016d0:	3c121e52 	lui	s2,0x1e52
bfc016d4:	3652da16 	ori	s2,s2,0xda16
bfc016d8:	16120090 	bne	s0,s2,bfc0191c <inst_error>
bfc016dc:	00000000 	nop
bfc016e0:	3c083332 	lui	t0,0x3332
bfc016e4:	3508b636 	ori	t0,t0,0xb636
bfc016e8:	01000013 	mtlo	t0
bfc016ec:	00008012 	mflo	s0
bfc016f0:	3c123332 	lui	s2,0x3332
bfc016f4:	3652b636 	ori	s2,s2,0xb636
bfc016f8:	16120088 	bne	s0,s2,bfc0191c <inst_error>
bfc016fc:	00000000 	nop
bfc01700:	3c08733d 	lui	t0,0x733d
bfc01704:	3508dc00 	ori	t0,t0,0xdc00
bfc01708:	01000013 	mtlo	t0
bfc0170c:	00008012 	mflo	s0
bfc01710:	3c12733d 	lui	s2,0x733d
bfc01714:	3652dc00 	ori	s2,s2,0xdc00
bfc01718:	16120080 	bne	s0,s2,bfc0191c <inst_error>
bfc0171c:	00000000 	nop
bfc01720:	3c086e0a 	lui	t0,0x6e0a
bfc01724:	35087e0f 	ori	t0,t0,0x7e0f
bfc01728:	01000013 	mtlo	t0
bfc0172c:	00008012 	mflo	s0
bfc01730:	3c126e0a 	lui	s2,0x6e0a
bfc01734:	36527e0f 	ori	s2,s2,0x7e0f
bfc01738:	16120078 	bne	s0,s2,bfc0191c <inst_error>
bfc0173c:	00000000 	nop
bfc01740:	3c08843d 	lui	t0,0x843d
bfc01744:	35088d6e 	ori	t0,t0,0x8d6e
bfc01748:	01000013 	mtlo	t0
bfc0174c:	00008012 	mflo	s0
bfc01750:	3c12843d 	lui	s2,0x843d
bfc01754:	36528d6e 	ori	s2,s2,0x8d6e
bfc01758:	16120070 	bne	s0,s2,bfc0191c <inst_error>
bfc0175c:	00000000 	nop
bfc01760:	3c08baf0 	lui	t0,0xbaf0
bfc01764:	3508e236 	ori	t0,t0,0xe236
bfc01768:	01000013 	mtlo	t0
bfc0176c:	00008012 	mflo	s0
bfc01770:	3c12baf0 	lui	s2,0xbaf0
bfc01774:	3652e236 	ori	s2,s2,0xe236
bfc01778:	16120068 	bne	s0,s2,bfc0191c <inst_error>
bfc0177c:	00000000 	nop
bfc01780:	3c088416 	lui	t0,0x8416
bfc01784:	3508a092 	ori	t0,t0,0xa092
bfc01788:	01000013 	mtlo	t0
bfc0178c:	00008012 	mflo	s0
bfc01790:	3c128416 	lui	s2,0x8416
bfc01794:	3652a092 	ori	s2,s2,0xa092
bfc01798:	16120060 	bne	s0,s2,bfc0191c <inst_error>
bfc0179c:	00000000 	nop
bfc017a0:	3c0811fa 	lui	t0,0x11fa
bfc017a4:	35082c80 	ori	t0,t0,0x2c80
bfc017a8:	01000013 	mtlo	t0
bfc017ac:	00008012 	mflo	s0
bfc017b0:	3c1211fa 	lui	s2,0x11fa
bfc017b4:	36522c80 	ori	s2,s2,0x2c80
bfc017b8:	16120058 	bne	s0,s2,bfc0191c <inst_error>
bfc017bc:	00000000 	nop
bfc017c0:	3c085330 	lui	t0,0x5330
bfc017c4:	3508fcd8 	ori	t0,t0,0xfcd8
bfc017c8:	01000013 	mtlo	t0
bfc017cc:	00008012 	mflo	s0
bfc017d0:	3c125330 	lui	s2,0x5330
bfc017d4:	3652fcd8 	ori	s2,s2,0xfcd8
bfc017d8:	16120050 	bne	s0,s2,bfc0191c <inst_error>
bfc017dc:	00000000 	nop
bfc017e0:	3c08123e 	lui	t0,0x123e
bfc017e4:	35083dbd 	ori	t0,t0,0x3dbd
bfc017e8:	01000013 	mtlo	t0
bfc017ec:	00008012 	mflo	s0
bfc017f0:	3c12123e 	lui	s2,0x123e
bfc017f4:	36523dbd 	ori	s2,s2,0x3dbd
bfc017f8:	16120048 	bne	s0,s2,bfc0191c <inst_error>
bfc017fc:	00000000 	nop
bfc01800:	3c08df39 	lui	t0,0xdf39
bfc01804:	3508f580 	ori	t0,t0,0xf580
bfc01808:	01000013 	mtlo	t0
bfc0180c:	00008012 	mflo	s0
bfc01810:	3c12df39 	lui	s2,0xdf39
bfc01814:	3652f580 	ori	s2,s2,0xf580
bfc01818:	16120040 	bne	s0,s2,bfc0191c <inst_error>
bfc0181c:	00000000 	nop
bfc01820:	3c08bc2c 	lui	t0,0xbc2c
bfc01824:	35087318 	ori	t0,t0,0x7318
bfc01828:	01000013 	mtlo	t0
bfc0182c:	00008012 	mflo	s0
bfc01830:	3c12bc2c 	lui	s2,0xbc2c
bfc01834:	36527318 	ori	s2,s2,0x7318
bfc01838:	16120038 	bne	s0,s2,bfc0191c <inst_error>
bfc0183c:	00000000 	nop
bfc01840:	3c08c468 	lui	t0,0xc468
bfc01844:	35089c4d 	ori	t0,t0,0x9c4d
bfc01848:	01000013 	mtlo	t0
bfc0184c:	00008012 	mflo	s0
bfc01850:	3c12c468 	lui	s2,0xc468
bfc01854:	36529c4d 	ori	s2,s2,0x9c4d
bfc01858:	16120030 	bne	s0,s2,bfc0191c <inst_error>
bfc0185c:	00000000 	nop
bfc01860:	3c0856ef 	lui	t0,0x56ef
bfc01864:	3508e74c 	ori	t0,t0,0xe74c
bfc01868:	01000013 	mtlo	t0
bfc0186c:	00008012 	mflo	s0
bfc01870:	3c1256ef 	lui	s2,0x56ef
bfc01874:	3652e74c 	ori	s2,s2,0xe74c
bfc01878:	16120028 	bne	s0,s2,bfc0191c <inst_error>
bfc0187c:	00000000 	nop
bfc01880:	3c08fac2 	lui	t0,0xfac2
bfc01884:	3508f060 	ori	t0,t0,0xf060
bfc01888:	01000013 	mtlo	t0
bfc0188c:	00008012 	mflo	s0
bfc01890:	3c12fac2 	lui	s2,0xfac2
bfc01894:	3652f060 	ori	s2,s2,0xf060
bfc01898:	16120020 	bne	s0,s2,bfc0191c <inst_error>
bfc0189c:	00000000 	nop
bfc018a0:	3c081c7e 	lui	t0,0x1c7e
bfc018a4:	3508e058 	ori	t0,t0,0xe058
bfc018a8:	01000013 	mtlo	t0
bfc018ac:	00008012 	mflo	s0
bfc018b0:	3c121c7e 	lui	s2,0x1c7e
bfc018b4:	3652e058 	ori	s2,s2,0xe058
bfc018b8:	16120018 	bne	s0,s2,bfc0191c <inst_error>
bfc018bc:	00000000 	nop
bfc018c0:	3c08a0be 	lui	t0,0xa0be
bfc018c4:	350859c0 	ori	t0,t0,0x59c0
bfc018c8:	01000013 	mtlo	t0
bfc018cc:	00008012 	mflo	s0
bfc018d0:	3c12a0be 	lui	s2,0xa0be
bfc018d4:	365259c0 	ori	s2,s2,0x59c0
bfc018d8:	16120010 	bne	s0,s2,bfc0191c <inst_error>
bfc018dc:	00000000 	nop
bfc018e0:	3c08ee70 	lui	t0,0xee70
bfc018e4:	35087bd0 	ori	t0,t0,0x7bd0
bfc018e8:	01000013 	mtlo	t0
bfc018ec:	00008012 	mflo	s0
bfc018f0:	3c12ee70 	lui	s2,0xee70
bfc018f4:	36527bd0 	ori	s2,s2,0x7bd0
bfc018f8:	16120008 	bne	s0,s2,bfc0191c <inst_error>
bfc018fc:	00000000 	nop
bfc01900:	24080000 	li	t0,0
bfc01904:	01000013 	mtlo	t0
bfc01908:	00008012 	mflo	s0
bfc0190c:	24120000 	li	s2,0
bfc01910:	16120002 	bne	s0,s2,bfc0191c <inst_error>
bfc01914:	00000000 	nop
bfc01918:	4a000000 	c2	0x0

bfc0191c <inst_error>:
inst_error():
bfc0191c:	0000003f 	0x3f

Disassembly of section .reginfo:

00000000 <.reginfo>:
   0:	00050100 	sll	zero,a1,0x4
	...
