
build/mult:     file format elf32-tradlittlemips
build/mult


Disassembly of section .text:

bfc00000 <main>:
bfc00000:	3c0845b9 	lui	t0,0x45b9
bfc00004:	35080738 	ori	t0,t0,0x738
bfc00008:	3c09d70d 	lui	t1,0xd70d
bfc0000c:	352964f0 	ori	t1,t1,0x64f0
bfc00010:	01090018 	mult	t0,t1
bfc00014:	00008012 	mflo	s0
bfc00018:	3c120a20 	lui	s2,0xa20
bfc0001c:	3652a480 	ori	s2,s2,0xa480
bfc00020:	16121069 	bne	s0,s2,bfc041c8 <inst_error>
bfc00024:	00000000 	nop
bfc00028:	00008010 	mfhi	s0
bfc0002c:	3c12f4d9 	lui	s2,0xf4d9
bfc00030:	365203bb 	ori	s2,s2,0x3bb
bfc00034:	16121064 	bne	s0,s2,bfc041c8 <inst_error>
bfc00038:	00000000 	nop
bfc0003c:	3c0899a4 	lui	t0,0x99a4
bfc00040:	350851b0 	ori	t0,t0,0x51b0
bfc00044:	3c09be3d 	lui	t1,0xbe3d
bfc00048:	35299998 	ori	t1,t1,0x9998
bfc0004c:	01090018 	mult	t0,t1
bfc00050:	00008012 	mflo	s0
bfc00054:	3c128552 	lui	s2,0x8552
bfc00058:	3652b080 	ori	s2,s2,0xb080
bfc0005c:	1612105a 	bne	s0,s2,bfc041c8 <inst_error>
bfc00060:	00000000 	nop
bfc00064:	00008010 	mfhi	s0
bfc00068:	3c121a4b 	lui	s2,0x1a4b
bfc0006c:	365201ae 	ori	s2,s2,0x1ae
bfc00070:	16121055 	bne	s0,s2,bfc041c8 <inst_error>
bfc00074:	00000000 	nop
bfc00078:	3c088593 	lui	t0,0x8593
bfc0007c:	35081c58 	ori	t0,t0,0x1c58
bfc00080:	3c09fb71 	lui	t1,0xfb71
bfc00084:	35290fb5 	ori	t1,t1,0xfb5
bfc00088:	01090018 	mult	t0,t1
bfc0008c:	00008012 	mflo	s0
bfc00090:	3c12da84 	lui	s2,0xda84
bfc00094:	36523238 	ori	s2,s2,0x3238
bfc00098:	1612104b 	bne	s0,s2,bfc041c8 <inst_error>
bfc0009c:	00000000 	nop
bfc000a0:	00008010 	mfhi	s0
bfc000a4:	3c12022e 	lui	s2,0x22e
bfc000a8:	36520ede 	ori	s2,s2,0xede
bfc000ac:	16121046 	bne	s0,s2,bfc041c8 <inst_error>
bfc000b0:	00000000 	nop
bfc000b4:	3c08650e 	lui	t0,0x650e
bfc000b8:	35084043 	ori	t0,t0,0x4043
bfc000bc:	3c0964c1 	lui	t1,0x64c1
bfc000c0:	35297218 	ori	t1,t1,0x7218
bfc000c4:	01090018 	mult	t0,t1
bfc000c8:	00008012 	mflo	s0
bfc000cc:	3c127076 	lui	s2,0x7076
bfc000d0:	3652dc48 	ori	s2,s2,0xdc48
bfc000d4:	1612103c 	bne	s0,s2,bfc041c8 <inst_error>
bfc000d8:	00000000 	nop
bfc000dc:	00008010 	mfhi	s0
bfc000e0:	3c1227c5 	lui	s2,0x27c5
bfc000e4:	3652ede2 	ori	s2,s2,0xede2
bfc000e8:	16121037 	bne	s0,s2,bfc041c8 <inst_error>
bfc000ec:	00000000 	nop
bfc000f0:	3c08a00c 	lui	t0,0xa00c
bfc000f4:	35086c50 	ori	t0,t0,0x6c50
bfc000f8:	3c098e9d 	lui	t1,0x8e9d
bfc000fc:	3529f080 	ori	t1,t1,0xf080
bfc00100:	01090018 	mult	t0,t1
bfc00104:	00008012 	mflo	s0
bfc00108:	3c1278d1 	lui	s2,0x78d1
bfc0010c:	36522800 	ori	s2,s2,0x2800
bfc00110:	1612102d 	bne	s0,s2,bfc041c8 <inst_error>
bfc00114:	00000000 	nop
bfc00118:	00008010 	mfhi	s0
bfc0011c:	3c122a7f 	lui	s2,0x2a7f
bfc00120:	3652453e 	ori	s2,s2,0x453e
bfc00124:	16121028 	bne	s0,s2,bfc041c8 <inst_error>
bfc00128:	00000000 	nop
bfc0012c:	3c0899c8 	lui	t0,0x99c8
bfc00130:	350874b6 	ori	t0,t0,0x74b6
bfc00134:	3c09d7ce 	lui	t1,0xd7ce
bfc00138:	352983e0 	ori	t1,t1,0x83e0
bfc0013c:	01090018 	mult	t0,t1
bfc00140:	00008012 	mflo	s0
bfc00144:	3c12e793 	lui	s2,0xe793
bfc00148:	36524140 	ori	s2,s2,0x4140
bfc0014c:	1612101e 	bne	s0,s2,bfc041c8 <inst_error>
bfc00150:	00000000 	nop
bfc00154:	00008010 	mfhi	s0
bfc00158:	3c12100c 	lui	s2,0x100c
bfc0015c:	36526ff4 	ori	s2,s2,0x6ff4
bfc00160:	16121019 	bne	s0,s2,bfc041c8 <inst_error>
bfc00164:	00000000 	nop
bfc00168:	3c081c62 	lui	t0,0x1c62
bfc0016c:	3508f360 	ori	t0,t0,0xf360
bfc00170:	3c093458 	lui	t1,0x3458
bfc00174:	35290400 	ori	t1,t1,0x400
bfc00178:	01090018 	mult	t0,t1
bfc0017c:	00008012 	mflo	s0
bfc00180:	3c12b4cd 	lui	s2,0xb4cd
bfc00184:	36528000 	ori	s2,s2,0x8000
bfc00188:	1612100f 	bne	s0,s2,bfc041c8 <inst_error>
bfc0018c:	00000000 	nop
bfc00190:	00008010 	mfhi	s0
bfc00194:	3c1205cd 	lui	s2,0x5cd
bfc00198:	3652dbe4 	ori	s2,s2,0xdbe4
bfc0019c:	1612100a 	bne	s0,s2,bfc041c8 <inst_error>
bfc001a0:	00000000 	nop
bfc001a4:	3c081f65 	lui	t0,0x1f65
bfc001a8:	350890a3 	ori	t0,t0,0x90a3
bfc001ac:	3c0979c4 	lui	t1,0x79c4
bfc001b0:	3529a6c0 	ori	t1,t1,0xa6c0
bfc001b4:	01090018 	mult	t0,t1
bfc001b8:	00008012 	mflo	s0
bfc001bc:	3c122fc2 	lui	s2,0x2fc2
bfc001c0:	36522c40 	ori	s2,s2,0x2c40
bfc001c4:	16121000 	bne	s0,s2,bfc041c8 <inst_error>
bfc001c8:	00000000 	nop
bfc001cc:	00008010 	mfhi	s0
bfc001d0:	3c120eef 	lui	s2,0xeef
bfc001d4:	36521f93 	ori	s2,s2,0x1f93
bfc001d8:	16120ffb 	bne	s0,s2,bfc041c8 <inst_error>
bfc001dc:	00000000 	nop
bfc001e0:	3c08ff62 	lui	t0,0xff62
bfc001e4:	3508411e 	ori	t0,t0,0x411e
bfc001e8:	3c098f14 	lui	t1,0x8f14
bfc001ec:	3529e410 	ori	t1,t1,0xe410
bfc001f0:	01090018 	mult	t0,t1
bfc001f4:	00008012 	mflo	s0
bfc001f8:	3c12507a 	lui	s2,0x507a
bfc001fc:	3652c9e0 	ori	s2,s2,0xc9e0
bfc00200:	16120ff1 	bne	s0,s2,bfc041c8 <inst_error>
bfc00204:	00000000 	nop
bfc00208:	00008010 	mfhi	s0
bfc0020c:	3c120045 	lui	s2,0x45
bfc00210:	36529462 	ori	s2,s2,0x9462
bfc00214:	16120fec 	bne	s0,s2,bfc041c8 <inst_error>
bfc00218:	00000000 	nop
bfc0021c:	3c086e60 	lui	t0,0x6e60
bfc00220:	3508d958 	ori	t0,t0,0xd958
bfc00224:	3c09398d 	lui	t1,0x398d
bfc00228:	35296128 	ori	t1,t1,0x6128
bfc0022c:	01090018 	mult	t0,t1
bfc00230:	00008012 	mflo	s0
bfc00234:	3c123ef4 	lui	s2,0x3ef4
bfc00238:	36524dc0 	ori	s2,s2,0x4dc0
bfc0023c:	16120fe2 	bne	s0,s2,bfc041c8 <inst_error>
bfc00240:	00000000 	nop
bfc00244:	00008010 	mfhi	s0
bfc00248:	3c1218d0 	lui	s2,0x18d0
bfc0024c:	365285a0 	ori	s2,s2,0x85a0
bfc00250:	16120fdd 	bne	s0,s2,bfc041c8 <inst_error>
bfc00254:	00000000 	nop
bfc00258:	3c080a2c 	lui	t0,0xa2c
bfc0025c:	3508c9dc 	ori	t0,t0,0xc9dc
bfc00260:	3c0969e2 	lui	t1,0x69e2
bfc00264:	3529c7e0 	ori	t1,t1,0xc7e0
bfc00268:	01090018 	mult	t0,t1
bfc0026c:	00008012 	mflo	s0
bfc00270:	3c122852 	lui	s2,0x2852
bfc00274:	3652a480 	ori	s2,s2,0xa480
bfc00278:	16120fd3 	bne	s0,s2,bfc041c8 <inst_error>
bfc0027c:	00000000 	nop
bfc00280:	00008010 	mfhi	s0
bfc00284:	3c120435 	lui	s2,0x435
bfc00288:	36526247 	ori	s2,s2,0x6247
bfc0028c:	16120fce 	bne	s0,s2,bfc041c8 <inst_error>
bfc00290:	00000000 	nop
bfc00294:	3c088dd1 	lui	t0,0x8dd1
bfc00298:	350817c2 	ori	t0,t0,0x17c2
bfc0029c:	3c090c27 	lui	t1,0xc27
bfc002a0:	35294784 	ori	t1,t1,0x4784
bfc002a4:	01090018 	mult	t0,t1
bfc002a8:	00008012 	mflo	s0
bfc002ac:	3c12d3f5 	lui	s2,0xd3f5
bfc002b0:	36520e08 	ori	s2,s2,0xe08
bfc002b4:	16120fc4 	bne	s0,s2,bfc041c8 <inst_error>
bfc002b8:	00000000 	nop
bfc002bc:	00008010 	mfhi	s0
bfc002c0:	3c12fa94 	lui	s2,0xfa94
bfc002c4:	36524811 	ori	s2,s2,0x4811
bfc002c8:	16120fbf 	bne	s0,s2,bfc041c8 <inst_error>
bfc002cc:	00000000 	nop
bfc002d0:	3c089c72 	lui	t0,0x9c72
bfc002d4:	3508ad5f 	ori	t0,t0,0xad5f
bfc002d8:	3c092300 	lui	t1,0x2300
bfc002dc:	35295de4 	ori	t1,t1,0x5de4
bfc002e0:	01090018 	mult	t0,t1
bfc002e4:	00008012 	mflo	s0
bfc002e8:	3c12fc1d 	lui	s2,0xfc1d
bfc002ec:	3652eb9c 	ori	s2,s2,0xeb9c
bfc002f0:	16120fb5 	bne	s0,s2,bfc041c8 <inst_error>
bfc002f4:	00000000 	nop
bfc002f8:	00008010 	mfhi	s0
bfc002fc:	3c12f263 	lui	s2,0xf263
bfc00300:	36528930 	ori	s2,s2,0x8930
bfc00304:	16120fb0 	bne	s0,s2,bfc041c8 <inst_error>
bfc00308:	00000000 	nop
bfc0030c:	3c08b825 	lui	t0,0xb825
bfc00310:	3508ee40 	ori	t0,t0,0xee40
bfc00314:	3c09b2a4 	lui	t1,0xb2a4
bfc00318:	35299f00 	ori	t1,t1,0x9f00
bfc0031c:	01090018 	mult	t0,t1
bfc00320:	00008012 	mflo	s0
bfc00324:	3c12aff9 	lui	s2,0xaff9
bfc00328:	3652c000 	ori	s2,s2,0xc000
bfc0032c:	16120fa6 	bne	s0,s2,bfc041c8 <inst_error>
bfc00330:	00000000 	nop
bfc00334:	00008010 	mfhi	s0
bfc00338:	3c1215b6 	lui	s2,0x15b6
bfc0033c:	36523d14 	ori	s2,s2,0x3d14
bfc00340:	16120fa1 	bne	s0,s2,bfc041c8 <inst_error>
bfc00344:	00000000 	nop
bfc00348:	3c087e8a 	lui	t0,0x7e8a
bfc0034c:	35083b38 	ori	t0,t0,0x3b38
bfc00350:	3c09dc0b 	lui	t1,0xdc0b
bfc00354:	3529b17c 	ori	t1,t1,0xb17c
bfc00358:	01090018 	mult	t0,t1
bfc0035c:	00008012 	mflo	s0
bfc00360:	3c12894e 	lui	s2,0x894e
bfc00364:	36526720 	ori	s2,s2,0x6720
bfc00368:	16120f97 	bne	s0,s2,bfc041c8 <inst_error>
bfc0036c:	00000000 	nop
bfc00370:	00008010 	mfhi	s0
bfc00374:	3c12ee3a 	lui	s2,0xee3a
bfc00378:	36525757 	ori	s2,s2,0x5757
bfc0037c:	16120f92 	bne	s0,s2,bfc041c8 <inst_error>
bfc00380:	00000000 	nop
bfc00384:	3c085905 	lui	t0,0x5905
bfc00388:	350802a8 	ori	t0,t0,0x2a8
bfc0038c:	3c09b042 	lui	t1,0xb042
bfc00390:	3529d6d3 	ori	t1,t1,0xd6d3
bfc00394:	01090018 	mult	t0,t1
bfc00398:	00008012 	mflo	s0
bfc0039c:	3c12bea9 	lui	s2,0xbea9
bfc003a0:	3652a078 	ori	s2,s2,0xa078
bfc003a4:	16120f88 	bne	s0,s2,bfc041c8 <inst_error>
bfc003a8:	00000000 	nop
bfc003ac:	00008010 	mfhi	s0
bfc003b0:	3c12e445 	lui	s2,0xe445
bfc003b4:	3652ad29 	ori	s2,s2,0xad29
bfc003b8:	16120f83 	bne	s0,s2,bfc041c8 <inst_error>
bfc003bc:	00000000 	nop
bfc003c0:	3c08563e 	lui	t0,0x563e
bfc003c4:	3508568c 	ori	t0,t0,0x568c
bfc003c8:	3c093556 	lui	t1,0x3556
bfc003cc:	3529a878 	ori	t1,t1,0xa878
bfc003d0:	01090018 	mult	t0,t1
bfc003d4:	00008012 	mflo	s0
bfc003d8:	3c12650c 	lui	s2,0x650c
bfc003dc:	365271a0 	ori	s2,s2,0x71a0
bfc003e0:	16120f79 	bne	s0,s2,bfc041c8 <inst_error>
bfc003e4:	00000000 	nop
bfc003e8:	00008010 	mfhi	s0
bfc003ec:	3c1211f8 	lui	s2,0x11f8
bfc003f0:	3652199d 	ori	s2,s2,0x199d
bfc003f4:	16120f74 	bne	s0,s2,bfc041c8 <inst_error>
bfc003f8:	00000000 	nop
bfc003fc:	3c088272 	lui	t0,0x8272
bfc00400:	3508afe6 	ori	t0,t0,0xafe6
bfc00404:	3c09afbb 	lui	t1,0xafbb
bfc00408:	3529fea0 	ori	t1,t1,0xfea0
bfc0040c:	01090018 	mult	t0,t1
bfc00410:	00008012 	mflo	s0
bfc00414:	3c120936 	lui	s2,0x936
bfc00418:	365223c0 	ori	s2,s2,0x23c0
bfc0041c:	16120f6a 	bne	s0,s2,bfc041c8 <inst_error>
bfc00420:	00000000 	nop
bfc00424:	00008010 	mfhi	s0
bfc00428:	3c12275d 	lui	s2,0x275d
bfc0042c:	3652833e 	ori	s2,s2,0x833e
bfc00430:	16120f65 	bne	s0,s2,bfc041c8 <inst_error>
bfc00434:	00000000 	nop
bfc00438:	3c084d16 	lui	t0,0x4d16
bfc0043c:	3508b256 	ori	t0,t0,0xb256
bfc00440:	3c09a206 	lui	t1,0xa206
bfc00444:	3529253c 	ori	t1,t1,0x253c
bfc00448:	01090018 	mult	t0,t1
bfc0044c:	00008012 	mflo	s0
bfc00450:	3c12f31c 	lui	s2,0xf31c
bfc00454:	36523a28 	ori	s2,s2,0x3a28
bfc00458:	16120f5b 	bne	s0,s2,bfc041c8 <inst_error>
bfc0045c:	00000000 	nop
bfc00460:	00008010 	mfhi	s0
bfc00464:	3c12e3b3 	lui	s2,0xe3b3
bfc00468:	36528442 	ori	s2,s2,0x8442
bfc0046c:	16120f56 	bne	s0,s2,bfc041c8 <inst_error>
bfc00470:	00000000 	nop
bfc00474:	3c08ccfb 	lui	t0,0xccfb
bfc00478:	3508fe9a 	ori	t0,t0,0xfe9a
bfc0047c:	3c09ff7e 	lui	t1,0xff7e
bfc00480:	3529f870 	ori	t1,t1,0xf870
bfc00484:	01090018 	mult	t0,t1
bfc00488:	00008012 	mflo	s0
bfc0048c:	3c1282b0 	lui	s2,0x82b0
bfc00490:	36529360 	ori	s2,s2,0x9360
bfc00494:	16120f4c 	bne	s0,s2,bfc041c8 <inst_error>
bfc00498:	00000000 	nop
bfc0049c:	00008010 	mfhi	s0
bfc004a0:	3c120019 	lui	s2,0x19
bfc004a4:	3652b686 	ori	s2,s2,0xb686
bfc004a8:	16120f47 	bne	s0,s2,bfc041c8 <inst_error>
bfc004ac:	00000000 	nop
bfc004b0:	3c080b38 	lui	t0,0xb38
bfc004b4:	35087432 	ori	t0,t0,0x7432
bfc004b8:	3c093e55 	lui	t1,0x3e55
bfc004bc:	35296ee0 	ori	t1,t1,0x6ee0
bfc004c0:	01090018 	mult	t0,t1
bfc004c4:	00008012 	mflo	s0
bfc004c8:	3c12c3ed 	lui	s2,0xc3ed
bfc004cc:	365227c0 	ori	s2,s2,0x27c0
bfc004d0:	16120f3d 	bne	s0,s2,bfc041c8 <inst_error>
bfc004d4:	00000000 	nop
bfc004d8:	00008010 	mfhi	s0
bfc004dc:	3c1202bb 	lui	s2,0x2bb
bfc004e0:	36526abe 	ori	s2,s2,0x6abe
bfc004e4:	16120f38 	bne	s0,s2,bfc041c8 <inst_error>
bfc004e8:	00000000 	nop
bfc004ec:	3c084e98 	lui	t0,0x4e98
bfc004f0:	3508cb5c 	ori	t0,t0,0xcb5c
bfc004f4:	3c09e749 	lui	t1,0xe749
bfc004f8:	3529004c 	ori	t1,t1,0x4c
bfc004fc:	01090018 	mult	t0,t1
bfc00500:	00008012 	mflo	s0
bfc00504:	3c125698 	lui	s2,0x5698
bfc00508:	36525f50 	ori	s2,s2,0x5f50
bfc0050c:	16120f2e 	bne	s0,s2,bfc041c8 <inst_error>
bfc00510:	00000000 	nop
bfc00514:	00008010 	mfhi	s0
bfc00518:	3c12f869 	lui	s2,0xf869
bfc0051c:	36527dcd 	ori	s2,s2,0x7dcd
bfc00520:	16120f29 	bne	s0,s2,bfc041c8 <inst_error>
bfc00524:	00000000 	nop
bfc00528:	3c08fe47 	lui	t0,0xfe47
bfc0052c:	350857ff 	ori	t0,t0,0x57ff
bfc00530:	3c097a75 	lui	t1,0x7a75
bfc00534:	35298790 	ori	t1,t1,0x8790
bfc00538:	01090018 	mult	t0,t1
bfc0053c:	00008012 	mflo	s0
bfc00540:	3c126513 	lui	s2,0x6513
bfc00544:	3652f870 	ori	s2,s2,0xf870
bfc00548:	16120f1f 	bne	s0,s2,bfc041c8 <inst_error>
bfc0054c:	00000000 	nop
bfc00550:	00008010 	mfhi	s0
bfc00554:	3c12ff2d 	lui	s2,0xff2d
bfc00558:	365235a1 	ori	s2,s2,0x35a1
bfc0055c:	16120f1a 	bne	s0,s2,bfc041c8 <inst_error>
bfc00560:	00000000 	nop
bfc00564:	3c08c8b8 	lui	t0,0xc8b8
bfc00568:	3508d574 	ori	t0,t0,0xd574
bfc0056c:	3c095fa6 	lui	t1,0x5fa6
bfc00570:	35292b36 	ori	t1,t1,0x2b36
bfc00574:	01090018 	mult	t0,t1
bfc00578:	00008012 	mflo	s0
bfc0057c:	3c12d80f 	lui	s2,0xd80f
bfc00580:	36528278 	ori	s2,s2,0x8278
bfc00584:	16120f10 	bne	s0,s2,bfc041c8 <inst_error>
bfc00588:	00000000 	nop
bfc0058c:	00008010 	mfhi	s0
bfc00590:	3c12eb58 	lui	s2,0xeb58
bfc00594:	3652b5bb 	ori	s2,s2,0xb5bb
bfc00598:	16120f0b 	bne	s0,s2,bfc041c8 <inst_error>
bfc0059c:	00000000 	nop
bfc005a0:	3c0879c1 	lui	t0,0x79c1
bfc005a4:	35080b40 	ori	t0,t0,0xb40
bfc005a8:	3c09045a 	lui	t1,0x45a
bfc005ac:	3529d1d0 	ori	t1,t1,0xd1d0
bfc005b0:	01090018 	mult	t0,t1
bfc005b4:	00008012 	mflo	s0
bfc005b8:	3c127b88 	lui	s2,0x7b88
bfc005bc:	36526400 	ori	s2,s2,0x6400
bfc005c0:	16120f01 	bne	s0,s2,bfc041c8 <inst_error>
bfc005c4:	00000000 	nop
bfc005c8:	00008010 	mfhi	s0
bfc005cc:	3c120212 	lui	s2,0x212
bfc005d0:	365235d4 	ori	s2,s2,0x35d4
bfc005d4:	16120efc 	bne	s0,s2,bfc041c8 <inst_error>
bfc005d8:	00000000 	nop
bfc005dc:	3c08e815 	lui	t0,0xe815
bfc005e0:	35085246 	ori	t0,t0,0x5246
bfc005e4:	3c096e70 	lui	t1,0x6e70
bfc005e8:	35294024 	ori	t1,t1,0x4024
bfc005ec:	01090018 	mult	t0,t1
bfc005f0:	00008012 	mflo	s0
bfc005f4:	3c120a31 	lui	s2,0xa31
bfc005f8:	365211d8 	ori	s2,s2,0x11d8
bfc005fc:	16120ef2 	bne	s0,s2,bfc041c8 <inst_error>
bfc00600:	00000000 	nop
bfc00604:	00008010 	mfhi	s0
bfc00608:	3c12f5ae 	lui	s2,0xf5ae
bfc0060c:	3652acb0 	ori	s2,s2,0xacb0
bfc00610:	16120eed 	bne	s0,s2,bfc041c8 <inst_error>
bfc00614:	00000000 	nop
bfc00618:	3c08e772 	lui	t0,0xe772
bfc0061c:	35080f1b 	ori	t0,t0,0xf1b
bfc00620:	3c095f76 	lui	t1,0x5f76
bfc00624:	352958a6 	ori	t1,t1,0x58a6
bfc00628:	01090018 	mult	t0,t1
bfc0062c:	00008012 	mflo	s0
bfc00630:	3c124499 	lui	s2,0x4499
bfc00634:	36521382 	ori	s2,s2,0x1382
bfc00638:	16120ee3 	bne	s0,s2,bfc041c8 <inst_error>
bfc0063c:	00000000 	nop
bfc00640:	00008010 	mfhi	s0
bfc00644:	3c12f6d7 	lui	s2,0xf6d7
bfc00648:	3652f9ad 	ori	s2,s2,0xf9ad
bfc0064c:	16120ede 	bne	s0,s2,bfc041c8 <inst_error>
bfc00650:	00000000 	nop
bfc00654:	3c08f013 	lui	t0,0xf013
bfc00658:	35085418 	ori	t0,t0,0x5418
bfc0065c:	3c09c48c 	lui	t1,0xc48c
bfc00660:	3529cca0 	ori	t1,t1,0xcca0
bfc00664:	01090018 	mult	t0,t1
bfc00668:	00008012 	mflo	s0
bfc0066c:	3c12d037 	lui	s2,0xd037
bfc00670:	3652af00 	ori	s2,s2,0xaf00
bfc00674:	16120ed4 	bne	s0,s2,bfc041c8 <inst_error>
bfc00678:	00000000 	nop
bfc0067c:	00008010 	mfhi	s0
bfc00680:	3c1203b2 	lui	s2,0x3b2
bfc00684:	3652b621 	ori	s2,s2,0xb621
bfc00688:	16120ecf 	bne	s0,s2,bfc041c8 <inst_error>
bfc0068c:	00000000 	nop
bfc00690:	3c0815e5 	lui	t0,0x15e5
bfc00694:	3508a2a0 	ori	t0,t0,0xa2a0
bfc00698:	3c096cfb 	lui	t1,0x6cfb
bfc0069c:	35291720 	ori	t1,t1,0x1720
bfc006a0:	01090018 	mult	t0,t1
bfc006a4:	00008012 	mflo	s0
bfc006a8:	3c125130 	lui	s2,0x5130
bfc006ac:	3652b400 	ori	s2,s2,0xb400
bfc006b0:	16120ec5 	bne	s0,s2,bfc041c8 <inst_error>
bfc006b4:	00000000 	nop
bfc006b8:	00008010 	mfhi	s0
bfc006bc:	3c120952 	lui	s2,0x952
bfc006c0:	36525abc 	ori	s2,s2,0x5abc
bfc006c4:	16120ec0 	bne	s0,s2,bfc041c8 <inst_error>
bfc006c8:	00000000 	nop
bfc006cc:	3c08d26c 	lui	t0,0xd26c
bfc006d0:	3508cdc0 	ori	t0,t0,0xcdc0
bfc006d4:	3c09bcab 	lui	t1,0xbcab
bfc006d8:	3529b380 	ori	t1,t1,0xb380
bfc006dc:	01090018 	mult	t0,t1
bfc006e0:	00008012 	mflo	s0
bfc006e4:	3c12b984 	lui	s2,0xb984
bfc006e8:	36522000 	ori	s2,s2,0x2000
bfc006ec:	16120eb6 	bne	s0,s2,bfc041c8 <inst_error>
bfc006f0:	00000000 	nop
bfc006f4:	00008010 	mfhi	s0
bfc006f8:	3c120bfc 	lui	s2,0xbfc
bfc006fc:	36528811 	ori	s2,s2,0x8811
bfc00700:	16120eb1 	bne	s0,s2,bfc041c8 <inst_error>
bfc00704:	00000000 	nop
bfc00708:	3c08d9e0 	lui	t0,0xd9e0
bfc0070c:	35082f14 	ori	t0,t0,0x2f14
bfc00710:	3c09de8e 	lui	t1,0xde8e
bfc00714:	3529a5d8 	ori	t1,t1,0xa5d8
bfc00718:	01090018 	mult	t0,t1
bfc0071c:	00008012 	mflo	s0
bfc00720:	3c12c897 	lui	s2,0xc897
bfc00724:	36529ce0 	ori	s2,s2,0x9ce0
bfc00728:	16120ea7 	bne	s0,s2,bfc041c8 <inst_error>
bfc0072c:	00000000 	nop
bfc00730:	00008010 	mfhi	s0
bfc00734:	3c1204fa 	lui	s2,0x4fa
bfc00738:	3652fb66 	ori	s2,s2,0xfb66
bfc0073c:	16120ea2 	bne	s0,s2,bfc041c8 <inst_error>
bfc00740:	00000000 	nop
bfc00744:	3c085ea7 	lui	t0,0x5ea7
bfc00748:	3508ae9d 	ori	t0,t0,0xae9d
bfc0074c:	3c095a98 	lui	t1,0x5a98
bfc00750:	352957e0 	ori	t1,t1,0x57e0
bfc00754:	01090018 	mult	t0,t1
bfc00758:	00008012 	mflo	s0
bfc0075c:	3c12ae48 	lui	s2,0xae48
bfc00760:	36522460 	ori	s2,s2,0x2460
bfc00764:	16120e98 	bne	s0,s2,bfc041c8 <inst_error>
bfc00768:	00000000 	nop
bfc0076c:	00008010 	mfhi	s0
bfc00770:	3c12217f 	lui	s2,0x217f
bfc00774:	36524770 	ori	s2,s2,0x4770
bfc00778:	16120e93 	bne	s0,s2,bfc041c8 <inst_error>
bfc0077c:	00000000 	nop
bfc00780:	3c08ab6e 	lui	t0,0xab6e
bfc00784:	3508a180 	ori	t0,t0,0xa180
bfc00788:	3c09dc6d 	lui	t1,0xdc6d
bfc0078c:	3529bfb0 	ori	t1,t1,0xbfb0
bfc00790:	01090018 	mult	t0,t1
bfc00794:	00008012 	mflo	s0
bfc00798:	3c122a0d 	lui	s2,0x2a0d
bfc0079c:	36528800 	ori	s2,s2,0x8800
bfc007a0:	16120e89 	bne	s0,s2,bfc041c8 <inst_error>
bfc007a4:	00000000 	nop
bfc007a8:	00008010 	mfhi	s0
bfc007ac:	3c120bc0 	lui	s2,0xbc0
bfc007b0:	36523012 	ori	s2,s2,0x3012
bfc007b4:	16120e84 	bne	s0,s2,bfc041c8 <inst_error>
bfc007b8:	00000000 	nop
bfc007bc:	3c08f3e5 	lui	t0,0xf3e5
bfc007c0:	35083f00 	ori	t0,t0,0x3f00
bfc007c4:	3c094573 	lui	t1,0x4573
bfc007c8:	3529ddf6 	ori	t1,t1,0xddf6
bfc007cc:	01090018 	mult	t0,t1
bfc007d0:	00008012 	mflo	s0
bfc007d4:	3c1292ad 	lui	s2,0x92ad
bfc007d8:	36528a00 	ori	s2,s2,0x8a00
bfc007dc:	16120e7a 	bne	s0,s2,bfc041c8 <inst_error>
bfc007e0:	00000000 	nop
bfc007e4:	00008010 	mfhi	s0
bfc007e8:	3c12fcb7 	lui	s2,0xfcb7
bfc007ec:	36524f77 	ori	s2,s2,0x4f77
bfc007f0:	16120e75 	bne	s0,s2,bfc041c8 <inst_error>
bfc007f4:	00000000 	nop
bfc007f8:	3c087000 	lui	t0,0x7000
bfc007fc:	35089f0e 	ori	t0,t0,0x9f0e
bfc00800:	3c0963e0 	lui	t1,0x63e0
bfc00804:	3529b340 	ori	t1,t1,0xb340
bfc00808:	01090018 	mult	t0,t1
bfc0080c:	00008012 	mflo	s0
bfc00810:	3c12059e 	lui	s2,0x59e
bfc00814:	36528d80 	ori	s2,s2,0x8d80
bfc00818:	16120e6b 	bne	s0,s2,bfc041c8 <inst_error>
bfc0081c:	00000000 	nop
bfc00820:	00008010 	mfhi	s0
bfc00824:	3c122bb2 	lui	s2,0x2bb2
bfc00828:	36528c7a 	ori	s2,s2,0x8c7a
bfc0082c:	16120e66 	bne	s0,s2,bfc041c8 <inst_error>
bfc00830:	00000000 	nop
bfc00834:	3c080d0c 	lui	t0,0xd0c
bfc00838:	3508b5f5 	ori	t0,t0,0xb5f5
bfc0083c:	3c09b35a 	lui	t1,0xb35a
bfc00840:	3529a928 	ori	t1,t1,0xa928
bfc00844:	01090018 	mult	t0,t1
bfc00848:	00008012 	mflo	s0
bfc0084c:	3c12b53d 	lui	s2,0xb53d
bfc00850:	36522b48 	ori	s2,s2,0x2b48
bfc00854:	16120e5c 	bne	s0,s2,bfc041c8 <inst_error>
bfc00858:	00000000 	nop
bfc0085c:	00008010 	mfhi	s0
bfc00860:	3c12fc17 	lui	s2,0xfc17
bfc00864:	3652cc5c 	ori	s2,s2,0xcc5c
bfc00868:	16120e57 	bne	s0,s2,bfc041c8 <inst_error>
bfc0086c:	00000000 	nop
bfc00870:	3c0899b8 	lui	t0,0x99b8
bfc00874:	35080b00 	ori	t0,t0,0xb00
bfc00878:	3c096c46 	lui	t1,0x6c46
bfc0087c:	35293000 	ori	t1,t1,0x3000
bfc00880:	01090018 	mult	t0,t1
bfc00884:	00008012 	mflo	s0
bfc00888:	3c128410 	lui	s2,0x8410
bfc0088c:	16120e4e 	bne	s0,s2,bfc041c8 <inst_error>
bfc00890:	00000000 	nop
bfc00894:	00008010 	mfhi	s0
bfc00898:	3c12d4bd 	lui	s2,0xd4bd
bfc0089c:	365299c9 	ori	s2,s2,0x99c9
bfc008a0:	16120e49 	bne	s0,s2,bfc041c8 <inst_error>
bfc008a4:	00000000 	nop
bfc008a8:	3c08dc82 	lui	t0,0xdc82
bfc008ac:	35083390 	ori	t0,t0,0x3390
bfc008b0:	3c095208 	lui	t1,0x5208
bfc008b4:	3529f838 	ori	t1,t1,0xf838
bfc008b8:	01090018 	mult	t0,t1
bfc008bc:	00008012 	mflo	s0
bfc008c0:	3c121aee 	lui	s2,0x1aee
bfc008c4:	3652c780 	ori	s2,s2,0xc780
bfc008c8:	16120e3f 	bne	s0,s2,bfc041c8 <inst_error>
bfc008cc:	00000000 	nop
bfc008d0:	00008010 	mfhi	s0
bfc008d4:	3c12f4a0 	lui	s2,0xf4a0
bfc008d8:	3652762c 	ori	s2,s2,0x762c
bfc008dc:	16120e3a 	bne	s0,s2,bfc041c8 <inst_error>
bfc008e0:	00000000 	nop
bfc008e4:	3c08e530 	lui	t0,0xe530
bfc008e8:	350880d8 	ori	t0,t0,0x80d8
bfc008ec:	3c09848a 	lui	t1,0x848a
bfc008f0:	35299c5a 	ori	t1,t1,0x9c5a
bfc008f4:	01090018 	mult	t0,t1
bfc008f8:	00008012 	mflo	s0
bfc008fc:	3c12f600 	lui	s2,0xf600
bfc00900:	3652ebf0 	ori	s2,s2,0xebf0
bfc00904:	16120e30 	bne	s0,s2,bfc041c8 <inst_error>
bfc00908:	00000000 	nop
bfc0090c:	00008010 	mfhi	s0
bfc00910:	3c120ced 	lui	s2,0xced
bfc00914:	3652fd5c 	ori	s2,s2,0xfd5c
bfc00918:	16120e2b 	bne	s0,s2,bfc041c8 <inst_error>
bfc0091c:	00000000 	nop
bfc00920:	3c087f21 	lui	t0,0x7f21
bfc00924:	350863d8 	ori	t0,t0,0x63d8
bfc00928:	3c09ab5b 	lui	t1,0xab5b
bfc0092c:	3529ba80 	ori	t1,t1,0xba80
bfc00930:	01090018 	mult	t0,t1
bfc00934:	00008012 	mflo	s0
bfc00938:	3c129904 	lui	s2,0x9904
bfc0093c:	3652dc00 	ori	s2,s2,0xdc00
bfc00940:	16120e21 	bne	s0,s2,bfc041c8 <inst_error>
bfc00944:	00000000 	nop
bfc00948:	00008010 	mfhi	s0
bfc0094c:	3c12d5f7 	lui	s2,0xd5f7
bfc00950:	36527755 	ori	s2,s2,0x7755
bfc00954:	16120e1c 	bne	s0,s2,bfc041c8 <inst_error>
bfc00958:	00000000 	nop
bfc0095c:	3c08ea7b 	lui	t0,0xea7b
bfc00960:	350888c0 	ori	t0,t0,0x88c0
bfc00964:	3c0923ee 	lui	t1,0x23ee
bfc00968:	3529d510 	ori	t1,t1,0xd510
bfc0096c:	01090018 	mult	t0,t1
bfc00970:	00008012 	mflo	s0
bfc00974:	3c12d300 	lui	s2,0xd300
bfc00978:	36524c00 	ori	s2,s2,0x4c00
bfc0097c:	16120e12 	bne	s0,s2,bfc041c8 <inst_error>
bfc00980:	00000000 	nop
bfc00984:	00008010 	mfhi	s0
bfc00988:	3c12fcfa 	lui	s2,0xfcfa
bfc0098c:	3652d0a2 	ori	s2,s2,0xd0a2
bfc00990:	16120e0d 	bne	s0,s2,bfc041c8 <inst_error>
bfc00994:	00000000 	nop
bfc00998:	3c087389 	lui	t0,0x7389
bfc0099c:	3508b4fd 	ori	t0,t0,0xb4fd
bfc009a0:	3c09ea06 	lui	t1,0xea06
bfc009a4:	35293940 	ori	t1,t1,0x3940
bfc009a8:	01090018 	mult	t0,t1
bfc009ac:	00008012 	mflo	s0
bfc009b0:	3c120ba7 	lui	s2,0xba7
bfc009b4:	36529440 	ori	s2,s2,0x9440
bfc009b8:	16120e03 	bne	s0,s2,bfc041c8 <inst_error>
bfc009bc:	00000000 	nop
bfc009c0:	00008010 	mfhi	s0
bfc009c4:	3c12f614 	lui	s2,0xf614
bfc009c8:	3652f983 	ori	s2,s2,0xf983
bfc009cc:	16120dfe 	bne	s0,s2,bfc041c8 <inst_error>
bfc009d0:	00000000 	nop
bfc009d4:	3c08bcdf 	lui	t0,0xbcdf
bfc009d8:	35089b20 	ori	t0,t0,0x9b20
bfc009dc:	3c09c145 	lui	t1,0xc145
bfc009e0:	35291978 	ori	t1,t1,0x1978
bfc009e4:	01090018 	mult	t0,t1
bfc009e8:	00008012 	mflo	s0
bfc009ec:	3c124e96 	lui	s2,0x4e96
bfc009f0:	3652d700 	ori	s2,s2,0xd700
bfc009f4:	16120df4 	bne	s0,s2,bfc041c8 <inst_error>
bfc009f8:	00000000 	nop
bfc009fc:	00008010 	mfhi	s0
bfc00a00:	3c121072 	lui	s2,0x1072
bfc00a04:	3652da6a 	ori	s2,s2,0xda6a
bfc00a08:	16120def 	bne	s0,s2,bfc041c8 <inst_error>
bfc00a0c:	00000000 	nop
bfc00a10:	3c08dcac 	lui	t0,0xdcac
bfc00a14:	3508fd50 	ori	t0,t0,0xfd50
bfc00a18:	3c09809d 	lui	t1,0x809d
bfc00a1c:	35290a80 	ori	t1,t1,0xa80
bfc00a20:	01090018 	mult	t0,t1
bfc00a24:	00008012 	mflo	s0
bfc00a28:	3c127273 	lui	s2,0x7273
bfc00a2c:	3652c800 	ori	s2,s2,0xc800
bfc00a30:	16120de5 	bne	s0,s2,bfc041c8 <inst_error>
bfc00a34:	00000000 	nop
bfc00a38:	00008010 	mfhi	s0
bfc00a3c:	3c121193 	lui	s2,0x1193
bfc00a40:	3652d5fc 	ori	s2,s2,0xd5fc
bfc00a44:	16120de0 	bne	s0,s2,bfc041c8 <inst_error>
bfc00a48:	00000000 	nop
bfc00a4c:	3c0855ed 	lui	t0,0x55ed
bfc00a50:	35083100 	ori	t0,t0,0x3100
bfc00a54:	3c09be5b 	lui	t1,0xbe5b
bfc00a58:	3529a9f2 	ori	t1,t1,0xa9f2
bfc00a5c:	01090018 	mult	t0,t1
bfc00a60:	00008012 	mflo	s0
bfc00a64:	3c123a91 	lui	s2,0x3a91
bfc00a68:	36525200 	ori	s2,s2,0x5200
bfc00a6c:	16120dd6 	bne	s0,s2,bfc041c8 <inst_error>
bfc00a70:	00000000 	nop
bfc00a74:	00008010 	mfhi	s0
bfc00a78:	3c12e9f7 	lui	s2,0xe9f7
bfc00a7c:	36529db9 	ori	s2,s2,0x9db9
bfc00a80:	16120dd1 	bne	s0,s2,bfc041c8 <inst_error>
bfc00a84:	00000000 	nop
bfc00a88:	3c08cedb 	lui	t0,0xcedb
bfc00a8c:	35085fd8 	ori	t0,t0,0x5fd8
bfc00a90:	3c09e179 	lui	t1,0xe179
bfc00a94:	35293b60 	ori	t1,t1,0x3b60
bfc00a98:	01090018 	mult	t0,t1
bfc00a9c:	00008012 	mflo	s0
bfc00aa0:	3c124672 	lui	s2,0x4672
bfc00aa4:	3652b900 	ori	s2,s2,0xb900
bfc00aa8:	16120dc7 	bne	s0,s2,bfc041c8 <inst_error>
bfc00aac:	00000000 	nop
bfc00ab0:	00008010 	mfhi	s0
bfc00ab4:	3c1205dc 	lui	s2,0x5dc
bfc00ab8:	365229af 	ori	s2,s2,0x29af
bfc00abc:	16120dc2 	bne	s0,s2,bfc041c8 <inst_error>
bfc00ac0:	00000000 	nop
bfc00ac4:	3c089d32 	lui	t0,0x9d32
bfc00ac8:	3508f1b0 	ori	t0,t0,0xf1b0
bfc00acc:	3c09bb20 	lui	t1,0xbb20
bfc00ad0:	352916b8 	ori	t1,t1,0x16b8
bfc00ad4:	01090018 	mult	t0,t1
bfc00ad8:	00008012 	mflo	s0
bfc00adc:	3c122362 	lui	s2,0x2362
bfc00ae0:	3652d680 	ori	s2,s2,0xd680
bfc00ae4:	16120db8 	bne	s0,s2,bfc041c8 <inst_error>
bfc00ae8:	00000000 	nop
bfc00aec:	00008010 	mfhi	s0
bfc00af0:	3c121a94 	lui	s2,0x1a94
bfc00af4:	3652e275 	ori	s2,s2,0xe275
bfc00af8:	16120db3 	bne	s0,s2,bfc041c8 <inst_error>
bfc00afc:	00000000 	nop
bfc00b00:	3c087091 	lui	t0,0x7091
bfc00b04:	3508ae43 	ori	t0,t0,0xae43
bfc00b08:	3c09db39 	lui	t1,0xdb39
bfc00b0c:	35290460 	ori	t1,t1,0x460
bfc00b10:	01090018 	mult	t0,t1
bfc00b14:	00008012 	mflo	s0
bfc00b18:	3c129b45 	lui	s2,0x9b45
bfc00b1c:	36526520 	ori	s2,s2,0x6520
bfc00b20:	16120da9 	bne	s0,s2,bfc041c8 <inst_error>
bfc00b24:	00000000 	nop
bfc00b28:	00008010 	mfhi	s0
bfc00b2c:	3c12efd4 	lui	s2,0xefd4
bfc00b30:	3652042c 	ori	s2,s2,0x42c
bfc00b34:	16120da4 	bne	s0,s2,bfc041c8 <inst_error>
bfc00b38:	00000000 	nop
bfc00b3c:	3c08549b 	lui	t0,0x549b
bfc00b40:	3508f440 	ori	t0,t0,0xf440
bfc00b44:	3c09d1dc 	lui	t1,0xd1dc
bfc00b48:	35299f40 	ori	t1,t1,0x9f40
bfc00b4c:	01090018 	mult	t0,t1
bfc00b50:	00008012 	mflo	s0
bfc00b54:	3c122ab0 	lui	s2,0x2ab0
bfc00b58:	3652d000 	ori	s2,s2,0xd000
bfc00b5c:	16120d9a 	bne	s0,s2,bfc041c8 <inst_error>
bfc00b60:	00000000 	nop
bfc00b64:	00008010 	mfhi	s0
bfc00b68:	3c12f0c0 	lui	s2,0xf0c0
bfc00b6c:	365248d0 	ori	s2,s2,0x48d0
bfc00b70:	16120d95 	bne	s0,s2,bfc041c8 <inst_error>
bfc00b74:	00000000 	nop
bfc00b78:	3c0863b2 	lui	t0,0x63b2
bfc00b7c:	350841cc 	ori	t0,t0,0x41cc
bfc00b80:	3c0948ae 	lui	t1,0x48ae
bfc00b84:	3529fe14 	ori	t1,t1,0xfe14
bfc00b88:	01090018 	mult	t0,t1
bfc00b8c:	00008012 	mflo	s0
bfc00b90:	3c12bfdd 	lui	s2,0xbfdd
bfc00b94:	36528bf0 	ori	s2,s2,0x8bf0
bfc00b98:	16120d8b 	bne	s0,s2,bfc041c8 <inst_error>
bfc00b9c:	00000000 	nop
bfc00ba0:	00008010 	mfhi	s0
bfc00ba4:	3c121c4e 	lui	s2,0x1c4e
bfc00ba8:	3652489c 	ori	s2,s2,0x489c
bfc00bac:	16120d86 	bne	s0,s2,bfc041c8 <inst_error>
bfc00bb0:	00000000 	nop
bfc00bb4:	3c084c92 	lui	t0,0x4c92
bfc00bb8:	35085040 	ori	t0,t0,0x5040
bfc00bbc:	3c090855 	lui	t1,0x855
bfc00bc0:	3529d2c8 	ori	t1,t1,0xd2c8
bfc00bc4:	01090018 	mult	t0,t1
bfc00bc8:	00008012 	mflo	s0
bfc00bcc:	3c127d63 	lui	s2,0x7d63
bfc00bd0:	36523200 	ori	s2,s2,0x3200
bfc00bd4:	16120d7c 	bne	s0,s2,bfc041c8 <inst_error>
bfc00bd8:	00000000 	nop
bfc00bdc:	00008010 	mfhi	s0
bfc00be0:	3c12027e 	lui	s2,0x27e
bfc00be4:	36523e22 	ori	s2,s2,0x3e22
bfc00be8:	16120d77 	bne	s0,s2,bfc041c8 <inst_error>
bfc00bec:	00000000 	nop
bfc00bf0:	3c08db2d 	lui	t0,0xdb2d
bfc00bf4:	3508fd2c 	ori	t0,t0,0xfd2c
bfc00bf8:	3c096c0e 	lui	t1,0x6c0e
bfc00bfc:	35299f09 	ori	t1,t1,0x9f09
bfc00c00:	01090018 	mult	t0,t1
bfc00c04:	00008012 	mflo	s0
bfc00c08:	3c12ad44 	lui	s2,0xad44
bfc00c0c:	36523a8c 	ori	s2,s2,0x3a8c
bfc00c10:	16120d6d 	bne	s0,s2,bfc041c8 <inst_error>
bfc00c14:	00000000 	nop
bfc00c18:	00008010 	mfhi	s0
bfc00c1c:	3c12f075 	lui	s2,0xf075
bfc00c20:	36524c72 	ori	s2,s2,0x4c72
bfc00c24:	16120d68 	bne	s0,s2,bfc041c8 <inst_error>
bfc00c28:	00000000 	nop
bfc00c2c:	3c08dfdc 	lui	t0,0xdfdc
bfc00c30:	35089250 	ori	t0,t0,0x9250
bfc00c34:	3c09bf1f 	lui	t1,0xbf1f
bfc00c38:	352915c3 	ori	t1,t1,0x15c3
bfc00c3c:	01090018 	mult	t0,t1
bfc00c40:	00008012 	mflo	s0
bfc00c44:	3c1204b4 	lui	s2,0x4b4
bfc00c48:	365202f0 	ori	s2,s2,0x2f0
bfc00c4c:	16120d5e 	bne	s0,s2,bfc041c8 <inst_error>
bfc00c50:	00000000 	nop
bfc00c54:	00008010 	mfhi	s0
bfc00c58:	3c120825 	lui	s2,0x825
bfc00c5c:	365217d4 	ori	s2,s2,0x17d4
bfc00c60:	16120d59 	bne	s0,s2,bfc041c8 <inst_error>
bfc00c64:	00000000 	nop
bfc00c68:	3c081b33 	lui	t0,0x1b33
bfc00c6c:	35089b35 	ori	t0,t0,0x9b35
bfc00c70:	3c0998c1 	lui	t1,0x98c1
bfc00c74:	35294bc0 	ori	t1,t1,0x4bc0
bfc00c78:	01090018 	mult	t0,t1
bfc00c7c:	00008012 	mflo	s0
bfc00c80:	3c120021 	lui	s2,0x21
bfc00c84:	3652eec0 	ori	s2,s2,0xeec0
bfc00c88:	16120d4f 	bne	s0,s2,bfc041c8 <inst_error>
bfc00c8c:	00000000 	nop
bfc00c90:	00008010 	mfhi	s0
bfc00c94:	3c12f507 	lui	s2,0xf507
bfc00c98:	365292e7 	ori	s2,s2,0x92e7
bfc00c9c:	16120d4a 	bne	s0,s2,bfc041c8 <inst_error>
bfc00ca0:	00000000 	nop
bfc00ca4:	3c08c861 	lui	t0,0xc861
bfc00ca8:	35088b98 	ori	t0,t0,0x8b98
bfc00cac:	3c096945 	lui	t1,0x6945
bfc00cb0:	35292a40 	ori	t1,t1,0x2a40
bfc00cb4:	01090018 	mult	t0,t1
bfc00cb8:	00008012 	mflo	s0
bfc00cbc:	3c121141 	lui	s2,0x1141
bfc00cc0:	3652d600 	ori	s2,s2,0xd600
bfc00cc4:	16120d40 	bne	s0,s2,bfc041c8 <inst_error>
bfc00cc8:	00000000 	nop
bfc00ccc:	00008010 	mfhi	s0
bfc00cd0:	3c12e920 	lui	s2,0xe920
bfc00cd4:	3652fb5e 	ori	s2,s2,0xfb5e
bfc00cd8:	16120d3b 	bne	s0,s2,bfc041c8 <inst_error>
bfc00cdc:	00000000 	nop
bfc00ce0:	3c082aea 	lui	t0,0x2aea
bfc00ce4:	35080580 	ori	t0,t0,0x580
bfc00ce8:	3c097f50 	lui	t1,0x7f50
bfc00cec:	3529d684 	ori	t1,t1,0xd684
bfc00cf0:	01090018 	mult	t0,t1
bfc00cf4:	00008012 	mflo	s0
bfc00cf8:	3c12f943 	lui	s2,0xf943
bfc00cfc:	3652d600 	ori	s2,s2,0xd600
bfc00d00:	16120d31 	bne	s0,s2,bfc041c8 <inst_error>
bfc00d04:	00000000 	nop
bfc00d08:	00008010 	mfhi	s0
bfc00d0c:	3c121557 	lui	s2,0x1557
bfc00d10:	3652a5d1 	ori	s2,s2,0xa5d1
bfc00d14:	16120d2c 	bne	s0,s2,bfc041c8 <inst_error>
bfc00d18:	00000000 	nop
bfc00d1c:	3c085c69 	lui	t0,0x5c69
bfc00d20:	3508f5ec 	ori	t0,t0,0xf5ec
bfc00d24:	3c099ee2 	lui	t1,0x9ee2
bfc00d28:	35293bd2 	ori	t1,t1,0x3bd2
bfc00d2c:	01090018 	mult	t0,t1
bfc00d30:	00008012 	mflo	s0
bfc00d34:	3c12fcf1 	lui	s2,0xfcf1
bfc00d38:	36521f98 	ori	s2,s2,0x1f98
bfc00d3c:	16120d22 	bne	s0,s2,bfc041c8 <inst_error>
bfc00d40:	00000000 	nop
bfc00d44:	00008010 	mfhi	s0
bfc00d48:	3c12dcf1 	lui	s2,0xdcf1
bfc00d4c:	36521afe 	ori	s2,s2,0x1afe
bfc00d50:	16120d1d 	bne	s0,s2,bfc041c8 <inst_error>
bfc00d54:	00000000 	nop
bfc00d58:	3c08b7b6 	lui	t0,0xb7b6
bfc00d5c:	35086b40 	ori	t0,t0,0x6b40
bfc00d60:	3c098b50 	lui	t1,0x8b50
bfc00d64:	3529c179 	ori	t1,t1,0xc179
bfc00d68:	01090018 	mult	t0,t1
bfc00d6c:	00008012 	mflo	s0
bfc00d70:	3c12a013 	lui	s2,0xa013
bfc00d74:	3652f140 	ori	s2,s2,0xf140
bfc00d78:	16120d13 	bne	s0,s2,bfc041c8 <inst_error>
bfc00d7c:	00000000 	nop
bfc00d80:	00008010 	mfhi	s0
bfc00d84:	3c1220f2 	lui	s2,0x20f2
bfc00d88:	3652d35b 	ori	s2,s2,0xd35b
bfc00d8c:	16120d0e 	bne	s0,s2,bfc041c8 <inst_error>
bfc00d90:	00000000 	nop
bfc00d94:	3c08514e 	lui	t0,0x514e
bfc00d98:	350833b6 	ori	t0,t0,0x33b6
bfc00d9c:	3c097dc3 	lui	t1,0x7dc3
bfc00da0:	35299988 	ori	t1,t1,0x9988
bfc00da4:	01090018 	mult	t0,t1
bfc00da8:	00008012 	mflo	s0
bfc00dac:	3c123015 	lui	s2,0x3015
bfc00db0:	36523eb0 	ori	s2,s2,0x3eb0
bfc00db4:	16120d04 	bne	s0,s2,bfc041c8 <inst_error>
bfc00db8:	00000000 	nop
bfc00dbc:	00008010 	mfhi	s0
bfc00dc0:	3c1227f1 	lui	s2,0x27f1
bfc00dc4:	36524e94 	ori	s2,s2,0x4e94
bfc00dc8:	16120cff 	bne	s0,s2,bfc041c8 <inst_error>
bfc00dcc:	00000000 	nop
bfc00dd0:	3c0827c2 	lui	t0,0x27c2
bfc00dd4:	35084e12 	ori	t0,t0,0x4e12
bfc00dd8:	3c09bc0e 	lui	t1,0xbc0e
bfc00ddc:	35296874 	ori	t1,t1,0x6874
bfc00de0:	01090018 	mult	t0,t1
bfc00de4:	00008012 	mflo	s0
bfc00de8:	3c1270be 	lui	s2,0x70be
bfc00dec:	3652b028 	ori	s2,s2,0xb028
bfc00df0:	16120cf5 	bne	s0,s2,bfc041c8 <inst_error>
bfc00df4:	00000000 	nop
bfc00df8:	00008010 	mfhi	s0
bfc00dfc:	3c12f572 	lui	s2,0xf572
bfc00e00:	3652a01c 	ori	s2,s2,0xa01c
bfc00e04:	16120cf0 	bne	s0,s2,bfc041c8 <inst_error>
bfc00e08:	00000000 	nop
bfc00e0c:	3c08e7e6 	lui	t0,0xe7e6
bfc00e10:	3508eddc 	ori	t0,t0,0xeddc
bfc00e14:	3c0913a7 	lui	t1,0x13a7
bfc00e18:	3529cad0 	ori	t1,t1,0xcad0
bfc00e1c:	01090018 	mult	t0,t1
bfc00e20:	00008012 	mflo	s0
bfc00e24:	3c1221d4 	lui	s2,0x21d4
bfc00e28:	3652dac0 	ori	s2,s2,0xdac0
bfc00e2c:	16120ce6 	bne	s0,s2,bfc041c8 <inst_error>
bfc00e30:	00000000 	nop
bfc00e34:	00008010 	mfhi	s0
bfc00e38:	3c12fe26 	lui	s2,0xfe26
bfc00e3c:	36525835 	ori	s2,s2,0x5835
bfc00e40:	16120ce1 	bne	s0,s2,bfc041c8 <inst_error>
bfc00e44:	00000000 	nop
bfc00e48:	3c08a851 	lui	t0,0xa851
bfc00e4c:	350811c0 	ori	t0,t0,0x11c0
bfc00e50:	3c09a29d 	lui	t1,0xa29d
bfc00e54:	352950f0 	ori	t1,t1,0x50f0
bfc00e58:	01090018 	mult	t0,t1
bfc00e5c:	00008012 	mflo	s0
bfc00e60:	3c12844c 	lui	s2,0x844c
bfc00e64:	3652a400 	ori	s2,s2,0xa400
bfc00e68:	16120cd7 	bne	s0,s2,bfc041c8 <inst_error>
bfc00e6c:	00000000 	nop
bfc00e70:	00008010 	mfhi	s0
bfc00e74:	3c121ffc 	lui	s2,0x1ffc
bfc00e78:	3652597a 	ori	s2,s2,0x597a
bfc00e7c:	16120cd2 	bne	s0,s2,bfc041c8 <inst_error>
bfc00e80:	00000000 	nop
bfc00e84:	3c0873d5 	lui	t0,0x73d5
bfc00e88:	35082eb8 	ori	t0,t0,0x2eb8
bfc00e8c:	3c09142b 	lui	t1,0x142b
bfc00e90:	3529a310 	ori	t1,t1,0xa310
bfc00e94:	01090018 	mult	t0,t1
bfc00e98:	00008012 	mflo	s0
bfc00e9c:	3c1232fa 	lui	s2,0x32fa
bfc00ea0:	36521380 	ori	s2,s2,0x1380
bfc00ea4:	16120cc8 	bne	s0,s2,bfc041c8 <inst_error>
bfc00ea8:	00000000 	nop
bfc00eac:	00008010 	mfhi	s0
bfc00eb0:	3c120920 	lui	s2,0x920
bfc00eb4:	3652663d 	ori	s2,s2,0x663d
bfc00eb8:	16120cc3 	bne	s0,s2,bfc041c8 <inst_error>
bfc00ebc:	00000000 	nop
bfc00ec0:	3c084115 	lui	t0,0x4115
bfc00ec4:	35086884 	ori	t0,t0,0x6884
bfc00ec8:	3c09794c 	lui	t1,0x794c
bfc00ecc:	35295fb2 	ori	t1,t1,0x5fb2
bfc00ed0:	01090018 	mult	t0,t1
bfc00ed4:	00008012 	mflo	s0
bfc00ed8:	3c129ddb 	lui	s2,0x9ddb
bfc00edc:	3652a7c8 	ori	s2,s2,0xa7c8
bfc00ee0:	16120cb9 	bne	s0,s2,bfc041c8 <inst_error>
bfc00ee4:	00000000 	nop
bfc00ee8:	00008010 	mfhi	s0
bfc00eec:	3c121ed6 	lui	s2,0x1ed6
bfc00ef0:	36528915 	ori	s2,s2,0x8915
bfc00ef4:	16120cb4 	bne	s0,s2,bfc041c8 <inst_error>
bfc00ef8:	00000000 	nop
bfc00efc:	3c08a877 	lui	t0,0xa877
bfc00f00:	35084820 	ori	t0,t0,0x4820
bfc00f04:	3c09b2cf 	lui	t1,0xb2cf
bfc00f08:	35290480 	ori	t1,t1,0x480
bfc00f0c:	01090018 	mult	t0,t1
bfc00f10:	00008012 	mflo	s0
bfc00f14:	3c12aaa4 	lui	s2,0xaaa4
bfc00f18:	36529000 	ori	s2,s2,0x9000
bfc00f1c:	16120caa 	bne	s0,s2,bfc041c8 <inst_error>
bfc00f20:	00000000 	nop
bfc00f24:	00008010 	mfhi	s0
bfc00f28:	3c121a64 	lui	s2,0x1a64
bfc00f2c:	3652deef 	ori	s2,s2,0xdeef
bfc00f30:	16120ca5 	bne	s0,s2,bfc041c8 <inst_error>
bfc00f34:	00000000 	nop
bfc00f38:	3c08b69b 	lui	t0,0xb69b
bfc00f3c:	3508cb80 	ori	t0,t0,0xcb80
bfc00f40:	3c0988d5 	lui	t1,0x88d5
bfc00f44:	35295520 	ori	t1,t1,0x5520
bfc00f48:	01090018 	mult	t0,t1
bfc00f4c:	00008012 	mflo	s0
bfc00f50:	3c12df8a 	lui	s2,0xdf8a
bfc00f54:	3652f000 	ori	s2,s2,0xf000
bfc00f58:	16120c9b 	bne	s0,s2,bfc041c8 <inst_error>
bfc00f5c:	00000000 	nop
bfc00f60:	00008010 	mfhi	s0
bfc00f64:	3c122229 	lui	s2,0x2229
bfc00f68:	3652cfd4 	ori	s2,s2,0xcfd4
bfc00f6c:	16120c96 	bne	s0,s2,bfc041c8 <inst_error>
bfc00f70:	00000000 	nop
bfc00f74:	3c08e841 	lui	t0,0xe841
bfc00f78:	350875d8 	ori	t0,t0,0x75d8
bfc00f7c:	3c099404 	lui	t1,0x9404
bfc00f80:	35298f1c 	ori	t1,t1,0x8f1c
bfc00f84:	01090018 	mult	t0,t1
bfc00f88:	00008012 	mflo	s0
bfc00f8c:	3c12af5c 	lui	s2,0xaf5c
bfc00f90:	36528ba0 	ori	s2,s2,0x8ba0
bfc00f94:	16120c8c 	bne	s0,s2,bfc041c8 <inst_error>
bfc00f98:	00000000 	nop
bfc00f9c:	00008010 	mfhi	s0
bfc00fa0:	3c120a03 	lui	s2,0xa03
bfc00fa4:	3652f608 	ori	s2,s2,0xf608
bfc00fa8:	16120c87 	bne	s0,s2,bfc041c8 <inst_error>
bfc00fac:	00000000 	nop
bfc00fb0:	3c086fde 	lui	t0,0x6fde
bfc00fb4:	3508dbd8 	ori	t0,t0,0xdbd8
bfc00fb8:	3c0967dd 	lui	t1,0x67dd
bfc00fbc:	35297f60 	ori	t1,t1,0x7f60
bfc00fc0:	01090018 	mult	t0,t1
bfc00fc4:	00008012 	mflo	s0
bfc00fc8:	3c12341a 	lui	s2,0x341a
bfc00fcc:	36529900 	ori	s2,s2,0x9900
bfc00fd0:	16120c7d 	bne	s0,s2,bfc041c8 <inst_error>
bfc00fd4:	00000000 	nop
bfc00fd8:	00008010 	mfhi	s0
bfc00fdc:	3c122d63 	lui	s2,0x2d63
bfc00fe0:	36527581 	ori	s2,s2,0x7581
bfc00fe4:	16120c78 	bne	s0,s2,bfc041c8 <inst_error>
bfc00fe8:	00000000 	nop
bfc00fec:	3c08a231 	lui	t0,0xa231
bfc00ff0:	35089526 	ori	t0,t0,0x9526
bfc00ff4:	3c09d5f8 	lui	t1,0xd5f8
bfc00ff8:	35298700 	ori	t1,t1,0x8700
bfc00ffc:	01090018 	mult	t0,t1
bfc01000:	00008012 	mflo	s0
bfc01004:	3c124077 	lui	s2,0x4077
bfc01008:	36520a00 	ori	s2,s2,0xa00
bfc0100c:	16120c6e 	bne	s0,s2,bfc041c8 <inst_error>
bfc01010:	00000000 	nop
bfc01014:	00008010 	mfhi	s0
bfc01018:	3c120f66 	lui	s2,0xf66
bfc0101c:	36529a83 	ori	s2,s2,0x9a83
bfc01020:	16120c69 	bne	s0,s2,bfc041c8 <inst_error>
bfc01024:	00000000 	nop
bfc01028:	3c0861f8 	lui	t0,0x61f8
bfc0102c:	3508b9bc 	ori	t0,t0,0xb9bc
bfc01030:	3c09146e 	lui	t1,0x146e
bfc01034:	35296d38 	ori	t1,t1,0x6d38
bfc01038:	01090018 	mult	t0,t1
bfc0103c:	00008012 	mflo	s0
bfc01040:	3c12d445 	lui	s2,0xd445
bfc01044:	3652ad20 	ori	s2,s2,0xad20
bfc01048:	16120c5f 	bne	s0,s2,bfc041c8 <inst_error>
bfc0104c:	00000000 	nop
bfc01050:	00008010 	mfhi	s0
bfc01054:	3c1207d1 	lui	s2,0x7d1
bfc01058:	3652b12e 	ori	s2,s2,0xb12e
bfc0105c:	16120c5a 	bne	s0,s2,bfc041c8 <inst_error>
bfc01060:	00000000 	nop
bfc01064:	3c08b900 	lui	t0,0xb900
bfc01068:	35082828 	ori	t0,t0,0x2828
bfc0106c:	3c090310 	lui	t1,0x310
bfc01070:	3529a1b9 	ori	t1,t1,0xa1b9
bfc01074:	01090018 	mult	t0,t1
bfc01078:	00008012 	mflo	s0
bfc0107c:	3c12c4de 	lui	s2,0xc4de
bfc01080:	36522ce8 	ori	s2,s2,0x2ce8
bfc01084:	16120c50 	bne	s0,s2,bfc041c8 <inst_error>
bfc01088:	00000000 	nop
bfc0108c:	00008010 	mfhi	s0
bfc01090:	3c12ff26 	lui	s2,0xff26
bfc01094:	365263a0 	ori	s2,s2,0x63a0
bfc01098:	16120c4b 	bne	s0,s2,bfc041c8 <inst_error>
bfc0109c:	00000000 	nop
bfc010a0:	3c08b441 	lui	t0,0xb441
bfc010a4:	35088f47 	ori	t0,t0,0x8f47
bfc010a8:	3c09943f 	lui	t1,0x943f
bfc010ac:	3529129c 	ori	t1,t1,0x129c
bfc010b0:	01090018 	mult	t0,t1
bfc010b4:	00008012 	mflo	s0
bfc010b8:	3c12c27f 	lui	s2,0xc27f
bfc010bc:	36524d44 	ori	s2,s2,0x4d44
bfc010c0:	16120c41 	bne	s0,s2,bfc041c8 <inst_error>
bfc010c4:	00000000 	nop
bfc010c8:	00008010 	mfhi	s0
bfc010cc:	3c121fe1 	lui	s2,0x1fe1
bfc010d0:	3652ae2e 	ori	s2,s2,0xae2e
bfc010d4:	16120c3c 	bne	s0,s2,bfc041c8 <inst_error>
bfc010d8:	00000000 	nop
bfc010dc:	3c08d701 	lui	t0,0xd701
bfc010e0:	35081f8c 	ori	t0,t0,0x1f8c
bfc010e4:	3c0970d8 	lui	t1,0x70d8
bfc010e8:	3529ea80 	ori	t1,t1,0xea80
bfc010ec:	01090018 	mult	t0,t1
bfc010f0:	00008012 	mflo	s0
bfc010f4:	3c126585 	lui	s2,0x6585
bfc010f8:	3652be00 	ori	s2,s2,0xbe00
bfc010fc:	16120c32 	bne	s0,s2,bfc041c8 <inst_error>
bfc01100:	00000000 	nop
bfc01104:	00008010 	mfhi	s0
bfc01108:	3c12eded 	lui	s2,0xeded
bfc0110c:	3652c132 	ori	s2,s2,0xc132
bfc01110:	16120c2d 	bne	s0,s2,bfc041c8 <inst_error>
bfc01114:	00000000 	nop
bfc01118:	3c08058b 	lui	t0,0x58b
bfc0111c:	35089998 	ori	t0,t0,0x9998
bfc01120:	3c095539 	lui	t1,0x5539
bfc01124:	35295538 	ori	t1,t1,0x5538
bfc01128:	01090018 	mult	t0,t1
bfc0112c:	00008012 	mflo	s0
bfc01130:	3c123b61 	lui	s2,0x3b61
bfc01134:	36521140 	ori	s2,s2,0x1140
bfc01138:	16120c23 	bne	s0,s2,bfc041c8 <inst_error>
bfc0113c:	00000000 	nop
bfc01140:	00008010 	mfhi	s0
bfc01144:	3c1201d8 	lui	s2,0x1d8
bfc01148:	365297ed 	ori	s2,s2,0x97ed
bfc0114c:	16120c1e 	bne	s0,s2,bfc041c8 <inst_error>
bfc01150:	00000000 	nop
bfc01154:	3c08c13b 	lui	t0,0xc13b
bfc01158:	35087fc0 	ori	t0,t0,0x7fc0
bfc0115c:	3c09da19 	lui	t1,0xda19
bfc01160:	35292fbb 	ori	t1,t1,0x2fbb
bfc01164:	01090018 	mult	t0,t1
bfc01168:	00008012 	mflo	s0
bfc0116c:	3c120caa 	lui	s2,0xcaa
bfc01170:	36529140 	ori	s2,s2,0x9140
bfc01174:	16120c14 	bne	s0,s2,bfc041c8 <inst_error>
bfc01178:	00000000 	nop
bfc0117c:	00008010 	mfhi	s0
bfc01180:	3c12094a 	lui	s2,0x94a
bfc01184:	3652fe25 	ori	s2,s2,0xfe25
bfc01188:	16120c0f 	bne	s0,s2,bfc041c8 <inst_error>
bfc0118c:	00000000 	nop
bfc01190:	3c08776d 	lui	t0,0x776d
bfc01194:	350824b0 	ori	t0,t0,0x24b0
bfc01198:	3c0966f0 	lui	t1,0x66f0
bfc0119c:	3529a9a4 	ori	t1,t1,0xa9a4
bfc011a0:	01090018 	mult	t0,t1
bfc011a4:	00008012 	mflo	s0
bfc011a8:	3c121423 	lui	s2,0x1423
bfc011ac:	3652b0c0 	ori	s2,s2,0xb0c0
bfc011b0:	16120c05 	bne	s0,s2,bfc041c8 <inst_error>
bfc011b4:	00000000 	nop
bfc011b8:	00008010 	mfhi	s0
bfc011bc:	3c123005 	lui	s2,0x3005
bfc011c0:	3652c214 	ori	s2,s2,0xc214
bfc011c4:	16120c00 	bne	s0,s2,bfc041c8 <inst_error>
bfc011c8:	00000000 	nop
bfc011cc:	3c086c6a 	lui	t0,0x6c6a
bfc011d0:	3508e338 	ori	t0,t0,0xe338
bfc011d4:	3c095c4a 	lui	t1,0x5c4a
bfc011d8:	3529bc80 	ori	t1,t1,0xbc80
bfc011dc:	01090018 	mult	t0,t1
bfc011e0:	00008012 	mflo	s0
bfc011e4:	3c12827e 	lui	s2,0x827e
bfc011e8:	3652bc00 	ori	s2,s2,0xbc00
bfc011ec:	16120bf6 	bne	s0,s2,bfc041c8 <inst_error>
bfc011f0:	00000000 	nop
bfc011f4:	00008010 	mfhi	s0
bfc011f8:	3c122716 	lui	s2,0x2716
bfc011fc:	36521062 	ori	s2,s2,0x1062
bfc01200:	16120bf1 	bne	s0,s2,bfc041c8 <inst_error>
bfc01204:	00000000 	nop
bfc01208:	3c089dc0 	lui	t0,0x9dc0
bfc0120c:	350890e0 	ori	t0,t0,0x90e0
bfc01210:	3c09b632 	lui	t1,0xb632
bfc01214:	35294980 	ori	t1,t1,0x4980
bfc01218:	01090018 	mult	t0,t1
bfc0121c:	00008012 	mflo	s0
bfc01220:	3c125558 	lui	s2,0x5558
bfc01224:	36525000 	ori	s2,s2,0x5000
bfc01228:	16120be7 	bne	s0,s2,bfc041c8 <inst_error>
bfc0122c:	00000000 	nop
bfc01230:	00008010 	mfhi	s0
bfc01234:	3c121c53 	lui	s2,0x1c53
bfc01238:	36520986 	ori	s2,s2,0x986
bfc0123c:	16120be2 	bne	s0,s2,bfc041c8 <inst_error>
bfc01240:	00000000 	nop
bfc01244:	3c0886d6 	lui	t0,0x86d6
bfc01248:	350809de 	ori	t0,t0,0x9de
bfc0124c:	3c09cd4b 	lui	t1,0xcd4b
bfc01250:	3529cb2e 	ori	t1,t1,0xcb2e
bfc01254:	01090018 	mult	t0,t1
bfc01258:	00008012 	mflo	s0
bfc0125c:	3c129e52 	lui	s2,0x9e52
bfc01260:	3652cfe4 	ori	s2,s2,0xcfe4
bfc01264:	16120bd8 	bne	s0,s2,bfc041c8 <inst_error>
bfc01268:	00000000 	nop
bfc0126c:	00008010 	mfhi	s0
bfc01270:	3c1217ff 	lui	s2,0x17ff
bfc01274:	36527c93 	ori	s2,s2,0x7c93
bfc01278:	16120bd3 	bne	s0,s2,bfc041c8 <inst_error>
bfc0127c:	00000000 	nop
bfc01280:	3c081400 	lui	t0,0x1400
bfc01284:	3508c7dc 	ori	t0,t0,0xc7dc
bfc01288:	3c09466a 	lui	t1,0x466a
bfc0128c:	35296d5e 	ori	t1,t1,0x6d5e
bfc01290:	01090018 	mult	t0,t1
bfc01294:	00008012 	mflo	s0
bfc01298:	3c12967a 	lui	s2,0x967a
bfc0129c:	36520ec8 	ori	s2,s2,0xec8
bfc012a0:	16120bc9 	bne	s0,s2,bfc041c8 <inst_error>
bfc012a4:	00000000 	nop
bfc012a8:	00008010 	mfhi	s0
bfc012ac:	3c120580 	lui	s2,0x580
bfc012b0:	36528784 	ori	s2,s2,0x8784
bfc012b4:	16120bc4 	bne	s0,s2,bfc041c8 <inst_error>
bfc012b8:	00000000 	nop
bfc012bc:	3c08a2d8 	lui	t0,0xa2d8
bfc012c0:	35088860 	ori	t0,t0,0x8860
bfc012c4:	3c092642 	lui	t1,0x2642
bfc012c8:	35293686 	ori	t1,t1,0x3686
bfc012cc:	01090018 	mult	t0,t1
bfc012d0:	00008012 	mflo	s0
bfc012d4:	3c1252db 	lui	s2,0x52db
bfc012d8:	3652a240 	ori	s2,s2,0xa240
bfc012dc:	16120bba 	bne	s0,s2,bfc041c8 <inst_error>
bfc012e0:	00000000 	nop
bfc012e4:	00008010 	mfhi	s0
bfc012e8:	3c12f214 	lui	s2,0xf214
bfc012ec:	36520c3a 	ori	s2,s2,0xc3a
bfc012f0:	16120bb5 	bne	s0,s2,bfc041c8 <inst_error>
bfc012f4:	00000000 	nop
bfc012f8:	3c086770 	lui	t0,0x6770
bfc012fc:	3508770a 	ori	t0,t0,0x770a
bfc01300:	3c09812c 	lui	t1,0x812c
bfc01304:	3529be10 	ori	t1,t1,0xbe10
bfc01308:	01090018 	mult	t0,t1
bfc0130c:	00008012 	mflo	s0
bfc01310:	3c126f18 	lui	s2,0x6f18
bfc01314:	3652dca0 	ori	s2,s2,0xdca0
bfc01318:	16120bab 	bne	s0,s2,bfc041c8 <inst_error>
bfc0131c:	00000000 	nop
bfc01320:	00008010 	mfhi	s0
bfc01324:	3c12ccc1 	lui	s2,0xccc1
bfc01328:	36524912 	ori	s2,s2,0x4912
bfc0132c:	16120ba6 	bne	s0,s2,bfc041c8 <inst_error>
bfc01330:	00000000 	nop
bfc01334:	3c089562 	lui	t0,0x9562
bfc01338:	35087048 	ori	t0,t0,0x7048
bfc0133c:	3c09c1ba 	lui	t1,0xc1ba
bfc01340:	3529e8ca 	ori	t1,t1,0xe8ca
bfc01344:	01090018 	mult	t0,t1
bfc01348:	00008012 	mflo	s0
bfc0134c:	3c12f1bd 	lui	s2,0xf1bd
bfc01350:	3652d8d0 	ori	s2,s2,0xd8d0
bfc01354:	16120b9c 	bne	s0,s2,bfc041c8 <inst_error>
bfc01358:	00000000 	nop
bfc0135c:	00008010 	mfhi	s0
bfc01360:	3c1219ee 	lui	s2,0x19ee
bfc01364:	3652eef0 	ori	s2,s2,0xeef0
bfc01368:	16120b97 	bne	s0,s2,bfc041c8 <inst_error>
bfc0136c:	00000000 	nop
bfc01370:	3c081dba 	lui	t0,0x1dba
bfc01374:	3508dda0 	ori	t0,t0,0xdda0
bfc01378:	3c095d2b 	lui	t1,0x5d2b
bfc0137c:	35290f50 	ori	t1,t1,0xf50
bfc01380:	01090018 	mult	t0,t1
bfc01384:	00008012 	mflo	s0
bfc01388:	3c129741 	lui	s2,0x9741
bfc0138c:	3652a200 	ori	s2,s2,0xa200
bfc01390:	16120b8d 	bne	s0,s2,bfc041c8 <inst_error>
bfc01394:	00000000 	nop
bfc01398:	00008010 	mfhi	s0
bfc0139c:	3c120ad1 	lui	s2,0xad1
bfc013a0:	3652e2ad 	ori	s2,s2,0xe2ad
bfc013a4:	16120b88 	bne	s0,s2,bfc041c8 <inst_error>
bfc013a8:	00000000 	nop
bfc013ac:	3c08c7cf 	lui	t0,0xc7cf
bfc013b0:	35084f96 	ori	t0,t0,0x4f96
bfc013b4:	3c097dd3 	lui	t1,0x7dd3
bfc013b8:	35293820 	ori	t1,t1,0x3820
bfc013bc:	01090018 	mult	t0,t1
bfc013c0:	00008012 	mflo	s0
bfc013c4:	3c1229f4 	lui	s2,0x29f4
bfc013c8:	3652c2c0 	ori	s2,s2,0xc2c0
bfc013cc:	16120b7e 	bne	s0,s2,bfc041c8 <inst_error>
bfc013d0:	00000000 	nop
bfc013d4:	00008010 	mfhi	s0
bfc013d8:	3c12e461 	lui	s2,0xe461
bfc013dc:	3652dd69 	ori	s2,s2,0xdd69
bfc013e0:	16120b79 	bne	s0,s2,bfc041c8 <inst_error>
bfc013e4:	00000000 	nop
bfc013e8:	3c08a1d8 	lui	t0,0xa1d8
bfc013ec:	3508f960 	ori	t0,t0,0xf960
bfc013f0:	3c09b83e 	lui	t1,0xb83e
bfc013f4:	35293183 	ori	t1,t1,0x3183
bfc013f8:	01090018 	mult	t0,t1
bfc013fc:	00008012 	mflo	s0
bfc01400:	3c12bf02 	lui	s2,0xbf02
bfc01404:	3652fc20 	ori	s2,s2,0xfc20
bfc01408:	16120b6f 	bne	s0,s2,bfc041c8 <inst_error>
bfc0140c:	00000000 	nop
bfc01410:	00008010 	mfhi	s0
bfc01414:	3c121a64 	lui	s2,0x1a64
bfc01418:	36521a33 	ori	s2,s2,0x1a33
bfc0141c:	16120b6a 	bne	s0,s2,bfc041c8 <inst_error>
bfc01420:	00000000 	nop
bfc01424:	3c08cc2c 	lui	t0,0xcc2c
bfc01428:	3508955e 	ori	t0,t0,0x955e
bfc0142c:	3c0963c2 	lui	t1,0x63c2
bfc01430:	3529877e 	ori	t1,t1,0x877e
bfc01434:	01090018 	mult	t0,t1
bfc01438:	00008012 	mflo	s0
bfc0143c:	3c128bf2 	lui	s2,0x8bf2
bfc01440:	36521644 	ori	s2,s2,0x1644
bfc01444:	16120b60 	bne	s0,s2,bfc041c8 <inst_error>
bfc01448:	00000000 	nop
bfc0144c:	00008010 	mfhi	s0
bfc01450:	3c12ebcd 	lui	s2,0xebcd
bfc01454:	3652dc1e 	ori	s2,s2,0xdc1e
bfc01458:	16120b5b 	bne	s0,s2,bfc041c8 <inst_error>
bfc0145c:	00000000 	nop
bfc01460:	3c08d2d4 	lui	t0,0xd2d4
bfc01464:	35084530 	ori	t0,t0,0x4530
bfc01468:	3c09602b 	lui	t1,0x602b
bfc0146c:	352939e6 	ori	t1,t1,0x39e6
bfc01470:	01090018 	mult	t0,t1
bfc01474:	00008012 	mflo	s0
bfc01478:	3c124d2d 	lui	s2,0x4d2d
bfc0147c:	3652d920 	ori	s2,s2,0xd920
bfc01480:	16120b51 	bne	s0,s2,bfc041c8 <inst_error>
bfc01484:	00000000 	nop
bfc01488:	00008010 	mfhi	s0
bfc0148c:	3c12ef07 	lui	s2,0xef07
bfc01490:	3652f962 	ori	s2,s2,0xf962
bfc01494:	16120b4c 	bne	s0,s2,bfc041c8 <inst_error>
bfc01498:	00000000 	nop
bfc0149c:	3c08886c 	lui	t0,0x886c
bfc014a0:	35083ad7 	ori	t0,t0,0x3ad7
bfc014a4:	3c09e011 	lui	t1,0xe011
bfc014a8:	3529a4c0 	ori	t1,t1,0xa4c0
bfc014ac:	01090018 	mult	t0,t1
bfc014b0:	00008012 	mflo	s0
bfc014b4:	3c12af24 	lui	s2,0xaf24
bfc014b8:	3652dd40 	ori	s2,s2,0xdd40
bfc014bc:	16120b42 	bne	s0,s2,bfc041c8 <inst_error>
bfc014c0:	00000000 	nop
bfc014c4:	00008010 	mfhi	s0
bfc014c8:	3c120eea 	lui	s2,0xeea
bfc014cc:	36523ae0 	ori	s2,s2,0x3ae0
bfc014d0:	16120b3d 	bne	s0,s2,bfc041c8 <inst_error>
bfc014d4:	00000000 	nop
bfc014d8:	3c080c45 	lui	t0,0xc45
bfc014dc:	3508d0c8 	ori	t0,t0,0xd0c8
bfc014e0:	3c09830e 	lui	t1,0x830e
bfc014e4:	352902fb 	ori	t1,t1,0x2fb
bfc014e8:	01090018 	mult	t0,t1
bfc014ec:	00008012 	mflo	s0
bfc014f0:	3c125705 	lui	s2,0x5705
bfc014f4:	36524418 	ori	s2,s2,0x4418
bfc014f8:	16120b33 	bne	s0,s2,bfc041c8 <inst_error>
bfc014fc:	00000000 	nop
bfc01500:	00008010 	mfhi	s0
bfc01504:	3c12fa02 	lui	s2,0xfa02
bfc01508:	36529504 	ori	s2,s2,0x9504
bfc0150c:	16120b2e 	bne	s0,s2,bfc041c8 <inst_error>
bfc01510:	00000000 	nop
bfc01514:	3c084997 	lui	t0,0x4997
bfc01518:	35089c44 	ori	t0,t0,0x9c44
bfc0151c:	3c092987 	lui	t1,0x2987
bfc01520:	352942f0 	ori	t1,t1,0x42f0
bfc01524:	01090018 	mult	t0,t1
bfc01528:	00008012 	mflo	s0
bfc0152c:	3c126048 	lui	s2,0x6048
bfc01530:	365207c0 	ori	s2,s2,0x7c0
bfc01534:	16120b24 	bne	s0,s2,bfc041c8 <inst_error>
bfc01538:	00000000 	nop
bfc0153c:	00008010 	mfhi	s0
bfc01540:	3c120bf0 	lui	s2,0xbf0
bfc01544:	36522a38 	ori	s2,s2,0x2a38
bfc01548:	16120b1f 	bne	s0,s2,bfc041c8 <inst_error>
bfc0154c:	00000000 	nop
bfc01550:	3c082037 	lui	t0,0x2037
bfc01554:	3508c800 	ori	t0,t0,0xc800
bfc01558:	3c09fb35 	lui	t1,0xfb35
bfc0155c:	35295f34 	ori	t1,t1,0x5f34
bfc01560:	01090018 	mult	t0,t1
bfc01564:	00008012 	mflo	s0
bfc01568:	3c12a68c 	lui	s2,0xa68c
bfc0156c:	3652a000 	ori	s2,s2,0xa000
bfc01570:	16120b15 	bne	s0,s2,bfc041c8 <inst_error>
bfc01574:	00000000 	nop
bfc01578:	00008010 	mfhi	s0
bfc0157c:	3c12ff65 	lui	s2,0xff65
bfc01580:	3652a09f 	ori	s2,s2,0xa09f
bfc01584:	16120b10 	bne	s0,s2,bfc041c8 <inst_error>
bfc01588:	00000000 	nop
bfc0158c:	3c0821e6 	lui	t0,0x21e6
bfc01590:	35088aeb 	ori	t0,t0,0x8aeb
bfc01594:	3c09c1cc 	lui	t1,0xc1cc
bfc01598:	35294ec0 	ori	t1,t1,0x4ec0
bfc0159c:	01090018 	mult	t0,t1
bfc015a0:	00008012 	mflo	s0
bfc015a4:	3c12897f 	lui	s2,0x897f
bfc015a8:	3652ca40 	ori	s2,s2,0xca40
bfc015ac:	16120b06 	bne	s0,s2,bfc041c8 <inst_error>
bfc015b0:	00000000 	nop
bfc015b4:	00008010 	mfhi	s0
bfc015b8:	3c12f7c3 	lui	s2,0xf7c3
bfc015bc:	365251f4 	ori	s2,s2,0x51f4
bfc015c0:	16120b01 	bne	s0,s2,bfc041c8 <inst_error>
bfc015c4:	00000000 	nop
bfc015c8:	3c08e2c4 	lui	t0,0xe2c4
bfc015cc:	350888b8 	ori	t0,t0,0x88b8
bfc015d0:	3c098ed6 	lui	t1,0x8ed6
bfc015d4:	3529a9d8 	ori	t1,t1,0xa9d8
bfc015d8:	01090018 	mult	t0,t1
bfc015dc:	00008012 	mflo	s0
bfc015e0:	3c126de4 	lui	s2,0x6de4
bfc015e4:	3652d340 	ori	s2,s2,0xd340
bfc015e8:	16120af7 	bne	s0,s2,bfc041c8 <inst_error>
bfc015ec:	00000000 	nop
bfc015f0:	00008010 	mfhi	s0
bfc015f4:	3c120ceb 	lui	s2,0xceb
bfc015f8:	3652f803 	ori	s2,s2,0xf803
bfc015fc:	16120af2 	bne	s0,s2,bfc041c8 <inst_error>
bfc01600:	00000000 	nop
bfc01604:	3c080622 	lui	t0,0x622
bfc01608:	3508c000 	ori	t0,t0,0xc000
bfc0160c:	3c09849e 	lui	t1,0x849e
bfc01610:	3529669e 	ori	t1,t1,0x669e
bfc01614:	01090018 	mult	t0,t1
bfc01618:	00008012 	mflo	s0
bfc0161c:	3c1221f2 	lui	s2,0x21f2
bfc01620:	36528000 	ori	s2,s2,0x8000
bfc01624:	16120ae8 	bne	s0,s2,bfc041c8 <inst_error>
bfc01628:	00000000 	nop
bfc0162c:	00008010 	mfhi	s0
bfc01630:	3c12fd0a 	lui	s2,0xfd0a
bfc01634:	3652f6e8 	ori	s2,s2,0xf6e8
bfc01638:	16120ae3 	bne	s0,s2,bfc041c8 <inst_error>
bfc0163c:	00000000 	nop
bfc01640:	3c08fe11 	lui	t0,0xfe11
bfc01644:	3508325e 	ori	t0,t0,0x325e
bfc01648:	3c095a98 	lui	t1,0x5a98
bfc0164c:	35290480 	ori	t1,t1,0x480
bfc01650:	01090018 	mult	t0,t1
bfc01654:	00008012 	mflo	s0
bfc01658:	3c124132 	lui	s2,0x4132
bfc0165c:	3652a700 	ori	s2,s2,0xa700
bfc01660:	16120ad9 	bne	s0,s2,bfc041c8 <inst_error>
bfc01664:	00000000 	nop
bfc01668:	00008010 	mfhi	s0
bfc0166c:	3c12ff50 	lui	s2,0xff50
bfc01670:	3652e5e2 	ori	s2,s2,0xe5e2
bfc01674:	16120ad4 	bne	s0,s2,bfc041c8 <inst_error>
bfc01678:	00000000 	nop
bfc0167c:	3c08b582 	lui	t0,0xb582
bfc01680:	3508a660 	ori	t0,t0,0xa660
bfc01684:	3c092716 	lui	t1,0x2716
bfc01688:	35291c30 	ori	t1,t1,0x1c30
bfc0168c:	01090018 	mult	t0,t1
bfc01690:	00008012 	mflo	s0
bfc01694:	3c123ef1 	lui	s2,0x3ef1
bfc01698:	3652b200 	ori	s2,s2,0xb200
bfc0169c:	16120aca 	bne	s0,s2,bfc041c8 <inst_error>
bfc016a0:	00000000 	nop
bfc016a4:	00008010 	mfhi	s0
bfc016a8:	3c12f4a0 	lui	s2,0xf4a0
bfc016ac:	3652785f 	ori	s2,s2,0x785f
bfc016b0:	16120ac5 	bne	s0,s2,bfc041c8 <inst_error>
bfc016b4:	00000000 	nop
bfc016b8:	3c08de43 	lui	t0,0xde43
bfc016bc:	35086ee0 	ori	t0,t0,0x6ee0
bfc016c0:	3c090b8f 	lui	t1,0xb8f
bfc016c4:	3529d2ea 	ori	t1,t1,0xd2ea
bfc016c8:	01090018 	mult	t0,t1
bfc016cc:	00008012 	mflo	s0
bfc016d0:	3c1209b7 	lui	s2,0x9b7
bfc016d4:	365218c0 	ori	s2,s2,0x18c0
bfc016d8:	16120abb 	bne	s0,s2,bfc041c8 <inst_error>
bfc016dc:	00000000 	nop
bfc016e0:	00008010 	mfhi	s0
bfc016e4:	3c12fe79 	lui	s2,0xfe79
bfc016e8:	3652f1a3 	ori	s2,s2,0xf1a3
bfc016ec:	16120ab6 	bne	s0,s2,bfc041c8 <inst_error>
bfc016f0:	00000000 	nop
bfc016f4:	3c083ca5 	lui	t0,0x3ca5
bfc016f8:	3508ebcc 	ori	t0,t0,0xebcc
bfc016fc:	3c097fca 	lui	t1,0x7fca
bfc01700:	352989b0 	ori	t1,t1,0x89b0
bfc01704:	01090018 	mult	t0,t1
bfc01708:	00008012 	mflo	s0
bfc0170c:	3c12c03a 	lui	s2,0xc03a
bfc01710:	36524840 	ori	s2,s2,0x4840
bfc01714:	16120aac 	bne	s0,s2,bfc041c8 <inst_error>
bfc01718:	00000000 	nop
bfc0171c:	00008010 	mfhi	s0
bfc01720:	3c121e46 	lui	s2,0x1e46
bfc01724:	36524b84 	ori	s2,s2,0x4b84
bfc01728:	16120aa7 	bne	s0,s2,bfc041c8 <inst_error>
bfc0172c:	00000000 	nop
bfc01730:	3c08ed8a 	lui	t0,0xed8a
bfc01734:	3508c2a2 	ori	t0,t0,0xc2a2
bfc01738:	3c098e11 	lui	t1,0x8e11
bfc0173c:	3529d628 	ori	t1,t1,0xd628
bfc01740:	01090018 	mult	t0,t1
bfc01744:	00008012 	mflo	s0
bfc01748:	3c12e523 	lui	s2,0xe523
bfc0174c:	3652d550 	ori	s2,s2,0xd550
bfc01750:	16120a9d 	bne	s0,s2,bfc041c8 <inst_error>
bfc01754:	00000000 	nop
bfc01758:	00008010 	mfhi	s0
bfc0175c:	3c120836 	lui	s2,0x836
bfc01760:	3652ec19 	ori	s2,s2,0xec19
bfc01764:	16120a98 	bne	s0,s2,bfc041c8 <inst_error>
bfc01768:	00000000 	nop
bfc0176c:	3c08ee62 	lui	t0,0xee62
bfc01770:	3508ac9c 	ori	t0,t0,0xac9c
bfc01774:	3c09446a 	lui	t1,0x446a
bfc01778:	3529ed90 	ori	t1,t1,0xed90
bfc0177c:	01090018 	mult	t0,t1
bfc01780:	00008012 	mflo	s0
bfc01784:	3c1259e5 	lui	s2,0x59e5
bfc01788:	365283c0 	ori	s2,s2,0x83c0
bfc0178c:	16120a8e 	bne	s0,s2,bfc041c8 <inst_error>
bfc01790:	00000000 	nop
bfc01794:	00008010 	mfhi	s0
bfc01798:	3c12fb4a 	lui	s2,0xfb4a
bfc0179c:	3652da5c 	ori	s2,s2,0xda5c
bfc017a0:	16120a89 	bne	s0,s2,bfc041c8 <inst_error>
bfc017a4:	00000000 	nop
bfc017a8:	3c08a5a4 	lui	t0,0xa5a4
bfc017ac:	35081fa0 	ori	t0,t0,0x1fa0
bfc017b0:	3c09901e 	lui	t1,0x901e
bfc017b4:	3529cf7a 	ori	t1,t1,0xcf7a
bfc017b8:	01090018 	mult	t0,t1
bfc017bc:	00008012 	mflo	s0
bfc017c0:	3c125a89 	lui	s2,0x5a89
bfc017c4:	36527240 	ori	s2,s2,0x7240
bfc017c8:	16120a7f 	bne	s0,s2,bfc041c8 <inst_error>
bfc017cc:	00000000 	nop
bfc017d0:	00008010 	mfhi	s0
bfc017d4:	3c12277d 	lui	s2,0x277d
bfc017d8:	3652522a 	ori	s2,s2,0x522a
bfc017dc:	16120a7a 	bne	s0,s2,bfc041c8 <inst_error>
bfc017e0:	00000000 	nop
bfc017e4:	3c081665 	lui	t0,0x1665
bfc017e8:	3508a95c 	ori	t0,t0,0xa95c
bfc017ec:	3c0901fa 	lui	t1,0x1fa
bfc017f0:	35290f1c 	ori	t1,t1,0xf1c
bfc017f4:	01090018 	mult	t0,t1
bfc017f8:	00008012 	mflo	s0
bfc017fc:	3c1227e2 	lui	s2,0x27e2
bfc01800:	3652ea10 	ori	s2,s2,0xea10
bfc01804:	16120a70 	bne	s0,s2,bfc041c8 <inst_error>
bfc01808:	00000000 	nop
bfc0180c:	00008010 	mfhi	s0
bfc01810:	3c12002c 	lui	s2,0x2c
bfc01814:	36524643 	ori	s2,s2,0x4643
bfc01818:	16120a6b 	bne	s0,s2,bfc041c8 <inst_error>
bfc0181c:	00000000 	nop
bfc01820:	3c08f760 	lui	t0,0xf760
bfc01824:	3508c288 	ori	t0,t0,0xc288
bfc01828:	3c09024d 	lui	t1,0x24d
bfc0182c:	35299a70 	ori	t1,t1,0x9a70
bfc01830:	01090018 	mult	t0,t1
bfc01834:	00008012 	mflo	s0
bfc01838:	3c120242 	lui	s2,0x242
bfc0183c:	3652eb80 	ori	s2,s2,0xeb80
bfc01840:	16120a61 	bne	s0,s2,bfc041c8 <inst_error>
bfc01844:	00000000 	nop
bfc01848:	00008010 	mfhi	s0
bfc0184c:	3c12ffec 	lui	s2,0xffec
bfc01850:	3652246c 	ori	s2,s2,0x246c
bfc01854:	16120a5c 	bne	s0,s2,bfc041c8 <inst_error>
bfc01858:	00000000 	nop
bfc0185c:	3c08b91b 	lui	t0,0xb91b
bfc01860:	35081700 	ori	t0,t0,0x1700
bfc01864:	3c09ff6a 	lui	t1,0xff6a
bfc01868:	35297770 	ori	t1,t1,0x7770
bfc0186c:	01090018 	mult	t0,t1
bfc01870:	00008012 	mflo	s0
bfc01874:	3c12198b 	lui	s2,0x198b
bfc01878:	36521000 	ori	s2,s2,0x1000
bfc0187c:	16120a52 	bne	s0,s2,bfc041c8 <inst_error>
bfc01880:	00000000 	nop
bfc01884:	00008010 	mfhi	s0
bfc01888:	3c120029 	lui	s2,0x29
bfc0188c:	3652690d 	ori	s2,s2,0x690d
bfc01890:	16120a4d 	bne	s0,s2,bfc041c8 <inst_error>
bfc01894:	00000000 	nop
bfc01898:	3c0838a1 	lui	t0,0x38a1
bfc0189c:	35085d4c 	ori	t0,t0,0x5d4c
bfc018a0:	3c094d37 	lui	t1,0x4d37
bfc018a4:	35298f48 	ori	t1,t1,0x8f48
bfc018a8:	01090018 	mult	t0,t1
bfc018ac:	00008012 	mflo	s0
bfc018b0:	3c12f7d3 	lui	s2,0xf7d3
bfc018b4:	3652b160 	ori	s2,s2,0xb160
bfc018b8:	16120a43 	bne	s0,s2,bfc041c8 <inst_error>
bfc018bc:	00000000 	nop
bfc018c0:	00008010 	mfhi	s0
bfc018c4:	3c121114 	lui	s2,0x1114
bfc018c8:	3652d36c 	ori	s2,s2,0xd36c
bfc018cc:	16120a3e 	bne	s0,s2,bfc041c8 <inst_error>
bfc018d0:	00000000 	nop
bfc018d4:	3c08e1d0 	lui	t0,0xe1d0
bfc018d8:	3508a988 	ori	t0,t0,0xa988
bfc018dc:	3c092906 	lui	t1,0x2906
bfc018e0:	35292820 	ori	t1,t1,0x2820
bfc018e4:	01090018 	mult	t0,t1
bfc018e8:	00008012 	mflo	s0
bfc018ec:	3c1295c2 	lui	s2,0x95c2
bfc018f0:	36527100 	ori	s2,s2,0x7100
bfc018f4:	16120a34 	bne	s0,s2,bfc041c8 <inst_error>
bfc018f8:	00000000 	nop
bfc018fc:	00008010 	mfhi	s0
bfc01900:	3c12fb29 	lui	s2,0xfb29
bfc01904:	3652b14f 	ori	s2,s2,0xb14f
bfc01908:	16120a2f 	bne	s0,s2,bfc041c8 <inst_error>
bfc0190c:	00000000 	nop
bfc01910:	3c08b657 	lui	t0,0xb657
bfc01914:	3508c3ec 	ori	t0,t0,0xc3ec
bfc01918:	3c094237 	lui	t1,0x4237
bfc0191c:	35293c21 	ori	t1,t1,0x3c21
bfc01920:	01090018 	mult	t0,t1
bfc01924:	00008012 	mflo	s0
bfc01928:	3c1202ef 	lui	s2,0x2ef
bfc0192c:	3652916c 	ori	s2,s2,0x916c
bfc01930:	16120a25 	bne	s0,s2,bfc041c8 <inst_error>
bfc01934:	00000000 	nop
bfc01938:	00008010 	mfhi	s0
bfc0193c:	3c12ecf2 	lui	s2,0xecf2
bfc01940:	3652bc11 	ori	s2,s2,0xbc11
bfc01944:	16120a20 	bne	s0,s2,bfc041c8 <inst_error>
bfc01948:	00000000 	nop
bfc0194c:	3c088cd7 	lui	t0,0x8cd7
bfc01950:	35082e00 	ori	t0,t0,0x2e00
bfc01954:	3c090657 	lui	t1,0x657
bfc01958:	3529e392 	ori	t1,t1,0xe392
bfc0195c:	01090018 	mult	t0,t1
bfc01960:	00008012 	mflo	s0
bfc01964:	3c12c282 	lui	s2,0xc282
bfc01968:	36523c00 	ori	s2,s2,0x3c00
bfc0196c:	16120a16 	bne	s0,s2,bfc041c8 <inst_error>
bfc01970:	00000000 	nop
bfc01974:	00008010 	mfhi	s0
bfc01978:	3c12fd25 	lui	s2,0xfd25
bfc0197c:	365281d5 	ori	s2,s2,0x81d5
bfc01980:	16120a11 	bne	s0,s2,bfc041c8 <inst_error>
bfc01984:	00000000 	nop
bfc01988:	3c08cffc 	lui	t0,0xcffc
bfc0198c:	3508a4a4 	ori	t0,t0,0xa4a4
bfc01990:	3c09f52a 	lui	t1,0xf52a
bfc01994:	3529ba30 	ori	t1,t1,0xba30
bfc01998:	01090018 	mult	t0,t1
bfc0199c:	00008012 	mflo	s0
bfc019a0:	3c1285e6 	lui	s2,0x85e6
bfc019a4:	365206c0 	ori	s2,s2,0x6c0
bfc019a8:	16120a07 	bne	s0,s2,bfc041c8 <inst_error>
bfc019ac:	00000000 	nop
bfc019b0:	00008010 	mfhi	s0
bfc019b4:	3c120208 	lui	s2,0x208
bfc019b8:	36522174 	ori	s2,s2,0x2174
bfc019bc:	16120a02 	bne	s0,s2,bfc041c8 <inst_error>
bfc019c0:	00000000 	nop
bfc019c4:	3c08d823 	lui	t0,0xd823
bfc019c8:	3508b826 	ori	t0,t0,0xb826
bfc019cc:	3c09ed60 	lui	t1,0xed60
bfc019d0:	35291012 	ori	t1,t1,0x1012
bfc019d4:	01090018 	mult	t0,t1
bfc019d8:	00008012 	mflo	s0
bfc019dc:	3c12aa45 	lui	s2,0xaa45
bfc019e0:	365252ac 	ori	s2,s2,0x52ac
bfc019e4:	161209f8 	bne	s0,s2,bfc041c8 <inst_error>
bfc019e8:	00000000 	nop
bfc019ec:	00008010 	mfhi	s0
bfc019f0:	3c1202e6 	lui	s2,0x2e6
bfc019f4:	36526439 	ori	s2,s2,0x6439
bfc019f8:	161209f3 	bne	s0,s2,bfc041c8 <inst_error>
bfc019fc:	00000000 	nop
bfc01a00:	3c08306f 	lui	t0,0x306f
bfc01a04:	35087f24 	ori	t0,t0,0x7f24
bfc01a08:	3c096384 	lui	t1,0x6384
bfc01a0c:	3529a554 	ori	t1,t1,0xa554
bfc01a10:	01090018 	mult	t0,t1
bfc01a14:	00008012 	mflo	s0
bfc01a18:	3c123c17 	lui	s2,0x3c17
bfc01a1c:	3652ebd0 	ori	s2,s2,0xebd0
bfc01a20:	161209e9 	bne	s0,s2,bfc041c8 <inst_error>
bfc01a24:	00000000 	nop
bfc01a28:	00008010 	mfhi	s0
bfc01a2c:	3c1212d4 	lui	s2,0x12d4
bfc01a30:	365236f0 	ori	s2,s2,0x36f0
bfc01a34:	161209e4 	bne	s0,s2,bfc041c8 <inst_error>
bfc01a38:	00000000 	nop
bfc01a3c:	3c080c59 	lui	t0,0xc59
bfc01a40:	3508e770 	ori	t0,t0,0xe770
bfc01a44:	3c093e38 	lui	t1,0x3e38
bfc01a48:	35297808 	ori	t1,t1,0x7808
bfc01a4c:	01090018 	mult	t0,t1
bfc01a50:	00008012 	mflo	s0
bfc01a54:	3c1247cb 	lui	s2,0x47cb
bfc01a58:	3652bb80 	ori	s2,s2,0xbb80
bfc01a5c:	161209da 	bne	s0,s2,bfc041c8 <inst_error>
bfc01a60:	00000000 	nop
bfc01a64:	00008010 	mfhi	s0
bfc01a68:	3c120300 	lui	s2,0x300
bfc01a6c:	36527f82 	ori	s2,s2,0x7f82
bfc01a70:	161209d5 	bne	s0,s2,bfc041c8 <inst_error>
bfc01a74:	00000000 	nop
bfc01a78:	3c08c1dd 	lui	t0,0xc1dd
bfc01a7c:	3508451c 	ori	t0,t0,0x451c
bfc01a80:	3c09e125 	lui	t1,0xe125
bfc01a84:	3529f520 	ori	t1,t1,0xf520
bfc01a88:	01090018 	mult	t0,t1
bfc01a8c:	00008012 	mflo	s0
bfc01a90:	3c1297d8 	lui	s2,0x97d8
bfc01a94:	36526f80 	ori	s2,s2,0x6f80
bfc01a98:	161209cb 	bne	s0,s2,bfc041c8 <inst_error>
bfc01a9c:	00000000 	nop
bfc01aa0:	00008010 	mfhi	s0
bfc01aa4:	3c12077c 	lui	s2,0x77c
bfc01aa8:	3652fe1d 	ori	s2,s2,0xfe1d
bfc01aac:	161209c6 	bne	s0,s2,bfc041c8 <inst_error>
bfc01ab0:	00000000 	nop
bfc01ab4:	3c08ef4e 	lui	t0,0xef4e
bfc01ab8:	350868d4 	ori	t0,t0,0x68d4
bfc01abc:	3c099ff2 	lui	t1,0x9ff2
bfc01ac0:	3529ad9b 	ori	t1,t1,0xad9b
bfc01ac4:	01090018 	mult	t0,t1
bfc01ac8:	00008012 	mflo	s0
bfc01acc:	3c12a5b8 	lui	s2,0xa5b8
bfc01ad0:	3652bc5c 	ori	s2,s2,0xbc5c
bfc01ad4:	161209bc 	bne	s0,s2,bfc041c8 <inst_error>
bfc01ad8:	00000000 	nop
bfc01adc:	00008010 	mfhi	s0
bfc01ae0:	3c120643 	lui	s2,0x643
bfc01ae4:	36527714 	ori	s2,s2,0x7714
bfc01ae8:	161209b7 	bne	s0,s2,bfc041c8 <inst_error>
bfc01aec:	00000000 	nop
bfc01af0:	3c087ef6 	lui	t0,0x7ef6
bfc01af4:	3508ec24 	ori	t0,t0,0xec24
bfc01af8:	3c09b177 	lui	t1,0xb177
bfc01afc:	3529da10 	ori	t1,t1,0xda10
bfc01b00:	01090018 	mult	t0,t1
bfc01b04:	00008012 	mflo	s0
bfc01b08:	3c12dd41 	lui	s2,0xdd41
bfc01b0c:	36526a40 	ori	s2,s2,0x6a40
bfc01b10:	161209ad 	bne	s0,s2,bfc041c8 <inst_error>
bfc01b14:	00000000 	nop
bfc01b18:	00008010 	mfhi	s0
bfc01b1c:	3c12d90d 	lui	s2,0xd90d
bfc01b20:	36523e0e 	ori	s2,s2,0x3e0e
bfc01b24:	161209a8 	bne	s0,s2,bfc041c8 <inst_error>
bfc01b28:	00000000 	nop
bfc01b2c:	3c086fb2 	lui	t0,0x6fb2
bfc01b30:	35085f72 	ori	t0,t0,0x5f72
bfc01b34:	3c09791e 	lui	t1,0x791e
bfc01b38:	3529bb10 	ori	t1,t1,0xbb10
bfc01b3c:	01090018 	mult	t0,t1
bfc01b40:	00008012 	mflo	s0
bfc01b44:	3c12583a 	lui	s2,0x583a
bfc01b48:	36523d20 	ori	s2,s2,0x3d20
bfc01b4c:	1612099e 	bne	s0,s2,bfc041c8 <inst_error>
bfc01b50:	00000000 	nop
bfc01b54:	00008010 	mfhi	s0
bfc01b58:	3c1234d8 	lui	s2,0x34d8
bfc01b5c:	3652b7a2 	ori	s2,s2,0xb7a2
bfc01b60:	16120999 	bne	s0,s2,bfc041c8 <inst_error>
bfc01b64:	00000000 	nop
bfc01b68:	3c085810 	lui	t0,0x5810
bfc01b6c:	35081600 	ori	t0,t0,0x1600
bfc01b70:	3c09d384 	lui	t1,0xd384
bfc01b74:	35290640 	ori	t1,t1,0x640
bfc01b78:	01090018 	mult	t0,t1
bfc01b7c:	00008012 	mflo	s0
bfc01b80:	3c12bc89 	lui	s2,0xbc89
bfc01b84:	36528000 	ori	s2,s2,0x8000
bfc01b88:	1612098f 	bne	s0,s2,bfc041c8 <inst_error>
bfc01b8c:	00000000 	nop
bfc01b90:	00008010 	mfhi	s0
bfc01b94:	3c12f0b2 	lui	s2,0xf0b2
bfc01b98:	36529693 	ori	s2,s2,0x9693
bfc01b9c:	1612098a 	bne	s0,s2,bfc041c8 <inst_error>
bfc01ba0:	00000000 	nop
bfc01ba4:	3c0807af 	lui	t0,0x7af
bfc01ba8:	3508fc60 	ori	t0,t0,0xfc60
bfc01bac:	3c095ea8 	lui	t1,0x5ea8
bfc01bb0:	3529d5b0 	ori	t1,t1,0xd5b0
bfc01bb4:	01090018 	mult	t0,t1
bfc01bb8:	00008012 	mflo	s0
bfc01bbc:	3c1294f9 	lui	s2,0x94f9
bfc01bc0:	36526200 	ori	s2,s2,0x6200
bfc01bc4:	16120980 	bne	s0,s2,bfc041c8 <inst_error>
bfc01bc8:	00000000 	nop
bfc01bcc:	00008010 	mfhi	s0
bfc01bd0:	3c1202d7 	lui	s2,0x2d7
bfc01bd4:	3652b093 	ori	s2,s2,0xb093
bfc01bd8:	1612097b 	bne	s0,s2,bfc041c8 <inst_error>
bfc01bdc:	00000000 	nop
bfc01be0:	3c08b9d8 	lui	t0,0xb9d8
bfc01be4:	350876f0 	ori	t0,t0,0x76f0
bfc01be8:	3c094e2d 	lui	t1,0x4e2d
bfc01bec:	35294c6d 	ori	t1,t1,0x4c6d
bfc01bf0:	01090018 	mult	t0,t1
bfc01bf4:	00008012 	mflo	s0
bfc01bf8:	3c126ca9 	lui	s2,0x6ca9
bfc01bfc:	3652e430 	ori	s2,s2,0xe430
bfc01c00:	16120971 	bne	s0,s2,bfc041c8 <inst_error>
bfc01c04:	00000000 	nop
bfc01c08:	00008010 	mfhi	s0
bfc01c0c:	3c12ea93 	lui	s2,0xea93
bfc01c10:	36528a58 	ori	s2,s2,0x8a58
bfc01c14:	1612096c 	bne	s0,s2,bfc041c8 <inst_error>
bfc01c18:	00000000 	nop
bfc01c1c:	3c0886a9 	lui	t0,0x86a9
bfc01c20:	3508a140 	ori	t0,t0,0xa140
bfc01c24:	3c092e05 	lui	t1,0x2e05
bfc01c28:	3529fbe2 	ori	t1,t1,0xfbe2
bfc01c2c:	01090018 	mult	t0,t1
bfc01c30:	00008012 	mflo	s0
bfc01c34:	3c12d91a 	lui	s2,0xd91a
bfc01c38:	36521a80 	ori	s2,s2,0x1a80
bfc01c3c:	16120962 	bne	s0,s2,bfc041c8 <inst_error>
bfc01c40:	00000000 	nop
bfc01c44:	00008010 	mfhi	s0
bfc01c48:	3c12ea2f 	lui	s2,0xea2f
bfc01c4c:	3652a4e6 	ori	s2,s2,0xa4e6
bfc01c50:	1612095d 	bne	s0,s2,bfc041c8 <inst_error>
bfc01c54:	00000000 	nop
bfc01c58:	3c087adc 	lui	t0,0x7adc
bfc01c5c:	350869d3 	ori	t0,t0,0x69d3
bfc01c60:	3c094374 	lui	t1,0x4374
bfc01c64:	3529038e 	ori	t1,t1,0x38e
bfc01c68:	01090018 	mult	t0,t1
bfc01c6c:	00008012 	mflo	s0
bfc01c70:	3c12e81c 	lui	s2,0xe81c
bfc01c74:	36522c0a 	ori	s2,s2,0x2c0a
bfc01c78:	16120953 	bne	s0,s2,bfc041c8 <inst_error>
bfc01c7c:	00000000 	nop
bfc01c80:	00008010 	mfhi	s0
bfc01c84:	3c12205f 	lui	s2,0x205f
bfc01c88:	36525d46 	ori	s2,s2,0x5d46
bfc01c8c:	1612094e 	bne	s0,s2,bfc041c8 <inst_error>
bfc01c90:	00000000 	nop
bfc01c94:	3c081e96 	lui	t0,0x1e96
bfc01c98:	35083a18 	ori	t0,t0,0x3a18
bfc01c9c:	3c091777 	lui	t1,0x1777
bfc01ca0:	352900f4 	ori	t1,t1,0xf4
bfc01ca4:	01090018 	mult	t0,t1
bfc01ca8:	00008012 	mflo	s0
bfc01cac:	3c125057 	lui	s2,0x5057
bfc01cb0:	36525ee0 	ori	s2,s2,0x5ee0
bfc01cb4:	16120944 	bne	s0,s2,bfc041c8 <inst_error>
bfc01cb8:	00000000 	nop
bfc01cbc:	00008010 	mfhi	s0
bfc01cc0:	3c1202cd 	lui	s2,0x2cd
bfc01cc4:	3652b72a 	ori	s2,s2,0xb72a
bfc01cc8:	1612093f 	bne	s0,s2,bfc041c8 <inst_error>
bfc01ccc:	00000000 	nop
bfc01cd0:	3c08863c 	lui	t0,0x863c
bfc01cd4:	35086138 	ori	t0,t0,0x6138
bfc01cd8:	3c09234e 	lui	t1,0x234e
bfc01cdc:	35298dca 	ori	t1,t1,0x8dca
bfc01ce0:	01090018 	mult	t0,t1
bfc01ce4:	00008012 	mflo	s0
bfc01ce8:	3c127440 	lui	s2,0x7440
bfc01cec:	36528e30 	ori	s2,s2,0x8e30
bfc01cf0:	16120935 	bne	s0,s2,bfc041c8 <inst_error>
bfc01cf4:	00000000 	nop
bfc01cf8:	00008010 	mfhi	s0
bfc01cfc:	3c12ef34 	lui	s2,0xef34
bfc01d00:	3652e43f 	ori	s2,s2,0xe43f
bfc01d04:	16120930 	bne	s0,s2,bfc041c8 <inst_error>
bfc01d08:	00000000 	nop
bfc01d0c:	3c08ca0b 	lui	t0,0xca0b
bfc01d10:	35085867 	ori	t0,t0,0x5867
bfc01d14:	3c09212a 	lui	t1,0x212a
bfc01d18:	35290d80 	ori	t1,t1,0xd80
bfc01d1c:	01090018 	mult	t0,t1
bfc01d20:	00008012 	mflo	s0
bfc01d24:	3c12610f 	lui	s2,0x610f
bfc01d28:	36526e80 	ori	s2,s2,0x6e80
bfc01d2c:	16120926 	bne	s0,s2,bfc041c8 <inst_error>
bfc01d30:	00000000 	nop
bfc01d34:	00008010 	mfhi	s0
bfc01d38:	3c12f902 	lui	s2,0xf902
bfc01d3c:	36529969 	ori	s2,s2,0x9969
bfc01d40:	16120921 	bne	s0,s2,bfc041c8 <inst_error>
bfc01d44:	00000000 	nop
bfc01d48:	3c08d2af 	lui	t0,0xd2af
bfc01d4c:	3508ff4e 	ori	t0,t0,0xff4e
bfc01d50:	3c09aca6 	lui	t1,0xaca6
bfc01d54:	3529fcb6 	ori	t1,t1,0xfcb6
bfc01d58:	01090018 	mult	t0,t1
bfc01d5c:	00008012 	mflo	s0
bfc01d60:	3c12fd04 	lui	s2,0xfd04
bfc01d64:	36524974 	ori	s2,s2,0x4974
bfc01d68:	16120917 	bne	s0,s2,bfc041c8 <inst_error>
bfc01d6c:	00000000 	nop
bfc01d70:	00008010 	mfhi	s0
bfc01d74:	3c120ec0 	lui	s2,0xec0
bfc01d78:	3652b19e 	ori	s2,s2,0xb19e
bfc01d7c:	16120912 	bne	s0,s2,bfc041c8 <inst_error>
bfc01d80:	00000000 	nop
bfc01d84:	3c082d35 	lui	t0,0x2d35
bfc01d88:	3508c922 	ori	t0,t0,0xc922
bfc01d8c:	3c09a791 	lui	t1,0xa791
bfc01d90:	3529b618 	ori	t1,t1,0xb618
bfc01d94:	01090018 	mult	t0,t1
bfc01d98:	00008012 	mflo	s0
bfc01d9c:	3c12944b 	lui	s2,0x944b
bfc01da0:	36520730 	ori	s2,s2,0x730
bfc01da4:	16120908 	bne	s0,s2,bfc041c8 <inst_error>
bfc01da8:	00000000 	nop
bfc01dac:	00008010 	mfhi	s0
bfc01db0:	3c12f062 	lui	s2,0xf062
bfc01db4:	365208b2 	ori	s2,s2,0x8b2
bfc01db8:	16120903 	bne	s0,s2,bfc041c8 <inst_error>
bfc01dbc:	00000000 	nop
bfc01dc0:	3c088404 	lui	t0,0x8404
bfc01dc4:	35082b80 	ori	t0,t0,0x2b80
bfc01dc8:	3c097713 	lui	t1,0x7713
bfc01dcc:	35295e80 	ori	t1,t1,0x5e80
bfc01dd0:	01090018 	mult	t0,t1
bfc01dd4:	00008012 	mflo	s0
bfc01dd8:	3c12448e 	lui	s2,0x448e
bfc01ddc:	3652c000 	ori	s2,s2,0xc000
bfc01de0:	161208f9 	bne	s0,s2,bfc041c8 <inst_error>
bfc01de4:	00000000 	nop
bfc01de8:	00008010 	mfhi	s0
bfc01dec:	3c12c654 	lui	s2,0xc654
bfc01df0:	36528ec3 	ori	s2,s2,0x8ec3
bfc01df4:	161208f4 	bne	s0,s2,bfc041c8 <inst_error>
bfc01df8:	00000000 	nop
bfc01dfc:	3c08e7b8 	lui	t0,0xe7b8
bfc01e00:	35081704 	ori	t0,t0,0x1704
bfc01e04:	3c0924b9 	lui	t1,0x24b9
bfc01e08:	352926b2 	ori	t1,t1,0x26b2
bfc01e0c:	01090018 	mult	t0,t1
bfc01e10:	00008012 	mflo	s0
bfc01e14:	3c12a34e 	lui	s2,0xa34e
bfc01e18:	365298c8 	ori	s2,s2,0x98c8
bfc01e1c:	161208ea 	bne	s0,s2,bfc041c8 <inst_error>
bfc01e20:	00000000 	nop
bfc01e24:	00008010 	mfhi	s0
bfc01e28:	3c12fc84 	lui	s2,0xfc84
bfc01e2c:	36525399 	ori	s2,s2,0x5399
bfc01e30:	161208e5 	bne	s0,s2,bfc041c8 <inst_error>
bfc01e34:	00000000 	nop
bfc01e38:	3c08e820 	lui	t0,0xe820
bfc01e3c:	35080c08 	ori	t0,t0,0xc08
bfc01e40:	3c096e5b 	lui	t1,0x6e5b
bfc01e44:	3529bdc4 	ori	t1,t1,0xbdc4
bfc01e48:	01090018 	mult	t0,t1
bfc01e4c:	00008012 	mflo	s0
bfc01e50:	3c121843 	lui	s2,0x1843
bfc01e54:	36521e20 	ori	s2,s2,0x1e20
bfc01e58:	161208db 	bne	s0,s2,bfc041c8 <inst_error>
bfc01e5c:	00000000 	nop
bfc01e60:	00008010 	mfhi	s0
bfc01e64:	3c12f5b5 	lui	s2,0xf5b5
bfc01e68:	365236dd 	ori	s2,s2,0x36dd
bfc01e6c:	161208d6 	bne	s0,s2,bfc041c8 <inst_error>
bfc01e70:	00000000 	nop
bfc01e74:	3c082051 	lui	t0,0x2051
bfc01e78:	3508c6ef 	ori	t0,t0,0xc6ef
bfc01e7c:	3c097f93 	lui	t1,0x7f93
bfc01e80:	3529b910 	ori	t1,t1,0xb910
bfc01e84:	01090018 	mult	t0,t1
bfc01e88:	00008012 	mflo	s0
bfc01e8c:	3c12ea1c 	lui	s2,0xea1c
bfc01e90:	365225f0 	ori	s2,s2,0x25f0
bfc01e94:	161208cc 	bne	s0,s2,bfc041c8 <inst_error>
bfc01e98:	00000000 	nop
bfc01e9c:	00008010 	mfhi	s0
bfc01ea0:	3c12101b 	lui	s2,0x101b
bfc01ea4:	36523802 	ori	s2,s2,0x3802
bfc01ea8:	161208c7 	bne	s0,s2,bfc041c8 <inst_error>
bfc01eac:	00000000 	nop
bfc01eb0:	3c089aaa 	lui	t0,0x9aaa
bfc01eb4:	3508be5a 	ori	t0,t0,0xbe5a
bfc01eb8:	3c09c5ae 	lui	t1,0xc5ae
bfc01ebc:	35298f40 	ori	t1,t1,0x8f40
bfc01ec0:	01090018 	mult	t0,t1
bfc01ec4:	00008012 	mflo	s0
bfc01ec8:	3c12ae2f 	lui	s2,0xae2f
bfc01ecc:	3652dc80 	ori	s2,s2,0xdc80
bfc01ed0:	161208bd 	bne	s0,s2,bfc041c8 <inst_error>
bfc01ed4:	00000000 	nop
bfc01ed8:	00008010 	mfhi	s0
bfc01edc:	3c121715 	lui	s2,0x1715
bfc01ee0:	36528d7a 	ori	s2,s2,0x8d7a
bfc01ee4:	161208b8 	bne	s0,s2,bfc041c8 <inst_error>
bfc01ee8:	00000000 	nop
bfc01eec:	3c0820a3 	lui	t0,0x20a3
bfc01ef0:	350881b4 	ori	t0,t0,0x81b4
bfc01ef4:	3c09a3ef 	lui	t1,0xa3ef
bfc01ef8:	35290720 	ori	t1,t1,0x720
bfc01efc:	01090018 	mult	t0,t1
bfc01f00:	00008012 	mflo	s0
bfc01f04:	3c124008 	lui	s2,0x4008
bfc01f08:	36522280 	ori	s2,s2,0x2280
bfc01f0c:	161208ae 	bne	s0,s2,bfc041c8 <inst_error>
bfc01f10:	00000000 	nop
bfc01f14:	00008010 	mfhi	s0
bfc01f18:	3c12f443 	lui	s2,0xf443
bfc01f1c:	36521370 	ori	s2,s2,0x1370
bfc01f20:	161208a9 	bne	s0,s2,bfc041c8 <inst_error>
bfc01f24:	00000000 	nop
bfc01f28:	3c08dbae 	lui	t0,0xdbae
bfc01f2c:	3508afd0 	ori	t0,t0,0xafd0
bfc01f30:	3c090aa0 	lui	t1,0xaa0
bfc01f34:	352904b2 	ori	t1,t1,0x4b2
bfc01f38:	01090018 	mult	t0,t1
bfc01f3c:	00008012 	mflo	s0
bfc01f40:	3c127c35 	lui	s2,0x7c35
bfc01f44:	36527ea0 	ori	s2,s2,0x7ea0
bfc01f48:	1612089f 	bne	s0,s2,bfc041c8 <inst_error>
bfc01f4c:	00000000 	nop
bfc01f50:	00008010 	mfhi	s0
bfc01f54:	3c12fe7e 	lui	s2,0xfe7e
bfc01f58:	36521f61 	ori	s2,s2,0x1f61
bfc01f5c:	1612089a 	bne	s0,s2,bfc041c8 <inst_error>
bfc01f60:	00000000 	nop
bfc01f64:	3c08bb23 	lui	t0,0xbb23
bfc01f68:	350815fc 	ori	t0,t0,0x15fc
bfc01f6c:	3c09e898 	lui	t1,0xe898
bfc01f70:	35291d00 	ori	t1,t1,0x1d00
bfc01f74:	01090018 	mult	t0,t1
bfc01f78:	00008012 	mflo	s0
bfc01f7c:	3c12671d 	lui	s2,0x671d
bfc01f80:	36528c00 	ori	s2,s2,0x8c00
bfc01f84:	16120890 	bne	s0,s2,bfc041c8 <inst_error>
bfc01f88:	00000000 	nop
bfc01f8c:	00008010 	mfhi	s0
bfc01f90:	3c12064b 	lui	s2,0x64b
bfc01f94:	3652caf8 	ori	s2,s2,0xcaf8
bfc01f98:	1612088b 	bne	s0,s2,bfc041c8 <inst_error>
bfc01f9c:	00000000 	nop
bfc01fa0:	3c08d2a3 	lui	t0,0xd2a3
bfc01fa4:	3508f5d0 	ori	t0,t0,0xf5d0
bfc01fa8:	3c092781 	lui	t1,0x2781
bfc01fac:	3529f291 	ori	t1,t1,0xf291
bfc01fb0:	01090018 	mult	t0,t1
bfc01fb4:	00008012 	mflo	s0
bfc01fb8:	3c12db0c 	lui	s2,0xdb0c
bfc01fbc:	3652dad0 	ori	s2,s2,0xdad0
bfc01fc0:	16120881 	bne	s0,s2,bfc041c8 <inst_error>
bfc01fc4:	00000000 	nop
bfc01fc8:	00008010 	mfhi	s0
bfc01fcc:	3c12f8ff 	lui	s2,0xf8ff
bfc01fd0:	3652f416 	ori	s2,s2,0xf416
bfc01fd4:	1612087c 	bne	s0,s2,bfc041c8 <inst_error>
bfc01fd8:	00000000 	nop
bfc01fdc:	3c08e054 	lui	t0,0xe054
bfc01fe0:	35081e54 	ori	t0,t0,0x1e54
bfc01fe4:	3c098e52 	lui	t1,0x8e52
bfc01fe8:	35291d00 	ori	t1,t1,0x1d00
bfc01fec:	01090018 	mult	t0,t1
bfc01ff0:	00008012 	mflo	s0
bfc01ff4:	3c12d657 	lui	s2,0xd657
bfc01ff8:	36528400 	ori	s2,s2,0x8400
bfc01ffc:	16120872 	bne	s0,s2,bfc041c8 <inst_error>
bfc02000:	00000000 	nop
bfc02004:	00008010 	mfhi	s0
bfc02008:	3c120e10 	lui	s2,0xe10
bfc0200c:	365261d9 	ori	s2,s2,0x61d9
bfc02010:	1612086d 	bne	s0,s2,bfc041c8 <inst_error>
bfc02014:	00000000 	nop
bfc02018:	3c082b95 	lui	t0,0x2b95
bfc0201c:	35082d8c 	ori	t0,t0,0x2d8c
bfc02020:	3c09a86c 	lui	t1,0xa86c
bfc02024:	35291668 	ori	t1,t1,0x1668
bfc02028:	01090018 	mult	t0,t1
bfc0202c:	00008012 	mflo	s0
bfc02030:	3c129d94 	lui	s2,0x9d94
bfc02034:	365288e0 	ori	s2,s2,0x88e0
bfc02038:	16120863 	bne	s0,s2,bfc041c8 <inst_error>
bfc0203c:	00000000 	nop
bfc02040:	00008010 	mfhi	s0
bfc02044:	3c12f117 	lui	s2,0xf117
bfc02048:	36521f17 	ori	s2,s2,0x1f17
bfc0204c:	1612085e 	bne	s0,s2,bfc041c8 <inst_error>
bfc02050:	00000000 	nop
bfc02054:	3c087e14 	lui	t0,0x7e14
bfc02058:	3508ef4f 	ori	t0,t0,0xef4f
bfc0205c:	3c0934ae 	lui	t1,0x34ae
bfc02060:	3529c846 	ori	t1,t1,0xc846
bfc02064:	01090018 	mult	t0,t1
bfc02068:	00008012 	mflo	s0
bfc0206c:	3c128861 	lui	s2,0x8861
bfc02070:	3652279a 	ori	s2,s2,0x279a
bfc02074:	16120854 	bne	s0,s2,bfc041c8 <inst_error>
bfc02078:	00000000 	nop
bfc0207c:	00008010 	mfhi	s0
bfc02080:	3c1219f2 	lui	s2,0x19f2
bfc02084:	36525579 	ori	s2,s2,0x5579
bfc02088:	1612084f 	bne	s0,s2,bfc041c8 <inst_error>
bfc0208c:	00000000 	nop
bfc02090:	3c0869b6 	lui	t0,0x69b6
bfc02094:	35080db0 	ori	t0,t0,0xdb0
bfc02098:	3c0991a7 	lui	t1,0x91a7
bfc0209c:	3529b30a 	ori	t1,t1,0xb30a
bfc020a0:	01090018 	mult	t0,t1
bfc020a4:	00008012 	mflo	s0
bfc020a8:	3c120a7e 	lui	s2,0xa7e
bfc020ac:	365298e0 	ori	s2,s2,0x98e0
bfc020b0:	16120845 	bne	s0,s2,bfc041c8 <inst_error>
bfc020b4:	00000000 	nop
bfc020b8:	00008010 	mfhi	s0
bfc020bc:	3c12d26f 	lui	s2,0xd26f
bfc020c0:	36524fc2 	ori	s2,s2,0x4fc2
bfc020c4:	16120840 	bne	s0,s2,bfc041c8 <inst_error>
bfc020c8:	00000000 	nop
bfc020cc:	3c085114 	lui	t0,0x5114
bfc020d0:	3508f774 	ori	t0,t0,0xf774
bfc020d4:	3c09feba 	lui	t1,0xfeba
bfc020d8:	35296b18 	ori	t1,t1,0x6b18
bfc020dc:	01090018 	mult	t0,t1
bfc020e0:	00008012 	mflo	s0
bfc020e4:	3c123fac 	lui	s2,0x3fac
bfc020e8:	3652aee0 	ori	s2,s2,0xaee0
bfc020ec:	16120836 	bne	s0,s2,bfc041c8 <inst_error>
bfc020f0:	00000000 	nop
bfc020f4:	00008010 	mfhi	s0
bfc020f8:	3c12ff98 	lui	s2,0xff98
bfc020fc:	3652e138 	ori	s2,s2,0xe138
bfc02100:	16120831 	bne	s0,s2,bfc041c8 <inst_error>
bfc02104:	00000000 	nop
bfc02108:	3c08ffa8 	lui	t0,0xffa8
bfc0210c:	3508a0b0 	ori	t0,t0,0xa0b0
bfc02110:	3c09d2d5 	lui	t1,0xd2d5
bfc02114:	3529af90 	ori	t1,t1,0xaf90
bfc02118:	01090018 	mult	t0,t1
bfc0211c:	00008012 	mflo	s0
bfc02120:	3c122722 	lui	s2,0x2722
bfc02124:	3652b300 	ori	s2,s2,0xb300
bfc02128:	16120827 	bne	s0,s2,bfc041c8 <inst_error>
bfc0212c:	00000000 	nop
bfc02130:	00008010 	mfhi	s0
bfc02134:	3c12000f 	lui	s2,0xf
bfc02138:	36526a32 	ori	s2,s2,0x6a32
bfc0213c:	16120822 	bne	s0,s2,bfc041c8 <inst_error>
bfc02140:	00000000 	nop
bfc02144:	3c08c592 	lui	t0,0xc592
bfc02148:	3508dc44 	ori	t0,t0,0xdc44
bfc0214c:	3c09856d 	lui	t1,0x856d
bfc02150:	35298ff0 	ori	t1,t1,0x8ff0
bfc02154:	01090018 	mult	t0,t1
bfc02158:	00008012 	mflo	s0
bfc0215c:	3c125fac 	lui	s2,0x5fac
bfc02160:	36527bc0 	ori	s2,s2,0x7bc0
bfc02164:	16120818 	bne	s0,s2,bfc041c8 <inst_error>
bfc02168:	00000000 	nop
bfc0216c:	00008010 	mfhi	s0
bfc02170:	3c121bf9 	lui	s2,0x1bf9
bfc02174:	36526ed9 	ori	s2,s2,0x6ed9
bfc02178:	16120813 	bne	s0,s2,bfc041c8 <inst_error>
bfc0217c:	00000000 	nop
bfc02180:	3c086fd3 	lui	t0,0x6fd3
bfc02184:	35088598 	ori	t0,t0,0x8598
bfc02188:	3c097ae9 	lui	t1,0x7ae9
bfc0218c:	35296521 	ori	t1,t1,0x6521
bfc02190:	01090018 	mult	t0,t1
bfc02194:	00008012 	mflo	s0
bfc02198:	3c12e551 	lui	s2,0xe551
bfc0219c:	36523098 	ori	s2,s2,0x3098
bfc021a0:	16120809 	bne	s0,s2,bfc041c8 <inst_error>
bfc021a4:	00000000 	nop
bfc021a8:	00008010 	mfhi	s0
bfc021ac:	3c1235b0 	lui	s2,0x35b0
bfc021b0:	3652c15b 	ori	s2,s2,0xc15b
bfc021b4:	16120804 	bne	s0,s2,bfc041c8 <inst_error>
bfc021b8:	00000000 	nop
bfc021bc:	3c08a2f5 	lui	t0,0xa2f5
bfc021c0:	3508f968 	ori	t0,t0,0xf968
bfc021c4:	3c09c861 	lui	t1,0xc861
bfc021c8:	35299b28 	ori	t1,t1,0x9b28
bfc021cc:	01090018 	mult	t0,t1
bfc021d0:	00008012 	mflo	s0
bfc021d4:	3c1224d8 	lui	s2,0x24d8
bfc021d8:	3652f040 	ori	s2,s2,0xf040
bfc021dc:	161207fa 	bne	s0,s2,bfc041c8 <inst_error>
bfc021e0:	00000000 	nop
bfc021e4:	00008010 	mfhi	s0
bfc021e8:	3c121436 	lui	s2,0x1436
bfc021ec:	3652b841 	ori	s2,s2,0xb841
bfc021f0:	161207f5 	bne	s0,s2,bfc041c8 <inst_error>
bfc021f4:	00000000 	nop
bfc021f8:	3c08d356 	lui	t0,0xd356
bfc021fc:	3508ec28 	ori	t0,t0,0xec28
bfc02200:	3c097643 	lui	t1,0x7643
bfc02204:	35290420 	ori	t1,t1,0x420
bfc02208:	01090018 	mult	t0,t1
bfc0220c:	00008012 	mflo	s0
bfc02210:	3c120506 	lui	s2,0x506
bfc02214:	36522500 	ori	s2,s2,0x2500
bfc02218:	161207eb 	bne	s0,s2,bfc041c8 <inst_error>
bfc0221c:	00000000 	nop
bfc02220:	00008010 	mfhi	s0
bfc02224:	3c12eb5e 	lui	s2,0xeb5e
bfc02228:	36525fe2 	ori	s2,s2,0x5fe2
bfc0222c:	161207e6 	bne	s0,s2,bfc041c8 <inst_error>
bfc02230:	00000000 	nop
bfc02234:	3c08d847 	lui	t0,0xd847
bfc02238:	35083aec 	ori	t0,t0,0x3aec
bfc0223c:	3c094390 	lui	t1,0x4390
bfc02240:	3529a494 	ori	t1,t1,0xa494
bfc02244:	01090018 	mult	t0,t1
bfc02248:	00008012 	mflo	s0
bfc0224c:	3c1293ad 	lui	s2,0x93ad
bfc02250:	36524070 	ori	s2,s2,0x4070
bfc02254:	161207dc 	bne	s0,s2,bfc041c8 <inst_error>
bfc02258:	00000000 	nop
bfc0225c:	00008010 	mfhi	s0
bfc02260:	3c12f584 	lui	s2,0xf584
bfc02264:	365232f3 	ori	s2,s2,0x32f3
bfc02268:	161207d7 	bne	s0,s2,bfc041c8 <inst_error>
bfc0226c:	00000000 	nop
bfc02270:	3c08bbfc 	lui	t0,0xbbfc
bfc02274:	350821c9 	ori	t0,t0,0x21c9
bfc02278:	3c093f54 	lui	t1,0x3f54
bfc0227c:	3529c534 	ori	t1,t1,0xc534
bfc02280:	01090018 	mult	t0,t1
bfc02284:	00008012 	mflo	s0
bfc02288:	3c12c22a 	lui	s2,0xc22a
bfc0228c:	365289d4 	ori	s2,s2,0x89d4
bfc02290:	161207cd 	bne	s0,s2,bfc041c8 <inst_error>
bfc02294:	00000000 	nop
bfc02298:	00008010 	mfhi	s0
bfc0229c:	3c12ef2c 	lui	s2,0xef2c
bfc022a0:	365286a6 	ori	s2,s2,0x86a6
bfc022a4:	161207c8 	bne	s0,s2,bfc041c8 <inst_error>
bfc022a8:	00000000 	nop
bfc022ac:	3c0887ec 	lui	t0,0x87ec
bfc022b0:	35083cc0 	ori	t0,t0,0x3cc0
bfc022b4:	3c09f558 	lui	t1,0xf558
bfc022b8:	352925f8 	ori	t1,t1,0x25f8
bfc022bc:	01090018 	mult	t0,t1
bfc022c0:	00008012 	mflo	s0
bfc022c4:	3c1273a2 	lui	s2,0x73a2
bfc022c8:	36529a00 	ori	s2,s2,0x9a00
bfc022cc:	161207be 	bne	s0,s2,bfc041c8 <inst_error>
bfc022d0:	00000000 	nop
bfc022d4:	00008010 	mfhi	s0
bfc022d8:	3c1204ff 	lui	s2,0x4ff
bfc022dc:	365280c9 	ori	s2,s2,0x80c9
bfc022e0:	161207b9 	bne	s0,s2,bfc041c8 <inst_error>
bfc022e4:	00000000 	nop
bfc022e8:	3c0846d6 	lui	t0,0x46d6
bfc022ec:	35082ce8 	ori	t0,t0,0x2ce8
bfc022f0:	3c099ce9 	lui	t1,0x9ce9
bfc022f4:	3529df08 	ori	t1,t1,0xdf08
bfc022f8:	01090018 	mult	t0,t1
bfc022fc:	00008012 	mflo	s0
bfc02300:	3c1206f7 	lui	s2,0x6f7
bfc02304:	36527f40 	ori	s2,s2,0x7f40
bfc02308:	161207af 	bne	s0,s2,bfc041c8 <inst_error>
bfc0230c:	00000000 	nop
bfc02310:	00008010 	mfhi	s0
bfc02314:	3c12e495 	lui	s2,0xe495
bfc02318:	36520d1b 	ori	s2,s2,0xd1b
bfc0231c:	161207aa 	bne	s0,s2,bfc041c8 <inst_error>
bfc02320:	00000000 	nop
bfc02324:	3c08fb42 	lui	t0,0xfb42
bfc02328:	3508fdce 	ori	t0,t0,0xfdce
bfc0232c:	3c0963a7 	lui	t1,0x63a7
bfc02330:	35299378 	ori	t1,t1,0x9378
bfc02334:	01090018 	mult	t0,t1
bfc02338:	00008012 	mflo	s0
bfc0233c:	3c127a86 	lui	s2,0x7a86
bfc02340:	36524290 	ori	s2,s2,0x4290
bfc02344:	161207a0 	bne	s0,s2,bfc041c8 <inst_error>
bfc02348:	00000000 	nop
bfc0234c:	00008010 	mfhi	s0
bfc02350:	3c12fe27 	lui	s2,0xfe27
bfc02354:	3652ce1f 	ori	s2,s2,0xce1f
bfc02358:	1612079b 	bne	s0,s2,bfc041c8 <inst_error>
bfc0235c:	00000000 	nop
bfc02360:	3c0869b5 	lui	t0,0x69b5
bfc02364:	35088f96 	ori	t0,t0,0x8f96
bfc02368:	3c092a4b 	lui	t1,0x2a4b
bfc0236c:	3529bf0e 	ori	t1,t1,0xbf0e
bfc02370:	01090018 	mult	t0,t1
bfc02374:	00008012 	mflo	s0
bfc02378:	3c12eb00 	lui	s2,0xeb00
bfc0237c:	3652c434 	ori	s2,s2,0xc434
bfc02380:	16120791 	bne	s0,s2,bfc041c8 <inst_error>
bfc02384:	00000000 	nop
bfc02388:	00008010 	mfhi	s0
bfc0238c:	3c121177 	lui	s2,0x1177
bfc02390:	365210a3 	ori	s2,s2,0x10a3
bfc02394:	1612078c 	bne	s0,s2,bfc041c8 <inst_error>
bfc02398:	00000000 	nop
bfc0239c:	3c08f952 	lui	t0,0xf952
bfc023a0:	3508c740 	ori	t0,t0,0xc740
bfc023a4:	3c097397 	lui	t1,0x7397
bfc023a8:	35298b1c 	ori	t1,t1,0x8b1c
bfc023ac:	01090018 	mult	t0,t1
bfc023b0:	00008012 	mflo	s0
bfc023b4:	3c127dfd 	lui	s2,0x7dfd
bfc023b8:	36528b00 	ori	s2,s2,0x8b00
bfc023bc:	16120782 	bne	s0,s2,bfc041c8 <inst_error>
bfc023c0:	00000000 	nop
bfc023c4:	00008010 	mfhi	s0
bfc023c8:	3c12fcfc 	lui	s2,0xfcfc
bfc023cc:	36523bb4 	ori	s2,s2,0x3bb4
bfc023d0:	1612077d 	bne	s0,s2,bfc041c8 <inst_error>
bfc023d4:	00000000 	nop
bfc023d8:	3c088f68 	lui	t0,0x8f68
bfc023dc:	35089828 	ori	t0,t0,0x9828
bfc023e0:	3c099156 	lui	t1,0x9156
bfc023e4:	35295574 	ori	t1,t1,0x5574
bfc023e8:	01090018 	mult	t0,t1
bfc023ec:	00008012 	mflo	s0
bfc023f0:	3c127b5a 	lui	s2,0x7b5a
bfc023f4:	36523a20 	ori	s2,s2,0x3a20
bfc023f8:	16120773 	bne	s0,s2,bfc041c8 <inst_error>
bfc023fc:	00000000 	nop
bfc02400:	00008010 	mfhi	s0
bfc02404:	3c1230ab 	lui	s2,0x30ab
bfc02408:	3652ad94 	ori	s2,s2,0xad94
bfc0240c:	1612076e 	bne	s0,s2,bfc041c8 <inst_error>
bfc02410:	00000000 	nop
bfc02414:	3c08914d 	lui	t0,0x914d
bfc02418:	35088000 	ori	t0,t0,0x8000
bfc0241c:	3c09ba3b 	lui	t1,0xba3b
bfc02420:	352944b8 	ori	t1,t1,0x44b8
bfc02424:	01090018 	mult	t0,t1
bfc02428:	00008012 	mflo	s0
bfc0242c:	3c1285b4 	lui	s2,0x85b4
bfc02430:	16120765 	bne	s0,s2,bfc041c8 <inst_error>
bfc02434:	00000000 	nop
bfc02438:	00008010 	mfhi	s0
bfc0243c:	3c121e2b 	lui	s2,0x1e2b
bfc02440:	36522e25 	ori	s2,s2,0x2e25
bfc02444:	16120760 	bne	s0,s2,bfc041c8 <inst_error>
bfc02448:	00000000 	nop
bfc0244c:	3c084d2e 	lui	t0,0x4d2e
bfc02450:	35083cf5 	ori	t0,t0,0x3cf5
bfc02454:	3c0970e9 	lui	t1,0x70e9
bfc02458:	3529d5e8 	ori	t1,t1,0xd5e8
bfc0245c:	01090018 	mult	t0,t1
bfc02460:	00008012 	mflo	s0
bfc02464:	3c12159c 	lui	s2,0x159c
bfc02468:	36521708 	ori	s2,s2,0x1708
bfc0246c:	16120756 	bne	s0,s2,bfc041c8 <inst_error>
bfc02470:	00000000 	nop
bfc02474:	00008010 	mfhi	s0
bfc02478:	3c12220a 	lui	s2,0x220a
bfc0247c:	3652ba3e 	ori	s2,s2,0xba3e
bfc02480:	16120751 	bne	s0,s2,bfc041c8 <inst_error>
bfc02484:	00000000 	nop
bfc02488:	3c08b037 	lui	t0,0xb037
bfc0248c:	3508ad58 	ori	t0,t0,0xad58
bfc02490:	3c091195 	lui	t1,0x1195
bfc02494:	35292040 	ori	t1,t1,0x2040
bfc02498:	01090018 	mult	t0,t1
bfc0249c:	00008012 	mflo	s0
bfc024a0:	3c12bfce 	lui	s2,0xbfce
bfc024a4:	36525600 	ori	s2,s2,0x5600
bfc024a8:	16120747 	bne	s0,s2,bfc041c8 <inst_error>
bfc024ac:	00000000 	nop
bfc024b0:	00008010 	mfhi	s0
bfc024b4:	3c12fa85 	lui	s2,0xfa85
bfc024b8:	365238dd 	ori	s2,s2,0x38dd
bfc024bc:	16120742 	bne	s0,s2,bfc041c8 <inst_error>
bfc024c0:	00000000 	nop
bfc024c4:	3c08a424 	lui	t0,0xa424
bfc024c8:	35086038 	ori	t0,t0,0x6038
bfc024cc:	3c09111a 	lui	t1,0x111a
bfc024d0:	3529d568 	ori	t1,t1,0xd568
bfc024d4:	01090018 	mult	t0,t1
bfc024d8:	00008012 	mflo	s0
bfc024dc:	3c127085 	lui	s2,0x7085
bfc024e0:	3652aec0 	ori	s2,s2,0xaec0
bfc024e4:	16120738 	bne	s0,s2,bfc041c8 <inst_error>
bfc024e8:	00000000 	nop
bfc024ec:	00008010 	mfhi	s0
bfc024f0:	3c12f9dc 	lui	s2,0xf9dc
bfc024f4:	3652c982 	ori	s2,s2,0xc982
bfc024f8:	16120733 	bne	s0,s2,bfc041c8 <inst_error>
bfc024fc:	00000000 	nop
bfc02500:	3c08ef96 	lui	t0,0xef96
bfc02504:	35084a3a 	ori	t0,t0,0x4a3a
bfc02508:	3c09d18d 	lui	t1,0xd18d
bfc0250c:	35295d08 	ori	t1,t1,0x5d08
bfc02510:	01090018 	mult	t0,t1
bfc02514:	00008012 	mflo	s0
bfc02518:	3c12519b 	lui	s2,0x519b
bfc0251c:	365263d0 	ori	s2,s2,0x63d0
bfc02520:	16120729 	bne	s0,s2,bfc041c8 <inst_error>
bfc02524:	00000000 	nop
bfc02528:	00008010 	mfhi	s0
bfc0252c:	3c1202fa 	lui	s2,0x2fa
bfc02530:	3652582f 	ori	s2,s2,0x582f
bfc02534:	16120724 	bne	s0,s2,bfc041c8 <inst_error>
bfc02538:	00000000 	nop
bfc0253c:	3c08a4a7 	lui	t0,0xa4a7
bfc02540:	3508728e 	ori	t0,t0,0x728e
bfc02544:	3c099784 	lui	t1,0x9784
bfc02548:	35293fdc 	ori	t1,t1,0x3fdc
bfc0254c:	01090018 	mult	t0,t1
bfc02550:	00008012 	mflo	s0
bfc02554:	3c12884f 	lui	s2,0x884f
bfc02558:	36526408 	ori	s2,s2,0x6408
bfc0255c:	1612071a 	bne	s0,s2,bfc041c8 <inst_error>
bfc02560:	00000000 	nop
bfc02564:	00008010 	mfhi	s0
bfc02568:	3c122548 	lui	s2,0x2548
bfc0256c:	36522191 	ori	s2,s2,0x2191
bfc02570:	16120715 	bne	s0,s2,bfc041c8 <inst_error>
bfc02574:	00000000 	nop
bfc02578:	3c08df30 	lui	t0,0xdf30
bfc0257c:	3508b100 	ori	t0,t0,0xb100
bfc02580:	3c092509 	lui	t1,0x2509
bfc02584:	352933f8 	ori	t1,t1,0x33f8
bfc02588:	01090018 	mult	t0,t1
bfc0258c:	00008012 	mflo	s0
bfc02590:	3c12236e 	lui	s2,0x236e
bfc02594:	36527800 	ori	s2,s2,0x7800
bfc02598:	1612070b 	bne	s0,s2,bfc041c8 <inst_error>
bfc0259c:	00000000 	nop
bfc025a0:	00008010 	mfhi	s0
bfc025a4:	3c12fb40 	lui	s2,0xfb40
bfc025a8:	3652dba2 	ori	s2,s2,0xdba2
bfc025ac:	16120706 	bne	s0,s2,bfc041c8 <inst_error>
bfc025b0:	00000000 	nop
bfc025b4:	3c081d58 	lui	t0,0x1d58
bfc025b8:	350818a4 	ori	t0,t0,0x18a4
bfc025bc:	3c09e509 	lui	t1,0xe509
bfc025c0:	35293304 	ori	t1,t1,0x3304
bfc025c4:	01090018 	mult	t0,t1
bfc025c8:	00008012 	mflo	s0
bfc025cc:	3c12940d 	lui	s2,0x940d
bfc025d0:	36520e90 	ori	s2,s2,0xe90
bfc025d4:	161206fc 	bne	s0,s2,bfc041c8 <inst_error>
bfc025d8:	00000000 	nop
bfc025dc:	00008010 	mfhi	s0
bfc025e0:	3c12fce8 	lui	s2,0xfce8
bfc025e4:	3652c358 	ori	s2,s2,0xc358
bfc025e8:	161206f7 	bne	s0,s2,bfc041c8 <inst_error>
bfc025ec:	00000000 	nop
bfc025f0:	3c081512 	lui	t0,0x1512
bfc025f4:	35082298 	ori	t0,t0,0x2298
bfc025f8:	3c09cbbb 	lui	t1,0xcbbb
bfc025fc:	35299870 	ori	t1,t1,0x9870
bfc02600:	01090018 	mult	t0,t1
bfc02604:	00008012 	mflo	s0
bfc02608:	3c12c981 	lui	s2,0xc981
bfc0260c:	36526280 	ori	s2,s2,0x6280
bfc02610:	161206ed 	bne	s0,s2,bfc041c8 <inst_error>
bfc02614:	00000000 	nop
bfc02618:	00008010 	mfhi	s0
bfc0261c:	3c12fbb2 	lui	s2,0xfbb2
bfc02620:	3652afa1 	ori	s2,s2,0xafa1
bfc02624:	161206e8 	bne	s0,s2,bfc041c8 <inst_error>
bfc02628:	00000000 	nop
bfc0262c:	3c0888ca 	lui	t0,0x88ca
bfc02630:	3508117e 	ori	t0,t0,0x117e
bfc02634:	3c090e12 	lui	t1,0xe12
bfc02638:	35295f90 	ori	t1,t1,0x5f90
bfc0263c:	01090018 	mult	t0,t1
bfc02640:	00008012 	mflo	s0
bfc02644:	3c120d03 	lui	s2,0xd03
bfc02648:	365298e0 	ori	s2,s2,0x98e0
bfc0264c:	161206de 	bne	s0,s2,bfc041c8 <inst_error>
bfc02650:	00000000 	nop
bfc02654:	00008010 	mfhi	s0
bfc02658:	3c12f972 	lui	s2,0xf972
bfc0265c:	36527eaa 	ori	s2,s2,0x7eaa
bfc02660:	161206d9 	bne	s0,s2,bfc041c8 <inst_error>
bfc02664:	00000000 	nop
bfc02668:	3c08df4e 	lui	t0,0xdf4e
bfc0266c:	3508f397 	ori	t0,t0,0xf397
bfc02670:	3c09da63 	lui	t1,0xda63
bfc02674:	3529b6b6 	ori	t1,t1,0xb6b6
bfc02678:	01090018 	mult	t0,t1
bfc0267c:	00008012 	mflo	s0
bfc02680:	3c12acb3 	lui	s2,0xacb3
bfc02684:	3652875a 	ori	s2,s2,0x875a
bfc02688:	161206cf 	bne	s0,s2,bfc041c8 <inst_error>
bfc0268c:	00000000 	nop
bfc02690:	00008010 	mfhi	s0
bfc02694:	3c1204cd 	lui	s2,0x4cd
bfc02698:	36528c0a 	ori	s2,s2,0x8c0a
bfc0269c:	161206ca 	bne	s0,s2,bfc041c8 <inst_error>
bfc026a0:	00000000 	nop
bfc026a4:	3c086683 	lui	t0,0x6683
bfc026a8:	3508ae60 	ori	t0,t0,0xae60
bfc026ac:	3c0963fc 	lui	t1,0x63fc
bfc026b0:	35291988 	ori	t1,t1,0x1988
bfc026b4:	01090018 	mult	t0,t1
bfc026b8:	00008012 	mflo	s0
bfc026bc:	3c12187c 	lui	s2,0x187c
bfc026c0:	36520300 	ori	s2,s2,0x300
bfc026c4:	161206c0 	bne	s0,s2,bfc041c8 <inst_error>
bfc026c8:	00000000 	nop
bfc026cc:	00008010 	mfhi	s0
bfc026d0:	3c122809 	lui	s2,0x2809
bfc026d4:	3652e048 	ori	s2,s2,0xe048
bfc026d8:	161206bb 	bne	s0,s2,bfc041c8 <inst_error>
bfc026dc:	00000000 	nop
bfc026e0:	3c08e6a5 	lui	t0,0xe6a5
bfc026e4:	35086cae 	ori	t0,t0,0x6cae
bfc026e8:	3c09d000 	lui	t1,0xd000
bfc026ec:	35293efb 	ori	t1,t1,0x3efb
bfc026f0:	01090018 	mult	t0,t1
bfc026f4:	00008012 	mflo	s0
bfc026f8:	3c129483 	lui	s2,0x9483
bfc026fc:	3652b29a 	ori	s2,s2,0xb29a
bfc02700:	161206b1 	bne	s0,s2,bfc041c8 <inst_error>
bfc02704:	00000000 	nop
bfc02708:	00008010 	mfhi	s0
bfc0270c:	3c1204c0 	lui	s2,0x4c0
bfc02710:	3652f562 	ori	s2,s2,0xf562
bfc02714:	161206ac 	bne	s0,s2,bfc041c8 <inst_error>
bfc02718:	00000000 	nop
bfc0271c:	3c087d58 	lui	t0,0x7d58
bfc02720:	3508aade 	ori	t0,t0,0xaade
bfc02724:	3c095b21 	lui	t1,0x5b21
bfc02728:	352967ac 	ori	t1,t1,0x67ac
bfc0272c:	01090018 	mult	t0,t1
bfc02730:	00008012 	mflo	s0
bfc02734:	3c12d4f0 	lui	s2,0xd4f0
bfc02738:	36521f28 	ori	s2,s2,0x1f28
bfc0273c:	161206a2 	bne	s0,s2,bfc041c8 <inst_error>
bfc02740:	00000000 	nop
bfc02744:	00008010 	mfhi	s0
bfc02748:	3c122c9e 	lui	s2,0x2c9e
bfc0274c:	3652dfed 	ori	s2,s2,0xdfed
bfc02750:	1612069d 	bne	s0,s2,bfc041c8 <inst_error>
bfc02754:	00000000 	nop
bfc02758:	3c086111 	lui	t0,0x6111
bfc0275c:	35088bd0 	ori	t0,t0,0x8bd0
bfc02760:	3c099e01 	lui	t1,0x9e01
bfc02764:	35296e14 	ori	t1,t1,0x6e14
bfc02768:	01090018 	mult	t0,t1
bfc0276c:	00008012 	mflo	s0
bfc02770:	3c120b42 	lui	s2,0xb42
bfc02774:	36524c40 	ori	s2,s2,0x4c40
bfc02778:	16120693 	bne	s0,s2,bfc041c8 <inst_error>
bfc0277c:	00000000 	nop
bfc02780:	00008010 	mfhi	s0
bfc02784:	3c12dad7 	lui	s2,0xdad7
bfc02788:	3652d349 	ori	s2,s2,0xd349
bfc0278c:	1612068e 	bne	s0,s2,bfc041c8 <inst_error>
bfc02790:	00000000 	nop
bfc02794:	3c087fdd 	lui	t0,0x7fdd
bfc02798:	350822be 	ori	t0,t0,0x22be
bfc0279c:	3c09fdcc 	lui	t1,0xfdcc
bfc027a0:	35299fee 	ori	t1,t1,0x9fee
bfc027a4:	01090018 	mult	t0,t1
bfc027a8:	00008012 	mflo	s0
bfc027ac:	3c12ad92 	lui	s2,0xad92
bfc027b0:	36524ea4 	ori	s2,s2,0x4ea4
bfc027b4:	16120684 	bne	s0,s2,bfc041c8 <inst_error>
bfc027b8:	00000000 	nop
bfc027bc:	00008010 	mfhi	s0
bfc027c0:	3c12fee6 	lui	s2,0xfee6
bfc027c4:	36529cb0 	ori	s2,s2,0x9cb0
bfc027c8:	1612067f 	bne	s0,s2,bfc041c8 <inst_error>
bfc027cc:	00000000 	nop
bfc027d0:	3c0870e2 	lui	t0,0x70e2
bfc027d4:	350873a0 	ori	t0,t0,0x73a0
bfc027d8:	3c09d87f 	lui	t1,0xd87f
bfc027dc:	3529c19c 	ori	t1,t1,0xc19c
bfc027e0:	01090018 	mult	t0,t1
bfc027e4:	00008012 	mflo	s0
bfc027e8:	3c12df8a 	lui	s2,0xdf8a
bfc027ec:	36521580 	ori	s2,s2,0x1580
bfc027f0:	16120675 	bne	s0,s2,bfc041c8 <inst_error>
bfc027f4:	00000000 	nop
bfc027f8:	00008010 	mfhi	s0
bfc027fc:	3c12ee94 	lui	s2,0xee94
bfc02800:	3652f3a5 	ori	s2,s2,0xf3a5
bfc02804:	16120670 	bne	s0,s2,bfc041c8 <inst_error>
bfc02808:	00000000 	nop
bfc0280c:	3c083940 	lui	t0,0x3940
bfc02810:	3508dad6 	ori	t0,t0,0xdad6
bfc02814:	3c09a37c 	lui	t1,0xa37c
bfc02818:	3529292b 	ori	t1,t1,0x292b
bfc0281c:	01090018 	mult	t0,t1
bfc02820:	00008012 	mflo	s0
bfc02824:	3c124299 	lui	s2,0x4299
bfc02828:	365207f2 	ori	s2,s2,0x7f2
bfc0282c:	16120666 	bne	s0,s2,bfc041c8 <inst_error>
bfc02830:	00000000 	nop
bfc02834:	00008010 	mfhi	s0
bfc02838:	3c12eb4f 	lui	s2,0xeb4f
bfc0283c:	3652351f 	ori	s2,s2,0x351f
bfc02840:	16120661 	bne	s0,s2,bfc041c8 <inst_error>
bfc02844:	00000000 	nop
bfc02848:	3c08ba7a 	lui	t0,0xba7a
bfc0284c:	3508b435 	ori	t0,t0,0xb435
bfc02850:	3c092322 	lui	t1,0x2322
bfc02854:	3529d7d0 	ori	t1,t1,0xd7d0
bfc02858:	01090018 	mult	t0,t1
bfc0285c:	00008012 	mflo	s0
bfc02860:	3c12bf14 	lui	s2,0xbf14
bfc02864:	3652ee10 	ori	s2,s2,0xee10
bfc02868:	16120657 	bne	s0,s2,bfc041c8 <inst_error>
bfc0286c:	00000000 	nop
bfc02870:	00008010 	mfhi	s0
bfc02874:	3c12f675 	lui	s2,0xf675
bfc02878:	36525053 	ori	s2,s2,0x5053
bfc0287c:	16120652 	bne	s0,s2,bfc041c8 <inst_error>
bfc02880:	00000000 	nop
bfc02884:	3c080b23 	lui	t0,0xb23
bfc02888:	35088760 	ori	t0,t0,0x8760
bfc0288c:	3c092bff 	lui	t1,0x2bff
bfc02890:	35292a02 	ori	t1,t1,0x2a02
bfc02894:	01090018 	mult	t0,t1
bfc02898:	00008012 	mflo	s0
bfc0289c:	3c12e31c 	lui	s2,0xe31c
bfc028a0:	3652cec0 	ori	s2,s2,0xcec0
bfc028a4:	16120648 	bne	s0,s2,bfc041c8 <inst_error>
bfc028a8:	00000000 	nop
bfc028ac:	00008010 	mfhi	s0
bfc028b0:	3c1201ea 	lui	s2,0x1ea
bfc028b4:	365211f4 	ori	s2,s2,0x11f4
bfc028b8:	16120643 	bne	s0,s2,bfc041c8 <inst_error>
bfc028bc:	00000000 	nop
bfc028c0:	3c08aa6a 	lui	t0,0xaa6a
bfc028c4:	35089390 	ori	t0,t0,0x9390
bfc028c8:	3c098d3a 	lui	t1,0x8d3a
bfc028cc:	3529b108 	ori	t1,t1,0xb108
bfc028d0:	01090018 	mult	t0,t1
bfc028d4:	00008012 	mflo	s0
bfc028d8:	3c12c1fb 	lui	s2,0xc1fb
bfc028dc:	36522c80 	ori	s2,s2,0x2c80
bfc028e0:	16120639 	bne	s0,s2,bfc041c8 <inst_error>
bfc028e4:	00000000 	nop
bfc028e8:	00008010 	mfhi	s0
bfc028ec:	3c12265e 	lui	s2,0x265e
bfc028f0:	365280ac 	ori	s2,s2,0x80ac
bfc028f4:	16120634 	bne	s0,s2,bfc041c8 <inst_error>
bfc028f8:	00000000 	nop
bfc028fc:	3c08e366 	lui	t0,0xe366
bfc02900:	35087224 	ori	t0,t0,0x7224
bfc02904:	3c09bf51 	lui	t1,0xbf51
bfc02908:	35294d80 	ori	t1,t1,0x4d80
bfc0290c:	01090018 	mult	t0,t1
bfc02910:	00008012 	mflo	s0
bfc02914:	3c127cf1 	lui	s2,0x7cf1
bfc02918:	3652e600 	ori	s2,s2,0xe600
bfc0291c:	1612062a 	bne	s0,s2,bfc041c8 <inst_error>
bfc02920:	00000000 	nop
bfc02924:	00008010 	mfhi	s0
bfc02928:	3c120739 	lui	s2,0x739
bfc0292c:	3652e7c6 	ori	s2,s2,0xe7c6
bfc02930:	16120625 	bne	s0,s2,bfc041c8 <inst_error>
bfc02934:	00000000 	nop
bfc02938:	3c0853b1 	lui	t0,0x53b1
bfc0293c:	3508b42e 	ori	t0,t0,0xb42e
bfc02940:	3c097c60 	lui	t1,0x7c60
bfc02944:	35298578 	ori	t1,t1,0x8578
bfc02948:	01090018 	mult	t0,t1
bfc0294c:	00008012 	mflo	s0
bfc02950:	3c126728 	lui	s2,0x6728
bfc02954:	36525b90 	ori	s2,s2,0x5b90
bfc02958:	1612061b 	bne	s0,s2,bfc041c8 <inst_error>
bfc0295c:	00000000 	nop
bfc02960:	00008010 	mfhi	s0
bfc02964:	3c1228a9 	lui	s2,0x28a9
bfc02968:	3652a18c 	ori	s2,s2,0xa18c
bfc0296c:	16120616 	bne	s0,s2,bfc041c8 <inst_error>
bfc02970:	00000000 	nop
bfc02974:	3c088241 	lui	t0,0x8241
bfc02978:	3508ddf4 	ori	t0,t0,0xddf4
bfc0297c:	3c094a8d 	lui	t1,0x4a8d
bfc02980:	35290e90 	ori	t1,t1,0xe90
bfc02984:	01090018 	mult	t0,t1
bfc02988:	00008012 	mflo	s0
bfc0298c:	3c12a694 	lui	s2,0xa694
bfc02990:	36523140 	ori	s2,s2,0x3140
bfc02994:	1612060c 	bne	s0,s2,bfc041c8 <inst_error>
bfc02998:	00000000 	nop
bfc0299c:	00008010 	mfhi	s0
bfc029a0:	3c12db61 	lui	s2,0xdb61
bfc029a4:	3652c148 	ori	s2,s2,0xc148
bfc029a8:	16120607 	bne	s0,s2,bfc041c8 <inst_error>
bfc029ac:	00000000 	nop
bfc029b0:	3c087cdc 	lui	t0,0x7cdc
bfc029b4:	3508d5cf 	ori	t0,t0,0xd5cf
bfc029b8:	3c09e584 	lui	t1,0xe584
bfc029bc:	3529065f 	ori	t1,t1,0x65f
bfc029c0:	01090018 	mult	t0,t1
bfc029c4:	00008012 	mflo	s0
bfc029c8:	3c12ecb2 	lui	s2,0xecb2
bfc029cc:	365231d1 	ori	s2,s2,0x31d1
bfc029d0:	161205fd 	bne	s0,s2,bfc041c8 <inst_error>
bfc029d4:	00000000 	nop
bfc029d8:	00008010 	mfhi	s0
bfc029dc:	3c12f315 	lui	s2,0xf315
bfc029e0:	36521a6c 	ori	s2,s2,0x1a6c
bfc029e4:	161205f8 	bne	s0,s2,bfc041c8 <inst_error>
bfc029e8:	00000000 	nop
bfc029ec:	3c085044 	lui	t0,0x5044
bfc029f0:	35085224 	ori	t0,t0,0x5224
bfc029f4:	3c09b34e 	lui	t1,0xb34e
bfc029f8:	35298c5c 	ori	t1,t1,0x8c5c
bfc029fc:	01090018 	mult	t0,t1
bfc02a00:	00008012 	mflo	s0
bfc02a04:	3c126871 	lui	s2,0x6871
bfc02a08:	365234f0 	ori	s2,s2,0x34f0
bfc02a0c:	161205ee 	bne	s0,s2,bfc041c8 <inst_error>
bfc02a10:	00000000 	nop
bfc02a14:	00008010 	mfhi	s0
bfc02a18:	3c12e7f4 	lui	s2,0xe7f4
bfc02a1c:	3652141e 	ori	s2,s2,0x141e
bfc02a20:	161205e9 	bne	s0,s2,bfc041c8 <inst_error>
bfc02a24:	00000000 	nop
bfc02a28:	3c08436d 	lui	t0,0x436d
bfc02a2c:	350875a7 	ori	t0,t0,0x75a7
bfc02a30:	3c092cb9 	lui	t1,0x2cb9
bfc02a34:	3529b728 	ori	t1,t1,0xb728
bfc02a38:	01090018 	mult	t0,t1
bfc02a3c:	00008012 	mflo	s0
bfc02a40:	3c1281e3 	lui	s2,0x81e3
bfc02a44:	3652c318 	ori	s2,s2,0xc318
bfc02a48:	161205df 	bne	s0,s2,bfc041c8 <inst_error>
bfc02a4c:	00000000 	nop
bfc02a50:	00008010 	mfhi	s0
bfc02a54:	3c120bc7 	lui	s2,0xbc7
bfc02a58:	3652ba90 	ori	s2,s2,0xba90
bfc02a5c:	161205da 	bne	s0,s2,bfc041c8 <inst_error>
bfc02a60:	00000000 	nop
bfc02a64:	3c08db90 	lui	t0,0xdb90
bfc02a68:	35086f30 	ori	t0,t0,0x6f30
bfc02a6c:	3c090eaf 	lui	t1,0xeaf
bfc02a70:	3529a7d0 	ori	t1,t1,0xa7d0
bfc02a74:	01090018 	mult	t0,t1
bfc02a78:	00008012 	mflo	s0
bfc02a7c:	3c123fb2 	lui	s2,0x3fb2
bfc02a80:	3652a700 	ori	s2,s2,0xa700
bfc02a84:	161205d0 	bne	s0,s2,bfc041c8 <inst_error>
bfc02a88:	00000000 	nop
bfc02a8c:	00008010 	mfhi	s0
bfc02a90:	3c12fde8 	lui	s2,0xfde8
bfc02a94:	3652e5ee 	ori	s2,s2,0xe5ee
bfc02a98:	161205cb 	bne	s0,s2,bfc041c8 <inst_error>
bfc02a9c:	00000000 	nop
bfc02aa0:	3c085aa5 	lui	t0,0x5aa5
bfc02aa4:	3508b57e 	ori	t0,t0,0xb57e
bfc02aa8:	3c09eb13 	lui	t1,0xeb13
bfc02aac:	35298c80 	ori	t1,t1,0x8c80
bfc02ab0:	01090018 	mult	t0,t1
bfc02ab4:	00008012 	mflo	s0
bfc02ab8:	3c121475 	lui	s2,0x1475
bfc02abc:	3652a700 	ori	s2,s2,0xa700
bfc02ac0:	161205c1 	bne	s0,s2,bfc041c8 <inst_error>
bfc02ac4:	00000000 	nop
bfc02ac8:	00008010 	mfhi	s0
bfc02acc:	3c12f897 	lui	s2,0xf897
bfc02ad0:	36525429 	ori	s2,s2,0x5429
bfc02ad4:	161205bc 	bne	s0,s2,bfc041c8 <inst_error>
bfc02ad8:	00000000 	nop
bfc02adc:	3c08bc61 	lui	t0,0xbc61
bfc02ae0:	3508fc9c 	ori	t0,t0,0xfc9c
bfc02ae4:	3c092c0b 	lui	t1,0x2c0b
bfc02ae8:	35290f78 	ori	t1,t1,0xf78
bfc02aec:	01090018 	mult	t0,t1
bfc02af0:	00008012 	mflo	s0
bfc02af4:	3c12b66f 	lui	s2,0xb66f
bfc02af8:	36528d20 	ori	s2,s2,0x8d20
bfc02afc:	161205b2 	bne	s0,s2,bfc041c8 <inst_error>
bfc02b00:	00000000 	nop
bfc02b04:	00008010 	mfhi	s0
bfc02b08:	3c12f45d 	lui	s2,0xf45d
bfc02b0c:	3652eb8a 	ori	s2,s2,0xeb8a
bfc02b10:	161205ad 	bne	s0,s2,bfc041c8 <inst_error>
bfc02b14:	00000000 	nop
bfc02b18:	3c088b35 	lui	t0,0x8b35
bfc02b1c:	350866b7 	ori	t0,t0,0x66b7
bfc02b20:	3c092b02 	lui	t1,0x2b02
bfc02b24:	35291ecc 	ori	t1,t1,0x1ecc
bfc02b28:	01090018 	mult	t0,t1
bfc02b2c:	00008012 	mflo	s0
bfc02b30:	3c12bb05 	lui	s2,0xbb05
bfc02b34:	36524bd4 	ori	s2,s2,0x4bd4
bfc02b38:	161205a3 	bne	s0,s2,bfc041c8 <inst_error>
bfc02b3c:	00000000 	nop
bfc02b40:	00008010 	mfhi	s0
bfc02b44:	3c12ec61 	lui	s2,0xec61
bfc02b48:	3652009e 	ori	s2,s2,0x9e
bfc02b4c:	1612059e 	bne	s0,s2,bfc041c8 <inst_error>
bfc02b50:	00000000 	nop
bfc02b54:	3c08666e 	lui	t0,0x666e
bfc02b58:	350854e8 	ori	t0,t0,0x54e8
bfc02b5c:	3c09ed91 	lui	t1,0xed91
bfc02b60:	3529452c 	ori	t1,t1,0x452c
bfc02b64:	01090018 	mult	t0,t1
bfc02b68:	00008012 	mflo	s0
bfc02b6c:	3c123741 	lui	s2,0x3741
bfc02b70:	36521fe0 	ori	s2,s2,0x1fe0
bfc02b74:	16120594 	bne	s0,s2,bfc041c8 <inst_error>
bfc02b78:	00000000 	nop
bfc02b7c:	00008010 	mfhi	s0
bfc02b80:	3c12f89f 	lui	s2,0xf89f
bfc02b84:	3652efde 	ori	s2,s2,0xefde
bfc02b88:	1612058f 	bne	s0,s2,bfc041c8 <inst_error>
bfc02b8c:	00000000 	nop
bfc02b90:	3c08c6e5 	lui	t0,0xc6e5
bfc02b94:	35089380 	ori	t0,t0,0x9380
bfc02b98:	3c09fa93 	lui	t1,0xfa93
bfc02b9c:	35295180 	ori	t1,t1,0x5180
bfc02ba0:	01090018 	mult	t0,t1
bfc02ba4:	00008012 	mflo	s0
bfc02ba8:	3c12c8f5 	lui	s2,0xc8f5
bfc02bac:	36524000 	ori	s2,s2,0x4000
bfc02bb0:	16120585 	bne	s0,s2,bfc041c8 <inst_error>
bfc02bb4:	00000000 	nop
bfc02bb8:	00008010 	mfhi	s0
bfc02bbc:	3c120135 	lui	s2,0x135
bfc02bc0:	3652c230 	ori	s2,s2,0xc230
bfc02bc4:	16120580 	bne	s0,s2,bfc041c8 <inst_error>
bfc02bc8:	00000000 	nop
bfc02bcc:	3c08d921 	lui	t0,0xd921
bfc02bd0:	3508e0b0 	ori	t0,t0,0xe0b0
bfc02bd4:	3c091f7d 	lui	t1,0x1f7d
bfc02bd8:	352965c0 	ori	t1,t1,0x65c0
bfc02bdc:	01090018 	mult	t0,t1
bfc02be0:	00008012 	mflo	s0
bfc02be4:	3c123cfd 	lui	s2,0x3cfd
bfc02be8:	3652f400 	ori	s2,s2,0xf400
bfc02bec:	16120576 	bne	s0,s2,bfc041c8 <inst_error>
bfc02bf0:	00000000 	nop
bfc02bf4:	00008010 	mfhi	s0
bfc02bf8:	3c12fb38 	lui	s2,0xfb38
bfc02bfc:	3652104d 	ori	s2,s2,0x104d
bfc02c00:	16120571 	bne	s0,s2,bfc041c8 <inst_error>
bfc02c04:	00000000 	nop
bfc02c08:	3c087b8d 	lui	t0,0x7b8d
bfc02c0c:	3508b2e2 	ori	t0,t0,0xb2e2
bfc02c10:	3c0984d3 	lui	t1,0x84d3
bfc02c14:	35297b50 	ori	t1,t1,0x7b50
bfc02c18:	01090018 	mult	t0,t1
bfc02c1c:	00008012 	mflo	s0
bfc02c20:	3c12a980 	lui	s2,0xa980
bfc02c24:	36527ca0 	ori	s2,s2,0x7ca0
bfc02c28:	16120567 	bne	s0,s2,bfc041c8 <inst_error>
bfc02c2c:	00000000 	nop
bfc02c30:	00008010 	mfhi	s0
bfc02c34:	3c12c48d 	lui	s2,0xc48d
bfc02c38:	36526ea8 	ori	s2,s2,0x6ea8
bfc02c3c:	16120562 	bne	s0,s2,bfc041c8 <inst_error>
bfc02c40:	00000000 	nop
bfc02c44:	3c08f89e 	lui	t0,0xf89e
bfc02c48:	35081b58 	ori	t0,t0,0x1b58
bfc02c4c:	3c0926be 	lui	t1,0x26be
bfc02c50:	352932a0 	ori	t1,t1,0x32a0
bfc02c54:	01090018 	mult	t0,t1
bfc02c58:	00008012 	mflo	s0
bfc02c5c:	3c129f78 	lui	s2,0x9f78
bfc02c60:	36524700 	ori	s2,s2,0x4700
bfc02c64:	16120558 	bne	s0,s2,bfc041c8 <inst_error>
bfc02c68:	00000000 	nop
bfc02c6c:	00008010 	mfhi	s0
bfc02c70:	3c12fee1 	lui	s2,0xfee1
bfc02c74:	3652fbf1 	ori	s2,s2,0xfbf1
bfc02c78:	16120553 	bne	s0,s2,bfc041c8 <inst_error>
bfc02c7c:	00000000 	nop
bfc02c80:	3c08524a 	lui	t0,0x524a
bfc02c84:	3508a0a6 	ori	t0,t0,0xa0a6
bfc02c88:	3c090b33 	lui	t1,0xb33
bfc02c8c:	35294594 	ori	t1,t1,0x4594
bfc02c90:	01090018 	mult	t0,t1
bfc02c94:	00008012 	mflo	s0
bfc02c98:	3c12d383 	lui	s2,0xd383
bfc02c9c:	36529df8 	ori	s2,s2,0x9df8
bfc02ca0:	16120549 	bne	s0,s2,bfc041c8 <inst_error>
bfc02ca4:	00000000 	nop
bfc02ca8:	00008010 	mfhi	s0
bfc02cac:	3c120399 	lui	s2,0x399
bfc02cb0:	3652b022 	ori	s2,s2,0xb022
bfc02cb4:	16120544 	bne	s0,s2,bfc041c8 <inst_error>
bfc02cb8:	00000000 	nop
bfc02cbc:	3c08a3be 	lui	t0,0xa3be
bfc02cc0:	350810e8 	ori	t0,t0,0x10e8
bfc02cc4:	3c0918db 	lui	t1,0x18db
bfc02cc8:	3529c860 	ori	t1,t1,0xc860
bfc02ccc:	01090018 	mult	t0,t1
bfc02cd0:	00008012 	mflo	s0
bfc02cd4:	3c121af3 	lui	s2,0x1af3
bfc02cd8:	36529700 	ori	s2,s2,0x9700
bfc02cdc:	1612053a 	bne	s0,s2,bfc041c8 <inst_error>
bfc02ce0:	00000000 	nop
bfc02ce4:	00008010 	mfhi	s0
bfc02ce8:	3c12f70a 	lui	s2,0xf70a
bfc02cec:	36529cf8 	ori	s2,s2,0x9cf8
bfc02cf0:	16120535 	bne	s0,s2,bfc041c8 <inst_error>
bfc02cf4:	00000000 	nop
bfc02cf8:	3c08073c 	lui	t0,0x73c
bfc02cfc:	3508f5be 	ori	t0,t0,0xf5be
bfc02d00:	3c094fbf 	lui	t1,0x4fbf
bfc02d04:	35294882 	ori	t1,t1,0x4882
bfc02d08:	01090018 	mult	t0,t1
bfc02d0c:	00008012 	mflo	s0
bfc02d10:	3c12ccd4 	lui	s2,0xccd4
bfc02d14:	36523a7c 	ori	s2,s2,0x3a7c
bfc02d18:	1612052b 	bne	s0,s2,bfc041c8 <inst_error>
bfc02d1c:	00000000 	nop
bfc02d20:	00008010 	mfhi	s0
bfc02d24:	3c120241 	lui	s2,0x241
bfc02d28:	3652385d 	ori	s2,s2,0x385d
bfc02d2c:	16120526 	bne	s0,s2,bfc041c8 <inst_error>
bfc02d30:	00000000 	nop
bfc02d34:	3c0891db 	lui	t0,0x91db
bfc02d38:	35087100 	ori	t0,t0,0x7100
bfc02d3c:	3c091f78 	lui	t1,0x1f78
bfc02d40:	3529ebb0 	ori	t1,t1,0xebb0
bfc02d44:	01090018 	mult	t0,t1
bfc02d48:	00008012 	mflo	s0
bfc02d4c:	3c12af98 	lui	s2,0xaf98
bfc02d50:	3652b000 	ori	s2,s2,0xb000
bfc02d54:	1612051c 	bne	s0,s2,bfc041c8 <inst_error>
bfc02d58:	00000000 	nop
bfc02d5c:	00008010 	mfhi	s0
bfc02d60:	3c12f275 	lui	s2,0xf275
bfc02d64:	36528c24 	ori	s2,s2,0x8c24
bfc02d68:	16120517 	bne	s0,s2,bfc041c8 <inst_error>
bfc02d6c:	00000000 	nop
bfc02d70:	3c08c49e 	lui	t0,0xc49e
bfc02d74:	350836d8 	ori	t0,t0,0x36d8
bfc02d78:	3c092044 	lui	t1,0x2044
bfc02d7c:	3529fa90 	ori	t1,t1,0xfa90
bfc02d80:	01090018 	mult	t0,t1
bfc02d84:	00008012 	mflo	s0
bfc02d88:	3c12abed 	lui	s2,0xabed
bfc02d8c:	3652c980 	ori	s2,s2,0xc980
bfc02d90:	1612050d 	bne	s0,s2,bfc041c8 <inst_error>
bfc02d94:	00000000 	nop
bfc02d98:	00008010 	mfhi	s0
bfc02d9c:	3c12f883 	lui	s2,0xf883
bfc02da0:	3652c6c2 	ori	s2,s2,0xc6c2
bfc02da4:	16120508 	bne	s0,s2,bfc041c8 <inst_error>
bfc02da8:	00000000 	nop
bfc02dac:	3c08af4a 	lui	t0,0xaf4a
bfc02db0:	3508b2b8 	ori	t0,t0,0xb2b8
bfc02db4:	3c09f008 	lui	t1,0xf008
bfc02db8:	35296f40 	ori	t1,t1,0x6f40
bfc02dbc:	01090018 	mult	t0,t1
bfc02dc0:	00008012 	mflo	s0
bfc02dc4:	3c124bea 	lui	s2,0x4bea
bfc02dc8:	36527600 	ori	s2,s2,0x7600
bfc02dcc:	161204fe 	bne	s0,s2,bfc041c8 <inst_error>
bfc02dd0:	00000000 	nop
bfc02dd4:	00008010 	mfhi	s0
bfc02dd8:	3c120508 	lui	s2,0x508
bfc02ddc:	3652ac17 	ori	s2,s2,0xac17
bfc02de0:	161204f9 	bne	s0,s2,bfc041c8 <inst_error>
bfc02de4:	00000000 	nop
bfc02de8:	3c08c72f 	lui	t0,0xc72f
bfc02dec:	35080de2 	ori	t0,t0,0xde2
bfc02df0:	3c09407a 	lui	t1,0x407a
bfc02df4:	352926e0 	ori	t1,t1,0x26e0
bfc02df8:	01090018 	mult	t0,t1
bfc02dfc:	00008012 	mflo	s0
bfc02e00:	3c1262ef 	lui	s2,0x62ef
bfc02e04:	3652b1c0 	ori	s2,s2,0xb1c0
bfc02e08:	161204ef 	bne	s0,s2,bfc041c8 <inst_error>
bfc02e0c:	00000000 	nop
bfc02e10:	00008010 	mfhi	s0
bfc02e14:	3c12f1b0 	lui	s2,0xf1b0
bfc02e18:	3652a744 	ori	s2,s2,0xa744
bfc02e1c:	161204ea 	bne	s0,s2,bfc041c8 <inst_error>
bfc02e20:	00000000 	nop
bfc02e24:	3c0895d2 	lui	t0,0x95d2
bfc02e28:	35086876 	ori	t0,t0,0x6876
bfc02e2c:	3c099aae 	lui	t1,0x9aae
bfc02e30:	3529ce1c 	ori	t1,t1,0xce1c
bfc02e34:	01090018 	mult	t0,t1
bfc02e38:	00008012 	mflo	s0
bfc02e3c:	3c12af46 	lui	s2,0xaf46
bfc02e40:	365260e8 	ori	s2,s2,0x60e8
bfc02e44:	161204e0 	bne	s0,s2,bfc041c8 <inst_error>
bfc02e48:	00000000 	nop
bfc02e4c:	00008010 	mfhi	s0
bfc02e50:	3c122a05 	lui	s2,0x2a05
bfc02e54:	3652a9e7 	ori	s2,s2,0xa9e7
bfc02e58:	161204db 	bne	s0,s2,bfc041c8 <inst_error>
bfc02e5c:	00000000 	nop
bfc02e60:	3c0872e2 	lui	t0,0x72e2
bfc02e64:	3508ec10 	ori	t0,t0,0xec10
bfc02e68:	3c09b909 	lui	t1,0xb909
bfc02e6c:	35298e00 	ori	t1,t1,0x8e00
bfc02e70:	01090018 	mult	t0,t1
bfc02e74:	00008012 	mflo	s0
bfc02e78:	3c12bb80 	lui	s2,0xbb80
bfc02e7c:	3652e000 	ori	s2,s2,0xe000
bfc02e80:	161204d1 	bne	s0,s2,bfc041c8 <inst_error>
bfc02e84:	00000000 	nop
bfc02e88:	00008010 	mfhi	s0
bfc02e8c:	3c12e027 	lui	s2,0xe027
bfc02e90:	36525a3b 	ori	s2,s2,0x5a3b
bfc02e94:	161204cc 	bne	s0,s2,bfc041c8 <inst_error>
bfc02e98:	00000000 	nop
bfc02e9c:	3c08deb2 	lui	t0,0xdeb2
bfc02ea0:	35087a9c 	ori	t0,t0,0x7a9c
bfc02ea4:	3c09506c 	lui	t1,0x506c
bfc02ea8:	35290849 	ori	t1,t1,0x849
bfc02eac:	01090018 	mult	t0,t1
bfc02eb0:	00008012 	mflo	s0
bfc02eb4:	3c128e89 	lui	s2,0x8e89
bfc02eb8:	3652d67c 	ori	s2,s2,0xd67c
bfc02ebc:	161204c2 	bne	s0,s2,bfc041c8 <inst_error>
bfc02ec0:	00000000 	nop
bfc02ec4:	00008010 	mfhi	s0
bfc02ec8:	3c12f589 	lui	s2,0xf589
bfc02ecc:	3652b888 	ori	s2,s2,0xb888
bfc02ed0:	161204bd 	bne	s0,s2,bfc041c8 <inst_error>
bfc02ed4:	00000000 	nop
bfc02ed8:	3c085301 	lui	t0,0x5301
bfc02edc:	350894f0 	ori	t0,t0,0x94f0
bfc02ee0:	24090000 	li	t1,0
bfc02ee4:	01090018 	mult	t0,t1
bfc02ee8:	00008012 	mflo	s0
bfc02eec:	24120000 	li	s2,0
bfc02ef0:	161204b5 	bne	s0,s2,bfc041c8 <inst_error>
bfc02ef4:	00000000 	nop
bfc02ef8:	00008010 	mfhi	s0
bfc02efc:	24120000 	li	s2,0
bfc02f00:	161204b1 	bne	s0,s2,bfc041c8 <inst_error>
bfc02f04:	00000000 	nop
bfc02f08:	3c085a1a 	lui	t0,0x5a1a
bfc02f0c:	35084f60 	ori	t0,t0,0x4f60
bfc02f10:	24090000 	li	t1,0
bfc02f14:	01090018 	mult	t0,t1
bfc02f18:	00008012 	mflo	s0
bfc02f1c:	24120000 	li	s2,0
bfc02f20:	161204a9 	bne	s0,s2,bfc041c8 <inst_error>
bfc02f24:	00000000 	nop
bfc02f28:	00008010 	mfhi	s0
bfc02f2c:	24120000 	li	s2,0
bfc02f30:	161204a5 	bne	s0,s2,bfc041c8 <inst_error>
bfc02f34:	00000000 	nop
bfc02f38:	3c085cc4 	lui	t0,0x5cc4
bfc02f3c:	3508e136 	ori	t0,t0,0xe136
bfc02f40:	24090000 	li	t1,0
bfc02f44:	01090018 	mult	t0,t1
bfc02f48:	00008012 	mflo	s0
bfc02f4c:	24120000 	li	s2,0
bfc02f50:	1612049d 	bne	s0,s2,bfc041c8 <inst_error>
bfc02f54:	00000000 	nop
bfc02f58:	00008010 	mfhi	s0
bfc02f5c:	24120000 	li	s2,0
bfc02f60:	16120499 	bne	s0,s2,bfc041c8 <inst_error>
bfc02f64:	00000000 	nop
bfc02f68:	3c08ab7a 	lui	t0,0xab7a
bfc02f6c:	350814c0 	ori	t0,t0,0x14c0
bfc02f70:	24090000 	li	t1,0
bfc02f74:	01090018 	mult	t0,t1
bfc02f78:	00008012 	mflo	s0
bfc02f7c:	24120000 	li	s2,0
bfc02f80:	16120491 	bne	s0,s2,bfc041c8 <inst_error>
bfc02f84:	00000000 	nop
bfc02f88:	00008010 	mfhi	s0
bfc02f8c:	24120000 	li	s2,0
bfc02f90:	1612048d 	bne	s0,s2,bfc041c8 <inst_error>
bfc02f94:	00000000 	nop
bfc02f98:	3c080fc8 	lui	t0,0xfc8
bfc02f9c:	3508b34c 	ori	t0,t0,0xb34c
bfc02fa0:	24090000 	li	t1,0
bfc02fa4:	01090018 	mult	t0,t1
bfc02fa8:	00008012 	mflo	s0
bfc02fac:	24120000 	li	s2,0
bfc02fb0:	16120485 	bne	s0,s2,bfc041c8 <inst_error>
bfc02fb4:	00000000 	nop
bfc02fb8:	00008010 	mfhi	s0
bfc02fbc:	24120000 	li	s2,0
bfc02fc0:	16120481 	bne	s0,s2,bfc041c8 <inst_error>
bfc02fc4:	00000000 	nop
bfc02fc8:	3c08819e 	lui	t0,0x819e
bfc02fcc:	3508b598 	ori	t0,t0,0xb598
bfc02fd0:	24090000 	li	t1,0
bfc02fd4:	01090018 	mult	t0,t1
bfc02fd8:	00008012 	mflo	s0
bfc02fdc:	24120000 	li	s2,0
bfc02fe0:	16120479 	bne	s0,s2,bfc041c8 <inst_error>
bfc02fe4:	00000000 	nop
bfc02fe8:	00008010 	mfhi	s0
bfc02fec:	24120000 	li	s2,0
bfc02ff0:	16120475 	bne	s0,s2,bfc041c8 <inst_error>
bfc02ff4:	00000000 	nop
bfc02ff8:	3c086d6a 	lui	t0,0x6d6a
bfc02ffc:	35081910 	ori	t0,t0,0x1910
bfc03000:	24090000 	li	t1,0
bfc03004:	01090018 	mult	t0,t1
bfc03008:	00008012 	mflo	s0
bfc0300c:	24120000 	li	s2,0
bfc03010:	1612046d 	bne	s0,s2,bfc041c8 <inst_error>
bfc03014:	00000000 	nop
bfc03018:	00008010 	mfhi	s0
bfc0301c:	24120000 	li	s2,0
bfc03020:	16120469 	bne	s0,s2,bfc041c8 <inst_error>
bfc03024:	00000000 	nop
bfc03028:	3c0842e1 	lui	t0,0x42e1
bfc0302c:	3508c160 	ori	t0,t0,0xc160
bfc03030:	24090000 	li	t1,0
bfc03034:	01090018 	mult	t0,t1
bfc03038:	00008012 	mflo	s0
bfc0303c:	24120000 	li	s2,0
bfc03040:	16120461 	bne	s0,s2,bfc041c8 <inst_error>
bfc03044:	00000000 	nop
bfc03048:	00008010 	mfhi	s0
bfc0304c:	24120000 	li	s2,0
bfc03050:	1612045d 	bne	s0,s2,bfc041c8 <inst_error>
bfc03054:	00000000 	nop
bfc03058:	3c087a16 	lui	t0,0x7a16
bfc0305c:	350803c0 	ori	t0,t0,0x3c0
bfc03060:	24090000 	li	t1,0
bfc03064:	01090018 	mult	t0,t1
bfc03068:	00008012 	mflo	s0
bfc0306c:	24120000 	li	s2,0
bfc03070:	16120455 	bne	s0,s2,bfc041c8 <inst_error>
bfc03074:	00000000 	nop
bfc03078:	00008010 	mfhi	s0
bfc0307c:	24120000 	li	s2,0
bfc03080:	16120451 	bne	s0,s2,bfc041c8 <inst_error>
bfc03084:	00000000 	nop
bfc03088:	3c08a61e 	lui	t0,0xa61e
bfc0308c:	350825e8 	ori	t0,t0,0x25e8
bfc03090:	24090000 	li	t1,0
bfc03094:	01090018 	mult	t0,t1
bfc03098:	00008012 	mflo	s0
bfc0309c:	24120000 	li	s2,0
bfc030a0:	16120449 	bne	s0,s2,bfc041c8 <inst_error>
bfc030a4:	00000000 	nop
bfc030a8:	00008010 	mfhi	s0
bfc030ac:	24120000 	li	s2,0
bfc030b0:	16120445 	bne	s0,s2,bfc041c8 <inst_error>
bfc030b4:	00000000 	nop
bfc030b8:	3c0844d1 	lui	t0,0x44d1
bfc030bc:	350826d0 	ori	t0,t0,0x26d0
bfc030c0:	24090000 	li	t1,0
bfc030c4:	01090018 	mult	t0,t1
bfc030c8:	00008012 	mflo	s0
bfc030cc:	24120000 	li	s2,0
bfc030d0:	1612043d 	bne	s0,s2,bfc041c8 <inst_error>
bfc030d4:	00000000 	nop
bfc030d8:	00008010 	mfhi	s0
bfc030dc:	24120000 	li	s2,0
bfc030e0:	16120439 	bne	s0,s2,bfc041c8 <inst_error>
bfc030e4:	00000000 	nop
bfc030e8:	3c080f11 	lui	t0,0xf11
bfc030ec:	35084ff0 	ori	t0,t0,0x4ff0
bfc030f0:	24090000 	li	t1,0
bfc030f4:	01090018 	mult	t0,t1
bfc030f8:	00008012 	mflo	s0
bfc030fc:	24120000 	li	s2,0
bfc03100:	16120431 	bne	s0,s2,bfc041c8 <inst_error>
bfc03104:	00000000 	nop
bfc03108:	00008010 	mfhi	s0
bfc0310c:	24120000 	li	s2,0
bfc03110:	1612042d 	bne	s0,s2,bfc041c8 <inst_error>
bfc03114:	00000000 	nop
bfc03118:	3c0860bf 	lui	t0,0x60bf
bfc0311c:	3508e48e 	ori	t0,t0,0xe48e
bfc03120:	24090000 	li	t1,0
bfc03124:	01090018 	mult	t0,t1
bfc03128:	00008012 	mflo	s0
bfc0312c:	24120000 	li	s2,0
bfc03130:	16120425 	bne	s0,s2,bfc041c8 <inst_error>
bfc03134:	00000000 	nop
bfc03138:	00008010 	mfhi	s0
bfc0313c:	24120000 	li	s2,0
bfc03140:	16120421 	bne	s0,s2,bfc041c8 <inst_error>
bfc03144:	00000000 	nop
bfc03148:	3c08102c 	lui	t0,0x102c
bfc0314c:	3508eba0 	ori	t0,t0,0xeba0
bfc03150:	24090000 	li	t1,0
bfc03154:	01090018 	mult	t0,t1
bfc03158:	00008012 	mflo	s0
bfc0315c:	24120000 	li	s2,0
bfc03160:	16120419 	bne	s0,s2,bfc041c8 <inst_error>
bfc03164:	00000000 	nop
bfc03168:	00008010 	mfhi	s0
bfc0316c:	24120000 	li	s2,0
bfc03170:	16120415 	bne	s0,s2,bfc041c8 <inst_error>
bfc03174:	00000000 	nop
bfc03178:	3c087b21 	lui	t0,0x7b21
bfc0317c:	3508e54d 	ori	t0,t0,0xe54d
bfc03180:	24090000 	li	t1,0
bfc03184:	01090018 	mult	t0,t1
bfc03188:	00008012 	mflo	s0
bfc0318c:	24120000 	li	s2,0
bfc03190:	1612040d 	bne	s0,s2,bfc041c8 <inst_error>
bfc03194:	00000000 	nop
bfc03198:	00008010 	mfhi	s0
bfc0319c:	24120000 	li	s2,0
bfc031a0:	16120409 	bne	s0,s2,bfc041c8 <inst_error>
bfc031a4:	00000000 	nop
bfc031a8:	3c085d72 	lui	t0,0x5d72
bfc031ac:	3508f954 	ori	t0,t0,0xf954
bfc031b0:	24090000 	li	t1,0
bfc031b4:	01090018 	mult	t0,t1
bfc031b8:	00008012 	mflo	s0
bfc031bc:	24120000 	li	s2,0
bfc031c0:	16120401 	bne	s0,s2,bfc041c8 <inst_error>
bfc031c4:	00000000 	nop
bfc031c8:	00008010 	mfhi	s0
bfc031cc:	24120000 	li	s2,0
bfc031d0:	161203fd 	bne	s0,s2,bfc041c8 <inst_error>
bfc031d4:	00000000 	nop
bfc031d8:	3c082699 	lui	t0,0x2699
bfc031dc:	3508b2d4 	ori	t0,t0,0xb2d4
bfc031e0:	24090000 	li	t1,0
bfc031e4:	01090018 	mult	t0,t1
bfc031e8:	00008012 	mflo	s0
bfc031ec:	24120000 	li	s2,0
bfc031f0:	161203f5 	bne	s0,s2,bfc041c8 <inst_error>
bfc031f4:	00000000 	nop
bfc031f8:	00008010 	mfhi	s0
bfc031fc:	24120000 	li	s2,0
bfc03200:	161203f1 	bne	s0,s2,bfc041c8 <inst_error>
bfc03204:	00000000 	nop
bfc03208:	3c0866b6 	lui	t0,0x66b6
bfc0320c:	3508dc30 	ori	t0,t0,0xdc30
bfc03210:	24090000 	li	t1,0
bfc03214:	01090018 	mult	t0,t1
bfc03218:	00008012 	mflo	s0
bfc0321c:	24120000 	li	s2,0
bfc03220:	161203e9 	bne	s0,s2,bfc041c8 <inst_error>
bfc03224:	00000000 	nop
bfc03228:	00008010 	mfhi	s0
bfc0322c:	24120000 	li	s2,0
bfc03230:	161203e5 	bne	s0,s2,bfc041c8 <inst_error>
bfc03234:	00000000 	nop
bfc03238:	3c08c241 	lui	t0,0xc241
bfc0323c:	3508bf01 	ori	t0,t0,0xbf01
bfc03240:	24090000 	li	t1,0
bfc03244:	01090018 	mult	t0,t1
bfc03248:	00008012 	mflo	s0
bfc0324c:	24120000 	li	s2,0
bfc03250:	161203dd 	bne	s0,s2,bfc041c8 <inst_error>
bfc03254:	00000000 	nop
bfc03258:	00008010 	mfhi	s0
bfc0325c:	24120000 	li	s2,0
bfc03260:	161203d9 	bne	s0,s2,bfc041c8 <inst_error>
bfc03264:	00000000 	nop
bfc03268:	3c086156 	lui	t0,0x6156
bfc0326c:	35082c3a 	ori	t0,t0,0x2c3a
bfc03270:	24090000 	li	t1,0
bfc03274:	01090018 	mult	t0,t1
bfc03278:	00008012 	mflo	s0
bfc0327c:	24120000 	li	s2,0
bfc03280:	161203d1 	bne	s0,s2,bfc041c8 <inst_error>
bfc03284:	00000000 	nop
bfc03288:	00008010 	mfhi	s0
bfc0328c:	24120000 	li	s2,0
bfc03290:	161203cd 	bne	s0,s2,bfc041c8 <inst_error>
bfc03294:	00000000 	nop
bfc03298:	3c08a15b 	lui	t0,0xa15b
bfc0329c:	3508aa2a 	ori	t0,t0,0xaa2a
bfc032a0:	24090000 	li	t1,0
bfc032a4:	01090018 	mult	t0,t1
bfc032a8:	00008012 	mflo	s0
bfc032ac:	24120000 	li	s2,0
bfc032b0:	161203c5 	bne	s0,s2,bfc041c8 <inst_error>
bfc032b4:	00000000 	nop
bfc032b8:	00008010 	mfhi	s0
bfc032bc:	24120000 	li	s2,0
bfc032c0:	161203c1 	bne	s0,s2,bfc041c8 <inst_error>
bfc032c4:	00000000 	nop
bfc032c8:	3c08ba01 	lui	t0,0xba01
bfc032cc:	3508a800 	ori	t0,t0,0xa800
bfc032d0:	24090000 	li	t1,0
bfc032d4:	01090018 	mult	t0,t1
bfc032d8:	00008012 	mflo	s0
bfc032dc:	24120000 	li	s2,0
bfc032e0:	161203b9 	bne	s0,s2,bfc041c8 <inst_error>
bfc032e4:	00000000 	nop
bfc032e8:	00008010 	mfhi	s0
bfc032ec:	24120000 	li	s2,0
bfc032f0:	161203b5 	bne	s0,s2,bfc041c8 <inst_error>
bfc032f4:	00000000 	nop
bfc032f8:	3c08072a 	lui	t0,0x72a
bfc032fc:	3508a470 	ori	t0,t0,0xa470
bfc03300:	24090000 	li	t1,0
bfc03304:	01090018 	mult	t0,t1
bfc03308:	00008012 	mflo	s0
bfc0330c:	24120000 	li	s2,0
bfc03310:	161203ad 	bne	s0,s2,bfc041c8 <inst_error>
bfc03314:	00000000 	nop
bfc03318:	00008010 	mfhi	s0
bfc0331c:	24120000 	li	s2,0
bfc03320:	161203a9 	bne	s0,s2,bfc041c8 <inst_error>
bfc03324:	00000000 	nop
bfc03328:	3c084dc3 	lui	t0,0x4dc3
bfc0332c:	350825d6 	ori	t0,t0,0x25d6
bfc03330:	24090000 	li	t1,0
bfc03334:	01090018 	mult	t0,t1
bfc03338:	00008012 	mflo	s0
bfc0333c:	24120000 	li	s2,0
bfc03340:	161203a1 	bne	s0,s2,bfc041c8 <inst_error>
bfc03344:	00000000 	nop
bfc03348:	00008010 	mfhi	s0
bfc0334c:	24120000 	li	s2,0
bfc03350:	1612039d 	bne	s0,s2,bfc041c8 <inst_error>
bfc03354:	00000000 	nop
bfc03358:	3c086182 	lui	t0,0x6182
bfc0335c:	3508af40 	ori	t0,t0,0xaf40
bfc03360:	24090000 	li	t1,0
bfc03364:	01090018 	mult	t0,t1
bfc03368:	00008012 	mflo	s0
bfc0336c:	24120000 	li	s2,0
bfc03370:	16120395 	bne	s0,s2,bfc041c8 <inst_error>
bfc03374:	00000000 	nop
bfc03378:	00008010 	mfhi	s0
bfc0337c:	24120000 	li	s2,0
bfc03380:	16120391 	bne	s0,s2,bfc041c8 <inst_error>
bfc03384:	00000000 	nop
bfc03388:	3c084ee7 	lui	t0,0x4ee7
bfc0338c:	3508b668 	ori	t0,t0,0xb668
bfc03390:	24090000 	li	t1,0
bfc03394:	01090018 	mult	t0,t1
bfc03398:	00008012 	mflo	s0
bfc0339c:	24120000 	li	s2,0
bfc033a0:	16120389 	bne	s0,s2,bfc041c8 <inst_error>
bfc033a4:	00000000 	nop
bfc033a8:	00008010 	mfhi	s0
bfc033ac:	24120000 	li	s2,0
bfc033b0:	16120385 	bne	s0,s2,bfc041c8 <inst_error>
bfc033b4:	00000000 	nop
bfc033b8:	3c081bae 	lui	t0,0x1bae
bfc033bc:	35083862 	ori	t0,t0,0x3862
bfc033c0:	24090000 	li	t1,0
bfc033c4:	01090018 	mult	t0,t1
bfc033c8:	00008012 	mflo	s0
bfc033cc:	24120000 	li	s2,0
bfc033d0:	1612037d 	bne	s0,s2,bfc041c8 <inst_error>
bfc033d4:	00000000 	nop
bfc033d8:	00008010 	mfhi	s0
bfc033dc:	24120000 	li	s2,0
bfc033e0:	16120379 	bne	s0,s2,bfc041c8 <inst_error>
bfc033e4:	00000000 	nop
bfc033e8:	3c0834d0 	lui	t0,0x34d0
bfc033ec:	35087e62 	ori	t0,t0,0x7e62
bfc033f0:	24090000 	li	t1,0
bfc033f4:	01090018 	mult	t0,t1
bfc033f8:	00008012 	mflo	s0
bfc033fc:	24120000 	li	s2,0
bfc03400:	16120371 	bne	s0,s2,bfc041c8 <inst_error>
bfc03404:	00000000 	nop
bfc03408:	00008010 	mfhi	s0
bfc0340c:	24120000 	li	s2,0
bfc03410:	1612036d 	bne	s0,s2,bfc041c8 <inst_error>
bfc03414:	00000000 	nop
bfc03418:	3c08ceb3 	lui	t0,0xceb3
bfc0341c:	350883e8 	ori	t0,t0,0x83e8
bfc03420:	24090000 	li	t1,0
bfc03424:	01090018 	mult	t0,t1
bfc03428:	00008012 	mflo	s0
bfc0342c:	24120000 	li	s2,0
bfc03430:	16120365 	bne	s0,s2,bfc041c8 <inst_error>
bfc03434:	00000000 	nop
bfc03438:	00008010 	mfhi	s0
bfc0343c:	24120000 	li	s2,0
bfc03440:	16120361 	bne	s0,s2,bfc041c8 <inst_error>
bfc03444:	00000000 	nop
bfc03448:	3c083b58 	lui	t0,0x3b58
bfc0344c:	350829ac 	ori	t0,t0,0x29ac
bfc03450:	24090000 	li	t1,0
bfc03454:	01090018 	mult	t0,t1
bfc03458:	00008012 	mflo	s0
bfc0345c:	24120000 	li	s2,0
bfc03460:	16120359 	bne	s0,s2,bfc041c8 <inst_error>
bfc03464:	00000000 	nop
bfc03468:	00008010 	mfhi	s0
bfc0346c:	24120000 	li	s2,0
bfc03470:	16120355 	bne	s0,s2,bfc041c8 <inst_error>
bfc03474:	00000000 	nop
bfc03478:	3c080d0b 	lui	t0,0xd0b
bfc0347c:	350847e7 	ori	t0,t0,0x47e7
bfc03480:	24090000 	li	t1,0
bfc03484:	01090018 	mult	t0,t1
bfc03488:	00008012 	mflo	s0
bfc0348c:	24120000 	li	s2,0
bfc03490:	1612034d 	bne	s0,s2,bfc041c8 <inst_error>
bfc03494:	00000000 	nop
bfc03498:	00008010 	mfhi	s0
bfc0349c:	24120000 	li	s2,0
bfc034a0:	16120349 	bne	s0,s2,bfc041c8 <inst_error>
bfc034a4:	00000000 	nop
bfc034a8:	3c084c15 	lui	t0,0x4c15
bfc034ac:	3508128c 	ori	t0,t0,0x128c
bfc034b0:	24090000 	li	t1,0
bfc034b4:	01090018 	mult	t0,t1
bfc034b8:	00008012 	mflo	s0
bfc034bc:	24120000 	li	s2,0
bfc034c0:	16120341 	bne	s0,s2,bfc041c8 <inst_error>
bfc034c4:	00000000 	nop
bfc034c8:	00008010 	mfhi	s0
bfc034cc:	24120000 	li	s2,0
bfc034d0:	1612033d 	bne	s0,s2,bfc041c8 <inst_error>
bfc034d4:	00000000 	nop
bfc034d8:	3c08dfe9 	lui	t0,0xdfe9
bfc034dc:	3508dbf6 	ori	t0,t0,0xdbf6
bfc034e0:	24090000 	li	t1,0
bfc034e4:	01090018 	mult	t0,t1
bfc034e8:	00008012 	mflo	s0
bfc034ec:	24120000 	li	s2,0
bfc034f0:	16120335 	bne	s0,s2,bfc041c8 <inst_error>
bfc034f4:	00000000 	nop
bfc034f8:	00008010 	mfhi	s0
bfc034fc:	24120000 	li	s2,0
bfc03500:	16120331 	bne	s0,s2,bfc041c8 <inst_error>
bfc03504:	00000000 	nop
bfc03508:	3c08cc45 	lui	t0,0xcc45
bfc0350c:	35086167 	ori	t0,t0,0x6167
bfc03510:	24090000 	li	t1,0
bfc03514:	01090018 	mult	t0,t1
bfc03518:	00008012 	mflo	s0
bfc0351c:	24120000 	li	s2,0
bfc03520:	16120329 	bne	s0,s2,bfc041c8 <inst_error>
bfc03524:	00000000 	nop
bfc03528:	00008010 	mfhi	s0
bfc0352c:	24120000 	li	s2,0
bfc03530:	16120325 	bne	s0,s2,bfc041c8 <inst_error>
bfc03534:	00000000 	nop
bfc03538:	3c087260 	lui	t0,0x7260
bfc0353c:	3508e190 	ori	t0,t0,0xe190
bfc03540:	24090000 	li	t1,0
bfc03544:	01090018 	mult	t0,t1
bfc03548:	00008012 	mflo	s0
bfc0354c:	24120000 	li	s2,0
bfc03550:	1612031d 	bne	s0,s2,bfc041c8 <inst_error>
bfc03554:	00000000 	nop
bfc03558:	00008010 	mfhi	s0
bfc0355c:	24120000 	li	s2,0
bfc03560:	16120319 	bne	s0,s2,bfc041c8 <inst_error>
bfc03564:	00000000 	nop
bfc03568:	3c08a011 	lui	t0,0xa011
bfc0356c:	35083663 	ori	t0,t0,0x3663
bfc03570:	24090000 	li	t1,0
bfc03574:	01090018 	mult	t0,t1
bfc03578:	00008012 	mflo	s0
bfc0357c:	24120000 	li	s2,0
bfc03580:	16120311 	bne	s0,s2,bfc041c8 <inst_error>
bfc03584:	00000000 	nop
bfc03588:	00008010 	mfhi	s0
bfc0358c:	24120000 	li	s2,0
bfc03590:	1612030d 	bne	s0,s2,bfc041c8 <inst_error>
bfc03594:	00000000 	nop
bfc03598:	3c088690 	lui	t0,0x8690
bfc0359c:	3508a8fe 	ori	t0,t0,0xa8fe
bfc035a0:	24090000 	li	t1,0
bfc035a4:	01090018 	mult	t0,t1
bfc035a8:	00008012 	mflo	s0
bfc035ac:	24120000 	li	s2,0
bfc035b0:	16120305 	bne	s0,s2,bfc041c8 <inst_error>
bfc035b4:	00000000 	nop
bfc035b8:	00008010 	mfhi	s0
bfc035bc:	24120000 	li	s2,0
bfc035c0:	16120301 	bne	s0,s2,bfc041c8 <inst_error>
bfc035c4:	00000000 	nop
bfc035c8:	3c08ac06 	lui	t0,0xac06
bfc035cc:	350849d6 	ori	t0,t0,0x49d6
bfc035d0:	24090000 	li	t1,0
bfc035d4:	01090018 	mult	t0,t1
bfc035d8:	00008012 	mflo	s0
bfc035dc:	24120000 	li	s2,0
bfc035e0:	161202f9 	bne	s0,s2,bfc041c8 <inst_error>
bfc035e4:	00000000 	nop
bfc035e8:	00008010 	mfhi	s0
bfc035ec:	24120000 	li	s2,0
bfc035f0:	161202f5 	bne	s0,s2,bfc041c8 <inst_error>
bfc035f4:	00000000 	nop
bfc035f8:	3c08541a 	lui	t0,0x541a
bfc035fc:	35086b83 	ori	t0,t0,0x6b83
bfc03600:	24090000 	li	t1,0
bfc03604:	01090018 	mult	t0,t1
bfc03608:	00008012 	mflo	s0
bfc0360c:	24120000 	li	s2,0
bfc03610:	161202ed 	bne	s0,s2,bfc041c8 <inst_error>
bfc03614:	00000000 	nop
bfc03618:	00008010 	mfhi	s0
bfc0361c:	24120000 	li	s2,0
bfc03620:	161202e9 	bne	s0,s2,bfc041c8 <inst_error>
bfc03624:	00000000 	nop
bfc03628:	3c0817c0 	lui	t0,0x17c0
bfc0362c:	35081254 	ori	t0,t0,0x1254
bfc03630:	24090000 	li	t1,0
bfc03634:	01090018 	mult	t0,t1
bfc03638:	00008012 	mflo	s0
bfc0363c:	24120000 	li	s2,0
bfc03640:	161202e1 	bne	s0,s2,bfc041c8 <inst_error>
bfc03644:	00000000 	nop
bfc03648:	00008010 	mfhi	s0
bfc0364c:	24120000 	li	s2,0
bfc03650:	161202dd 	bne	s0,s2,bfc041c8 <inst_error>
bfc03654:	00000000 	nop
bfc03658:	3c08b23c 	lui	t0,0xb23c
bfc0365c:	3508e559 	ori	t0,t0,0xe559
bfc03660:	24090000 	li	t1,0
bfc03664:	01090018 	mult	t0,t1
bfc03668:	00008012 	mflo	s0
bfc0366c:	24120000 	li	s2,0
bfc03670:	161202d5 	bne	s0,s2,bfc041c8 <inst_error>
bfc03674:	00000000 	nop
bfc03678:	00008010 	mfhi	s0
bfc0367c:	24120000 	li	s2,0
bfc03680:	161202d1 	bne	s0,s2,bfc041c8 <inst_error>
bfc03684:	00000000 	nop
bfc03688:	3c087000 	lui	t0,0x7000
bfc0368c:	35084a30 	ori	t0,t0,0x4a30
bfc03690:	24090000 	li	t1,0
bfc03694:	01090018 	mult	t0,t1
bfc03698:	00008012 	mflo	s0
bfc0369c:	24120000 	li	s2,0
bfc036a0:	161202c9 	bne	s0,s2,bfc041c8 <inst_error>
bfc036a4:	00000000 	nop
bfc036a8:	00008010 	mfhi	s0
bfc036ac:	24120000 	li	s2,0
bfc036b0:	161202c5 	bne	s0,s2,bfc041c8 <inst_error>
bfc036b4:	00000000 	nop
bfc036b8:	3c08d889 	lui	t0,0xd889
bfc036bc:	35086961 	ori	t0,t0,0x6961
bfc036c0:	24090000 	li	t1,0
bfc036c4:	01090018 	mult	t0,t1
bfc036c8:	00008012 	mflo	s0
bfc036cc:	24120000 	li	s2,0
bfc036d0:	161202bd 	bne	s0,s2,bfc041c8 <inst_error>
bfc036d4:	00000000 	nop
bfc036d8:	00008010 	mfhi	s0
bfc036dc:	24120000 	li	s2,0
bfc036e0:	161202b9 	bne	s0,s2,bfc041c8 <inst_error>
bfc036e4:	00000000 	nop
bfc036e8:	3c08b4b6 	lui	t0,0xb4b6
bfc036ec:	35085be0 	ori	t0,t0,0x5be0
bfc036f0:	24090000 	li	t1,0
bfc036f4:	01090018 	mult	t0,t1
bfc036f8:	00008012 	mflo	s0
bfc036fc:	24120000 	li	s2,0
bfc03700:	161202b1 	bne	s0,s2,bfc041c8 <inst_error>
bfc03704:	00000000 	nop
bfc03708:	00008010 	mfhi	s0
bfc0370c:	24120000 	li	s2,0
bfc03710:	161202ad 	bne	s0,s2,bfc041c8 <inst_error>
bfc03714:	00000000 	nop
bfc03718:	3c0866f0 	lui	t0,0x66f0
bfc0371c:	3508a268 	ori	t0,t0,0xa268
bfc03720:	24090000 	li	t1,0
bfc03724:	01090018 	mult	t0,t1
bfc03728:	00008012 	mflo	s0
bfc0372c:	24120000 	li	s2,0
bfc03730:	161202a5 	bne	s0,s2,bfc041c8 <inst_error>
bfc03734:	00000000 	nop
bfc03738:	00008010 	mfhi	s0
bfc0373c:	24120000 	li	s2,0
bfc03740:	161202a1 	bne	s0,s2,bfc041c8 <inst_error>
bfc03744:	00000000 	nop
bfc03748:	3c082d5a 	lui	t0,0x2d5a
bfc0374c:	3508ff41 	ori	t0,t0,0xff41
bfc03750:	24090000 	li	t1,0
bfc03754:	01090018 	mult	t0,t1
bfc03758:	00008012 	mflo	s0
bfc0375c:	24120000 	li	s2,0
bfc03760:	16120299 	bne	s0,s2,bfc041c8 <inst_error>
bfc03764:	00000000 	nop
bfc03768:	00008010 	mfhi	s0
bfc0376c:	24120000 	li	s2,0
bfc03770:	16120295 	bne	s0,s2,bfc041c8 <inst_error>
bfc03774:	00000000 	nop
bfc03778:	3c08350f 	lui	t0,0x350f
bfc0377c:	3508af5e 	ori	t0,t0,0xaf5e
bfc03780:	24090000 	li	t1,0
bfc03784:	01090018 	mult	t0,t1
bfc03788:	00008012 	mflo	s0
bfc0378c:	24120000 	li	s2,0
bfc03790:	1612028d 	bne	s0,s2,bfc041c8 <inst_error>
bfc03794:	00000000 	nop
bfc03798:	00008010 	mfhi	s0
bfc0379c:	24120000 	li	s2,0
bfc037a0:	16120289 	bne	s0,s2,bfc041c8 <inst_error>
bfc037a4:	00000000 	nop
bfc037a8:	3c0849c9 	lui	t0,0x49c9
bfc037ac:	350877de 	ori	t0,t0,0x77de
bfc037b0:	24090000 	li	t1,0
bfc037b4:	01090018 	mult	t0,t1
bfc037b8:	00008012 	mflo	s0
bfc037bc:	24120000 	li	s2,0
bfc037c0:	16120281 	bne	s0,s2,bfc041c8 <inst_error>
bfc037c4:	00000000 	nop
bfc037c8:	00008010 	mfhi	s0
bfc037cc:	24120000 	li	s2,0
bfc037d0:	1612027d 	bne	s0,s2,bfc041c8 <inst_error>
bfc037d4:	00000000 	nop
bfc037d8:	3c0821f0 	lui	t0,0x21f0
bfc037dc:	3508b36e 	ori	t0,t0,0xb36e
bfc037e0:	24090000 	li	t1,0
bfc037e4:	01090018 	mult	t0,t1
bfc037e8:	00008012 	mflo	s0
bfc037ec:	24120000 	li	s2,0
bfc037f0:	16120275 	bne	s0,s2,bfc041c8 <inst_error>
bfc037f4:	00000000 	nop
bfc037f8:	00008010 	mfhi	s0
bfc037fc:	24120000 	li	s2,0
bfc03800:	16120271 	bne	s0,s2,bfc041c8 <inst_error>
bfc03804:	00000000 	nop
bfc03808:	3c084b64 	lui	t0,0x4b64
bfc0380c:	35080394 	ori	t0,t0,0x394
bfc03810:	24090000 	li	t1,0
bfc03814:	01090018 	mult	t0,t1
bfc03818:	00008012 	mflo	s0
bfc0381c:	24120000 	li	s2,0
bfc03820:	16120269 	bne	s0,s2,bfc041c8 <inst_error>
bfc03824:	00000000 	nop
bfc03828:	00008010 	mfhi	s0
bfc0382c:	24120000 	li	s2,0
bfc03830:	16120265 	bne	s0,s2,bfc041c8 <inst_error>
bfc03834:	00000000 	nop
bfc03838:	24080000 	li	t0,0
bfc0383c:	3c09fb04 	lui	t1,0xfb04
bfc03840:	35297d83 	ori	t1,t1,0x7d83
bfc03844:	01090018 	mult	t0,t1
bfc03848:	00008012 	mflo	s0
bfc0384c:	24120000 	li	s2,0
bfc03850:	1612025d 	bne	s0,s2,bfc041c8 <inst_error>
bfc03854:	00000000 	nop
bfc03858:	00008010 	mfhi	s0
bfc0385c:	24120000 	li	s2,0
bfc03860:	16120259 	bne	s0,s2,bfc041c8 <inst_error>
bfc03864:	00000000 	nop
bfc03868:	24080000 	li	t0,0
bfc0386c:	3c09214a 	lui	t1,0x214a
bfc03870:	35297474 	ori	t1,t1,0x7474
bfc03874:	01090018 	mult	t0,t1
bfc03878:	00008012 	mflo	s0
bfc0387c:	24120000 	li	s2,0
bfc03880:	16120251 	bne	s0,s2,bfc041c8 <inst_error>
bfc03884:	00000000 	nop
bfc03888:	00008010 	mfhi	s0
bfc0388c:	24120000 	li	s2,0
bfc03890:	1612024d 	bne	s0,s2,bfc041c8 <inst_error>
bfc03894:	00000000 	nop
bfc03898:	24080000 	li	t0,0
bfc0389c:	3c09f335 	lui	t1,0xf335
bfc038a0:	35296675 	ori	t1,t1,0x6675
bfc038a4:	01090018 	mult	t0,t1
bfc038a8:	00008012 	mflo	s0
bfc038ac:	24120000 	li	s2,0
bfc038b0:	16120245 	bne	s0,s2,bfc041c8 <inst_error>
bfc038b4:	00000000 	nop
bfc038b8:	00008010 	mfhi	s0
bfc038bc:	24120000 	li	s2,0
bfc038c0:	16120241 	bne	s0,s2,bfc041c8 <inst_error>
bfc038c4:	00000000 	nop
bfc038c8:	24080000 	li	t0,0
bfc038cc:	3c09f34c 	lui	t1,0xf34c
bfc038d0:	3529dece 	ori	t1,t1,0xdece
bfc038d4:	01090018 	mult	t0,t1
bfc038d8:	00008012 	mflo	s0
bfc038dc:	24120000 	li	s2,0
bfc038e0:	16120239 	bne	s0,s2,bfc041c8 <inst_error>
bfc038e4:	00000000 	nop
bfc038e8:	00008010 	mfhi	s0
bfc038ec:	24120000 	li	s2,0
bfc038f0:	16120235 	bne	s0,s2,bfc041c8 <inst_error>
bfc038f4:	00000000 	nop
bfc038f8:	24080000 	li	t0,0
bfc038fc:	3c094c18 	lui	t1,0x4c18
bfc03900:	35299b60 	ori	t1,t1,0x9b60
bfc03904:	01090018 	mult	t0,t1
bfc03908:	00008012 	mflo	s0
bfc0390c:	24120000 	li	s2,0
bfc03910:	1612022d 	bne	s0,s2,bfc041c8 <inst_error>
bfc03914:	00000000 	nop
bfc03918:	00008010 	mfhi	s0
bfc0391c:	24120000 	li	s2,0
bfc03920:	16120229 	bne	s0,s2,bfc041c8 <inst_error>
bfc03924:	00000000 	nop
bfc03928:	24080000 	li	t0,0
bfc0392c:	3c091bcb 	lui	t1,0x1bcb
bfc03930:	3529f8d0 	ori	t1,t1,0xf8d0
bfc03934:	01090018 	mult	t0,t1
bfc03938:	00008012 	mflo	s0
bfc0393c:	24120000 	li	s2,0
bfc03940:	16120221 	bne	s0,s2,bfc041c8 <inst_error>
bfc03944:	00000000 	nop
bfc03948:	00008010 	mfhi	s0
bfc0394c:	24120000 	li	s2,0
bfc03950:	1612021d 	bne	s0,s2,bfc041c8 <inst_error>
bfc03954:	00000000 	nop
bfc03958:	24080000 	li	t0,0
bfc0395c:	3c094ae5 	lui	t1,0x4ae5
bfc03960:	352969a0 	ori	t1,t1,0x69a0
bfc03964:	01090018 	mult	t0,t1
bfc03968:	00008012 	mflo	s0
bfc0396c:	24120000 	li	s2,0
bfc03970:	16120215 	bne	s0,s2,bfc041c8 <inst_error>
bfc03974:	00000000 	nop
bfc03978:	00008010 	mfhi	s0
bfc0397c:	24120000 	li	s2,0
bfc03980:	16120211 	bne	s0,s2,bfc041c8 <inst_error>
bfc03984:	00000000 	nop
bfc03988:	24080000 	li	t0,0
bfc0398c:	3c092582 	lui	t1,0x2582
bfc03990:	3529c9c0 	ori	t1,t1,0xc9c0
bfc03994:	01090018 	mult	t0,t1
bfc03998:	00008012 	mflo	s0
bfc0399c:	24120000 	li	s2,0
bfc039a0:	16120209 	bne	s0,s2,bfc041c8 <inst_error>
bfc039a4:	00000000 	nop
bfc039a8:	00008010 	mfhi	s0
bfc039ac:	24120000 	li	s2,0
bfc039b0:	16120205 	bne	s0,s2,bfc041c8 <inst_error>
bfc039b4:	00000000 	nop
bfc039b8:	24080000 	li	t0,0
bfc039bc:	3c09a2f0 	lui	t1,0xa2f0
bfc039c0:	35291d2e 	ori	t1,t1,0x1d2e
bfc039c4:	01090018 	mult	t0,t1
bfc039c8:	00008012 	mflo	s0
bfc039cc:	24120000 	li	s2,0
bfc039d0:	161201fd 	bne	s0,s2,bfc041c8 <inst_error>
bfc039d4:	00000000 	nop
bfc039d8:	00008010 	mfhi	s0
bfc039dc:	24120000 	li	s2,0
bfc039e0:	161201f9 	bne	s0,s2,bfc041c8 <inst_error>
bfc039e4:	00000000 	nop
bfc039e8:	24080000 	li	t0,0
bfc039ec:	3c092c53 	lui	t1,0x2c53
bfc039f0:	352900d7 	ori	t1,t1,0xd7
bfc039f4:	01090018 	mult	t0,t1
bfc039f8:	00008012 	mflo	s0
bfc039fc:	24120000 	li	s2,0
bfc03a00:	161201f1 	bne	s0,s2,bfc041c8 <inst_error>
bfc03a04:	00000000 	nop
bfc03a08:	00008010 	mfhi	s0
bfc03a0c:	24120000 	li	s2,0
bfc03a10:	161201ed 	bne	s0,s2,bfc041c8 <inst_error>
bfc03a14:	00000000 	nop
bfc03a18:	24080000 	li	t0,0
bfc03a1c:	3c09c9c9 	lui	t1,0xc9c9
bfc03a20:	35290c48 	ori	t1,t1,0xc48
bfc03a24:	01090018 	mult	t0,t1
bfc03a28:	00008012 	mflo	s0
bfc03a2c:	24120000 	li	s2,0
bfc03a30:	161201e5 	bne	s0,s2,bfc041c8 <inst_error>
bfc03a34:	00000000 	nop
bfc03a38:	00008010 	mfhi	s0
bfc03a3c:	24120000 	li	s2,0
bfc03a40:	161201e1 	bne	s0,s2,bfc041c8 <inst_error>
bfc03a44:	00000000 	nop
bfc03a48:	24080000 	li	t0,0
bfc03a4c:	3c09fec7 	lui	t1,0xfec7
bfc03a50:	3529ebb0 	ori	t1,t1,0xebb0
bfc03a54:	01090018 	mult	t0,t1
bfc03a58:	00008012 	mflo	s0
bfc03a5c:	24120000 	li	s2,0
bfc03a60:	161201d9 	bne	s0,s2,bfc041c8 <inst_error>
bfc03a64:	00000000 	nop
bfc03a68:	00008010 	mfhi	s0
bfc03a6c:	24120000 	li	s2,0
bfc03a70:	161201d5 	bne	s0,s2,bfc041c8 <inst_error>
bfc03a74:	00000000 	nop
bfc03a78:	24080000 	li	t0,0
bfc03a7c:	3c09d380 	lui	t1,0xd380
bfc03a80:	35294eae 	ori	t1,t1,0x4eae
bfc03a84:	01090018 	mult	t0,t1
bfc03a88:	00008012 	mflo	s0
bfc03a8c:	24120000 	li	s2,0
bfc03a90:	161201cd 	bne	s0,s2,bfc041c8 <inst_error>
bfc03a94:	00000000 	nop
bfc03a98:	00008010 	mfhi	s0
bfc03a9c:	24120000 	li	s2,0
bfc03aa0:	161201c9 	bne	s0,s2,bfc041c8 <inst_error>
bfc03aa4:	00000000 	nop
bfc03aa8:	24080000 	li	t0,0
bfc03aac:	3c09df27 	lui	t1,0xdf27
bfc03ab0:	35298860 	ori	t1,t1,0x8860
bfc03ab4:	01090018 	mult	t0,t1
bfc03ab8:	00008012 	mflo	s0
bfc03abc:	24120000 	li	s2,0
bfc03ac0:	161201c1 	bne	s0,s2,bfc041c8 <inst_error>
bfc03ac4:	00000000 	nop
bfc03ac8:	00008010 	mfhi	s0
bfc03acc:	24120000 	li	s2,0
bfc03ad0:	161201bd 	bne	s0,s2,bfc041c8 <inst_error>
bfc03ad4:	00000000 	nop
bfc03ad8:	24080000 	li	t0,0
bfc03adc:	3c09017e 	lui	t1,0x17e
bfc03ae0:	3529f78c 	ori	t1,t1,0xf78c
bfc03ae4:	01090018 	mult	t0,t1
bfc03ae8:	00008012 	mflo	s0
bfc03aec:	24120000 	li	s2,0
bfc03af0:	161201b5 	bne	s0,s2,bfc041c8 <inst_error>
bfc03af4:	00000000 	nop
bfc03af8:	00008010 	mfhi	s0
bfc03afc:	24120000 	li	s2,0
bfc03b00:	161201b1 	bne	s0,s2,bfc041c8 <inst_error>
bfc03b04:	00000000 	nop
bfc03b08:	24080000 	li	t0,0
bfc03b0c:	3c090662 	lui	t1,0x662
bfc03b10:	35291490 	ori	t1,t1,0x1490
bfc03b14:	01090018 	mult	t0,t1
bfc03b18:	00008012 	mflo	s0
bfc03b1c:	24120000 	li	s2,0
bfc03b20:	161201a9 	bne	s0,s2,bfc041c8 <inst_error>
bfc03b24:	00000000 	nop
bfc03b28:	00008010 	mfhi	s0
bfc03b2c:	24120000 	li	s2,0
bfc03b30:	161201a5 	bne	s0,s2,bfc041c8 <inst_error>
bfc03b34:	00000000 	nop
bfc03b38:	24080000 	li	t0,0
bfc03b3c:	3c09113e 	lui	t1,0x113e
bfc03b40:	3529b506 	ori	t1,t1,0xb506
bfc03b44:	01090018 	mult	t0,t1
bfc03b48:	00008012 	mflo	s0
bfc03b4c:	24120000 	li	s2,0
bfc03b50:	1612019d 	bne	s0,s2,bfc041c8 <inst_error>
bfc03b54:	00000000 	nop
bfc03b58:	00008010 	mfhi	s0
bfc03b5c:	24120000 	li	s2,0
bfc03b60:	16120199 	bne	s0,s2,bfc041c8 <inst_error>
bfc03b64:	00000000 	nop
bfc03b68:	24080000 	li	t0,0
bfc03b6c:	3c096fe2 	lui	t1,0x6fe2
bfc03b70:	35295ba8 	ori	t1,t1,0x5ba8
bfc03b74:	01090018 	mult	t0,t1
bfc03b78:	00008012 	mflo	s0
bfc03b7c:	24120000 	li	s2,0
bfc03b80:	16120191 	bne	s0,s2,bfc041c8 <inst_error>
bfc03b84:	00000000 	nop
bfc03b88:	00008010 	mfhi	s0
bfc03b8c:	24120000 	li	s2,0
bfc03b90:	1612018d 	bne	s0,s2,bfc041c8 <inst_error>
bfc03b94:	00000000 	nop
bfc03b98:	24080000 	li	t0,0
bfc03b9c:	3c096df7 	lui	t1,0x6df7
bfc03ba0:	35291f40 	ori	t1,t1,0x1f40
bfc03ba4:	01090018 	mult	t0,t1
bfc03ba8:	00008012 	mflo	s0
bfc03bac:	24120000 	li	s2,0
bfc03bb0:	16120185 	bne	s0,s2,bfc041c8 <inst_error>
bfc03bb4:	00000000 	nop
bfc03bb8:	00008010 	mfhi	s0
bfc03bbc:	24120000 	li	s2,0
bfc03bc0:	16120181 	bne	s0,s2,bfc041c8 <inst_error>
bfc03bc4:	00000000 	nop
bfc03bc8:	24080000 	li	t0,0
bfc03bcc:	3c09f56b 	lui	t1,0xf56b
bfc03bd0:	3529d780 	ori	t1,t1,0xd780
bfc03bd4:	01090018 	mult	t0,t1
bfc03bd8:	00008012 	mflo	s0
bfc03bdc:	24120000 	li	s2,0
bfc03be0:	16120179 	bne	s0,s2,bfc041c8 <inst_error>
bfc03be4:	00000000 	nop
bfc03be8:	00008010 	mfhi	s0
bfc03bec:	24120000 	li	s2,0
bfc03bf0:	16120175 	bne	s0,s2,bfc041c8 <inst_error>
bfc03bf4:	00000000 	nop
bfc03bf8:	24080000 	li	t0,0
bfc03bfc:	3c09af6f 	lui	t1,0xaf6f
bfc03c00:	3529ba00 	ori	t1,t1,0xba00
bfc03c04:	01090018 	mult	t0,t1
bfc03c08:	00008012 	mflo	s0
bfc03c0c:	24120000 	li	s2,0
bfc03c10:	1612016d 	bne	s0,s2,bfc041c8 <inst_error>
bfc03c14:	00000000 	nop
bfc03c18:	00008010 	mfhi	s0
bfc03c1c:	24120000 	li	s2,0
bfc03c20:	16120169 	bne	s0,s2,bfc041c8 <inst_error>
bfc03c24:	00000000 	nop
bfc03c28:	24080000 	li	t0,0
bfc03c2c:	3c09daaf 	lui	t1,0xdaaf
bfc03c30:	3529c40a 	ori	t1,t1,0xc40a
bfc03c34:	01090018 	mult	t0,t1
bfc03c38:	00008012 	mflo	s0
bfc03c3c:	24120000 	li	s2,0
bfc03c40:	16120161 	bne	s0,s2,bfc041c8 <inst_error>
bfc03c44:	00000000 	nop
bfc03c48:	00008010 	mfhi	s0
bfc03c4c:	24120000 	li	s2,0
bfc03c50:	1612015d 	bne	s0,s2,bfc041c8 <inst_error>
bfc03c54:	00000000 	nop
bfc03c58:	24080000 	li	t0,0
bfc03c5c:	3c090c79 	lui	t1,0xc79
bfc03c60:	3529e600 	ori	t1,t1,0xe600
bfc03c64:	01090018 	mult	t0,t1
bfc03c68:	00008012 	mflo	s0
bfc03c6c:	24120000 	li	s2,0
bfc03c70:	16120155 	bne	s0,s2,bfc041c8 <inst_error>
bfc03c74:	00000000 	nop
bfc03c78:	00008010 	mfhi	s0
bfc03c7c:	24120000 	li	s2,0
bfc03c80:	16120151 	bne	s0,s2,bfc041c8 <inst_error>
bfc03c84:	00000000 	nop
bfc03c88:	24080000 	li	t0,0
bfc03c8c:	3c0949a2 	lui	t1,0x49a2
bfc03c90:	35294b00 	ori	t1,t1,0x4b00
bfc03c94:	01090018 	mult	t0,t1
bfc03c98:	00008012 	mflo	s0
bfc03c9c:	24120000 	li	s2,0
bfc03ca0:	16120149 	bne	s0,s2,bfc041c8 <inst_error>
bfc03ca4:	00000000 	nop
bfc03ca8:	00008010 	mfhi	s0
bfc03cac:	24120000 	li	s2,0
bfc03cb0:	16120145 	bne	s0,s2,bfc041c8 <inst_error>
bfc03cb4:	00000000 	nop
bfc03cb8:	24080000 	li	t0,0
bfc03cbc:	3c09a3fc 	lui	t1,0xa3fc
bfc03cc0:	35291cb2 	ori	t1,t1,0x1cb2
bfc03cc4:	01090018 	mult	t0,t1
bfc03cc8:	00008012 	mflo	s0
bfc03ccc:	24120000 	li	s2,0
bfc03cd0:	1612013d 	bne	s0,s2,bfc041c8 <inst_error>
bfc03cd4:	00000000 	nop
bfc03cd8:	00008010 	mfhi	s0
bfc03cdc:	24120000 	li	s2,0
bfc03ce0:	16120139 	bne	s0,s2,bfc041c8 <inst_error>
bfc03ce4:	00000000 	nop
bfc03ce8:	24080000 	li	t0,0
bfc03cec:	3c09c82d 	lui	t1,0xc82d
bfc03cf0:	35295e30 	ori	t1,t1,0x5e30
bfc03cf4:	01090018 	mult	t0,t1
bfc03cf8:	00008012 	mflo	s0
bfc03cfc:	24120000 	li	s2,0
bfc03d00:	16120131 	bne	s0,s2,bfc041c8 <inst_error>
bfc03d04:	00000000 	nop
bfc03d08:	00008010 	mfhi	s0
bfc03d0c:	24120000 	li	s2,0
bfc03d10:	1612012d 	bne	s0,s2,bfc041c8 <inst_error>
bfc03d14:	00000000 	nop
bfc03d18:	24080000 	li	t0,0
bfc03d1c:	3c092ccb 	lui	t1,0x2ccb
bfc03d20:	3529a7a0 	ori	t1,t1,0xa7a0
bfc03d24:	01090018 	mult	t0,t1
bfc03d28:	00008012 	mflo	s0
bfc03d2c:	24120000 	li	s2,0
bfc03d30:	16120125 	bne	s0,s2,bfc041c8 <inst_error>
bfc03d34:	00000000 	nop
bfc03d38:	00008010 	mfhi	s0
bfc03d3c:	24120000 	li	s2,0
bfc03d40:	16120121 	bne	s0,s2,bfc041c8 <inst_error>
bfc03d44:	00000000 	nop
bfc03d48:	24080000 	li	t0,0
bfc03d4c:	3c09f192 	lui	t1,0xf192
bfc03d50:	3529d058 	ori	t1,t1,0xd058
bfc03d54:	01090018 	mult	t0,t1
bfc03d58:	00008012 	mflo	s0
bfc03d5c:	24120000 	li	s2,0
bfc03d60:	16120119 	bne	s0,s2,bfc041c8 <inst_error>
bfc03d64:	00000000 	nop
bfc03d68:	00008010 	mfhi	s0
bfc03d6c:	24120000 	li	s2,0
bfc03d70:	16120115 	bne	s0,s2,bfc041c8 <inst_error>
bfc03d74:	00000000 	nop
bfc03d78:	24080000 	li	t0,0
bfc03d7c:	3c09bbcf 	lui	t1,0xbbcf
bfc03d80:	3529d2d8 	ori	t1,t1,0xd2d8
bfc03d84:	01090018 	mult	t0,t1
bfc03d88:	00008012 	mflo	s0
bfc03d8c:	24120000 	li	s2,0
bfc03d90:	1612010d 	bne	s0,s2,bfc041c8 <inst_error>
bfc03d94:	00000000 	nop
bfc03d98:	00008010 	mfhi	s0
bfc03d9c:	24120000 	li	s2,0
bfc03da0:	16120109 	bne	s0,s2,bfc041c8 <inst_error>
bfc03da4:	00000000 	nop
bfc03da8:	24080000 	li	t0,0
bfc03dac:	3c097cf5 	lui	t1,0x7cf5
bfc03db0:	35297a14 	ori	t1,t1,0x7a14
bfc03db4:	01090018 	mult	t0,t1
bfc03db8:	00008012 	mflo	s0
bfc03dbc:	24120000 	li	s2,0
bfc03dc0:	16120101 	bne	s0,s2,bfc041c8 <inst_error>
bfc03dc4:	00000000 	nop
bfc03dc8:	00008010 	mfhi	s0
bfc03dcc:	24120000 	li	s2,0
bfc03dd0:	161200fd 	bne	s0,s2,bfc041c8 <inst_error>
bfc03dd4:	00000000 	nop
bfc03dd8:	24080000 	li	t0,0
bfc03ddc:	3c095409 	lui	t1,0x5409
bfc03de0:	35299950 	ori	t1,t1,0x9950
bfc03de4:	01090018 	mult	t0,t1
bfc03de8:	00008012 	mflo	s0
bfc03dec:	24120000 	li	s2,0
bfc03df0:	161200f5 	bne	s0,s2,bfc041c8 <inst_error>
bfc03df4:	00000000 	nop
bfc03df8:	00008010 	mfhi	s0
bfc03dfc:	24120000 	li	s2,0
bfc03e00:	161200f1 	bne	s0,s2,bfc041c8 <inst_error>
bfc03e04:	00000000 	nop
bfc03e08:	24080000 	li	t0,0
bfc03e0c:	3c0946ed 	lui	t1,0x46ed
bfc03e10:	3529f434 	ori	t1,t1,0xf434
bfc03e14:	01090018 	mult	t0,t1
bfc03e18:	00008012 	mflo	s0
bfc03e1c:	24120000 	li	s2,0
bfc03e20:	161200e9 	bne	s0,s2,bfc041c8 <inst_error>
bfc03e24:	00000000 	nop
bfc03e28:	00008010 	mfhi	s0
bfc03e2c:	24120000 	li	s2,0
bfc03e30:	161200e5 	bne	s0,s2,bfc041c8 <inst_error>
bfc03e34:	00000000 	nop
bfc03e38:	24080000 	li	t0,0
bfc03e3c:	3c097a95 	lui	t1,0x7a95
bfc03e40:	3529fab0 	ori	t1,t1,0xfab0
bfc03e44:	01090018 	mult	t0,t1
bfc03e48:	00008012 	mflo	s0
bfc03e4c:	24120000 	li	s2,0
bfc03e50:	161200dd 	bne	s0,s2,bfc041c8 <inst_error>
bfc03e54:	00000000 	nop
bfc03e58:	00008010 	mfhi	s0
bfc03e5c:	24120000 	li	s2,0
bfc03e60:	161200d9 	bne	s0,s2,bfc041c8 <inst_error>
bfc03e64:	00000000 	nop
bfc03e68:	24080000 	li	t0,0
bfc03e6c:	3c09f415 	lui	t1,0xf415
bfc03e70:	3529d1b4 	ori	t1,t1,0xd1b4
bfc03e74:	01090018 	mult	t0,t1
bfc03e78:	00008012 	mflo	s0
bfc03e7c:	24120000 	li	s2,0
bfc03e80:	161200d1 	bne	s0,s2,bfc041c8 <inst_error>
bfc03e84:	00000000 	nop
bfc03e88:	00008010 	mfhi	s0
bfc03e8c:	24120000 	li	s2,0
bfc03e90:	161200cd 	bne	s0,s2,bfc041c8 <inst_error>
bfc03e94:	00000000 	nop
bfc03e98:	24080000 	li	t0,0
bfc03e9c:	3c090caf 	lui	t1,0xcaf
bfc03ea0:	35297d5c 	ori	t1,t1,0x7d5c
bfc03ea4:	01090018 	mult	t0,t1
bfc03ea8:	00008012 	mflo	s0
bfc03eac:	24120000 	li	s2,0
bfc03eb0:	161200c5 	bne	s0,s2,bfc041c8 <inst_error>
bfc03eb4:	00000000 	nop
bfc03eb8:	00008010 	mfhi	s0
bfc03ebc:	24120000 	li	s2,0
bfc03ec0:	161200c1 	bne	s0,s2,bfc041c8 <inst_error>
bfc03ec4:	00000000 	nop
bfc03ec8:	24080000 	li	t0,0
bfc03ecc:	3c09a700 	lui	t1,0xa700
bfc03ed0:	35295fd1 	ori	t1,t1,0x5fd1
bfc03ed4:	01090018 	mult	t0,t1
bfc03ed8:	00008012 	mflo	s0
bfc03edc:	24120000 	li	s2,0
bfc03ee0:	161200b9 	bne	s0,s2,bfc041c8 <inst_error>
bfc03ee4:	00000000 	nop
bfc03ee8:	00008010 	mfhi	s0
bfc03eec:	24120000 	li	s2,0
bfc03ef0:	161200b5 	bne	s0,s2,bfc041c8 <inst_error>
bfc03ef4:	00000000 	nop
bfc03ef8:	24080000 	li	t0,0
bfc03efc:	3c09100f 	lui	t1,0x100f
bfc03f00:	35298a64 	ori	t1,t1,0x8a64
bfc03f04:	01090018 	mult	t0,t1
bfc03f08:	00008012 	mflo	s0
bfc03f0c:	24120000 	li	s2,0
bfc03f10:	161200ad 	bne	s0,s2,bfc041c8 <inst_error>
bfc03f14:	00000000 	nop
bfc03f18:	00008010 	mfhi	s0
bfc03f1c:	24120000 	li	s2,0
bfc03f20:	161200a9 	bne	s0,s2,bfc041c8 <inst_error>
bfc03f24:	00000000 	nop
bfc03f28:	24080000 	li	t0,0
bfc03f2c:	3c092c01 	lui	t1,0x2c01
bfc03f30:	352910c0 	ori	t1,t1,0x10c0
bfc03f34:	01090018 	mult	t0,t1
bfc03f38:	00008012 	mflo	s0
bfc03f3c:	24120000 	li	s2,0
bfc03f40:	161200a1 	bne	s0,s2,bfc041c8 <inst_error>
bfc03f44:	00000000 	nop
bfc03f48:	00008010 	mfhi	s0
bfc03f4c:	24120000 	li	s2,0
bfc03f50:	1612009d 	bne	s0,s2,bfc041c8 <inst_error>
bfc03f54:	00000000 	nop
bfc03f58:	24080000 	li	t0,0
bfc03f5c:	3c09f11a 	lui	t1,0xf11a
bfc03f60:	3529127e 	ori	t1,t1,0x127e
bfc03f64:	01090018 	mult	t0,t1
bfc03f68:	00008012 	mflo	s0
bfc03f6c:	24120000 	li	s2,0
bfc03f70:	16120095 	bne	s0,s2,bfc041c8 <inst_error>
bfc03f74:	00000000 	nop
bfc03f78:	00008010 	mfhi	s0
bfc03f7c:	24120000 	li	s2,0
bfc03f80:	16120091 	bne	s0,s2,bfc041c8 <inst_error>
bfc03f84:	00000000 	nop
bfc03f88:	24080000 	li	t0,0
bfc03f8c:	3c09268a 	lui	t1,0x268a
bfc03f90:	3529b898 	ori	t1,t1,0xb898
bfc03f94:	01090018 	mult	t0,t1
bfc03f98:	00008012 	mflo	s0
bfc03f9c:	24120000 	li	s2,0
bfc03fa0:	16120089 	bne	s0,s2,bfc041c8 <inst_error>
bfc03fa4:	00000000 	nop
bfc03fa8:	00008010 	mfhi	s0
bfc03fac:	24120000 	li	s2,0
bfc03fb0:	16120085 	bne	s0,s2,bfc041c8 <inst_error>
bfc03fb4:	00000000 	nop
bfc03fb8:	24080000 	li	t0,0
bfc03fbc:	3c09a60d 	lui	t1,0xa60d
bfc03fc0:	3529e320 	ori	t1,t1,0xe320
bfc03fc4:	01090018 	mult	t0,t1
bfc03fc8:	00008012 	mflo	s0
bfc03fcc:	24120000 	li	s2,0
bfc03fd0:	1612007d 	bne	s0,s2,bfc041c8 <inst_error>
bfc03fd4:	00000000 	nop
bfc03fd8:	00008010 	mfhi	s0
bfc03fdc:	24120000 	li	s2,0
bfc03fe0:	16120079 	bne	s0,s2,bfc041c8 <inst_error>
bfc03fe4:	00000000 	nop
bfc03fe8:	24080000 	li	t0,0
bfc03fec:	3c0987de 	lui	t1,0x87de
bfc03ff0:	35293756 	ori	t1,t1,0x3756
bfc03ff4:	01090018 	mult	t0,t1
bfc03ff8:	00008012 	mflo	s0
bfc03ffc:	24120000 	li	s2,0
bfc04000:	16120071 	bne	s0,s2,bfc041c8 <inst_error>
bfc04004:	00000000 	nop
bfc04008:	00008010 	mfhi	s0
bfc0400c:	24120000 	li	s2,0
bfc04010:	1612006d 	bne	s0,s2,bfc041c8 <inst_error>
bfc04014:	00000000 	nop
bfc04018:	24080000 	li	t0,0
bfc0401c:	3c098cff 	lui	t1,0x8cff
bfc04020:	35298d8b 	ori	t1,t1,0x8d8b
bfc04024:	01090018 	mult	t0,t1
bfc04028:	00008012 	mflo	s0
bfc0402c:	24120000 	li	s2,0
bfc04030:	16120065 	bne	s0,s2,bfc041c8 <inst_error>
bfc04034:	00000000 	nop
bfc04038:	00008010 	mfhi	s0
bfc0403c:	24120000 	li	s2,0
bfc04040:	16120061 	bne	s0,s2,bfc041c8 <inst_error>
bfc04044:	00000000 	nop
bfc04048:	24080000 	li	t0,0
bfc0404c:	3c09b44c 	lui	t1,0xb44c
bfc04050:	352915ba 	ori	t1,t1,0x15ba
bfc04054:	01090018 	mult	t0,t1
bfc04058:	00008012 	mflo	s0
bfc0405c:	24120000 	li	s2,0
bfc04060:	16120059 	bne	s0,s2,bfc041c8 <inst_error>
bfc04064:	00000000 	nop
bfc04068:	00008010 	mfhi	s0
bfc0406c:	24120000 	li	s2,0
bfc04070:	16120055 	bne	s0,s2,bfc041c8 <inst_error>
bfc04074:	00000000 	nop
bfc04078:	24080000 	li	t0,0
bfc0407c:	3c09e6e1 	lui	t1,0xe6e1
bfc04080:	3529176c 	ori	t1,t1,0x176c
bfc04084:	01090018 	mult	t0,t1
bfc04088:	00008012 	mflo	s0
bfc0408c:	24120000 	li	s2,0
bfc04090:	1612004d 	bne	s0,s2,bfc041c8 <inst_error>
bfc04094:	00000000 	nop
bfc04098:	00008010 	mfhi	s0
bfc0409c:	24120000 	li	s2,0
bfc040a0:	16120049 	bne	s0,s2,bfc041c8 <inst_error>
bfc040a4:	00000000 	nop
bfc040a8:	24080000 	li	t0,0
bfc040ac:	3c09dd9d 	lui	t1,0xdd9d
bfc040b0:	3529b0a9 	ori	t1,t1,0xb0a9
bfc040b4:	01090018 	mult	t0,t1
bfc040b8:	00008012 	mflo	s0
bfc040bc:	24120000 	li	s2,0
bfc040c0:	16120041 	bne	s0,s2,bfc041c8 <inst_error>
bfc040c4:	00000000 	nop
bfc040c8:	00008010 	mfhi	s0
bfc040cc:	24120000 	li	s2,0
bfc040d0:	1612003d 	bne	s0,s2,bfc041c8 <inst_error>
bfc040d4:	00000000 	nop
bfc040d8:	24080000 	li	t0,0
bfc040dc:	3c090bec 	lui	t1,0xbec
bfc040e0:	3529a2a6 	ori	t1,t1,0xa2a6
bfc040e4:	01090018 	mult	t0,t1
bfc040e8:	00008012 	mflo	s0
bfc040ec:	24120000 	li	s2,0
bfc040f0:	16120035 	bne	s0,s2,bfc041c8 <inst_error>
bfc040f4:	00000000 	nop
bfc040f8:	00008010 	mfhi	s0
bfc040fc:	24120000 	li	s2,0
bfc04100:	16120031 	bne	s0,s2,bfc041c8 <inst_error>
bfc04104:	00000000 	nop
bfc04108:	24080000 	li	t0,0
bfc0410c:	3c09f2a7 	lui	t1,0xf2a7
bfc04110:	35291fc8 	ori	t1,t1,0x1fc8
bfc04114:	01090018 	mult	t0,t1
bfc04118:	00008012 	mflo	s0
bfc0411c:	24120000 	li	s2,0
bfc04120:	16120029 	bne	s0,s2,bfc041c8 <inst_error>
bfc04124:	00000000 	nop
bfc04128:	00008010 	mfhi	s0
bfc0412c:	24120000 	li	s2,0
bfc04130:	16120025 	bne	s0,s2,bfc041c8 <inst_error>
bfc04134:	00000000 	nop
bfc04138:	24080000 	li	t0,0
bfc0413c:	3c094a6f 	lui	t1,0x4a6f
bfc04140:	35295000 	ori	t1,t1,0x5000
bfc04144:	01090018 	mult	t0,t1
bfc04148:	00008012 	mflo	s0
bfc0414c:	24120000 	li	s2,0
bfc04150:	1612001d 	bne	s0,s2,bfc041c8 <inst_error>
bfc04154:	00000000 	nop
bfc04158:	00008010 	mfhi	s0
bfc0415c:	24120000 	li	s2,0
bfc04160:	16120019 	bne	s0,s2,bfc041c8 <inst_error>
bfc04164:	00000000 	nop
bfc04168:	24080000 	li	t0,0
bfc0416c:	3c09ae15 	lui	t1,0xae15
bfc04170:	3529e524 	ori	t1,t1,0xe524
bfc04174:	01090018 	mult	t0,t1
bfc04178:	00008012 	mflo	s0
bfc0417c:	24120000 	li	s2,0
bfc04180:	16120011 	bne	s0,s2,bfc041c8 <inst_error>
bfc04184:	00000000 	nop
bfc04188:	00008010 	mfhi	s0
bfc0418c:	24120000 	li	s2,0
bfc04190:	1612000d 	bne	s0,s2,bfc041c8 <inst_error>
bfc04194:	00000000 	nop
bfc04198:	24080000 	li	t0,0
bfc0419c:	24090000 	li	t1,0
bfc041a0:	01090018 	mult	t0,t1
bfc041a4:	00008012 	mflo	s0
bfc041a8:	24120000 	li	s2,0
bfc041ac:	16120006 	bne	s0,s2,bfc041c8 <inst_error>
bfc041b0:	00000000 	nop
bfc041b4:	00008010 	mfhi	s0
bfc041b8:	24120000 	li	s2,0
bfc041bc:	16120002 	bne	s0,s2,bfc041c8 <inst_error>
bfc041c0:	00000000 	nop
bfc041c4:	4a000000 	c2	0x0

bfc041c8 <inst_error>:
inst_error():
bfc041c8:	0000003f 	0x3f

Disassembly of section .reginfo:

00000000 <.reginfo>:
   0:	00050300 	sll	zero,a1,0xc
	...
