
build/multu:     file format elf32-tradlittlemips
build/multu


Disassembly of section .text:

bfc00000 <main>:
bfc00000:	3c0899c9 	lui	t0,0x99c9
bfc00004:	3508a500 	ori	t0,t0,0xa500
bfc00008:	3c096c1a 	lui	t1,0x6c1a
bfc0000c:	35291b60 	ori	t1,t1,0x1b60
bfc00010:	01090019 	multu	t0,t1
bfc00014:	00008012 	mflo	s0
bfc00018:	3c12b204 	lui	s2,0xb204
bfc0001c:	3652e000 	ori	s2,s2,0xe000
bfc00020:	16121069 	bne	s0,s2,bfc041c8 <inst_error>
bfc00024:	00000000 	nop
bfc00028:	00008010 	mfhi	s0
bfc0002c:	3c1240f0 	lui	s2,0x40f0
bfc00030:	3652c088 	ori	s2,s2,0xc088
bfc00034:	16121064 	bne	s0,s2,bfc041c8 <inst_error>
bfc00038:	00000000 	nop
bfc0003c:	3c08ee02 	lui	t0,0xee02
bfc00040:	35086dc0 	ori	t0,t0,0x6dc0
bfc00044:	3c09d85e 	lui	t1,0xd85e
bfc00048:	35290aec 	ori	t1,t1,0xaec
bfc0004c:	01090019 	multu	t0,t1
bfc00050:	00008012 	mflo	s0
bfc00054:	3c12cf06 	lui	s2,0xcf06
bfc00058:	3652ad00 	ori	s2,s2,0xad00
bfc0005c:	1612105a 	bne	s0,s2,bfc041c8 <inst_error>
bfc00060:	00000000 	nop
bfc00064:	00008010 	mfhi	s0
bfc00068:	3c12c929 	lui	s2,0xc929
bfc0006c:	36527ba5 	ori	s2,s2,0x7ba5
bfc00070:	16121055 	bne	s0,s2,bfc041c8 <inst_error>
bfc00074:	00000000 	nop
bfc00078:	3c08a49b 	lui	t0,0xa49b
bfc0007c:	350833d4 	ori	t0,t0,0x33d4
bfc00080:	3c09894d 	lui	t1,0x894d
bfc00084:	35296a78 	ori	t1,t1,0x6a78
bfc00088:	01090019 	multu	t0,t1
bfc0008c:	00008012 	mflo	s0
bfc00090:	3c1276fa 	lui	s2,0x76fa
bfc00094:	36521360 	ori	s2,s2,0x1360
bfc00098:	1612104b 	bne	s0,s2,bfc041c8 <inst_error>
bfc0009c:	00000000 	nop
bfc000a0:	00008010 	mfhi	s0
bfc000a4:	3c125848 	lui	s2,0x5848
bfc000a8:	3652d5e0 	ori	s2,s2,0xd5e0
bfc000ac:	16121046 	bne	s0,s2,bfc041c8 <inst_error>
bfc000b0:	00000000 	nop
bfc000b4:	3c08d16d 	lui	t0,0xd16d
bfc000b8:	35080152 	ori	t0,t0,0x152
bfc000bc:	3c09bcd4 	lui	t1,0xbcd4
bfc000c0:	3529f694 	ori	t1,t1,0xf694
bfc000c4:	01090019 	multu	t0,t1
bfc000c8:	00008012 	mflo	s0
bfc000cc:	3c122231 	lui	s2,0x2231
bfc000d0:	36528f68 	ori	s2,s2,0x8f68
bfc000d4:	1612103c 	bne	s0,s2,bfc041c8 <inst_error>
bfc000d8:	00000000 	nop
bfc000dc:	00008010 	mfhi	s0
bfc000e0:	3c129a7a 	lui	s2,0x9a7a
bfc000e4:	365244f5 	ori	s2,s2,0x44f5
bfc000e8:	16121037 	bne	s0,s2,bfc041c8 <inst_error>
bfc000ec:	00000000 	nop
bfc000f0:	3c089880 	lui	t0,0x9880
bfc000f4:	3508cf50 	ori	t0,t0,0xcf50
bfc000f8:	3c09d7e3 	lui	t1,0xd7e3
bfc000fc:	35293d18 	ori	t1,t1,0x3d18
bfc00100:	01090019 	multu	t0,t1
bfc00104:	00008012 	mflo	s0
bfc00108:	3c120169 	lui	s2,0x169
bfc0010c:	36527f80 	ori	s2,s2,0x7f80
bfc00110:	1612102d 	bne	s0,s2,bfc041c8 <inst_error>
bfc00114:	00000000 	nop
bfc00118:	00008010 	mfhi	s0
bfc0011c:	3c12809b 	lui	s2,0x809b
bfc00120:	36528cb9 	ori	s2,s2,0x8cb9
bfc00124:	16121028 	bne	s0,s2,bfc041c8 <inst_error>
bfc00128:	00000000 	nop
bfc0012c:	3c08686d 	lui	t0,0x686d
bfc00130:	3508ecfc 	ori	t0,t0,0xecfc
bfc00134:	3c092bb0 	lui	t1,0x2bb0
bfc00138:	35299c9f 	ori	t1,t1,0x9c9f
bfc0013c:	01090019 	multu	t0,t1
bfc00140:	00008012 	mflo	s0
bfc00144:	3c1219ef 	lui	s2,0x19ef
bfc00148:	3652c084 	ori	s2,s2,0xc084
bfc0014c:	1612101e 	bne	s0,s2,bfc041c8 <inst_error>
bfc00150:	00000000 	nop
bfc00154:	00008010 	mfhi	s0
bfc00158:	3c1211d2 	lui	s2,0x11d2
bfc0015c:	36528245 	ori	s2,s2,0x8245
bfc00160:	16121019 	bne	s0,s2,bfc041c8 <inst_error>
bfc00164:	00000000 	nop
bfc00168:	3c08290c 	lui	t0,0x290c
bfc0016c:	3508a739 	ori	t0,t0,0xa739
bfc00170:	3c09c1cc 	lui	t1,0xc1cc
bfc00174:	35294ec0 	ori	t1,t1,0x4ec0
bfc00178:	01090019 	multu	t0,t1
bfc0017c:	00008012 	mflo	s0
bfc00180:	3c12dedc 	lui	s2,0xdedc
bfc00184:	3652c8c0 	ori	s2,s2,0xc8c0
bfc00188:	1612100f 	bne	s0,s2,bfc041c8 <inst_error>
bfc0018c:	00000000 	nop
bfc00190:	00008010 	mfhi	s0
bfc00194:	3c121f13 	lui	s2,0x1f13
bfc00198:	36524cc7 	ori	s2,s2,0x4cc7
bfc0019c:	1612100a 	bne	s0,s2,bfc041c8 <inst_error>
bfc001a0:	00000000 	nop
bfc001a4:	3c081d1e 	lui	t0,0x1d1e
bfc001a8:	3508b998 	ori	t0,t0,0xb998
bfc001ac:	3c09d5b8 	lui	t1,0xd5b8
bfc001b0:	3529328e 	ori	t1,t1,0x328e
bfc001b4:	01090019 	multu	t0,t1
bfc001b8:	00008012 	mflo	s0
bfc001bc:	3c12048a 	lui	s2,0x48a
bfc001c0:	3652a250 	ori	s2,s2,0xa250
bfc001c4:	16121000 	bne	s0,s2,bfc041c8 <inst_error>
bfc001c8:	00000000 	nop
bfc001cc:	00008010 	mfhi	s0
bfc001d0:	3c12184f 	lui	s2,0x184f
bfc001d4:	36528441 	ori	s2,s2,0x8441
bfc001d8:	16120ffb 	bne	s0,s2,bfc041c8 <inst_error>
bfc001dc:	00000000 	nop
bfc001e0:	3c0879b7 	lui	t0,0x79b7
bfc001e4:	3508d394 	ori	t0,t0,0xd394
bfc001e8:	3c090ba9 	lui	t1,0xba9
bfc001ec:	35299ece 	ori	t1,t1,0x9ece
bfc001f0:	01090019 	multu	t0,t1
bfc001f4:	00008012 	mflo	s0
bfc001f8:	3c126f35 	lui	s2,0x6f35
bfc001fc:	36529918 	ori	s2,s2,0x9918
bfc00200:	16120ff1 	bne	s0,s2,bfc041c8 <inst_error>
bfc00204:	00000000 	nop
bfc00208:	00008010 	mfhi	s0
bfc0020c:	3c12058b 	lui	s2,0x58b
bfc00210:	36528bf3 	ori	s2,s2,0x8bf3
bfc00214:	16120fec 	bne	s0,s2,bfc041c8 <inst_error>
bfc00218:	00000000 	nop
bfc0021c:	3c080d7f 	lui	t0,0xd7f
bfc00220:	35089488 	ori	t0,t0,0x9488
bfc00224:	3c093647 	lui	t1,0x3647
bfc00228:	3529ab9c 	ori	t1,t1,0xab9c
bfc0022c:	01090019 	multu	t0,t1
bfc00230:	00008012 	mflo	s0
bfc00234:	3c1253ad 	lui	s2,0x53ad
bfc00238:	36525ae0 	ori	s2,s2,0x5ae0
bfc0023c:	16120fe2 	bne	s0,s2,bfc041c8 <inst_error>
bfc00240:	00000000 	nop
bfc00244:	00008010 	mfhi	s0
bfc00248:	3c1202dc 	lui	s2,0x2dc
bfc0024c:	3652b0c3 	ori	s2,s2,0xb0c3
bfc00250:	16120fdd 	bne	s0,s2,bfc041c8 <inst_error>
bfc00254:	00000000 	nop
bfc00258:	3c083196 	lui	t0,0x3196
bfc0025c:	3508de58 	ori	t0,t0,0xde58
bfc00260:	3c094c28 	lui	t1,0x4c28
bfc00264:	3529d54e 	ori	t1,t1,0xd54e
bfc00268:	01090019 	multu	t0,t1
bfc0026c:	00008012 	mflo	s0
bfc00270:	3c1280b6 	lui	s2,0x80b6
bfc00274:	3652f6d0 	ori	s2,s2,0xf6d0
bfc00278:	16120fd3 	bne	s0,s2,bfc041c8 <inst_error>
bfc0027c:	00000000 	nop
bfc00280:	00008010 	mfhi	s0
bfc00284:	3c120ec0 	lui	s2,0xec0
bfc00288:	3652b2e6 	ori	s2,s2,0xb2e6
bfc0028c:	16120fce 	bne	s0,s2,bfc041c8 <inst_error>
bfc00290:	00000000 	nop
bfc00294:	3c08473a 	lui	t0,0x473a
bfc00298:	35080e0a 	ori	t0,t0,0xe0a
bfc0029c:	3c09e092 	lui	t1,0xe092
bfc002a0:	35295338 	ori	t1,t1,0x5338
bfc002a4:	01090019 	multu	t0,t1
bfc002a8:	00008012 	mflo	s0
bfc002ac:	3c1228f4 	lui	s2,0x28f4
bfc002b0:	36525030 	ori	s2,s2,0x5030
bfc002b4:	16120fc4 	bne	s0,s2,bfc041c8 <inst_error>
bfc002b8:	00000000 	nop
bfc002bc:	00008010 	mfhi	s0
bfc002c0:	3c123e7b 	lui	s2,0x3e7b
bfc002c4:	3652828c 	ori	s2,s2,0x828c
bfc002c8:	16120fbf 	bne	s0,s2,bfc041c8 <inst_error>
bfc002cc:	00000000 	nop
bfc002d0:	3c083721 	lui	t0,0x3721
bfc002d4:	3508c560 	ori	t0,t0,0xc560
bfc002d8:	3c09e7f3 	lui	t1,0xe7f3
bfc002dc:	35295d08 	ori	t1,t1,0x5d08
bfc002e0:	01090019 	multu	t0,t1
bfc002e4:	00008012 	mflo	s0
bfc002e8:	3c12f7e2 	lui	s2,0xf7e2
bfc002ec:	36520b00 	ori	s2,s2,0xb00
bfc002f0:	16120fb5 	bne	s0,s2,bfc041c8 <inst_error>
bfc002f4:	00000000 	nop
bfc002f8:	00008010 	mfhi	s0
bfc002fc:	3c1231f3 	lui	s2,0x31f3
bfc00300:	3652e230 	ori	s2,s2,0xe230
bfc00304:	16120fb0 	bne	s0,s2,bfc041c8 <inst_error>
bfc00308:	00000000 	nop
bfc0030c:	3c08536c 	lui	t0,0x536c
bfc00310:	3508d050 	ori	t0,t0,0xd050
bfc00314:	3c09675d 	lui	t1,0x675d
bfc00318:	3529c658 	ori	t1,t1,0xc658
bfc0031c:	01090019 	multu	t0,t1
bfc00320:	00008012 	mflo	s0
bfc00324:	3c12b395 	lui	s2,0xb395
bfc00328:	36527b80 	ori	s2,s2,0x7b80
bfc0032c:	16120fa6 	bne	s0,s2,bfc041c8 <inst_error>
bfc00330:	00000000 	nop
bfc00334:	00008010 	mfhi	s0
bfc00338:	3c1221af 	lui	s2,0x21af
bfc0033c:	365256fa 	ori	s2,s2,0x56fa
bfc00340:	16120fa1 	bne	s0,s2,bfc041c8 <inst_error>
bfc00344:	00000000 	nop
bfc00348:	3c082310 	lui	t0,0x2310
bfc0034c:	3508a2f4 	ori	t0,t0,0xa2f4
bfc00350:	3c0907cd 	lui	t1,0x7cd
bfc00354:	35298030 	ori	t1,t1,0x8030
bfc00358:	01090019 	multu	t0,t1
bfc0035c:	00008012 	mflo	s0
bfc00360:	3c120dfc 	lui	s2,0xdfc
bfc00364:	36528dc0 	ori	s2,s2,0x8dc0
bfc00368:	16120f97 	bne	s0,s2,bfc041c8 <inst_error>
bfc0036c:	00000000 	nop
bfc00370:	00008010 	mfhi	s0
bfc00374:	3c120111 	lui	s2,0x111
bfc00378:	36529a56 	ori	s2,s2,0x9a56
bfc0037c:	16120f92 	bne	s0,s2,bfc041c8 <inst_error>
bfc00380:	00000000 	nop
bfc00384:	3c08c2fd 	lui	t0,0xc2fd
bfc00388:	35085307 	ori	t0,t0,0x5307
bfc0038c:	3c09034a 	lui	t1,0x34a
bfc00390:	35293375 	ori	t1,t1,0x3375
bfc00394:	01090019 	multu	t0,t1
bfc00398:	00008012 	mflo	s0
bfc0039c:	3c12aa57 	lui	s2,0xaa57
bfc003a0:	36525733 	ori	s2,s2,0x5733
bfc003a4:	16120f88 	bne	s0,s2,bfc041c8 <inst_error>
bfc003a8:	00000000 	nop
bfc003ac:	00008010 	mfhi	s0
bfc003b0:	3c120281 	lui	s2,0x281
bfc003b4:	36527c64 	ori	s2,s2,0x7c64
bfc003b8:	16120f83 	bne	s0,s2,bfc041c8 <inst_error>
bfc003bc:	00000000 	nop
bfc003c0:	3c0879fb 	lui	t0,0x79fb
bfc003c4:	3508a360 	ori	t0,t0,0xa360
bfc003c8:	3c09cc30 	lui	t1,0xcc30
bfc003cc:	35298ea8 	ori	t1,t1,0x8ea8
bfc003d0:	01090019 	multu	t0,t1
bfc003d4:	00008012 	mflo	s0
bfc003d8:	3c12c3c2 	lui	s2,0xc3c2
bfc003dc:	36527700 	ori	s2,s2,0x7700
bfc003e0:	16120f79 	bne	s0,s2,bfc041c8 <inst_error>
bfc003e4:	00000000 	nop
bfc003e8:	00008010 	mfhi	s0
bfc003ec:	3c12614b 	lui	s2,0x614b
bfc003f0:	3652a958 	ori	s2,s2,0xa958
bfc003f4:	16120f74 	bne	s0,s2,bfc041c8 <inst_error>
bfc003f8:	00000000 	nop
bfc003fc:	3c083f1c 	lui	t0,0x3f1c
bfc00400:	35087b7a 	ori	t0,t0,0x7b7a
bfc00404:	3c0989f4 	lui	t1,0x89f4
bfc00408:	3529a9ff 	ori	t1,t1,0xa9ff
bfc0040c:	01090019 	multu	t0,t1
bfc00410:	00008012 	mflo	s0
bfc00414:	3c12a52a 	lui	s2,0xa52a
bfc00418:	36528886 	ori	s2,s2,0x8886
bfc0041c:	16120f6a 	bne	s0,s2,bfc041c8 <inst_error>
bfc00420:	00000000 	nop
bfc00424:	00008010 	mfhi	s0
bfc00428:	3c122202 	lui	s2,0x2202
bfc0042c:	36528f22 	ori	s2,s2,0x8f22
bfc00430:	16120f65 	bne	s0,s2,bfc041c8 <inst_error>
bfc00434:	00000000 	nop
bfc00438:	3c086451 	lui	t0,0x6451
bfc0043c:	3508cbd8 	ori	t0,t0,0xcbd8
bfc00440:	3c0985dc 	lui	t1,0x85dc
bfc00444:	35292080 	ori	t1,t1,0x2080
bfc00448:	01090019 	multu	t0,t1
bfc0044c:	00008012 	mflo	s0
bfc00450:	3c12c800 	lui	s2,0xc800
bfc00454:	3652ec00 	ori	s2,s2,0xec00
bfc00458:	16120f5b 	bne	s0,s2,bfc041c8 <inst_error>
bfc0045c:	00000000 	nop
bfc00460:	00008010 	mfhi	s0
bfc00464:	3c123474 	lui	s2,0x3474
bfc00468:	3652c1ee 	ori	s2,s2,0xc1ee
bfc0046c:	16120f56 	bne	s0,s2,bfc041c8 <inst_error>
bfc00470:	00000000 	nop
bfc00474:	3c088885 	lui	t0,0x8885
bfc00478:	3508fb40 	ori	t0,t0,0xfb40
bfc0047c:	3c0965a9 	lui	t1,0x65a9
bfc00480:	3529fc18 	ori	t1,t1,0xfc18
bfc00484:	01090019 	multu	t0,t1
bfc00488:	00008012 	mflo	s0
bfc0048c:	3c12cd22 	lui	s2,0xcd22
bfc00490:	36528e00 	ori	s2,s2,0x8e00
bfc00494:	16120f4c 	bne	s0,s2,bfc041c8 <inst_error>
bfc00498:	00000000 	nop
bfc0049c:	00008010 	mfhi	s0
bfc004a0:	3c123637 	lui	s2,0x3637
bfc004a4:	36528303 	ori	s2,s2,0x8303
bfc004a8:	16120f47 	bne	s0,s2,bfc041c8 <inst_error>
bfc004ac:	00000000 	nop
bfc004b0:	3c0871f5 	lui	t0,0x71f5
bfc004b4:	3508e890 	ori	t0,t0,0xe890
bfc004b8:	3c091c7f 	lui	t1,0x1c7f
bfc004bc:	3529ba40 	ori	t1,t1,0xba40
bfc004c0:	01090019 	multu	t0,t1
bfc004c4:	00008012 	mflo	s0
bfc004c8:	3c1247e2 	lui	s2,0x47e2
bfc004cc:	3652c400 	ori	s2,s2,0xc400
bfc004d0:	16120f3d 	bne	s0,s2,bfc041c8 <inst_error>
bfc004d4:	00000000 	nop
bfc004d8:	00008010 	mfhi	s0
bfc004dc:	3c120caf 	lui	s2,0xcaf
bfc004e0:	3652c157 	ori	s2,s2,0xc157
bfc004e4:	16120f38 	bne	s0,s2,bfc041c8 <inst_error>
bfc004e8:	00000000 	nop
bfc004ec:	3c08527b 	lui	t0,0x527b
bfc004f0:	350808db 	ori	t0,t0,0x8db
bfc004f4:	3c09c4c2 	lui	t1,0xc4c2
bfc004f8:	3529d838 	ori	t1,t1,0xd838
bfc004fc:	01090019 	multu	t0,t1
bfc00500:	00008012 	mflo	s0
bfc00504:	3c123c58 	lui	s2,0x3c58
bfc00508:	3652b7e8 	ori	s2,s2,0xb7e8
bfc0050c:	16120f2e 	bne	s0,s2,bfc041c8 <inst_error>
bfc00510:	00000000 	nop
bfc00514:	00008010 	mfhi	s0
bfc00518:	3c123f64 	lui	s2,0x3f64
bfc0051c:	3652f9ae 	ori	s2,s2,0xf9ae
bfc00520:	16120f29 	bne	s0,s2,bfc041c8 <inst_error>
bfc00524:	00000000 	nop
bfc00528:	3c08d2d0 	lui	t0,0xd2d0
bfc0052c:	35080316 	ori	t0,t0,0x316
bfc00530:	3c095ce4 	lui	t1,0x5ce4
bfc00534:	35298028 	ori	t1,t1,0x8028
bfc00538:	01090019 	multu	t0,t1
bfc0053c:	00008012 	mflo	s0
bfc00540:	3c1299a3 	lui	s2,0x99a3
bfc00544:	36527b70 	ori	s2,s2,0x7b70
bfc00548:	16120f1f 	bne	s0,s2,bfc041c8 <inst_error>
bfc0054c:	00000000 	nop
bfc00550:	00008010 	mfhi	s0
bfc00554:	3c124c7e 	lui	s2,0x4c7e
bfc00558:	3652ebe7 	ori	s2,s2,0xebe7
bfc0055c:	16120f1a 	bne	s0,s2,bfc041c8 <inst_error>
bfc00560:	00000000 	nop
bfc00564:	3c08a47b 	lui	t0,0xa47b
bfc00568:	3508a800 	ori	t0,t0,0xa800
bfc0056c:	3c0983d0 	lui	t1,0x83d0
bfc00570:	35296930 	ori	t1,t1,0x6930
bfc00574:	01090019 	multu	t0,t1
bfc00578:	00008012 	mflo	s0
bfc0057c:	3c120f17 	lui	s2,0xf17
bfc00580:	36528000 	ori	s2,s2,0x8000
bfc00584:	16120f10 	bne	s0,s2,bfc041c8 <inst_error>
bfc00588:	00000000 	nop
bfc0058c:	00008010 	mfhi	s0
bfc00590:	3c1254b1 	lui	s2,0x54b1
bfc00594:	36522f06 	ori	s2,s2,0x2f06
bfc00598:	16120f0b 	bne	s0,s2,bfc041c8 <inst_error>
bfc0059c:	00000000 	nop
bfc005a0:	3c08cb3e 	lui	t0,0xcb3e
bfc005a4:	3508ee22 	ori	t0,t0,0xee22
bfc005a8:	3c0959a7 	lui	t1,0x59a7
bfc005ac:	3529fa20 	ori	t1,t1,0xfa20
bfc005b0:	01090019 	multu	t0,t1
bfc005b4:	00008012 	mflo	s0
bfc005b8:	3c120698 	lui	s2,0x698
bfc005bc:	3652f840 	ori	s2,s2,0xf840
bfc005c0:	16120f01 	bne	s0,s2,bfc041c8 <inst_error>
bfc005c4:	00000000 	nop
bfc005c8:	00008010 	mfhi	s0
bfc005cc:	3c12472e 	lui	s2,0x472e
bfc005d0:	36523d6c 	ori	s2,s2,0x3d6c
bfc005d4:	16120efc 	bne	s0,s2,bfc041c8 <inst_error>
bfc005d8:	00000000 	nop
bfc005dc:	3c084092 	lui	t0,0x4092
bfc005e0:	3508ce98 	ori	t0,t0,0xce98
bfc005e4:	3c09ef2c 	lui	t1,0xef2c
bfc005e8:	3529bae3 	ori	t1,t1,0xbae3
bfc005ec:	01090019 	multu	t0,t1
bfc005f0:	00008012 	mflo	s0
bfc005f4:	3c125667 	lui	s2,0x5667
bfc005f8:	3652a0c8 	ori	s2,s2,0xa0c8
bfc005fc:	16120ef2 	bne	s0,s2,bfc041c8 <inst_error>
bfc00600:	00000000 	nop
bfc00604:	00008010 	mfhi	s0
bfc00608:	3c123c54 	lui	s2,0x3c54
bfc0060c:	3652573f 	ori	s2,s2,0x573f
bfc00610:	16120eed 	bne	s0,s2,bfc041c8 <inst_error>
bfc00614:	00000000 	nop
bfc00618:	3c0876a3 	lui	t0,0x76a3
bfc0061c:	3508d520 	ori	t0,t0,0xd520
bfc00620:	3c090219 	lui	t1,0x219
bfc00624:	3529a7f1 	ori	t1,t1,0xa7f1
bfc00628:	01090019 	multu	t0,t1
bfc0062c:	00008012 	mflo	s0
bfc00630:	3c12a063 	lui	s2,0xa063
bfc00634:	36528320 	ori	s2,s2,0x8320
bfc00638:	16120ee3 	bne	s0,s2,bfc041c8 <inst_error>
bfc0063c:	00000000 	nop
bfc00640:	00008010 	mfhi	s0
bfc00644:	3c1200f9 	lui	s2,0xf9
bfc00648:	36522b7e 	ori	s2,s2,0x2b7e
bfc0064c:	16120ede 	bne	s0,s2,bfc041c8 <inst_error>
bfc00650:	00000000 	nop
bfc00654:	3c084dba 	lui	t0,0x4dba
bfc00658:	350887a0 	ori	t0,t0,0x87a0
bfc0065c:	3c09abfd 	lui	t1,0xabfd
bfc00660:	352953c0 	ori	t1,t1,0x53c0
bfc00664:	01090019 	multu	t0,t1
bfc00668:	00008012 	mflo	s0
bfc0066c:	3c12aefe 	lui	s2,0xaefe
bfc00670:	36529800 	ori	s2,s2,0x9800
bfc00674:	16120ed4 	bne	s0,s2,bfc041c8 <inst_error>
bfc00678:	00000000 	nop
bfc0067c:	00008010 	mfhi	s0
bfc00680:	3c123438 	lui	s2,0x3438
bfc00684:	3652835d 	ori	s2,s2,0x835d
bfc00688:	16120ecf 	bne	s0,s2,bfc041c8 <inst_error>
bfc0068c:	00000000 	nop
bfc00690:	3c08b21d 	lui	t0,0xb21d
bfc00694:	3508db80 	ori	t0,t0,0xdb80
bfc00698:	3c0986c4 	lui	t1,0x86c4
bfc0069c:	3529337c 	ori	t1,t1,0x337c
bfc006a0:	01090019 	multu	t0,t1
bfc006a4:	00008012 	mflo	s0
bfc006a8:	3c124730 	lui	s2,0x4730
bfc006ac:	3652d200 	ori	s2,s2,0xd200
bfc006b0:	16120ec5 	bne	s0,s2,bfc041c8 <inst_error>
bfc006b4:	00000000 	nop
bfc006b8:	00008010 	mfhi	s0
bfc006bc:	3c125dc4 	lui	s2,0x5dc4
bfc006c0:	36522393 	ori	s2,s2,0x2393
bfc006c4:	16120ec0 	bne	s0,s2,bfc041c8 <inst_error>
bfc006c8:	00000000 	nop
bfc006cc:	3c0824bf 	lui	t0,0x24bf
bfc006d0:	350843c2 	ori	t0,t0,0x43c2
bfc006d4:	3c095ebb 	lui	t1,0x5ebb
bfc006d8:	3529156c 	ori	t1,t1,0x156c
bfc006dc:	01090019 	multu	t0,t1
bfc006e0:	00008012 	mflo	s0
bfc006e4:	3c12ebf5 	lui	s2,0xebf5
bfc006e8:	36527fd8 	ori	s2,s2,0x7fd8
bfc006ec:	16120eb6 	bne	s0,s2,bfc041c8 <inst_error>
bfc006f0:	00000000 	nop
bfc006f4:	00008010 	mfhi	s0
bfc006f8:	3c120d99 	lui	s2,0xd99
bfc006fc:	365215aa 	ori	s2,s2,0x15aa
bfc00700:	16120eb1 	bne	s0,s2,bfc041c8 <inst_error>
bfc00704:	00000000 	nop
bfc00708:	3c088893 	lui	t0,0x8893
bfc0070c:	35083830 	ori	t0,t0,0x3830
bfc00710:	3c099b18 	lui	t1,0x9b18
bfc00714:	3529625e 	ori	t1,t1,0x625e
bfc00718:	01090019 	multu	t0,t1
bfc0071c:	00008012 	mflo	s0
bfc00720:	3c12d611 	lui	s2,0xd611
bfc00724:	365201a0 	ori	s2,s2,0x1a0
bfc00728:	16120ea7 	bne	s0,s2,bfc041c8 <inst_error>
bfc0072c:	00000000 	nop
bfc00730:	00008010 	mfhi	s0
bfc00734:	3c1252be 	lui	s2,0x52be
bfc00738:	3652254c 	ori	s2,s2,0x254c
bfc0073c:	16120ea2 	bne	s0,s2,bfc041c8 <inst_error>
bfc00740:	00000000 	nop
bfc00744:	3c083bd6 	lui	t0,0x3bd6
bfc00748:	3508f96c 	ori	t0,t0,0xf96c
bfc0074c:	3c091c41 	lui	t1,0x1c41
bfc00750:	35293041 	ori	t1,t1,0x3041
bfc00754:	01090019 	multu	t0,t1
bfc00758:	00008012 	mflo	s0
bfc0075c:	3c12a4c5 	lui	s2,0xa4c5
bfc00760:	3652946c 	ori	s2,s2,0x946c
bfc00764:	16120e98 	bne	s0,s2,bfc041c8 <inst_error>
bfc00768:	00000000 	nop
bfc0076c:	00008010 	mfhi	s0
bfc00770:	3c12069a 	lui	s2,0x69a
bfc00774:	3652c024 	ori	s2,s2,0xc024
bfc00778:	16120e93 	bne	s0,s2,bfc041c8 <inst_error>
bfc0077c:	00000000 	nop
bfc00780:	3c080b09 	lui	t0,0xb09
bfc00784:	35083c0a 	ori	t0,t0,0x3c0a
bfc00788:	3c09f967 	lui	t1,0xf967
bfc0078c:	3529e2ce 	ori	t1,t1,0xe2ce
bfc00790:	01090019 	multu	t0,t1
bfc00794:	00008012 	mflo	s0
bfc00798:	3c12ea75 	lui	s2,0xea75
bfc0079c:	3652240c 	ori	s2,s2,0x240c
bfc007a0:	16120e89 	bne	s0,s2,bfc041c8 <inst_error>
bfc007a4:	00000000 	nop
bfc007a8:	00008010 	mfhi	s0
bfc007ac:	3c120ac0 	lui	s2,0xac0
bfc007b0:	365275e3 	ori	s2,s2,0x75e3
bfc007b4:	16120e84 	bne	s0,s2,bfc041c8 <inst_error>
bfc007b8:	00000000 	nop
bfc007bc:	3c08f0e4 	lui	t0,0xf0e4
bfc007c0:	35086398 	ori	t0,t0,0x6398
bfc007c4:	3c0995db 	lui	t1,0x95db
bfc007c8:	3529f923 	ori	t1,t1,0xf923
bfc007cc:	01090019 	multu	t0,t1
bfc007d0:	00008012 	mflo	s0
bfc007d4:	3c12bf20 	lui	s2,0xbf20
bfc007d8:	365275c8 	ori	s2,s2,0x75c8
bfc007dc:	16120e7a 	bne	s0,s2,bfc041c8 <inst_error>
bfc007e0:	00000000 	nop
bfc007e4:	00008010 	mfhi	s0
bfc007e8:	3c128d03 	lui	s2,0x8d03
bfc007ec:	3652ebc7 	ori	s2,s2,0xebc7
bfc007f0:	16120e75 	bne	s0,s2,bfc041c8 <inst_error>
bfc007f4:	00000000 	nop
bfc007f8:	3c08109f 	lui	t0,0x109f
bfc007fc:	35080e5c 	ori	t0,t0,0xe5c
bfc00800:	3c09c6bd 	lui	t1,0xc6bd
bfc00804:	35294b78 	ori	t1,t1,0x4b78
bfc00808:	01090019 	multu	t0,t1
bfc0080c:	00008012 	mflo	s0
bfc00810:	3c1225af 	lui	s2,0x25af
bfc00814:	3652af20 	ori	s2,s2,0xaf20
bfc00818:	16120e6b 	bne	s0,s2,bfc041c8 <inst_error>
bfc0081c:	00000000 	nop
bfc00820:	00008010 	mfhi	s0
bfc00824:	3c120ce7 	lui	s2,0xce7
bfc00828:	36524f6f 	ori	s2,s2,0x4f6f
bfc0082c:	16120e66 	bne	s0,s2,bfc041c8 <inst_error>
bfc00830:	00000000 	nop
bfc00834:	3c0823a1 	lui	t0,0x23a1
bfc00838:	3508f870 	ori	t0,t0,0xf870
bfc0083c:	3c0988a8 	lui	t1,0x88a8
bfc00840:	35290670 	ori	t1,t1,0x670
bfc00844:	01090019 	multu	t0,t1
bfc00848:	00008012 	mflo	s0
bfc0084c:	3c12ec2f 	lui	s2,0xec2f
bfc00850:	36525100 	ori	s2,s2,0x5100
bfc00854:	16120e5c 	bne	s0,s2,bfc041c8 <inst_error>
bfc00858:	00000000 	nop
bfc0085c:	00008010 	mfhi	s0
bfc00860:	3c121305 	lui	s2,0x1305
bfc00864:	36526f2b 	ori	s2,s2,0x6f2b
bfc00868:	16120e57 	bne	s0,s2,bfc041c8 <inst_error>
bfc0086c:	00000000 	nop
bfc00870:	3c08383b 	lui	t0,0x383b
bfc00874:	3508f8e0 	ori	t0,t0,0xf8e0
bfc00878:	3c0978e1 	lui	t1,0x78e1
bfc0087c:	35291c9e 	ori	t1,t1,0x1c9e
bfc00880:	01090019 	multu	t0,t1
bfc00884:	00008012 	mflo	s0
bfc00888:	3c12011c 	lui	s2,0x11c
bfc0088c:	36521a40 	ori	s2,s2,0x1a40
bfc00890:	16120e4d 	bne	s0,s2,bfc041c8 <inst_error>
bfc00894:	00000000 	nop
bfc00898:	00008010 	mfhi	s0
bfc0089c:	3c121a8d 	lui	s2,0x1a8d
bfc008a0:	36528fa8 	ori	s2,s2,0x8fa8
bfc008a4:	16120e48 	bne	s0,s2,bfc041c8 <inst_error>
bfc008a8:	00000000 	nop
bfc008ac:	3c087a24 	lui	t0,0x7a24
bfc008b0:	35089e47 	ori	t0,t0,0x9e47
bfc008b4:	3c09de35 	lui	t1,0xde35
bfc008b8:	3529e25c 	ori	t1,t1,0xe25c
bfc008bc:	01090019 	multu	t0,t1
bfc008c0:	00008012 	mflo	s0
bfc008c4:	3c128f96 	lui	s2,0x8f96
bfc008c8:	36528f84 	ori	s2,s2,0x8f84
bfc008cc:	16120e3e 	bne	s0,s2,bfc041c8 <inst_error>
bfc008d0:	00000000 	nop
bfc008d4:	00008010 	mfhi	s0
bfc008d8:	3c126a05 	lui	s2,0x6a05
bfc008dc:	365276d6 	ori	s2,s2,0x76d6
bfc008e0:	16120e39 	bne	s0,s2,bfc041c8 <inst_error>
bfc008e4:	00000000 	nop
bfc008e8:	3c089bbd 	lui	t0,0x9bbd
bfc008ec:	35081a87 	ori	t0,t0,0x1a87
bfc008f0:	3c0987bc 	lui	t1,0x87bc
bfc008f4:	3529ed28 	ori	t1,t1,0xed28
bfc008f8:	01090019 	multu	t0,t1
bfc008fc:	00008012 	mflo	s0
bfc00900:	3c12133f 	lui	s2,0x133f
bfc00904:	36522018 	ori	s2,s2,0x2018
bfc00908:	16120e2f 	bne	s0,s2,bfc041c8 <inst_error>
bfc0090c:	00000000 	nop
bfc00910:	00008010 	mfhi	s0
bfc00914:	3c125293 	lui	s2,0x5293
bfc00918:	3652a823 	ori	s2,s2,0xa823
bfc0091c:	16120e2a 	bne	s0,s2,bfc041c8 <inst_error>
bfc00920:	00000000 	nop
bfc00924:	3c0858b0 	lui	t0,0x58b0
bfc00928:	3508b4c2 	ori	t0,t0,0xb4c2
bfc0092c:	3c094b2e 	lui	t1,0x4b2e
bfc00930:	3529af04 	ori	t1,t1,0xaf04
bfc00934:	01090019 	multu	t0,t1
bfc00938:	00008012 	mflo	s0
bfc0093c:	3c127f2f 	lui	s2,0x7f2f
bfc00940:	36527108 	ori	s2,s2,0x7108
bfc00944:	16120e20 	bne	s0,s2,bfc041c8 <inst_error>
bfc00948:	00000000 	nop
bfc0094c:	00008010 	mfhi	s0
bfc00950:	3c121a0b 	lui	s2,0x1a0b
bfc00954:	3652f157 	ori	s2,s2,0xf157
bfc00958:	16120e1b 	bne	s0,s2,bfc041c8 <inst_error>
bfc0095c:	00000000 	nop
bfc00960:	3c08abb5 	lui	t0,0xabb5
bfc00964:	3508baa8 	ori	t0,t0,0xbaa8
bfc00968:	3c09e59a 	lui	t1,0xe59a
bfc0096c:	35290d6c 	ori	t1,t1,0xd6c
bfc00970:	01090019 	multu	t0,t1
bfc00974:	00008012 	mflo	s0
bfc00978:	3c123c35 	lui	s2,0x3c35
bfc0097c:	365246e0 	ori	s2,s2,0x46e0
bfc00980:	16120e11 	bne	s0,s2,bfc041c8 <inst_error>
bfc00984:	00000000 	nop
bfc00988:	00008010 	mfhi	s0
bfc0098c:	3c129a00 	lui	s2,0x9a00
bfc00990:	3652e44b 	ori	s2,s2,0xe44b
bfc00994:	16120e0c 	bne	s0,s2,bfc041c8 <inst_error>
bfc00998:	00000000 	nop
bfc0099c:	3c08ef33 	lui	t0,0xef33
bfc009a0:	35081cb8 	ori	t0,t0,0x1cb8
bfc009a4:	3c09b5a9 	lui	t1,0xb5a9
bfc009a8:	35298f8c 	ori	t1,t1,0x8f8c
bfc009ac:	01090019 	multu	t0,t1
bfc009b0:	00008012 	mflo	s0
bfc009b4:	3c126a76 	lui	s2,0x6a76
bfc009b8:	36527ca0 	ori	s2,s2,0x7ca0
bfc009bc:	16120e02 	bne	s0,s2,bfc041c8 <inst_error>
bfc009c0:	00000000 	nop
bfc009c4:	00008010 	mfhi	s0
bfc009c8:	3c12a9bd 	lui	s2,0xa9bd
bfc009cc:	3652922c 	ori	s2,s2,0x922c
bfc009d0:	16120dfd 	bne	s0,s2,bfc041c8 <inst_error>
bfc009d4:	00000000 	nop
bfc009d8:	3c08fbd2 	lui	t0,0xfbd2
bfc009dc:	35081f10 	ori	t0,t0,0x1f10
bfc009e0:	3c09e381 	lui	t1,0xe381
bfc009e4:	3529c1fc 	ori	t1,t1,0xc1fc
bfc009e8:	01090019 	multu	t0,t1
bfc009ec:	00008012 	mflo	s0
bfc009f0:	3c122351 	lui	s2,0x2351
bfc009f4:	3652a3c0 	ori	s2,s2,0xa3c0
bfc009f8:	16120df3 	bne	s0,s2,bfc041c8 <inst_error>
bfc009fc:	00000000 	nop
bfc00a00:	00008010 	mfhi	s0
bfc00a04:	3c12dfca 	lui	s2,0xdfca
bfc00a08:	3652f53e 	ori	s2,s2,0xf53e
bfc00a0c:	16120dee 	bne	s0,s2,bfc041c8 <inst_error>
bfc00a10:	00000000 	nop
bfc00a14:	3c080e43 	lui	t0,0xe43
bfc00a18:	35087d14 	ori	t0,t0,0x7d14
bfc00a1c:	3c09f764 	lui	t1,0xf764
bfc00a20:	352994cd 	ori	t1,t1,0x94cd
bfc00a24:	01090019 	multu	t0,t1
bfc00a28:	00008012 	mflo	s0
bfc00a2c:	3c12982a 	lui	s2,0x982a
bfc00a30:	3652b904 	ori	s2,s2,0xb904
bfc00a34:	16120de4 	bne	s0,s2,bfc041c8 <inst_error>
bfc00a38:	00000000 	nop
bfc00a3c:	00008010 	mfhi	s0
bfc00a40:	3c120dc8 	lui	s2,0xdc8
bfc00a44:	3652b855 	ori	s2,s2,0xb855
bfc00a48:	16120ddf 	bne	s0,s2,bfc041c8 <inst_error>
bfc00a4c:	00000000 	nop
bfc00a50:	3c0836f9 	lui	t0,0x36f9
bfc00a54:	35087280 	ori	t0,t0,0x7280
bfc00a58:	3c09d2dc 	lui	t1,0xd2dc
bfc00a5c:	352944ac 	ori	t1,t1,0x44ac
bfc00a60:	01090019 	multu	t0,t1
bfc00a64:	00008012 	mflo	s0
bfc00a68:	3c129802 	lui	s2,0x9802
bfc00a6c:	3652ee00 	ori	s2,s2,0xee00
bfc00a70:	16120dd5 	bne	s0,s2,bfc041c8 <inst_error>
bfc00a74:	00000000 	nop
bfc00a78:	00008010 	mfhi	s0
bfc00a7c:	3c122d47 	lui	s2,0x2d47
bfc00a80:	3652ed0a 	ori	s2,s2,0xed0a
bfc00a84:	16120dd0 	bne	s0,s2,bfc041c8 <inst_error>
bfc00a88:	00000000 	nop
bfc00a8c:	3c08c019 	lui	t0,0xc019
bfc00a90:	35086848 	ori	t0,t0,0x6848
bfc00a94:	3c0923e6 	lui	t1,0x23e6
bfc00a98:	352972e2 	ori	t1,t1,0x72e2
bfc00a9c:	01090019 	multu	t0,t1
bfc00aa0:	00008012 	mflo	s0
bfc00aa4:	3c126f8e 	lui	s2,0x6f8e
bfc00aa8:	36521f90 	ori	s2,s2,0x1f90
bfc00aac:	16120dc6 	bne	s0,s2,bfc041c8 <inst_error>
bfc00ab0:	00000000 	nop
bfc00ab4:	00008010 	mfhi	s0
bfc00ab8:	3c121af0 	lui	s2,0x1af0
bfc00abc:	3652664a 	ori	s2,s2,0x664a
bfc00ac0:	16120dc1 	bne	s0,s2,bfc041c8 <inst_error>
bfc00ac4:	00000000 	nop
bfc00ac8:	3c08ad0a 	lui	t0,0xad0a
bfc00acc:	3508f755 	ori	t0,t0,0xf755
bfc00ad0:	3c0946ab 	lui	t1,0x46ab
bfc00ad4:	35298a3c 	ori	t1,t1,0x8a3c
bfc00ad8:	01090019 	multu	t0,t1
bfc00adc:	00008012 	mflo	s0
bfc00ae0:	3c12ebac 	lui	s2,0xebac
bfc00ae4:	3652c9ec 	ori	s2,s2,0xc9ec
bfc00ae8:	16120db7 	bne	s0,s2,bfc041c8 <inst_error>
bfc00aec:	00000000 	nop
bfc00af0:	00008010 	mfhi	s0
bfc00af4:	3c122fc4 	lui	s2,0x2fc4
bfc00af8:	3652f364 	ori	s2,s2,0xf364
bfc00afc:	16120db2 	bne	s0,s2,bfc041c8 <inst_error>
bfc00b00:	00000000 	nop
bfc00b04:	3c0878c4 	lui	t0,0x78c4
bfc00b08:	350838e8 	ori	t0,t0,0x38e8
bfc00b0c:	3c09b592 	lui	t1,0xb592
bfc00b10:	352996e0 	ori	t1,t1,0x96e0
bfc00b14:	01090019 	multu	t0,t1
bfc00b18:	00008012 	mflo	s0
bfc00b1c:	3c122159 	lui	s2,0x2159
bfc00b20:	3652bb00 	ori	s2,s2,0xbb00
bfc00b24:	16120da8 	bne	s0,s2,bfc041c8 <inst_error>
bfc00b28:	00000000 	nop
bfc00b2c:	00008010 	mfhi	s0
bfc00b30:	3c1255a7 	lui	s2,0x55a7
bfc00b34:	3652e351 	ori	s2,s2,0xe351
bfc00b38:	16120da3 	bne	s0,s2,bfc041c8 <inst_error>
bfc00b3c:	00000000 	nop
bfc00b40:	3c089541 	lui	t0,0x9541
bfc00b44:	35087ec8 	ori	t0,t0,0x7ec8
bfc00b48:	3c09cdef 	lui	t1,0xcdef
bfc00b4c:	352910ec 	ori	t1,t1,0x10ec
bfc00b50:	01090019 	multu	t0,t1
bfc00b54:	00008012 	mflo	s0
bfc00b58:	3c123505 	lui	s2,0x3505
bfc00b5c:	36526060 	ori	s2,s2,0x6060
bfc00b60:	16120d99 	bne	s0,s2,bfc041c8 <inst_error>
bfc00b64:	00000000 	nop
bfc00b68:	00008010 	mfhi	s0
bfc00b6c:	3c127810 	lui	s2,0x7810
bfc00b70:	3652d489 	ori	s2,s2,0xd489
bfc00b74:	16120d94 	bne	s0,s2,bfc041c8 <inst_error>
bfc00b78:	00000000 	nop
bfc00b7c:	3c08abd4 	lui	t0,0xabd4
bfc00b80:	35082ba4 	ori	t0,t0,0x2ba4
bfc00b84:	3c099f4d 	lui	t1,0x9f4d
bfc00b88:	3529fd40 	ori	t1,t1,0xfd40
bfc00b8c:	01090019 	multu	t0,t1
bfc00b90:	00008012 	mflo	s0
bfc00b94:	3c12a07f 	lui	s2,0xa07f
bfc00b98:	3652fd00 	ori	s2,s2,0xfd00
bfc00b9c:	16120d8a 	bne	s0,s2,bfc041c8 <inst_error>
bfc00ba0:	00000000 	nop
bfc00ba4:	00008010 	mfhi	s0
bfc00ba8:	3c126aed 	lui	s2,0x6aed
bfc00bac:	36521fe7 	ori	s2,s2,0x1fe7
bfc00bb0:	16120d85 	bne	s0,s2,bfc041c8 <inst_error>
bfc00bb4:	00000000 	nop
bfc00bb8:	3c089c76 	lui	t0,0x9c76
bfc00bbc:	35087890 	ori	t0,t0,0x7890
bfc00bc0:	3c0913f1 	lui	t1,0x13f1
bfc00bc4:	35290784 	ori	t1,t1,0x784
bfc00bc8:	01090019 	multu	t0,t1
bfc00bcc:	00008012 	mflo	s0
bfc00bd0:	3c1219f2 	lui	s2,0x19f2
bfc00bd4:	36521a40 	ori	s2,s2,0x1a40
bfc00bd8:	16120d7b 	bne	s0,s2,bfc041c8 <inst_error>
bfc00bdc:	00000000 	nop
bfc00be0:	00008010 	mfhi	s0
bfc00be4:	3c120c30 	lui	s2,0xc30
bfc00be8:	36521b12 	ori	s2,s2,0x1b12
bfc00bec:	16120d76 	bne	s0,s2,bfc041c8 <inst_error>
bfc00bf0:	00000000 	nop
bfc00bf4:	3c083371 	lui	t0,0x3371
bfc00bf8:	350874a4 	ori	t0,t0,0x74a4
bfc00bfc:	3c0953b2 	lui	t1,0x53b2
bfc00c00:	3529a442 	ori	t1,t1,0xa442
bfc00c04:	01090019 	multu	t0,t1
bfc00c08:	00008012 	mflo	s0
bfc00c0c:	3c123801 	lui	s2,0x3801
bfc00c10:	36522248 	ori	s2,s2,0x2248
bfc00c14:	16120d6c 	bne	s0,s2,bfc041c8 <inst_error>
bfc00c18:	00000000 	nop
bfc00c1c:	00008010 	mfhi	s0
bfc00c20:	3c1210d1 	lui	s2,0x10d1
bfc00c24:	3652aeb6 	ori	s2,s2,0xaeb6
bfc00c28:	16120d67 	bne	s0,s2,bfc041c8 <inst_error>
bfc00c2c:	00000000 	nop
bfc00c30:	3c088bbc 	lui	t0,0x8bbc
bfc00c34:	35084c00 	ori	t0,t0,0x4c00
bfc00c38:	3c094f9e 	lui	t1,0x4f9e
bfc00c3c:	3529d450 	ori	t1,t1,0xd450
bfc00c40:	01090019 	multu	t0,t1
bfc00c44:	00008012 	mflo	s0
bfc00c48:	3c1281c7 	lui	s2,0x81c7
bfc00c4c:	3652c000 	ori	s2,s2,0xc000
bfc00c50:	16120d5d 	bne	s0,s2,bfc041c8 <inst_error>
bfc00c54:	00000000 	nop
bfc00c58:	00008010 	mfhi	s0
bfc00c5c:	3c122b75 	lui	s2,0x2b75
bfc00c60:	3652cd8e 	ori	s2,s2,0xcd8e
bfc00c64:	16120d58 	bne	s0,s2,bfc041c8 <inst_error>
bfc00c68:	00000000 	nop
bfc00c6c:	3c0898e3 	lui	t0,0x98e3
bfc00c70:	35089c2e 	ori	t0,t0,0x9c2e
bfc00c74:	3c09db32 	lui	t1,0xdb32
bfc00c78:	3529e0b0 	ori	t1,t1,0xe0b0
bfc00c7c:	01090019 	multu	t0,t1
bfc00c80:	00008012 	mflo	s0
bfc00c84:	3c12201f 	lui	s2,0x201f
bfc00c88:	36529fa0 	ori	s2,s2,0x9fa0
bfc00c8c:	16120d4e 	bne	s0,s2,bfc041c8 <inst_error>
bfc00c90:	00000000 	nop
bfc00c94:	00008010 	mfhi	s0
bfc00c98:	3c1282e9 	lui	s2,0x82e9
bfc00c9c:	36521940 	ori	s2,s2,0x1940
bfc00ca0:	16120d49 	bne	s0,s2,bfc041c8 <inst_error>
bfc00ca4:	00000000 	nop
bfc00ca8:	3c086b08 	lui	t0,0x6b08
bfc00cac:	3508ed68 	ori	t0,t0,0xed68
bfc00cb0:	3c091ec9 	lui	t1,0x1ec9
bfc00cb4:	35293800 	ori	t1,t1,0x3800
bfc00cb8:	01090019 	multu	t0,t1
bfc00cbc:	00008012 	mflo	s0
bfc00cc0:	3c128a96 	lui	s2,0x8a96
bfc00cc4:	3652c000 	ori	s2,s2,0xc000
bfc00cc8:	16120d3f 	bne	s0,s2,bfc041c8 <inst_error>
bfc00ccc:	00000000 	nop
bfc00cd0:	00008010 	mfhi	s0
bfc00cd4:	3c120cdf 	lui	s2,0xcdf
bfc00cd8:	36522d3e 	ori	s2,s2,0x2d3e
bfc00cdc:	16120d3a 	bne	s0,s2,bfc041c8 <inst_error>
bfc00ce0:	00000000 	nop
bfc00ce4:	3c08deda 	lui	t0,0xdeda
bfc00ce8:	3508acc4 	ori	t0,t0,0xacc4
bfc00cec:	3c096522 	lui	t1,0x6522
bfc00cf0:	352903d0 	ori	t1,t1,0x3d0
bfc00cf4:	01090019 	multu	t0,t1
bfc00cf8:	00008012 	mflo	s0
bfc00cfc:	3c12e7ba 	lui	s2,0xe7ba
bfc00d00:	3652ab40 	ori	s2,s2,0xab40
bfc00d04:	16120d30 	bne	s0,s2,bfc041c8 <inst_error>
bfc00d08:	00000000 	nop
bfc00d0c:	00008010 	mfhi	s0
bfc00d10:	3c125809 	lui	s2,0x5809
bfc00d14:	3652e285 	ori	s2,s2,0xe285
bfc00d18:	16120d2b 	bne	s0,s2,bfc041c8 <inst_error>
bfc00d1c:	00000000 	nop
bfc00d20:	3c08a715 	lui	t0,0xa715
bfc00d24:	35081a96 	ori	t0,t0,0x1a96
bfc00d28:	3c094efa 	lui	t1,0x4efa
bfc00d2c:	3529b6b6 	ori	t1,t1,0xb6b6
bfc00d30:	01090019 	multu	t0,t1
bfc00d34:	00008012 	mflo	s0
bfc00d38:	3c127463 	lui	s2,0x7463
bfc00d3c:	36528aa4 	ori	s2,s2,0x8aa4
bfc00d40:	16120d21 	bne	s0,s2,bfc041c8 <inst_error>
bfc00d44:	00000000 	nop
bfc00d48:	00008010 	mfhi	s0
bfc00d4c:	3c12338c 	lui	s2,0x338c
bfc00d50:	36520ff5 	ori	s2,s2,0xff5
bfc00d54:	16120d1c 	bne	s0,s2,bfc041c8 <inst_error>
bfc00d58:	00000000 	nop
bfc00d5c:	3c08b11d 	lui	t0,0xb11d
bfc00d60:	3508f5a0 	ori	t0,t0,0xf5a0
bfc00d64:	3c097312 	lui	t1,0x7312
bfc00d68:	3529ec50 	ori	t1,t1,0xec50
bfc00d6c:	01090019 	multu	t0,t1
bfc00d70:	00008012 	mflo	s0
bfc00d74:	3c121d0c 	lui	s2,0x1d0c
bfc00d78:	36524200 	ori	s2,s2,0x4200
bfc00d7c:	16120d12 	bne	s0,s2,bfc041c8 <inst_error>
bfc00d80:	00000000 	nop
bfc00d84:	00008010 	mfhi	s0
bfc00d88:	3c124f9d 	lui	s2,0x4f9d
bfc00d8c:	36528cf1 	ori	s2,s2,0x8cf1
bfc00d90:	16120d0d 	bne	s0,s2,bfc041c8 <inst_error>
bfc00d94:	00000000 	nop
bfc00d98:	3c08800e 	lui	t0,0x800e
bfc00d9c:	35084cb0 	ori	t0,t0,0x4cb0
bfc00da0:	3c0939de 	lui	t1,0x39de
bfc00da4:	35296540 	ori	t1,t1,0x6540
bfc00da8:	01090019 	multu	t0,t1
bfc00dac:	00008012 	mflo	s0
bfc00db0:	3c125874 	lui	s2,0x5874
bfc00db4:	36529c00 	ori	s2,s2,0x9c00
bfc00db8:	16120d03 	bne	s0,s2,bfc041c8 <inst_error>
bfc00dbc:	00000000 	nop
bfc00dc0:	00008010 	mfhi	s0
bfc00dc4:	3c121cf2 	lui	s2,0x1cf2
bfc00dc8:	36526e1f 	ori	s2,s2,0x6e1f
bfc00dcc:	16120cfe 	bne	s0,s2,bfc041c8 <inst_error>
bfc00dd0:	00000000 	nop
bfc00dd4:	3c086ba0 	lui	t0,0x6ba0
bfc00dd8:	35081e66 	ori	t0,t0,0x1e66
bfc00ddc:	3c096141 	lui	t1,0x6141
bfc00de0:	3529f7c8 	ori	t1,t1,0xf7c8
bfc00de4:	01090019 	multu	t0,t1
bfc00de8:	00008012 	mflo	s0
bfc00dec:	3c12f052 	lui	s2,0xf052
bfc00df0:	365229b0 	ori	s2,s2,0x29b0
bfc00df4:	16120cf4 	bne	s0,s2,bfc041c8 <inst_error>
bfc00df8:	00000000 	nop
bfc00dfc:	00008010 	mfhi	s0
bfc00e00:	3c1228e3 	lui	s2,0x28e3
bfc00e04:	36526757 	ori	s2,s2,0x6757
bfc00e08:	16120cef 	bne	s0,s2,bfc041c8 <inst_error>
bfc00e0c:	00000000 	nop
bfc00e10:	3c0805c0 	lui	t0,0x5c0
bfc00e14:	35081d30 	ori	t0,t0,0x1d30
bfc00e18:	3c0951b5 	lui	t1,0x51b5
bfc00e1c:	3529330e 	ori	t1,t1,0x330e
bfc00e20:	01090019 	multu	t0,t1
bfc00e24:	00008012 	mflo	s0
bfc00e28:	3c126942 	lui	s2,0x6942
bfc00e2c:	365228a0 	ori	s2,s2,0x28a0
bfc00e30:	16120ce5 	bne	s0,s2,bfc041c8 <inst_error>
bfc00e34:	00000000 	nop
bfc00e38:	00008010 	mfhi	s0
bfc00e3c:	3c1201d5 	lui	s2,0x1d5
bfc00e40:	3652db36 	ori	s2,s2,0xdb36
bfc00e44:	16120ce0 	bne	s0,s2,bfc041c8 <inst_error>
bfc00e48:	00000000 	nop
bfc00e4c:	3c087b68 	lui	t0,0x7b68
bfc00e50:	35085660 	ori	t0,t0,0x5660
bfc00e54:	3c095571 	lui	t1,0x5571
bfc00e58:	352952ba 	ori	t1,t1,0x52ba
bfc00e5c:	01090019 	multu	t0,t1
bfc00e60:	00008012 	mflo	s0
bfc00e64:	3c1215d9 	lui	s2,0x15d9
bfc00e68:	365281c0 	ori	s2,s2,0x81c0
bfc00e6c:	16120cd6 	bne	s0,s2,bfc041c8 <inst_error>
bfc00e70:	00000000 	nop
bfc00e74:	00008010 	mfhi	s0
bfc00e78:	3c122930 	lui	s2,0x2930
bfc00e7c:	3652459d 	ori	s2,s2,0x459d
bfc00e80:	16120cd1 	bne	s0,s2,bfc041c8 <inst_error>
bfc00e84:	00000000 	nop
bfc00e88:	3c084396 	lui	t0,0x4396
bfc00e8c:	3508b2d6 	ori	t0,t0,0xb2d6
bfc00e90:	3c097d40 	lui	t1,0x7d40
bfc00e94:	3529f2c4 	ori	t1,t1,0xf2c4
bfc00e98:	01090019 	multu	t0,t1
bfc00e9c:	00008012 	mflo	s0
bfc00ea0:	3c1267ef 	lui	s2,0x67ef
bfc00ea4:	365237d8 	ori	s2,s2,0x37d8
bfc00ea8:	16120cc7 	bne	s0,s2,bfc041c8 <inst_error>
bfc00eac:	00000000 	nop
bfc00eb0:	00008010 	mfhi	s0
bfc00eb4:	3c122111 	lui	s2,0x2111
bfc00eb8:	3652bb17 	ori	s2,s2,0xbb17
bfc00ebc:	16120cc2 	bne	s0,s2,bfc041c8 <inst_error>
bfc00ec0:	00000000 	nop
bfc00ec4:	3c08a33d 	lui	t0,0xa33d
bfc00ec8:	350854b2 	ori	t0,t0,0x54b2
bfc00ecc:	3c091ff7 	lui	t1,0x1ff7
bfc00ed0:	3529f310 	ori	t1,t1,0xf310
bfc00ed4:	01090019 	multu	t0,t1
bfc00ed8:	00008012 	mflo	s0
bfc00edc:	3c12b0f8 	lui	s2,0xb0f8
bfc00ee0:	36524120 	ori	s2,s2,0x4120
bfc00ee4:	16120cb8 	bne	s0,s2,bfc041c8 <inst_error>
bfc00ee8:	00000000 	nop
bfc00eec:	00008010 	mfhi	s0
bfc00ef0:	3c121462 	lui	s2,0x1462
bfc00ef4:	3652886b 	ori	s2,s2,0x886b
bfc00ef8:	16120cb3 	bne	s0,s2,bfc041c8 <inst_error>
bfc00efc:	00000000 	nop
bfc00f00:	3c08827d 	lui	t0,0x827d
bfc00f04:	35084976 	ori	t0,t0,0x4976
bfc00f08:	3c0946c7 	lui	t1,0x46c7
bfc00f0c:	3529d260 	ori	t1,t1,0xd260
bfc00f10:	01090019 	multu	t0,t1
bfc00f14:	00008012 	mflo	s0
bfc00f18:	3c1213f8 	lui	s2,0x13f8
bfc00f1c:	36525840 	ori	s2,s2,0x5840
bfc00f20:	16120ca9 	bne	s0,s2,bfc041c8 <inst_error>
bfc00f24:	00000000 	nop
bfc00f28:	00008010 	mfhi	s0
bfc00f2c:	3c122414 	lui	s2,0x2414
bfc00f30:	36521cb6 	ori	s2,s2,0x1cb6
bfc00f34:	16120ca4 	bne	s0,s2,bfc041c8 <inst_error>
bfc00f38:	00000000 	nop
bfc00f3c:	3c08b2c4 	lui	t0,0xb2c4
bfc00f40:	35086680 	ori	t0,t0,0x6680
bfc00f44:	3c092106 	lui	t1,0x2106
bfc00f48:	3529dc9b 	ori	t1,t1,0xdc9b
bfc00f4c:	01090019 	multu	t0,t1
bfc00f50:	00008012 	mflo	s0
bfc00f54:	3c12ec00 	lui	s2,0xec00
bfc00f58:	36520f80 	ori	s2,s2,0xf80
bfc00f5c:	16120c9a 	bne	s0,s2,bfc041c8 <inst_error>
bfc00f60:	00000000 	nop
bfc00f64:	00008010 	mfhi	s0
bfc00f68:	3c121710 	lui	s2,0x1710
bfc00f6c:	36521bdd 	ori	s2,s2,0x1bdd
bfc00f70:	16120c95 	bne	s0,s2,bfc041c8 <inst_error>
bfc00f74:	00000000 	nop
bfc00f78:	3c0861e8 	lui	t0,0x61e8
bfc00f7c:	3508744c 	ori	t0,t0,0x744c
bfc00f80:	3c09f048 	lui	t1,0xf048
bfc00f84:	35295710 	ori	t1,t1,0x5710
bfc00f88:	01090019 	multu	t0,t1
bfc00f8c:	00008012 	mflo	s0
bfc00f90:	3c12136d 	lui	s2,0x136d
bfc00f94:	365218c0 	ori	s2,s2,0x18c0
bfc00f98:	16120c8b 	bne	s0,s2,bfc041c8 <inst_error>
bfc00f9c:	00000000 	nop
bfc00fa0:	00008010 	mfhi	s0
bfc00fa4:	3c125be5 	lui	s2,0x5be5
bfc00fa8:	365297b4 	ori	s2,s2,0x97b4
bfc00fac:	16120c86 	bne	s0,s2,bfc041c8 <inst_error>
bfc00fb0:	00000000 	nop
bfc00fb4:	3c085105 	lui	t0,0x5105
bfc00fb8:	350823c0 	ori	t0,t0,0x23c0
bfc00fbc:	3c09c4ee 	lui	t1,0xc4ee
bfc00fc0:	3529f4ec 	ori	t1,t1,0xf4ec
bfc00fc4:	01090019 	multu	t0,t1
bfc00fc8:	00008012 	mflo	s0
bfc00fcc:	3c12d34f 	lui	s2,0xd34f
bfc00fd0:	3652f500 	ori	s2,s2,0xf500
bfc00fd4:	16120c7c 	bne	s0,s2,bfc041c8 <inst_error>
bfc00fd8:	00000000 	nop
bfc00fdc:	00008010 	mfhi	s0
bfc00fe0:	3c123e53 	lui	s2,0x3e53
bfc00fe4:	36528fa9 	ori	s2,s2,0x8fa9
bfc00fe8:	16120c77 	bne	s0,s2,bfc041c8 <inst_error>
bfc00fec:	00000000 	nop
bfc00ff0:	3c086cab 	lui	t0,0x6cab
bfc00ff4:	35085300 	ori	t0,t0,0x5300
bfc00ff8:	3c0924d4 	lui	t1,0x24d4
bfc00ffc:	35297fd0 	ori	t1,t1,0x7fd0
bfc01000:	01090019 	multu	t0,t1
bfc01004:	00008012 	mflo	s0
bfc01008:	3c120560 	lui	s2,0x560
bfc0100c:	36527000 	ori	s2,s2,0x7000
bfc01010:	16120c6d 	bne	s0,s2,bfc041c8 <inst_error>
bfc01014:	00000000 	nop
bfc01018:	00008010 	mfhi	s0
bfc0101c:	3c120fa2 	lui	s2,0xfa2
bfc01020:	36524bce 	ori	s2,s2,0x4bce
bfc01024:	16120c68 	bne	s0,s2,bfc041c8 <inst_error>
bfc01028:	00000000 	nop
bfc0102c:	3c08113f 	lui	t0,0x113f
bfc01030:	350838b0 	ori	t0,t0,0x38b0
bfc01034:	3c09960f 	lui	t1,0x960f
bfc01038:	35290fb8 	ori	t1,t1,0xfb8
bfc0103c:	01090019 	multu	t0,t1
bfc01040:	00008012 	mflo	s0
bfc01044:	3c128c13 	lui	s2,0x8c13
bfc01048:	36520e80 	ori	s2,s2,0xe80
bfc0104c:	16120c5e 	bne	s0,s2,bfc041c8 <inst_error>
bfc01050:	00000000 	nop
bfc01054:	00008010 	mfhi	s0
bfc01058:	3c120a1c 	lui	s2,0xa1c
bfc0105c:	36520efa 	ori	s2,s2,0xefa
bfc01060:	16120c59 	bne	s0,s2,bfc041c8 <inst_error>
bfc01064:	00000000 	nop
bfc01068:	3c08a4cd 	lui	t0,0xa4cd
bfc0106c:	3508966c 	ori	t0,t0,0x966c
bfc01070:	3c098946 	lui	t1,0x8946
bfc01074:	3529015e 	ori	t1,t1,0x15e
bfc01078:	01090019 	multu	t0,t1
bfc0107c:	00008012 	mflo	s0
bfc01080:	3c123e9b 	lui	s2,0x3e9b
bfc01084:	3652a7a8 	ori	s2,s2,0xa7a8
bfc01088:	16120c4f 	bne	s0,s2,bfc041c8 <inst_error>
bfc0108c:	00000000 	nop
bfc01090:	00008010 	mfhi	s0
bfc01094:	3c12585f 	lui	s2,0x585f
bfc01098:	36521698 	ori	s2,s2,0x1698
bfc0109c:	16120c4a 	bne	s0,s2,bfc041c8 <inst_error>
bfc010a0:	00000000 	nop
bfc010a4:	3c08997a 	lui	t0,0x997a
bfc010a8:	3508b490 	ori	t0,t0,0xb490
bfc010ac:	3c098318 	lui	t1,0x8318
bfc010b0:	3529fc14 	ori	t1,t1,0xfc14
bfc010b4:	01090019 	multu	t0,t1
bfc010b8:	00008012 	mflo	s0
bfc010bc:	3c1264d3 	lui	s2,0x64d3
bfc010c0:	3652db40 	ori	s2,s2,0xdb40
bfc010c4:	16120c40 	bne	s0,s2,bfc041c8 <inst_error>
bfc010c8:	00000000 	nop
bfc010cc:	00008010 	mfhi	s0
bfc010d0:	3c124e98 	lui	s2,0x4e98
bfc010d4:	3652c507 	ori	s2,s2,0xc507
bfc010d8:	16120c3b 	bne	s0,s2,bfc041c8 <inst_error>
bfc010dc:	00000000 	nop
bfc010e0:	3c083bf0 	lui	t0,0x3bf0
bfc010e4:	35084cfc 	ori	t0,t0,0x4cfc
bfc010e8:	3c094303 	lui	t1,0x4303
bfc010ec:	3529bb23 	ori	t1,t1,0xbb23
bfc010f0:	01090019 	multu	t0,t1
bfc010f4:	00008012 	mflo	s0
bfc010f8:	3c12950a 	lui	s2,0x950a
bfc010fc:	36529a74 	ori	s2,s2,0x9a74
bfc01100:	16120c31 	bne	s0,s2,bfc041c8 <inst_error>
bfc01104:	00000000 	nop
bfc01108:	00008010 	mfhi	s0
bfc0110c:	3c120fb0 	lui	s2,0xfb0
bfc01110:	3652c3c7 	ori	s2,s2,0xc3c7
bfc01114:	16120c2c 	bne	s0,s2,bfc041c8 <inst_error>
bfc01118:	00000000 	nop
bfc0111c:	3c08f58f 	lui	t0,0xf58f
bfc01120:	35085fa3 	ori	t0,t0,0x5fa3
bfc01124:	3c096095 	lui	t1,0x6095
bfc01128:	3529f500 	ori	t1,t1,0xf500
bfc0112c:	01090019 	multu	t0,t1
bfc01130:	00008012 	mflo	s0
bfc01134:	3c120065 	lui	s2,0x65
bfc01138:	3652ff00 	ori	s2,s2,0xff00
bfc0113c:	16120c22 	bne	s0,s2,bfc041c8 <inst_error>
bfc01140:	00000000 	nop
bfc01144:	00008010 	mfhi	s0
bfc01148:	3c125ca5 	lui	s2,0x5ca5
bfc0114c:	36529b52 	ori	s2,s2,0x9b52
bfc01150:	16120c1d 	bne	s0,s2,bfc041c8 <inst_error>
bfc01154:	00000000 	nop
bfc01158:	3c08abaa 	lui	t0,0xabaa
bfc0115c:	35084e80 	ori	t0,t0,0x4e80
bfc01160:	3c09370e 	lui	t1,0x370e
bfc01164:	3529a7f2 	ori	t1,t1,0xa7f2
bfc01168:	01090019 	multu	t0,t1
bfc0116c:	00008012 	mflo	s0
bfc01170:	3c122b33 	lui	s2,0x2b33
bfc01174:	3652b500 	ori	s2,s2,0xb500
bfc01178:	16120c13 	bne	s0,s2,bfc041c8 <inst_error>
bfc0117c:	00000000 	nop
bfc01180:	00008010 	mfhi	s0
bfc01184:	3c1224eb 	lui	s2,0x24eb
bfc01188:	36526acc 	ori	s2,s2,0x6acc
bfc0118c:	16120c0e 	bne	s0,s2,bfc041c8 <inst_error>
bfc01190:	00000000 	nop
bfc01194:	3c083a8c 	lui	t0,0x3a8c
bfc01198:	3508ff75 	ori	t0,t0,0xff75
bfc0119c:	3c09c7c8 	lui	t1,0xc7c8
bfc011a0:	35299600 	ori	t1,t1,0x9600
bfc011a4:	01090019 	multu	t0,t1
bfc011a8:	00008012 	mflo	s0
bfc011ac:	3c122416 	lui	s2,0x2416
bfc011b0:	36528e00 	ori	s2,s2,0x8e00
bfc011b4:	16120c04 	bne	s0,s2,bfc041c8 <inst_error>
bfc011b8:	00000000 	nop
bfc011bc:	00008010 	mfhi	s0
bfc011c0:	3c122db1 	lui	s2,0x2db1
bfc011c4:	36527b0a 	ori	s2,s2,0x7b0a
bfc011c8:	16120bff 	bne	s0,s2,bfc041c8 <inst_error>
bfc011cc:	00000000 	nop
bfc011d0:	3c086952 	lui	t0,0x6952
bfc011d4:	3508957c 	ori	t0,t0,0x957c
bfc011d8:	3c099f95 	lui	t1,0x9f95
bfc011dc:	3529ba00 	ori	t1,t1,0xba00
bfc011e0:	01090019 	multu	t0,t1
bfc011e4:	00008012 	mflo	s0
bfc011e8:	3c1205c8 	lui	s2,0x5c8
bfc011ec:	36521800 	ori	s2,s2,0x1800
bfc011f0:	16120bf5 	bne	s0,s2,bfc041c8 <inst_error>
bfc011f4:	00000000 	nop
bfc011f8:	00008010 	mfhi	s0
bfc011fc:	3c1241a7 	lui	s2,0x41a7
bfc01200:	3652e46f 	ori	s2,s2,0xe46f
bfc01204:	16120bf0 	bne	s0,s2,bfc041c8 <inst_error>
bfc01208:	00000000 	nop
bfc0120c:	3c08f003 	lui	t0,0xf003
bfc01210:	3508fcc0 	ori	t0,t0,0xfcc0
bfc01214:	3c096bf9 	lui	t1,0x6bf9
bfc01218:	3529ab92 	ori	t1,t1,0xab92
bfc0121c:	01090019 	multu	t0,t1
bfc01220:	00008012 	mflo	s0
bfc01224:	3c12a2da 	lui	s2,0xa2da
bfc01228:	36526580 	ori	s2,s2,0x6580
bfc0122c:	16120be6 	bne	s0,s2,bfc041c8 <inst_error>
bfc01230:	00000000 	nop
bfc01234:	00008010 	mfhi	s0
bfc01238:	3c12653b 	lui	s2,0x653b
bfc0123c:	3652bf60 	ori	s2,s2,0xbf60
bfc01240:	16120be1 	bne	s0,s2,bfc041c8 <inst_error>
bfc01244:	00000000 	nop
bfc01248:	3c08948d 	lui	t0,0x948d
bfc0124c:	3508f508 	ori	t0,t0,0xf508
bfc01250:	3c099aa8 	lui	t1,0x9aa8
bfc01254:	35294872 	ori	t1,t1,0x4872
bfc01258:	01090019 	multu	t0,t1
bfc0125c:	00008012 	mflo	s0
bfc01260:	3c12b161 	lui	s2,0xb161
bfc01264:	36525d90 	ori	s2,s2,0x5d90
bfc01268:	16120bd7 	bne	s0,s2,bfc041c8 <inst_error>
bfc0126c:	00000000 	nop
bfc01270:	00008010 	mfhi	s0
bfc01274:	3c1259bf 	lui	s2,0x59bf
bfc01278:	36520c99 	ori	s2,s2,0xc99
bfc0127c:	16120bd2 	bne	s0,s2,bfc041c8 <inst_error>
bfc01280:	00000000 	nop
bfc01284:	3c08e14a 	lui	t0,0xe14a
bfc01288:	3508a0c0 	ori	t0,t0,0xa0c0
bfc0128c:	3c09f0d1 	lui	t1,0xf0d1
bfc01290:	35296230 	ori	t1,t1,0x6230
bfc01294:	01090019 	multu	t0,t1
bfc01298:	00008012 	mflo	s0
bfc0129c:	3c120c47 	lui	s2,0xc47
bfc012a0:	3652a400 	ori	s2,s2,0xa400
bfc012a4:	16120bc8 	bne	s0,s2,bfc041c8 <inst_error>
bfc012a8:	00000000 	nop
bfc012ac:	00008010 	mfhi	s0
bfc012b0:	3c12d3ee 	lui	s2,0xd3ee
bfc012b4:	36523b0a 	ori	s2,s2,0x3b0a
bfc012b8:	16120bc3 	bne	s0,s2,bfc041c8 <inst_error>
bfc012bc:	00000000 	nop
bfc012c0:	3c08b1d8 	lui	t0,0xb1d8
bfc012c4:	3508a680 	ori	t0,t0,0xa680
bfc012c8:	3c0999f2 	lui	t1,0x99f2
bfc012cc:	3529fdf0 	ori	t1,t1,0xfdf0
bfc012d0:	01090019 	multu	t0,t1
bfc012d4:	00008012 	mflo	s0
bfc012d8:	3c12bca8 	lui	s2,0xbca8
bfc012dc:	36529800 	ori	s2,s2,0x9800
bfc012e0:	16120bb9 	bne	s0,s2,bfc041c8 <inst_error>
bfc012e4:	00000000 	nop
bfc012e8:	00008010 	mfhi	s0
bfc012ec:	3c126af3 	lui	s2,0x6af3
bfc012f0:	36524ab9 	ori	s2,s2,0x4ab9
bfc012f4:	16120bb4 	bne	s0,s2,bfc041c8 <inst_error>
bfc012f8:	00000000 	nop
bfc012fc:	3c0806d5 	lui	t0,0x6d5
bfc01300:	35083ad0 	ori	t0,t0,0x3ad0
bfc01304:	3c096289 	lui	t1,0x6289
bfc01308:	3529382a 	ori	t1,t1,0x382a
bfc0130c:	01090019 	multu	t0,t1
bfc01310:	00008012 	mflo	s0
bfc01314:	3c12dd29 	lui	s2,0xdd29
bfc01318:	36522620 	ori	s2,s2,0x2620
bfc0131c:	16120baa 	bne	s0,s2,bfc041c8 <inst_error>
bfc01320:	00000000 	nop
bfc01324:	00008010 	mfhi	s0
bfc01328:	3c1202a1 	lui	s2,0x2a1
bfc0132c:	36524a1f 	ori	s2,s2,0x4a1f
bfc01330:	16120ba5 	bne	s0,s2,bfc041c8 <inst_error>
bfc01334:	00000000 	nop
bfc01338:	3c08b406 	lui	t0,0xb406
bfc0133c:	3508d184 	ori	t0,t0,0xd184
bfc01340:	3c09ce15 	lui	t1,0xce15
bfc01344:	3529399c 	ori	t1,t1,0x399c
bfc01348:	01090019 	multu	t0,t1
bfc0134c:	00008012 	mflo	s0
bfc01350:	3c12a0a2 	lui	s2,0xa0a2
bfc01354:	36521070 	ori	s2,s2,0x1070
bfc01358:	16120b9b 	bne	s0,s2,bfc041c8 <inst_error>
bfc0135c:	00000000 	nop
bfc01360:	00008010 	mfhi	s0
bfc01364:	3c1290ec 	lui	s2,0x90ec
bfc01368:	365269aa 	ori	s2,s2,0x69aa
bfc0136c:	16120b96 	bne	s0,s2,bfc041c8 <inst_error>
bfc01370:	00000000 	nop
bfc01374:	3c08ff4c 	lui	t0,0xff4c
bfc01378:	35086260 	ori	t0,t0,0x6260
bfc0137c:	3c09f71b 	lui	t1,0xf71b
bfc01380:	35292a00 	ori	t1,t1,0x2a00
bfc01384:	01090019 	multu	t0,t1
bfc01388:	00008012 	mflo	s0
bfc0138c:	3c128843 	lui	s2,0x8843
bfc01390:	3652c000 	ori	s2,s2,0xc000
bfc01394:	16120b8c 	bne	s0,s2,bfc041c8 <inst_error>
bfc01398:	00000000 	nop
bfc0139c:	00008010 	mfhi	s0
bfc013a0:	3c12f66d 	lui	s2,0xf66d
bfc013a4:	3652c9db 	ori	s2,s2,0xc9db
bfc013a8:	16120b87 	bne	s0,s2,bfc041c8 <inst_error>
bfc013ac:	00000000 	nop
bfc013b0:	3c0802f1 	lui	t0,0x2f1
bfc013b4:	35083cac 	ori	t0,t0,0x3cac
bfc013b8:	3c09ea42 	lui	t1,0xea42
bfc013bc:	3529d2c0 	ori	t1,t1,0xd2c0
bfc013c0:	01090019 	multu	t0,t1
bfc013c4:	00008012 	mflo	s0
bfc013c8:	3c12f50a 	lui	s2,0xf50a
bfc013cc:	36529900 	ori	s2,s2,0x9900
bfc013d0:	16120b7d 	bne	s0,s2,bfc041c8 <inst_error>
bfc013d4:	00000000 	nop
bfc013d8:	00008010 	mfhi	s0
bfc013dc:	3c1202b1 	lui	s2,0x2b1
bfc013e0:	36524612 	ori	s2,s2,0x4612
bfc013e4:	16120b78 	bne	s0,s2,bfc041c8 <inst_error>
bfc013e8:	00000000 	nop
bfc013ec:	3c087fb8 	lui	t0,0x7fb8
bfc013f0:	35089370 	ori	t0,t0,0x9370
bfc013f4:	3c096495 	lui	t1,0x6495
bfc013f8:	3529a978 	ori	t1,t1,0xa978
bfc013fc:	01090019 	multu	t0,t1
bfc01400:	00008012 	mflo	s0
bfc01404:	3c12480a 	lui	s2,0x480a
bfc01408:	36520c80 	ori	s2,s2,0xc80
bfc0140c:	16120b6e 	bne	s0,s2,bfc041c8 <inst_error>
bfc01410:	00000000 	nop
bfc01414:	00008010 	mfhi	s0
bfc01418:	3c12322e 	lui	s2,0x322e
bfc0141c:	3652c492 	ori	s2,s2,0xc492
bfc01420:	16120b69 	bne	s0,s2,bfc041c8 <inst_error>
bfc01424:	00000000 	nop
bfc01428:	3c08db04 	lui	t0,0xdb04
bfc0142c:	35084c80 	ori	t0,t0,0x4c80
bfc01430:	3c095bb4 	lui	t1,0x5bb4
bfc01434:	352948cc 	ori	t1,t1,0x48cc
bfc01438:	01090019 	multu	t0,t1
bfc0143c:	00008012 	mflo	s0
bfc01440:	3c1206f0 	lui	s2,0x6f0
bfc01444:	3652f600 	ori	s2,s2,0xf600
bfc01448:	16120b5f 	bne	s0,s2,bfc041c8 <inst_error>
bfc0144c:	00000000 	nop
bfc01450:	00008010 	mfhi	s0
bfc01454:	3c124e74 	lui	s2,0x4e74
bfc01458:	3652c47f 	ori	s2,s2,0xc47f
bfc0145c:	16120b5a 	bne	s0,s2,bfc041c8 <inst_error>
bfc01460:	00000000 	nop
bfc01464:	3c08a90d 	lui	t0,0xa90d
bfc01468:	3508ec6c 	ori	t0,t0,0xec6c
bfc0146c:	3c09f03c 	lui	t1,0xf03c
bfc01470:	3529d014 	ori	t1,t1,0xd014
bfc01474:	01090019 	multu	t0,t1
bfc01478:	00008012 	mflo	s0
bfc0147c:	3c122e7e 	lui	s2,0x2e7e
bfc01480:	36523870 	ori	s2,s2,0x3870
bfc01484:	16120b50 	bne	s0,s2,bfc041c8 <inst_error>
bfc01488:	00000000 	nop
bfc0148c:	00008010 	mfhi	s0
bfc01490:	3c129ea5 	lui	s2,0x9ea5
bfc01494:	36523651 	ori	s2,s2,0x3651
bfc01498:	16120b4b 	bne	s0,s2,bfc041c8 <inst_error>
bfc0149c:	00000000 	nop
bfc014a0:	3c0872b3 	lui	t0,0x72b3
bfc014a4:	3508e604 	ori	t0,t0,0xe604
bfc014a8:	3c093ccf 	lui	t1,0x3ccf
bfc014ac:	3529167e 	ori	t1,t1,0x167e
bfc014b0:	01090019 	multu	t0,t1
bfc014b4:	00008012 	mflo	s0
bfc014b8:	3c12d78b 	lui	s2,0xd78b
bfc014bc:	36528df8 	ori	s2,s2,0x8df8
bfc014c0:	16120b41 	bne	s0,s2,bfc041c8 <inst_error>
bfc014c4:	00000000 	nop
bfc014c8:	00008010 	mfhi	s0
bfc014cc:	3c121b3e 	lui	s2,0x1b3e
bfc014d0:	3652f373 	ori	s2,s2,0xf373
bfc014d4:	16120b3c 	bne	s0,s2,bfc041c8 <inst_error>
bfc014d8:	00000000 	nop
bfc014dc:	3c08f181 	lui	t0,0xf181
bfc014e0:	3508714c 	ori	t0,t0,0x714c
bfc014e4:	3c09e030 	lui	t1,0xe030
bfc014e8:	35294af4 	ori	t1,t1,0x4af4
bfc014ec:	01090019 	multu	t0,t1
bfc014f0:	00008012 	mflo	s0
bfc014f4:	3c12585f 	lui	s2,0x585f
bfc014f8:	3652f470 	ori	s2,s2,0xf470
bfc014fc:	16120b32 	bne	s0,s2,bfc041c8 <inst_error>
bfc01500:	00000000 	nop
bfc01504:	00008010 	mfhi	s0
bfc01508:	3c12d37e 	lui	s2,0xd37e
bfc0150c:	3652d21d 	ori	s2,s2,0xd21d
bfc01510:	16120b2d 	bne	s0,s2,bfc041c8 <inst_error>
bfc01514:	00000000 	nop
bfc01518:	3c087a1b 	lui	t0,0x7a1b
bfc0151c:	3508ddc0 	ori	t0,t0,0xddc0
bfc01520:	3c095b74 	lui	t1,0x5b74
bfc01524:	3529305c 	ori	t1,t1,0x305c
bfc01528:	01090019 	multu	t0,t1
bfc0152c:	00008012 	mflo	s0
bfc01530:	3c12d697 	lui	s2,0xd697
bfc01534:	3652b100 	ori	s2,s2,0xb100
bfc01538:	16120b23 	bne	s0,s2,bfc041c8 <inst_error>
bfc0153c:	00000000 	nop
bfc01540:	00008010 	mfhi	s0
bfc01544:	3c122b9f 	lui	s2,0x2b9f
bfc01548:	36525384 	ori	s2,s2,0x5384
bfc0154c:	16120b1e 	bne	s0,s2,bfc041c8 <inst_error>
bfc01550:	00000000 	nop
bfc01554:	3c085390 	lui	t0,0x5390
bfc01558:	35081b70 	ori	t0,t0,0x1b70
bfc0155c:	3c09582d 	lui	t1,0x582d
bfc01560:	35296690 	ori	t1,t1,0x6690
bfc01564:	01090019 	multu	t0,t1
bfc01568:	00008012 	mflo	s0
bfc0156c:	3c12beae 	lui	s2,0xbeae
bfc01570:	36520f00 	ori	s2,s2,0xf00
bfc01574:	16120b14 	bne	s0,s2,bfc041c8 <inst_error>
bfc01578:	00000000 	nop
bfc0157c:	00008010 	mfhi	s0
bfc01580:	3c121cc8 	lui	s2,0x1cc8
bfc01584:	36525b3d 	ori	s2,s2,0x5b3d
bfc01588:	16120b0f 	bne	s0,s2,bfc041c8 <inst_error>
bfc0158c:	00000000 	nop
bfc01590:	3c081abf 	lui	t0,0x1abf
bfc01594:	3508afc4 	ori	t0,t0,0xafc4
bfc01598:	3c094c4d 	lui	t1,0x4c4d
bfc0159c:	35295a00 	ori	t1,t1,0x5a00
bfc015a0:	01090019 	multu	t0,t1
bfc015a4:	00008012 	mflo	s0
bfc015a8:	3c1271be 	lui	s2,0x71be
bfc015ac:	3652e800 	ori	s2,s2,0xe800
bfc015b0:	16120b05 	bne	s0,s2,bfc041c8 <inst_error>
bfc015b4:	00000000 	nop
bfc015b8:	00008010 	mfhi	s0
bfc015bc:	3c1207f8 	lui	s2,0x7f8
bfc015c0:	3652fd3d 	ori	s2,s2,0xfd3d
bfc015c4:	16120b00 	bne	s0,s2,bfc041c8 <inst_error>
bfc015c8:	00000000 	nop
bfc015cc:	3c08c401 	lui	t0,0xc401
bfc015d0:	3508c3d9 	ori	t0,t0,0xc3d9
bfc015d4:	3c096442 	lui	t1,0x6442
bfc015d8:	352983da 	ori	t1,t1,0x83da
bfc015dc:	01090019 	multu	t0,t1
bfc015e0:	00008012 	mflo	s0
bfc015e4:	3c1212aa 	lui	s2,0x12aa
bfc015e8:	3652d1ca 	ori	s2,s2,0xd1ca
bfc015ec:	16120af6 	bne	s0,s2,bfc041c8 <inst_error>
bfc015f0:	00000000 	nop
bfc015f4:	00008010 	mfhi	s0
bfc015f8:	3c124cc3 	lui	s2,0x4cc3
bfc015fc:	36529de9 	ori	s2,s2,0x9de9
bfc01600:	16120af1 	bne	s0,s2,bfc041c8 <inst_error>
bfc01604:	00000000 	nop
bfc01608:	3c08c3d9 	lui	t0,0xc3d9
bfc0160c:	35082a7c 	ori	t0,t0,0x2a7c
bfc01610:	3c0910f8 	lui	t1,0x10f8
bfc01614:	3529e302 	ori	t1,t1,0xe302
bfc01618:	01090019 	multu	t0,t1
bfc0161c:	00008012 	mflo	s0
bfc01620:	3c12007e 	lui	s2,0x7e
bfc01624:	365248f8 	ori	s2,s2,0x48f8
bfc01628:	16120ae7 	bne	s0,s2,bfc041c8 <inst_error>
bfc0162c:	00000000 	nop
bfc01630:	00008010 	mfhi	s0
bfc01634:	3c120cfb 	lui	s2,0xcfb
bfc01638:	3652fab4 	ori	s2,s2,0xfab4
bfc0163c:	16120ae2 	bne	s0,s2,bfc041c8 <inst_error>
bfc01640:	00000000 	nop
bfc01644:	3c085847 	lui	t0,0x5847
bfc01648:	35084c02 	ori	t0,t0,0x4c02
bfc0164c:	3c099f69 	lui	t1,0x9f69
bfc01650:	352992fe 	ori	t1,t1,0x92fe
bfc01654:	01090019 	multu	t0,t1
bfc01658:	00008012 	mflo	s0
bfc0165c:	3c12aae8 	lui	s2,0xaae8
bfc01660:	36528dfc 	ori	s2,s2,0x8dfc
bfc01664:	16120ad8 	bne	s0,s2,bfc041c8 <inst_error>
bfc01668:	00000000 	nop
bfc0166c:	00008010 	mfhi	s0
bfc01670:	3c1236f8 	lui	s2,0x36f8
bfc01674:	3652b023 	ori	s2,s2,0xb023
bfc01678:	16120ad3 	bne	s0,s2,bfc041c8 <inst_error>
bfc0167c:	00000000 	nop
bfc01680:	3c08bb0f 	lui	t0,0xbb0f
bfc01684:	35086845 	ori	t0,t0,0x6845
bfc01688:	3c091647 	lui	t1,0x1647
bfc0168c:	352974b0 	ori	t1,t1,0x74b0
bfc01690:	01090019 	multu	t0,t1
bfc01694:	00008012 	mflo	s0
bfc01698:	3c126ef9 	lui	s2,0x6ef9
bfc0169c:	3652f370 	ori	s2,s2,0xf370
bfc016a0:	16120ac9 	bne	s0,s2,bfc041c8 <inst_error>
bfc016a4:	00000000 	nop
bfc016a8:	00008010 	mfhi	s0
bfc016ac:	3c121047 	lui	s2,0x1047
bfc016b0:	3652897f 	ori	s2,s2,0x897f
bfc016b4:	16120ac4 	bne	s0,s2,bfc041c8 <inst_error>
bfc016b8:	00000000 	nop
bfc016bc:	3c083a05 	lui	t0,0x3a05
bfc016c0:	350847ba 	ori	t0,t0,0x47ba
bfc016c4:	3c0997b4 	lui	t1,0x97b4
bfc016c8:	3529583e 	ori	t1,t1,0x583e
bfc016cc:	01090019 	multu	t0,t1
bfc016d0:	00008012 	mflo	s0
bfc016d4:	3c1202b7 	lui	s2,0x2b7
bfc016d8:	36524f0c 	ori	s2,s2,0x4f0c
bfc016dc:	16120aba 	bne	s0,s2,bfc041c8 <inst_error>
bfc016e0:	00000000 	nop
bfc016e4:	00008010 	mfhi	s0
bfc016e8:	3c122261 	lui	s2,0x2261
bfc016ec:	3652fd05 	ori	s2,s2,0xfd05
bfc016f0:	16120ab5 	bne	s0,s2,bfc041c8 <inst_error>
bfc016f4:	00000000 	nop
bfc016f8:	3c08c418 	lui	t0,0xc418
bfc016fc:	3508111b 	ori	t0,t0,0x111b
bfc01700:	3c09f491 	lui	t1,0xf491
bfc01704:	352930d0 	ori	t1,t1,0x30d0
bfc01708:	01090019 	multu	t0,t1
bfc0170c:	00008012 	mflo	s0
bfc01710:	3c12430d 	lui	s2,0x430d
bfc01714:	3652f5f0 	ori	s2,s2,0xf5f0
bfc01718:	16120aab 	bne	s0,s2,bfc041c8 <inst_error>
bfc0171c:	00000000 	nop
bfc01720:	00008010 	mfhi	s0
bfc01724:	3c12bb56 	lui	s2,0xbb56
bfc01728:	36522753 	ori	s2,s2,0x2753
bfc0172c:	16120aa6 	bne	s0,s2,bfc041c8 <inst_error>
bfc01730:	00000000 	nop
bfc01734:	3c08696f 	lui	t0,0x696f
bfc01738:	3508dee5 	ori	t0,t0,0xdee5
bfc0173c:	3c097160 	lui	t1,0x7160
bfc01740:	352928d0 	ori	t1,t1,0x28d0
bfc01744:	01090019 	multu	t0,t1
bfc01748:	00008012 	mflo	s0
bfc0174c:	3c12d098 	lui	s2,0xd098
bfc01750:	3652e210 	ori	s2,s2,0xe210
bfc01754:	16120a9c 	bne	s0,s2,bfc041c8 <inst_error>
bfc01758:	00000000 	nop
bfc0175c:	00008010 	mfhi	s0
bfc01760:	3c122eb1 	lui	s2,0x2eb1
bfc01764:	3652fc25 	ori	s2,s2,0xfc25
bfc01768:	16120a97 	bne	s0,s2,bfc041c8 <inst_error>
bfc0176c:	00000000 	nop
bfc01770:	3c086b09 	lui	t0,0x6b09
bfc01774:	3508a660 	ori	t0,t0,0xa660
bfc01778:	3c09e6f1 	lui	t1,0xe6f1
bfc0177c:	35297192 	ori	t1,t1,0x7192
bfc01780:	01090019 	multu	t0,t1
bfc01784:	00008012 	mflo	s0
bfc01788:	3c122e51 	lui	s2,0x2e51
bfc0178c:	365242c0 	ori	s2,s2,0x42c0
bfc01790:	16120a8d 	bne	s0,s2,bfc041c8 <inst_error>
bfc01794:	00000000 	nop
bfc01798:	00008010 	mfhi	s0
bfc0179c:	3c12608f 	lui	s2,0x608f
bfc017a0:	36529f0c 	ori	s2,s2,0x9f0c
bfc017a4:	16120a88 	bne	s0,s2,bfc041c8 <inst_error>
bfc017a8:	00000000 	nop
bfc017ac:	3c08e52e 	lui	t0,0xe52e
bfc017b0:	350858ea 	ori	t0,t0,0x58ea
bfc017b4:	3c09c1a2 	lui	t1,0xc1a2
bfc017b8:	35291800 	ori	t1,t1,0x1800
bfc017bc:	01090019 	multu	t0,t1
bfc017c0:	00008012 	mflo	s0
bfc017c4:	3c120669 	lui	s2,0x669
bfc017c8:	3652f000 	ori	s2,s2,0xf000
bfc017cc:	16120a7e 	bne	s0,s2,bfc041c8 <inst_error>
bfc017d0:	00000000 	nop
bfc017d4:	00008010 	mfhi	s0
bfc017d8:	3c12ad59 	lui	s2,0xad59
bfc017dc:	36520dd9 	ori	s2,s2,0xdd9
bfc017e0:	16120a79 	bne	s0,s2,bfc041c8 <inst_error>
bfc017e4:	00000000 	nop
bfc017e8:	3c081060 	lui	t0,0x1060
bfc017ec:	3508c3f6 	ori	t0,t0,0xc3f6
bfc017f0:	3c090eed 	lui	t1,0xeed
bfc017f4:	3529e718 	ori	t1,t1,0xe718
bfc017f8:	01090019 	multu	t0,t1
bfc017fc:	00008012 	mflo	s0
bfc01800:	3c12b8a3 	lui	s2,0xb8a3
bfc01804:	36525910 	ori	s2,s2,0x5910
bfc01808:	16120a6f 	bne	s0,s2,bfc041c8 <inst_error>
bfc0180c:	00000000 	nop
bfc01810:	00008010 	mfhi	s0
bfc01814:	3c1200f4 	lui	s2,0xf4
bfc01818:	36528315 	ori	s2,s2,0x8315
bfc0181c:	16120a6a 	bne	s0,s2,bfc041c8 <inst_error>
bfc01820:	00000000 	nop
bfc01824:	3c08df06 	lui	t0,0xdf06
bfc01828:	35081f84 	ori	t0,t0,0x1f84
bfc0182c:	3c09d9f5 	lui	t1,0xd9f5
bfc01830:	35291b0d 	ori	t1,t1,0x1b0d
bfc01834:	01090019 	multu	t0,t1
bfc01838:	00008012 	mflo	s0
bfc0183c:	3c1205f6 	lui	s2,0x5f6
bfc01840:	365285b4 	ori	s2,s2,0x85b4
bfc01844:	16120a60 	bne	s0,s2,bfc041c8 <inst_error>
bfc01848:	00000000 	nop
bfc0184c:	00008010 	mfhi	s0
bfc01850:	3c12bde1 	lui	s2,0xbde1
bfc01854:	3652b924 	ori	s2,s2,0xb924
bfc01858:	16120a5b 	bne	s0,s2,bfc041c8 <inst_error>
bfc0185c:	00000000 	nop
bfc01860:	3c082ef3 	lui	t0,0x2ef3
bfc01864:	350801f4 	ori	t0,t0,0x1f4
bfc01868:	3c095f1a 	lui	t1,0x5f1a
bfc0186c:	35298bd0 	ori	t1,t1,0x8bd0
bfc01870:	01090019 	multu	t0,t1
bfc01874:	00008012 	mflo	s0
bfc01878:	3c12d649 	lui	s2,0xd649
bfc0187c:	36521240 	ori	s2,s2,0x1240
bfc01880:	16120a51 	bne	s0,s2,bfc041c8 <inst_error>
bfc01884:	00000000 	nop
bfc01888:	00008010 	mfhi	s0
bfc0188c:	3c121171 	lui	s2,0x1171
bfc01890:	36520c0b 	ori	s2,s2,0xc0b
bfc01894:	16120a4c 	bne	s0,s2,bfc041c8 <inst_error>
bfc01898:	00000000 	nop
bfc0189c:	3c0846c2 	lui	t0,0x46c2
bfc018a0:	35084000 	ori	t0,t0,0x4000
bfc018a4:	3c097381 	lui	t1,0x7381
bfc018a8:	35298980 	ori	t1,t1,0x8980
bfc018ac:	01090019 	multu	t0,t1
bfc018b0:	00008012 	mflo	s0
bfc018b4:	3c129560 	lui	s2,0x9560
bfc018b8:	16120a43 	bne	s0,s2,bfc041c8 <inst_error>
bfc018bc:	00000000 	nop
bfc018c0:	00008010 	mfhi	s0
bfc018c4:	3c121fed 	lui	s2,0x1fed
bfc018c8:	365210a3 	ori	s2,s2,0x10a3
bfc018cc:	16120a3e 	bne	s0,s2,bfc041c8 <inst_error>
bfc018d0:	00000000 	nop
bfc018d4:	3c08257e 	lui	t0,0x257e
bfc018d8:	350827d0 	ori	t0,t0,0x27d0
bfc018dc:	3c091dce 	lui	t1,0x1dce
bfc018e0:	3529bf84 	ori	t1,t1,0xbf84
bfc018e4:	01090019 	multu	t0,t1
bfc018e8:	00008012 	mflo	s0
bfc018ec:	3c120e20 	lui	s2,0xe20
bfc018f0:	3652b740 	ori	s2,s2,0xb740
bfc018f4:	16120a34 	bne	s0,s2,bfc041c8 <inst_error>
bfc018f8:	00000000 	nop
bfc018fc:	00008010 	mfhi	s0
bfc01900:	3c12045d 	lui	s2,0x45d
bfc01904:	36529213 	ori	s2,s2,0x9213
bfc01908:	16120a2f 	bne	s0,s2,bfc041c8 <inst_error>
bfc0190c:	00000000 	nop
bfc01910:	3c08a942 	lui	t0,0xa942
bfc01914:	350802b9 	ori	t0,t0,0x2b9
bfc01918:	3c0978c5 	lui	t1,0x78c5
bfc0191c:	35294868 	ori	t1,t1,0x4868
bfc01920:	01090019 	multu	t0,t1
bfc01924:	00008012 	mflo	s0
bfc01928:	3c1223f2 	lui	s2,0x23f2
bfc0192c:	36522328 	ori	s2,s2,0x2328
bfc01930:	16120a25 	bne	s0,s2,bfc041c8 <inst_error>
bfc01934:	00000000 	nop
bfc01938:	00008010 	mfhi	s0
bfc0193c:	3c124fd9 	lui	s2,0x4fd9
bfc01940:	365260f2 	ori	s2,s2,0x60f2
bfc01944:	16120a20 	bne	s0,s2,bfc041c8 <inst_error>
bfc01948:	00000000 	nop
bfc0194c:	3c082981 	lui	t0,0x2981
bfc01950:	3508ba00 	ori	t0,t0,0xba00
bfc01954:	3c09fa88 	lui	t1,0xfa88
bfc01958:	3529781d 	ori	t1,t1,0x781d
bfc0195c:	01090019 	multu	t0,t1
bfc01960:	00008012 	mflo	s0
bfc01964:	3c1252e2 	lui	s2,0x52e2
bfc01968:	36521200 	ori	s2,s2,0x1200
bfc0196c:	16120a16 	bne	s0,s2,bfc041c8 <inst_error>
bfc01970:	00000000 	nop
bfc01974:	00008010 	mfhi	s0
bfc01978:	3c12289e 	lui	s2,0x289e
bfc0197c:	3652d008 	ori	s2,s2,0xd008
bfc01980:	16120a11 	bne	s0,s2,bfc041c8 <inst_error>
bfc01984:	00000000 	nop
bfc01988:	3c083ee6 	lui	t0,0x3ee6
bfc0198c:	35084b08 	ori	t0,t0,0x4b08
bfc01990:	3c095534 	lui	t1,0x5534
bfc01994:	3529a83a 	ori	t1,t1,0xa83a
bfc01998:	01090019 	multu	t0,t1
bfc0199c:	00008012 	mflo	s0
bfc019a0:	3c12470a 	lui	s2,0x470a
bfc019a4:	36523fd0 	ori	s2,s2,0x3fd0
bfc019a8:	16120a07 	bne	s0,s2,bfc041c8 <inst_error>
bfc019ac:	00000000 	nop
bfc019b0:	00008010 	mfhi	s0
bfc019b4:	3c1214ef 	lui	s2,0x14ef
bfc019b8:	36526706 	ori	s2,s2,0x6706
bfc019bc:	16120a02 	bne	s0,s2,bfc041c8 <inst_error>
bfc019c0:	00000000 	nop
bfc019c4:	3c089178 	lui	t0,0x9178
bfc019c8:	3508bce0 	ori	t0,t0,0xbce0
bfc019cc:	3c096bd3 	lui	t1,0x6bd3
bfc019d0:	35297980 	ori	t1,t1,0x7980
bfc019d4:	01090019 	multu	t0,t1
bfc019d8:	00008012 	mflo	s0
bfc019dc:	3c121a44 	lui	s2,0x1a44
bfc019e0:	36525000 	ori	s2,s2,0x5000
bfc019e4:	161209f8 	bne	s0,s2,bfc041c8 <inst_error>
bfc019e8:	00000000 	nop
bfc019ec:	00008010 	mfhi	s0
bfc019f0:	3c123d45 	lui	s2,0x3d45
bfc019f4:	3652a280 	ori	s2,s2,0xa280
bfc019f8:	161209f3 	bne	s0,s2,bfc041c8 <inst_error>
bfc019fc:	00000000 	nop
bfc01a00:	3c080bcf 	lui	t0,0xbcf
bfc01a04:	3508bae8 	ori	t0,t0,0xbae8
bfc01a08:	3c09e12a 	lui	t1,0xe12a
bfc01a0c:	3529fb00 	ori	t1,t1,0xfb00
bfc01a10:	01090019 	multu	t0,t1
bfc01a14:	00008012 	mflo	s0
bfc01a18:	3c123e51 	lui	s2,0x3e51
bfc01a1c:	36527800 	ori	s2,s2,0x7800
bfc01a20:	161209e9 	bne	s0,s2,bfc041c8 <inst_error>
bfc01a24:	00000000 	nop
bfc01a28:	00008010 	mfhi	s0
bfc01a2c:	3c120a63 	lui	s2,0xa63
bfc01a30:	36528eef 	ori	s2,s2,0x8eef
bfc01a34:	161209e4 	bne	s0,s2,bfc041c8 <inst_error>
bfc01a38:	00000000 	nop
bfc01a3c:	3c08eea8 	lui	t0,0xeea8
bfc01a40:	35080fda 	ori	t0,t0,0xfda
bfc01a44:	3c0999dd 	lui	t1,0x99dd
bfc01a48:	35296bd0 	ori	t1,t1,0x6bd0
bfc01a4c:	01090019 	multu	t0,t1
bfc01a50:	00008012 	mflo	s0
bfc01a54:	3c12205e 	lui	s2,0x205e
bfc01a58:	3652ff20 	ori	s2,s2,0xff20
bfc01a5c:	161209da 	bne	s0,s2,bfc041c8 <inst_error>
bfc01a60:	00000000 	nop
bfc01a64:	00008010 	mfhi	s0
bfc01a68:	3c128f70 	lui	s2,0x8f70
bfc01a6c:	3652dd11 	ori	s2,s2,0xdd11
bfc01a70:	161209d5 	bne	s0,s2,bfc041c8 <inst_error>
bfc01a74:	00000000 	nop
bfc01a78:	3c08cd7c 	lui	t0,0xcd7c
bfc01a7c:	3508cc40 	ori	t0,t0,0xcc40
bfc01a80:	3c0979ff 	lui	t1,0x79ff
bfc01a84:	3529ffca 	ori	t1,t1,0xffca
bfc01a88:	01090019 	multu	t0,t1
bfc01a8c:	00008012 	mflo	s0
bfc01a90:	3c1227ac 	lui	s2,0x27ac
bfc01a94:	3652ea80 	ori	s2,s2,0xea80
bfc01a98:	161209cb 	bne	s0,s2,bfc041c8 <inst_error>
bfc01a9c:	00000000 	nop
bfc01aa0:	00008010 	mfhi	s0
bfc01aa4:	3c1261ed 	lui	s2,0x61ed
bfc01aa8:	3652792b 	ori	s2,s2,0x792b
bfc01aac:	161209c6 	bne	s0,s2,bfc041c8 <inst_error>
bfc01ab0:	00000000 	nop
bfc01ab4:	3c08f0d9 	lui	t0,0xf0d9
bfc01ab8:	3508a3fc 	ori	t0,t0,0xa3fc
bfc01abc:	3c09bd1d 	lui	t1,0xbd1d
bfc01ac0:	3529a000 	ori	t1,t1,0xa000
bfc01ac4:	01090019 	multu	t0,t1
bfc01ac8:	00008012 	mflo	s0
bfc01acc:	3c12a609 	lui	s2,0xa609
bfc01ad0:	36528000 	ori	s2,s2,0x8000
bfc01ad4:	161209bc 	bne	s0,s2,bfc041c8 <inst_error>
bfc01ad8:	00000000 	nop
bfc01adc:	00008010 	mfhi	s0
bfc01ae0:	3c12b1ec 	lui	s2,0xb1ec
bfc01ae4:	36528d40 	ori	s2,s2,0x8d40
bfc01ae8:	161209b7 	bne	s0,s2,bfc041c8 <inst_error>
bfc01aec:	00000000 	nop
bfc01af0:	3c08575f 	lui	t0,0x575f
bfc01af4:	35083e98 	ori	t0,t0,0x3e98
bfc01af8:	3c097166 	lui	t1,0x7166
bfc01afc:	35299498 	ori	t1,t1,0x9498
bfc01b00:	01090019 	multu	t0,t1
bfc01b04:	00008012 	mflo	s0
bfc01b08:	3c12f94d 	lui	s2,0xf94d
bfc01b0c:	36520a40 	ori	s2,s2,0xa40
bfc01b10:	161209ad 	bne	s0,s2,bfc041c8 <inst_error>
bfc01b14:	00000000 	nop
bfc01b18:	00008010 	mfhi	s0
bfc01b1c:	3c1226b4 	lui	s2,0x26b4
bfc01b20:	36520d4a 	ori	s2,s2,0xd4a
bfc01b24:	161209a8 	bne	s0,s2,bfc041c8 <inst_error>
bfc01b28:	00000000 	nop
bfc01b2c:	3c081cc3 	lui	t0,0x1cc3
bfc01b30:	35088b14 	ori	t0,t0,0x8b14
bfc01b34:	3c095973 	lui	t1,0x5973
bfc01b38:	3529913a 	ori	t1,t1,0x913a
bfc01b3c:	01090019 	multu	t0,t1
bfc01b40:	00008012 	mflo	s0
bfc01b44:	3c12b40f 	lui	s2,0xb40f
bfc01b48:	3652d688 	ori	s2,s2,0xd688
bfc01b4c:	1612099e 	bne	s0,s2,bfc041c8 <inst_error>
bfc01b50:	00000000 	nop
bfc01b54:	00008010 	mfhi	s0
bfc01b58:	3c120a0c 	lui	s2,0xa0c
bfc01b5c:	3652f782 	ori	s2,s2,0xf782
bfc01b60:	16120999 	bne	s0,s2,bfc041c8 <inst_error>
bfc01b64:	00000000 	nop
bfc01b68:	3c0889c6 	lui	t0,0x89c6
bfc01b6c:	3508f81f 	ori	t0,t0,0xf81f
bfc01b70:	3c09a280 	lui	t1,0xa280
bfc01b74:	35292db0 	ori	t1,t1,0x2db0
bfc01b78:	01090019 	multu	t0,t1
bfc01b7c:	00008012 	mflo	s0
bfc01b80:	3c125fe8 	lui	s2,0x5fe8
bfc01b84:	36520850 	ori	s2,s2,0x850
bfc01b88:	1612098f 	bne	s0,s2,bfc041c8 <inst_error>
bfc01b8c:	00000000 	nop
bfc01b90:	00008010 	mfhi	s0
bfc01b94:	3c125774 	lui	s2,0x5774
bfc01b98:	3652e516 	ori	s2,s2,0xe516
bfc01b9c:	1612098a 	bne	s0,s2,bfc041c8 <inst_error>
bfc01ba0:	00000000 	nop
bfc01ba4:	3c08455a 	lui	t0,0x455a
bfc01ba8:	35083838 	ori	t0,t0,0x3838
bfc01bac:	3c09847a 	lui	t1,0x847a
bfc01bb0:	3529d600 	ori	t1,t1,0xd600
bfc01bb4:	01090019 	multu	t0,t1
bfc01bb8:	00008012 	mflo	s0
bfc01bbc:	3c1215ae 	lui	s2,0x15ae
bfc01bc0:	3652d000 	ori	s2,s2,0xd000
bfc01bc4:	16120980 	bne	s0,s2,bfc041c8 <inst_error>
bfc01bc8:	00000000 	nop
bfc01bcc:	00008010 	mfhi	s0
bfc01bd0:	3c1223e3 	lui	s2,0x23e3
bfc01bd4:	3652cbf5 	ori	s2,s2,0xcbf5
bfc01bd8:	1612097b 	bne	s0,s2,bfc041c8 <inst_error>
bfc01bdc:	00000000 	nop
bfc01be0:	3c083dfb 	lui	t0,0x3dfb
bfc01be4:	350893e4 	ori	t0,t0,0x93e4
bfc01be8:	3c094f10 	lui	t1,0x4f10
bfc01bec:	35299ba8 	ori	t1,t1,0x9ba8
bfc01bf0:	01090019 	multu	t0,t1
bfc01bf4:	00008012 	mflo	s0
bfc01bf8:	3c1299e4 	lui	s2,0x99e4
bfc01bfc:	365219a0 	ori	s2,s2,0x19a0
bfc01c00:	16120971 	bne	s0,s2,bfc041c8 <inst_error>
bfc01c04:	00000000 	nop
bfc01c08:	00008010 	mfhi	s0
bfc01c0c:	3c121324 	lui	s2,0x1324
bfc01c10:	3652a80c 	ori	s2,s2,0xa80c
bfc01c14:	1612096c 	bne	s0,s2,bfc041c8 <inst_error>
bfc01c18:	00000000 	nop
bfc01c1c:	3c087a51 	lui	t0,0x7a51
bfc01c20:	3508a910 	ori	t0,t0,0xa910
bfc01c24:	3c092038 	lui	t1,0x2038
bfc01c28:	3529e3d6 	ori	t1,t1,0xe3d6
bfc01c2c:	01090019 	multu	t0,t1
bfc01c30:	00008012 	mflo	s0
bfc01c34:	3c12a4ac 	lui	s2,0xa4ac
bfc01c38:	36528360 	ori	s2,s2,0x8360
bfc01c3c:	16120962 	bne	s0,s2,bfc041c8 <inst_error>
bfc01c40:	00000000 	nop
bfc01c44:	00008010 	mfhi	s0
bfc01c48:	3c120f65 	lui	s2,0xf65
bfc01c4c:	365263db 	ori	s2,s2,0x63db
bfc01c50:	1612095d 	bne	s0,s2,bfc041c8 <inst_error>
bfc01c54:	00000000 	nop
bfc01c58:	3c08a004 	lui	t0,0xa004
bfc01c5c:	35082132 	ori	t0,t0,0x2132
bfc01c60:	3c0978d9 	lui	t1,0x78d9
bfc01c64:	3529f754 	ori	t1,t1,0xf754
bfc01c68:	01090019 	multu	t0,t1
bfc01c6c:	00008012 	mflo	s0
bfc01c70:	3c1210c4 	lui	s2,0x10c4
bfc01c74:	36522268 	ori	s2,s2,0x2268
bfc01c78:	16120953 	bne	s0,s2,bfc041c8 <inst_error>
bfc01c7c:	00000000 	nop
bfc01c80:	00008010 	mfhi	s0
bfc01c84:	3c124b8a 	lui	s2,0x4b8a
bfc01c88:	36522da8 	ori	s2,s2,0x2da8
bfc01c8c:	1612094e 	bne	s0,s2,bfc041c8 <inst_error>
bfc01c90:	00000000 	nop
bfc01c94:	3c08194f 	lui	t0,0x194f
bfc01c98:	35087a4e 	ori	t0,t0,0x7a4e
bfc01c9c:	3c09c9fa 	lui	t1,0xc9fa
bfc01ca0:	3529d040 	ori	t1,t1,0xd040
bfc01ca4:	01090019 	multu	t0,t1
bfc01ca8:	00008012 	mflo	s0
bfc01cac:	3c129569 	lui	s2,0x9569
bfc01cb0:	3652f380 	ori	s2,s2,0xf380
bfc01cb4:	16120944 	bne	s0,s2,bfc041c8 <inst_error>
bfc01cb8:	00000000 	nop
bfc01cbc:	00008010 	mfhi	s0
bfc01cc0:	3c1213f8 	lui	s2,0x13f8
bfc01cc4:	3652333b 	ori	s2,s2,0x333b
bfc01cc8:	1612093f 	bne	s0,s2,bfc041c8 <inst_error>
bfc01ccc:	00000000 	nop
bfc01cd0:	3c0828e5 	lui	t0,0x28e5
bfc01cd4:	35085f80 	ori	t0,t0,0x5f80
bfc01cd8:	3c09a3d2 	lui	t1,0xa3d2
bfc01cdc:	3529a69c 	ori	t1,t1,0xa69c
bfc01ce0:	01090019 	multu	t0,t1
bfc01ce4:	00008012 	mflo	s0
bfc01ce8:	3c127eb3 	lui	s2,0x7eb3
bfc01cec:	36523200 	ori	s2,s2,0x3200
bfc01cf0:	16120935 	bne	s0,s2,bfc041c8 <inst_error>
bfc01cf4:	00000000 	nop
bfc01cf8:	00008010 	mfhi	s0
bfc01cfc:	3c121a2b 	lui	s2,0x1a2b
bfc01d00:	3652b294 	ori	s2,s2,0xb294
bfc01d04:	16120930 	bne	s0,s2,bfc041c8 <inst_error>
bfc01d08:	00000000 	nop
bfc01d0c:	3c08ac7f 	lui	t0,0xac7f
bfc01d10:	3508f9b1 	ori	t0,t0,0xf9b1
bfc01d14:	3c09c733 	lui	t1,0xc733
bfc01d18:	3529bfea 	ori	t1,t1,0xbfea
bfc01d1c:	01090019 	multu	t0,t1
bfc01d20:	00008012 	mflo	s0
bfc01d24:	3c127d88 	lui	s2,0x7d88
bfc01d28:	36524aca 	ori	s2,s2,0x4aca
bfc01d2c:	16120926 	bne	s0,s2,bfc041c8 <inst_error>
bfc01d30:	00000000 	nop
bfc01d34:	00008010 	mfhi	s0
bfc01d38:	3c12863a 	lui	s2,0x863a
bfc01d3c:	365259e8 	ori	s2,s2,0x59e8
bfc01d40:	16120921 	bne	s0,s2,bfc041c8 <inst_error>
bfc01d44:	00000000 	nop
bfc01d48:	3c08aefb 	lui	t0,0xaefb
bfc01d4c:	35084cec 	ori	t0,t0,0x4cec
bfc01d50:	3c0927c0 	lui	t1,0x27c0
bfc01d54:	35298a80 	ori	t1,t1,0x8a80
bfc01d58:	01090019 	multu	t0,t1
bfc01d5c:	00008012 	mflo	s0
bfc01d60:	3c129a1d 	lui	s2,0x9a1d
bfc01d64:	3652ae00 	ori	s2,s2,0xae00
bfc01d68:	16120917 	bne	s0,s2,bfc041c8 <inst_error>
bfc01d6c:	00000000 	nop
bfc01d70:	00008010 	mfhi	s0
bfc01d74:	3c121b2b 	lui	s2,0x1b2b
bfc01d78:	3652e3dc 	ori	s2,s2,0xe3dc
bfc01d7c:	16120912 	bne	s0,s2,bfc041c8 <inst_error>
bfc01d80:	00000000 	nop
bfc01d84:	3c08bada 	lui	t0,0xbada
bfc01d88:	3508372c 	ori	t0,t0,0x372c
bfc01d8c:	3c094b07 	lui	t1,0x4b07
bfc01d90:	35296124 	ori	t1,t1,0x6124
bfc01d94:	01090019 	multu	t0,t1
bfc01d98:	00008012 	mflo	s0
bfc01d9c:	3c125bcb 	lui	s2,0x5bcb
bfc01da0:	36526e30 	ori	s2,s2,0x6e30
bfc01da4:	16120908 	bne	s0,s2,bfc041c8 <inst_error>
bfc01da8:	00000000 	nop
bfc01dac:	00008010 	mfhi	s0
bfc01db0:	3c1236c3 	lui	s2,0x36c3
bfc01db4:	36525108 	ori	s2,s2,0x5108
bfc01db8:	16120903 	bne	s0,s2,bfc041c8 <inst_error>
bfc01dbc:	00000000 	nop
bfc01dc0:	3c081396 	lui	t0,0x1396
bfc01dc4:	35082dcd 	ori	t0,t0,0x2dcd
bfc01dc8:	3c09698e 	lui	t1,0x698e
bfc01dcc:	3529b862 	ori	t1,t1,0xb862
bfc01dd0:	01090019 	multu	t0,t1
bfc01dd4:	00008012 	mflo	s0
bfc01dd8:	3c12ed1e 	lui	s2,0xed1e
bfc01ddc:	3652e07a 	ori	s2,s2,0xe07a
bfc01de0:	161208f9 	bne	s0,s2,bfc041c8 <inst_error>
bfc01de4:	00000000 	nop
bfc01de8:	00008010 	mfhi	s0
bfc01dec:	3c120813 	lui	s2,0x813
bfc01df0:	36528431 	ori	s2,s2,0x8431
bfc01df4:	161208f4 	bne	s0,s2,bfc041c8 <inst_error>
bfc01df8:	00000000 	nop
bfc01dfc:	3c08c186 	lui	t0,0xc186
bfc01e00:	3508a080 	ori	t0,t0,0xa080
bfc01e04:	3c09b539 	lui	t1,0xb539
bfc01e08:	35292966 	ori	t1,t1,0x2966
bfc01e0c:	01090019 	multu	t0,t1
bfc01e10:	00008012 	mflo	s0
bfc01e14:	3c12e7d8 	lui	s2,0xe7d8
bfc01e18:	36527300 	ori	s2,s2,0x7300
bfc01e1c:	161208ea 	bne	s0,s2,bfc041c8 <inst_error>
bfc01e20:	00000000 	nop
bfc01e24:	00008010 	mfhi	s0
bfc01e28:	3c1288ff 	lui	s2,0x88ff
bfc01e2c:	365265bf 	ori	s2,s2,0x65bf
bfc01e30:	161208e5 	bne	s0,s2,bfc041c8 <inst_error>
bfc01e34:	00000000 	nop
bfc01e38:	3c0875e4 	lui	t0,0x75e4
bfc01e3c:	3508bab2 	ori	t0,t0,0xbab2
bfc01e40:	3c09d803 	lui	t1,0xd803
bfc01e44:	3529b438 	ori	t1,t1,0xb438
bfc01e48:	01090019 	multu	t0,t1
bfc01e4c:	00008012 	mflo	s0
bfc01e50:	3c12fd63 	lui	s2,0xfd63
bfc01e54:	3652fef0 	ori	s2,s2,0xfef0
bfc01e58:	161208db 	bne	s0,s2,bfc041c8 <inst_error>
bfc01e5c:	00000000 	nop
bfc01e60:	00008010 	mfhi	s0
bfc01e64:	3c12637a 	lui	s2,0x637a
bfc01e68:	3652b232 	ori	s2,s2,0xb232
bfc01e6c:	161208d6 	bne	s0,s2,bfc041c8 <inst_error>
bfc01e70:	00000000 	nop
bfc01e74:	3c086286 	lui	t0,0x6286
bfc01e78:	35081f88 	ori	t0,t0,0x1f88
bfc01e7c:	3c09692d 	lui	t1,0x692d
bfc01e80:	35297480 	ori	t1,t1,0x7480
bfc01e84:	01090019 	multu	t0,t1
bfc01e88:	00008012 	mflo	s0
bfc01e8c:	3c125c41 	lui	s2,0x5c41
bfc01e90:	36526400 	ori	s2,s2,0x6400
bfc01e94:	161208cc 	bne	s0,s2,bfc041c8 <inst_error>
bfc01e98:	00000000 	nop
bfc01e9c:	00008010 	mfhi	s0
bfc01ea0:	3c12287a 	lui	s2,0x287a
bfc01ea4:	36528158 	ori	s2,s2,0x8158
bfc01ea8:	161208c7 	bne	s0,s2,bfc041c8 <inst_error>
bfc01eac:	00000000 	nop
bfc01eb0:	3c08f387 	lui	t0,0xf387
bfc01eb4:	35083d00 	ori	t0,t0,0x3d00
bfc01eb8:	3c09eec2 	lui	t1,0xeec2
bfc01ebc:	35292db2 	ori	t1,t1,0x2db2
bfc01ec0:	01090019 	multu	t0,t1
bfc01ec4:	00008012 	mflo	s0
bfc01ec8:	3c1253c1 	lui	s2,0x53c1
bfc01ecc:	36526a00 	ori	s2,s2,0x6a00
bfc01ed0:	161208bd 	bne	s0,s2,bfc041c8 <inst_error>
bfc01ed4:	00000000 	nop
bfc01ed8:	00008010 	mfhi	s0
bfc01edc:	3c12e320 	lui	s2,0xe320
bfc01ee0:	365272aa 	ori	s2,s2,0x72aa
bfc01ee4:	161208b8 	bne	s0,s2,bfc041c8 <inst_error>
bfc01ee8:	00000000 	nop
bfc01eec:	3c08136a 	lui	t0,0x136a
bfc01ef0:	350841fc 	ori	t0,t0,0x41fc
bfc01ef4:	3c099bb2 	lui	t1,0x9bb2
bfc01ef8:	3529afb0 	ori	t1,t1,0xafb0
bfc01efc:	01090019 	multu	t0,t1
bfc01f00:	00008012 	mflo	s0
bfc01f04:	3c127160 	lui	s2,0x7160
bfc01f08:	3652a140 	ori	s2,s2,0xa140
bfc01f0c:	161208ae 	bne	s0,s2,bfc041c8 <inst_error>
bfc01f10:	00000000 	nop
bfc01f14:	00008010 	mfhi	s0
bfc01f18:	3c120bce 	lui	s2,0xbce
bfc01f1c:	3652e328 	ori	s2,s2,0xe328
bfc01f20:	161208a9 	bne	s0,s2,bfc041c8 <inst_error>
bfc01f24:	00000000 	nop
bfc01f28:	3c08d7da 	lui	t0,0xd7da
bfc01f2c:	35080260 	ori	t0,t0,0x260
bfc01f30:	3c09f1b0 	lui	t1,0xf1b0
bfc01f34:	35294d74 	ori	t1,t1,0x4d74
bfc01f38:	01090019 	multu	t0,t1
bfc01f3c:	00008012 	mflo	s0
bfc01f40:	3c12637f 	lui	s2,0x637f
bfc01f44:	3652f380 	ori	s2,s2,0xf380
bfc01f48:	1612089f 	bne	s0,s2,bfc041c8 <inst_error>
bfc01f4c:	00000000 	nop
bfc01f50:	00008010 	mfhi	s0
bfc01f54:	3c12cbc8 	lui	s2,0xcbc8
bfc01f58:	3652e36c 	ori	s2,s2,0xe36c
bfc01f5c:	1612089a 	bne	s0,s2,bfc041c8 <inst_error>
bfc01f60:	00000000 	nop
bfc01f64:	3c08e0b7 	lui	t0,0xe0b7
bfc01f68:	350896a4 	ori	t0,t0,0x96a4
bfc01f6c:	3c096f11 	lui	t1,0x6f11
bfc01f70:	3529d479 	ori	t1,t1,0xd479
bfc01f74:	01090019 	multu	t0,t1
bfc01f78:	00008012 	mflo	s0
bfc01f7c:	3c125c6a 	lui	s2,0x5c6a
bfc01f80:	36520384 	ori	s2,s2,0x384
bfc01f84:	16120890 	bne	s0,s2,bfc041c8 <inst_error>
bfc01f88:	00000000 	nop
bfc01f8c:	00008010 	mfhi	s0
bfc01f90:	3c12617f 	lui	s2,0x617f
bfc01f94:	36524104 	ori	s2,s2,0x4104
bfc01f98:	1612088b 	bne	s0,s2,bfc041c8 <inst_error>
bfc01f9c:	00000000 	nop
bfc01fa0:	3c08c821 	lui	t0,0xc821
bfc01fa4:	3508f98b 	ori	t0,t0,0xf98b
bfc01fa8:	3c09b31a 	lui	t1,0xb31a
bfc01fac:	352981b0 	ori	t1,t1,0x81b0
bfc01fb0:	01090019 	multu	t0,t1
bfc01fb4:	00008012 	mflo	s0
bfc01fb8:	3c123f38 	lui	s2,0x3f38
bfc01fbc:	36529a90 	ori	s2,s2,0x9a90
bfc01fc0:	16120881 	bne	s0,s2,bfc041c8 <inst_error>
bfc01fc4:	00000000 	nop
bfc01fc8:	00008010 	mfhi	s0
bfc01fcc:	3c128c04 	lui	s2,0x8c04
bfc01fd0:	36527a52 	ori	s2,s2,0x7a52
bfc01fd4:	1612087c 	bne	s0,s2,bfc041c8 <inst_error>
bfc01fd8:	00000000 	nop
bfc01fdc:	3c08a7f5 	lui	t0,0xa7f5
bfc01fe0:	35085560 	ori	t0,t0,0x5560
bfc01fe4:	3c09684d 	lui	t1,0x684d
bfc01fe8:	35298270 	ori	t1,t1,0x8270
bfc01fec:	01090019 	multu	t0,t1
bfc01ff0:	00008012 	mflo	s0
bfc01ff4:	3c12be90 	lui	s2,0xbe90
bfc01ff8:	36521a00 	ori	s2,s2,0x1a00
bfc01ffc:	16120872 	bne	s0,s2,bfc041c8 <inst_error>
bfc02000:	00000000 	nop
bfc02004:	00008010 	mfhi	s0
bfc02008:	3c12446e 	lui	s2,0x446e
bfc0200c:	3652850d 	ori	s2,s2,0x850d
bfc02010:	1612086d 	bne	s0,s2,bfc041c8 <inst_error>
bfc02014:	00000000 	nop
bfc02018:	3c08daf9 	lui	t0,0xdaf9
bfc0201c:	3508bde0 	ori	t0,t0,0xbde0
bfc02020:	3c0968dd 	lui	t1,0x68dd
bfc02024:	35299b72 	ori	t1,t1,0x9b72
bfc02028:	01090019 	multu	t0,t1
bfc0202c:	00008012 	mflo	s0
bfc02030:	3c12a38d 	lui	s2,0xa38d
bfc02034:	36522dc0 	ori	s2,s2,0x2dc0
bfc02038:	16120863 	bne	s0,s2,bfc041c8 <inst_error>
bfc0203c:	00000000 	nop
bfc02040:	00008010 	mfhi	s0
bfc02044:	3c1259b3 	lui	s2,0x59b3
bfc02048:	365203b2 	ori	s2,s2,0x3b2
bfc0204c:	1612085e 	bne	s0,s2,bfc041c8 <inst_error>
bfc02050:	00000000 	nop
bfc02054:	3c08e635 	lui	t0,0xe635
bfc02058:	35082f22 	ori	t0,t0,0x2f22
bfc0205c:	3c091597 	lui	t1,0x1597
bfc02060:	3529e8f0 	ori	t1,t1,0xe8f0
bfc02064:	01090019 	multu	t0,t1
bfc02068:	00008012 	mflo	s0
bfc0206c:	3c129ba0 	lui	s2,0x9ba0
bfc02070:	3652ffe0 	ori	s2,s2,0xffe0
bfc02074:	16120854 	bne	s0,s2,bfc041c8 <inst_error>
bfc02078:	00000000 	nop
bfc0207c:	00008010 	mfhi	s0
bfc02080:	3c12136a 	lui	s2,0x136a
bfc02084:	3652f7b4 	ori	s2,s2,0xf7b4
bfc02088:	1612084f 	bne	s0,s2,bfc041c8 <inst_error>
bfc0208c:	00000000 	nop
bfc02090:	3c085090 	lui	t0,0x5090
bfc02094:	3508938c 	ori	t0,t0,0x938c
bfc02098:	3c0988f4 	lui	t1,0x88f4
bfc0209c:	35297f62 	ori	t1,t1,0x7f62
bfc020a0:	01090019 	multu	t0,t1
bfc020a4:	00008012 	mflo	s0
bfc020a8:	3c1291fa 	lui	s2,0x91fa
bfc020ac:	3652ef98 	ori	s2,s2,0xef98
bfc020b0:	16120845 	bne	s0,s2,bfc041c8 <inst_error>
bfc020b4:	00000000 	nop
bfc020b8:	00008010 	mfhi	s0
bfc020bc:	3c122b19 	lui	s2,0x2b19
bfc020c0:	3652c045 	ori	s2,s2,0xc045
bfc020c4:	16120840 	bne	s0,s2,bfc041c8 <inst_error>
bfc020c8:	00000000 	nop
bfc020cc:	3c08f763 	lui	t0,0xf763
bfc020d0:	3508f720 	ori	t0,t0,0xf720
bfc020d4:	3c097bf4 	lui	t1,0x7bf4
bfc020d8:	3529cf08 	ori	t1,t1,0xcf08
bfc020dc:	01090019 	multu	t0,t1
bfc020e0:	00008012 	mflo	s0
bfc020e4:	3c127a72 	lui	s2,0x7a72
bfc020e8:	36529900 	ori	s2,s2,0x9900
bfc020ec:	16120836 	bne	s0,s2,bfc041c8 <inst_error>
bfc020f0:	00000000 	nop
bfc020f4:	00008010 	mfhi	s0
bfc020f8:	3c1277c9 	lui	s2,0x77c9
bfc020fc:	36529b15 	ori	s2,s2,0x9b15
bfc02100:	16120831 	bne	s0,s2,bfc041c8 <inst_error>
bfc02104:	00000000 	nop
bfc02108:	3c082a6c 	lui	t0,0x2a6c
bfc0210c:	3508643c 	ori	t0,t0,0x643c
bfc02110:	3c09b1f2 	lui	t1,0xb1f2
bfc02114:	352949d8 	ori	t1,t1,0x49d8
bfc02118:	01090019 	multu	t0,t1
bfc0211c:	00008012 	mflo	s0
bfc02120:	3c12f0c1 	lui	s2,0xf0c1
bfc02124:	3652aea0 	ori	s2,s2,0xaea0
bfc02128:	16120827 	bne	s0,s2,bfc041c8 <inst_error>
bfc0212c:	00000000 	nop
bfc02130:	00008010 	mfhi	s0
bfc02134:	3c121d7d 	lui	s2,0x1d7d
bfc02138:	36521800 	ori	s2,s2,0x1800
bfc0213c:	16120822 	bne	s0,s2,bfc041c8 <inst_error>
bfc02140:	00000000 	nop
bfc02144:	3c089e30 	lui	t0,0x9e30
bfc02148:	35087670 	ori	t0,t0,0x7670
bfc0214c:	3c09eb55 	lui	t1,0xeb55
bfc02150:	35297c30 	ori	t1,t1,0x7c30
bfc02154:	01090019 	multu	t0,t1
bfc02158:	00008012 	mflo	s0
bfc0215c:	3c1245a4 	lui	s2,0x45a4
bfc02160:	36527500 	ori	s2,s2,0x7500
bfc02164:	16120818 	bne	s0,s2,bfc041c8 <inst_error>
bfc02168:	00000000 	nop
bfc0216c:	00008010 	mfhi	s0
bfc02170:	3c12916b 	lui	s2,0x916b
bfc02174:	36524f8d 	ori	s2,s2,0x4f8d
bfc02178:	16120813 	bne	s0,s2,bfc041c8 <inst_error>
bfc0217c:	00000000 	nop
bfc02180:	3c0844ac 	lui	t0,0x44ac
bfc02184:	35083120 	ori	t0,t0,0x3120
bfc02188:	3c0931e4 	lui	t1,0x31e4
bfc0218c:	3529b970 	ori	t1,t1,0xb970
bfc02190:	01090019 	multu	t0,t1
bfc02194:	00008012 	mflo	s0
bfc02198:	3c125b55 	lui	s2,0x5b55
bfc0219c:	36529e00 	ori	s2,s2,0x9e00
bfc021a0:	16120809 	bne	s0,s2,bfc041c8 <inst_error>
bfc021a4:	00000000 	nop
bfc021a8:	00008010 	mfhi	s0
bfc021ac:	3c120d62 	lui	s2,0xd62
bfc021b0:	36525081 	ori	s2,s2,0x5081
bfc021b4:	16120804 	bne	s0,s2,bfc041c8 <inst_error>
bfc021b8:	00000000 	nop
bfc021bc:	3c0849dc 	lui	t0,0x49dc
bfc021c0:	350806cd 	ori	t0,t0,0x6cd
bfc021c4:	3c092d5b 	lui	t1,0x2d5b
bfc021c8:	35295e10 	ori	t1,t1,0x5e10
bfc021cc:	01090019 	multu	t0,t1
bfc021d0:	00008012 	mflo	s0
bfc021d4:	3c12dc1e 	lui	s2,0xdc1e
bfc021d8:	3652b2d0 	ori	s2,s2,0xb2d0
bfc021dc:	161207fa 	bne	s0,s2,bfc041c8 <inst_error>
bfc021e0:	00000000 	nop
bfc021e4:	00008010 	mfhi	s0
bfc021e8:	3c120d16 	lui	s2,0xd16
bfc021ec:	3652098b 	ori	s2,s2,0x98b
bfc021f0:	161207f5 	bne	s0,s2,bfc041c8 <inst_error>
bfc021f4:	00000000 	nop
bfc021f8:	3c08c48f 	lui	t0,0xc48f
bfc021fc:	350868f0 	ori	t0,t0,0x68f0
bfc02200:	3c09421e 	lui	t1,0x421e
bfc02204:	352969bc 	ori	t1,t1,0x69bc
bfc02208:	01090019 	multu	t0,t1
bfc0220c:	00008012 	mflo	s0
bfc02210:	3c12577b 	lui	s2,0x577b
bfc02214:	36528040 	ori	s2,s2,0x8040
bfc02218:	161207eb 	bne	s0,s2,bfc041c8 <inst_error>
bfc0221c:	00000000 	nop
bfc02220:	00008010 	mfhi	s0
bfc02224:	3c1232c4 	lui	s2,0x32c4
bfc02228:	3652530b 	ori	s2,s2,0x530b
bfc0222c:	161207e6 	bne	s0,s2,bfc041c8 <inst_error>
bfc02230:	00000000 	nop
bfc02234:	3c085ba7 	lui	t0,0x5ba7
bfc02238:	3508c408 	ori	t0,t0,0xc408
bfc0223c:	3c092732 	lui	t1,0x2732
bfc02240:	3529d25f 	ori	t1,t1,0xd25f
bfc02244:	01090019 	multu	t0,t1
bfc02248:	00008012 	mflo	s0
bfc0224c:	3c1223a0 	lui	s2,0x23a0
bfc02250:	36524ef8 	ori	s2,s2,0x4ef8
bfc02254:	161207dc 	bne	s0,s2,bfc041c8 <inst_error>
bfc02258:	00000000 	nop
bfc0225c:	00008010 	mfhi	s0
bfc02260:	3c120e08 	lui	s2,0xe08
bfc02264:	3652c0f3 	ori	s2,s2,0xc0f3
bfc02268:	161207d7 	bne	s0,s2,bfc041c8 <inst_error>
bfc0226c:	00000000 	nop
bfc02270:	3c087082 	lui	t0,0x7082
bfc02274:	350859f0 	ori	t0,t0,0x59f0
bfc02278:	3c09a568 	lui	t1,0xa568
bfc0227c:	35296c4c 	ori	t1,t1,0x6c4c
bfc02280:	01090019 	multu	t0,t1
bfc02284:	00008012 	mflo	s0
bfc02288:	3c129e23 	lui	s2,0x9e23
bfc0228c:	3652f340 	ori	s2,s2,0xf340
bfc02290:	161207cd 	bne	s0,s2,bfc041c8 <inst_error>
bfc02294:	00000000 	nop
bfc02298:	00008010 	mfhi	s0
bfc0229c:	3c1248b1 	lui	s2,0x48b1
bfc022a0:	3652e884 	ori	s2,s2,0xe884
bfc022a4:	161207c8 	bne	s0,s2,bfc041c8 <inst_error>
bfc022a8:	00000000 	nop
bfc022ac:	3c08ea47 	lui	t0,0xea47
bfc022b0:	3508b828 	ori	t0,t0,0xb828
bfc022b4:	3c0903da 	lui	t1,0x3da
bfc022b8:	35292ed8 	ori	t1,t1,0x2ed8
bfc022bc:	01090019 	multu	t0,t1
bfc022c0:	00008012 	mflo	s0
bfc022c4:	3c12d9aa 	lui	s2,0xd9aa
bfc022c8:	365291c0 	ori	s2,s2,0x91c0
bfc022cc:	161207be 	bne	s0,s2,bfc041c8 <inst_error>
bfc022d0:	00000000 	nop
bfc022d4:	00008010 	mfhi	s0
bfc022d8:	3c120386 	lui	s2,0x386
bfc022dc:	36528319 	ori	s2,s2,0x8319
bfc022e0:	161207b9 	bne	s0,s2,bfc041c8 <inst_error>
bfc022e4:	00000000 	nop
bfc022e8:	3c084d9f 	lui	t0,0x4d9f
bfc022ec:	35083870 	ori	t0,t0,0x3870
bfc022f0:	3c0940ea 	lui	t1,0x40ea
bfc022f4:	35292544 	ori	t1,t1,0x2544
bfc022f8:	01090019 	multu	t0,t1
bfc022fc:	00008012 	mflo	s0
bfc02300:	3c1237d3 	lui	s2,0x37d3
bfc02304:	36522dc0 	ori	s2,s2,0x2dc0
bfc02308:	161207af 	bne	s0,s2,bfc041c8 <inst_error>
bfc0230c:	00000000 	nop
bfc02310:	00008010 	mfhi	s0
bfc02314:	3c1213ae 	lui	s2,0x13ae
bfc02318:	3652ccf2 	ori	s2,s2,0xccf2
bfc0231c:	161207aa 	bne	s0,s2,bfc041c8 <inst_error>
bfc02320:	00000000 	nop
bfc02324:	3c08032a 	lui	t0,0x32a
bfc02328:	3508bad8 	ori	t0,t0,0xbad8
bfc0232c:	3c099eac 	lui	t1,0x9eac
bfc02330:	352996b4 	ori	t1,t1,0x96b4
bfc02334:	01090019 	multu	t0,t1
bfc02338:	00008012 	mflo	s0
bfc0233c:	3c121ca5 	lui	s2,0x1ca5
bfc02340:	3652efe0 	ori	s2,s2,0xefe0
bfc02344:	161207a0 	bne	s0,s2,bfc041c8 <inst_error>
bfc02348:	00000000 	nop
bfc0234c:	00008010 	mfhi	s0
bfc02350:	3c1201f6 	lui	s2,0x1f6
bfc02354:	365281e4 	ori	s2,s2,0x81e4
bfc02358:	1612079b 	bne	s0,s2,bfc041c8 <inst_error>
bfc0235c:	00000000 	nop
bfc02360:	3c08ed43 	lui	t0,0xed43
bfc02364:	35080108 	ori	t0,t0,0x108
bfc02368:	3c097487 	lui	t1,0x7487
bfc0236c:	3529f6ff 	ori	t1,t1,0xf6ff
bfc02370:	01090019 	multu	t0,t1
bfc02374:	00008012 	mflo	s0
bfc02378:	3c12e3f3 	lui	s2,0xe3f3
bfc0237c:	3652b6f8 	ori	s2,s2,0xb6f8
bfc02380:	16120791 	bne	s0,s2,bfc041c8 <inst_error>
bfc02384:	00000000 	nop
bfc02388:	00008010 	mfhi	s0
bfc0238c:	3c126c00 	lui	s2,0x6c00
bfc02390:	36525fb7 	ori	s2,s2,0x5fb7
bfc02394:	1612078c 	bne	s0,s2,bfc041c8 <inst_error>
bfc02398:	00000000 	nop
bfc0239c:	3c08c655 	lui	t0,0xc655
bfc023a0:	35085390 	ori	t0,t0,0x5390
bfc023a4:	3c099120 	lui	t1,0x9120
bfc023a8:	35290156 	ori	t1,t1,0x156
bfc023ac:	01090019 	multu	t0,t1
bfc023b0:	00008012 	mflo	s0
bfc023b4:	3c12f7fd 	lui	s2,0xf7fd
bfc023b8:	3652a260 	ori	s2,s2,0xa260
bfc023bc:	16120782 	bne	s0,s2,bfc041c8 <inst_error>
bfc023c0:	00000000 	nop
bfc023c4:	00008010 	mfhi	s0
bfc023c8:	3c12706f 	lui	s2,0x706f
bfc023cc:	36522007 	ori	s2,s2,0x2007
bfc023d0:	1612077d 	bne	s0,s2,bfc041c8 <inst_error>
bfc023d4:	00000000 	nop
bfc023d8:	3c081533 	lui	t0,0x1533
bfc023dc:	35081378 	ori	t0,t0,0x1378
bfc023e0:	3c090a84 	lui	t1,0xa84
bfc023e4:	3529abd0 	ori	t1,t1,0xabd0
bfc023e8:	01090019 	multu	t0,t1
bfc023ec:	00008012 	mflo	s0
bfc023f0:	3c121160 	lui	s2,0x1160
bfc023f4:	3652f980 	ori	s2,s2,0xf980
bfc023f8:	16120773 	bne	s0,s2,bfc041c8 <inst_error>
bfc023fc:	00000000 	nop
bfc02400:	00008010 	mfhi	s0
bfc02404:	3c1200de 	lui	s2,0xde
bfc02408:	3652fb53 	ori	s2,s2,0xfb53
bfc0240c:	1612076e 	bne	s0,s2,bfc041c8 <inst_error>
bfc02410:	00000000 	nop
bfc02414:	3c08e3c0 	lui	t0,0xe3c0
bfc02418:	35084074 	ori	t0,t0,0x4074
bfc0241c:	3c090e76 	lui	t1,0xe76
bfc02420:	35291486 	ori	t1,t1,0x1486
bfc02424:	01090019 	multu	t0,t1
bfc02428:	00008012 	mflo	s0
bfc0242c:	3c124922 	lui	s2,0x4922
bfc02430:	3652ccb8 	ori	s2,s2,0xccb8
bfc02434:	16120764 	bne	s0,s2,bfc041c8 <inst_error>
bfc02438:	00000000 	nop
bfc0243c:	00008010 	mfhi	s0
bfc02440:	3c120cdd 	lui	s2,0xcdd
bfc02444:	36529066 	ori	s2,s2,0x9066
bfc02448:	1612075f 	bne	s0,s2,bfc041c8 <inst_error>
bfc0244c:	00000000 	nop
bfc02450:	3c08866c 	lui	t0,0x866c
bfc02454:	35082b93 	ori	t0,t0,0x2b93
bfc02458:	3c094ac9 	lui	t1,0x4ac9
bfc0245c:	35293a6c 	ori	t1,t1,0x3a6c
bfc02460:	01090019 	multu	t0,t1
bfc02464:	00008012 	mflo	s0
bfc02468:	3c12ebec 	lui	s2,0xebec
bfc0246c:	3652b004 	ori	s2,s2,0xb004
bfc02470:	16120755 	bne	s0,s2,bfc041c8 <inst_error>
bfc02474:	00000000 	nop
bfc02478:	00008010 	mfhi	s0
bfc0247c:	3c122744 	lui	s2,0x2744
bfc02480:	3652ee33 	ori	s2,s2,0xee33
bfc02484:	16120750 	bne	s0,s2,bfc041c8 <inst_error>
bfc02488:	00000000 	nop
bfc0248c:	3c08cba6 	lui	t0,0xcba6
bfc02490:	3508ae1c 	ori	t0,t0,0xae1c
bfc02494:	3c09686b 	lui	t1,0x686b
bfc02498:	35298750 	ori	t1,t1,0x8750
bfc0249c:	01090019 	multu	t0,t1
bfc024a0:	00008012 	mflo	s0
bfc024a4:	3c12af9b 	lui	s2,0xaf9b
bfc024a8:	36522cc0 	ori	s2,s2,0x2cc0
bfc024ac:	16120746 	bne	s0,s2,bfc041c8 <inst_error>
bfc024b0:	00000000 	nop
bfc024b4:	00008010 	mfhi	s0
bfc024b8:	3c125311 	lui	s2,0x5311
bfc024bc:	3652410a 	ori	s2,s2,0x410a
bfc024c0:	16120741 	bne	s0,s2,bfc041c8 <inst_error>
bfc024c4:	00000000 	nop
bfc024c8:	3c082016 	lui	t0,0x2016
bfc024cc:	3508563d 	ori	t0,t0,0x563d
bfc024d0:	3c09728b 	lui	t1,0x728b
bfc024d4:	35292c68 	ori	t1,t1,0x2c68
bfc024d8:	01090019 	multu	t0,t1
bfc024dc:	00008012 	mflo	s0
bfc024e0:	3c12dd04 	lui	s2,0xdd04
bfc024e4:	365284c8 	ori	s2,s2,0x84c8
bfc024e8:	16120737 	bne	s0,s2,bfc041c8 <inst_error>
bfc024ec:	00000000 	nop
bfc024f0:	00008010 	mfhi	s0
bfc024f4:	3c120e5b 	lui	s2,0xe5b
bfc024f8:	36526418 	ori	s2,s2,0x6418
bfc024fc:	16120732 	bne	s0,s2,bfc041c8 <inst_error>
bfc02500:	00000000 	nop
bfc02504:	3c087ac8 	lui	t0,0x7ac8
bfc02508:	35089c86 	ori	t0,t0,0x9c86
bfc0250c:	3c09514f 	lui	t1,0x514f
bfc02510:	3529d000 	ori	t1,t1,0xd000
bfc02514:	01090019 	multu	t0,t1
bfc02518:	00008012 	mflo	s0
bfc0251c:	3c12b286 	lui	s2,0xb286
bfc02520:	3652e000 	ori	s2,s2,0xe000
bfc02524:	16120728 	bne	s0,s2,bfc041c8 <inst_error>
bfc02528:	00000000 	nop
bfc0252c:	00008010 	mfhi	s0
bfc02530:	3c1226ff 	lui	s2,0x26ff
bfc02534:	3652c131 	ori	s2,s2,0xc131
bfc02538:	16120723 	bne	s0,s2,bfc041c8 <inst_error>
bfc0253c:	00000000 	nop
bfc02540:	3c087f8c 	lui	t0,0x7f8c
bfc02544:	35080fec 	ori	t0,t0,0xfec
bfc02548:	3c094f78 	lui	t1,0x4f78
bfc0254c:	3529cf12 	ori	t1,t1,0xcf12
bfc02550:	01090019 	multu	t0,t1
bfc02554:	00008012 	mflo	s0
bfc02558:	3c128358 	lui	s2,0x8358
bfc0255c:	3652f298 	ori	s2,s2,0xf298
bfc02560:	16120719 	bne	s0,s2,bfc041c8 <inst_error>
bfc02564:	00000000 	nop
bfc02568:	00008010 	mfhi	s0
bfc0256c:	3c122798 	lui	s2,0x2798
bfc02570:	365269bc 	ori	s2,s2,0x69bc
bfc02574:	16120714 	bne	s0,s2,bfc041c8 <inst_error>
bfc02578:	00000000 	nop
bfc0257c:	3c08724f 	lui	t0,0x724f
bfc02580:	35089828 	ori	t0,t0,0x9828
bfc02584:	3c09606e 	lui	t1,0x606e
bfc02588:	35296c74 	ori	t1,t1,0x6c74
bfc0258c:	01090019 	multu	t0,t1
bfc02590:	00008012 	mflo	s0
bfc02594:	3c12c171 	lui	s2,0xc171
bfc02598:	3652d220 	ori	s2,s2,0xd220
bfc0259c:	1612070a 	bne	s0,s2,bfc041c8 <inst_error>
bfc025a0:	00000000 	nop
bfc025a4:	00008010 	mfhi	s0
bfc025a8:	3c122b0f 	lui	s2,0x2b0f
bfc025ac:	365227af 	ori	s2,s2,0x27af
bfc025b0:	16120705 	bne	s0,s2,bfc041c8 <inst_error>
bfc025b4:	00000000 	nop
bfc025b8:	3c086b19 	lui	t0,0x6b19
bfc025bc:	3508c73a 	ori	t0,t0,0xc73a
bfc025c0:	3c092d02 	lui	t1,0x2d02
bfc025c4:	352904f4 	ori	t1,t1,0x4f4
bfc025c8:	01090019 	multu	t0,t1
bfc025cc:	00008012 	mflo	s0
bfc025d0:	3c123c22 	lui	s2,0x3c22
bfc025d4:	3652cb48 	ori	s2,s2,0xcb48
bfc025d8:	161206fb 	bne	s0,s2,bfc041c8 <inst_error>
bfc025dc:	00000000 	nop
bfc025e0:	00008010 	mfhi	s0
bfc025e4:	3c1212d4 	lui	s2,0x12d4
bfc025e8:	3652604b 	ori	s2,s2,0x604b
bfc025ec:	161206f6 	bne	s0,s2,bfc041c8 <inst_error>
bfc025f0:	00000000 	nop
bfc025f4:	3c0855d6 	lui	t0,0x55d6
bfc025f8:	3508af4e 	ori	t0,t0,0xaf4e
bfc025fc:	3c0946a5 	lui	t1,0x46a5
bfc02600:	3529c880 	ori	t1,t1,0xc880
bfc02604:	01090019 	multu	t0,t1
bfc02608:	00008012 	mflo	s0
bfc0260c:	3c12f592 	lui	s2,0xf592
bfc02610:	36529700 	ori	s2,s2,0x9700
bfc02614:	161206ec 	bne	s0,s2,bfc041c8 <inst_error>
bfc02618:	00000000 	nop
bfc0261c:	00008010 	mfhi	s0
bfc02620:	3c1217b0 	lui	s2,0x17b0
bfc02624:	36524a88 	ori	s2,s2,0x4a88
bfc02628:	161206e7 	bne	s0,s2,bfc041c8 <inst_error>
bfc0262c:	00000000 	nop
bfc02630:	3c08b911 	lui	t0,0xb911
bfc02634:	35082fda 	ori	t0,t0,0x2fda
bfc02638:	3c099a95 	lui	t1,0x9a95
bfc0263c:	35298460 	ori	t1,t1,0x8460
bfc02640:	01090019 	multu	t0,t1
bfc02644:	00008012 	mflo	s0
bfc02648:	3c124100 	lui	s2,0x4100
bfc0264c:	365259c0 	ori	s2,s2,0x59c0
bfc02650:	161206dd 	bne	s0,s2,bfc041c8 <inst_error>
bfc02654:	00000000 	nop
bfc02658:	00008010 	mfhi	s0
bfc0265c:	3c126fc0 	lui	s2,0x6fc0
bfc02660:	36526d7c 	ori	s2,s2,0x6d7c
bfc02664:	161206d8 	bne	s0,s2,bfc041c8 <inst_error>
bfc02668:	00000000 	nop
bfc0266c:	3c088d58 	lui	t0,0x8d58
bfc02670:	35083800 	ori	t0,t0,0x3800
bfc02674:	3c097d3d 	lui	t1,0x7d3d
bfc02678:	3529fe00 	ori	t1,t1,0xfe00
bfc0267c:	01090019 	multu	t0,t1
bfc02680:	00008012 	mflo	s0
bfc02684:	3c12df90 	lui	s2,0xdf90
bfc02688:	161206cf 	bne	s0,s2,bfc041c8 <inst_error>
bfc0268c:	00000000 	nop
bfc02690:	00008010 	mfhi	s0
bfc02694:	3c124526 	lui	s2,0x4526
bfc02698:	36524d9a 	ori	s2,s2,0x4d9a
bfc0269c:	161206ca 	bne	s0,s2,bfc041c8 <inst_error>
bfc026a0:	00000000 	nop
bfc026a4:	3c08bae6 	lui	t0,0xbae6
bfc026a8:	35086882 	ori	t0,t0,0x6882
bfc026ac:	3c09c44d 	lui	t1,0xc44d
bfc026b0:	35299158 	ori	t1,t1,0x9158
bfc026b4:	01090019 	multu	t0,t1
bfc026b8:	00008012 	mflo	s0
bfc026bc:	3c12b77f 	lui	s2,0xb77f
bfc026c0:	36528eb0 	ori	s2,s2,0x8eb0
bfc026c4:	161206c0 	bne	s0,s2,bfc041c8 <inst_error>
bfc026c8:	00000000 	nop
bfc026cc:	00008010 	mfhi	s0
bfc026d0:	3c128f51 	lui	s2,0x8f51
bfc026d4:	3652096d 	ori	s2,s2,0x96d
bfc026d8:	161206bb 	bne	s0,s2,bfc041c8 <inst_error>
bfc026dc:	00000000 	nop
bfc026e0:	3c08f328 	lui	t0,0xf328
bfc026e4:	3508013c 	ori	t0,t0,0x13c
bfc026e8:	3c094597 	lui	t1,0x4597
bfc026ec:	35299e94 	ori	t1,t1,0x9e94
bfc026f0:	01090019 	multu	t0,t1
bfc026f4:	00008012 	mflo	s0
bfc026f8:	3c122a47 	lui	s2,0x2a47
bfc026fc:	3652beb0 	ori	s2,s2,0xbeb0
bfc02700:	161206b1 	bne	s0,s2,bfc041c8 <inst_error>
bfc02704:	00000000 	nop
bfc02708:	00008010 	mfhi	s0
bfc0270c:	3c124219 	lui	s2,0x4219
bfc02710:	3652cb8d 	ori	s2,s2,0xcb8d
bfc02714:	161206ac 	bne	s0,s2,bfc041c8 <inst_error>
bfc02718:	00000000 	nop
bfc0271c:	3c08d3f9 	lui	t0,0xd3f9
bfc02720:	35087e58 	ori	t0,t0,0x7e58
bfc02724:	3c0941ab 	lui	t1,0x41ab
bfc02728:	35290f80 	ori	t1,t1,0xf80
bfc0272c:	01090019 	multu	t0,t1
bfc02730:	00008012 	mflo	s0
bfc02734:	3c1257ee 	lui	s2,0x57ee
bfc02738:	36525400 	ori	s2,s2,0x5400
bfc0273c:	161206a2 	bne	s0,s2,bfc041c8 <inst_error>
bfc02740:	00000000 	nop
bfc02744:	00008010 	mfhi	s0
bfc02748:	3c12365f 	lui	s2,0x365f
bfc0274c:	3652fd91 	ori	s2,s2,0xfd91
bfc02750:	1612069d 	bne	s0,s2,bfc041c8 <inst_error>
bfc02754:	00000000 	nop
bfc02758:	3c084668 	lui	t0,0x4668
bfc0275c:	35083380 	ori	t0,t0,0x3380
bfc02760:	3c09d50b 	lui	t1,0xd50b
bfc02764:	35299398 	ori	t1,t1,0x9398
bfc02768:	01090019 	multu	t0,t1
bfc0276c:	00008012 	mflo	s0
bfc02770:	3c1259f1 	lui	s2,0x59f1
bfc02774:	36521400 	ori	s2,s2,0x1400
bfc02778:	16120693 	bne	s0,s2,bfc041c8 <inst_error>
bfc0277c:	00000000 	nop
bfc02780:	00008010 	mfhi	s0
bfc02784:	3c123a97 	lui	s2,0x3a97
bfc02788:	3652e1eb 	ori	s2,s2,0xe1eb
bfc0278c:	1612068e 	bne	s0,s2,bfc041c8 <inst_error>
bfc02790:	00000000 	nop
bfc02794:	3c08e73e 	lui	t0,0xe73e
bfc02798:	3508b7a8 	ori	t0,t0,0xb7a8
bfc0279c:	3c095075 	lui	t1,0x5075
bfc027a0:	3529cd50 	ori	t1,t1,0xcd50
bfc027a4:	01090019 	multu	t0,t1
bfc027a8:	00008012 	mflo	s0
bfc027ac:	3c12ec72 	lui	s2,0xec72
bfc027b0:	3652ec80 	ori	s2,s2,0xec80
bfc027b4:	16120684 	bne	s0,s2,bfc041c8 <inst_error>
bfc027b8:	00000000 	nop
bfc027bc:	00008010 	mfhi	s0
bfc027c0:	3c1248ae 	lui	s2,0x48ae
bfc027c4:	36520283 	ori	s2,s2,0x283
bfc027c8:	1612067f 	bne	s0,s2,bfc041c8 <inst_error>
bfc027cc:	00000000 	nop
bfc027d0:	3c08d41a 	lui	t0,0xd41a
bfc027d4:	35083a66 	ori	t0,t0,0x3a66
bfc027d8:	3c090196 	lui	t1,0x196
bfc027dc:	3529ee00 	ori	t1,t1,0xee00
bfc027e0:	01090019 	multu	t0,t1
bfc027e4:	00008012 	mflo	s0
bfc027e8:	3c12000e 	lui	s2,0xe
bfc027ec:	3652d400 	ori	s2,s2,0xd400
bfc027f0:	16120675 	bne	s0,s2,bfc041c8 <inst_error>
bfc027f4:	00000000 	nop
bfc027f8:	00008010 	mfhi	s0
bfc027fc:	3c120151 	lui	s2,0x151
bfc02800:	365226c9 	ori	s2,s2,0x26c9
bfc02804:	16120670 	bne	s0,s2,bfc041c8 <inst_error>
bfc02808:	00000000 	nop
bfc0280c:	3c0820a6 	lui	t0,0x20a6
bfc02810:	35081660 	ori	t0,t0,0x1660
bfc02814:	3c09c7c0 	lui	t1,0xc7c0
bfc02818:	3529d3f6 	ori	t1,t1,0xd3f6
bfc0281c:	01090019 	multu	t0,t1
bfc02820:	00008012 	mflo	s0
bfc02824:	3c12ac0a 	lui	s2,0xac0a
bfc02828:	3652a040 	ori	s2,s2,0xa040
bfc0282c:	16120666 	bne	s0,s2,bfc041c8 <inst_error>
bfc02830:	00000000 	nop
bfc02834:	00008010 	mfhi	s0
bfc02838:	3c121979 	lui	s2,0x1979
bfc0283c:	3652b2fd 	ori	s2,s2,0xb2fd
bfc02840:	16120661 	bne	s0,s2,bfc041c8 <inst_error>
bfc02844:	00000000 	nop
bfc02848:	3c086735 	lui	t0,0x6735
bfc0284c:	35085954 	ori	t0,t0,0x5954
bfc02850:	3c0910cd 	lui	t1,0x10cd
bfc02854:	3529a111 	ori	t1,t1,0xa111
bfc02858:	01090019 	multu	t0,t1
bfc0285c:	00008012 	mflo	s0
bfc02860:	3c122ffc 	lui	s2,0x2ffc
bfc02864:	3652c294 	ori	s2,s2,0xc294
bfc02868:	16120657 	bne	s0,s2,bfc041c8 <inst_error>
bfc0286c:	00000000 	nop
bfc02870:	00008010 	mfhi	s0
bfc02874:	3c1206c6 	lui	s2,0x6c6
bfc02878:	36523c3d 	ori	s2,s2,0x3c3d
bfc0287c:	16120652 	bne	s0,s2,bfc041c8 <inst_error>
bfc02880:	00000000 	nop
bfc02884:	3c080f2b 	lui	t0,0xf2b
bfc02888:	35080300 	ori	t0,t0,0x300
bfc0288c:	3c09ce19 	lui	t1,0xce19
bfc02890:	35291cdc 	ori	t1,t1,0x1cdc
bfc02894:	01090019 	multu	t0,t1
bfc02898:	00008012 	mflo	s0
bfc0289c:	3c12084a 	lui	s2,0x84a
bfc028a0:	36529400 	ori	s2,s2,0x9400
bfc028a4:	16120648 	bne	s0,s2,bfc041c8 <inst_error>
bfc028a8:	00000000 	nop
bfc028ac:	00008010 	mfhi	s0
bfc028b0:	3c120c36 	lui	s2,0xc36
bfc028b4:	36521953 	ori	s2,s2,0x1953
bfc028b8:	16120643 	bne	s0,s2,bfc041c8 <inst_error>
bfc028bc:	00000000 	nop
bfc028c0:	3c081c2b 	lui	t0,0x1c2b
bfc028c4:	3508c602 	ori	t0,t0,0xc602
bfc028c8:	3c090778 	lui	t1,0x778
bfc028cc:	3529ec74 	ori	t1,t1,0xec74
bfc028d0:	01090019 	multu	t0,t1
bfc028d4:	00008012 	mflo	s0
bfc028d8:	3c12fd4f 	lui	s2,0xfd4f
bfc028dc:	365290e8 	ori	s2,s2,0x90e8
bfc028e0:	16120639 	bne	s0,s2,bfc041c8 <inst_error>
bfc028e4:	00000000 	nop
bfc028e8:	00008010 	mfhi	s0
bfc028ec:	3c1200d2 	lui	s2,0xd2
bfc028f0:	365280f3 	ori	s2,s2,0x80f3
bfc028f4:	16120634 	bne	s0,s2,bfc041c8 <inst_error>
bfc028f8:	00000000 	nop
bfc028fc:	3c082309 	lui	t0,0x2309
bfc02900:	3508bbeb 	ori	t0,t0,0xbbeb
bfc02904:	3c09276e 	lui	t1,0x276e
bfc02908:	35298de0 	ori	t1,t1,0x8de0
bfc0290c:	01090019 	multu	t0,t1
bfc02910:	00008012 	mflo	s0
bfc02914:	3c1290fe 	lui	s2,0x90fe
bfc02918:	3652dca0 	ori	s2,s2,0xdca0
bfc0291c:	1612062a 	bne	s0,s2,bfc041c8 <inst_error>
bfc02920:	00000000 	nop
bfc02924:	00008010 	mfhi	s0
bfc02928:	3c120565 	lui	s2,0x565
bfc0292c:	36529d3a 	ori	s2,s2,0x9d3a
bfc02930:	16120625 	bne	s0,s2,bfc041c8 <inst_error>
bfc02934:	00000000 	nop
bfc02938:	3c08fc89 	lui	t0,0xfc89
bfc0293c:	350813fc 	ori	t0,t0,0x13fc
bfc02940:	3c09f1ff 	lui	t1,0xf1ff
bfc02944:	3529f9e0 	ori	t1,t1,0xf9e0
bfc02948:	01090019 	multu	t0,t1
bfc0294c:	00008012 	mflo	s0
bfc02950:	3c127065 	lui	s2,0x7065
bfc02954:	36529880 	ori	s2,s2,0x9880
bfc02958:	1612061b 	bne	s0,s2,bfc041c8 <inst_error>
bfc0295c:	00000000 	nop
bfc02960:	00008010 	mfhi	s0
bfc02964:	3c12eeb9 	lui	s2,0xeeb9
bfc02968:	36528ed9 	ori	s2,s2,0x8ed9
bfc0296c:	16120616 	bne	s0,s2,bfc041c8 <inst_error>
bfc02970:	00000000 	nop
bfc02974:	3c086925 	lui	t0,0x6925
bfc02978:	35081370 	ori	t0,t0,0x1370
bfc0297c:	3c098751 	lui	t1,0x8751
bfc02980:	35295cf0 	ori	t1,t1,0x5cf0
bfc02984:	01090019 	multu	t0,t1
bfc02988:	00008012 	mflo	s0
bfc0298c:	3c121c2e 	lui	s2,0x1c2e
bfc02990:	36527900 	ori	s2,s2,0x7900
bfc02994:	1612060c 	bne	s0,s2,bfc041c8 <inst_error>
bfc02998:	00000000 	nop
bfc0299c:	00008010 	mfhi	s0
bfc029a0:	3c123793 	lui	s2,0x3793
bfc029a4:	3652f827 	ori	s2,s2,0xf827
bfc029a8:	16120607 	bne	s0,s2,bfc041c8 <inst_error>
bfc029ac:	00000000 	nop
bfc029b0:	3c08fe8f 	lui	t0,0xfe8f
bfc029b4:	35082a84 	ori	t0,t0,0x2a84
bfc029b8:	3c09f79d 	lui	t1,0xf79d
bfc029bc:	3529dad2 	ori	t1,t1,0xdad2
bfc029c0:	01090019 	multu	t0,t1
bfc029c4:	00008012 	mflo	s0
bfc029c8:	3c122a99 	lui	s2,0x2a99
bfc029cc:	36524848 	ori	s2,s2,0x4848
bfc029d0:	161205fd 	bne	s0,s2,bfc041c8 <inst_error>
bfc029d4:	00000000 	nop
bfc029d8:	00008010 	mfhi	s0
bfc029dc:	3c12f639 	lui	s2,0xf639
bfc029e0:	36521969 	ori	s2,s2,0x1969
bfc029e4:	161205f8 	bne	s0,s2,bfc041c8 <inst_error>
bfc029e8:	00000000 	nop
bfc029ec:	3c085575 	lui	t0,0x5575
bfc029f0:	3508b144 	ori	t0,t0,0xb144
bfc029f4:	3c0988b0 	lui	t1,0x88b0
bfc029f8:	35290d00 	ori	t1,t1,0xd00
bfc029fc:	01090019 	multu	t0,t1
bfc02a00:	00008012 	mflo	s0
bfc02a04:	3c12f8c0 	lui	s2,0xf8c0
bfc02a08:	36527400 	ori	s2,s2,0x7400
bfc02a0c:	161205ee 	bne	s0,s2,bfc041c8 <inst_error>
bfc02a10:	00000000 	nop
bfc02a14:	00008010 	mfhi	s0
bfc02a18:	3c122da1 	lui	s2,0x2da1
bfc02a1c:	36524b6c 	ori	s2,s2,0x4b6c
bfc02a20:	161205e9 	bne	s0,s2,bfc041c8 <inst_error>
bfc02a24:	00000000 	nop
bfc02a28:	3c0854ee 	lui	t0,0x54ee
bfc02a2c:	350842c0 	ori	t0,t0,0x42c0
bfc02a30:	3c0901ca 	lui	t1,0x1ca
bfc02a34:	35291364 	ori	t1,t1,0x1364
bfc02a38:	01090019 	multu	t0,t1
bfc02a3c:	00008012 	mflo	s0
bfc02a40:	3c124786 	lui	s2,0x4786
bfc02a44:	36525300 	ori	s2,s2,0x5300
bfc02a48:	161205df 	bne	s0,s2,bfc041c8 <inst_error>
bfc02a4c:	00000000 	nop
bfc02a50:	00008010 	mfhi	s0
bfc02a54:	3c120097 	lui	s2,0x97
bfc02a58:	3652f8b2 	ori	s2,s2,0xf8b2
bfc02a5c:	161205da 	bne	s0,s2,bfc041c8 <inst_error>
bfc02a60:	00000000 	nop
bfc02a64:	3c0869f2 	lui	t0,0x69f2
bfc02a68:	3508ba20 	ori	t0,t0,0xba20
bfc02a6c:	3c096744 	lui	t1,0x6744
bfc02a70:	35292d48 	ori	t1,t1,0x2d48
bfc02a74:	01090019 	multu	t0,t1
bfc02a78:	00008012 	mflo	s0
bfc02a7c:	3c12c77b 	lui	s2,0xc77b
bfc02a80:	3652f900 	ori	s2,s2,0xf900
bfc02a84:	161205d0 	bne	s0,s2,bfc041c8 <inst_error>
bfc02a88:	00000000 	nop
bfc02a8c:	00008010 	mfhi	s0
bfc02a90:	3c122abc 	lui	s2,0x2abc
bfc02a94:	3652e019 	ori	s2,s2,0xe019
bfc02a98:	161205cb 	bne	s0,s2,bfc041c8 <inst_error>
bfc02a9c:	00000000 	nop
bfc02aa0:	3c08d3dd 	lui	t0,0xd3dd
bfc02aa4:	3508ade9 	ori	t0,t0,0xade9
bfc02aa8:	3c09ad1b 	lui	t1,0xad1b
bfc02aac:	3529e440 	ori	t1,t1,0xe440
bfc02ab0:	01090019 	multu	t0,t1
bfc02ab4:	00008012 	mflo	s0
bfc02ab8:	3c1232e1 	lui	s2,0x32e1
bfc02abc:	3652fe40 	ori	s2,s2,0xfe40
bfc02ac0:	161205c1 	bne	s0,s2,bfc041c8 <inst_error>
bfc02ac4:	00000000 	nop
bfc02ac8:	00008010 	mfhi	s0
bfc02acc:	3c128f43 	lui	s2,0x8f43
bfc02ad0:	3652e3ce 	ori	s2,s2,0xe3ce
bfc02ad4:	161205bc 	bne	s0,s2,bfc041c8 <inst_error>
bfc02ad8:	00000000 	nop
bfc02adc:	3c08eba8 	lui	t0,0xeba8
bfc02ae0:	35087389 	ori	t0,t0,0x7389
bfc02ae4:	3c0960e5 	lui	t1,0x60e5
bfc02ae8:	3529e8d0 	ori	t1,t1,0xe8d0
bfc02aec:	01090019 	multu	t0,t1
bfc02af0:	00008012 	mflo	s0
bfc02af4:	3c12db1f 	lui	s2,0xdb1f
bfc02af8:	36520750 	ori	s2,s2,0x750
bfc02afc:	161205b2 	bne	s0,s2,bfc041c8 <inst_error>
bfc02b00:	00000000 	nop
bfc02b04:	00008010 	mfhi	s0
bfc02b08:	3c125932 	lui	s2,0x5932
bfc02b0c:	3652cf52 	ori	s2,s2,0xcf52
bfc02b10:	161205ad 	bne	s0,s2,bfc041c8 <inst_error>
bfc02b14:	00000000 	nop
bfc02b18:	3c089626 	lui	t0,0x9626
bfc02b1c:	350846d0 	ori	t0,t0,0x46d0
bfc02b20:	3c09b7f9 	lui	t1,0xb7f9
bfc02b24:	3529c55e 	ori	t1,t1,0xc55e
bfc02b28:	01090019 	multu	t0,t1
bfc02b2c:	00008012 	mflo	s0
bfc02b30:	3c1226dc 	lui	s2,0x26dc
bfc02b34:	36521060 	ori	s2,s2,0x1060
bfc02b38:	161205a3 	bne	s0,s2,bfc041c8 <inst_error>
bfc02b3c:	00000000 	nop
bfc02b40:	00008010 	mfhi	s0
bfc02b44:	3c126be7 	lui	s2,0x6be7
bfc02b48:	3652db9c 	ori	s2,s2,0xdb9c
bfc02b4c:	1612059e 	bne	s0,s2,bfc041c8 <inst_error>
bfc02b50:	00000000 	nop
bfc02b54:	3c08e61a 	lui	t0,0xe61a
bfc02b58:	3508da6a 	ori	t0,t0,0xda6a
bfc02b5c:	3c09eaf8 	lui	t1,0xeaf8
bfc02b60:	35294ca0 	ori	t1,t1,0x4ca0
bfc02b64:	01090019 	multu	t0,t1
bfc02b68:	00008012 	mflo	s0
bfc02b6c:	3c12444f 	lui	s2,0x444f
bfc02b70:	3652fa40 	ori	s2,s2,0xfa40
bfc02b74:	16120594 	bne	s0,s2,bfc041c8 <inst_error>
bfc02b78:	00000000 	nop
bfc02b7c:	00008010 	mfhi	s0
bfc02b80:	3c12d333 	lui	s2,0xd333
bfc02b84:	3652ba88 	ori	s2,s2,0xba88
bfc02b88:	1612058f 	bne	s0,s2,bfc041c8 <inst_error>
bfc02b8c:	00000000 	nop
bfc02b90:	3c08e404 	lui	t0,0xe404
bfc02b94:	3508fcc4 	ori	t0,t0,0xfcc4
bfc02b98:	3c09ffe1 	lui	t1,0xffe1
bfc02b9c:	3529bf46 	ori	t1,t1,0xbf46
bfc02ba0:	01090019 	multu	t0,t1
bfc02ba4:	00008012 	mflo	s0
bfc02ba8:	3c127637 	lui	s2,0x7637
bfc02bac:	36525998 	ori	s2,s2,0x5998
bfc02bb0:	16120585 	bne	s0,s2,bfc041c8 <inst_error>
bfc02bb4:	00000000 	nop
bfc02bb8:	00008010 	mfhi	s0
bfc02bbc:	3c12e3ea 	lui	s2,0xe3ea
bfc02bc0:	36520a87 	ori	s2,s2,0xa87
bfc02bc4:	16120580 	bne	s0,s2,bfc041c8 <inst_error>
bfc02bc8:	00000000 	nop
bfc02bcc:	3c084730 	lui	t0,0x4730
bfc02bd0:	3508c680 	ori	t0,t0,0xc680
bfc02bd4:	3c09955c 	lui	t1,0x955c
bfc02bd8:	35297e02 	ori	t1,t1,0x7e02
bfc02bdc:	01090019 	multu	t0,t1
bfc02be0:	00008012 	mflo	s0
bfc02be4:	3c126614 	lui	s2,0x6614
bfc02be8:	36528d00 	ori	s2,s2,0x8d00
bfc02bec:	16120576 	bne	s0,s2,bfc041c8 <inst_error>
bfc02bf0:	00000000 	nop
bfc02bf4:	00008010 	mfhi	s0
bfc02bf8:	3c122989 	lui	s2,0x2989
bfc02bfc:	36521c1a 	ori	s2,s2,0x1c1a
bfc02c00:	16120571 	bne	s0,s2,bfc041c8 <inst_error>
bfc02c04:	00000000 	nop
bfc02c08:	3c08298a 	lui	t0,0x298a
bfc02c0c:	3508f8c8 	ori	t0,t0,0xf8c8
bfc02c10:	3c0900c6 	lui	t1,0xc6
bfc02c14:	3529926a 	ori	t1,t1,0x926a
bfc02c18:	01090019 	multu	t0,t1
bfc02c1c:	00008012 	mflo	s0
bfc02c20:	3c12e01d 	lui	s2,0xe01d
bfc02c24:	365212d0 	ori	s2,s2,0x12d0
bfc02c28:	16120567 	bne	s0,s2,bfc041c8 <inst_error>
bfc02c2c:	00000000 	nop
bfc02c30:	00008010 	mfhi	s0
bfc02c34:	3c120020 	lui	s2,0x20
bfc02c38:	3652393e 	ori	s2,s2,0x393e
bfc02c3c:	16120562 	bne	s0,s2,bfc041c8 <inst_error>
bfc02c40:	00000000 	nop
bfc02c44:	3c08cf8a 	lui	t0,0xcf8a
bfc02c48:	35089e44 	ori	t0,t0,0x9e44
bfc02c4c:	3c09527a 	lui	t1,0x527a
bfc02c50:	35296c5a 	ori	t1,t1,0x6c5a
bfc02c54:	01090019 	multu	t0,t1
bfc02c58:	00008012 	mflo	s0
bfc02c5c:	3c12a5e8 	lui	s2,0xa5e8
bfc02c60:	365253e8 	ori	s2,s2,0x53e8
bfc02c64:	16120558 	bne	s0,s2,bfc041c8 <inst_error>
bfc02c68:	00000000 	nop
bfc02c6c:	00008010 	mfhi	s0
bfc02c70:	3c1242dd 	lui	s2,0x42dd
bfc02c74:	3652a698 	ori	s2,s2,0xa698
bfc02c78:	16120553 	bne	s0,s2,bfc041c8 <inst_error>
bfc02c7c:	00000000 	nop
bfc02c80:	3c08c4d6 	lui	t0,0xc4d6
bfc02c84:	35081e00 	ori	t0,t0,0x1e00
bfc02c88:	3c09ed65 	lui	t1,0xed65
bfc02c8c:	3529fd44 	ori	t1,t1,0xfd44
bfc02c90:	01090019 	multu	t0,t1
bfc02c94:	00008012 	mflo	s0
bfc02c98:	3c12ba85 	lui	s2,0xba85
bfc02c9c:	3652f800 	ori	s2,s2,0xf800
bfc02ca0:	16120549 	bne	s0,s2,bfc041c8 <inst_error>
bfc02ca4:	00000000 	nop
bfc02ca8:	00008010 	mfhi	s0
bfc02cac:	3c12b688 	lui	s2,0xb688
bfc02cb0:	3652a4fb 	ori	s2,s2,0xa4fb
bfc02cb4:	16120544 	bne	s0,s2,bfc041c8 <inst_error>
bfc02cb8:	00000000 	nop
bfc02cbc:	3c08bc1a 	lui	t0,0xbc1a
bfc02cc0:	35080d42 	ori	t0,t0,0xd42
bfc02cc4:	3c094d1c 	lui	t1,0x4d1c
bfc02cc8:	35294830 	ori	t1,t1,0x4830
bfc02ccc:	01090019 	multu	t0,t1
bfc02cd0:	00008012 	mflo	s0
bfc02cd4:	3c12e5d5 	lui	s2,0xe5d5
bfc02cd8:	36520c60 	ori	s2,s2,0xc60
bfc02cdc:	1612053a 	bne	s0,s2,bfc041c8 <inst_error>
bfc02ce0:	00000000 	nop
bfc02ce4:	00008010 	mfhi	s0
bfc02ce8:	3c1238a8 	lui	s2,0x38a8
bfc02cec:	36529de0 	ori	s2,s2,0x9de0
bfc02cf0:	16120535 	bne	s0,s2,bfc041c8 <inst_error>
bfc02cf4:	00000000 	nop
bfc02cf8:	3c08af26 	lui	t0,0xaf26
bfc02cfc:	350899c0 	ori	t0,t0,0x99c0
bfc02d00:	3c091ca1 	lui	t1,0x1ca1
bfc02d04:	35299077 	ori	t1,t1,0x9077
bfc02d08:	01090019 	multu	t0,t1
bfc02d0c:	00008012 	mflo	s0
bfc02d10:	3c12d32d 	lui	s2,0xd32d
bfc02d14:	36527840 	ori	s2,s2,0x7840
bfc02d18:	1612052b 	bne	s0,s2,bfc041c8 <inst_error>
bfc02d1c:	00000000 	nop
bfc02d20:	00008010 	mfhi	s0
bfc02d24:	3c121396 	lui	s2,0x1396
bfc02d28:	3652c2ee 	ori	s2,s2,0xc2ee
bfc02d2c:	16120526 	bne	s0,s2,bfc041c8 <inst_error>
bfc02d30:	00000000 	nop
bfc02d34:	3c08bcc4 	lui	t0,0xbcc4
bfc02d38:	3508d7a8 	ori	t0,t0,0xd7a8
bfc02d3c:	3c09923c 	lui	t1,0x923c
bfc02d40:	35297e90 	ori	t1,t1,0x7e90
bfc02d44:	01090019 	multu	t0,t1
bfc02d48:	00008012 	mflo	s0
bfc02d4c:	3c126c3d 	lui	s2,0x6c3d
bfc02d50:	3652fe80 	ori	s2,s2,0xfe80
bfc02d54:	1612051c 	bne	s0,s2,bfc041c8 <inst_error>
bfc02d58:	00000000 	nop
bfc02d5c:	00008010 	mfhi	s0
bfc02d60:	3c126bd4 	lui	s2,0x6bd4
bfc02d64:	3652de73 	ori	s2,s2,0xde73
bfc02d68:	16120517 	bne	s0,s2,bfc041c8 <inst_error>
bfc02d6c:	00000000 	nop
bfc02d70:	3c089f32 	lui	t0,0x9f32
bfc02d74:	3508e060 	ori	t0,t0,0xe060
bfc02d78:	3c093178 	lui	t1,0x3178
bfc02d7c:	3529e100 	ori	t1,t1,0xe100
bfc02d80:	01090019 	multu	t0,t1
bfc02d84:	00008012 	mflo	s0
bfc02d88:	3c124434 	lui	s2,0x4434
bfc02d8c:	36526000 	ori	s2,s2,0x6000
bfc02d90:	1612050d 	bne	s0,s2,bfc041c8 <inst_error>
bfc02d94:	00000000 	nop
bfc02d98:	00008010 	mfhi	s0
bfc02d9c:	3c121ec3 	lui	s2,0x1ec3
bfc02da0:	3652e8b7 	ori	s2,s2,0xe8b7
bfc02da4:	16120508 	bne	s0,s2,bfc041c8 <inst_error>
bfc02da8:	00000000 	nop
bfc02dac:	3c08e9b8 	lui	t0,0xe9b8
bfc02db0:	35087330 	ori	t0,t0,0x7330
bfc02db4:	3c09372b 	lui	t1,0x372b
bfc02db8:	35294f78 	ori	t1,t1,0x4f78
bfc02dbc:	01090019 	multu	t0,t1
bfc02dc0:	00008012 	mflo	s0
bfc02dc4:	3c122311 	lui	s2,0x2311
bfc02dc8:	3652ce80 	ori	s2,s2,0xce80
bfc02dcc:	161204fe 	bne	s0,s2,bfc041c8 <inst_error>
bfc02dd0:	00000000 	nop
bfc02dd4:	00008010 	mfhi	s0
bfc02dd8:	3c12325e 	lui	s2,0x325e
bfc02ddc:	36522b48 	ori	s2,s2,0x2b48
bfc02de0:	161204f9 	bne	s0,s2,bfc041c8 <inst_error>
bfc02de4:	00000000 	nop
bfc02de8:	3c081048 	lui	t0,0x1048
bfc02dec:	35083e78 	ori	t0,t0,0x3e78
bfc02df0:	3c09efa7 	lui	t1,0xefa7
bfc02df4:	35290d6a 	ori	t1,t1,0xd6a
bfc02df8:	01090019 	multu	t0,t1
bfc02dfc:	00008012 	mflo	s0
bfc02e00:	3c12315d 	lui	s2,0x315d
bfc02e04:	3652f5b0 	ori	s2,s2,0xf5b0
bfc02e08:	161204ef 	bne	s0,s2,bfc041c8 <inst_error>
bfc02e0c:	00000000 	nop
bfc02e10:	00008010 	mfhi	s0
bfc02e14:	3c120f3e 	lui	s2,0xf3e
bfc02e18:	3652124d 	ori	s2,s2,0x124d
bfc02e1c:	161204ea 	bne	s0,s2,bfc041c8 <inst_error>
bfc02e20:	00000000 	nop
bfc02e24:	3c086285 	lui	t0,0x6285
bfc02e28:	3508d9a4 	ori	t0,t0,0xd9a4
bfc02e2c:	3c094823 	lui	t1,0x4823
bfc02e30:	35298818 	ori	t1,t1,0x8818
bfc02e34:	01090019 	multu	t0,t1
bfc02e38:	00008012 	mflo	s0
bfc02e3c:	3c123997 	lui	s2,0x3997
bfc02e40:	36528760 	ori	s2,s2,0x8760
bfc02e44:	161204e0 	bne	s0,s2,bfc041c8 <inst_error>
bfc02e48:	00000000 	nop
bfc02e4c:	00008010 	mfhi	s0
bfc02e50:	3c121bc3 	lui	s2,0x1bc3
bfc02e54:	365251e3 	ori	s2,s2,0x51e3
bfc02e58:	161204db 	bne	s0,s2,bfc041c8 <inst_error>
bfc02e5c:	00000000 	nop
bfc02e60:	3c088ee8 	lui	t0,0x8ee8
bfc02e64:	35083024 	ori	t0,t0,0x3024
bfc02e68:	3c092a47 	lui	t1,0x2a47
bfc02e6c:	3529e0d0 	ori	t1,t1,0xe0d0
bfc02e70:	01090019 	multu	t0,t1
bfc02e74:	00008012 	mflo	s0
bfc02e78:	3c1288c2 	lui	s2,0x88c2
bfc02e7c:	36529d40 	ori	s2,s2,0x9d40
bfc02e80:	161204d1 	bne	s0,s2,bfc041c8 <inst_error>
bfc02e84:	00000000 	nop
bfc02e88:	00008010 	mfhi	s0
bfc02e8c:	3c12179a 	lui	s2,0x179a
bfc02e90:	365237ca 	ori	s2,s2,0x37ca
bfc02e94:	161204cc 	bne	s0,s2,bfc041c8 <inst_error>
bfc02e98:	00000000 	nop
bfc02e9c:	3c084f1e 	lui	t0,0x4f1e
bfc02ea0:	3508b000 	ori	t0,t0,0xb000
bfc02ea4:	3c0922e9 	lui	t1,0x22e9
bfc02ea8:	3529e3b4 	ori	t1,t1,0xe3b4
bfc02eac:	01090019 	multu	t0,t1
bfc02eb0:	00008012 	mflo	s0
bfc02eb4:	3c1207a3 	lui	s2,0x7a3
bfc02eb8:	3652c000 	ori	s2,s2,0xc000
bfc02ebc:	161204c2 	bne	s0,s2,bfc041c8 <inst_error>
bfc02ec0:	00000000 	nop
bfc02ec4:	00008010 	mfhi	s0
bfc02ec8:	3c120aca 	lui	s2,0xaca
bfc02ecc:	36525cae 	ori	s2,s2,0x5cae
bfc02ed0:	161204bd 	bne	s0,s2,bfc041c8 <inst_error>
bfc02ed4:	00000000 	nop
bfc02ed8:	3c0857ae 	lui	t0,0x57ae
bfc02edc:	3508a34c 	ori	t0,t0,0xa34c
bfc02ee0:	24090000 	li	t1,0
bfc02ee4:	01090019 	multu	t0,t1
bfc02ee8:	00008012 	mflo	s0
bfc02eec:	24120000 	li	s2,0
bfc02ef0:	161204b5 	bne	s0,s2,bfc041c8 <inst_error>
bfc02ef4:	00000000 	nop
bfc02ef8:	00008010 	mfhi	s0
bfc02efc:	24120000 	li	s2,0
bfc02f00:	161204b1 	bne	s0,s2,bfc041c8 <inst_error>
bfc02f04:	00000000 	nop
bfc02f08:	3c0804db 	lui	t0,0x4db
bfc02f0c:	3508dd80 	ori	t0,t0,0xdd80
bfc02f10:	24090000 	li	t1,0
bfc02f14:	01090019 	multu	t0,t1
bfc02f18:	00008012 	mflo	s0
bfc02f1c:	24120000 	li	s2,0
bfc02f20:	161204a9 	bne	s0,s2,bfc041c8 <inst_error>
bfc02f24:	00000000 	nop
bfc02f28:	00008010 	mfhi	s0
bfc02f2c:	24120000 	li	s2,0
bfc02f30:	161204a5 	bne	s0,s2,bfc041c8 <inst_error>
bfc02f34:	00000000 	nop
bfc02f38:	3c0879d5 	lui	t0,0x79d5
bfc02f3c:	3508a6b7 	ori	t0,t0,0xa6b7
bfc02f40:	24090000 	li	t1,0
bfc02f44:	01090019 	multu	t0,t1
bfc02f48:	00008012 	mflo	s0
bfc02f4c:	24120000 	li	s2,0
bfc02f50:	1612049d 	bne	s0,s2,bfc041c8 <inst_error>
bfc02f54:	00000000 	nop
bfc02f58:	00008010 	mfhi	s0
bfc02f5c:	24120000 	li	s2,0
bfc02f60:	16120499 	bne	s0,s2,bfc041c8 <inst_error>
bfc02f64:	00000000 	nop
bfc02f68:	3c089ad9 	lui	t0,0x9ad9
bfc02f6c:	35080f8c 	ori	t0,t0,0xf8c
bfc02f70:	24090000 	li	t1,0
bfc02f74:	01090019 	multu	t0,t1
bfc02f78:	00008012 	mflo	s0
bfc02f7c:	24120000 	li	s2,0
bfc02f80:	16120491 	bne	s0,s2,bfc041c8 <inst_error>
bfc02f84:	00000000 	nop
bfc02f88:	00008010 	mfhi	s0
bfc02f8c:	24120000 	li	s2,0
bfc02f90:	1612048d 	bne	s0,s2,bfc041c8 <inst_error>
bfc02f94:	00000000 	nop
bfc02f98:	3c088237 	lui	t0,0x8237
bfc02f9c:	3508f918 	ori	t0,t0,0xf918
bfc02fa0:	24090000 	li	t1,0
bfc02fa4:	01090019 	multu	t0,t1
bfc02fa8:	00008012 	mflo	s0
bfc02fac:	24120000 	li	s2,0
bfc02fb0:	16120485 	bne	s0,s2,bfc041c8 <inst_error>
bfc02fb4:	00000000 	nop
bfc02fb8:	00008010 	mfhi	s0
bfc02fbc:	24120000 	li	s2,0
bfc02fc0:	16120481 	bne	s0,s2,bfc041c8 <inst_error>
bfc02fc4:	00000000 	nop
bfc02fc8:	3c08c5ec 	lui	t0,0xc5ec
bfc02fcc:	3508adb0 	ori	t0,t0,0xadb0
bfc02fd0:	24090000 	li	t1,0
bfc02fd4:	01090019 	multu	t0,t1
bfc02fd8:	00008012 	mflo	s0
bfc02fdc:	24120000 	li	s2,0
bfc02fe0:	16120479 	bne	s0,s2,bfc041c8 <inst_error>
bfc02fe4:	00000000 	nop
bfc02fe8:	00008010 	mfhi	s0
bfc02fec:	24120000 	li	s2,0
bfc02ff0:	16120475 	bne	s0,s2,bfc041c8 <inst_error>
bfc02ff4:	00000000 	nop
bfc02ff8:	3c08c142 	lui	t0,0xc142
bfc02ffc:	35088c48 	ori	t0,t0,0x8c48
bfc03000:	24090000 	li	t1,0
bfc03004:	01090019 	multu	t0,t1
bfc03008:	00008012 	mflo	s0
bfc0300c:	24120000 	li	s2,0
bfc03010:	1612046d 	bne	s0,s2,bfc041c8 <inst_error>
bfc03014:	00000000 	nop
bfc03018:	00008010 	mfhi	s0
bfc0301c:	24120000 	li	s2,0
bfc03020:	16120469 	bne	s0,s2,bfc041c8 <inst_error>
bfc03024:	00000000 	nop
bfc03028:	3c08c76c 	lui	t0,0xc76c
bfc0302c:	35084282 	ori	t0,t0,0x4282
bfc03030:	24090000 	li	t1,0
bfc03034:	01090019 	multu	t0,t1
bfc03038:	00008012 	mflo	s0
bfc0303c:	24120000 	li	s2,0
bfc03040:	16120461 	bne	s0,s2,bfc041c8 <inst_error>
bfc03044:	00000000 	nop
bfc03048:	00008010 	mfhi	s0
bfc0304c:	24120000 	li	s2,0
bfc03050:	1612045d 	bne	s0,s2,bfc041c8 <inst_error>
bfc03054:	00000000 	nop
bfc03058:	3c0875cb 	lui	t0,0x75cb
bfc0305c:	35083203 	ori	t0,t0,0x3203
bfc03060:	24090000 	li	t1,0
bfc03064:	01090019 	multu	t0,t1
bfc03068:	00008012 	mflo	s0
bfc0306c:	24120000 	li	s2,0
bfc03070:	16120455 	bne	s0,s2,bfc041c8 <inst_error>
bfc03074:	00000000 	nop
bfc03078:	00008010 	mfhi	s0
bfc0307c:	24120000 	li	s2,0
bfc03080:	16120451 	bne	s0,s2,bfc041c8 <inst_error>
bfc03084:	00000000 	nop
bfc03088:	3c0869ec 	lui	t0,0x69ec
bfc0308c:	3508a580 	ori	t0,t0,0xa580
bfc03090:	24090000 	li	t1,0
bfc03094:	01090019 	multu	t0,t1
bfc03098:	00008012 	mflo	s0
bfc0309c:	24120000 	li	s2,0
bfc030a0:	16120449 	bne	s0,s2,bfc041c8 <inst_error>
bfc030a4:	00000000 	nop
bfc030a8:	00008010 	mfhi	s0
bfc030ac:	24120000 	li	s2,0
bfc030b0:	16120445 	bne	s0,s2,bfc041c8 <inst_error>
bfc030b4:	00000000 	nop
bfc030b8:	3c080d0a 	lui	t0,0xd0a
bfc030bc:	35084826 	ori	t0,t0,0x4826
bfc030c0:	24090000 	li	t1,0
bfc030c4:	01090019 	multu	t0,t1
bfc030c8:	00008012 	mflo	s0
bfc030cc:	24120000 	li	s2,0
bfc030d0:	1612043d 	bne	s0,s2,bfc041c8 <inst_error>
bfc030d4:	00000000 	nop
bfc030d8:	00008010 	mfhi	s0
bfc030dc:	24120000 	li	s2,0
bfc030e0:	16120439 	bne	s0,s2,bfc041c8 <inst_error>
bfc030e4:	00000000 	nop
bfc030e8:	3c086310 	lui	t0,0x6310
bfc030ec:	35087df8 	ori	t0,t0,0x7df8
bfc030f0:	24090000 	li	t1,0
bfc030f4:	01090019 	multu	t0,t1
bfc030f8:	00008012 	mflo	s0
bfc030fc:	24120000 	li	s2,0
bfc03100:	16120431 	bne	s0,s2,bfc041c8 <inst_error>
bfc03104:	00000000 	nop
bfc03108:	00008010 	mfhi	s0
bfc0310c:	24120000 	li	s2,0
bfc03110:	1612042d 	bne	s0,s2,bfc041c8 <inst_error>
bfc03114:	00000000 	nop
bfc03118:	3c086312 	lui	t0,0x6312
bfc0311c:	3508ce44 	ori	t0,t0,0xce44
bfc03120:	24090000 	li	t1,0
bfc03124:	01090019 	multu	t0,t1
bfc03128:	00008012 	mflo	s0
bfc0312c:	24120000 	li	s2,0
bfc03130:	16120425 	bne	s0,s2,bfc041c8 <inst_error>
bfc03134:	00000000 	nop
bfc03138:	00008010 	mfhi	s0
bfc0313c:	24120000 	li	s2,0
bfc03140:	16120421 	bne	s0,s2,bfc041c8 <inst_error>
bfc03144:	00000000 	nop
bfc03148:	3c089702 	lui	t0,0x9702
bfc0314c:	35088d00 	ori	t0,t0,0x8d00
bfc03150:	24090000 	li	t1,0
bfc03154:	01090019 	multu	t0,t1
bfc03158:	00008012 	mflo	s0
bfc0315c:	24120000 	li	s2,0
bfc03160:	16120419 	bne	s0,s2,bfc041c8 <inst_error>
bfc03164:	00000000 	nop
bfc03168:	00008010 	mfhi	s0
bfc0316c:	24120000 	li	s2,0
bfc03170:	16120415 	bne	s0,s2,bfc041c8 <inst_error>
bfc03174:	00000000 	nop
bfc03178:	3c08500e 	lui	t0,0x500e
bfc0317c:	35084a76 	ori	t0,t0,0x4a76
bfc03180:	24090000 	li	t1,0
bfc03184:	01090019 	multu	t0,t1
bfc03188:	00008012 	mflo	s0
bfc0318c:	24120000 	li	s2,0
bfc03190:	1612040d 	bne	s0,s2,bfc041c8 <inst_error>
bfc03194:	00000000 	nop
bfc03198:	00008010 	mfhi	s0
bfc0319c:	24120000 	li	s2,0
bfc031a0:	16120409 	bne	s0,s2,bfc041c8 <inst_error>
bfc031a4:	00000000 	nop
bfc031a8:	3c08e218 	lui	t0,0xe218
bfc031ac:	3508a480 	ori	t0,t0,0xa480
bfc031b0:	24090000 	li	t1,0
bfc031b4:	01090019 	multu	t0,t1
bfc031b8:	00008012 	mflo	s0
bfc031bc:	24120000 	li	s2,0
bfc031c0:	16120401 	bne	s0,s2,bfc041c8 <inst_error>
bfc031c4:	00000000 	nop
bfc031c8:	00008010 	mfhi	s0
bfc031cc:	24120000 	li	s2,0
bfc031d0:	161203fd 	bne	s0,s2,bfc041c8 <inst_error>
bfc031d4:	00000000 	nop
bfc031d8:	3c080672 	lui	t0,0x672
bfc031dc:	35088bfe 	ori	t0,t0,0x8bfe
bfc031e0:	24090000 	li	t1,0
bfc031e4:	01090019 	multu	t0,t1
bfc031e8:	00008012 	mflo	s0
bfc031ec:	24120000 	li	s2,0
bfc031f0:	161203f5 	bne	s0,s2,bfc041c8 <inst_error>
bfc031f4:	00000000 	nop
bfc031f8:	00008010 	mfhi	s0
bfc031fc:	24120000 	li	s2,0
bfc03200:	161203f1 	bne	s0,s2,bfc041c8 <inst_error>
bfc03204:	00000000 	nop
bfc03208:	3c08ea47 	lui	t0,0xea47
bfc0320c:	3508a0f4 	ori	t0,t0,0xa0f4
bfc03210:	24090000 	li	t1,0
bfc03214:	01090019 	multu	t0,t1
bfc03218:	00008012 	mflo	s0
bfc0321c:	24120000 	li	s2,0
bfc03220:	161203e9 	bne	s0,s2,bfc041c8 <inst_error>
bfc03224:	00000000 	nop
bfc03228:	00008010 	mfhi	s0
bfc0322c:	24120000 	li	s2,0
bfc03230:	161203e5 	bne	s0,s2,bfc041c8 <inst_error>
bfc03234:	00000000 	nop
bfc03238:	3c08ad45 	lui	t0,0xad45
bfc0323c:	35081c78 	ori	t0,t0,0x1c78
bfc03240:	24090000 	li	t1,0
bfc03244:	01090019 	multu	t0,t1
bfc03248:	00008012 	mflo	s0
bfc0324c:	24120000 	li	s2,0
bfc03250:	161203dd 	bne	s0,s2,bfc041c8 <inst_error>
bfc03254:	00000000 	nop
bfc03258:	00008010 	mfhi	s0
bfc0325c:	24120000 	li	s2,0
bfc03260:	161203d9 	bne	s0,s2,bfc041c8 <inst_error>
bfc03264:	00000000 	nop
bfc03268:	3c08a329 	lui	t0,0xa329
bfc0326c:	35082a11 	ori	t0,t0,0x2a11
bfc03270:	24090000 	li	t1,0
bfc03274:	01090019 	multu	t0,t1
bfc03278:	00008012 	mflo	s0
bfc0327c:	24120000 	li	s2,0
bfc03280:	161203d1 	bne	s0,s2,bfc041c8 <inst_error>
bfc03284:	00000000 	nop
bfc03288:	00008010 	mfhi	s0
bfc0328c:	24120000 	li	s2,0
bfc03290:	161203cd 	bne	s0,s2,bfc041c8 <inst_error>
bfc03294:	00000000 	nop
bfc03298:	3c08aa88 	lui	t0,0xaa88
bfc0329c:	3508b3e0 	ori	t0,t0,0xb3e0
bfc032a0:	24090000 	li	t1,0
bfc032a4:	01090019 	multu	t0,t1
bfc032a8:	00008012 	mflo	s0
bfc032ac:	24120000 	li	s2,0
bfc032b0:	161203c5 	bne	s0,s2,bfc041c8 <inst_error>
bfc032b4:	00000000 	nop
bfc032b8:	00008010 	mfhi	s0
bfc032bc:	24120000 	li	s2,0
bfc032c0:	161203c1 	bne	s0,s2,bfc041c8 <inst_error>
bfc032c4:	00000000 	nop
bfc032c8:	3c08a22d 	lui	t0,0xa22d
bfc032cc:	35080b10 	ori	t0,t0,0xb10
bfc032d0:	24090000 	li	t1,0
bfc032d4:	01090019 	multu	t0,t1
bfc032d8:	00008012 	mflo	s0
bfc032dc:	24120000 	li	s2,0
bfc032e0:	161203b9 	bne	s0,s2,bfc041c8 <inst_error>
bfc032e4:	00000000 	nop
bfc032e8:	00008010 	mfhi	s0
bfc032ec:	24120000 	li	s2,0
bfc032f0:	161203b5 	bne	s0,s2,bfc041c8 <inst_error>
bfc032f4:	00000000 	nop
bfc032f8:	3c08c4c2 	lui	t0,0xc4c2
bfc032fc:	350830ca 	ori	t0,t0,0x30ca
bfc03300:	24090000 	li	t1,0
bfc03304:	01090019 	multu	t0,t1
bfc03308:	00008012 	mflo	s0
bfc0330c:	24120000 	li	s2,0
bfc03310:	161203ad 	bne	s0,s2,bfc041c8 <inst_error>
bfc03314:	00000000 	nop
bfc03318:	00008010 	mfhi	s0
bfc0331c:	24120000 	li	s2,0
bfc03320:	161203a9 	bne	s0,s2,bfc041c8 <inst_error>
bfc03324:	00000000 	nop
bfc03328:	3c08471b 	lui	t0,0x471b
bfc0332c:	35081d40 	ori	t0,t0,0x1d40
bfc03330:	24090000 	li	t1,0
bfc03334:	01090019 	multu	t0,t1
bfc03338:	00008012 	mflo	s0
bfc0333c:	24120000 	li	s2,0
bfc03340:	161203a1 	bne	s0,s2,bfc041c8 <inst_error>
bfc03344:	00000000 	nop
bfc03348:	00008010 	mfhi	s0
bfc0334c:	24120000 	li	s2,0
bfc03350:	1612039d 	bne	s0,s2,bfc041c8 <inst_error>
bfc03354:	00000000 	nop
bfc03358:	3c088aa3 	lui	t0,0x8aa3
bfc0335c:	3508a154 	ori	t0,t0,0xa154
bfc03360:	24090000 	li	t1,0
bfc03364:	01090019 	multu	t0,t1
bfc03368:	00008012 	mflo	s0
bfc0336c:	24120000 	li	s2,0
bfc03370:	16120395 	bne	s0,s2,bfc041c8 <inst_error>
bfc03374:	00000000 	nop
bfc03378:	00008010 	mfhi	s0
bfc0337c:	24120000 	li	s2,0
bfc03380:	16120391 	bne	s0,s2,bfc041c8 <inst_error>
bfc03384:	00000000 	nop
bfc03388:	3c0806c2 	lui	t0,0x6c2
bfc0338c:	3508f400 	ori	t0,t0,0xf400
bfc03390:	24090000 	li	t1,0
bfc03394:	01090019 	multu	t0,t1
bfc03398:	00008012 	mflo	s0
bfc0339c:	24120000 	li	s2,0
bfc033a0:	16120389 	bne	s0,s2,bfc041c8 <inst_error>
bfc033a4:	00000000 	nop
bfc033a8:	00008010 	mfhi	s0
bfc033ac:	24120000 	li	s2,0
bfc033b0:	16120385 	bne	s0,s2,bfc041c8 <inst_error>
bfc033b4:	00000000 	nop
bfc033b8:	3c0844c7 	lui	t0,0x44c7
bfc033bc:	35082000 	ori	t0,t0,0x2000
bfc033c0:	24090000 	li	t1,0
bfc033c4:	01090019 	multu	t0,t1
bfc033c8:	00008012 	mflo	s0
bfc033cc:	24120000 	li	s2,0
bfc033d0:	1612037d 	bne	s0,s2,bfc041c8 <inst_error>
bfc033d4:	00000000 	nop
bfc033d8:	00008010 	mfhi	s0
bfc033dc:	24120000 	li	s2,0
bfc033e0:	16120379 	bne	s0,s2,bfc041c8 <inst_error>
bfc033e4:	00000000 	nop
bfc033e8:	3c08bf2a 	lui	t0,0xbf2a
bfc033ec:	350882a8 	ori	t0,t0,0x82a8
bfc033f0:	24090000 	li	t1,0
bfc033f4:	01090019 	multu	t0,t1
bfc033f8:	00008012 	mflo	s0
bfc033fc:	24120000 	li	s2,0
bfc03400:	16120371 	bne	s0,s2,bfc041c8 <inst_error>
bfc03404:	00000000 	nop
bfc03408:	00008010 	mfhi	s0
bfc0340c:	24120000 	li	s2,0
bfc03410:	1612036d 	bne	s0,s2,bfc041c8 <inst_error>
bfc03414:	00000000 	nop
bfc03418:	3c086a98 	lui	t0,0x6a98
bfc0341c:	3508e318 	ori	t0,t0,0xe318
bfc03420:	24090000 	li	t1,0
bfc03424:	01090019 	multu	t0,t1
bfc03428:	00008012 	mflo	s0
bfc0342c:	24120000 	li	s2,0
bfc03430:	16120365 	bne	s0,s2,bfc041c8 <inst_error>
bfc03434:	00000000 	nop
bfc03438:	00008010 	mfhi	s0
bfc0343c:	24120000 	li	s2,0
bfc03440:	16120361 	bne	s0,s2,bfc041c8 <inst_error>
bfc03444:	00000000 	nop
bfc03448:	3c0888d8 	lui	t0,0x88d8
bfc0344c:	3508d38e 	ori	t0,t0,0xd38e
bfc03450:	24090000 	li	t1,0
bfc03454:	01090019 	multu	t0,t1
bfc03458:	00008012 	mflo	s0
bfc0345c:	24120000 	li	s2,0
bfc03460:	16120359 	bne	s0,s2,bfc041c8 <inst_error>
bfc03464:	00000000 	nop
bfc03468:	00008010 	mfhi	s0
bfc0346c:	24120000 	li	s2,0
bfc03470:	16120355 	bne	s0,s2,bfc041c8 <inst_error>
bfc03474:	00000000 	nop
bfc03478:	3c08eee6 	lui	t0,0xeee6
bfc0347c:	3508913b 	ori	t0,t0,0x913b
bfc03480:	24090000 	li	t1,0
bfc03484:	01090019 	multu	t0,t1
bfc03488:	00008012 	mflo	s0
bfc0348c:	24120000 	li	s2,0
bfc03490:	1612034d 	bne	s0,s2,bfc041c8 <inst_error>
bfc03494:	00000000 	nop
bfc03498:	00008010 	mfhi	s0
bfc0349c:	24120000 	li	s2,0
bfc034a0:	16120349 	bne	s0,s2,bfc041c8 <inst_error>
bfc034a4:	00000000 	nop
bfc034a8:	3c08cf21 	lui	t0,0xcf21
bfc034ac:	3508d130 	ori	t0,t0,0xd130
bfc034b0:	24090000 	li	t1,0
bfc034b4:	01090019 	multu	t0,t1
bfc034b8:	00008012 	mflo	s0
bfc034bc:	24120000 	li	s2,0
bfc034c0:	16120341 	bne	s0,s2,bfc041c8 <inst_error>
bfc034c4:	00000000 	nop
bfc034c8:	00008010 	mfhi	s0
bfc034cc:	24120000 	li	s2,0
bfc034d0:	1612033d 	bne	s0,s2,bfc041c8 <inst_error>
bfc034d4:	00000000 	nop
bfc034d8:	3c085f50 	lui	t0,0x5f50
bfc034dc:	35084168 	ori	t0,t0,0x4168
bfc034e0:	24090000 	li	t1,0
bfc034e4:	01090019 	multu	t0,t1
bfc034e8:	00008012 	mflo	s0
bfc034ec:	24120000 	li	s2,0
bfc034f0:	16120335 	bne	s0,s2,bfc041c8 <inst_error>
bfc034f4:	00000000 	nop
bfc034f8:	00008010 	mfhi	s0
bfc034fc:	24120000 	li	s2,0
bfc03500:	16120331 	bne	s0,s2,bfc041c8 <inst_error>
bfc03504:	00000000 	nop
bfc03508:	3c0826bb 	lui	t0,0x26bb
bfc0350c:	35083d90 	ori	t0,t0,0x3d90
bfc03510:	24090000 	li	t1,0
bfc03514:	01090019 	multu	t0,t1
bfc03518:	00008012 	mflo	s0
bfc0351c:	24120000 	li	s2,0
bfc03520:	16120329 	bne	s0,s2,bfc041c8 <inst_error>
bfc03524:	00000000 	nop
bfc03528:	00008010 	mfhi	s0
bfc0352c:	24120000 	li	s2,0
bfc03530:	16120325 	bne	s0,s2,bfc041c8 <inst_error>
bfc03534:	00000000 	nop
bfc03538:	3c088cbc 	lui	t0,0x8cbc
bfc0353c:	3508c874 	ori	t0,t0,0xc874
bfc03540:	24090000 	li	t1,0
bfc03544:	01090019 	multu	t0,t1
bfc03548:	00008012 	mflo	s0
bfc0354c:	24120000 	li	s2,0
bfc03550:	1612031d 	bne	s0,s2,bfc041c8 <inst_error>
bfc03554:	00000000 	nop
bfc03558:	00008010 	mfhi	s0
bfc0355c:	24120000 	li	s2,0
bfc03560:	16120319 	bne	s0,s2,bfc041c8 <inst_error>
bfc03564:	00000000 	nop
bfc03568:	3c0824ec 	lui	t0,0x24ec
bfc0356c:	35087894 	ori	t0,t0,0x7894
bfc03570:	24090000 	li	t1,0
bfc03574:	01090019 	multu	t0,t1
bfc03578:	00008012 	mflo	s0
bfc0357c:	24120000 	li	s2,0
bfc03580:	16120311 	bne	s0,s2,bfc041c8 <inst_error>
bfc03584:	00000000 	nop
bfc03588:	00008010 	mfhi	s0
bfc0358c:	24120000 	li	s2,0
bfc03590:	1612030d 	bne	s0,s2,bfc041c8 <inst_error>
bfc03594:	00000000 	nop
bfc03598:	3c08ecd3 	lui	t0,0xecd3
bfc0359c:	350867fc 	ori	t0,t0,0x67fc
bfc035a0:	24090000 	li	t1,0
bfc035a4:	01090019 	multu	t0,t1
bfc035a8:	00008012 	mflo	s0
bfc035ac:	24120000 	li	s2,0
bfc035b0:	16120305 	bne	s0,s2,bfc041c8 <inst_error>
bfc035b4:	00000000 	nop
bfc035b8:	00008010 	mfhi	s0
bfc035bc:	24120000 	li	s2,0
bfc035c0:	16120301 	bne	s0,s2,bfc041c8 <inst_error>
bfc035c4:	00000000 	nop
bfc035c8:	3c084519 	lui	t0,0x4519
bfc035cc:	35080c68 	ori	t0,t0,0xc68
bfc035d0:	24090000 	li	t1,0
bfc035d4:	01090019 	multu	t0,t1
bfc035d8:	00008012 	mflo	s0
bfc035dc:	24120000 	li	s2,0
bfc035e0:	161202f9 	bne	s0,s2,bfc041c8 <inst_error>
bfc035e4:	00000000 	nop
bfc035e8:	00008010 	mfhi	s0
bfc035ec:	24120000 	li	s2,0
bfc035f0:	161202f5 	bne	s0,s2,bfc041c8 <inst_error>
bfc035f4:	00000000 	nop
bfc035f8:	3c08f10e 	lui	t0,0xf10e
bfc035fc:	35087060 	ori	t0,t0,0x7060
bfc03600:	24090000 	li	t1,0
bfc03604:	01090019 	multu	t0,t1
bfc03608:	00008012 	mflo	s0
bfc0360c:	24120000 	li	s2,0
bfc03610:	161202ed 	bne	s0,s2,bfc041c8 <inst_error>
bfc03614:	00000000 	nop
bfc03618:	00008010 	mfhi	s0
bfc0361c:	24120000 	li	s2,0
bfc03620:	161202e9 	bne	s0,s2,bfc041c8 <inst_error>
bfc03624:	00000000 	nop
bfc03628:	3c089e5a 	lui	t0,0x9e5a
bfc0362c:	35088440 	ori	t0,t0,0x8440
bfc03630:	24090000 	li	t1,0
bfc03634:	01090019 	multu	t0,t1
bfc03638:	00008012 	mflo	s0
bfc0363c:	24120000 	li	s2,0
bfc03640:	161202e1 	bne	s0,s2,bfc041c8 <inst_error>
bfc03644:	00000000 	nop
bfc03648:	00008010 	mfhi	s0
bfc0364c:	24120000 	li	s2,0
bfc03650:	161202dd 	bne	s0,s2,bfc041c8 <inst_error>
bfc03654:	00000000 	nop
bfc03658:	3c08c8bf 	lui	t0,0xc8bf
bfc0365c:	350828d8 	ori	t0,t0,0x28d8
bfc03660:	24090000 	li	t1,0
bfc03664:	01090019 	multu	t0,t1
bfc03668:	00008012 	mflo	s0
bfc0366c:	24120000 	li	s2,0
bfc03670:	161202d5 	bne	s0,s2,bfc041c8 <inst_error>
bfc03674:	00000000 	nop
bfc03678:	00008010 	mfhi	s0
bfc0367c:	24120000 	li	s2,0
bfc03680:	161202d1 	bne	s0,s2,bfc041c8 <inst_error>
bfc03684:	00000000 	nop
bfc03688:	3c0889ab 	lui	t0,0x89ab
bfc0368c:	3508d716 	ori	t0,t0,0xd716
bfc03690:	24090000 	li	t1,0
bfc03694:	01090019 	multu	t0,t1
bfc03698:	00008012 	mflo	s0
bfc0369c:	24120000 	li	s2,0
bfc036a0:	161202c9 	bne	s0,s2,bfc041c8 <inst_error>
bfc036a4:	00000000 	nop
bfc036a8:	00008010 	mfhi	s0
bfc036ac:	24120000 	li	s2,0
bfc036b0:	161202c5 	bne	s0,s2,bfc041c8 <inst_error>
bfc036b4:	00000000 	nop
bfc036b8:	3c081bf0 	lui	t0,0x1bf0
bfc036bc:	35083144 	ori	t0,t0,0x3144
bfc036c0:	24090000 	li	t1,0
bfc036c4:	01090019 	multu	t0,t1
bfc036c8:	00008012 	mflo	s0
bfc036cc:	24120000 	li	s2,0
bfc036d0:	161202bd 	bne	s0,s2,bfc041c8 <inst_error>
bfc036d4:	00000000 	nop
bfc036d8:	00008010 	mfhi	s0
bfc036dc:	24120000 	li	s2,0
bfc036e0:	161202b9 	bne	s0,s2,bfc041c8 <inst_error>
bfc036e4:	00000000 	nop
bfc036e8:	3c08ead5 	lui	t0,0xead5
bfc036ec:	3508c430 	ori	t0,t0,0xc430
bfc036f0:	24090000 	li	t1,0
bfc036f4:	01090019 	multu	t0,t1
bfc036f8:	00008012 	mflo	s0
bfc036fc:	24120000 	li	s2,0
bfc03700:	161202b1 	bne	s0,s2,bfc041c8 <inst_error>
bfc03704:	00000000 	nop
bfc03708:	00008010 	mfhi	s0
bfc0370c:	24120000 	li	s2,0
bfc03710:	161202ad 	bne	s0,s2,bfc041c8 <inst_error>
bfc03714:	00000000 	nop
bfc03718:	3c08a6f4 	lui	t0,0xa6f4
bfc0371c:	35082c9c 	ori	t0,t0,0x2c9c
bfc03720:	24090000 	li	t1,0
bfc03724:	01090019 	multu	t0,t1
bfc03728:	00008012 	mflo	s0
bfc0372c:	24120000 	li	s2,0
bfc03730:	161202a5 	bne	s0,s2,bfc041c8 <inst_error>
bfc03734:	00000000 	nop
bfc03738:	00008010 	mfhi	s0
bfc0373c:	24120000 	li	s2,0
bfc03740:	161202a1 	bne	s0,s2,bfc041c8 <inst_error>
bfc03744:	00000000 	nop
bfc03748:	3c082ea6 	lui	t0,0x2ea6
bfc0374c:	3508c096 	ori	t0,t0,0xc096
bfc03750:	24090000 	li	t1,0
bfc03754:	01090019 	multu	t0,t1
bfc03758:	00008012 	mflo	s0
bfc0375c:	24120000 	li	s2,0
bfc03760:	16120299 	bne	s0,s2,bfc041c8 <inst_error>
bfc03764:	00000000 	nop
bfc03768:	00008010 	mfhi	s0
bfc0376c:	24120000 	li	s2,0
bfc03770:	16120295 	bne	s0,s2,bfc041c8 <inst_error>
bfc03774:	00000000 	nop
bfc03778:	3c085065 	lui	t0,0x5065
bfc0377c:	3508d1a7 	ori	t0,t0,0xd1a7
bfc03780:	24090000 	li	t1,0
bfc03784:	01090019 	multu	t0,t1
bfc03788:	00008012 	mflo	s0
bfc0378c:	24120000 	li	s2,0
bfc03790:	1612028d 	bne	s0,s2,bfc041c8 <inst_error>
bfc03794:	00000000 	nop
bfc03798:	00008010 	mfhi	s0
bfc0379c:	24120000 	li	s2,0
bfc037a0:	16120289 	bne	s0,s2,bfc041c8 <inst_error>
bfc037a4:	00000000 	nop
bfc037a8:	3c08780f 	lui	t0,0x780f
bfc037ac:	35086870 	ori	t0,t0,0x6870
bfc037b0:	24090000 	li	t1,0
bfc037b4:	01090019 	multu	t0,t1
bfc037b8:	00008012 	mflo	s0
bfc037bc:	24120000 	li	s2,0
bfc037c0:	16120281 	bne	s0,s2,bfc041c8 <inst_error>
bfc037c4:	00000000 	nop
bfc037c8:	00008010 	mfhi	s0
bfc037cc:	24120000 	li	s2,0
bfc037d0:	1612027d 	bne	s0,s2,bfc041c8 <inst_error>
bfc037d4:	00000000 	nop
bfc037d8:	3c08fd3e 	lui	t0,0xfd3e
bfc037dc:	3508c380 	ori	t0,t0,0xc380
bfc037e0:	24090000 	li	t1,0
bfc037e4:	01090019 	multu	t0,t1
bfc037e8:	00008012 	mflo	s0
bfc037ec:	24120000 	li	s2,0
bfc037f0:	16120275 	bne	s0,s2,bfc041c8 <inst_error>
bfc037f4:	00000000 	nop
bfc037f8:	00008010 	mfhi	s0
bfc037fc:	24120000 	li	s2,0
bfc03800:	16120271 	bne	s0,s2,bfc041c8 <inst_error>
bfc03804:	00000000 	nop
bfc03808:	3c08f9ac 	lui	t0,0xf9ac
bfc0380c:	3508a260 	ori	t0,t0,0xa260
bfc03810:	24090000 	li	t1,0
bfc03814:	01090019 	multu	t0,t1
bfc03818:	00008012 	mflo	s0
bfc0381c:	24120000 	li	s2,0
bfc03820:	16120269 	bne	s0,s2,bfc041c8 <inst_error>
bfc03824:	00000000 	nop
bfc03828:	00008010 	mfhi	s0
bfc0382c:	24120000 	li	s2,0
bfc03830:	16120265 	bne	s0,s2,bfc041c8 <inst_error>
bfc03834:	00000000 	nop
bfc03838:	24080000 	li	t0,0
bfc0383c:	3c095fd0 	lui	t1,0x5fd0
bfc03840:	3529b691 	ori	t1,t1,0xb691
bfc03844:	01090019 	multu	t0,t1
bfc03848:	00008012 	mflo	s0
bfc0384c:	24120000 	li	s2,0
bfc03850:	1612025d 	bne	s0,s2,bfc041c8 <inst_error>
bfc03854:	00000000 	nop
bfc03858:	00008010 	mfhi	s0
bfc0385c:	24120000 	li	s2,0
bfc03860:	16120259 	bne	s0,s2,bfc041c8 <inst_error>
bfc03864:	00000000 	nop
bfc03868:	24080000 	li	t0,0
bfc0386c:	3c09f679 	lui	t1,0xf679
bfc03870:	3529e400 	ori	t1,t1,0xe400
bfc03874:	01090019 	multu	t0,t1
bfc03878:	00008012 	mflo	s0
bfc0387c:	24120000 	li	s2,0
bfc03880:	16120251 	bne	s0,s2,bfc041c8 <inst_error>
bfc03884:	00000000 	nop
bfc03888:	00008010 	mfhi	s0
bfc0388c:	24120000 	li	s2,0
bfc03890:	1612024d 	bne	s0,s2,bfc041c8 <inst_error>
bfc03894:	00000000 	nop
bfc03898:	24080000 	li	t0,0
bfc0389c:	3c09c177 	lui	t1,0xc177
bfc038a0:	352916c0 	ori	t1,t1,0x16c0
bfc038a4:	01090019 	multu	t0,t1
bfc038a8:	00008012 	mflo	s0
bfc038ac:	24120000 	li	s2,0
bfc038b0:	16120245 	bne	s0,s2,bfc041c8 <inst_error>
bfc038b4:	00000000 	nop
bfc038b8:	00008010 	mfhi	s0
bfc038bc:	24120000 	li	s2,0
bfc038c0:	16120241 	bne	s0,s2,bfc041c8 <inst_error>
bfc038c4:	00000000 	nop
bfc038c8:	24080000 	li	t0,0
bfc038cc:	3c09f48e 	lui	t1,0xf48e
bfc038d0:	352984c0 	ori	t1,t1,0x84c0
bfc038d4:	01090019 	multu	t0,t1
bfc038d8:	00008012 	mflo	s0
bfc038dc:	24120000 	li	s2,0
bfc038e0:	16120239 	bne	s0,s2,bfc041c8 <inst_error>
bfc038e4:	00000000 	nop
bfc038e8:	00008010 	mfhi	s0
bfc038ec:	24120000 	li	s2,0
bfc038f0:	16120235 	bne	s0,s2,bfc041c8 <inst_error>
bfc038f4:	00000000 	nop
bfc038f8:	24080000 	li	t0,0
bfc038fc:	3c09dd2f 	lui	t1,0xdd2f
bfc03900:	35290cb8 	ori	t1,t1,0xcb8
bfc03904:	01090019 	multu	t0,t1
bfc03908:	00008012 	mflo	s0
bfc0390c:	24120000 	li	s2,0
bfc03910:	1612022d 	bne	s0,s2,bfc041c8 <inst_error>
bfc03914:	00000000 	nop
bfc03918:	00008010 	mfhi	s0
bfc0391c:	24120000 	li	s2,0
bfc03920:	16120229 	bne	s0,s2,bfc041c8 <inst_error>
bfc03924:	00000000 	nop
bfc03928:	24080000 	li	t0,0
bfc0392c:	3c0931f2 	lui	t1,0x31f2
bfc03930:	35298ad0 	ori	t1,t1,0x8ad0
bfc03934:	01090019 	multu	t0,t1
bfc03938:	00008012 	mflo	s0
bfc0393c:	24120000 	li	s2,0
bfc03940:	16120221 	bne	s0,s2,bfc041c8 <inst_error>
bfc03944:	00000000 	nop
bfc03948:	00008010 	mfhi	s0
bfc0394c:	24120000 	li	s2,0
bfc03950:	1612021d 	bne	s0,s2,bfc041c8 <inst_error>
bfc03954:	00000000 	nop
bfc03958:	24080000 	li	t0,0
bfc0395c:	3c091c76 	lui	t1,0x1c76
bfc03960:	3529f704 	ori	t1,t1,0xf704
bfc03964:	01090019 	multu	t0,t1
bfc03968:	00008012 	mflo	s0
bfc0396c:	24120000 	li	s2,0
bfc03970:	16120215 	bne	s0,s2,bfc041c8 <inst_error>
bfc03974:	00000000 	nop
bfc03978:	00008010 	mfhi	s0
bfc0397c:	24120000 	li	s2,0
bfc03980:	16120211 	bne	s0,s2,bfc041c8 <inst_error>
bfc03984:	00000000 	nop
bfc03988:	24080000 	li	t0,0
bfc0398c:	3c094e1b 	lui	t1,0x4e1b
bfc03990:	35293e30 	ori	t1,t1,0x3e30
bfc03994:	01090019 	multu	t0,t1
bfc03998:	00008012 	mflo	s0
bfc0399c:	24120000 	li	s2,0
bfc039a0:	16120209 	bne	s0,s2,bfc041c8 <inst_error>
bfc039a4:	00000000 	nop
bfc039a8:	00008010 	mfhi	s0
bfc039ac:	24120000 	li	s2,0
bfc039b0:	16120205 	bne	s0,s2,bfc041c8 <inst_error>
bfc039b4:	00000000 	nop
bfc039b8:	24080000 	li	t0,0
bfc039bc:	3c095307 	lui	t1,0x5307
bfc039c0:	3529b8c4 	ori	t1,t1,0xb8c4
bfc039c4:	01090019 	multu	t0,t1
bfc039c8:	00008012 	mflo	s0
bfc039cc:	24120000 	li	s2,0
bfc039d0:	161201fd 	bne	s0,s2,bfc041c8 <inst_error>
bfc039d4:	00000000 	nop
bfc039d8:	00008010 	mfhi	s0
bfc039dc:	24120000 	li	s2,0
bfc039e0:	161201f9 	bne	s0,s2,bfc041c8 <inst_error>
bfc039e4:	00000000 	nop
bfc039e8:	24080000 	li	t0,0
bfc039ec:	3c099694 	lui	t1,0x9694
bfc039f0:	352979d9 	ori	t1,t1,0x79d9
bfc039f4:	01090019 	multu	t0,t1
bfc039f8:	00008012 	mflo	s0
bfc039fc:	24120000 	li	s2,0
bfc03a00:	161201f1 	bne	s0,s2,bfc041c8 <inst_error>
bfc03a04:	00000000 	nop
bfc03a08:	00008010 	mfhi	s0
bfc03a0c:	24120000 	li	s2,0
bfc03a10:	161201ed 	bne	s0,s2,bfc041c8 <inst_error>
bfc03a14:	00000000 	nop
bfc03a18:	24080000 	li	t0,0
bfc03a1c:	3c096d23 	lui	t1,0x6d23
bfc03a20:	3529f092 	ori	t1,t1,0xf092
bfc03a24:	01090019 	multu	t0,t1
bfc03a28:	00008012 	mflo	s0
bfc03a2c:	24120000 	li	s2,0
bfc03a30:	161201e5 	bne	s0,s2,bfc041c8 <inst_error>
bfc03a34:	00000000 	nop
bfc03a38:	00008010 	mfhi	s0
bfc03a3c:	24120000 	li	s2,0
bfc03a40:	161201e1 	bne	s0,s2,bfc041c8 <inst_error>
bfc03a44:	00000000 	nop
bfc03a48:	24080000 	li	t0,0
bfc03a4c:	3c09f758 	lui	t1,0xf758
bfc03a50:	3529e7d8 	ori	t1,t1,0xe7d8
bfc03a54:	01090019 	multu	t0,t1
bfc03a58:	00008012 	mflo	s0
bfc03a5c:	24120000 	li	s2,0
bfc03a60:	161201d9 	bne	s0,s2,bfc041c8 <inst_error>
bfc03a64:	00000000 	nop
bfc03a68:	00008010 	mfhi	s0
bfc03a6c:	24120000 	li	s2,0
bfc03a70:	161201d5 	bne	s0,s2,bfc041c8 <inst_error>
bfc03a74:	00000000 	nop
bfc03a78:	24080000 	li	t0,0
bfc03a7c:	3c09d16c 	lui	t1,0xd16c
bfc03a80:	352957d2 	ori	t1,t1,0x57d2
bfc03a84:	01090019 	multu	t0,t1
bfc03a88:	00008012 	mflo	s0
bfc03a8c:	24120000 	li	s2,0
bfc03a90:	161201cd 	bne	s0,s2,bfc041c8 <inst_error>
bfc03a94:	00000000 	nop
bfc03a98:	00008010 	mfhi	s0
bfc03a9c:	24120000 	li	s2,0
bfc03aa0:	161201c9 	bne	s0,s2,bfc041c8 <inst_error>
bfc03aa4:	00000000 	nop
bfc03aa8:	24080000 	li	t0,0
bfc03aac:	3c0950a7 	lui	t1,0x50a7
bfc03ab0:	3529bdd4 	ori	t1,t1,0xbdd4
bfc03ab4:	01090019 	multu	t0,t1
bfc03ab8:	00008012 	mflo	s0
bfc03abc:	24120000 	li	s2,0
bfc03ac0:	161201c1 	bne	s0,s2,bfc041c8 <inst_error>
bfc03ac4:	00000000 	nop
bfc03ac8:	00008010 	mfhi	s0
bfc03acc:	24120000 	li	s2,0
bfc03ad0:	161201bd 	bne	s0,s2,bfc041c8 <inst_error>
bfc03ad4:	00000000 	nop
bfc03ad8:	24080000 	li	t0,0
bfc03adc:	3c099d7a 	lui	t1,0x9d7a
bfc03ae0:	3529c0f5 	ori	t1,t1,0xc0f5
bfc03ae4:	01090019 	multu	t0,t1
bfc03ae8:	00008012 	mflo	s0
bfc03aec:	24120000 	li	s2,0
bfc03af0:	161201b5 	bne	s0,s2,bfc041c8 <inst_error>
bfc03af4:	00000000 	nop
bfc03af8:	00008010 	mfhi	s0
bfc03afc:	24120000 	li	s2,0
bfc03b00:	161201b1 	bne	s0,s2,bfc041c8 <inst_error>
bfc03b04:	00000000 	nop
bfc03b08:	24080000 	li	t0,0
bfc03b0c:	3c096fd3 	lui	t1,0x6fd3
bfc03b10:	35298598 	ori	t1,t1,0x8598
bfc03b14:	01090019 	multu	t0,t1
bfc03b18:	00008012 	mflo	s0
bfc03b1c:	24120000 	li	s2,0
bfc03b20:	161201a9 	bne	s0,s2,bfc041c8 <inst_error>
bfc03b24:	00000000 	nop
bfc03b28:	00008010 	mfhi	s0
bfc03b2c:	24120000 	li	s2,0
bfc03b30:	161201a5 	bne	s0,s2,bfc041c8 <inst_error>
bfc03b34:	00000000 	nop
bfc03b38:	24080000 	li	t0,0
bfc03b3c:	3c0943ee 	lui	t1,0x43ee
bfc03b40:	3529c7fc 	ori	t1,t1,0xc7fc
bfc03b44:	01090019 	multu	t0,t1
bfc03b48:	00008012 	mflo	s0
bfc03b4c:	24120000 	li	s2,0
bfc03b50:	1612019d 	bne	s0,s2,bfc041c8 <inst_error>
bfc03b54:	00000000 	nop
bfc03b58:	00008010 	mfhi	s0
bfc03b5c:	24120000 	li	s2,0
bfc03b60:	16120199 	bne	s0,s2,bfc041c8 <inst_error>
bfc03b64:	00000000 	nop
bfc03b68:	24080000 	li	t0,0
bfc03b6c:	3c099259 	lui	t1,0x9259
bfc03b70:	3529c5e6 	ori	t1,t1,0xc5e6
bfc03b74:	01090019 	multu	t0,t1
bfc03b78:	00008012 	mflo	s0
bfc03b7c:	24120000 	li	s2,0
bfc03b80:	16120191 	bne	s0,s2,bfc041c8 <inst_error>
bfc03b84:	00000000 	nop
bfc03b88:	00008010 	mfhi	s0
bfc03b8c:	24120000 	li	s2,0
bfc03b90:	1612018d 	bne	s0,s2,bfc041c8 <inst_error>
bfc03b94:	00000000 	nop
bfc03b98:	24080000 	li	t0,0
bfc03b9c:	3c093c8f 	lui	t1,0x3c8f
bfc03ba0:	3529afb3 	ori	t1,t1,0xafb3
bfc03ba4:	01090019 	multu	t0,t1
bfc03ba8:	00008012 	mflo	s0
bfc03bac:	24120000 	li	s2,0
bfc03bb0:	16120185 	bne	s0,s2,bfc041c8 <inst_error>
bfc03bb4:	00000000 	nop
bfc03bb8:	00008010 	mfhi	s0
bfc03bbc:	24120000 	li	s2,0
bfc03bc0:	16120181 	bne	s0,s2,bfc041c8 <inst_error>
bfc03bc4:	00000000 	nop
bfc03bc8:	24080000 	li	t0,0
bfc03bcc:	3c097398 	lui	t1,0x7398
bfc03bd0:	3529f2ac 	ori	t1,t1,0xf2ac
bfc03bd4:	01090019 	multu	t0,t1
bfc03bd8:	00008012 	mflo	s0
bfc03bdc:	24120000 	li	s2,0
bfc03be0:	16120179 	bne	s0,s2,bfc041c8 <inst_error>
bfc03be4:	00000000 	nop
bfc03be8:	00008010 	mfhi	s0
bfc03bec:	24120000 	li	s2,0
bfc03bf0:	16120175 	bne	s0,s2,bfc041c8 <inst_error>
bfc03bf4:	00000000 	nop
bfc03bf8:	24080000 	li	t0,0
bfc03bfc:	3c09758d 	lui	t1,0x758d
bfc03c00:	352971a4 	ori	t1,t1,0x71a4
bfc03c04:	01090019 	multu	t0,t1
bfc03c08:	00008012 	mflo	s0
bfc03c0c:	24120000 	li	s2,0
bfc03c10:	1612016d 	bne	s0,s2,bfc041c8 <inst_error>
bfc03c14:	00000000 	nop
bfc03c18:	00008010 	mfhi	s0
bfc03c1c:	24120000 	li	s2,0
bfc03c20:	16120169 	bne	s0,s2,bfc041c8 <inst_error>
bfc03c24:	00000000 	nop
bfc03c28:	24080000 	li	t0,0
bfc03c2c:	3c097a35 	lui	t1,0x7a35
bfc03c30:	3529b483 	ori	t1,t1,0xb483
bfc03c34:	01090019 	multu	t0,t1
bfc03c38:	00008012 	mflo	s0
bfc03c3c:	24120000 	li	s2,0
bfc03c40:	16120161 	bne	s0,s2,bfc041c8 <inst_error>
bfc03c44:	00000000 	nop
bfc03c48:	00008010 	mfhi	s0
bfc03c4c:	24120000 	li	s2,0
bfc03c50:	1612015d 	bne	s0,s2,bfc041c8 <inst_error>
bfc03c54:	00000000 	nop
bfc03c58:	24080000 	li	t0,0
bfc03c5c:	3c09eaf3 	lui	t1,0xeaf3
bfc03c60:	35299af0 	ori	t1,t1,0x9af0
bfc03c64:	01090019 	multu	t0,t1
bfc03c68:	00008012 	mflo	s0
bfc03c6c:	24120000 	li	s2,0
bfc03c70:	16120155 	bne	s0,s2,bfc041c8 <inst_error>
bfc03c74:	00000000 	nop
bfc03c78:	00008010 	mfhi	s0
bfc03c7c:	24120000 	li	s2,0
bfc03c80:	16120151 	bne	s0,s2,bfc041c8 <inst_error>
bfc03c84:	00000000 	nop
bfc03c88:	24080000 	li	t0,0
bfc03c8c:	3c09f970 	lui	t1,0xf970
bfc03c90:	35295740 	ori	t1,t1,0x5740
bfc03c94:	01090019 	multu	t0,t1
bfc03c98:	00008012 	mflo	s0
bfc03c9c:	24120000 	li	s2,0
bfc03ca0:	16120149 	bne	s0,s2,bfc041c8 <inst_error>
bfc03ca4:	00000000 	nop
bfc03ca8:	00008010 	mfhi	s0
bfc03cac:	24120000 	li	s2,0
bfc03cb0:	16120145 	bne	s0,s2,bfc041c8 <inst_error>
bfc03cb4:	00000000 	nop
bfc03cb8:	24080000 	li	t0,0
bfc03cbc:	3c09e6ad 	lui	t1,0xe6ad
bfc03cc0:	3529cfb0 	ori	t1,t1,0xcfb0
bfc03cc4:	01090019 	multu	t0,t1
bfc03cc8:	00008012 	mflo	s0
bfc03ccc:	24120000 	li	s2,0
bfc03cd0:	1612013d 	bne	s0,s2,bfc041c8 <inst_error>
bfc03cd4:	00000000 	nop
bfc03cd8:	00008010 	mfhi	s0
bfc03cdc:	24120000 	li	s2,0
bfc03ce0:	16120139 	bne	s0,s2,bfc041c8 <inst_error>
bfc03ce4:	00000000 	nop
bfc03ce8:	24080000 	li	t0,0
bfc03cec:	3c09fa15 	lui	t1,0xfa15
bfc03cf0:	35292aec 	ori	t1,t1,0x2aec
bfc03cf4:	01090019 	multu	t0,t1
bfc03cf8:	00008012 	mflo	s0
bfc03cfc:	24120000 	li	s2,0
bfc03d00:	16120131 	bne	s0,s2,bfc041c8 <inst_error>
bfc03d04:	00000000 	nop
bfc03d08:	00008010 	mfhi	s0
bfc03d0c:	24120000 	li	s2,0
bfc03d10:	1612012d 	bne	s0,s2,bfc041c8 <inst_error>
bfc03d14:	00000000 	nop
bfc03d18:	24080000 	li	t0,0
bfc03d1c:	3c09547e 	lui	t1,0x547e
bfc03d20:	35290941 	ori	t1,t1,0x941
bfc03d24:	01090019 	multu	t0,t1
bfc03d28:	00008012 	mflo	s0
bfc03d2c:	24120000 	li	s2,0
bfc03d30:	16120125 	bne	s0,s2,bfc041c8 <inst_error>
bfc03d34:	00000000 	nop
bfc03d38:	00008010 	mfhi	s0
bfc03d3c:	24120000 	li	s2,0
bfc03d40:	16120121 	bne	s0,s2,bfc041c8 <inst_error>
bfc03d44:	00000000 	nop
bfc03d48:	24080000 	li	t0,0
bfc03d4c:	3c09a6c0 	lui	t1,0xa6c0
bfc03d50:	3529012f 	ori	t1,t1,0x12f
bfc03d54:	01090019 	multu	t0,t1
bfc03d58:	00008012 	mflo	s0
bfc03d5c:	24120000 	li	s2,0
bfc03d60:	16120119 	bne	s0,s2,bfc041c8 <inst_error>
bfc03d64:	00000000 	nop
bfc03d68:	00008010 	mfhi	s0
bfc03d6c:	24120000 	li	s2,0
bfc03d70:	16120115 	bne	s0,s2,bfc041c8 <inst_error>
bfc03d74:	00000000 	nop
bfc03d78:	24080000 	li	t0,0
bfc03d7c:	3c09b6c2 	lui	t1,0xb6c2
bfc03d80:	3529aed2 	ori	t1,t1,0xaed2
bfc03d84:	01090019 	multu	t0,t1
bfc03d88:	00008012 	mflo	s0
bfc03d8c:	24120000 	li	s2,0
bfc03d90:	1612010d 	bne	s0,s2,bfc041c8 <inst_error>
bfc03d94:	00000000 	nop
bfc03d98:	00008010 	mfhi	s0
bfc03d9c:	24120000 	li	s2,0
bfc03da0:	16120109 	bne	s0,s2,bfc041c8 <inst_error>
bfc03da4:	00000000 	nop
bfc03da8:	24080000 	li	t0,0
bfc03dac:	3c094fcb 	lui	t1,0x4fcb
bfc03db0:	35297fe0 	ori	t1,t1,0x7fe0
bfc03db4:	01090019 	multu	t0,t1
bfc03db8:	00008012 	mflo	s0
bfc03dbc:	24120000 	li	s2,0
bfc03dc0:	16120101 	bne	s0,s2,bfc041c8 <inst_error>
bfc03dc4:	00000000 	nop
bfc03dc8:	00008010 	mfhi	s0
bfc03dcc:	24120000 	li	s2,0
bfc03dd0:	161200fd 	bne	s0,s2,bfc041c8 <inst_error>
bfc03dd4:	00000000 	nop
bfc03dd8:	24080000 	li	t0,0
bfc03ddc:	3c091b31 	lui	t1,0x1b31
bfc03de0:	35296770 	ori	t1,t1,0x6770
bfc03de4:	01090019 	multu	t0,t1
bfc03de8:	00008012 	mflo	s0
bfc03dec:	24120000 	li	s2,0
bfc03df0:	161200f5 	bne	s0,s2,bfc041c8 <inst_error>
bfc03df4:	00000000 	nop
bfc03df8:	00008010 	mfhi	s0
bfc03dfc:	24120000 	li	s2,0
bfc03e00:	161200f1 	bne	s0,s2,bfc041c8 <inst_error>
bfc03e04:	00000000 	nop
bfc03e08:	24080000 	li	t0,0
bfc03e0c:	3c0936cd 	lui	t1,0x36cd
bfc03e10:	35298ecd 	ori	t1,t1,0x8ecd
bfc03e14:	01090019 	multu	t0,t1
bfc03e18:	00008012 	mflo	s0
bfc03e1c:	24120000 	li	s2,0
bfc03e20:	161200e9 	bne	s0,s2,bfc041c8 <inst_error>
bfc03e24:	00000000 	nop
bfc03e28:	00008010 	mfhi	s0
bfc03e2c:	24120000 	li	s2,0
bfc03e30:	161200e5 	bne	s0,s2,bfc041c8 <inst_error>
bfc03e34:	00000000 	nop
bfc03e38:	24080000 	li	t0,0
bfc03e3c:	3c098a11 	lui	t1,0x8a11
bfc03e40:	352950c0 	ori	t1,t1,0x50c0
bfc03e44:	01090019 	multu	t0,t1
bfc03e48:	00008012 	mflo	s0
bfc03e4c:	24120000 	li	s2,0
bfc03e50:	161200dd 	bne	s0,s2,bfc041c8 <inst_error>
bfc03e54:	00000000 	nop
bfc03e58:	00008010 	mfhi	s0
bfc03e5c:	24120000 	li	s2,0
bfc03e60:	161200d9 	bne	s0,s2,bfc041c8 <inst_error>
bfc03e64:	00000000 	nop
bfc03e68:	24080000 	li	t0,0
bfc03e6c:	3c09b0c3 	lui	t1,0xb0c3
bfc03e70:	352904f0 	ori	t1,t1,0x4f0
bfc03e74:	01090019 	multu	t0,t1
bfc03e78:	00008012 	mflo	s0
bfc03e7c:	24120000 	li	s2,0
bfc03e80:	161200d1 	bne	s0,s2,bfc041c8 <inst_error>
bfc03e84:	00000000 	nop
bfc03e88:	00008010 	mfhi	s0
bfc03e8c:	24120000 	li	s2,0
bfc03e90:	161200cd 	bne	s0,s2,bfc041c8 <inst_error>
bfc03e94:	00000000 	nop
bfc03e98:	24080000 	li	t0,0
bfc03e9c:	3c092f51 	lui	t1,0x2f51
bfc03ea0:	3529caac 	ori	t1,t1,0xcaac
bfc03ea4:	01090019 	multu	t0,t1
bfc03ea8:	00008012 	mflo	s0
bfc03eac:	24120000 	li	s2,0
bfc03eb0:	161200c5 	bne	s0,s2,bfc041c8 <inst_error>
bfc03eb4:	00000000 	nop
bfc03eb8:	00008010 	mfhi	s0
bfc03ebc:	24120000 	li	s2,0
bfc03ec0:	161200c1 	bne	s0,s2,bfc041c8 <inst_error>
bfc03ec4:	00000000 	nop
bfc03ec8:	24080000 	li	t0,0
bfc03ecc:	3c09beee 	lui	t1,0xbeee
bfc03ed0:	35297f02 	ori	t1,t1,0x7f02
bfc03ed4:	01090019 	multu	t0,t1
bfc03ed8:	00008012 	mflo	s0
bfc03edc:	24120000 	li	s2,0
bfc03ee0:	161200b9 	bne	s0,s2,bfc041c8 <inst_error>
bfc03ee4:	00000000 	nop
bfc03ee8:	00008010 	mfhi	s0
bfc03eec:	24120000 	li	s2,0
bfc03ef0:	161200b5 	bne	s0,s2,bfc041c8 <inst_error>
bfc03ef4:	00000000 	nop
bfc03ef8:	24080000 	li	t0,0
bfc03efc:	3c09a2f8 	lui	t1,0xa2f8
bfc03f00:	352941d8 	ori	t1,t1,0x41d8
bfc03f04:	01090019 	multu	t0,t1
bfc03f08:	00008012 	mflo	s0
bfc03f0c:	24120000 	li	s2,0
bfc03f10:	161200ad 	bne	s0,s2,bfc041c8 <inst_error>
bfc03f14:	00000000 	nop
bfc03f18:	00008010 	mfhi	s0
bfc03f1c:	24120000 	li	s2,0
bfc03f20:	161200a9 	bne	s0,s2,bfc041c8 <inst_error>
bfc03f24:	00000000 	nop
bfc03f28:	24080000 	li	t0,0
bfc03f2c:	3c098120 	lui	t1,0x8120
bfc03f30:	352999d4 	ori	t1,t1,0x99d4
bfc03f34:	01090019 	multu	t0,t1
bfc03f38:	00008012 	mflo	s0
bfc03f3c:	24120000 	li	s2,0
bfc03f40:	161200a1 	bne	s0,s2,bfc041c8 <inst_error>
bfc03f44:	00000000 	nop
bfc03f48:	00008010 	mfhi	s0
bfc03f4c:	24120000 	li	s2,0
bfc03f50:	1612009d 	bne	s0,s2,bfc041c8 <inst_error>
bfc03f54:	00000000 	nop
bfc03f58:	24080000 	li	t0,0
bfc03f5c:	3c094c89 	lui	t1,0x4c89
bfc03f60:	35297680 	ori	t1,t1,0x7680
bfc03f64:	01090019 	multu	t0,t1
bfc03f68:	00008012 	mflo	s0
bfc03f6c:	24120000 	li	s2,0
bfc03f70:	16120095 	bne	s0,s2,bfc041c8 <inst_error>
bfc03f74:	00000000 	nop
bfc03f78:	00008010 	mfhi	s0
bfc03f7c:	24120000 	li	s2,0
bfc03f80:	16120091 	bne	s0,s2,bfc041c8 <inst_error>
bfc03f84:	00000000 	nop
bfc03f88:	24080000 	li	t0,0
bfc03f8c:	3c0903ee 	lui	t1,0x3ee
bfc03f90:	35293ea8 	ori	t1,t1,0x3ea8
bfc03f94:	01090019 	multu	t0,t1
bfc03f98:	00008012 	mflo	s0
bfc03f9c:	24120000 	li	s2,0
bfc03fa0:	16120089 	bne	s0,s2,bfc041c8 <inst_error>
bfc03fa4:	00000000 	nop
bfc03fa8:	00008010 	mfhi	s0
bfc03fac:	24120000 	li	s2,0
bfc03fb0:	16120085 	bne	s0,s2,bfc041c8 <inst_error>
bfc03fb4:	00000000 	nop
bfc03fb8:	24080000 	li	t0,0
bfc03fbc:	3c09cec8 	lui	t1,0xcec8
bfc03fc0:	3529f500 	ori	t1,t1,0xf500
bfc03fc4:	01090019 	multu	t0,t1
bfc03fc8:	00008012 	mflo	s0
bfc03fcc:	24120000 	li	s2,0
bfc03fd0:	1612007d 	bne	s0,s2,bfc041c8 <inst_error>
bfc03fd4:	00000000 	nop
bfc03fd8:	00008010 	mfhi	s0
bfc03fdc:	24120000 	li	s2,0
bfc03fe0:	16120079 	bne	s0,s2,bfc041c8 <inst_error>
bfc03fe4:	00000000 	nop
bfc03fe8:	24080000 	li	t0,0
bfc03fec:	3c090fed 	lui	t1,0xfed
bfc03ff0:	3529823c 	ori	t1,t1,0x823c
bfc03ff4:	01090019 	multu	t0,t1
bfc03ff8:	00008012 	mflo	s0
bfc03ffc:	24120000 	li	s2,0
bfc04000:	16120071 	bne	s0,s2,bfc041c8 <inst_error>
bfc04004:	00000000 	nop
bfc04008:	00008010 	mfhi	s0
bfc0400c:	24120000 	li	s2,0
bfc04010:	1612006d 	bne	s0,s2,bfc041c8 <inst_error>
bfc04014:	00000000 	nop
bfc04018:	24080000 	li	t0,0
bfc0401c:	3c099446 	lui	t1,0x9446
bfc04020:	35290ca8 	ori	t1,t1,0xca8
bfc04024:	01090019 	multu	t0,t1
bfc04028:	00008012 	mflo	s0
bfc0402c:	24120000 	li	s2,0
bfc04030:	16120065 	bne	s0,s2,bfc041c8 <inst_error>
bfc04034:	00000000 	nop
bfc04038:	00008010 	mfhi	s0
bfc0403c:	24120000 	li	s2,0
bfc04040:	16120061 	bne	s0,s2,bfc041c8 <inst_error>
bfc04044:	00000000 	nop
bfc04048:	24080000 	li	t0,0
bfc0404c:	3c098631 	lui	t1,0x8631
bfc04050:	3529e2aa 	ori	t1,t1,0xe2aa
bfc04054:	01090019 	multu	t0,t1
bfc04058:	00008012 	mflo	s0
bfc0405c:	24120000 	li	s2,0
bfc04060:	16120059 	bne	s0,s2,bfc041c8 <inst_error>
bfc04064:	00000000 	nop
bfc04068:	00008010 	mfhi	s0
bfc0406c:	24120000 	li	s2,0
bfc04070:	16120055 	bne	s0,s2,bfc041c8 <inst_error>
bfc04074:	00000000 	nop
bfc04078:	24080000 	li	t0,0
bfc0407c:	3c09a5d2 	lui	t1,0xa5d2
bfc04080:	3529d3de 	ori	t1,t1,0xd3de
bfc04084:	01090019 	multu	t0,t1
bfc04088:	00008012 	mflo	s0
bfc0408c:	24120000 	li	s2,0
bfc04090:	1612004d 	bne	s0,s2,bfc041c8 <inst_error>
bfc04094:	00000000 	nop
bfc04098:	00008010 	mfhi	s0
bfc0409c:	24120000 	li	s2,0
bfc040a0:	16120049 	bne	s0,s2,bfc041c8 <inst_error>
bfc040a4:	00000000 	nop
bfc040a8:	24080000 	li	t0,0
bfc040ac:	3c09587e 	lui	t1,0x587e
bfc040b0:	352908e3 	ori	t1,t1,0x8e3
bfc040b4:	01090019 	multu	t0,t1
bfc040b8:	00008012 	mflo	s0
bfc040bc:	24120000 	li	s2,0
bfc040c0:	16120041 	bne	s0,s2,bfc041c8 <inst_error>
bfc040c4:	00000000 	nop
bfc040c8:	00008010 	mfhi	s0
bfc040cc:	24120000 	li	s2,0
bfc040d0:	1612003d 	bne	s0,s2,bfc041c8 <inst_error>
bfc040d4:	00000000 	nop
bfc040d8:	24080000 	li	t0,0
bfc040dc:	3c09fd19 	lui	t1,0xfd19
bfc040e0:	3529e540 	ori	t1,t1,0xe540
bfc040e4:	01090019 	multu	t0,t1
bfc040e8:	00008012 	mflo	s0
bfc040ec:	24120000 	li	s2,0
bfc040f0:	16120035 	bne	s0,s2,bfc041c8 <inst_error>
bfc040f4:	00000000 	nop
bfc040f8:	00008010 	mfhi	s0
bfc040fc:	24120000 	li	s2,0
bfc04100:	16120031 	bne	s0,s2,bfc041c8 <inst_error>
bfc04104:	00000000 	nop
bfc04108:	24080000 	li	t0,0
bfc0410c:	3c09a2c6 	lui	t1,0xa2c6
bfc04110:	352968c2 	ori	t1,t1,0x68c2
bfc04114:	01090019 	multu	t0,t1
bfc04118:	00008012 	mflo	s0
bfc0411c:	24120000 	li	s2,0
bfc04120:	16120029 	bne	s0,s2,bfc041c8 <inst_error>
bfc04124:	00000000 	nop
bfc04128:	00008010 	mfhi	s0
bfc0412c:	24120000 	li	s2,0
bfc04130:	16120025 	bne	s0,s2,bfc041c8 <inst_error>
bfc04134:	00000000 	nop
bfc04138:	24080000 	li	t0,0
bfc0413c:	3c093ac7 	lui	t1,0x3ac7
bfc04140:	3529f7a0 	ori	t1,t1,0xf7a0
bfc04144:	01090019 	multu	t0,t1
bfc04148:	00008012 	mflo	s0
bfc0414c:	24120000 	li	s2,0
bfc04150:	1612001d 	bne	s0,s2,bfc041c8 <inst_error>
bfc04154:	00000000 	nop
bfc04158:	00008010 	mfhi	s0
bfc0415c:	24120000 	li	s2,0
bfc04160:	16120019 	bne	s0,s2,bfc041c8 <inst_error>
bfc04164:	00000000 	nop
bfc04168:	24080000 	li	t0,0
bfc0416c:	3c0904e4 	lui	t1,0x4e4
bfc04170:	3529cfaa 	ori	t1,t1,0xcfaa
bfc04174:	01090019 	multu	t0,t1
bfc04178:	00008012 	mflo	s0
bfc0417c:	24120000 	li	s2,0
bfc04180:	16120011 	bne	s0,s2,bfc041c8 <inst_error>
bfc04184:	00000000 	nop
bfc04188:	00008010 	mfhi	s0
bfc0418c:	24120000 	li	s2,0
bfc04190:	1612000d 	bne	s0,s2,bfc041c8 <inst_error>
bfc04194:	00000000 	nop
bfc04198:	24080000 	li	t0,0
bfc0419c:	24090000 	li	t1,0
bfc041a0:	01090019 	multu	t0,t1
bfc041a4:	00008012 	mflo	s0
bfc041a8:	24120000 	li	s2,0
bfc041ac:	16120006 	bne	s0,s2,bfc041c8 <inst_error>
bfc041b0:	00000000 	nop
bfc041b4:	00008010 	mfhi	s0
bfc041b8:	24120000 	li	s2,0
bfc041bc:	16120002 	bne	s0,s2,bfc041c8 <inst_error>
bfc041c0:	00000000 	nop
bfc041c4:	4a000000 	c2	0x0

bfc041c8 <inst_error>:
inst_error():
bfc041c8:	0000003f 	0x3f

Disassembly of section .reginfo:

00000000 <.reginfo>:
   0:	00050300 	sll	zero,a1,0xc
	...
