
build/nor:     file format elf32-tradlittlemips
build/nor


Disassembly of section .text:

bfc00000 <main>:
bfc00000:	3c08ad9c 	lui	t0,0xad9c
bfc00004:	3508c00e 	ori	t0,t0,0xc00e
bfc00008:	3c0938b7 	lui	t1,0x38b7
bfc0000c:	3529ec24 	ori	t1,t1,0xec24
bfc00010:	01098027 	nor	s0,t0,t1
bfc00014:	3c124240 	lui	s2,0x4240
bfc00018:	365213d1 	ori	s2,s2,0x13d1
bfc0001c:	16120a25 	bne	s0,s2,bfc028b4 <inst_error>
bfc00020:	00000000 	nop
bfc00024:	3c08668d 	lui	t0,0x668d
bfc00028:	35085db0 	ori	t0,t0,0x5db0
bfc0002c:	3c09a094 	lui	t1,0xa094
bfc00030:	35295bf0 	ori	t1,t1,0x5bf0
bfc00034:	01098027 	nor	s0,t0,t1
bfc00038:	3c121962 	lui	s2,0x1962
bfc0003c:	3652a00f 	ori	s2,s2,0xa00f
bfc00040:	16120a1c 	bne	s0,s2,bfc028b4 <inst_error>
bfc00044:	00000000 	nop
bfc00048:	3c086d83 	lui	t0,0x6d83
bfc0004c:	35080f90 	ori	t0,t0,0xf90
bfc00050:	3c0966b3 	lui	t1,0x66b3
bfc00054:	35291460 	ori	t1,t1,0x1460
bfc00058:	01098027 	nor	s0,t0,t1
bfc0005c:	3c12904c 	lui	s2,0x904c
bfc00060:	3652e00f 	ori	s2,s2,0xe00f
bfc00064:	16120a13 	bne	s0,s2,bfc028b4 <inst_error>
bfc00068:	00000000 	nop
bfc0006c:	3c086008 	lui	t0,0x6008
bfc00070:	3508f35f 	ori	t0,t0,0xf35f
bfc00074:	3c0954ae 	lui	t1,0x54ae
bfc00078:	352981fa 	ori	t1,t1,0x81fa
bfc0007c:	01098027 	nor	s0,t0,t1
bfc00080:	3c128b51 	lui	s2,0x8b51
bfc00084:	36520c00 	ori	s2,s2,0xc00
bfc00088:	16120a0a 	bne	s0,s2,bfc028b4 <inst_error>
bfc0008c:	00000000 	nop
bfc00090:	3c08acc8 	lui	t0,0xacc8
bfc00094:	3508f2d2 	ori	t0,t0,0xf2d2
bfc00098:	3c095149 	lui	t1,0x5149
bfc0009c:	35291760 	ori	t1,t1,0x1760
bfc000a0:	01098027 	nor	s0,t0,t1
bfc000a4:	3c120236 	lui	s2,0x236
bfc000a8:	3652080d 	ori	s2,s2,0x80d
bfc000ac:	16120a01 	bne	s0,s2,bfc028b4 <inst_error>
bfc000b0:	00000000 	nop
bfc000b4:	3c082f80 	lui	t0,0x2f80
bfc000b8:	350839e0 	ori	t0,t0,0x39e0
bfc000bc:	3c09f4ac 	lui	t1,0xf4ac
bfc000c0:	35296718 	ori	t1,t1,0x6718
bfc000c4:	01098027 	nor	s0,t0,t1
bfc000c8:	3c120053 	lui	s2,0x53
bfc000cc:	36528007 	ori	s2,s2,0x8007
bfc000d0:	161209f8 	bne	s0,s2,bfc028b4 <inst_error>
bfc000d4:	00000000 	nop
bfc000d8:	3c08dc9e 	lui	t0,0xdc9e
bfc000dc:	3508ddc0 	ori	t0,t0,0xddc0
bfc000e0:	3c091a3a 	lui	t1,0x1a3a
bfc000e4:	3529ebc8 	ori	t1,t1,0xebc8
bfc000e8:	01098027 	nor	s0,t0,t1
bfc000ec:	3c122141 	lui	s2,0x2141
bfc000f0:	36520037 	ori	s2,s2,0x37
bfc000f4:	161209ef 	bne	s0,s2,bfc028b4 <inst_error>
bfc000f8:	00000000 	nop
bfc000fc:	3c08fa40 	lui	t0,0xfa40
bfc00100:	3508f126 	ori	t0,t0,0xf126
bfc00104:	3c09fa38 	lui	t1,0xfa38
bfc00108:	35292538 	ori	t1,t1,0x2538
bfc0010c:	01098027 	nor	s0,t0,t1
bfc00110:	3c120587 	lui	s2,0x587
bfc00114:	36520ac1 	ori	s2,s2,0xac1
bfc00118:	161209e6 	bne	s0,s2,bfc028b4 <inst_error>
bfc0011c:	00000000 	nop
bfc00120:	3c080603 	lui	t0,0x603
bfc00124:	35083064 	ori	t0,t0,0x3064
bfc00128:	3c09a758 	lui	t1,0xa758
bfc0012c:	3529b5c0 	ori	t1,t1,0xb5c0
bfc00130:	01098027 	nor	s0,t0,t1
bfc00134:	3c1258a4 	lui	s2,0x58a4
bfc00138:	36524a1b 	ori	s2,s2,0x4a1b
bfc0013c:	161209dd 	bne	s0,s2,bfc028b4 <inst_error>
bfc00140:	00000000 	nop
bfc00144:	3c088d0f 	lui	t0,0x8d0f
bfc00148:	35087094 	ori	t0,t0,0x7094
bfc0014c:	3c0913b7 	lui	t1,0x13b7
bfc00150:	3529b000 	ori	t1,t1,0xb000
bfc00154:	01098027 	nor	s0,t0,t1
bfc00158:	3c126040 	lui	s2,0x6040
bfc0015c:	36520f6b 	ori	s2,s2,0xf6b
bfc00160:	161209d4 	bne	s0,s2,bfc028b4 <inst_error>
bfc00164:	00000000 	nop
bfc00168:	3c08596e 	lui	t0,0x596e
bfc0016c:	3508aab2 	ori	t0,t0,0xaab2
bfc00170:	3c099e2f 	lui	t1,0x9e2f
bfc00174:	35296d2f 	ori	t1,t1,0x6d2f
bfc00178:	01098027 	nor	s0,t0,t1
bfc0017c:	3c122090 	lui	s2,0x2090
bfc00180:	36521040 	ori	s2,s2,0x1040
bfc00184:	161209cb 	bne	s0,s2,bfc028b4 <inst_error>
bfc00188:	00000000 	nop
bfc0018c:	3c08336f 	lui	t0,0x336f
bfc00190:	3508f361 	ori	t0,t0,0xf361
bfc00194:	3c090132 	lui	t1,0x132
bfc00198:	3529a370 	ori	t1,t1,0xa370
bfc0019c:	01098027 	nor	s0,t0,t1
bfc001a0:	3c12cc80 	lui	s2,0xcc80
bfc001a4:	36520c8e 	ori	s2,s2,0xc8e
bfc001a8:	161209c2 	bne	s0,s2,bfc028b4 <inst_error>
bfc001ac:	00000000 	nop
bfc001b0:	3c08881c 	lui	t0,0x881c
bfc001b4:	35088d00 	ori	t0,t0,0x8d00
bfc001b8:	3c0980ed 	lui	t1,0x80ed
bfc001bc:	35293fa3 	ori	t1,t1,0x3fa3
bfc001c0:	01098027 	nor	s0,t0,t1
bfc001c4:	3c127702 	lui	s2,0x7702
bfc001c8:	3652405c 	ori	s2,s2,0x405c
bfc001cc:	161209b9 	bne	s0,s2,bfc028b4 <inst_error>
bfc001d0:	00000000 	nop
bfc001d4:	3c086b30 	lui	t0,0x6b30
bfc001d8:	35084d15 	ori	t0,t0,0x4d15
bfc001dc:	3c094f80 	lui	t1,0x4f80
bfc001e0:	3529c3e0 	ori	t1,t1,0xc3e0
bfc001e4:	01098027 	nor	s0,t0,t1
bfc001e8:	3c12904f 	lui	s2,0x904f
bfc001ec:	3652300a 	ori	s2,s2,0x300a
bfc001f0:	161209b0 	bne	s0,s2,bfc028b4 <inst_error>
bfc001f4:	00000000 	nop
bfc001f8:	3c08efc4 	lui	t0,0xefc4
bfc001fc:	3508d858 	ori	t0,t0,0xd858
bfc00200:	3c09761c 	lui	t1,0x761c
bfc00204:	3529c242 	ori	t1,t1,0xc242
bfc00208:	01098027 	nor	s0,t0,t1
bfc0020c:	3c120023 	lui	s2,0x23
bfc00210:	365225a5 	ori	s2,s2,0x25a5
bfc00214:	161209a7 	bne	s0,s2,bfc028b4 <inst_error>
bfc00218:	00000000 	nop
bfc0021c:	3c080e2e 	lui	t0,0xe2e
bfc00220:	3508bb18 	ori	t0,t0,0xbb18
bfc00224:	3c09e32f 	lui	t1,0xe32f
bfc00228:	352900c0 	ori	t1,t1,0xc0
bfc0022c:	01098027 	nor	s0,t0,t1
bfc00230:	3c1210d0 	lui	s2,0x10d0
bfc00234:	36524427 	ori	s2,s2,0x4427
bfc00238:	1612099e 	bne	s0,s2,bfc028b4 <inst_error>
bfc0023c:	00000000 	nop
bfc00240:	3c08362f 	lui	t0,0x362f
bfc00244:	35087100 	ori	t0,t0,0x7100
bfc00248:	3c097ea3 	lui	t1,0x7ea3
bfc0024c:	35291a1c 	ori	t1,t1,0x1a1c
bfc00250:	01098027 	nor	s0,t0,t1
bfc00254:	3c128150 	lui	s2,0x8150
bfc00258:	365284e3 	ori	s2,s2,0x84e3
bfc0025c:	16120995 	bne	s0,s2,bfc028b4 <inst_error>
bfc00260:	00000000 	nop
bfc00264:	3c08edd9 	lui	t0,0xedd9
bfc00268:	35081c90 	ori	t0,t0,0x1c90
bfc0026c:	3c09024b 	lui	t1,0x24b
bfc00270:	35299692 	ori	t1,t1,0x9692
bfc00274:	01098027 	nor	s0,t0,t1
bfc00278:	3c121024 	lui	s2,0x1024
bfc0027c:	3652616d 	ori	s2,s2,0x616d
bfc00280:	1612098c 	bne	s0,s2,bfc028b4 <inst_error>
bfc00284:	00000000 	nop
bfc00288:	3c0859a8 	lui	t0,0x59a8
bfc0028c:	35085bd4 	ori	t0,t0,0x5bd4
bfc00290:	3c098646 	lui	t1,0x8646
bfc00294:	35297170 	ori	t1,t1,0x7170
bfc00298:	01098027 	nor	s0,t0,t1
bfc0029c:	3c122011 	lui	s2,0x2011
bfc002a0:	3652840b 	ori	s2,s2,0x840b
bfc002a4:	16120983 	bne	s0,s2,bfc028b4 <inst_error>
bfc002a8:	00000000 	nop
bfc002ac:	3c086b10 	lui	t0,0x6b10
bfc002b0:	3508f624 	ori	t0,t0,0xf624
bfc002b4:	3c090a4b 	lui	t1,0xa4b
bfc002b8:	352976d8 	ori	t1,t1,0x76d8
bfc002bc:	01098027 	nor	s0,t0,t1
bfc002c0:	3c1294a4 	lui	s2,0x94a4
bfc002c4:	36520903 	ori	s2,s2,0x903
bfc002c8:	1612097a 	bne	s0,s2,bfc028b4 <inst_error>
bfc002cc:	00000000 	nop
bfc002d0:	3c089f73 	lui	t0,0x9f73
bfc002d4:	35080fc0 	ori	t0,t0,0xfc0
bfc002d8:	3c09c1bf 	lui	t1,0xc1bf
bfc002dc:	3529fac1 	ori	t1,t1,0xfac1
bfc002e0:	01098027 	nor	s0,t0,t1
bfc002e4:	3c122000 	lui	s2,0x2000
bfc002e8:	3652003e 	ori	s2,s2,0x3e
bfc002ec:	16120971 	bne	s0,s2,bfc028b4 <inst_error>
bfc002f0:	00000000 	nop
bfc002f4:	3c08ef12 	lui	t0,0xef12
bfc002f8:	35082cf6 	ori	t0,t0,0x2cf6
bfc002fc:	3c0907a0 	lui	t1,0x7a0
bfc00300:	35295f82 	ori	t1,t1,0x5f82
bfc00304:	01098027 	nor	s0,t0,t1
bfc00308:	3c12104d 	lui	s2,0x104d
bfc0030c:	36528009 	ori	s2,s2,0x8009
bfc00310:	16120968 	bne	s0,s2,bfc028b4 <inst_error>
bfc00314:	00000000 	nop
bfc00318:	3c085aa2 	lui	t0,0x5aa2
bfc0031c:	35083f84 	ori	t0,t0,0x3f84
bfc00320:	3c097624 	lui	t1,0x7624
bfc00324:	352934b0 	ori	t1,t1,0x34b0
bfc00328:	01098027 	nor	s0,t0,t1
bfc0032c:	3c128159 	lui	s2,0x8159
bfc00330:	3652c04b 	ori	s2,s2,0xc04b
bfc00334:	1612095f 	bne	s0,s2,bfc028b4 <inst_error>
bfc00338:	00000000 	nop
bfc0033c:	3c086508 	lui	t0,0x6508
bfc00340:	350822f1 	ori	t0,t0,0x22f1
bfc00344:	3c0906c0 	lui	t1,0x6c0
bfc00348:	3529d750 	ori	t1,t1,0xd750
bfc0034c:	01098027 	nor	s0,t0,t1
bfc00350:	3c129837 	lui	s2,0x9837
bfc00354:	3652080e 	ori	s2,s2,0x80e
bfc00358:	16120956 	bne	s0,s2,bfc028b4 <inst_error>
bfc0035c:	00000000 	nop
bfc00360:	3c085aae 	lui	t0,0x5aae
bfc00364:	35085308 	ori	t0,t0,0x5308
bfc00368:	3c090433 	lui	t1,0x433
bfc0036c:	3529ae98 	ori	t1,t1,0xae98
bfc00370:	01098027 	nor	s0,t0,t1
bfc00374:	3c12a140 	lui	s2,0xa140
bfc00378:	36520067 	ori	s2,s2,0x67
bfc0037c:	1612094d 	bne	s0,s2,bfc028b4 <inst_error>
bfc00380:	00000000 	nop
bfc00384:	3c0827e9 	lui	t0,0x27e9
bfc00388:	3508d2c8 	ori	t0,t0,0xd2c8
bfc0038c:	3c098aca 	lui	t1,0x8aca
bfc00390:	35290a5c 	ori	t1,t1,0xa5c
bfc00394:	01098027 	nor	s0,t0,t1
bfc00398:	3c125014 	lui	s2,0x5014
bfc0039c:	36522523 	ori	s2,s2,0x2523
bfc003a0:	16120944 	bne	s0,s2,bfc028b4 <inst_error>
bfc003a4:	00000000 	nop
bfc003a8:	3c08440b 	lui	t0,0x440b
bfc003ac:	35085a10 	ori	t0,t0,0x5a10
bfc003b0:	3c092eb5 	lui	t1,0x2eb5
bfc003b4:	3529c542 	ori	t1,t1,0xc542
bfc003b8:	01098027 	nor	s0,t0,t1
bfc003bc:	3c129140 	lui	s2,0x9140
bfc003c0:	365220ad 	ori	s2,s2,0x20ad
bfc003c4:	1612093b 	bne	s0,s2,bfc028b4 <inst_error>
bfc003c8:	00000000 	nop
bfc003cc:	3c087417 	lui	t0,0x7417
bfc003d0:	3508c21f 	ori	t0,t0,0xc21f
bfc003d4:	3c095cc0 	lui	t1,0x5cc0
bfc003d8:	352936a0 	ori	t1,t1,0x36a0
bfc003dc:	01098027 	nor	s0,t0,t1
bfc003e0:	3c128328 	lui	s2,0x8328
bfc003e4:	36520940 	ori	s2,s2,0x940
bfc003e8:	16120932 	bne	s0,s2,bfc028b4 <inst_error>
bfc003ec:	00000000 	nop
bfc003f0:	3c08661f 	lui	t0,0x661f
bfc003f4:	35089c50 	ori	t0,t0,0x9c50
bfc003f8:	3c09724f 	lui	t1,0x724f
bfc003fc:	3529b448 	ori	t1,t1,0xb448
bfc00400:	01098027 	nor	s0,t0,t1
bfc00404:	3c1289a0 	lui	s2,0x89a0
bfc00408:	365243a7 	ori	s2,s2,0x43a7
bfc0040c:	16120929 	bne	s0,s2,bfc028b4 <inst_error>
bfc00410:	00000000 	nop
bfc00414:	3c082843 	lui	t0,0x2843
bfc00418:	3508655c 	ori	t0,t0,0x655c
bfc0041c:	3c09708a 	lui	t1,0x708a
bfc00420:	35293150 	ori	t1,t1,0x3150
bfc00424:	01098027 	nor	s0,t0,t1
bfc00428:	3c128734 	lui	s2,0x8734
bfc0042c:	36528aa3 	ori	s2,s2,0x8aa3
bfc00430:	16120920 	bne	s0,s2,bfc028b4 <inst_error>
bfc00434:	00000000 	nop
bfc00438:	3c08a8cc 	lui	t0,0xa8cc
bfc0043c:	35083958 	ori	t0,t0,0x3958
bfc00440:	3c096a77 	lui	t1,0x6a77
bfc00444:	352968ae 	ori	t1,t1,0x68ae
bfc00448:	01098027 	nor	s0,t0,t1
bfc0044c:	3c121500 	lui	s2,0x1500
bfc00450:	36528601 	ori	s2,s2,0x8601
bfc00454:	16120917 	bne	s0,s2,bfc028b4 <inst_error>
bfc00458:	00000000 	nop
bfc0045c:	3c087883 	lui	t0,0x7883
bfc00460:	350828c0 	ori	t0,t0,0x28c0
bfc00464:	3c098f03 	lui	t1,0x8f03
bfc00468:	3529da20 	ori	t1,t1,0xda20
bfc0046c:	01098027 	nor	s0,t0,t1
bfc00470:	3c12007c 	lui	s2,0x7c
bfc00474:	3652051f 	ori	s2,s2,0x51f
bfc00478:	1612090e 	bne	s0,s2,bfc028b4 <inst_error>
bfc0047c:	00000000 	nop
bfc00480:	3c085964 	lui	t0,0x5964
bfc00484:	35088e68 	ori	t0,t0,0x8e68
bfc00488:	3c095a09 	lui	t1,0x5a09
bfc0048c:	35296666 	ori	t1,t1,0x6666
bfc00490:	01098027 	nor	s0,t0,t1
bfc00494:	3c12a492 	lui	s2,0xa492
bfc00498:	36521191 	ori	s2,s2,0x1191
bfc0049c:	16120905 	bne	s0,s2,bfc028b4 <inst_error>
bfc004a0:	00000000 	nop
bfc004a4:	3c0805fb 	lui	t0,0x5fb
bfc004a8:	3508883c 	ori	t0,t0,0x883c
bfc004ac:	3c09444a 	lui	t1,0x444a
bfc004b0:	3529da50 	ori	t1,t1,0xda50
bfc004b4:	01098027 	nor	s0,t0,t1
bfc004b8:	3c12ba04 	lui	s2,0xba04
bfc004bc:	36522583 	ori	s2,s2,0x2583
bfc004c0:	161208fc 	bne	s0,s2,bfc028b4 <inst_error>
bfc004c4:	00000000 	nop
bfc004c8:	3c08b23d 	lui	t0,0xb23d
bfc004cc:	3508a7d4 	ori	t0,t0,0xa7d4
bfc004d0:	3c0924ae 	lui	t1,0x24ae
bfc004d4:	35299280 	ori	t1,t1,0x9280
bfc004d8:	01098027 	nor	s0,t0,t1
bfc004dc:	3c124940 	lui	s2,0x4940
bfc004e0:	3652482b 	ori	s2,s2,0x482b
bfc004e4:	161208f3 	bne	s0,s2,bfc028b4 <inst_error>
bfc004e8:	00000000 	nop
bfc004ec:	3c08027e 	lui	t0,0x27e
bfc004f0:	3508d780 	ori	t0,t0,0xd780
bfc004f4:	3c096389 	lui	t1,0x6389
bfc004f8:	3529c8c2 	ori	t1,t1,0xc8c2
bfc004fc:	01098027 	nor	s0,t0,t1
bfc00500:	3c129c00 	lui	s2,0x9c00
bfc00504:	3652203d 	ori	s2,s2,0x203d
bfc00508:	161208ea 	bne	s0,s2,bfc028b4 <inst_error>
bfc0050c:	00000000 	nop
bfc00510:	3c089042 	lui	t0,0x9042
bfc00514:	35089b10 	ori	t0,t0,0x9b10
bfc00518:	3c09ced7 	lui	t1,0xced7
bfc0051c:	3529927c 	ori	t1,t1,0x927c
bfc00520:	01098027 	nor	s0,t0,t1
bfc00524:	3c122128 	lui	s2,0x2128
bfc00528:	36526483 	ori	s2,s2,0x6483
bfc0052c:	161208e1 	bne	s0,s2,bfc028b4 <inst_error>
bfc00530:	00000000 	nop
bfc00534:	3c08a236 	lui	t0,0xa236
bfc00538:	35086e27 	ori	t0,t0,0x6e27
bfc0053c:	3c091fce 	lui	t1,0x1fce
bfc00540:	35295203 	ori	t1,t1,0x5203
bfc00544:	01098027 	nor	s0,t0,t1
bfc00548:	3c124001 	lui	s2,0x4001
bfc0054c:	365281d8 	ori	s2,s2,0x81d8
bfc00550:	161208d8 	bne	s0,s2,bfc028b4 <inst_error>
bfc00554:	00000000 	nop
bfc00558:	3c081271 	lui	t0,0x1271
bfc0055c:	350831e0 	ori	t0,t0,0x31e0
bfc00560:	3c097586 	lui	t1,0x7586
bfc00564:	3529f5c4 	ori	t1,t1,0xf5c4
bfc00568:	01098027 	nor	s0,t0,t1
bfc0056c:	3c128808 	lui	s2,0x8808
bfc00570:	36520a1b 	ori	s2,s2,0xa1b
bfc00574:	161208cf 	bne	s0,s2,bfc028b4 <inst_error>
bfc00578:	00000000 	nop
bfc0057c:	3c088f51 	lui	t0,0x8f51
bfc00580:	35088a60 	ori	t0,t0,0x8a60
bfc00584:	3c092e0f 	lui	t1,0x2e0f
bfc00588:	3529ead0 	ori	t1,t1,0xead0
bfc0058c:	01098027 	nor	s0,t0,t1
bfc00590:	3c1250a0 	lui	s2,0x50a0
bfc00594:	3652150f 	ori	s2,s2,0x150f
bfc00598:	161208c6 	bne	s0,s2,bfc028b4 <inst_error>
bfc0059c:	00000000 	nop
bfc005a0:	3c0825a5 	lui	t0,0x25a5
bfc005a4:	35088614 	ori	t0,t0,0x8614
bfc005a8:	3c09de20 	lui	t1,0xde20
bfc005ac:	35298f4a 	ori	t1,t1,0x8f4a
bfc005b0:	01098027 	nor	s0,t0,t1
bfc005b4:	3c12005a 	lui	s2,0x5a
bfc005b8:	365270a1 	ori	s2,s2,0x70a1
bfc005bc:	161208bd 	bne	s0,s2,bfc028b4 <inst_error>
bfc005c0:	00000000 	nop
bfc005c4:	3c089c17 	lui	t0,0x9c17
bfc005c8:	3508a0c0 	ori	t0,t0,0xa0c0
bfc005cc:	3c090d90 	lui	t1,0xd90
bfc005d0:	35298fc3 	ori	t1,t1,0x8fc3
bfc005d4:	01098027 	nor	s0,t0,t1
bfc005d8:	3c126268 	lui	s2,0x6268
bfc005dc:	3652503c 	ori	s2,s2,0x503c
bfc005e0:	161208b4 	bne	s0,s2,bfc028b4 <inst_error>
bfc005e4:	00000000 	nop
bfc005e8:	3c083d90 	lui	t0,0x3d90
bfc005ec:	3508eb80 	ori	t0,t0,0xeb80
bfc005f0:	3c09b4f8 	lui	t1,0xb4f8
bfc005f4:	3529ea91 	ori	t1,t1,0xea91
bfc005f8:	01098027 	nor	s0,t0,t1
bfc005fc:	3c124207 	lui	s2,0x4207
bfc00600:	3652146e 	ori	s2,s2,0x146e
bfc00604:	161208ab 	bne	s0,s2,bfc028b4 <inst_error>
bfc00608:	00000000 	nop
bfc0060c:	3c08594c 	lui	t0,0x594c
bfc00610:	35084c50 	ori	t0,t0,0x4c50
bfc00614:	3c09f13b 	lui	t1,0xf13b
bfc00618:	3529ea0c 	ori	t1,t1,0xea0c
bfc0061c:	01098027 	nor	s0,t0,t1
bfc00620:	3c120680 	lui	s2,0x680
bfc00624:	365211a3 	ori	s2,s2,0x11a3
bfc00628:	161208a2 	bne	s0,s2,bfc028b4 <inst_error>
bfc0062c:	00000000 	nop
bfc00630:	3c08a66f 	lui	t0,0xa66f
bfc00634:	35085f40 	ori	t0,t0,0x5f40
bfc00638:	3c090ab4 	lui	t1,0xab4
bfc0063c:	35294d08 	ori	t1,t1,0x4d08
bfc00640:	01098027 	nor	s0,t0,t1
bfc00644:	3c125100 	lui	s2,0x5100
bfc00648:	3652a0b7 	ori	s2,s2,0xa0b7
bfc0064c:	16120899 	bne	s0,s2,bfc028b4 <inst_error>
bfc00650:	00000000 	nop
bfc00654:	3c08cdd1 	lui	t0,0xcdd1
bfc00658:	3508b1c8 	ori	t0,t0,0xb1c8
bfc0065c:	3c09356e 	lui	t1,0x356e
bfc00660:	3529e9fb 	ori	t1,t1,0xe9fb
bfc00664:	01098027 	nor	s0,t0,t1
bfc00668:	3c120200 	lui	s2,0x200
bfc0066c:	36520604 	ori	s2,s2,0x604
bfc00670:	16120890 	bne	s0,s2,bfc028b4 <inst_error>
bfc00674:	00000000 	nop
bfc00678:	3c080a28 	lui	t0,0xa28
bfc0067c:	350884bc 	ori	t0,t0,0x84bc
bfc00680:	3c090bf1 	lui	t1,0xbf1
bfc00684:	35290114 	ori	t1,t1,0x114
bfc00688:	01098027 	nor	s0,t0,t1
bfc0068c:	3c12f406 	lui	s2,0xf406
bfc00690:	36527a43 	ori	s2,s2,0x7a43
bfc00694:	16120887 	bne	s0,s2,bfc028b4 <inst_error>
bfc00698:	00000000 	nop
bfc0069c:	3c08374f 	lui	t0,0x374f
bfc006a0:	3508e71c 	ori	t0,t0,0xe71c
bfc006a4:	3c0980e8 	lui	t1,0x80e8
bfc006a8:	35291eac 	ori	t1,t1,0x1eac
bfc006ac:	01098027 	nor	s0,t0,t1
bfc006b0:	3c124810 	lui	s2,0x4810
bfc006b4:	36520043 	ori	s2,s2,0x43
bfc006b8:	1612087e 	bne	s0,s2,bfc028b4 <inst_error>
bfc006bc:	00000000 	nop
bfc006c0:	3c084efe 	lui	t0,0x4efe
bfc006c4:	350813f0 	ori	t0,t0,0x13f0
bfc006c8:	3c09984c 	lui	t1,0x984c
bfc006cc:	3529a1c6 	ori	t1,t1,0xa1c6
bfc006d0:	01098027 	nor	s0,t0,t1
bfc006d4:	3c122101 	lui	s2,0x2101
bfc006d8:	36524c09 	ori	s2,s2,0x4c09
bfc006dc:	16120875 	bne	s0,s2,bfc028b4 <inst_error>
bfc006e0:	00000000 	nop
bfc006e4:	3c08512f 	lui	t0,0x512f
bfc006e8:	35087b26 	ori	t0,t0,0x7b26
bfc006ec:	3c09408c 	lui	t1,0x408c
bfc006f0:	3529ab08 	ori	t1,t1,0xab08
bfc006f4:	01098027 	nor	s0,t0,t1
bfc006f8:	3c12ae50 	lui	s2,0xae50
bfc006fc:	365204d1 	ori	s2,s2,0x4d1
bfc00700:	1612086c 	bne	s0,s2,bfc028b4 <inst_error>
bfc00704:	00000000 	nop
bfc00708:	3c08ed05 	lui	t0,0xed05
bfc0070c:	3508bffa 	ori	t0,t0,0xbffa
bfc00710:	3c09fc42 	lui	t1,0xfc42
bfc00714:	352998ba 	ori	t1,t1,0x98ba
bfc00718:	01098027 	nor	s0,t0,t1
bfc0071c:	3c1202b8 	lui	s2,0x2b8
bfc00720:	36524005 	ori	s2,s2,0x4005
bfc00724:	16120863 	bne	s0,s2,bfc028b4 <inst_error>
bfc00728:	00000000 	nop
bfc0072c:	3c0819c2 	lui	t0,0x19c2
bfc00730:	3508050e 	ori	t0,t0,0x50e
bfc00734:	3c09c4eb 	lui	t1,0xc4eb
bfc00738:	35293ea8 	ori	t1,t1,0x3ea8
bfc0073c:	01098027 	nor	s0,t0,t1
bfc00740:	3c122214 	lui	s2,0x2214
bfc00744:	3652c051 	ori	s2,s2,0xc051
bfc00748:	1612085a 	bne	s0,s2,bfc028b4 <inst_error>
bfc0074c:	00000000 	nop
bfc00750:	3c08ba04 	lui	t0,0xba04
bfc00754:	35081f3c 	ori	t0,t0,0x1f3c
bfc00758:	3c09ac1f 	lui	t1,0xac1f
bfc0075c:	352954a0 	ori	t1,t1,0x54a0
bfc00760:	01098027 	nor	s0,t0,t1
bfc00764:	3c1241e0 	lui	s2,0x41e0
bfc00768:	3652a043 	ori	s2,s2,0xa043
bfc0076c:	16120851 	bne	s0,s2,bfc028b4 <inst_error>
bfc00770:	00000000 	nop
bfc00774:	3c08cd2b 	lui	t0,0xcd2b
bfc00778:	3508cc88 	ori	t0,t0,0xcc88
bfc0077c:	3c09f2c0 	lui	t1,0xf2c0
bfc00780:	3529cddd 	ori	t1,t1,0xcddd
bfc00784:	01098027 	nor	s0,t0,t1
bfc00788:	3c120014 	lui	s2,0x14
bfc0078c:	36523222 	ori	s2,s2,0x3222
bfc00790:	16120848 	bne	s0,s2,bfc028b4 <inst_error>
bfc00794:	00000000 	nop
bfc00798:	3c08a8bf 	lui	t0,0xa8bf
bfc0079c:	3508eb90 	ori	t0,t0,0xeb90
bfc007a0:	3c091e93 	lui	t1,0x1e93
bfc007a4:	3529d54f 	ori	t1,t1,0xd54f
bfc007a8:	01098027 	nor	s0,t0,t1
bfc007ac:	3c124140 	lui	s2,0x4140
bfc007b0:	36520020 	ori	s2,s2,0x20
bfc007b4:	1612083f 	bne	s0,s2,bfc028b4 <inst_error>
bfc007b8:	00000000 	nop
bfc007bc:	3c0853c0 	lui	t0,0x53c0
bfc007c0:	350881f8 	ori	t0,t0,0x81f8
bfc007c4:	3c099b9b 	lui	t1,0x9b9b
bfc007c8:	3529c370 	ori	t1,t1,0xc370
bfc007cc:	01098027 	nor	s0,t0,t1
bfc007d0:	3c122424 	lui	s2,0x2424
bfc007d4:	36523c07 	ori	s2,s2,0x3c07
bfc007d8:	16120836 	bne	s0,s2,bfc028b4 <inst_error>
bfc007dc:	00000000 	nop
bfc007e0:	3c08fa01 	lui	t0,0xfa01
bfc007e4:	3508abaa 	ori	t0,t0,0xabaa
bfc007e8:	3c0962ee 	lui	t1,0x62ee
bfc007ec:	35298d90 	ori	t1,t1,0x8d90
bfc007f0:	01098027 	nor	s0,t0,t1
bfc007f4:	3c120510 	lui	s2,0x510
bfc007f8:	36525045 	ori	s2,s2,0x5045
bfc007fc:	1612082d 	bne	s0,s2,bfc028b4 <inst_error>
bfc00800:	00000000 	nop
bfc00804:	3c08db0e 	lui	t0,0xdb0e
bfc00808:	3508e4c4 	ori	t0,t0,0xe4c4
bfc0080c:	3c09a03a 	lui	t1,0xa03a
bfc00810:	35292b2f 	ori	t1,t1,0x2b2f
bfc00814:	01098027 	nor	s0,t0,t1
bfc00818:	3c1204c1 	lui	s2,0x4c1
bfc0081c:	36521010 	ori	s2,s2,0x1010
bfc00820:	16120824 	bne	s0,s2,bfc028b4 <inst_error>
bfc00824:	00000000 	nop
bfc00828:	3c0895e9 	lui	t0,0x95e9
bfc0082c:	350887f3 	ori	t0,t0,0x87f3
bfc00830:	3c09f73f 	lui	t1,0xf73f
bfc00834:	35290968 	ori	t1,t1,0x968
bfc00838:	01098027 	nor	s0,t0,t1
bfc0083c:	3c120800 	lui	s2,0x800
bfc00840:	36527004 	ori	s2,s2,0x7004
bfc00844:	1612081b 	bne	s0,s2,bfc028b4 <inst_error>
bfc00848:	00000000 	nop
bfc0084c:	3c08a70c 	lui	t0,0xa70c
bfc00850:	3508c140 	ori	t0,t0,0xc140
bfc00854:	3c090c1b 	lui	t1,0xc1b
bfc00858:	3529895c 	ori	t1,t1,0x895c
bfc0085c:	01098027 	nor	s0,t0,t1
bfc00860:	3c1250e0 	lui	s2,0x50e0
bfc00864:	365236a3 	ori	s2,s2,0x36a3
bfc00868:	16120812 	bne	s0,s2,bfc028b4 <inst_error>
bfc0086c:	00000000 	nop
bfc00870:	3c0803d1 	lui	t0,0x3d1
bfc00874:	3508b3cc 	ori	t0,t0,0xb3cc
bfc00878:	3c09b101 	lui	t1,0xb101
bfc0087c:	3529c000 	ori	t1,t1,0xc000
bfc00880:	01098027 	nor	s0,t0,t1
bfc00884:	3c124c2e 	lui	s2,0x4c2e
bfc00888:	36520c33 	ori	s2,s2,0xc33
bfc0088c:	16120809 	bne	s0,s2,bfc028b4 <inst_error>
bfc00890:	00000000 	nop
bfc00894:	3c08df0d 	lui	t0,0xdf0d
bfc00898:	3508a114 	ori	t0,t0,0xa114
bfc0089c:	3c09231a 	lui	t1,0x231a
bfc008a0:	35291e40 	ori	t1,t1,0x1e40
bfc008a4:	01098027 	nor	s0,t0,t1
bfc008a8:	3c1200e0 	lui	s2,0xe0
bfc008ac:	365240ab 	ori	s2,s2,0x40ab
bfc008b0:	16120800 	bne	s0,s2,bfc028b4 <inst_error>
bfc008b4:	00000000 	nop
bfc008b8:	3c089e45 	lui	t0,0x9e45
bfc008bc:	3508d49e 	ori	t0,t0,0xd49e
bfc008c0:	3c094d0a 	lui	t1,0x4d0a
bfc008c4:	3529831c 	ori	t1,t1,0x831c
bfc008c8:	01098027 	nor	s0,t0,t1
bfc008cc:	3c1220b0 	lui	s2,0x20b0
bfc008d0:	36522861 	ori	s2,s2,0x2861
bfc008d4:	161207f7 	bne	s0,s2,bfc028b4 <inst_error>
bfc008d8:	00000000 	nop
bfc008dc:	3c08b7c6 	lui	t0,0xb7c6
bfc008e0:	3508c72c 	ori	t0,t0,0xc72c
bfc008e4:	3c09c044 	lui	t1,0xc044
bfc008e8:	3529a700 	ori	t1,t1,0xa700
bfc008ec:	01098027 	nor	s0,t0,t1
bfc008f0:	3c120839 	lui	s2,0x839
bfc008f4:	365218d3 	ori	s2,s2,0x18d3
bfc008f8:	161207ee 	bne	s0,s2,bfc028b4 <inst_error>
bfc008fc:	00000000 	nop
bfc00900:	3c08243a 	lui	t0,0x243a
bfc00904:	350857d6 	ori	t0,t0,0x57d6
bfc00908:	3c09b6d6 	lui	t1,0xb6d6
bfc0090c:	3529fd04 	ori	t1,t1,0xfd04
bfc00910:	01098027 	nor	s0,t0,t1
bfc00914:	3c124901 	lui	s2,0x4901
bfc00918:	36520029 	ori	s2,s2,0x29
bfc0091c:	161207e5 	bne	s0,s2,bfc028b4 <inst_error>
bfc00920:	00000000 	nop
bfc00924:	3c082043 	lui	t0,0x2043
bfc00928:	3508e6b4 	ori	t0,t0,0xe6b4
bfc0092c:	3c09f6ab 	lui	t1,0xf6ab
bfc00930:	35293e00 	ori	t1,t1,0x3e00
bfc00934:	01098027 	nor	s0,t0,t1
bfc00938:	3c120914 	lui	s2,0x914
bfc0093c:	3652014b 	ori	s2,s2,0x14b
bfc00940:	161207dc 	bne	s0,s2,bfc028b4 <inst_error>
bfc00944:	00000000 	nop
bfc00948:	3c08b1ee 	lui	t0,0xb1ee
bfc0094c:	35089c00 	ori	t0,t0,0x9c00
bfc00950:	3c091460 	lui	t1,0x1460
bfc00954:	3529ff1c 	ori	t1,t1,0xff1c
bfc00958:	01098027 	nor	s0,t0,t1
bfc0095c:	3c124a11 	lui	s2,0x4a11
bfc00960:	365200e3 	ori	s2,s2,0xe3
bfc00964:	161207d3 	bne	s0,s2,bfc028b4 <inst_error>
bfc00968:	00000000 	nop
bfc0096c:	3c08feae 	lui	t0,0xfeae
bfc00970:	3508ef69 	ori	t0,t0,0xef69
bfc00974:	3c0999eb 	lui	t1,0x99eb
bfc00978:	35295628 	ori	t1,t1,0x5628
bfc0097c:	01098027 	nor	s0,t0,t1
bfc00980:	3c120010 	lui	s2,0x10
bfc00984:	36520096 	ori	s2,s2,0x96
bfc00988:	161207ca 	bne	s0,s2,bfc028b4 <inst_error>
bfc0098c:	00000000 	nop
bfc00990:	3c08fc6e 	lui	t0,0xfc6e
bfc00994:	350860d0 	ori	t0,t0,0x60d0
bfc00998:	3c0925ce 	lui	t1,0x25ce
bfc0099c:	3529d000 	ori	t1,t1,0xd000
bfc009a0:	01098027 	nor	s0,t0,t1
bfc009a4:	3c120211 	lui	s2,0x211
bfc009a8:	36520f2f 	ori	s2,s2,0xf2f
bfc009ac:	161207c1 	bne	s0,s2,bfc028b4 <inst_error>
bfc009b0:	00000000 	nop
bfc009b4:	3c08292f 	lui	t0,0x292f
bfc009b8:	3508ef47 	ori	t0,t0,0xef47
bfc009bc:	3c09ccf3 	lui	t1,0xccf3
bfc009c0:	35299d30 	ori	t1,t1,0x9d30
bfc009c4:	01098027 	nor	s0,t0,t1
bfc009c8:	3c121200 	lui	s2,0x1200
bfc009cc:	36520088 	ori	s2,s2,0x88
bfc009d0:	161207b8 	bne	s0,s2,bfc028b4 <inst_error>
bfc009d4:	00000000 	nop
bfc009d8:	3c08b972 	lui	t0,0xb972
bfc009dc:	3508576d 	ori	t0,t0,0x576d
bfc009e0:	3c096b5d 	lui	t1,0x6b5d
bfc009e4:	3529e304 	ori	t1,t1,0xe304
bfc009e8:	01098027 	nor	s0,t0,t1
bfc009ec:	3c120480 	lui	s2,0x480
bfc009f0:	36520892 	ori	s2,s2,0x892
bfc009f4:	161207af 	bne	s0,s2,bfc028b4 <inst_error>
bfc009f8:	00000000 	nop
bfc009fc:	3c08f2c8 	lui	t0,0xf2c8
bfc00a00:	35083a02 	ori	t0,t0,0x3a02
bfc00a04:	3c09c8ba 	lui	t1,0xc8ba
bfc00a08:	352976ad 	ori	t1,t1,0x76ad
bfc00a0c:	01098027 	nor	s0,t0,t1
bfc00a10:	3c120505 	lui	s2,0x505
bfc00a14:	36528150 	ori	s2,s2,0x8150
bfc00a18:	161207a6 	bne	s0,s2,bfc028b4 <inst_error>
bfc00a1c:	00000000 	nop
bfc00a20:	3c087fac 	lui	t0,0x7fac
bfc00a24:	35089b0a 	ori	t0,t0,0x9b0a
bfc00a28:	3c0928a5 	lui	t1,0x28a5
bfc00a2c:	3529555c 	ori	t1,t1,0x555c
bfc00a30:	01098027 	nor	s0,t0,t1
bfc00a34:	3c128052 	lui	s2,0x8052
bfc00a38:	365220a1 	ori	s2,s2,0x20a1
bfc00a3c:	1612079d 	bne	s0,s2,bfc028b4 <inst_error>
bfc00a40:	00000000 	nop
bfc00a44:	3c08fb82 	lui	t0,0xfb82
bfc00a48:	350806d0 	ori	t0,t0,0x6d0
bfc00a4c:	3c0937cb 	lui	t1,0x37cb
bfc00a50:	3529e2b0 	ori	t1,t1,0xe2b0
bfc00a54:	01098027 	nor	s0,t0,t1
bfc00a58:	3c120034 	lui	s2,0x34
bfc00a5c:	3652190f 	ori	s2,s2,0x190f
bfc00a60:	16120794 	bne	s0,s2,bfc028b4 <inst_error>
bfc00a64:	00000000 	nop
bfc00a68:	3c080ce1 	lui	t0,0xce1
bfc00a6c:	35085bc0 	ori	t0,t0,0x5bc0
bfc00a70:	3c09833c 	lui	t1,0x833c
bfc00a74:	35298465 	ori	t1,t1,0x8465
bfc00a78:	01098027 	nor	s0,t0,t1
bfc00a7c:	3c127002 	lui	s2,0x7002
bfc00a80:	3652201a 	ori	s2,s2,0x201a
bfc00a84:	1612078b 	bne	s0,s2,bfc028b4 <inst_error>
bfc00a88:	00000000 	nop
bfc00a8c:	3c08d64b 	lui	t0,0xd64b
bfc00a90:	3508fe58 	ori	t0,t0,0xfe58
bfc00a94:	3c09c0ce 	lui	t1,0xc0ce
bfc00a98:	352986c0 	ori	t1,t1,0x86c0
bfc00a9c:	01098027 	nor	s0,t0,t1
bfc00aa0:	3c122930 	lui	s2,0x2930
bfc00aa4:	36520127 	ori	s2,s2,0x127
bfc00aa8:	16120782 	bne	s0,s2,bfc028b4 <inst_error>
bfc00aac:	00000000 	nop
bfc00ab0:	3c0850c6 	lui	t0,0x50c6
bfc00ab4:	35087f78 	ori	t0,t0,0x7f78
bfc00ab8:	3c09f7da 	lui	t1,0xf7da
bfc00abc:	35299c80 	ori	t1,t1,0x9c80
bfc00ac0:	01098027 	nor	s0,t0,t1
bfc00ac4:	3c120821 	lui	s2,0x821
bfc00ac8:	36520007 	ori	s2,s2,0x7
bfc00acc:	16120779 	bne	s0,s2,bfc028b4 <inst_error>
bfc00ad0:	00000000 	nop
bfc00ad4:	3c083e0a 	lui	t0,0x3e0a
bfc00ad8:	35088464 	ori	t0,t0,0x8464
bfc00adc:	3c090256 	lui	t1,0x256
bfc00ae0:	35292e56 	ori	t1,t1,0x2e56
bfc00ae4:	01098027 	nor	s0,t0,t1
bfc00ae8:	3c12c1a1 	lui	s2,0xc1a1
bfc00aec:	36525189 	ori	s2,s2,0x5189
bfc00af0:	16120770 	bne	s0,s2,bfc028b4 <inst_error>
bfc00af4:	00000000 	nop
bfc00af8:	3c08a86a 	lui	t0,0xa86a
bfc00afc:	350803c9 	ori	t0,t0,0x3c9
bfc00b00:	3c09d304 	lui	t1,0xd304
bfc00b04:	35297b0c 	ori	t1,t1,0x7b0c
bfc00b08:	01098027 	nor	s0,t0,t1
bfc00b0c:	3c120491 	lui	s2,0x491
bfc00b10:	36528432 	ori	s2,s2,0x8432
bfc00b14:	16120767 	bne	s0,s2,bfc028b4 <inst_error>
bfc00b18:	00000000 	nop
bfc00b1c:	3c084cc4 	lui	t0,0x4cc4
bfc00b20:	350808c0 	ori	t0,t0,0x8c0
bfc00b24:	3c0973c2 	lui	t1,0x73c2
bfc00b28:	35296f1c 	ori	t1,t1,0x6f1c
bfc00b2c:	01098027 	nor	s0,t0,t1
bfc00b30:	3c128039 	lui	s2,0x8039
bfc00b34:	36529023 	ori	s2,s2,0x9023
bfc00b38:	1612075e 	bne	s0,s2,bfc028b4 <inst_error>
bfc00b3c:	00000000 	nop
bfc00b40:	3c083ddb 	lui	t0,0x3ddb
bfc00b44:	3508b284 	ori	t0,t0,0xb284
bfc00b48:	3c097dca 	lui	t1,0x7dca
bfc00b4c:	35291ea2 	ori	t1,t1,0x1ea2
bfc00b50:	01098027 	nor	s0,t0,t1
bfc00b54:	3c128224 	lui	s2,0x8224
bfc00b58:	36524159 	ori	s2,s2,0x4159
bfc00b5c:	16120755 	bne	s0,s2,bfc028b4 <inst_error>
bfc00b60:	00000000 	nop
bfc00b64:	3c0882f1 	lui	t0,0x82f1
bfc00b68:	35084014 	ori	t0,t0,0x4014
bfc00b6c:	3c09654b 	lui	t1,0x654b
bfc00b70:	3529ce00 	ori	t1,t1,0xce00
bfc00b74:	01098027 	nor	s0,t0,t1
bfc00b78:	3c121804 	lui	s2,0x1804
bfc00b7c:	365231eb 	ori	s2,s2,0x31eb
bfc00b80:	1612074c 	bne	s0,s2,bfc028b4 <inst_error>
bfc00b84:	00000000 	nop
bfc00b88:	3c08d68f 	lui	t0,0xd68f
bfc00b8c:	35081ca1 	ori	t0,t0,0x1ca1
bfc00b90:	3c09dbed 	lui	t1,0xdbed
bfc00b94:	3529cc18 	ori	t1,t1,0xcc18
bfc00b98:	01098027 	nor	s0,t0,t1
bfc00b9c:	3c122010 	lui	s2,0x2010
bfc00ba0:	36522346 	ori	s2,s2,0x2346
bfc00ba4:	16120743 	bne	s0,s2,bfc028b4 <inst_error>
bfc00ba8:	00000000 	nop
bfc00bac:	3c08ad32 	lui	t0,0xad32
bfc00bb0:	3508d5e2 	ori	t0,t0,0xd5e2
bfc00bb4:	3c09e5d1 	lui	t1,0xe5d1
bfc00bb8:	3529d240 	ori	t1,t1,0xd240
bfc00bbc:	01098027 	nor	s0,t0,t1
bfc00bc0:	3c12120c 	lui	s2,0x120c
bfc00bc4:	3652281d 	ori	s2,s2,0x281d
bfc00bc8:	1612073a 	bne	s0,s2,bfc028b4 <inst_error>
bfc00bcc:	00000000 	nop
bfc00bd0:	3c08f339 	lui	t0,0xf339
bfc00bd4:	350887b4 	ori	t0,t0,0x87b4
bfc00bd8:	3c091fd4 	lui	t1,0x1fd4
bfc00bdc:	35299a00 	ori	t1,t1,0x9a00
bfc00be0:	01098027 	nor	s0,t0,t1
bfc00be4:	3c120002 	lui	s2,0x2
bfc00be8:	3652604b 	ori	s2,s2,0x604b
bfc00bec:	16120731 	bne	s0,s2,bfc028b4 <inst_error>
bfc00bf0:	00000000 	nop
bfc00bf4:	3c08fa57 	lui	t0,0xfa57
bfc00bf8:	3508bb00 	ori	t0,t0,0xbb00
bfc00bfc:	3c0916da 	lui	t1,0x16da
bfc00c00:	35293978 	ori	t1,t1,0x3978
bfc00c04:	01098027 	nor	s0,t0,t1
bfc00c08:	3c120120 	lui	s2,0x120
bfc00c0c:	36524487 	ori	s2,s2,0x4487
bfc00c10:	16120728 	bne	s0,s2,bfc028b4 <inst_error>
bfc00c14:	00000000 	nop
bfc00c18:	3c080105 	lui	t0,0x105
bfc00c1c:	35081660 	ori	t0,t0,0x1660
bfc00c20:	3c093f52 	lui	t1,0x3f52
bfc00c24:	3529af3b 	ori	t1,t1,0xaf3b
bfc00c28:	01098027 	nor	s0,t0,t1
bfc00c2c:	3c12c0a8 	lui	s2,0xc0a8
bfc00c30:	36524084 	ori	s2,s2,0x4084
bfc00c34:	1612071f 	bne	s0,s2,bfc028b4 <inst_error>
bfc00c38:	00000000 	nop
bfc00c3c:	3c085f7c 	lui	t0,0x5f7c
bfc00c40:	350877c4 	ori	t0,t0,0x77c4
bfc00c44:	3c0921c1 	lui	t1,0x21c1
bfc00c48:	3529d67c 	ori	t1,t1,0xd67c
bfc00c4c:	01098027 	nor	s0,t0,t1
bfc00c50:	3c128002 	lui	s2,0x8002
bfc00c54:	36520803 	ori	s2,s2,0x803
bfc00c58:	16120716 	bne	s0,s2,bfc028b4 <inst_error>
bfc00c5c:	00000000 	nop
bfc00c60:	3c08c609 	lui	t0,0xc609
bfc00c64:	3508d248 	ori	t0,t0,0xd248
bfc00c68:	3c094c7f 	lui	t1,0x4c7f
bfc00c6c:	35293a06 	ori	t1,t1,0x3a06
bfc00c70:	01098027 	nor	s0,t0,t1
bfc00c74:	3c123180 	lui	s2,0x3180
bfc00c78:	365205b1 	ori	s2,s2,0x5b1
bfc00c7c:	1612070d 	bne	s0,s2,bfc028b4 <inst_error>
bfc00c80:	00000000 	nop
bfc00c84:	3c08993a 	lui	t0,0x993a
bfc00c88:	35089cee 	ori	t0,t0,0x9cee
bfc00c8c:	3c0956f9 	lui	t1,0x56f9
bfc00c90:	3529eb3d 	ori	t1,t1,0xeb3d
bfc00c94:	01098027 	nor	s0,t0,t1
bfc00c98:	3c122004 	lui	s2,0x2004
bfc00c9c:	16120705 	bne	s0,s2,bfc028b4 <inst_error>
bfc00ca0:	00000000 	nop
bfc00ca4:	3c0895f4 	lui	t0,0x95f4
bfc00ca8:	3508f59d 	ori	t0,t0,0xf59d
bfc00cac:	3c09fbe6 	lui	t1,0xfbe6
bfc00cb0:	35298ad4 	ori	t1,t1,0x8ad4
bfc00cb4:	01098027 	nor	s0,t0,t1
bfc00cb8:	3c120009 	lui	s2,0x9
bfc00cbc:	36520022 	ori	s2,s2,0x22
bfc00cc0:	161206fc 	bne	s0,s2,bfc028b4 <inst_error>
bfc00cc4:	00000000 	nop
bfc00cc8:	3c08ed68 	lui	t0,0xed68
bfc00ccc:	35085948 	ori	t0,t0,0x5948
bfc00cd0:	3c0992d9 	lui	t1,0x92d9
bfc00cd4:	352914b0 	ori	t1,t1,0x14b0
bfc00cd8:	01098027 	nor	s0,t0,t1
bfc00cdc:	3c120006 	lui	s2,0x6
bfc00ce0:	3652a207 	ori	s2,s2,0xa207
bfc00ce4:	161206f3 	bne	s0,s2,bfc028b4 <inst_error>
bfc00ce8:	00000000 	nop
bfc00cec:	3c08d75b 	lui	t0,0xd75b
bfc00cf0:	3508fb80 	ori	t0,t0,0xfb80
bfc00cf4:	3c093f9b 	lui	t1,0x3f9b
bfc00cf8:	35298c20 	ori	t1,t1,0x8c20
bfc00cfc:	01098027 	nor	s0,t0,t1
bfc00d00:	3c120024 	lui	s2,0x24
bfc00d04:	3652005f 	ori	s2,s2,0x5f
bfc00d08:	161206ea 	bne	s0,s2,bfc028b4 <inst_error>
bfc00d0c:	00000000 	nop
bfc00d10:	3c088468 	lui	t0,0x8468
bfc00d14:	35080288 	ori	t0,t0,0x288
bfc00d18:	3c09e61d 	lui	t1,0xe61d
bfc00d1c:	35295ed2 	ori	t1,t1,0x5ed2
bfc00d20:	01098027 	nor	s0,t0,t1
bfc00d24:	3c121982 	lui	s2,0x1982
bfc00d28:	3652a125 	ori	s2,s2,0xa125
bfc00d2c:	161206e1 	bne	s0,s2,bfc028b4 <inst_error>
bfc00d30:	00000000 	nop
bfc00d34:	3c080c03 	lui	t0,0xc03
bfc00d38:	3508c4c0 	ori	t0,t0,0xc4c0
bfc00d3c:	3c09b226 	lui	t1,0xb226
bfc00d40:	352982c4 	ori	t1,t1,0x82c4
bfc00d44:	01098027 	nor	s0,t0,t1
bfc00d48:	3c1241d8 	lui	s2,0x41d8
bfc00d4c:	3652393b 	ori	s2,s2,0x393b
bfc00d50:	161206d8 	bne	s0,s2,bfc028b4 <inst_error>
bfc00d54:	00000000 	nop
bfc00d58:	3c08ebcd 	lui	t0,0xebcd
bfc00d5c:	35081e3c 	ori	t0,t0,0x1e3c
bfc00d60:	3c09b44d 	lui	t1,0xb44d
bfc00d64:	3529cb9e 	ori	t1,t1,0xcb9e
bfc00d68:	01098027 	nor	s0,t0,t1
bfc00d6c:	3c120032 	lui	s2,0x32
bfc00d70:	36522041 	ori	s2,s2,0x2041
bfc00d74:	161206cf 	bne	s0,s2,bfc028b4 <inst_error>
bfc00d78:	00000000 	nop
bfc00d7c:	3c083033 	lui	t0,0x3033
bfc00d80:	350861cc 	ori	t0,t0,0x61cc
bfc00d84:	3c09d760 	lui	t1,0xd760
bfc00d88:	352968c0 	ori	t1,t1,0x68c0
bfc00d8c:	01098027 	nor	s0,t0,t1
bfc00d90:	3c12088c 	lui	s2,0x88c
bfc00d94:	36529633 	ori	s2,s2,0x9633
bfc00d98:	161206c6 	bne	s0,s2,bfc028b4 <inst_error>
bfc00d9c:	00000000 	nop
bfc00da0:	3c0888c9 	lui	t0,0x88c9
bfc00da4:	35087c00 	ori	t0,t0,0x7c00
bfc00da8:	3c092235 	lui	t1,0x2235
bfc00dac:	352926b4 	ori	t1,t1,0x26b4
bfc00db0:	01098027 	nor	s0,t0,t1
bfc00db4:	3c125502 	lui	s2,0x5502
bfc00db8:	3652814b 	ori	s2,s2,0x814b
bfc00dbc:	161206bd 	bne	s0,s2,bfc028b4 <inst_error>
bfc00dc0:	00000000 	nop
bfc00dc4:	3c080750 	lui	t0,0x750
bfc00dc8:	3508b298 	ori	t0,t0,0xb298
bfc00dcc:	3c093132 	lui	t1,0x3132
bfc00dd0:	3529df60 	ori	t1,t1,0xdf60
bfc00dd4:	01098027 	nor	s0,t0,t1
bfc00dd8:	3c12c88d 	lui	s2,0xc88d
bfc00ddc:	36520007 	ori	s2,s2,0x7
bfc00de0:	161206b4 	bne	s0,s2,bfc028b4 <inst_error>
bfc00de4:	00000000 	nop
bfc00de8:	3c08f75b 	lui	t0,0xf75b
bfc00dec:	350864b5 	ori	t0,t0,0x64b5
bfc00df0:	3c094346 	lui	t1,0x4346
bfc00df4:	35296818 	ori	t1,t1,0x6818
bfc00df8:	01098027 	nor	s0,t0,t1
bfc00dfc:	3c1208a0 	lui	s2,0x8a0
bfc00e00:	36529342 	ori	s2,s2,0x9342
bfc00e04:	161206ab 	bne	s0,s2,bfc028b4 <inst_error>
bfc00e08:	00000000 	nop
bfc00e0c:	3c08de4b 	lui	t0,0xde4b
bfc00e10:	35085be8 	ori	t0,t0,0x5be8
bfc00e14:	3c090b37 	lui	t1,0xb37
bfc00e18:	35294ff6 	ori	t1,t1,0x4ff6
bfc00e1c:	01098027 	nor	s0,t0,t1
bfc00e20:	3c122080 	lui	s2,0x2080
bfc00e24:	3652a001 	ori	s2,s2,0xa001
bfc00e28:	161206a2 	bne	s0,s2,bfc028b4 <inst_error>
bfc00e2c:	00000000 	nop
bfc00e30:	3c0860a3 	lui	t0,0x60a3
bfc00e34:	35084a40 	ori	t0,t0,0x4a40
bfc00e38:	3c09c920 	lui	t1,0xc920
bfc00e3c:	35298ee0 	ori	t1,t1,0x8ee0
bfc00e40:	01098027 	nor	s0,t0,t1
bfc00e44:	3c12165c 	lui	s2,0x165c
bfc00e48:	3652311f 	ori	s2,s2,0x311f
bfc00e4c:	16120699 	bne	s0,s2,bfc028b4 <inst_error>
bfc00e50:	00000000 	nop
bfc00e54:	3c08bf72 	lui	t0,0xbf72
bfc00e58:	35089976 	ori	t0,t0,0x9976
bfc00e5c:	3c0918d5 	lui	t1,0x18d5
bfc00e60:	3529decc 	ori	t1,t1,0xdecc
bfc00e64:	01098027 	nor	s0,t0,t1
bfc00e68:	3c124008 	lui	s2,0x4008
bfc00e6c:	36522001 	ori	s2,s2,0x2001
bfc00e70:	16120690 	bne	s0,s2,bfc028b4 <inst_error>
bfc00e74:	00000000 	nop
bfc00e78:	3c08f431 	lui	t0,0xf431
bfc00e7c:	35083902 	ori	t0,t0,0x3902
bfc00e80:	3c09a2af 	lui	t1,0xa2af
bfc00e84:	35292800 	ori	t1,t1,0x2800
bfc00e88:	01098027 	nor	s0,t0,t1
bfc00e8c:	3c120940 	lui	s2,0x940
bfc00e90:	3652c6fd 	ori	s2,s2,0xc6fd
bfc00e94:	16120687 	bne	s0,s2,bfc028b4 <inst_error>
bfc00e98:	00000000 	nop
bfc00e9c:	3c084e8b 	lui	t0,0x4e8b
bfc00ea0:	35081960 	ori	t0,t0,0x1960
bfc00ea4:	3c09aeff 	lui	t1,0xaeff
bfc00ea8:	35290e95 	ori	t1,t1,0xe95
bfc00eac:	01098027 	nor	s0,t0,t1
bfc00eb0:	3c121100 	lui	s2,0x1100
bfc00eb4:	3652e00a 	ori	s2,s2,0xe00a
bfc00eb8:	1612067e 	bne	s0,s2,bfc028b4 <inst_error>
bfc00ebc:	00000000 	nop
bfc00ec0:	3c087ea5 	lui	t0,0x7ea5
bfc00ec4:	3508628a 	ori	t0,t0,0x628a
bfc00ec8:	3c097312 	lui	t1,0x7312
bfc00ecc:	3529a904 	ori	t1,t1,0xa904
bfc00ed0:	01098027 	nor	s0,t0,t1
bfc00ed4:	3c128048 	lui	s2,0x8048
bfc00ed8:	36521471 	ori	s2,s2,0x1471
bfc00edc:	16120675 	bne	s0,s2,bfc028b4 <inst_error>
bfc00ee0:	00000000 	nop
bfc00ee4:	3c084d2d 	lui	t0,0x4d2d
bfc00ee8:	35088a38 	ori	t0,t0,0x8a38
bfc00eec:	3c091502 	lui	t1,0x1502
bfc00ef0:	35291a4c 	ori	t1,t1,0x1a4c
bfc00ef4:	01098027 	nor	s0,t0,t1
bfc00ef8:	3c12a2d0 	lui	s2,0xa2d0
bfc00efc:	36526583 	ori	s2,s2,0x6583
bfc00f00:	1612066c 	bne	s0,s2,bfc028b4 <inst_error>
bfc00f04:	00000000 	nop
bfc00f08:	3c08c398 	lui	t0,0xc398
bfc00f0c:	3508a340 	ori	t0,t0,0xa340
bfc00f10:	3c09e2d1 	lui	t1,0xe2d1
bfc00f14:	3529f800 	ori	t1,t1,0xf800
bfc00f18:	01098027 	nor	s0,t0,t1
bfc00f1c:	3c121c26 	lui	s2,0x1c26
bfc00f20:	365204bf 	ori	s2,s2,0x4bf
bfc00f24:	16120663 	bne	s0,s2,bfc028b4 <inst_error>
bfc00f28:	00000000 	nop
bfc00f2c:	3c088388 	lui	t0,0x8388
bfc00f30:	35082a66 	ori	t0,t0,0x2a66
bfc00f34:	3c09dd3a 	lui	t1,0xdd3a
bfc00f38:	35291a54 	ori	t1,t1,0x1a54
bfc00f3c:	01098027 	nor	s0,t0,t1
bfc00f40:	3c122045 	lui	s2,0x2045
bfc00f44:	3652c589 	ori	s2,s2,0xc589
bfc00f48:	1612065a 	bne	s0,s2,bfc028b4 <inst_error>
bfc00f4c:	00000000 	nop
bfc00f50:	3c087048 	lui	t0,0x7048
bfc00f54:	350892e7 	ori	t0,t0,0x92e7
bfc00f58:	3c09ae2e 	lui	t1,0xae2e
bfc00f5c:	3529d910 	ori	t1,t1,0xd910
bfc00f60:	01098027 	nor	s0,t0,t1
bfc00f64:	3c120191 	lui	s2,0x191
bfc00f68:	36522408 	ori	s2,s2,0x2408
bfc00f6c:	16120651 	bne	s0,s2,bfc028b4 <inst_error>
bfc00f70:	00000000 	nop
bfc00f74:	3c0818d6 	lui	t0,0x18d6
bfc00f78:	35086130 	ori	t0,t0,0x6130
bfc00f7c:	3c099075 	lui	t1,0x9075
bfc00f80:	3529b486 	ori	t1,t1,0xb486
bfc00f84:	01098027 	nor	s0,t0,t1
bfc00f88:	3c126708 	lui	s2,0x6708
bfc00f8c:	36520a49 	ori	s2,s2,0xa49
bfc00f90:	16120648 	bne	s0,s2,bfc028b4 <inst_error>
bfc00f94:	00000000 	nop
bfc00f98:	3c08935e 	lui	t0,0x935e
bfc00f9c:	35081e10 	ori	t0,t0,0x1e10
bfc00fa0:	3c09c861 	lui	t1,0xc861
bfc00fa4:	35299b28 	ori	t1,t1,0x9b28
bfc00fa8:	01098027 	nor	s0,t0,t1
bfc00fac:	3c122480 	lui	s2,0x2480
bfc00fb0:	365260c7 	ori	s2,s2,0x60c7
bfc00fb4:	1612063f 	bne	s0,s2,bfc028b4 <inst_error>
bfc00fb8:	00000000 	nop
bfc00fbc:	3c08fd9c 	lui	t0,0xfd9c
bfc00fc0:	35082bba 	ori	t0,t0,0x2bba
bfc00fc4:	3c096234 	lui	t1,0x6234
bfc00fc8:	3529d118 	ori	t1,t1,0xd118
bfc00fcc:	01098027 	nor	s0,t0,t1
bfc00fd0:	3c120043 	lui	s2,0x43
bfc00fd4:	36520445 	ori	s2,s2,0x445
bfc00fd8:	16120636 	bne	s0,s2,bfc028b4 <inst_error>
bfc00fdc:	00000000 	nop
bfc00fe0:	3c085ef3 	lui	t0,0x5ef3
bfc00fe4:	350886e4 	ori	t0,t0,0x86e4
bfc00fe8:	3c098b56 	lui	t1,0x8b56
bfc00fec:	3529a080 	ori	t1,t1,0xa080
bfc00ff0:	01098027 	nor	s0,t0,t1
bfc00ff4:	3c122008 	lui	s2,0x2008
bfc00ff8:	3652591b 	ori	s2,s2,0x591b
bfc00ffc:	1612062d 	bne	s0,s2,bfc028b4 <inst_error>
bfc01000:	00000000 	nop
bfc01004:	3c083b8a 	lui	t0,0x3b8a
bfc01008:	35083c4c 	ori	t0,t0,0x3c4c
bfc0100c:	3c09cabb 	lui	t1,0xcabb
bfc01010:	35295d00 	ori	t1,t1,0x5d00
bfc01014:	01098027 	nor	s0,t0,t1
bfc01018:	3c120444 	lui	s2,0x444
bfc0101c:	365282b3 	ori	s2,s2,0x82b3
bfc01020:	16120624 	bne	s0,s2,bfc028b4 <inst_error>
bfc01024:	00000000 	nop
bfc01028:	3c0828e0 	lui	t0,0x28e0
bfc0102c:	35080790 	ori	t0,t0,0x790
bfc01030:	3c09efee 	lui	t1,0xefee
bfc01034:	3529d2f8 	ori	t1,t1,0xd2f8
bfc01038:	01098027 	nor	s0,t0,t1
bfc0103c:	3c121011 	lui	s2,0x1011
bfc01040:	36522807 	ori	s2,s2,0x2807
bfc01044:	1612061b 	bne	s0,s2,bfc028b4 <inst_error>
bfc01048:	00000000 	nop
bfc0104c:	3c08a4c2 	lui	t0,0xa4c2
bfc01050:	35089deb 	ori	t0,t0,0x9deb
bfc01054:	3c094ad4 	lui	t1,0x4ad4
bfc01058:	352951d0 	ori	t1,t1,0x51d0
bfc0105c:	01098027 	nor	s0,t0,t1
bfc01060:	3c121129 	lui	s2,0x1129
bfc01064:	36522204 	ori	s2,s2,0x2204
bfc01068:	16120612 	bne	s0,s2,bfc028b4 <inst_error>
bfc0106c:	00000000 	nop
bfc01070:	3c082923 	lui	t0,0x2923
bfc01074:	35083f52 	ori	t0,t0,0x3f52
bfc01078:	3c09f8ba 	lui	t1,0xf8ba
bfc0107c:	3529ab00 	ori	t1,t1,0xab00
bfc01080:	01098027 	nor	s0,t0,t1
bfc01084:	3c120644 	lui	s2,0x644
bfc01088:	365240ad 	ori	s2,s2,0x40ad
bfc0108c:	16120609 	bne	s0,s2,bfc028b4 <inst_error>
bfc01090:	00000000 	nop
bfc01094:	3c080798 	lui	t0,0x798
bfc01098:	3508b15e 	ori	t0,t0,0xb15e
bfc0109c:	3c0963b5 	lui	t1,0x63b5
bfc010a0:	3529ae3f 	ori	t1,t1,0xae3f
bfc010a4:	01098027 	nor	s0,t0,t1
bfc010a8:	3c129842 	lui	s2,0x9842
bfc010ac:	36524080 	ori	s2,s2,0x4080
bfc010b0:	16120600 	bne	s0,s2,bfc028b4 <inst_error>
bfc010b4:	00000000 	nop
bfc010b8:	3c086c8c 	lui	t0,0x6c8c
bfc010bc:	35086148 	ori	t0,t0,0x6148
bfc010c0:	3c09ea9a 	lui	t1,0xea9a
bfc010c4:	35296100 	ori	t1,t1,0x6100
bfc010c8:	01098027 	nor	s0,t0,t1
bfc010cc:	3c121161 	lui	s2,0x1161
bfc010d0:	36529eb7 	ori	s2,s2,0x9eb7
bfc010d4:	161205f7 	bne	s0,s2,bfc028b4 <inst_error>
bfc010d8:	00000000 	nop
bfc010dc:	3c08dec9 	lui	t0,0xdec9
bfc010e0:	3508b2cc 	ori	t0,t0,0xb2cc
bfc010e4:	3c0959fb 	lui	t1,0x59fb
bfc010e8:	3529d249 	ori	t1,t1,0xd249
bfc010ec:	01098027 	nor	s0,t0,t1
bfc010f0:	3c122004 	lui	s2,0x2004
bfc010f4:	36520d32 	ori	s2,s2,0xd32
bfc010f8:	161205ee 	bne	s0,s2,bfc028b4 <inst_error>
bfc010fc:	00000000 	nop
bfc01100:	3c088b48 	lui	t0,0x8b48
bfc01104:	35084934 	ori	t0,t0,0x4934
bfc01108:	3c09aa27 	lui	t1,0xaa27
bfc0110c:	3529ed6c 	ori	t1,t1,0xed6c
bfc01110:	01098027 	nor	s0,t0,t1
bfc01114:	3c125490 	lui	s2,0x5490
bfc01118:	36521283 	ori	s2,s2,0x1283
bfc0111c:	161205e5 	bne	s0,s2,bfc028b4 <inst_error>
bfc01120:	00000000 	nop
bfc01124:	3c082eaa 	lui	t0,0x2eaa
bfc01128:	3508d5e7 	ori	t0,t0,0xd5e7
bfc0112c:	3c09f494 	lui	t1,0xf494
bfc01130:	3529df80 	ori	t1,t1,0xdf80
bfc01134:	01098027 	nor	s0,t0,t1
bfc01138:	3c120141 	lui	s2,0x141
bfc0113c:	36522018 	ori	s2,s2,0x2018
bfc01140:	161205dc 	bne	s0,s2,bfc028b4 <inst_error>
bfc01144:	00000000 	nop
bfc01148:	3c08d171 	lui	t0,0xd171
bfc0114c:	3508b190 	ori	t0,t0,0xb190
bfc01150:	3c09c428 	lui	t1,0xc428
bfc01154:	3529fa08 	ori	t1,t1,0xfa08
bfc01158:	01098027 	nor	s0,t0,t1
bfc0115c:	3c122a86 	lui	s2,0x2a86
bfc01160:	36520467 	ori	s2,s2,0x467
bfc01164:	161205d3 	bne	s0,s2,bfc028b4 <inst_error>
bfc01168:	00000000 	nop
bfc0116c:	3c08101c 	lui	t0,0x101c
bfc01170:	35088734 	ori	t0,t0,0x8734
bfc01174:	3c097846 	lui	t1,0x7846
bfc01178:	35297184 	ori	t1,t1,0x7184
bfc0117c:	01098027 	nor	s0,t0,t1
bfc01180:	3c1287a1 	lui	s2,0x87a1
bfc01184:	3652084b 	ori	s2,s2,0x84b
bfc01188:	161205ca 	bne	s0,s2,bfc028b4 <inst_error>
bfc0118c:	00000000 	nop
bfc01190:	3c082a7e 	lui	t0,0x2a7e
bfc01194:	3508e580 	ori	t0,t0,0xe580
bfc01198:	3c098660 	lui	t1,0x8660
bfc0119c:	35298538 	ori	t1,t1,0x8538
bfc011a0:	01098027 	nor	s0,t0,t1
bfc011a4:	3c125181 	lui	s2,0x5181
bfc011a8:	36521a47 	ori	s2,s2,0x1a47
bfc011ac:	161205c1 	bne	s0,s2,bfc028b4 <inst_error>
bfc011b0:	00000000 	nop
bfc011b4:	3c08070c 	lui	t0,0x70c
bfc011b8:	35087944 	ori	t0,t0,0x7944
bfc011bc:	3c09c4e3 	lui	t1,0xc4e3
bfc011c0:	35293cb0 	ori	t1,t1,0x3cb0
bfc011c4:	01098027 	nor	s0,t0,t1
bfc011c8:	3c123810 	lui	s2,0x3810
bfc011cc:	3652820b 	ori	s2,s2,0x820b
bfc011d0:	161205b8 	bne	s0,s2,bfc028b4 <inst_error>
bfc011d4:	00000000 	nop
bfc011d8:	3c08d0d2 	lui	t0,0xd0d2
bfc011dc:	35086710 	ori	t0,t0,0x6710
bfc011e0:	3c09de2e 	lui	t1,0xde2e
bfc011e4:	35293540 	ori	t1,t1,0x3540
bfc011e8:	01098027 	nor	s0,t0,t1
bfc011ec:	3c122101 	lui	s2,0x2101
bfc011f0:	365288af 	ori	s2,s2,0x88af
bfc011f4:	161205af 	bne	s0,s2,bfc028b4 <inst_error>
bfc011f8:	00000000 	nop
bfc011fc:	3c082ce9 	lui	t0,0x2ce9
bfc01200:	3508174e 	ori	t0,t0,0x174e
bfc01204:	3c09e3a8 	lui	t1,0xe3a8
bfc01208:	352904f8 	ori	t1,t1,0x4f8
bfc0120c:	01098027 	nor	s0,t0,t1
bfc01210:	3c121016 	lui	s2,0x1016
bfc01214:	3652e801 	ori	s2,s2,0xe801
bfc01218:	161205a6 	bne	s0,s2,bfc028b4 <inst_error>
bfc0121c:	00000000 	nop
bfc01220:	3c084810 	lui	t0,0x4810
bfc01224:	350865c0 	ori	t0,t0,0x65c0
bfc01228:	3c096610 	lui	t1,0x6610
bfc0122c:	3529c428 	ori	t1,t1,0xc428
bfc01230:	01098027 	nor	s0,t0,t1
bfc01234:	3c1291ef 	lui	s2,0x91ef
bfc01238:	36521a17 	ori	s2,s2,0x1a17
bfc0123c:	1612059d 	bne	s0,s2,bfc028b4 <inst_error>
bfc01240:	00000000 	nop
bfc01244:	3c084f92 	lui	t0,0x4f92
bfc01248:	35080790 	ori	t0,t0,0x790
bfc0124c:	3c0986b3 	lui	t1,0x86b3
bfc01250:	3529e018 	ori	t1,t1,0xe018
bfc01254:	01098027 	nor	s0,t0,t1
bfc01258:	3c12304c 	lui	s2,0x304c
bfc0125c:	36521867 	ori	s2,s2,0x1867
bfc01260:	16120594 	bne	s0,s2,bfc028b4 <inst_error>
bfc01264:	00000000 	nop
bfc01268:	3c089ef6 	lui	t0,0x9ef6
bfc0126c:	3508b13a 	ori	t0,t0,0xb13a
bfc01270:	3c09ba55 	lui	t1,0xba55
bfc01274:	3529f000 	ori	t1,t1,0xf000
bfc01278:	01098027 	nor	s0,t0,t1
bfc0127c:	3c124108 	lui	s2,0x4108
bfc01280:	36520ec5 	ori	s2,s2,0xec5
bfc01284:	1612058b 	bne	s0,s2,bfc028b4 <inst_error>
bfc01288:	00000000 	nop
bfc0128c:	3c08f959 	lui	t0,0xf959
bfc01290:	35088680 	ori	t0,t0,0x8680
bfc01294:	3c090e96 	lui	t1,0xe96
bfc01298:	3529b2c0 	ori	t1,t1,0xb2c0
bfc0129c:	01098027 	nor	s0,t0,t1
bfc012a0:	3c120020 	lui	s2,0x20
bfc012a4:	3652493f 	ori	s2,s2,0x493f
bfc012a8:	16120582 	bne	s0,s2,bfc028b4 <inst_error>
bfc012ac:	00000000 	nop
bfc012b0:	3c08c369 	lui	t0,0xc369
bfc012b4:	3508bcb8 	ori	t0,t0,0xbcb8
bfc012b8:	3c094034 	lui	t1,0x4034
bfc012bc:	3529919c 	ori	t1,t1,0x919c
bfc012c0:	01098027 	nor	s0,t0,t1
bfc012c4:	3c123c82 	lui	s2,0x3c82
bfc012c8:	36524243 	ori	s2,s2,0x4243
bfc012cc:	16120579 	bne	s0,s2,bfc028b4 <inst_error>
bfc012d0:	00000000 	nop
bfc012d4:	3c08acd1 	lui	t0,0xacd1
bfc012d8:	3508fe58 	ori	t0,t0,0xfe58
bfc012dc:	3c0912df 	lui	t1,0x12df
bfc012e0:	3529df3e 	ori	t1,t1,0xdf3e
bfc012e4:	01098027 	nor	s0,t0,t1
bfc012e8:	3c124120 	lui	s2,0x4120
bfc012ec:	36520081 	ori	s2,s2,0x81
bfc012f0:	16120570 	bne	s0,s2,bfc028b4 <inst_error>
bfc012f4:	00000000 	nop
bfc012f8:	3c08e596 	lui	t0,0xe596
bfc012fc:	3508541c 	ori	t0,t0,0x541c
bfc01300:	3c09d733 	lui	t1,0xd733
bfc01304:	35297a18 	ori	t1,t1,0x7a18
bfc01308:	01098027 	nor	s0,t0,t1
bfc0130c:	3c120848 	lui	s2,0x848
bfc01310:	365281e3 	ori	s2,s2,0x81e3
bfc01314:	16120567 	bne	s0,s2,bfc028b4 <inst_error>
bfc01318:	00000000 	nop
bfc0131c:	3c089abb 	lui	t0,0x9abb
bfc01320:	3508bf30 	ori	t0,t0,0xbf30
bfc01324:	3c09447a 	lui	t1,0x447a
bfc01328:	352959c8 	ori	t1,t1,0x59c8
bfc0132c:	01098027 	nor	s0,t0,t1
bfc01330:	3c122104 	lui	s2,0x2104
bfc01334:	36520007 	ori	s2,s2,0x7
bfc01338:	1612055e 	bne	s0,s2,bfc028b4 <inst_error>
bfc0133c:	00000000 	nop
bfc01340:	3c081035 	lui	t0,0x1035
bfc01344:	35081428 	ori	t0,t0,0x1428
bfc01348:	3c093252 	lui	t1,0x3252
bfc0134c:	35296560 	ori	t1,t1,0x6560
bfc01350:	01098027 	nor	s0,t0,t1
bfc01354:	3c12cd88 	lui	s2,0xcd88
bfc01358:	36528a97 	ori	s2,s2,0x8a97
bfc0135c:	16120555 	bne	s0,s2,bfc028b4 <inst_error>
bfc01360:	00000000 	nop
bfc01364:	3c082a9b 	lui	t0,0x2a9b
bfc01368:	35086800 	ori	t0,t0,0x6800
bfc0136c:	3c091af1 	lui	t1,0x1af1
bfc01370:	3529bf4a 	ori	t1,t1,0xbf4a
bfc01374:	01098027 	nor	s0,t0,t1
bfc01378:	3c12c504 	lui	s2,0xc504
bfc0137c:	365200b5 	ori	s2,s2,0xb5
bfc01380:	1612054c 	bne	s0,s2,bfc028b4 <inst_error>
bfc01384:	00000000 	nop
bfc01388:	3c08f405 	lui	t0,0xf405
bfc0138c:	350865a4 	ori	t0,t0,0x65a4
bfc01390:	3c09d533 	lui	t1,0xd533
bfc01394:	3529bdc4 	ori	t1,t1,0xbdc4
bfc01398:	01098027 	nor	s0,t0,t1
bfc0139c:	3c120ac8 	lui	s2,0xac8
bfc013a0:	3652021b 	ori	s2,s2,0x21b
bfc013a4:	16120543 	bne	s0,s2,bfc028b4 <inst_error>
bfc013a8:	00000000 	nop
bfc013ac:	3c086e3c 	lui	t0,0x6e3c
bfc013b0:	35080e69 	ori	t0,t0,0xe69
bfc013b4:	3c093857 	lui	t1,0x3857
bfc013b8:	35299a98 	ori	t1,t1,0x9a98
bfc013bc:	01098027 	nor	s0,t0,t1
bfc013c0:	3c128180 	lui	s2,0x8180
bfc013c4:	36526106 	ori	s2,s2,0x6106
bfc013c8:	1612053a 	bne	s0,s2,bfc028b4 <inst_error>
bfc013cc:	00000000 	nop
bfc013d0:	3c08bb0c 	lui	t0,0xbb0c
bfc013d4:	3508bf04 	ori	t0,t0,0xbf04
bfc013d8:	3c094a01 	lui	t1,0x4a01
bfc013dc:	35294272 	ori	t1,t1,0x4272
bfc013e0:	01098027 	nor	s0,t0,t1
bfc013e4:	3c1204f2 	lui	s2,0x4f2
bfc013e8:	36520089 	ori	s2,s2,0x89
bfc013ec:	16120531 	bne	s0,s2,bfc028b4 <inst_error>
bfc013f0:	00000000 	nop
bfc013f4:	3c084153 	lui	t0,0x4153
bfc013f8:	3508ebc9 	ori	t0,t0,0xebc9
bfc013fc:	3c093f39 	lui	t1,0x3f39
bfc01400:	352941aa 	ori	t1,t1,0x41aa
bfc01404:	01098027 	nor	s0,t0,t1
bfc01408:	3c128084 	lui	s2,0x8084
bfc0140c:	36521414 	ori	s2,s2,0x1414
bfc01410:	16120528 	bne	s0,s2,bfc028b4 <inst_error>
bfc01414:	00000000 	nop
bfc01418:	3c08a281 	lui	t0,0xa281
bfc0141c:	35084c60 	ori	t0,t0,0x4c60
bfc01420:	3c097853 	lui	t1,0x7853
bfc01424:	35290580 	ori	t1,t1,0x580
bfc01428:	01098027 	nor	s0,t0,t1
bfc0142c:	3c12052c 	lui	s2,0x52c
bfc01430:	3652b21f 	ori	s2,s2,0xb21f
bfc01434:	1612051f 	bne	s0,s2,bfc028b4 <inst_error>
bfc01438:	00000000 	nop
bfc0143c:	3c08d3c8 	lui	t0,0xd3c8
bfc01440:	3508ad0a 	ori	t0,t0,0xad0a
bfc01444:	3c09f488 	lui	t1,0xf488
bfc01448:	35297be3 	ori	t1,t1,0x7be3
bfc0144c:	01098027 	nor	s0,t0,t1
bfc01450:	3c120837 	lui	s2,0x837
bfc01454:	36520014 	ori	s2,s2,0x14
bfc01458:	16120516 	bne	s0,s2,bfc028b4 <inst_error>
bfc0145c:	00000000 	nop
bfc01460:	3c0880eb 	lui	t0,0x80eb
bfc01464:	3508bfac 	ori	t0,t0,0xbfac
bfc01468:	3c09981e 	lui	t1,0x981e
bfc0146c:	3529b0ea 	ori	t1,t1,0xb0ea
bfc01470:	01098027 	nor	s0,t0,t1
bfc01474:	3c126700 	lui	s2,0x6700
bfc01478:	36524011 	ori	s2,s2,0x4011
bfc0147c:	1612050d 	bne	s0,s2,bfc028b4 <inst_error>
bfc01480:	00000000 	nop
bfc01484:	3c08cff2 	lui	t0,0xcff2
bfc01488:	35085fee 	ori	t0,t0,0x5fee
bfc0148c:	3c09784e 	lui	t1,0x784e
bfc01490:	3529d707 	ori	t1,t1,0xd707
bfc01494:	01098027 	nor	s0,t0,t1
bfc01498:	3c120001 	lui	s2,0x1
bfc0149c:	36522010 	ori	s2,s2,0x2010
bfc014a0:	16120504 	bne	s0,s2,bfc028b4 <inst_error>
bfc014a4:	00000000 	nop
bfc014a8:	3c08cc20 	lui	t0,0xcc20
bfc014ac:	3508a604 	ori	t0,t0,0xa604
bfc014b0:	3c09c374 	lui	t1,0xc374
bfc014b4:	3529e71c 	ori	t1,t1,0xe71c
bfc014b8:	01098027 	nor	s0,t0,t1
bfc014bc:	3c12308b 	lui	s2,0x308b
bfc014c0:	365218e3 	ori	s2,s2,0x18e3
bfc014c4:	161204fb 	bne	s0,s2,bfc028b4 <inst_error>
bfc014c8:	00000000 	nop
bfc014cc:	3c08fc4b 	lui	t0,0xfc4b
bfc014d0:	3508a708 	ori	t0,t0,0xa708
bfc014d4:	3c090267 	lui	t1,0x267
bfc014d8:	35292e1c 	ori	t1,t1,0x2e1c
bfc014dc:	01098027 	nor	s0,t0,t1
bfc014e0:	3c120190 	lui	s2,0x190
bfc014e4:	365250e3 	ori	s2,s2,0x50e3
bfc014e8:	161204f2 	bne	s0,s2,bfc028b4 <inst_error>
bfc014ec:	00000000 	nop
bfc014f0:	3c08f798 	lui	t0,0xf798
bfc014f4:	350885d0 	ori	t0,t0,0x85d0
bfc014f8:	3c094646 	lui	t1,0x4646
bfc014fc:	3529d442 	ori	t1,t1,0xd442
bfc01500:	01098027 	nor	s0,t0,t1
bfc01504:	3c120821 	lui	s2,0x821
bfc01508:	36522a2d 	ori	s2,s2,0x2a2d
bfc0150c:	161204e9 	bne	s0,s2,bfc028b4 <inst_error>
bfc01510:	00000000 	nop
bfc01514:	3c086996 	lui	t0,0x6996
bfc01518:	3508d370 	ori	t0,t0,0xd370
bfc0151c:	3c097fbf 	lui	t1,0x7fbf
bfc01520:	35297a00 	ori	t1,t1,0x7a00
bfc01524:	01098027 	nor	s0,t0,t1
bfc01528:	3c128040 	lui	s2,0x8040
bfc0152c:	3652048f 	ori	s2,s2,0x48f
bfc01530:	161204e0 	bne	s0,s2,bfc028b4 <inst_error>
bfc01534:	00000000 	nop
bfc01538:	3c08fc29 	lui	t0,0xfc29
bfc0153c:	350899b5 	ori	t0,t0,0x99b5
bfc01540:	3c0929f1 	lui	t1,0x29f1
bfc01544:	35294590 	ori	t1,t1,0x4590
bfc01548:	01098027 	nor	s0,t0,t1
bfc0154c:	3c120206 	lui	s2,0x206
bfc01550:	3652224a 	ori	s2,s2,0x224a
bfc01554:	161204d7 	bne	s0,s2,bfc028b4 <inst_error>
bfc01558:	00000000 	nop
bfc0155c:	3c08f455 	lui	t0,0xf455
bfc01560:	3508fb20 	ori	t0,t0,0xfb20
bfc01564:	3c09cc32 	lui	t1,0xcc32
bfc01568:	3529d628 	ori	t1,t1,0xd628
bfc0156c:	01098027 	nor	s0,t0,t1
bfc01570:	3c120388 	lui	s2,0x388
bfc01574:	365200d7 	ori	s2,s2,0xd7
bfc01578:	161204ce 	bne	s0,s2,bfc028b4 <inst_error>
bfc0157c:	00000000 	nop
bfc01580:	3c083b57 	lui	t0,0x3b57
bfc01584:	35082de7 	ori	t0,t0,0x2de7
bfc01588:	3c09a4aa 	lui	t1,0xa4aa
bfc0158c:	3529fe7e 	ori	t1,t1,0xfe7e
bfc01590:	01098027 	nor	s0,t0,t1
bfc01594:	3c124000 	lui	s2,0x4000
bfc01598:	161204c6 	bne	s0,s2,bfc028b4 <inst_error>
bfc0159c:	00000000 	nop
bfc015a0:	3c088e1d 	lui	t0,0x8e1d
bfc015a4:	35084b80 	ori	t0,t0,0x4b80
bfc015a8:	3c09b4c9 	lui	t1,0xb4c9
bfc015ac:	352955b0 	ori	t1,t1,0x55b0
bfc015b0:	01098027 	nor	s0,t0,t1
bfc015b4:	3c124122 	lui	s2,0x4122
bfc015b8:	3652a04f 	ori	s2,s2,0xa04f
bfc015bc:	161204bd 	bne	s0,s2,bfc028b4 <inst_error>
bfc015c0:	00000000 	nop
bfc015c4:	3c080812 	lui	t0,0x812
bfc015c8:	3508f0f0 	ori	t0,t0,0xf0f0
bfc015cc:	3c096f66 	lui	t1,0x6f66
bfc015d0:	3529ebe0 	ori	t1,t1,0xebe0
bfc015d4:	01098027 	nor	s0,t0,t1
bfc015d8:	3c129089 	lui	s2,0x9089
bfc015dc:	3652040f 	ori	s2,s2,0x40f
bfc015e0:	161204b4 	bne	s0,s2,bfc028b4 <inst_error>
bfc015e4:	00000000 	nop
bfc015e8:	3c08b5b3 	lui	t0,0xb5b3
bfc015ec:	3508cf8c 	ori	t0,t0,0xcf8c
bfc015f0:	3c095c48 	lui	t1,0x5c48
bfc015f4:	3529fa68 	ori	t1,t1,0xfa68
bfc015f8:	01098027 	nor	s0,t0,t1
bfc015fc:	3c120204 	lui	s2,0x204
bfc01600:	36520013 	ori	s2,s2,0x13
bfc01604:	161204ab 	bne	s0,s2,bfc028b4 <inst_error>
bfc01608:	00000000 	nop
bfc0160c:	3c0883ef 	lui	t0,0x83ef
bfc01610:	350887e6 	ori	t0,t0,0x87e6
bfc01614:	3c094979 	lui	t1,0x4979
bfc01618:	3529b2fb 	ori	t1,t1,0xb2fb
bfc0161c:	01098027 	nor	s0,t0,t1
bfc01620:	3c123400 	lui	s2,0x3400
bfc01624:	36524800 	ori	s2,s2,0x4800
bfc01628:	161204a2 	bne	s0,s2,bfc028b4 <inst_error>
bfc0162c:	00000000 	nop
bfc01630:	3c08f3a9 	lui	t0,0xf3a9
bfc01634:	350831b0 	ori	t0,t0,0x31b0
bfc01638:	3c090e10 	lui	t1,0xe10
bfc0163c:	3529c1ce 	ori	t1,t1,0xc1ce
bfc01640:	01098027 	nor	s0,t0,t1
bfc01644:	3c120046 	lui	s2,0x46
bfc01648:	36520e01 	ori	s2,s2,0xe01
bfc0164c:	16120499 	bne	s0,s2,bfc028b4 <inst_error>
bfc01650:	00000000 	nop
bfc01654:	3c08a249 	lui	t0,0xa249
bfc01658:	3508c694 	ori	t0,t0,0xc694
bfc0165c:	3c0962d3 	lui	t1,0x62d3
bfc01660:	35298dcc 	ori	t1,t1,0x8dcc
bfc01664:	01098027 	nor	s0,t0,t1
bfc01668:	3c121d24 	lui	s2,0x1d24
bfc0166c:	36523023 	ori	s2,s2,0x3023
bfc01670:	16120490 	bne	s0,s2,bfc028b4 <inst_error>
bfc01674:	00000000 	nop
bfc01678:	3c0874e2 	lui	t0,0x74e2
bfc0167c:	3508386a 	ori	t0,t0,0x386a
bfc01680:	3c091dbe 	lui	t1,0x1dbe
bfc01684:	3529ee00 	ori	t1,t1,0xee00
bfc01688:	01098027 	nor	s0,t0,t1
bfc0168c:	3c128201 	lui	s2,0x8201
bfc01690:	36520195 	ori	s2,s2,0x195
bfc01694:	16120487 	bne	s0,s2,bfc028b4 <inst_error>
bfc01698:	00000000 	nop
bfc0169c:	3c0858f5 	lui	t0,0x58f5
bfc016a0:	3508ada0 	ori	t0,t0,0xada0
bfc016a4:	3c09531e 	lui	t1,0x531e
bfc016a8:	3529bb80 	ori	t1,t1,0xbb80
bfc016ac:	01098027 	nor	s0,t0,t1
bfc016b0:	3c12a400 	lui	s2,0xa400
bfc016b4:	3652405f 	ori	s2,s2,0x405f
bfc016b8:	1612047e 	bne	s0,s2,bfc028b4 <inst_error>
bfc016bc:	00000000 	nop
bfc016c0:	3c08ab5e 	lui	t0,0xab5e
bfc016c4:	35088db0 	ori	t0,t0,0x8db0
bfc016c8:	3c0994e2 	lui	t1,0x94e2
bfc016cc:	35295a28 	ori	t1,t1,0x5a28
bfc016d0:	01098027 	nor	s0,t0,t1
bfc016d4:	3c124001 	lui	s2,0x4001
bfc016d8:	36522047 	ori	s2,s2,0x2047
bfc016dc:	16120475 	bne	s0,s2,bfc028b4 <inst_error>
bfc016e0:	00000000 	nop
bfc016e4:	3c08d845 	lui	t0,0xd845
bfc016e8:	3508af72 	ori	t0,t0,0xaf72
bfc016ec:	3c09a77d 	lui	t1,0xa77d
bfc016f0:	3529cfb0 	ori	t1,t1,0xcfb0
bfc016f4:	01098027 	nor	s0,t0,t1
bfc016f8:	3c120082 	lui	s2,0x82
bfc016fc:	3652100d 	ori	s2,s2,0x100d
bfc01700:	1612046c 	bne	s0,s2,bfc028b4 <inst_error>
bfc01704:	00000000 	nop
bfc01708:	3c085b0a 	lui	t0,0x5b0a
bfc0170c:	3508b58a 	ori	t0,t0,0xb58a
bfc01710:	3c09141b 	lui	t1,0x141b
bfc01714:	35298598 	ori	t1,t1,0x8598
bfc01718:	01098027 	nor	s0,t0,t1
bfc0171c:	3c12a0e4 	lui	s2,0xa0e4
bfc01720:	36524a65 	ori	s2,s2,0x4a65
bfc01724:	16120463 	bne	s0,s2,bfc028b4 <inst_error>
bfc01728:	00000000 	nop
bfc0172c:	3c08afd2 	lui	t0,0xafd2
bfc01730:	3508fe07 	ori	t0,t0,0xfe07
bfc01734:	3c09a1fc 	lui	t1,0xa1fc
bfc01738:	3529a2d4 	ori	t1,t1,0xa2d4
bfc0173c:	01098027 	nor	s0,t0,t1
bfc01740:	3c125001 	lui	s2,0x5001
bfc01744:	36520128 	ori	s2,s2,0x128
bfc01748:	1612045a 	bne	s0,s2,bfc028b4 <inst_error>
bfc0174c:	00000000 	nop
bfc01750:	3c0858e8 	lui	t0,0x58e8
bfc01754:	3508c9a8 	ori	t0,t0,0xc9a8
bfc01758:	3c09a1d0 	lui	t1,0xa1d0
bfc0175c:	35290770 	ori	t1,t1,0x770
bfc01760:	01098027 	nor	s0,t0,t1
bfc01764:	3c120607 	lui	s2,0x607
bfc01768:	36523007 	ori	s2,s2,0x3007
bfc0176c:	16120451 	bne	s0,s2,bfc028b4 <inst_error>
bfc01770:	00000000 	nop
bfc01774:	3c088ba7 	lui	t0,0x8ba7
bfc01778:	3508b89c 	ori	t0,t0,0xb89c
bfc0177c:	3c09e2c8 	lui	t1,0xe2c8
bfc01780:	35293fc0 	ori	t1,t1,0x3fc0
bfc01784:	01098027 	nor	s0,t0,t1
bfc01788:	3c121410 	lui	s2,0x1410
bfc0178c:	36524023 	ori	s2,s2,0x4023
bfc01790:	16120448 	bne	s0,s2,bfc028b4 <inst_error>
bfc01794:	00000000 	nop
bfc01798:	3c080c59 	lui	t0,0xc59
bfc0179c:	35086a72 	ori	t0,t0,0x6a72
bfc017a0:	3c09cb34 	lui	t1,0xcb34
bfc017a4:	3529187e 	ori	t1,t1,0x187e
bfc017a8:	01098027 	nor	s0,t0,t1
bfc017ac:	3c123082 	lui	s2,0x3082
bfc017b0:	36528581 	ori	s2,s2,0x8581
bfc017b4:	1612043f 	bne	s0,s2,bfc028b4 <inst_error>
bfc017b8:	00000000 	nop
bfc017bc:	3c08f3bd 	lui	t0,0xf3bd
bfc017c0:	3508beeb 	ori	t0,t0,0xbeeb
bfc017c4:	3c0944ce 	lui	t1,0x44ce
bfc017c8:	35294276 	ori	t1,t1,0x4276
bfc017cc:	01098027 	nor	s0,t0,t1
bfc017d0:	3c120800 	lui	s2,0x800
bfc017d4:	36520100 	ori	s2,s2,0x100
bfc017d8:	16120436 	bne	s0,s2,bfc028b4 <inst_error>
bfc017dc:	00000000 	nop
bfc017e0:	3c08fa5d 	lui	t0,0xfa5d
bfc017e4:	3508615a 	ori	t0,t0,0x615a
bfc017e8:	3c094ff1 	lui	t1,0x4ff1
bfc017ec:	3529c40a 	ori	t1,t1,0xc40a
bfc017f0:	01098027 	nor	s0,t0,t1
bfc017f4:	3c120002 	lui	s2,0x2
bfc017f8:	36521aa5 	ori	s2,s2,0x1aa5
bfc017fc:	1612042d 	bne	s0,s2,bfc028b4 <inst_error>
bfc01800:	00000000 	nop
bfc01804:	3c083ed2 	lui	t0,0x3ed2
bfc01808:	3508ee00 	ori	t0,t0,0xee00
bfc0180c:	3c0953da 	lui	t1,0x53da
bfc01810:	3529806f 	ori	t1,t1,0x806f
bfc01814:	01098027 	nor	s0,t0,t1
bfc01818:	3c128025 	lui	s2,0x8025
bfc0181c:	36521190 	ori	s2,s2,0x1190
bfc01820:	16120424 	bne	s0,s2,bfc028b4 <inst_error>
bfc01824:	00000000 	nop
bfc01828:	3c08a527 	lui	t0,0xa527
bfc0182c:	3508070a 	ori	t0,t0,0x70a
bfc01830:	3c090dfd 	lui	t1,0xdfd
bfc01834:	35293e2b 	ori	t1,t1,0x3e2b
bfc01838:	01098027 	nor	s0,t0,t1
bfc0183c:	3c125200 	lui	s2,0x5200
bfc01840:	3652c0d4 	ori	s2,s2,0xc0d4
bfc01844:	1612041b 	bne	s0,s2,bfc028b4 <inst_error>
bfc01848:	00000000 	nop
bfc0184c:	3c08077d 	lui	t0,0x77d
bfc01850:	3508cba0 	ori	t0,t0,0xcba0
bfc01854:	3c09398b 	lui	t1,0x398b
bfc01858:	3529a23c 	ori	t1,t1,0xa23c
bfc0185c:	01098027 	nor	s0,t0,t1
bfc01860:	3c12c000 	lui	s2,0xc000
bfc01864:	36521443 	ori	s2,s2,0x1443
bfc01868:	16120412 	bne	s0,s2,bfc028b4 <inst_error>
bfc0186c:	00000000 	nop
bfc01870:	3c08bfa2 	lui	t0,0xbfa2
bfc01874:	3508e928 	ori	t0,t0,0xe928
bfc01878:	3c095baf 	lui	t1,0x5baf
bfc0187c:	3529c5e0 	ori	t1,t1,0xc5e0
bfc01880:	01098027 	nor	s0,t0,t1
bfc01884:	3c120050 	lui	s2,0x50
bfc01888:	36521217 	ori	s2,s2,0x1217
bfc0188c:	16120409 	bne	s0,s2,bfc028b4 <inst_error>
bfc01890:	00000000 	nop
bfc01894:	3c087d09 	lui	t0,0x7d09
bfc01898:	35086978 	ori	t0,t0,0x6978
bfc0189c:	3c095f37 	lui	t1,0x5f37
bfc018a0:	35292180 	ori	t1,t1,0x2180
bfc018a4:	01098027 	nor	s0,t0,t1
bfc018a8:	3c1280c0 	lui	s2,0x80c0
bfc018ac:	36529607 	ori	s2,s2,0x9607
bfc018b0:	16120400 	bne	s0,s2,bfc028b4 <inst_error>
bfc018b4:	00000000 	nop
bfc018b8:	3c08e7d1 	lui	t0,0xe7d1
bfc018bc:	35080ab2 	ori	t0,t0,0xab2
bfc018c0:	3c09bc8a 	lui	t1,0xbc8a
bfc018c4:	3529dba0 	ori	t1,t1,0xdba0
bfc018c8:	01098027 	nor	s0,t0,t1
bfc018cc:	3c120024 	lui	s2,0x24
bfc018d0:	3652244d 	ori	s2,s2,0x244d
bfc018d4:	161203f7 	bne	s0,s2,bfc028b4 <inst_error>
bfc018d8:	00000000 	nop
bfc018dc:	3c08b9aa 	lui	t0,0xb9aa
bfc018e0:	35087173 	ori	t0,t0,0x7173
bfc018e4:	3c095a3e 	lui	t1,0x5a3e
bfc018e8:	3529eb15 	ori	t1,t1,0xeb15
bfc018ec:	01098027 	nor	s0,t0,t1
bfc018f0:	3c120441 	lui	s2,0x441
bfc018f4:	36520488 	ori	s2,s2,0x488
bfc018f8:	161203ee 	bne	s0,s2,bfc028b4 <inst_error>
bfc018fc:	00000000 	nop
bfc01900:	3c08dcc7 	lui	t0,0xdcc7
bfc01904:	3508baa0 	ori	t0,t0,0xbaa0
bfc01908:	3c095b47 	lui	t1,0x5b47
bfc0190c:	35298418 	ori	t1,t1,0x8418
bfc01910:	01098027 	nor	s0,t0,t1
bfc01914:	3c122038 	lui	s2,0x2038
bfc01918:	36524147 	ori	s2,s2,0x4147
bfc0191c:	161203e5 	bne	s0,s2,bfc028b4 <inst_error>
bfc01920:	00000000 	nop
bfc01924:	3c08f818 	lui	t0,0xf818
bfc01928:	3508bf38 	ori	t0,t0,0xbf38
bfc0192c:	3c09d2ee 	lui	t1,0xd2ee
bfc01930:	35290a2c 	ori	t1,t1,0xa2c
bfc01934:	01098027 	nor	s0,t0,t1
bfc01938:	3c120501 	lui	s2,0x501
bfc0193c:	365240c3 	ori	s2,s2,0x40c3
bfc01940:	161203dc 	bne	s0,s2,bfc028b4 <inst_error>
bfc01944:	00000000 	nop
bfc01948:	3c0830ea 	lui	t0,0x30ea
bfc0194c:	35084f48 	ori	t0,t0,0x4f48
bfc01950:	3c097695 	lui	t1,0x7695
bfc01954:	3529ee4e 	ori	t1,t1,0xee4e
bfc01958:	01098027 	nor	s0,t0,t1
bfc0195c:	3c128900 	lui	s2,0x8900
bfc01960:	365210b1 	ori	s2,s2,0x10b1
bfc01964:	161203d3 	bne	s0,s2,bfc028b4 <inst_error>
bfc01968:	00000000 	nop
bfc0196c:	3c088c45 	lui	t0,0x8c45
bfc01970:	35086640 	ori	t0,t0,0x6640
bfc01974:	3c099ac7 	lui	t1,0x9ac7
bfc01978:	3529c7e4 	ori	t1,t1,0xc7e4
bfc0197c:	01098027 	nor	s0,t0,t1
bfc01980:	3c126138 	lui	s2,0x6138
bfc01984:	3652181b 	ori	s2,s2,0x181b
bfc01988:	161203ca 	bne	s0,s2,bfc028b4 <inst_error>
bfc0198c:	00000000 	nop
bfc01990:	3c08fc2d 	lui	t0,0xfc2d
bfc01994:	3508c9be 	ori	t0,t0,0xc9be
bfc01998:	3c097f88 	lui	t1,0x7f88
bfc0199c:	3529bd13 	ori	t1,t1,0xbd13
bfc019a0:	01098027 	nor	s0,t0,t1
bfc019a4:	3c120052 	lui	s2,0x52
bfc019a8:	36520240 	ori	s2,s2,0x240
bfc019ac:	161203c1 	bne	s0,s2,bfc028b4 <inst_error>
bfc019b0:	00000000 	nop
bfc019b4:	3c0869b3 	lui	t0,0x69b3
bfc019b8:	35089b38 	ori	t0,t0,0x9b38
bfc019bc:	3c092a04 	lui	t1,0x2a04
bfc019c0:	35293f20 	ori	t1,t1,0x3f20
bfc019c4:	01098027 	nor	s0,t0,t1
bfc019c8:	3c129448 	lui	s2,0x9448
bfc019cc:	365240c7 	ori	s2,s2,0x40c7
bfc019d0:	161203b8 	bne	s0,s2,bfc028b4 <inst_error>
bfc019d4:	00000000 	nop
bfc019d8:	3c0881b8 	lui	t0,0x81b8
bfc019dc:	3508e36c 	ori	t0,t0,0xe36c
bfc019e0:	3c09ef50 	lui	t1,0xef50
bfc019e4:	352923a0 	ori	t1,t1,0x23a0
bfc019e8:	01098027 	nor	s0,t0,t1
bfc019ec:	3c121007 	lui	s2,0x1007
bfc019f0:	36521c13 	ori	s2,s2,0x1c13
bfc019f4:	161203af 	bne	s0,s2,bfc028b4 <inst_error>
bfc019f8:	00000000 	nop
bfc019fc:	3c08115a 	lui	t0,0x115a
bfc01a00:	3508331e 	ori	t0,t0,0x331e
bfc01a04:	3c099b47 	lui	t1,0x9b47
bfc01a08:	3529077e 	ori	t1,t1,0x77e
bfc01a0c:	01098027 	nor	s0,t0,t1
bfc01a10:	3c1264a0 	lui	s2,0x64a0
bfc01a14:	3652c881 	ori	s2,s2,0xc881
bfc01a18:	161203a6 	bne	s0,s2,bfc028b4 <inst_error>
bfc01a1c:	00000000 	nop
bfc01a20:	3c085936 	lui	t0,0x5936
bfc01a24:	35083cbc 	ori	t0,t0,0x3cbc
bfc01a28:	3c09dc16 	lui	t1,0xdc16
bfc01a2c:	35297b98 	ori	t1,t1,0x7b98
bfc01a30:	01098027 	nor	s0,t0,t1
bfc01a34:	3c1222c9 	lui	s2,0x22c9
bfc01a38:	36528043 	ori	s2,s2,0x8043
bfc01a3c:	1612039d 	bne	s0,s2,bfc028b4 <inst_error>
bfc01a40:	00000000 	nop
bfc01a44:	3c0870a7 	lui	t0,0x70a7
bfc01a48:	35089087 	ori	t0,t0,0x9087
bfc01a4c:	3c095ffa 	lui	t1,0x5ffa
bfc01a50:	35292b27 	ori	t1,t1,0x2b27
bfc01a54:	01098027 	nor	s0,t0,t1
bfc01a58:	3c128000 	lui	s2,0x8000
bfc01a5c:	36524458 	ori	s2,s2,0x4458
bfc01a60:	16120394 	bne	s0,s2,bfc028b4 <inst_error>
bfc01a64:	00000000 	nop
bfc01a68:	3c0804bb 	lui	t0,0x4bb
bfc01a6c:	3508f65d 	ori	t0,t0,0xf65d
bfc01a70:	3c09a3a2 	lui	t1,0xa3a2
bfc01a74:	35299d62 	ori	t1,t1,0x9d62
bfc01a78:	01098027 	nor	s0,t0,t1
bfc01a7c:	3c125844 	lui	s2,0x5844
bfc01a80:	36520080 	ori	s2,s2,0x80
bfc01a84:	1612038b 	bne	s0,s2,bfc028b4 <inst_error>
bfc01a88:	00000000 	nop
bfc01a8c:	3c08c30c 	lui	t0,0xc30c
bfc01a90:	3508ff48 	ori	t0,t0,0xff48
bfc01a94:	3c09f843 	lui	t1,0xf843
bfc01a98:	35290cc4 	ori	t1,t1,0xcc4
bfc01a9c:	01098027 	nor	s0,t0,t1
bfc01aa0:	3c1204b0 	lui	s2,0x4b0
bfc01aa4:	36520033 	ori	s2,s2,0x33
bfc01aa8:	16120382 	bne	s0,s2,bfc028b4 <inst_error>
bfc01aac:	00000000 	nop
bfc01ab0:	3c0827cd 	lui	t0,0x27cd
bfc01ab4:	35080240 	ori	t0,t0,0x240
bfc01ab8:	3c090557 	lui	t1,0x557
bfc01abc:	35290d50 	ori	t1,t1,0xd50
bfc01ac0:	01098027 	nor	s0,t0,t1
bfc01ac4:	3c12d820 	lui	s2,0xd820
bfc01ac8:	3652f0af 	ori	s2,s2,0xf0af
bfc01acc:	16120379 	bne	s0,s2,bfc028b4 <inst_error>
bfc01ad0:	00000000 	nop
bfc01ad4:	3c08ec4f 	lui	t0,0xec4f
bfc01ad8:	3508b6ac 	ori	t0,t0,0xb6ac
bfc01adc:	3c09a51f 	lui	t1,0xa51f
bfc01ae0:	3529c104 	ori	t1,t1,0xc104
bfc01ae4:	01098027 	nor	s0,t0,t1
bfc01ae8:	3c1212a0 	lui	s2,0x12a0
bfc01aec:	36520853 	ori	s2,s2,0x853
bfc01af0:	16120370 	bne	s0,s2,bfc028b4 <inst_error>
bfc01af4:	00000000 	nop
bfc01af8:	3c08a9ae 	lui	t0,0xa9ae
bfc01afc:	35089c10 	ori	t0,t0,0x9c10
bfc01b00:	3c0917da 	lui	t1,0x17da
bfc01b04:	35298cf6 	ori	t1,t1,0x8cf6
bfc01b08:	01098027 	nor	s0,t0,t1
bfc01b0c:	3c124001 	lui	s2,0x4001
bfc01b10:	36526309 	ori	s2,s2,0x6309
bfc01b14:	16120367 	bne	s0,s2,bfc028b4 <inst_error>
bfc01b18:	00000000 	nop
bfc01b1c:	3c0895e4 	lui	t0,0x95e4
bfc01b20:	3508fe46 	ori	t0,t0,0xfe46
bfc01b24:	3c0991e5 	lui	t1,0x91e5
bfc01b28:	3529d4c0 	ori	t1,t1,0xd4c0
bfc01b2c:	01098027 	nor	s0,t0,t1
bfc01b30:	3c126a1a 	lui	s2,0x6a1a
bfc01b34:	36520139 	ori	s2,s2,0x139
bfc01b38:	1612035e 	bne	s0,s2,bfc028b4 <inst_error>
bfc01b3c:	00000000 	nop
bfc01b40:	3c082a6a 	lui	t0,0x2a6a
bfc01b44:	35089bd6 	ori	t0,t0,0x9bd6
bfc01b48:	3c099344 	lui	t1,0x9344
bfc01b4c:	3529b900 	ori	t1,t1,0xb900
bfc01b50:	01098027 	nor	s0,t0,t1
bfc01b54:	3c124491 	lui	s2,0x4491
bfc01b58:	36524429 	ori	s2,s2,0x4429
bfc01b5c:	16120355 	bne	s0,s2,bfc028b4 <inst_error>
bfc01b60:	00000000 	nop
bfc01b64:	3c08af20 	lui	t0,0xaf20
bfc01b68:	3508c132 	ori	t0,t0,0xc132
bfc01b6c:	3c09f15d 	lui	t1,0xf15d
bfc01b70:	3529ec9c 	ori	t1,t1,0xec9c
bfc01b74:	01098027 	nor	s0,t0,t1
bfc01b78:	3c120082 	lui	s2,0x82
bfc01b7c:	36521241 	ori	s2,s2,0x1241
bfc01b80:	1612034c 	bne	s0,s2,bfc028b4 <inst_error>
bfc01b84:	00000000 	nop
bfc01b88:	3c0839bf 	lui	t0,0x39bf
bfc01b8c:	3508c7a0 	ori	t0,t0,0xc7a0
bfc01b90:	3c093cc7 	lui	t1,0x3cc7
bfc01b94:	35290c56 	ori	t1,t1,0xc56
bfc01b98:	01098027 	nor	s0,t0,t1
bfc01b9c:	3c12c200 	lui	s2,0xc200
bfc01ba0:	36523009 	ori	s2,s2,0x3009
bfc01ba4:	16120343 	bne	s0,s2,bfc028b4 <inst_error>
bfc01ba8:	00000000 	nop
bfc01bac:	3c08667d 	lui	t0,0x667d
bfc01bb0:	3508ae50 	ori	t0,t0,0xae50
bfc01bb4:	3c0978ae 	lui	t1,0x78ae
bfc01bb8:	3529e774 	ori	t1,t1,0xe774
bfc01bbc:	01098027 	nor	s0,t0,t1
bfc01bc0:	3c128100 	lui	s2,0x8100
bfc01bc4:	3652108b 	ori	s2,s2,0x108b
bfc01bc8:	1612033a 	bne	s0,s2,bfc028b4 <inst_error>
bfc01bcc:	00000000 	nop
bfc01bd0:	3c08b32a 	lui	t0,0xb32a
bfc01bd4:	350823f0 	ori	t0,t0,0x23f0
bfc01bd8:	3c09cad3 	lui	t1,0xcad3
bfc01bdc:	3529e307 	ori	t1,t1,0xe307
bfc01be0:	01098027 	nor	s0,t0,t1
bfc01be4:	3c120404 	lui	s2,0x404
bfc01be8:	36521c08 	ori	s2,s2,0x1c08
bfc01bec:	16120331 	bne	s0,s2,bfc028b4 <inst_error>
bfc01bf0:	00000000 	nop
bfc01bf4:	3c08f96b 	lui	t0,0xf96b
bfc01bf8:	35089c74 	ori	t0,t0,0x9c74
bfc01bfc:	3c0958d6 	lui	t1,0x58d6
bfc01c00:	35294eb8 	ori	t1,t1,0x4eb8
bfc01c04:	01098027 	nor	s0,t0,t1
bfc01c08:	3c120600 	lui	s2,0x600
bfc01c0c:	36522103 	ori	s2,s2,0x2103
bfc01c10:	16120328 	bne	s0,s2,bfc028b4 <inst_error>
bfc01c14:	00000000 	nop
bfc01c18:	3c080c6d 	lui	t0,0xc6d
bfc01c1c:	35080d66 	ori	t0,t0,0xd66
bfc01c20:	24090000 	li	t1,0
bfc01c24:	01098027 	nor	s0,t0,t1
bfc01c28:	3c12f392 	lui	s2,0xf392
bfc01c2c:	3652f299 	ori	s2,s2,0xf299
bfc01c30:	16120320 	bne	s0,s2,bfc028b4 <inst_error>
bfc01c34:	00000000 	nop
bfc01c38:	3c08cd2c 	lui	t0,0xcd2c
bfc01c3c:	350870c8 	ori	t0,t0,0x70c8
bfc01c40:	24090000 	li	t1,0
bfc01c44:	01098027 	nor	s0,t0,t1
bfc01c48:	3c1232d3 	lui	s2,0x32d3
bfc01c4c:	36528f37 	ori	s2,s2,0x8f37
bfc01c50:	16120318 	bne	s0,s2,bfc028b4 <inst_error>
bfc01c54:	00000000 	nop
bfc01c58:	3c083212 	lui	t0,0x3212
bfc01c5c:	35084018 	ori	t0,t0,0x4018
bfc01c60:	24090000 	li	t1,0
bfc01c64:	01098027 	nor	s0,t0,t1
bfc01c68:	3c12cded 	lui	s2,0xcded
bfc01c6c:	3652bfe7 	ori	s2,s2,0xbfe7
bfc01c70:	16120310 	bne	s0,s2,bfc028b4 <inst_error>
bfc01c74:	00000000 	nop
bfc01c78:	3c086a68 	lui	t0,0x6a68
bfc01c7c:	350881b4 	ori	t0,t0,0x81b4
bfc01c80:	24090000 	li	t1,0
bfc01c84:	01098027 	nor	s0,t0,t1
bfc01c88:	3c129597 	lui	s2,0x9597
bfc01c8c:	36527e4b 	ori	s2,s2,0x7e4b
bfc01c90:	16120308 	bne	s0,s2,bfc028b4 <inst_error>
bfc01c94:	00000000 	nop
bfc01c98:	3c08aa05 	lui	t0,0xaa05
bfc01c9c:	3508e6b0 	ori	t0,t0,0xe6b0
bfc01ca0:	24090000 	li	t1,0
bfc01ca4:	01098027 	nor	s0,t0,t1
bfc01ca8:	3c1255fa 	lui	s2,0x55fa
bfc01cac:	3652194f 	ori	s2,s2,0x194f
bfc01cb0:	16120300 	bne	s0,s2,bfc028b4 <inst_error>
bfc01cb4:	00000000 	nop
bfc01cb8:	3c08b9df 	lui	t0,0xb9df
bfc01cbc:	35082820 	ori	t0,t0,0x2820
bfc01cc0:	24090000 	li	t1,0
bfc01cc4:	01098027 	nor	s0,t0,t1
bfc01cc8:	3c124620 	lui	s2,0x4620
bfc01ccc:	3652d7df 	ori	s2,s2,0xd7df
bfc01cd0:	161202f8 	bne	s0,s2,bfc028b4 <inst_error>
bfc01cd4:	00000000 	nop
bfc01cd8:	3c08cbf5 	lui	t0,0xcbf5
bfc01cdc:	3508cd30 	ori	t0,t0,0xcd30
bfc01ce0:	24090000 	li	t1,0
bfc01ce4:	01098027 	nor	s0,t0,t1
bfc01ce8:	3c12340a 	lui	s2,0x340a
bfc01cec:	365232cf 	ori	s2,s2,0x32cf
bfc01cf0:	161202f0 	bne	s0,s2,bfc028b4 <inst_error>
bfc01cf4:	00000000 	nop
bfc01cf8:	3c08063e 	lui	t0,0x63e
bfc01cfc:	35081dce 	ori	t0,t0,0x1dce
bfc01d00:	24090000 	li	t1,0
bfc01d04:	01098027 	nor	s0,t0,t1
bfc01d08:	3c12f9c1 	lui	s2,0xf9c1
bfc01d0c:	3652e231 	ori	s2,s2,0xe231
bfc01d10:	161202e8 	bne	s0,s2,bfc028b4 <inst_error>
bfc01d14:	00000000 	nop
bfc01d18:	3c08c68b 	lui	t0,0xc68b
bfc01d1c:	3508849c 	ori	t0,t0,0x849c
bfc01d20:	24090000 	li	t1,0
bfc01d24:	01098027 	nor	s0,t0,t1
bfc01d28:	3c123974 	lui	s2,0x3974
bfc01d2c:	36527b63 	ori	s2,s2,0x7b63
bfc01d30:	161202e0 	bne	s0,s2,bfc028b4 <inst_error>
bfc01d34:	00000000 	nop
bfc01d38:	3c08b77c 	lui	t0,0xb77c
bfc01d3c:	35088382 	ori	t0,t0,0x8382
bfc01d40:	24090000 	li	t1,0
bfc01d44:	01098027 	nor	s0,t0,t1
bfc01d48:	3c124883 	lui	s2,0x4883
bfc01d4c:	36527c7d 	ori	s2,s2,0x7c7d
bfc01d50:	161202d8 	bne	s0,s2,bfc028b4 <inst_error>
bfc01d54:	00000000 	nop
bfc01d58:	3c087937 	lui	t0,0x7937
bfc01d5c:	35083a9c 	ori	t0,t0,0x3a9c
bfc01d60:	24090000 	li	t1,0
bfc01d64:	01098027 	nor	s0,t0,t1
bfc01d68:	3c1286c8 	lui	s2,0x86c8
bfc01d6c:	3652c563 	ori	s2,s2,0xc563
bfc01d70:	161202d0 	bne	s0,s2,bfc028b4 <inst_error>
bfc01d74:	00000000 	nop
bfc01d78:	3c0854a8 	lui	t0,0x54a8
bfc01d7c:	3508cb30 	ori	t0,t0,0xcb30
bfc01d80:	24090000 	li	t1,0
bfc01d84:	01098027 	nor	s0,t0,t1
bfc01d88:	3c12ab57 	lui	s2,0xab57
bfc01d8c:	365234cf 	ori	s2,s2,0x34cf
bfc01d90:	161202c8 	bne	s0,s2,bfc028b4 <inst_error>
bfc01d94:	00000000 	nop
bfc01d98:	3c08126c 	lui	t0,0x126c
bfc01d9c:	35088620 	ori	t0,t0,0x8620
bfc01da0:	24090000 	li	t1,0
bfc01da4:	01098027 	nor	s0,t0,t1
bfc01da8:	3c12ed93 	lui	s2,0xed93
bfc01dac:	365279df 	ori	s2,s2,0x79df
bfc01db0:	161202c0 	bne	s0,s2,bfc028b4 <inst_error>
bfc01db4:	00000000 	nop
bfc01db8:	3c08a279 	lui	t0,0xa279
bfc01dbc:	3508a544 	ori	t0,t0,0xa544
bfc01dc0:	24090000 	li	t1,0
bfc01dc4:	01098027 	nor	s0,t0,t1
bfc01dc8:	3c125d86 	lui	s2,0x5d86
bfc01dcc:	36525abb 	ori	s2,s2,0x5abb
bfc01dd0:	161202b8 	bne	s0,s2,bfc028b4 <inst_error>
bfc01dd4:	00000000 	nop
bfc01dd8:	3c088807 	lui	t0,0x8807
bfc01ddc:	3508eaad 	ori	t0,t0,0xeaad
bfc01de0:	24090000 	li	t1,0
bfc01de4:	01098027 	nor	s0,t0,t1
bfc01de8:	3c1277f8 	lui	s2,0x77f8
bfc01dec:	36521552 	ori	s2,s2,0x1552
bfc01df0:	161202b0 	bne	s0,s2,bfc028b4 <inst_error>
bfc01df4:	00000000 	nop
bfc01df8:	3c080ace 	lui	t0,0xace
bfc01dfc:	35087fe8 	ori	t0,t0,0x7fe8
bfc01e00:	24090000 	li	t1,0
bfc01e04:	01098027 	nor	s0,t0,t1
bfc01e08:	3c12f531 	lui	s2,0xf531
bfc01e0c:	36528017 	ori	s2,s2,0x8017
bfc01e10:	161202a8 	bne	s0,s2,bfc028b4 <inst_error>
bfc01e14:	00000000 	nop
bfc01e18:	3c080535 	lui	t0,0x535
bfc01e1c:	3508bdc0 	ori	t0,t0,0xbdc0
bfc01e20:	24090000 	li	t1,0
bfc01e24:	01098027 	nor	s0,t0,t1
bfc01e28:	3c12faca 	lui	s2,0xfaca
bfc01e2c:	3652423f 	ori	s2,s2,0x423f
bfc01e30:	161202a0 	bne	s0,s2,bfc028b4 <inst_error>
bfc01e34:	00000000 	nop
bfc01e38:	3c08bcd1 	lui	t0,0xbcd1
bfc01e3c:	350880d0 	ori	t0,t0,0x80d0
bfc01e40:	24090000 	li	t1,0
bfc01e44:	01098027 	nor	s0,t0,t1
bfc01e48:	3c12432e 	lui	s2,0x432e
bfc01e4c:	36527f2f 	ori	s2,s2,0x7f2f
bfc01e50:	16120298 	bne	s0,s2,bfc028b4 <inst_error>
bfc01e54:	00000000 	nop
bfc01e58:	3c08f2a9 	lui	t0,0xf2a9
bfc01e5c:	35085552 	ori	t0,t0,0x5552
bfc01e60:	24090000 	li	t1,0
bfc01e64:	01098027 	nor	s0,t0,t1
bfc01e68:	3c120d56 	lui	s2,0xd56
bfc01e6c:	3652aaad 	ori	s2,s2,0xaaad
bfc01e70:	16120290 	bne	s0,s2,bfc028b4 <inst_error>
bfc01e74:	00000000 	nop
bfc01e78:	3c08a919 	lui	t0,0xa919
bfc01e7c:	3508e806 	ori	t0,t0,0xe806
bfc01e80:	24090000 	li	t1,0
bfc01e84:	01098027 	nor	s0,t0,t1
bfc01e88:	3c1256e6 	lui	s2,0x56e6
bfc01e8c:	365217f9 	ori	s2,s2,0x17f9
bfc01e90:	16120288 	bne	s0,s2,bfc028b4 <inst_error>
bfc01e94:	00000000 	nop
bfc01e98:	3c0838a8 	lui	t0,0x38a8
bfc01e9c:	3508f322 	ori	t0,t0,0xf322
bfc01ea0:	24090000 	li	t1,0
bfc01ea4:	01098027 	nor	s0,t0,t1
bfc01ea8:	3c12c757 	lui	s2,0xc757
bfc01eac:	36520cdd 	ori	s2,s2,0xcdd
bfc01eb0:	16120280 	bne	s0,s2,bfc028b4 <inst_error>
bfc01eb4:	00000000 	nop
bfc01eb8:	3c088a63 	lui	t0,0x8a63
bfc01ebc:	3508e2ce 	ori	t0,t0,0xe2ce
bfc01ec0:	24090000 	li	t1,0
bfc01ec4:	01098027 	nor	s0,t0,t1
bfc01ec8:	3c12759c 	lui	s2,0x759c
bfc01ecc:	36521d31 	ori	s2,s2,0x1d31
bfc01ed0:	16120278 	bne	s0,s2,bfc028b4 <inst_error>
bfc01ed4:	00000000 	nop
bfc01ed8:	3c087183 	lui	t0,0x7183
bfc01edc:	35083ec0 	ori	t0,t0,0x3ec0
bfc01ee0:	24090000 	li	t1,0
bfc01ee4:	01098027 	nor	s0,t0,t1
bfc01ee8:	3c128e7c 	lui	s2,0x8e7c
bfc01eec:	3652c13f 	ori	s2,s2,0xc13f
bfc01ef0:	16120270 	bne	s0,s2,bfc028b4 <inst_error>
bfc01ef4:	00000000 	nop
bfc01ef8:	3c08a1a5 	lui	t0,0xa1a5
bfc01efc:	3508ba90 	ori	t0,t0,0xba90
bfc01f00:	24090000 	li	t1,0
bfc01f04:	01098027 	nor	s0,t0,t1
bfc01f08:	3c125e5a 	lui	s2,0x5e5a
bfc01f0c:	3652456f 	ori	s2,s2,0x456f
bfc01f10:	16120268 	bne	s0,s2,bfc028b4 <inst_error>
bfc01f14:	00000000 	nop
bfc01f18:	3c08ee2c 	lui	t0,0xee2c
bfc01f1c:	350878a4 	ori	t0,t0,0x78a4
bfc01f20:	24090000 	li	t1,0
bfc01f24:	01098027 	nor	s0,t0,t1
bfc01f28:	3c1211d3 	lui	s2,0x11d3
bfc01f2c:	3652875b 	ori	s2,s2,0x875b
bfc01f30:	16120260 	bne	s0,s2,bfc028b4 <inst_error>
bfc01f34:	00000000 	nop
bfc01f38:	3c086d57 	lui	t0,0x6d57
bfc01f3c:	3508c060 	ori	t0,t0,0xc060
bfc01f40:	24090000 	li	t1,0
bfc01f44:	01098027 	nor	s0,t0,t1
bfc01f48:	3c1292a8 	lui	s2,0x92a8
bfc01f4c:	36523f9f 	ori	s2,s2,0x3f9f
bfc01f50:	16120258 	bne	s0,s2,bfc028b4 <inst_error>
bfc01f54:	00000000 	nop
bfc01f58:	3c08f4e2 	lui	t0,0xf4e2
bfc01f5c:	35085500 	ori	t0,t0,0x5500
bfc01f60:	24090000 	li	t1,0
bfc01f64:	01098027 	nor	s0,t0,t1
bfc01f68:	3c120b1d 	lui	s2,0xb1d
bfc01f6c:	3652aaff 	ori	s2,s2,0xaaff
bfc01f70:	16120250 	bne	s0,s2,bfc028b4 <inst_error>
bfc01f74:	00000000 	nop
bfc01f78:	3c088a35 	lui	t0,0x8a35
bfc01f7c:	35081980 	ori	t0,t0,0x1980
bfc01f80:	24090000 	li	t1,0
bfc01f84:	01098027 	nor	s0,t0,t1
bfc01f88:	3c1275ca 	lui	s2,0x75ca
bfc01f8c:	3652e67f 	ori	s2,s2,0xe67f
bfc01f90:	16120248 	bne	s0,s2,bfc028b4 <inst_error>
bfc01f94:	00000000 	nop
bfc01f98:	3c08cab3 	lui	t0,0xcab3
bfc01f9c:	350841f8 	ori	t0,t0,0x41f8
bfc01fa0:	24090000 	li	t1,0
bfc01fa4:	01098027 	nor	s0,t0,t1
bfc01fa8:	3c12354c 	lui	s2,0x354c
bfc01fac:	3652be07 	ori	s2,s2,0xbe07
bfc01fb0:	16120240 	bne	s0,s2,bfc028b4 <inst_error>
bfc01fb4:	00000000 	nop
bfc01fb8:	3c08c3c7 	lui	t0,0xc3c7
bfc01fbc:	3508a598 	ori	t0,t0,0xa598
bfc01fc0:	24090000 	li	t1,0
bfc01fc4:	01098027 	nor	s0,t0,t1
bfc01fc8:	3c123c38 	lui	s2,0x3c38
bfc01fcc:	36525a67 	ori	s2,s2,0x5a67
bfc01fd0:	16120238 	bne	s0,s2,bfc028b4 <inst_error>
bfc01fd4:	00000000 	nop
bfc01fd8:	3c08dec4 	lui	t0,0xdec4
bfc01fdc:	35085910 	ori	t0,t0,0x5910
bfc01fe0:	24090000 	li	t1,0
bfc01fe4:	01098027 	nor	s0,t0,t1
bfc01fe8:	3c12213b 	lui	s2,0x213b
bfc01fec:	3652a6ef 	ori	s2,s2,0xa6ef
bfc01ff0:	16120230 	bne	s0,s2,bfc028b4 <inst_error>
bfc01ff4:	00000000 	nop
bfc01ff8:	3c08416c 	lui	t0,0x416c
bfc01ffc:	350851e6 	ori	t0,t0,0x51e6
bfc02000:	24090000 	li	t1,0
bfc02004:	01098027 	nor	s0,t0,t1
bfc02008:	3c12be93 	lui	s2,0xbe93
bfc0200c:	3652ae19 	ori	s2,s2,0xae19
bfc02010:	16120228 	bne	s0,s2,bfc028b4 <inst_error>
bfc02014:	00000000 	nop
bfc02018:	3c0859dc 	lui	t0,0x59dc
bfc0201c:	35084d80 	ori	t0,t0,0x4d80
bfc02020:	24090000 	li	t1,0
bfc02024:	01098027 	nor	s0,t0,t1
bfc02028:	3c12a623 	lui	s2,0xa623
bfc0202c:	3652b27f 	ori	s2,s2,0xb27f
bfc02030:	16120220 	bne	s0,s2,bfc028b4 <inst_error>
bfc02034:	00000000 	nop
bfc02038:	3c0820b8 	lui	t0,0x20b8
bfc0203c:	350838a8 	ori	t0,t0,0x38a8
bfc02040:	24090000 	li	t1,0
bfc02044:	01098027 	nor	s0,t0,t1
bfc02048:	3c12df47 	lui	s2,0xdf47
bfc0204c:	3652c757 	ori	s2,s2,0xc757
bfc02050:	16120218 	bne	s0,s2,bfc028b4 <inst_error>
bfc02054:	00000000 	nop
bfc02058:	3c08c13e 	lui	t0,0xc13e
bfc0205c:	3508dcee 	ori	t0,t0,0xdcee
bfc02060:	24090000 	li	t1,0
bfc02064:	01098027 	nor	s0,t0,t1
bfc02068:	3c123ec1 	lui	s2,0x3ec1
bfc0206c:	36522311 	ori	s2,s2,0x2311
bfc02070:	16120210 	bne	s0,s2,bfc028b4 <inst_error>
bfc02074:	00000000 	nop
bfc02078:	3c08cb6d 	lui	t0,0xcb6d
bfc0207c:	35081a04 	ori	t0,t0,0x1a04
bfc02080:	24090000 	li	t1,0
bfc02084:	01098027 	nor	s0,t0,t1
bfc02088:	3c123492 	lui	s2,0x3492
bfc0208c:	3652e5fb 	ori	s2,s2,0xe5fb
bfc02090:	16120208 	bne	s0,s2,bfc028b4 <inst_error>
bfc02094:	00000000 	nop
bfc02098:	3c080bcf 	lui	t0,0xbcf
bfc0209c:	3508b7b4 	ori	t0,t0,0xb7b4
bfc020a0:	24090000 	li	t1,0
bfc020a4:	01098027 	nor	s0,t0,t1
bfc020a8:	3c12f430 	lui	s2,0xf430
bfc020ac:	3652484b 	ori	s2,s2,0x484b
bfc020b0:	16120200 	bne	s0,s2,bfc028b4 <inst_error>
bfc020b4:	00000000 	nop
bfc020b8:	3c08a57a 	lui	t0,0xa57a
bfc020bc:	350808c0 	ori	t0,t0,0x8c0
bfc020c0:	24090000 	li	t1,0
bfc020c4:	01098027 	nor	s0,t0,t1
bfc020c8:	3c125a85 	lui	s2,0x5a85
bfc020cc:	3652f73f 	ori	s2,s2,0xf73f
bfc020d0:	161201f8 	bne	s0,s2,bfc028b4 <inst_error>
bfc020d4:	00000000 	nop
bfc020d8:	3c087e76 	lui	t0,0x7e76
bfc020dc:	35089b08 	ori	t0,t0,0x9b08
bfc020e0:	24090000 	li	t1,0
bfc020e4:	01098027 	nor	s0,t0,t1
bfc020e8:	3c128189 	lui	s2,0x8189
bfc020ec:	365264f7 	ori	s2,s2,0x64f7
bfc020f0:	161201f0 	bne	s0,s2,bfc028b4 <inst_error>
bfc020f4:	00000000 	nop
bfc020f8:	3c081187 	lui	t0,0x1187
bfc020fc:	35085fc3 	ori	t0,t0,0x5fc3
bfc02100:	24090000 	li	t1,0
bfc02104:	01098027 	nor	s0,t0,t1
bfc02108:	3c12ee78 	lui	s2,0xee78
bfc0210c:	3652a03c 	ori	s2,s2,0xa03c
bfc02110:	161201e8 	bne	s0,s2,bfc028b4 <inst_error>
bfc02114:	00000000 	nop
bfc02118:	3c08b92d 	lui	t0,0xb92d
bfc0211c:	350858d0 	ori	t0,t0,0x58d0
bfc02120:	24090000 	li	t1,0
bfc02124:	01098027 	nor	s0,t0,t1
bfc02128:	3c1246d2 	lui	s2,0x46d2
bfc0212c:	3652a72f 	ori	s2,s2,0xa72f
bfc02130:	161201e0 	bne	s0,s2,bfc028b4 <inst_error>
bfc02134:	00000000 	nop
bfc02138:	3c08f0a0 	lui	t0,0xf0a0
bfc0213c:	35083037 	ori	t0,t0,0x3037
bfc02140:	24090000 	li	t1,0
bfc02144:	01098027 	nor	s0,t0,t1
bfc02148:	3c120f5f 	lui	s2,0xf5f
bfc0214c:	3652cfc8 	ori	s2,s2,0xcfc8
bfc02150:	161201d8 	bne	s0,s2,bfc028b4 <inst_error>
bfc02154:	00000000 	nop
bfc02158:	3c086ec6 	lui	t0,0x6ec6
bfc0215c:	3508d2c0 	ori	t0,t0,0xd2c0
bfc02160:	24090000 	li	t1,0
bfc02164:	01098027 	nor	s0,t0,t1
bfc02168:	3c129139 	lui	s2,0x9139
bfc0216c:	36522d3f 	ori	s2,s2,0x2d3f
bfc02170:	161201d0 	bne	s0,s2,bfc028b4 <inst_error>
bfc02174:	00000000 	nop
bfc02178:	3c082503 	lui	t0,0x2503
bfc0217c:	35084ce0 	ori	t0,t0,0x4ce0
bfc02180:	24090000 	li	t1,0
bfc02184:	01098027 	nor	s0,t0,t1
bfc02188:	3c12dafc 	lui	s2,0xdafc
bfc0218c:	3652b31f 	ori	s2,s2,0xb31f
bfc02190:	161201c8 	bne	s0,s2,bfc028b4 <inst_error>
bfc02194:	00000000 	nop
bfc02198:	3c082e6c 	lui	t0,0x2e6c
bfc0219c:	35089f72 	ori	t0,t0,0x9f72
bfc021a0:	24090000 	li	t1,0
bfc021a4:	01098027 	nor	s0,t0,t1
bfc021a8:	3c12d193 	lui	s2,0xd193
bfc021ac:	3652608d 	ori	s2,s2,0x608d
bfc021b0:	161201c0 	bne	s0,s2,bfc028b4 <inst_error>
bfc021b4:	00000000 	nop
bfc021b8:	3c0887fa 	lui	t0,0x87fa
bfc021bc:	35088ae4 	ori	t0,t0,0x8ae4
bfc021c0:	24090000 	li	t1,0
bfc021c4:	01098027 	nor	s0,t0,t1
bfc021c8:	3c127805 	lui	s2,0x7805
bfc021cc:	3652751b 	ori	s2,s2,0x751b
bfc021d0:	161201b8 	bne	s0,s2,bfc028b4 <inst_error>
bfc021d4:	00000000 	nop
bfc021d8:	3c08df03 	lui	t0,0xdf03
bfc021dc:	35080240 	ori	t0,t0,0x240
bfc021e0:	24090000 	li	t1,0
bfc021e4:	01098027 	nor	s0,t0,t1
bfc021e8:	3c1220fc 	lui	s2,0x20fc
bfc021ec:	3652fdbf 	ori	s2,s2,0xfdbf
bfc021f0:	161201b0 	bne	s0,s2,bfc028b4 <inst_error>
bfc021f4:	00000000 	nop
bfc021f8:	3c08c169 	lui	t0,0xc169
bfc021fc:	350899e8 	ori	t0,t0,0x99e8
bfc02200:	24090000 	li	t1,0
bfc02204:	01098027 	nor	s0,t0,t1
bfc02208:	3c123e96 	lui	s2,0x3e96
bfc0220c:	36526617 	ori	s2,s2,0x6617
bfc02210:	161201a8 	bne	s0,s2,bfc028b4 <inst_error>
bfc02214:	00000000 	nop
bfc02218:	3c08c7fe 	lui	t0,0xc7fe
bfc0221c:	35089850 	ori	t0,t0,0x9850
bfc02220:	24090000 	li	t1,0
bfc02224:	01098027 	nor	s0,t0,t1
bfc02228:	3c123801 	lui	s2,0x3801
bfc0222c:	365267af 	ori	s2,s2,0x67af
bfc02230:	161201a0 	bne	s0,s2,bfc028b4 <inst_error>
bfc02234:	00000000 	nop
bfc02238:	3c08d0fe 	lui	t0,0xd0fe
bfc0223c:	3508e910 	ori	t0,t0,0xe910
bfc02240:	24090000 	li	t1,0
bfc02244:	01098027 	nor	s0,t0,t1
bfc02248:	3c122f01 	lui	s2,0x2f01
bfc0224c:	365216ef 	ori	s2,s2,0x16ef
bfc02250:	16120198 	bne	s0,s2,bfc028b4 <inst_error>
bfc02254:	00000000 	nop
bfc02258:	24080000 	li	t0,0
bfc0225c:	3c09bec4 	lui	t1,0xbec4
bfc02260:	35291820 	ori	t1,t1,0x1820
bfc02264:	01098027 	nor	s0,t0,t1
bfc02268:	3c12413b 	lui	s2,0x413b
bfc0226c:	3652e7df 	ori	s2,s2,0xe7df
bfc02270:	16120190 	bne	s0,s2,bfc028b4 <inst_error>
bfc02274:	00000000 	nop
bfc02278:	24080000 	li	t0,0
bfc0227c:	3c091281 	lui	t1,0x1281
bfc02280:	35299cd8 	ori	t1,t1,0x9cd8
bfc02284:	01098027 	nor	s0,t0,t1
bfc02288:	3c12ed7e 	lui	s2,0xed7e
bfc0228c:	36526327 	ori	s2,s2,0x6327
bfc02290:	16120188 	bne	s0,s2,bfc028b4 <inst_error>
bfc02294:	00000000 	nop
bfc02298:	24080000 	li	t0,0
bfc0229c:	3c099179 	lui	t1,0x9179
bfc022a0:	35291260 	ori	t1,t1,0x1260
bfc022a4:	01098027 	nor	s0,t0,t1
bfc022a8:	3c126e86 	lui	s2,0x6e86
bfc022ac:	3652ed9f 	ori	s2,s2,0xed9f
bfc022b0:	16120180 	bne	s0,s2,bfc028b4 <inst_error>
bfc022b4:	00000000 	nop
bfc022b8:	24080000 	li	t0,0
bfc022bc:	3c09d8f4 	lui	t1,0xd8f4
bfc022c0:	35293c67 	ori	t1,t1,0x3c67
bfc022c4:	01098027 	nor	s0,t0,t1
bfc022c8:	3c12270b 	lui	s2,0x270b
bfc022cc:	3652c398 	ori	s2,s2,0xc398
bfc022d0:	16120178 	bne	s0,s2,bfc028b4 <inst_error>
bfc022d4:	00000000 	nop
bfc022d8:	24080000 	li	t0,0
bfc022dc:	3c09622e 	lui	t1,0x622e
bfc022e0:	35299a80 	ori	t1,t1,0x9a80
bfc022e4:	01098027 	nor	s0,t0,t1
bfc022e8:	3c129dd1 	lui	s2,0x9dd1
bfc022ec:	3652657f 	ori	s2,s2,0x657f
bfc022f0:	16120170 	bne	s0,s2,bfc028b4 <inst_error>
bfc022f4:	00000000 	nop
bfc022f8:	24080000 	li	t0,0
bfc022fc:	3c09d88f 	lui	t1,0xd88f
bfc02300:	3529db70 	ori	t1,t1,0xdb70
bfc02304:	01098027 	nor	s0,t0,t1
bfc02308:	3c122770 	lui	s2,0x2770
bfc0230c:	3652248f 	ori	s2,s2,0x248f
bfc02310:	16120168 	bne	s0,s2,bfc028b4 <inst_error>
bfc02314:	00000000 	nop
bfc02318:	24080000 	li	t0,0
bfc0231c:	3c090d2f 	lui	t1,0xd2f
bfc02320:	35298e00 	ori	t1,t1,0x8e00
bfc02324:	01098027 	nor	s0,t0,t1
bfc02328:	3c12f2d0 	lui	s2,0xf2d0
bfc0232c:	365271ff 	ori	s2,s2,0x71ff
bfc02330:	16120160 	bne	s0,s2,bfc028b4 <inst_error>
bfc02334:	00000000 	nop
bfc02338:	24080000 	li	t0,0
bfc0233c:	3c09d4cb 	lui	t1,0xd4cb
bfc02340:	35297180 	ori	t1,t1,0x7180
bfc02344:	01098027 	nor	s0,t0,t1
bfc02348:	3c122b34 	lui	s2,0x2b34
bfc0234c:	36528e7f 	ori	s2,s2,0x8e7f
bfc02350:	16120158 	bne	s0,s2,bfc028b4 <inst_error>
bfc02354:	00000000 	nop
bfc02358:	24080000 	li	t0,0
bfc0235c:	3c09529a 	lui	t1,0x529a
bfc02360:	352964e8 	ori	t1,t1,0x64e8
bfc02364:	01098027 	nor	s0,t0,t1
bfc02368:	3c12ad65 	lui	s2,0xad65
bfc0236c:	36529b17 	ori	s2,s2,0x9b17
bfc02370:	16120150 	bne	s0,s2,bfc028b4 <inst_error>
bfc02374:	00000000 	nop
bfc02378:	24080000 	li	t0,0
bfc0237c:	3c096ba7 	lui	t1,0x6ba7
bfc02380:	35295e70 	ori	t1,t1,0x5e70
bfc02384:	01098027 	nor	s0,t0,t1
bfc02388:	3c129458 	lui	s2,0x9458
bfc0238c:	3652a18f 	ori	s2,s2,0xa18f
bfc02390:	16120148 	bne	s0,s2,bfc028b4 <inst_error>
bfc02394:	00000000 	nop
bfc02398:	24080000 	li	t0,0
bfc0239c:	3c09c898 	lui	t1,0xc898
bfc023a0:	35297153 	ori	t1,t1,0x7153
bfc023a4:	01098027 	nor	s0,t0,t1
bfc023a8:	3c123767 	lui	s2,0x3767
bfc023ac:	36528eac 	ori	s2,s2,0x8eac
bfc023b0:	16120140 	bne	s0,s2,bfc028b4 <inst_error>
bfc023b4:	00000000 	nop
bfc023b8:	24080000 	li	t0,0
bfc023bc:	3c094c4e 	lui	t1,0x4c4e
bfc023c0:	35299ba0 	ori	t1,t1,0x9ba0
bfc023c4:	01098027 	nor	s0,t0,t1
bfc023c8:	3c12b3b1 	lui	s2,0xb3b1
bfc023cc:	3652645f 	ori	s2,s2,0x645f
bfc023d0:	16120138 	bne	s0,s2,bfc028b4 <inst_error>
bfc023d4:	00000000 	nop
bfc023d8:	24080000 	li	t0,0
bfc023dc:	3c09f520 	lui	t1,0xf520
bfc023e0:	35290028 	ori	t1,t1,0x28
bfc023e4:	01098027 	nor	s0,t0,t1
bfc023e8:	3c120adf 	lui	s2,0xadf
bfc023ec:	3652ffd7 	ori	s2,s2,0xffd7
bfc023f0:	16120130 	bne	s0,s2,bfc028b4 <inst_error>
bfc023f4:	00000000 	nop
bfc023f8:	24080000 	li	t0,0
bfc023fc:	3c09d399 	lui	t1,0xd399
bfc02400:	35297138 	ori	t1,t1,0x7138
bfc02404:	01098027 	nor	s0,t0,t1
bfc02408:	3c122c66 	lui	s2,0x2c66
bfc0240c:	36528ec7 	ori	s2,s2,0x8ec7
bfc02410:	16120128 	bne	s0,s2,bfc028b4 <inst_error>
bfc02414:	00000000 	nop
bfc02418:	24080000 	li	t0,0
bfc0241c:	3c09ae45 	lui	t1,0xae45
bfc02420:	35298640 	ori	t1,t1,0x8640
bfc02424:	01098027 	nor	s0,t0,t1
bfc02428:	3c1251ba 	lui	s2,0x51ba
bfc0242c:	365279bf 	ori	s2,s2,0x79bf
bfc02430:	16120120 	bne	s0,s2,bfc028b4 <inst_error>
bfc02434:	00000000 	nop
bfc02438:	24080000 	li	t0,0
bfc0243c:	3c09a7f1 	lui	t1,0xa7f1
bfc02440:	35293186 	ori	t1,t1,0x3186
bfc02444:	01098027 	nor	s0,t0,t1
bfc02448:	3c12580e 	lui	s2,0x580e
bfc0244c:	3652ce79 	ori	s2,s2,0xce79
bfc02450:	16120118 	bne	s0,s2,bfc028b4 <inst_error>
bfc02454:	00000000 	nop
bfc02458:	24080000 	li	t0,0
bfc0245c:	3c09f6b8 	lui	t1,0xf6b8
bfc02460:	352969a8 	ori	t1,t1,0x69a8
bfc02464:	01098027 	nor	s0,t0,t1
bfc02468:	3c120947 	lui	s2,0x947
bfc0246c:	36529657 	ori	s2,s2,0x9657
bfc02470:	16120110 	bne	s0,s2,bfc028b4 <inst_error>
bfc02474:	00000000 	nop
bfc02478:	24080000 	li	t0,0
bfc0247c:	3c096116 	lui	t1,0x6116
bfc02480:	35294f98 	ori	t1,t1,0x4f98
bfc02484:	01098027 	nor	s0,t0,t1
bfc02488:	3c129ee9 	lui	s2,0x9ee9
bfc0248c:	3652b067 	ori	s2,s2,0xb067
bfc02490:	16120108 	bne	s0,s2,bfc028b4 <inst_error>
bfc02494:	00000000 	nop
bfc02498:	24080000 	li	t0,0
bfc0249c:	3c0903c9 	lui	t1,0x3c9
bfc024a0:	3529a2fc 	ori	t1,t1,0xa2fc
bfc024a4:	01098027 	nor	s0,t0,t1
bfc024a8:	3c12fc36 	lui	s2,0xfc36
bfc024ac:	36525d03 	ori	s2,s2,0x5d03
bfc024b0:	16120100 	bne	s0,s2,bfc028b4 <inst_error>
bfc024b4:	00000000 	nop
bfc024b8:	24080000 	li	t0,0
bfc024bc:	3c097b66 	lui	t1,0x7b66
bfc024c0:	35294d80 	ori	t1,t1,0x4d80
bfc024c4:	01098027 	nor	s0,t0,t1
bfc024c8:	3c128499 	lui	s2,0x8499
bfc024cc:	3652b27f 	ori	s2,s2,0xb27f
bfc024d0:	161200f8 	bne	s0,s2,bfc028b4 <inst_error>
bfc024d4:	00000000 	nop
bfc024d8:	24080000 	li	t0,0
bfc024dc:	3c09e05b 	lui	t1,0xe05b
bfc024e0:	3529f600 	ori	t1,t1,0xf600
bfc024e4:	01098027 	nor	s0,t0,t1
bfc024e8:	3c121fa4 	lui	s2,0x1fa4
bfc024ec:	365209ff 	ori	s2,s2,0x9ff
bfc024f0:	161200f0 	bne	s0,s2,bfc028b4 <inst_error>
bfc024f4:	00000000 	nop
bfc024f8:	24080000 	li	t0,0
bfc024fc:	3c098714 	lui	t1,0x8714
bfc02500:	35299700 	ori	t1,t1,0x9700
bfc02504:	01098027 	nor	s0,t0,t1
bfc02508:	3c1278eb 	lui	s2,0x78eb
bfc0250c:	365268ff 	ori	s2,s2,0x68ff
bfc02510:	161200e8 	bne	s0,s2,bfc028b4 <inst_error>
bfc02514:	00000000 	nop
bfc02518:	24080000 	li	t0,0
bfc0251c:	3c0912f4 	lui	t1,0x12f4
bfc02520:	3529bd56 	ori	t1,t1,0xbd56
bfc02524:	01098027 	nor	s0,t0,t1
bfc02528:	3c12ed0b 	lui	s2,0xed0b
bfc0252c:	365242a9 	ori	s2,s2,0x42a9
bfc02530:	161200e0 	bne	s0,s2,bfc028b4 <inst_error>
bfc02534:	00000000 	nop
bfc02538:	24080000 	li	t0,0
bfc0253c:	3c0903be 	lui	t1,0x3be
bfc02540:	3529f798 	ori	t1,t1,0xf798
bfc02544:	01098027 	nor	s0,t0,t1
bfc02548:	3c12fc41 	lui	s2,0xfc41
bfc0254c:	36520867 	ori	s2,s2,0x867
bfc02550:	161200d8 	bne	s0,s2,bfc028b4 <inst_error>
bfc02554:	00000000 	nop
bfc02558:	24080000 	li	t0,0
bfc0255c:	3c09493c 	lui	t1,0x493c
bfc02560:	3529ab90 	ori	t1,t1,0xab90
bfc02564:	01098027 	nor	s0,t0,t1
bfc02568:	3c12b6c3 	lui	s2,0xb6c3
bfc0256c:	3652546f 	ori	s2,s2,0x546f
bfc02570:	161200d0 	bne	s0,s2,bfc028b4 <inst_error>
bfc02574:	00000000 	nop
bfc02578:	24080000 	li	t0,0
bfc0257c:	3c0941f2 	lui	t1,0x41f2
bfc02580:	35299fa4 	ori	t1,t1,0x9fa4
bfc02584:	01098027 	nor	s0,t0,t1
bfc02588:	3c12be0d 	lui	s2,0xbe0d
bfc0258c:	3652605b 	ori	s2,s2,0x605b
bfc02590:	161200c8 	bne	s0,s2,bfc028b4 <inst_error>
bfc02594:	00000000 	nop
bfc02598:	24080000 	li	t0,0
bfc0259c:	3c098500 	lui	t1,0x8500
bfc025a0:	3529b112 	ori	t1,t1,0xb112
bfc025a4:	01098027 	nor	s0,t0,t1
bfc025a8:	3c127aff 	lui	s2,0x7aff
bfc025ac:	36524eed 	ori	s2,s2,0x4eed
bfc025b0:	161200c0 	bne	s0,s2,bfc028b4 <inst_error>
bfc025b4:	00000000 	nop
bfc025b8:	24080000 	li	t0,0
bfc025bc:	3c0949c9 	lui	t1,0x49c9
bfc025c0:	3529c823 	ori	t1,t1,0xc823
bfc025c4:	01098027 	nor	s0,t0,t1
bfc025c8:	3c12b636 	lui	s2,0xb636
bfc025cc:	365237dc 	ori	s2,s2,0x37dc
bfc025d0:	161200b8 	bne	s0,s2,bfc028b4 <inst_error>
bfc025d4:	00000000 	nop
bfc025d8:	24080000 	li	t0,0
bfc025dc:	3c09806b 	lui	t1,0x806b
bfc025e0:	3529f524 	ori	t1,t1,0xf524
bfc025e4:	01098027 	nor	s0,t0,t1
bfc025e8:	3c127f94 	lui	s2,0x7f94
bfc025ec:	36520adb 	ori	s2,s2,0xadb
bfc025f0:	161200b0 	bne	s0,s2,bfc028b4 <inst_error>
bfc025f4:	00000000 	nop
bfc025f8:	24080000 	li	t0,0
bfc025fc:	3c09925e 	lui	t1,0x925e
bfc02600:	3529744c 	ori	t1,t1,0x744c
bfc02604:	01098027 	nor	s0,t0,t1
bfc02608:	3c126da1 	lui	s2,0x6da1
bfc0260c:	36528bb3 	ori	s2,s2,0x8bb3
bfc02610:	161200a8 	bne	s0,s2,bfc028b4 <inst_error>
bfc02614:	00000000 	nop
bfc02618:	24080000 	li	t0,0
bfc0261c:	3c0980ea 	lui	t1,0x80ea
bfc02620:	3529540c 	ori	t1,t1,0x540c
bfc02624:	01098027 	nor	s0,t0,t1
bfc02628:	3c127f15 	lui	s2,0x7f15
bfc0262c:	3652abf3 	ori	s2,s2,0xabf3
bfc02630:	161200a0 	bne	s0,s2,bfc028b4 <inst_error>
bfc02634:	00000000 	nop
bfc02638:	24080000 	li	t0,0
bfc0263c:	3c0915ff 	lui	t1,0x15ff
bfc02640:	3529ba38 	ori	t1,t1,0xba38
bfc02644:	01098027 	nor	s0,t0,t1
bfc02648:	3c12ea00 	lui	s2,0xea00
bfc0264c:	365245c7 	ori	s2,s2,0x45c7
bfc02650:	16120098 	bne	s0,s2,bfc028b4 <inst_error>
bfc02654:	00000000 	nop
bfc02658:	24080000 	li	t0,0
bfc0265c:	3c094bb0 	lui	t1,0x4bb0
bfc02660:	3529467a 	ori	t1,t1,0x467a
bfc02664:	01098027 	nor	s0,t0,t1
bfc02668:	3c12b44f 	lui	s2,0xb44f
bfc0266c:	3652b985 	ori	s2,s2,0xb985
bfc02670:	16120090 	bne	s0,s2,bfc028b4 <inst_error>
bfc02674:	00000000 	nop
bfc02678:	24080000 	li	t0,0
bfc0267c:	3c099da6 	lui	t1,0x9da6
bfc02680:	3529a668 	ori	t1,t1,0xa668
bfc02684:	01098027 	nor	s0,t0,t1
bfc02688:	3c126259 	lui	s2,0x6259
bfc0268c:	36525997 	ori	s2,s2,0x5997
bfc02690:	16120088 	bne	s0,s2,bfc028b4 <inst_error>
bfc02694:	00000000 	nop
bfc02698:	24080000 	li	t0,0
bfc0269c:	3c09f038 	lui	t1,0xf038
bfc026a0:	35291380 	ori	t1,t1,0x1380
bfc026a4:	01098027 	nor	s0,t0,t1
bfc026a8:	3c120fc7 	lui	s2,0xfc7
bfc026ac:	3652ec7f 	ori	s2,s2,0xec7f
bfc026b0:	16120080 	bne	s0,s2,bfc028b4 <inst_error>
bfc026b4:	00000000 	nop
bfc026b8:	24080000 	li	t0,0
bfc026bc:	3c0962c8 	lui	t1,0x62c8
bfc026c0:	35294b4a 	ori	t1,t1,0x4b4a
bfc026c4:	01098027 	nor	s0,t0,t1
bfc026c8:	3c129d37 	lui	s2,0x9d37
bfc026cc:	3652b4b5 	ori	s2,s2,0xb4b5
bfc026d0:	16120078 	bne	s0,s2,bfc028b4 <inst_error>
bfc026d4:	00000000 	nop
bfc026d8:	24080000 	li	t0,0
bfc026dc:	3c09aac6 	lui	t1,0xaac6
bfc026e0:	35294a94 	ori	t1,t1,0x4a94
bfc026e4:	01098027 	nor	s0,t0,t1
bfc026e8:	3c125539 	lui	s2,0x5539
bfc026ec:	3652b56b 	ori	s2,s2,0xb56b
bfc026f0:	16120070 	bne	s0,s2,bfc028b4 <inst_error>
bfc026f4:	00000000 	nop
bfc026f8:	24080000 	li	t0,0
bfc026fc:	3c092e60 	lui	t1,0x2e60
bfc02700:	352975b8 	ori	t1,t1,0x75b8
bfc02704:	01098027 	nor	s0,t0,t1
bfc02708:	3c12d19f 	lui	s2,0xd19f
bfc0270c:	36528a47 	ori	s2,s2,0x8a47
bfc02710:	16120068 	bne	s0,s2,bfc028b4 <inst_error>
bfc02714:	00000000 	nop
bfc02718:	24080000 	li	t0,0
bfc0271c:	3c096c0b 	lui	t1,0x6c0b
bfc02720:	35297912 	ori	t1,t1,0x7912
bfc02724:	01098027 	nor	s0,t0,t1
bfc02728:	3c1293f4 	lui	s2,0x93f4
bfc0272c:	365286ed 	ori	s2,s2,0x86ed
bfc02730:	16120060 	bne	s0,s2,bfc028b4 <inst_error>
bfc02734:	00000000 	nop
bfc02738:	24080000 	li	t0,0
bfc0273c:	3c0902eb 	lui	t1,0x2eb
bfc02740:	3529612d 	ori	t1,t1,0x612d
bfc02744:	01098027 	nor	s0,t0,t1
bfc02748:	3c12fd14 	lui	s2,0xfd14
bfc0274c:	36529ed2 	ori	s2,s2,0x9ed2
bfc02750:	16120058 	bne	s0,s2,bfc028b4 <inst_error>
bfc02754:	00000000 	nop
bfc02758:	24080000 	li	t0,0
bfc0275c:	3c092793 	lui	t1,0x2793
bfc02760:	3529252e 	ori	t1,t1,0x252e
bfc02764:	01098027 	nor	s0,t0,t1
bfc02768:	3c12d86c 	lui	s2,0xd86c
bfc0276c:	3652dad1 	ori	s2,s2,0xdad1
bfc02770:	16120050 	bne	s0,s2,bfc028b4 <inst_error>
bfc02774:	00000000 	nop
bfc02778:	24080000 	li	t0,0
bfc0277c:	3c09f857 	lui	t1,0xf857
bfc02780:	35297680 	ori	t1,t1,0x7680
bfc02784:	01098027 	nor	s0,t0,t1
bfc02788:	3c1207a8 	lui	s2,0x7a8
bfc0278c:	3652897f 	ori	s2,s2,0x897f
bfc02790:	16120048 	bne	s0,s2,bfc028b4 <inst_error>
bfc02794:	00000000 	nop
bfc02798:	24080000 	li	t0,0
bfc0279c:	3c09e145 	lui	t1,0xe145
bfc027a0:	3529d318 	ori	t1,t1,0xd318
bfc027a4:	01098027 	nor	s0,t0,t1
bfc027a8:	3c121eba 	lui	s2,0x1eba
bfc027ac:	36522ce7 	ori	s2,s2,0x2ce7
bfc027b0:	16120040 	bne	s0,s2,bfc028b4 <inst_error>
bfc027b4:	00000000 	nop
bfc027b8:	24080000 	li	t0,0
bfc027bc:	3c099dd5 	lui	t1,0x9dd5
bfc027c0:	3529ae8c 	ori	t1,t1,0xae8c
bfc027c4:	01098027 	nor	s0,t0,t1
bfc027c8:	3c12622a 	lui	s2,0x622a
bfc027cc:	36525173 	ori	s2,s2,0x5173
bfc027d0:	16120038 	bne	s0,s2,bfc028b4 <inst_error>
bfc027d4:	00000000 	nop
bfc027d8:	24080000 	li	t0,0
bfc027dc:	3c09fec5 	lui	t1,0xfec5
bfc027e0:	3529c500 	ori	t1,t1,0xc500
bfc027e4:	01098027 	nor	s0,t0,t1
bfc027e8:	3c12013a 	lui	s2,0x13a
bfc027ec:	36523aff 	ori	s2,s2,0x3aff
bfc027f0:	16120030 	bne	s0,s2,bfc028b4 <inst_error>
bfc027f4:	00000000 	nop
bfc027f8:	24080000 	li	t0,0
bfc027fc:	3c09d4d5 	lui	t1,0xd4d5
bfc02800:	3529131c 	ori	t1,t1,0x131c
bfc02804:	01098027 	nor	s0,t0,t1
bfc02808:	3c122b2a 	lui	s2,0x2b2a
bfc0280c:	3652ece3 	ori	s2,s2,0xece3
bfc02810:	16120028 	bne	s0,s2,bfc028b4 <inst_error>
bfc02814:	00000000 	nop
bfc02818:	24080000 	li	t0,0
bfc0281c:	3c09bf16 	lui	t1,0xbf16
bfc02820:	35298bd0 	ori	t1,t1,0x8bd0
bfc02824:	01098027 	nor	s0,t0,t1
bfc02828:	3c1240e9 	lui	s2,0x40e9
bfc0282c:	3652742f 	ori	s2,s2,0x742f
bfc02830:	16120020 	bne	s0,s2,bfc028b4 <inst_error>
bfc02834:	00000000 	nop
bfc02838:	24080000 	li	t0,0
bfc0283c:	3c090980 	lui	t1,0x980
bfc02840:	35290273 	ori	t1,t1,0x273
bfc02844:	01098027 	nor	s0,t0,t1
bfc02848:	3c12f67f 	lui	s2,0xf67f
bfc0284c:	3652fd8c 	ori	s2,s2,0xfd8c
bfc02850:	16120018 	bne	s0,s2,bfc028b4 <inst_error>
bfc02854:	00000000 	nop
bfc02858:	24080000 	li	t0,0
bfc0285c:	3c09e07c 	lui	t1,0xe07c
bfc02860:	3529dec0 	ori	t1,t1,0xdec0
bfc02864:	01098027 	nor	s0,t0,t1
bfc02868:	3c121f83 	lui	s2,0x1f83
bfc0286c:	3652213f 	ori	s2,s2,0x213f
bfc02870:	16120010 	bne	s0,s2,bfc028b4 <inst_error>
bfc02874:	00000000 	nop
bfc02878:	24080000 	li	t0,0
bfc0287c:	3c09c5b3 	lui	t1,0xc5b3
bfc02880:	35291dc7 	ori	t1,t1,0x1dc7
bfc02884:	01098027 	nor	s0,t0,t1
bfc02888:	3c123a4c 	lui	s2,0x3a4c
bfc0288c:	3652e238 	ori	s2,s2,0xe238
bfc02890:	16120008 	bne	s0,s2,bfc028b4 <inst_error>
bfc02894:	00000000 	nop
bfc02898:	24080000 	li	t0,0
bfc0289c:	24090000 	li	t1,0
bfc028a0:	01098027 	nor	s0,t0,t1
bfc028a4:	2412ffff 	li	s2,-1
bfc028a8:	16120002 	bne	s0,s2,bfc028b4 <inst_error>
bfc028ac:	00000000 	nop
bfc028b0:	4a000000 	c2	0x0

bfc028b4 <inst_error>:
inst_error():
bfc028b4:	0000003f 	0x3f

Disassembly of section .reginfo:

00000000 <.reginfo>:
   0:	00050300 	sll	zero,a1,0xc
	...
