
build/ori:     file format elf32-tradlittlemips
build/ori


Disassembly of section .text:

bfc00000 <main>:
bfc00000:	3c080d48 	lui	t0,0xd48
bfc00004:	3508918a 	ori	t0,t0,0x918a
bfc00008:	24097fe6 	li	t1,32742
bfc0000c:	35107fe6 	ori	s0,t0,0x7fe6
bfc00010:	3c120d48 	lui	s2,0xd48
bfc00014:	3652ffee 	ori	s2,s2,0xffee
bfc00018:	161208fc 	bne	s0,s2,bfc0240c <inst_error>
bfc0001c:	00000000 	nop
bfc00020:	3c08891d 	lui	t0,0x891d
bfc00024:	350817a0 	ori	t0,t0,0x17a0
bfc00028:	3409b034 	li	t1,0xb034
bfc0002c:	3510b034 	ori	s0,t0,0xb034
bfc00030:	3c12891d 	lui	s2,0x891d
bfc00034:	3652b7b4 	ori	s2,s2,0xb7b4
bfc00038:	161208f4 	bne	s0,s2,bfc0240c <inst_error>
bfc0003c:	00000000 	nop
bfc00040:	3c088bec 	lui	t0,0x8bec
bfc00044:	3508f220 	ori	t0,t0,0xf220
bfc00048:	3409d800 	li	t1,0xd800
bfc0004c:	3510d800 	ori	s0,t0,0xd800
bfc00050:	3c128bec 	lui	s2,0x8bec
bfc00054:	3652fa20 	ori	s2,s2,0xfa20
bfc00058:	161208ec 	bne	s0,s2,bfc0240c <inst_error>
bfc0005c:	00000000 	nop
bfc00060:	3c0834e0 	lui	t0,0x34e0
bfc00064:	35081280 	ori	t0,t0,0x1280
bfc00068:	24093155 	li	t1,12629
bfc0006c:	35103155 	ori	s0,t0,0x3155
bfc00070:	3c1234e0 	lui	s2,0x34e0
bfc00074:	365233d5 	ori	s2,s2,0x33d5
bfc00078:	161208e4 	bne	s0,s2,bfc0240c <inst_error>
bfc0007c:	00000000 	nop
bfc00080:	3c082019 	lui	t0,0x2019
bfc00084:	35082340 	ori	t0,t0,0x2340
bfc00088:	3409ccf0 	li	t1,0xccf0
bfc0008c:	3510ccf0 	ori	s0,t0,0xccf0
bfc00090:	3c122019 	lui	s2,0x2019
bfc00094:	3652eff0 	ori	s2,s2,0xeff0
bfc00098:	161208dc 	bne	s0,s2,bfc0240c <inst_error>
bfc0009c:	00000000 	nop
bfc000a0:	3c0806d7 	lui	t0,0x6d7
bfc000a4:	35081894 	ori	t0,t0,0x1894
bfc000a8:	3409c43a 	li	t1,0xc43a
bfc000ac:	3510c43a 	ori	s0,t0,0xc43a
bfc000b0:	3c1206d7 	lui	s2,0x6d7
bfc000b4:	3652dcbe 	ori	s2,s2,0xdcbe
bfc000b8:	161208d4 	bne	s0,s2,bfc0240c <inst_error>
bfc000bc:	00000000 	nop
bfc000c0:	3c089c16 	lui	t0,0x9c16
bfc000c4:	35082100 	ori	t0,t0,0x2100
bfc000c8:	24097b7e 	li	t1,31614
bfc000cc:	35107b7e 	ori	s0,t0,0x7b7e
bfc000d0:	3c129c16 	lui	s2,0x9c16
bfc000d4:	36527b7e 	ori	s2,s2,0x7b7e
bfc000d8:	161208cc 	bne	s0,s2,bfc0240c <inst_error>
bfc000dc:	00000000 	nop
bfc000e0:	3c08d2e0 	lui	t0,0xd2e0
bfc000e4:	35087498 	ori	t0,t0,0x7498
bfc000e8:	3409a4ea 	li	t1,0xa4ea
bfc000ec:	3510a4ea 	ori	s0,t0,0xa4ea
bfc000f0:	3c12d2e0 	lui	s2,0xd2e0
bfc000f4:	3652f4fa 	ori	s2,s2,0xf4fa
bfc000f8:	161208c4 	bne	s0,s2,bfc0240c <inst_error>
bfc000fc:	00000000 	nop
bfc00100:	3c08e5bd 	lui	t0,0xe5bd
bfc00104:	35081f00 	ori	t0,t0,0x1f00
bfc00108:	24091ac0 	li	t1,6848
bfc0010c:	35101ac0 	ori	s0,t0,0x1ac0
bfc00110:	3c12e5bd 	lui	s2,0xe5bd
bfc00114:	36521fc0 	ori	s2,s2,0x1fc0
bfc00118:	161208bc 	bne	s0,s2,bfc0240c <inst_error>
bfc0011c:	00000000 	nop
bfc00120:	3c0805e0 	lui	t0,0x5e0
bfc00124:	35085844 	ori	t0,t0,0x5844
bfc00128:	24090c78 	li	t1,3192
bfc0012c:	35100c78 	ori	s0,t0,0xc78
bfc00130:	3c1205e0 	lui	s2,0x5e0
bfc00134:	36525c7c 	ori	s2,s2,0x5c7c
bfc00138:	161208b4 	bne	s0,s2,bfc0240c <inst_error>
bfc0013c:	00000000 	nop
bfc00140:	3c081c18 	lui	t0,0x1c18
bfc00144:	35082184 	ori	t0,t0,0x2184
bfc00148:	3409d768 	li	t1,0xd768
bfc0014c:	3510d768 	ori	s0,t0,0xd768
bfc00150:	3c121c18 	lui	s2,0x1c18
bfc00154:	3652f7ec 	ori	s2,s2,0xf7ec
bfc00158:	161208ac 	bne	s0,s2,bfc0240c <inst_error>
bfc0015c:	00000000 	nop
bfc00160:	3c08f64d 	lui	t0,0xf64d
bfc00164:	350802e0 	ori	t0,t0,0x2e0
bfc00168:	240903f7 	li	t1,1015
bfc0016c:	351003f7 	ori	s0,t0,0x3f7
bfc00170:	3c12f64d 	lui	s2,0xf64d
bfc00174:	365203f7 	ori	s2,s2,0x3f7
bfc00178:	161208a4 	bne	s0,s2,bfc0240c <inst_error>
bfc0017c:	00000000 	nop
bfc00180:	3c089f9e 	lui	t0,0x9f9e
bfc00184:	35089140 	ori	t0,t0,0x9140
bfc00188:	24093538 	li	t1,13624
bfc0018c:	35103538 	ori	s0,t0,0x3538
bfc00190:	3c129f9e 	lui	s2,0x9f9e
bfc00194:	3652b578 	ori	s2,s2,0xb578
bfc00198:	1612089c 	bne	s0,s2,bfc0240c <inst_error>
bfc0019c:	00000000 	nop
bfc001a0:	3c088d04 	lui	t0,0x8d04
bfc001a4:	3508cdec 	ori	t0,t0,0xcdec
bfc001a8:	24097fcc 	li	t1,32716
bfc001ac:	35107fcc 	ori	s0,t0,0x7fcc
bfc001b0:	3c128d04 	lui	s2,0x8d04
bfc001b4:	3652ffec 	ori	s2,s2,0xffec
bfc001b8:	16120894 	bne	s0,s2,bfc0240c <inst_error>
bfc001bc:	00000000 	nop
bfc001c0:	3c08660d 	lui	t0,0x660d
bfc001c4:	3508371d 	ori	t0,t0,0x371d
bfc001c8:	3409ff38 	li	t1,0xff38
bfc001cc:	3510ff38 	ori	s0,t0,0xff38
bfc001d0:	3c12660d 	lui	s2,0x660d
bfc001d4:	3652ff3d 	ori	s2,s2,0xff3d
bfc001d8:	1612088c 	bne	s0,s2,bfc0240c <inst_error>
bfc001dc:	00000000 	nop
bfc001e0:	3c081f77 	lui	t0,0x1f77
bfc001e4:	3508fb68 	ori	t0,t0,0xfb68
bfc001e8:	3409e5a0 	li	t1,0xe5a0
bfc001ec:	3510e5a0 	ori	s0,t0,0xe5a0
bfc001f0:	3c121f77 	lui	s2,0x1f77
bfc001f4:	3652ffe8 	ori	s2,s2,0xffe8
bfc001f8:	16120884 	bne	s0,s2,bfc0240c <inst_error>
bfc001fc:	00000000 	nop
bfc00200:	3c086ee5 	lui	t0,0x6ee5
bfc00204:	3508e2c6 	ori	t0,t0,0xe2c6
bfc00208:	3409cb85 	li	t1,0xcb85
bfc0020c:	3510cb85 	ori	s0,t0,0xcb85
bfc00210:	3c126ee5 	lui	s2,0x6ee5
bfc00214:	3652ebc7 	ori	s2,s2,0xebc7
bfc00218:	1612087c 	bne	s0,s2,bfc0240c <inst_error>
bfc0021c:	00000000 	nop
bfc00220:	3c087b70 	lui	t0,0x7b70
bfc00224:	35080500 	ori	t0,t0,0x500
bfc00228:	24095c7a 	li	t1,23674
bfc0022c:	35105c7a 	ori	s0,t0,0x5c7a
bfc00230:	3c127b70 	lui	s2,0x7b70
bfc00234:	36525d7a 	ori	s2,s2,0x5d7a
bfc00238:	16120874 	bne	s0,s2,bfc0240c <inst_error>
bfc0023c:	00000000 	nop
bfc00240:	3c08cc88 	lui	t0,0xcc88
bfc00244:	350814e4 	ori	t0,t0,0x14e4
bfc00248:	240900e8 	li	t1,232
bfc0024c:	351000e8 	ori	s0,t0,0xe8
bfc00250:	3c12cc88 	lui	s2,0xcc88
bfc00254:	365214ec 	ori	s2,s2,0x14ec
bfc00258:	1612086c 	bne	s0,s2,bfc0240c <inst_error>
bfc0025c:	00000000 	nop
bfc00260:	3c08ca03 	lui	t0,0xca03
bfc00264:	3508f8ea 	ori	t0,t0,0xf8ea
bfc00268:	3409f275 	li	t1,0xf275
bfc0026c:	3510f275 	ori	s0,t0,0xf275
bfc00270:	3c12ca03 	lui	s2,0xca03
bfc00274:	3652faff 	ori	s2,s2,0xfaff
bfc00278:	16120864 	bne	s0,s2,bfc0240c <inst_error>
bfc0027c:	00000000 	nop
bfc00280:	3c086d02 	lui	t0,0x6d02
bfc00284:	350831d0 	ori	t0,t0,0x31d0
bfc00288:	24093728 	li	t1,14120
bfc0028c:	35103728 	ori	s0,t0,0x3728
bfc00290:	3c126d02 	lui	s2,0x6d02
bfc00294:	365237f8 	ori	s2,s2,0x37f8
bfc00298:	1612085c 	bne	s0,s2,bfc0240c <inst_error>
bfc0029c:	00000000 	nop
bfc002a0:	3c0832c1 	lui	t0,0x32c1
bfc002a4:	35081c28 	ori	t0,t0,0x1c28
bfc002a8:	240934ce 	li	t1,13518
bfc002ac:	351034ce 	ori	s0,t0,0x34ce
bfc002b0:	3c1232c1 	lui	s2,0x32c1
bfc002b4:	36523cee 	ori	s2,s2,0x3cee
bfc002b8:	16120854 	bne	s0,s2,bfc0240c <inst_error>
bfc002bc:	00000000 	nop
bfc002c0:	3c0837b8 	lui	t0,0x37b8
bfc002c4:	350864f3 	ori	t0,t0,0x64f3
bfc002c8:	24090794 	li	t1,1940
bfc002cc:	35100794 	ori	s0,t0,0x794
bfc002d0:	3c1237b8 	lui	s2,0x37b8
bfc002d4:	365267f7 	ori	s2,s2,0x67f7
bfc002d8:	1612084c 	bne	s0,s2,bfc0240c <inst_error>
bfc002dc:	00000000 	nop
bfc002e0:	3c0803cf 	lui	t0,0x3cf
bfc002e4:	35081400 	ori	t0,t0,0x1400
bfc002e8:	3409aa04 	li	t1,0xaa04
bfc002ec:	3510aa04 	ori	s0,t0,0xaa04
bfc002f0:	3c1203cf 	lui	s2,0x3cf
bfc002f4:	3652be04 	ori	s2,s2,0xbe04
bfc002f8:	16120844 	bne	s0,s2,bfc0240c <inst_error>
bfc002fc:	00000000 	nop
bfc00300:	3c083808 	lui	t0,0x3808
bfc00304:	35088740 	ori	t0,t0,0x8740
bfc00308:	3409ad87 	li	t1,0xad87
bfc0030c:	3510ad87 	ori	s0,t0,0xad87
bfc00310:	3c123808 	lui	s2,0x3808
bfc00314:	3652afc7 	ori	s2,s2,0xafc7
bfc00318:	1612083c 	bne	s0,s2,bfc0240c <inst_error>
bfc0031c:	00000000 	nop
bfc00320:	3c08e90b 	lui	t0,0xe90b
bfc00324:	3508610d 	ori	t0,t0,0x610d
bfc00328:	240959f9 	li	t1,23033
bfc0032c:	351059f9 	ori	s0,t0,0x59f9
bfc00330:	3c12e90b 	lui	s2,0xe90b
bfc00334:	365279fd 	ori	s2,s2,0x79fd
bfc00338:	16120834 	bne	s0,s2,bfc0240c <inst_error>
bfc0033c:	00000000 	nop
bfc00340:	3c081b8e 	lui	t0,0x1b8e
bfc00344:	350894f0 	ori	t0,t0,0x94f0
bfc00348:	2409246e 	li	t1,9326
bfc0034c:	3510246e 	ori	s0,t0,0x246e
bfc00350:	3c121b8e 	lui	s2,0x1b8e
bfc00354:	3652b4fe 	ori	s2,s2,0xb4fe
bfc00358:	1612082c 	bne	s0,s2,bfc0240c <inst_error>
bfc0035c:	00000000 	nop
bfc00360:	3c08b06a 	lui	t0,0xb06a
bfc00364:	35086414 	ori	t0,t0,0x6414
bfc00368:	2409785c 	li	t1,30812
bfc0036c:	3510785c 	ori	s0,t0,0x785c
bfc00370:	3c12b06a 	lui	s2,0xb06a
bfc00374:	36527c5c 	ori	s2,s2,0x7c5c
bfc00378:	16120824 	bne	s0,s2,bfc0240c <inst_error>
bfc0037c:	00000000 	nop
bfc00380:	3c08bbdf 	lui	t0,0xbbdf
bfc00384:	35088fb8 	ori	t0,t0,0x8fb8
bfc00388:	240940c0 	li	t1,16576
bfc0038c:	351040c0 	ori	s0,t0,0x40c0
bfc00390:	3c12bbdf 	lui	s2,0xbbdf
bfc00394:	3652cff8 	ori	s2,s2,0xcff8
bfc00398:	1612081c 	bne	s0,s2,bfc0240c <inst_error>
bfc0039c:	00000000 	nop
bfc003a0:	3c0820e4 	lui	t0,0x20e4
bfc003a4:	35085530 	ori	t0,t0,0x5530
bfc003a8:	2409080a 	li	t1,2058
bfc003ac:	3510080a 	ori	s0,t0,0x80a
bfc003b0:	3c1220e4 	lui	s2,0x20e4
bfc003b4:	36525d3a 	ori	s2,s2,0x5d3a
bfc003b8:	16120814 	bne	s0,s2,bfc0240c <inst_error>
bfc003bc:	00000000 	nop
bfc003c0:	3c0864fd 	lui	t0,0x64fd
bfc003c4:	3508ea6e 	ori	t0,t0,0xea6e
bfc003c8:	3409e4b4 	li	t1,0xe4b4
bfc003cc:	3510e4b4 	ori	s0,t0,0xe4b4
bfc003d0:	3c1264fd 	lui	s2,0x64fd
bfc003d4:	3652eefe 	ori	s2,s2,0xeefe
bfc003d8:	1612080c 	bne	s0,s2,bfc0240c <inst_error>
bfc003dc:	00000000 	nop
bfc003e0:	3c08fab0 	lui	t0,0xfab0
bfc003e4:	35089626 	ori	t0,t0,0x9626
bfc003e8:	24095746 	li	t1,22342
bfc003ec:	35105746 	ori	s0,t0,0x5746
bfc003f0:	3c12fab0 	lui	s2,0xfab0
bfc003f4:	3652d766 	ori	s2,s2,0xd766
bfc003f8:	16120804 	bne	s0,s2,bfc0240c <inst_error>
bfc003fc:	00000000 	nop
bfc00400:	3c083725 	lui	t0,0x3725
bfc00404:	3508b59a 	ori	t0,t0,0xb59a
bfc00408:	24094927 	li	t1,18727
bfc0040c:	35104927 	ori	s0,t0,0x4927
bfc00410:	3c123725 	lui	s2,0x3725
bfc00414:	3652fdbf 	ori	s2,s2,0xfdbf
bfc00418:	161207fc 	bne	s0,s2,bfc0240c <inst_error>
bfc0041c:	00000000 	nop
bfc00420:	3c085caf 	lui	t0,0x5caf
bfc00424:	3508d54e 	ori	t0,t0,0xd54e
bfc00428:	240923aa 	li	t1,9130
bfc0042c:	351023aa 	ori	s0,t0,0x23aa
bfc00430:	3c125caf 	lui	s2,0x5caf
bfc00434:	3652f7ee 	ori	s2,s2,0xf7ee
bfc00438:	161207f4 	bne	s0,s2,bfc0240c <inst_error>
bfc0043c:	00000000 	nop
bfc00440:	3c08034c 	lui	t0,0x34c
bfc00444:	3508cef4 	ori	t0,t0,0xcef4
bfc00448:	24097b0e 	li	t1,31502
bfc0044c:	35107b0e 	ori	s0,t0,0x7b0e
bfc00450:	3c12034c 	lui	s2,0x34c
bfc00454:	3652fffe 	ori	s2,s2,0xfffe
bfc00458:	161207ec 	bne	s0,s2,bfc0240c <inst_error>
bfc0045c:	00000000 	nop
bfc00460:	3c085cd6 	lui	t0,0x5cd6
bfc00464:	35087abc 	ori	t0,t0,0x7abc
bfc00468:	3409c312 	li	t1,0xc312
bfc0046c:	3510c312 	ori	s0,t0,0xc312
bfc00470:	3c125cd6 	lui	s2,0x5cd6
bfc00474:	3652fbbe 	ori	s2,s2,0xfbbe
bfc00478:	161207e4 	bne	s0,s2,bfc0240c <inst_error>
bfc0047c:	00000000 	nop
bfc00480:	3c081cad 	lui	t0,0x1cad
bfc00484:	3508cbf8 	ori	t0,t0,0xcbf8
bfc00488:	24096306 	li	t1,25350
bfc0048c:	35106306 	ori	s0,t0,0x6306
bfc00490:	3c121cad 	lui	s2,0x1cad
bfc00494:	3652ebfe 	ori	s2,s2,0xebfe
bfc00498:	161207dc 	bne	s0,s2,bfc0240c <inst_error>
bfc0049c:	00000000 	nop
bfc004a0:	3c08b325 	lui	t0,0xb325
bfc004a4:	35080f97 	ori	t0,t0,0xf97
bfc004a8:	34098915 	li	t1,0x8915
bfc004ac:	35108915 	ori	s0,t0,0x8915
bfc004b0:	3c12b325 	lui	s2,0xb325
bfc004b4:	36528f97 	ori	s2,s2,0x8f97
bfc004b8:	161207d4 	bne	s0,s2,bfc0240c <inst_error>
bfc004bc:	00000000 	nop
bfc004c0:	3c081e60 	lui	t0,0x1e60
bfc004c4:	350827e0 	ori	t0,t0,0x27e0
bfc004c8:	34098830 	li	t1,0x8830
bfc004cc:	35108830 	ori	s0,t0,0x8830
bfc004d0:	3c121e60 	lui	s2,0x1e60
bfc004d4:	3652aff0 	ori	s2,s2,0xaff0
bfc004d8:	161207cc 	bne	s0,s2,bfc0240c <inst_error>
bfc004dc:	00000000 	nop
bfc004e0:	3c0826b6 	lui	t0,0x26b6
bfc004e4:	350884c0 	ori	t0,t0,0x84c0
bfc004e8:	240970cc 	li	t1,28876
bfc004ec:	351070cc 	ori	s0,t0,0x70cc
bfc004f0:	3c1226b6 	lui	s2,0x26b6
bfc004f4:	3652f4cc 	ori	s2,s2,0xf4cc
bfc004f8:	161207c4 	bne	s0,s2,bfc0240c <inst_error>
bfc004fc:	00000000 	nop
bfc00500:	3c0803ac 	lui	t0,0x3ac
bfc00504:	3508e660 	ori	t0,t0,0xe660
bfc00508:	240925ed 	li	t1,9709
bfc0050c:	351025ed 	ori	s0,t0,0x25ed
bfc00510:	3c1203ac 	lui	s2,0x3ac
bfc00514:	3652e7ed 	ori	s2,s2,0xe7ed
bfc00518:	161207bc 	bne	s0,s2,bfc0240c <inst_error>
bfc0051c:	00000000 	nop
bfc00520:	3c080adc 	lui	t0,0xadc
bfc00524:	35085ba2 	ori	t0,t0,0x5ba2
bfc00528:	24092cde 	li	t1,11486
bfc0052c:	35102cde 	ori	s0,t0,0x2cde
bfc00530:	3c120adc 	lui	s2,0xadc
bfc00534:	36527ffe 	ori	s2,s2,0x7ffe
bfc00538:	161207b4 	bne	s0,s2,bfc0240c <inst_error>
bfc0053c:	00000000 	nop
bfc00540:	3c089597 	lui	t0,0x9597
bfc00544:	350803a0 	ori	t0,t0,0x3a0
bfc00548:	2409341a 	li	t1,13338
bfc0054c:	3510341a 	ori	s0,t0,0x341a
bfc00550:	3c129597 	lui	s2,0x9597
bfc00554:	365237ba 	ori	s2,s2,0x37ba
bfc00558:	161207ac 	bne	s0,s2,bfc0240c <inst_error>
bfc0055c:	00000000 	nop
bfc00560:	3c08b07f 	lui	t0,0xb07f
bfc00564:	3508d414 	ori	t0,t0,0xd414
bfc00568:	3409ba00 	li	t1,0xba00
bfc0056c:	3510ba00 	ori	s0,t0,0xba00
bfc00570:	3c12b07f 	lui	s2,0xb07f
bfc00574:	3652fe14 	ori	s2,s2,0xfe14
bfc00578:	161207a4 	bne	s0,s2,bfc0240c <inst_error>
bfc0057c:	00000000 	nop
bfc00580:	3c0889d5 	lui	t0,0x89d5
bfc00584:	350819d0 	ori	t0,t0,0x19d0
bfc00588:	3409cdee 	li	t1,0xcdee
bfc0058c:	3510cdee 	ori	s0,t0,0xcdee
bfc00590:	3c1289d5 	lui	s2,0x89d5
bfc00594:	3652ddfe 	ori	s2,s2,0xddfe
bfc00598:	1612079c 	bne	s0,s2,bfc0240c <inst_error>
bfc0059c:	00000000 	nop
bfc005a0:	3c08f726 	lui	t0,0xf726
bfc005a4:	35081eb0 	ori	t0,t0,0x1eb0
bfc005a8:	24092fdc 	li	t1,12252
bfc005ac:	35102fdc 	ori	s0,t0,0x2fdc
bfc005b0:	3c12f726 	lui	s2,0xf726
bfc005b4:	36523ffc 	ori	s2,s2,0x3ffc
bfc005b8:	16120794 	bne	s0,s2,bfc0240c <inst_error>
bfc005bc:	00000000 	nop
bfc005c0:	3c082c09 	lui	t0,0x2c09
bfc005c4:	3508492f 	ori	t0,t0,0x492f
bfc005c8:	24095844 	li	t1,22596
bfc005cc:	35105844 	ori	s0,t0,0x5844
bfc005d0:	3c122c09 	lui	s2,0x2c09
bfc005d4:	3652596f 	ori	s2,s2,0x596f
bfc005d8:	1612078c 	bne	s0,s2,bfc0240c <inst_error>
bfc005dc:	00000000 	nop
bfc005e0:	3c0827d2 	lui	t0,0x27d2
bfc005e4:	35086fc0 	ori	t0,t0,0x6fc0
bfc005e8:	3409b3ae 	li	t1,0xb3ae
bfc005ec:	3510b3ae 	ori	s0,t0,0xb3ae
bfc005f0:	3c1227d2 	lui	s2,0x27d2
bfc005f4:	3652ffee 	ori	s2,s2,0xffee
bfc005f8:	16120784 	bne	s0,s2,bfc0240c <inst_error>
bfc005fc:	00000000 	nop
bfc00600:	3c088f38 	lui	t0,0x8f38
bfc00604:	35086b68 	ori	t0,t0,0x6b68
bfc00608:	3409ee32 	li	t1,0xee32
bfc0060c:	3510ee32 	ori	s0,t0,0xee32
bfc00610:	3c128f38 	lui	s2,0x8f38
bfc00614:	3652ef7a 	ori	s2,s2,0xef7a
bfc00618:	1612077c 	bne	s0,s2,bfc0240c <inst_error>
bfc0061c:	00000000 	nop
bfc00620:	3c08eb31 	lui	t0,0xeb31
bfc00624:	350825b0 	ori	t0,t0,0x25b0
bfc00628:	34098984 	li	t1,0x8984
bfc0062c:	35108984 	ori	s0,t0,0x8984
bfc00630:	3c12eb31 	lui	s2,0xeb31
bfc00634:	3652adb4 	ori	s2,s2,0xadb4
bfc00638:	16120774 	bne	s0,s2,bfc0240c <inst_error>
bfc0063c:	00000000 	nop
bfc00640:	3c08a5b5 	lui	t0,0xa5b5
bfc00644:	3508cb24 	ori	t0,t0,0xcb24
bfc00648:	240957a6 	li	t1,22438
bfc0064c:	351057a6 	ori	s0,t0,0x57a6
bfc00650:	3c12a5b5 	lui	s2,0xa5b5
bfc00654:	3652dfa6 	ori	s2,s2,0xdfa6
bfc00658:	1612076c 	bne	s0,s2,bfc0240c <inst_error>
bfc0065c:	00000000 	nop
bfc00660:	3c086928 	lui	t0,0x6928
bfc00664:	35080b7c 	ori	t0,t0,0xb7c
bfc00668:	34099e06 	li	t1,0x9e06
bfc0066c:	35109e06 	ori	s0,t0,0x9e06
bfc00670:	3c126928 	lui	s2,0x6928
bfc00674:	36529f7e 	ori	s2,s2,0x9f7e
bfc00678:	16120764 	bne	s0,s2,bfc0240c <inst_error>
bfc0067c:	00000000 	nop
bfc00680:	3c08576c 	lui	t0,0x576c
bfc00684:	3508c234 	ori	t0,t0,0xc234
bfc00688:	2409628f 	li	t1,25231
bfc0068c:	3510628f 	ori	s0,t0,0x628f
bfc00690:	3c12576c 	lui	s2,0x576c
bfc00694:	3652e2bf 	ori	s2,s2,0xe2bf
bfc00698:	1612075c 	bne	s0,s2,bfc0240c <inst_error>
bfc0069c:	00000000 	nop
bfc006a0:	3c087771 	lui	t0,0x7771
bfc006a4:	35084bc4 	ori	t0,t0,0x4bc4
bfc006a8:	24094e40 	li	t1,20032
bfc006ac:	35104e40 	ori	s0,t0,0x4e40
bfc006b0:	3c127771 	lui	s2,0x7771
bfc006b4:	36524fc4 	ori	s2,s2,0x4fc4
bfc006b8:	16120754 	bne	s0,s2,bfc0240c <inst_error>
bfc006bc:	00000000 	nop
bfc006c0:	3c087554 	lui	t0,0x7554
bfc006c4:	350832a0 	ori	t0,t0,0x32a0
bfc006c8:	3409d9a0 	li	t1,0xd9a0
bfc006cc:	3510d9a0 	ori	s0,t0,0xd9a0
bfc006d0:	3c127554 	lui	s2,0x7554
bfc006d4:	3652fba0 	ori	s2,s2,0xfba0
bfc006d8:	1612074c 	bne	s0,s2,bfc0240c <inst_error>
bfc006dc:	00000000 	nop
bfc006e0:	3c08dadf 	lui	t0,0xdadf
bfc006e4:	3508b0ac 	ori	t0,t0,0xb0ac
bfc006e8:	34099c3a 	li	t1,0x9c3a
bfc006ec:	35109c3a 	ori	s0,t0,0x9c3a
bfc006f0:	3c12dadf 	lui	s2,0xdadf
bfc006f4:	3652bcbe 	ori	s2,s2,0xbcbe
bfc006f8:	16120744 	bne	s0,s2,bfc0240c <inst_error>
bfc006fc:	00000000 	nop
bfc00700:	3c083756 	lui	t0,0x3756
bfc00704:	3508d37c 	ori	t0,t0,0xd37c
bfc00708:	2409182f 	li	t1,6191
bfc0070c:	3510182f 	ori	s0,t0,0x182f
bfc00710:	3c123756 	lui	s2,0x3756
bfc00714:	3652db7f 	ori	s2,s2,0xdb7f
bfc00718:	1612073c 	bne	s0,s2,bfc0240c <inst_error>
bfc0071c:	00000000 	nop
bfc00720:	3c08c107 	lui	t0,0xc107
bfc00724:	35081950 	ori	t0,t0,0x1950
bfc00728:	34099aa0 	li	t1,0x9aa0
bfc0072c:	35109aa0 	ori	s0,t0,0x9aa0
bfc00730:	3c12c107 	lui	s2,0xc107
bfc00734:	36529bf0 	ori	s2,s2,0x9bf0
bfc00738:	16120734 	bne	s0,s2,bfc0240c <inst_error>
bfc0073c:	00000000 	nop
bfc00740:	3c08b5d8 	lui	t0,0xb5d8
bfc00744:	350879d0 	ori	t0,t0,0x79d0
bfc00748:	2409290f 	li	t1,10511
bfc0074c:	3510290f 	ori	s0,t0,0x290f
bfc00750:	3c12b5d8 	lui	s2,0xb5d8
bfc00754:	365279df 	ori	s2,s2,0x79df
bfc00758:	1612072c 	bne	s0,s2,bfc0240c <inst_error>
bfc0075c:	00000000 	nop
bfc00760:	3c08074e 	lui	t0,0x74e
bfc00764:	35084e72 	ori	t0,t0,0x4e72
bfc00768:	24092521 	li	t1,9505
bfc0076c:	35102521 	ori	s0,t0,0x2521
bfc00770:	3c12074e 	lui	s2,0x74e
bfc00774:	36526f73 	ori	s2,s2,0x6f73
bfc00778:	16120724 	bne	s0,s2,bfc0240c <inst_error>
bfc0077c:	00000000 	nop
bfc00780:	3c08136b 	lui	t0,0x136b
bfc00784:	35083d46 	ori	t0,t0,0x3d46
bfc00788:	3409ded4 	li	t1,0xded4
bfc0078c:	3510ded4 	ori	s0,t0,0xded4
bfc00790:	3c12136b 	lui	s2,0x136b
bfc00794:	3652ffd6 	ori	s2,s2,0xffd6
bfc00798:	1612071c 	bne	s0,s2,bfc0240c <inst_error>
bfc0079c:	00000000 	nop
bfc007a0:	3c0809e3 	lui	t0,0x9e3
bfc007a4:	3508e474 	ori	t0,t0,0xe474
bfc007a8:	34098af0 	li	t1,0x8af0
bfc007ac:	35108af0 	ori	s0,t0,0x8af0
bfc007b0:	3c1209e3 	lui	s2,0x9e3
bfc007b4:	3652eef4 	ori	s2,s2,0xeef4
bfc007b8:	16120714 	bne	s0,s2,bfc0240c <inst_error>
bfc007bc:	00000000 	nop
bfc007c0:	3c08d831 	lui	t0,0xd831
bfc007c4:	3508a1f0 	ori	t0,t0,0xa1f0
bfc007c8:	24094322 	li	t1,17186
bfc007cc:	35104322 	ori	s0,t0,0x4322
bfc007d0:	3c12d831 	lui	s2,0xd831
bfc007d4:	3652e3f2 	ori	s2,s2,0xe3f2
bfc007d8:	1612070c 	bne	s0,s2,bfc0240c <inst_error>
bfc007dc:	00000000 	nop
bfc007e0:	3c087b5e 	lui	t0,0x7b5e
bfc007e4:	3508c670 	ori	t0,t0,0xc670
bfc007e8:	2409070a 	li	t1,1802
bfc007ec:	3510070a 	ori	s0,t0,0x70a
bfc007f0:	3c127b5e 	lui	s2,0x7b5e
bfc007f4:	3652c77a 	ori	s2,s2,0xc77a
bfc007f8:	16120704 	bne	s0,s2,bfc0240c <inst_error>
bfc007fc:	00000000 	nop
bfc00800:	3c08b49f 	lui	t0,0xb49f
bfc00804:	3508fdd0 	ori	t0,t0,0xfdd0
bfc00808:	240924ba 	li	t1,9402
bfc0080c:	351024ba 	ori	s0,t0,0x24ba
bfc00810:	3c12b49f 	lui	s2,0xb49f
bfc00814:	3652fdfa 	ori	s2,s2,0xfdfa
bfc00818:	161206fc 	bne	s0,s2,bfc0240c <inst_error>
bfc0081c:	00000000 	nop
bfc00820:	3c0830ef 	lui	t0,0x30ef
bfc00824:	35080e30 	ori	t0,t0,0xe30
bfc00828:	3409f11a 	li	t1,0xf11a
bfc0082c:	3510f11a 	ori	s0,t0,0xf11a
bfc00830:	3c1230ef 	lui	s2,0x30ef
bfc00834:	3652ff3a 	ori	s2,s2,0xff3a
bfc00838:	161206f4 	bne	s0,s2,bfc0240c <inst_error>
bfc0083c:	00000000 	nop
bfc00840:	3c08c75e 	lui	t0,0xc75e
bfc00844:	3508db8c 	ori	t0,t0,0xdb8c
bfc00848:	3409db2e 	li	t1,0xdb2e
bfc0084c:	3510db2e 	ori	s0,t0,0xdb2e
bfc00850:	3c12c75e 	lui	s2,0xc75e
bfc00854:	3652dbae 	ori	s2,s2,0xdbae
bfc00858:	161206ec 	bne	s0,s2,bfc0240c <inst_error>
bfc0085c:	00000000 	nop
bfc00860:	3c08921f 	lui	t0,0x921f
bfc00864:	35083e58 	ori	t0,t0,0x3e58
bfc00868:	340993e8 	li	t1,0x93e8
bfc0086c:	351093e8 	ori	s0,t0,0x93e8
bfc00870:	3c12921f 	lui	s2,0x921f
bfc00874:	3652bff8 	ori	s2,s2,0xbff8
bfc00878:	161206e4 	bne	s0,s2,bfc0240c <inst_error>
bfc0087c:	00000000 	nop
bfc00880:	3c08df52 	lui	t0,0xdf52
bfc00884:	35085ee0 	ori	t0,t0,0x5ee0
bfc00888:	24093d0c 	li	t1,15628
bfc0088c:	35103d0c 	ori	s0,t0,0x3d0c
bfc00890:	3c12df52 	lui	s2,0xdf52
bfc00894:	36527fec 	ori	s2,s2,0x7fec
bfc00898:	161206dc 	bne	s0,s2,bfc0240c <inst_error>
bfc0089c:	00000000 	nop
bfc008a0:	3c082006 	lui	t0,0x2006
bfc008a4:	3508e300 	ori	t0,t0,0xe300
bfc008a8:	24095c58 	li	t1,23640
bfc008ac:	35105c58 	ori	s0,t0,0x5c58
bfc008b0:	3c122006 	lui	s2,0x2006
bfc008b4:	3652ff58 	ori	s2,s2,0xff58
bfc008b8:	161206d4 	bne	s0,s2,bfc0240c <inst_error>
bfc008bc:	00000000 	nop
bfc008c0:	3c0830cc 	lui	t0,0x30cc
bfc008c4:	3508a294 	ori	t0,t0,0xa294
bfc008c8:	24095461 	li	t1,21601
bfc008cc:	35105461 	ori	s0,t0,0x5461
bfc008d0:	3c1230cc 	lui	s2,0x30cc
bfc008d4:	3652f6f5 	ori	s2,s2,0xf6f5
bfc008d8:	161206cc 	bne	s0,s2,bfc0240c <inst_error>
bfc008dc:	00000000 	nop
bfc008e0:	3c08a0b9 	lui	t0,0xa0b9
bfc008e4:	35084de0 	ori	t0,t0,0x4de0
bfc008e8:	2409576e 	li	t1,22382
bfc008ec:	3510576e 	ori	s0,t0,0x576e
bfc008f0:	3c12a0b9 	lui	s2,0xa0b9
bfc008f4:	36525fee 	ori	s2,s2,0x5fee
bfc008f8:	161206c4 	bne	s0,s2,bfc0240c <inst_error>
bfc008fc:	00000000 	nop
bfc00900:	3c0889ca 	lui	t0,0x89ca
bfc00904:	35080d20 	ori	t0,t0,0xd20
bfc00908:	34099f4f 	li	t1,0x9f4f
bfc0090c:	35109f4f 	ori	s0,t0,0x9f4f
bfc00910:	3c1289ca 	lui	s2,0x89ca
bfc00914:	36529f6f 	ori	s2,s2,0x9f6f
bfc00918:	161206bc 	bne	s0,s2,bfc0240c <inst_error>
bfc0091c:	00000000 	nop
bfc00920:	3c088cb5 	lui	t0,0x8cb5
bfc00924:	3508f778 	ori	t0,t0,0xf778
bfc00928:	3409f5e0 	li	t1,0xf5e0
bfc0092c:	3510f5e0 	ori	s0,t0,0xf5e0
bfc00930:	3c128cb5 	lui	s2,0x8cb5
bfc00934:	3652f7f8 	ori	s2,s2,0xf7f8
bfc00938:	161206b4 	bne	s0,s2,bfc0240c <inst_error>
bfc0093c:	00000000 	nop
bfc00940:	3c0838dd 	lui	t0,0x38dd
bfc00944:	350802d4 	ori	t0,t0,0x2d4
bfc00948:	34098947 	li	t1,0x8947
bfc0094c:	35108947 	ori	s0,t0,0x8947
bfc00950:	3c1238dd 	lui	s2,0x38dd
bfc00954:	36528bd7 	ori	s2,s2,0x8bd7
bfc00958:	161206ac 	bne	s0,s2,bfc0240c <inst_error>
bfc0095c:	00000000 	nop
bfc00960:	3c08c344 	lui	t0,0xc344
bfc00964:	3508fcfe 	ori	t0,t0,0xfcfe
bfc00968:	3409e340 	li	t1,0xe340
bfc0096c:	3510e340 	ori	s0,t0,0xe340
bfc00970:	3c12c344 	lui	s2,0xc344
bfc00974:	3652fffe 	ori	s2,s2,0xfffe
bfc00978:	161206a4 	bne	s0,s2,bfc0240c <inst_error>
bfc0097c:	00000000 	nop
bfc00980:	3c08de63 	lui	t0,0xde63
bfc00984:	35082ca3 	ori	t0,t0,0x2ca3
bfc00988:	24093206 	li	t1,12806
bfc0098c:	35103206 	ori	s0,t0,0x3206
bfc00990:	3c12de63 	lui	s2,0xde63
bfc00994:	36523ea7 	ori	s2,s2,0x3ea7
bfc00998:	1612069c 	bne	s0,s2,bfc0240c <inst_error>
bfc0099c:	00000000 	nop
bfc009a0:	3c08ca24 	lui	t0,0xca24
bfc009a4:	35081a9c 	ori	t0,t0,0x1a9c
bfc009a8:	3409911e 	li	t1,0x911e
bfc009ac:	3510911e 	ori	s0,t0,0x911e
bfc009b0:	3c12ca24 	lui	s2,0xca24
bfc009b4:	36529b9e 	ori	s2,s2,0x9b9e
bfc009b8:	16120694 	bne	s0,s2,bfc0240c <inst_error>
bfc009bc:	00000000 	nop
bfc009c0:	3c081b94 	lui	t0,0x1b94
bfc009c4:	3508665a 	ori	t0,t0,0x665a
bfc009c8:	240929cc 	li	t1,10700
bfc009cc:	351029cc 	ori	s0,t0,0x29cc
bfc009d0:	3c121b94 	lui	s2,0x1b94
bfc009d4:	36526fde 	ori	s2,s2,0x6fde
bfc009d8:	1612068c 	bne	s0,s2,bfc0240c <inst_error>
bfc009dc:	00000000 	nop
bfc009e0:	3c088cad 	lui	t0,0x8cad
bfc009e4:	350815b8 	ori	t0,t0,0x15b8
bfc009e8:	24094720 	li	t1,18208
bfc009ec:	35104720 	ori	s0,t0,0x4720
bfc009f0:	3c128cad 	lui	s2,0x8cad
bfc009f4:	365257b8 	ori	s2,s2,0x57b8
bfc009f8:	16120684 	bne	s0,s2,bfc0240c <inst_error>
bfc009fc:	00000000 	nop
bfc00a00:	3c08488f 	lui	t0,0x488f
bfc00a04:	3508c0b6 	ori	t0,t0,0xc0b6
bfc00a08:	2409217c 	li	t1,8572
bfc00a0c:	3510217c 	ori	s0,t0,0x217c
bfc00a10:	3c12488f 	lui	s2,0x488f
bfc00a14:	3652e1fe 	ori	s2,s2,0xe1fe
bfc00a18:	1612067c 	bne	s0,s2,bfc0240c <inst_error>
bfc00a1c:	00000000 	nop
bfc00a20:	3c08df14 	lui	t0,0xdf14
bfc00a24:	35081680 	ori	t0,t0,0x1680
bfc00a28:	24097152 	li	t1,29010
bfc00a2c:	35107152 	ori	s0,t0,0x7152
bfc00a30:	3c12df14 	lui	s2,0xdf14
bfc00a34:	365277d2 	ori	s2,s2,0x77d2
bfc00a38:	16120674 	bne	s0,s2,bfc0240c <inst_error>
bfc00a3c:	00000000 	nop
bfc00a40:	3c084319 	lui	t0,0x4319
bfc00a44:	3508f170 	ori	t0,t0,0xf170
bfc00a48:	24093a86 	li	t1,14982
bfc00a4c:	35103a86 	ori	s0,t0,0x3a86
bfc00a50:	3c124319 	lui	s2,0x4319
bfc00a54:	3652fbf6 	ori	s2,s2,0xfbf6
bfc00a58:	1612066c 	bne	s0,s2,bfc0240c <inst_error>
bfc00a5c:	00000000 	nop
bfc00a60:	3c08aaf9 	lui	t0,0xaaf9
bfc00a64:	35080038 	ori	t0,t0,0x38
bfc00a68:	3409e2ca 	li	t1,0xe2ca
bfc00a6c:	3510e2ca 	ori	s0,t0,0xe2ca
bfc00a70:	3c12aaf9 	lui	s2,0xaaf9
bfc00a74:	3652e2fa 	ori	s2,s2,0xe2fa
bfc00a78:	16120664 	bne	s0,s2,bfc0240c <inst_error>
bfc00a7c:	00000000 	nop
bfc00a80:	3c08245b 	lui	t0,0x245b
bfc00a84:	3508c428 	ori	t0,t0,0xc428
bfc00a88:	2409286c 	li	t1,10348
bfc00a8c:	3510286c 	ori	s0,t0,0x286c
bfc00a90:	3c12245b 	lui	s2,0x245b
bfc00a94:	3652ec6c 	ori	s2,s2,0xec6c
bfc00a98:	1612065c 	bne	s0,s2,bfc0240c <inst_error>
bfc00a9c:	00000000 	nop
bfc00aa0:	3c08d4b4 	lui	t0,0xd4b4
bfc00aa4:	3508de78 	ori	t0,t0,0xde78
bfc00aa8:	3409d9bd 	li	t1,0xd9bd
bfc00aac:	3510d9bd 	ori	s0,t0,0xd9bd
bfc00ab0:	3c12d4b4 	lui	s2,0xd4b4
bfc00ab4:	3652dffd 	ori	s2,s2,0xdffd
bfc00ab8:	16120654 	bne	s0,s2,bfc0240c <inst_error>
bfc00abc:	00000000 	nop
bfc00ac0:	3c087760 	lui	t0,0x7760
bfc00ac4:	35083f4e 	ori	t0,t0,0x3f4e
bfc00ac8:	240950d2 	li	t1,20690
bfc00acc:	351050d2 	ori	s0,t0,0x50d2
bfc00ad0:	3c127760 	lui	s2,0x7760
bfc00ad4:	36527fde 	ori	s2,s2,0x7fde
bfc00ad8:	1612064c 	bne	s0,s2,bfc0240c <inst_error>
bfc00adc:	00000000 	nop
bfc00ae0:	3c080bc0 	lui	t0,0xbc0
bfc00ae4:	3508eeb8 	ori	t0,t0,0xeeb8
bfc00ae8:	24095114 	li	t1,20756
bfc00aec:	35105114 	ori	s0,t0,0x5114
bfc00af0:	3c120bc0 	lui	s2,0xbc0
bfc00af4:	3652ffbc 	ori	s2,s2,0xffbc
bfc00af8:	16120644 	bne	s0,s2,bfc0240c <inst_error>
bfc00afc:	00000000 	nop
bfc00b00:	3c08b7b0 	lui	t0,0xb7b0
bfc00b04:	35081200 	ori	t0,t0,0x1200
bfc00b08:	3409f234 	li	t1,0xf234
bfc00b0c:	3510f234 	ori	s0,t0,0xf234
bfc00b10:	3c12b7b0 	lui	s2,0xb7b0
bfc00b14:	3652f234 	ori	s2,s2,0xf234
bfc00b18:	1612063c 	bne	s0,s2,bfc0240c <inst_error>
bfc00b1c:	00000000 	nop
bfc00b20:	3c08e352 	lui	t0,0xe352
bfc00b24:	35080ac2 	ori	t0,t0,0xac2
bfc00b28:	3409a71e 	li	t1,0xa71e
bfc00b2c:	3510a71e 	ori	s0,t0,0xa71e
bfc00b30:	3c12e352 	lui	s2,0xe352
bfc00b34:	3652afde 	ori	s2,s2,0xafde
bfc00b38:	16120634 	bne	s0,s2,bfc0240c <inst_error>
bfc00b3c:	00000000 	nop
bfc00b40:	3c085fb2 	lui	t0,0x5fb2
bfc00b44:	3508fcdc 	ori	t0,t0,0xfcdc
bfc00b48:	240977b7 	li	t1,30647
bfc00b4c:	351077b7 	ori	s0,t0,0x77b7
bfc00b50:	3c125fb2 	lui	s2,0x5fb2
bfc00b54:	3652ffff 	ori	s2,s2,0xffff
bfc00b58:	1612062c 	bne	s0,s2,bfc0240c <inst_error>
bfc00b5c:	00000000 	nop
bfc00b60:	3c083572 	lui	t0,0x3572
bfc00b64:	35083688 	ori	t0,t0,0x3688
bfc00b68:	24092c9c 	li	t1,11420
bfc00b6c:	35102c9c 	ori	s0,t0,0x2c9c
bfc00b70:	3c123572 	lui	s2,0x3572
bfc00b74:	36523e9c 	ori	s2,s2,0x3e9c
bfc00b78:	16120624 	bne	s0,s2,bfc0240c <inst_error>
bfc00b7c:	00000000 	nop
bfc00b80:	3c08d898 	lui	t0,0xd898
bfc00b84:	3508bbf2 	ori	t0,t0,0xbbf2
bfc00b88:	24095686 	li	t1,22150
bfc00b8c:	35105686 	ori	s0,t0,0x5686
bfc00b90:	3c12d898 	lui	s2,0xd898
bfc00b94:	3652fff6 	ori	s2,s2,0xfff6
bfc00b98:	1612061c 	bne	s0,s2,bfc0240c <inst_error>
bfc00b9c:	00000000 	nop
bfc00ba0:	3c0864be 	lui	t0,0x64be
bfc00ba4:	3508d538 	ori	t0,t0,0xd538
bfc00ba8:	2409691c 	li	t1,26908
bfc00bac:	3510691c 	ori	s0,t0,0x691c
bfc00bb0:	3c1264be 	lui	s2,0x64be
bfc00bb4:	3652fd3c 	ori	s2,s2,0xfd3c
bfc00bb8:	16120614 	bne	s0,s2,bfc0240c <inst_error>
bfc00bbc:	00000000 	nop
bfc00bc0:	3c08f2c9 	lui	t0,0xf2c9
bfc00bc4:	3508b240 	ori	t0,t0,0xb240
bfc00bc8:	2409618e 	li	t1,24974
bfc00bcc:	3510618e 	ori	s0,t0,0x618e
bfc00bd0:	3c12f2c9 	lui	s2,0xf2c9
bfc00bd4:	3652f3ce 	ori	s2,s2,0xf3ce
bfc00bd8:	1612060c 	bne	s0,s2,bfc0240c <inst_error>
bfc00bdc:	00000000 	nop
bfc00be0:	3c087c5b 	lui	t0,0x7c5b
bfc00be4:	35086584 	ori	t0,t0,0x6584
bfc00be8:	3409daac 	li	t1,0xdaac
bfc00bec:	3510daac 	ori	s0,t0,0xdaac
bfc00bf0:	3c127c5b 	lui	s2,0x7c5b
bfc00bf4:	3652ffac 	ori	s2,s2,0xffac
bfc00bf8:	16120604 	bne	s0,s2,bfc0240c <inst_error>
bfc00bfc:	00000000 	nop
bfc00c00:	3c08ad85 	lui	t0,0xad85
bfc00c04:	35087400 	ori	t0,t0,0x7400
bfc00c08:	24091ca4 	li	t1,7332
bfc00c0c:	35101ca4 	ori	s0,t0,0x1ca4
bfc00c10:	3c12ad85 	lui	s2,0xad85
bfc00c14:	36527ca4 	ori	s2,s2,0x7ca4
bfc00c18:	161205fc 	bne	s0,s2,bfc0240c <inst_error>
bfc00c1c:	00000000 	nop
bfc00c20:	3c0838e6 	lui	t0,0x38e6
bfc00c24:	350879d0 	ori	t0,t0,0x79d0
bfc00c28:	3409a9ea 	li	t1,0xa9ea
bfc00c2c:	3510a9ea 	ori	s0,t0,0xa9ea
bfc00c30:	3c1238e6 	lui	s2,0x38e6
bfc00c34:	3652f9fa 	ori	s2,s2,0xf9fa
bfc00c38:	161205f4 	bne	s0,s2,bfc0240c <inst_error>
bfc00c3c:	00000000 	nop
bfc00c40:	3c08f834 	lui	t0,0xf834
bfc00c44:	35087356 	ori	t0,t0,0x7356
bfc00c48:	24097910 	li	t1,30992
bfc00c4c:	35107910 	ori	s0,t0,0x7910
bfc00c50:	3c12f834 	lui	s2,0xf834
bfc00c54:	36527b56 	ori	s2,s2,0x7b56
bfc00c58:	161205ec 	bne	s0,s2,bfc0240c <inst_error>
bfc00c5c:	00000000 	nop
bfc00c60:	3c0828fd 	lui	t0,0x28fd
bfc00c64:	35089f34 	ori	t0,t0,0x9f34
bfc00c68:	24095240 	li	t1,21056
bfc00c6c:	35105240 	ori	s0,t0,0x5240
bfc00c70:	3c1228fd 	lui	s2,0x28fd
bfc00c74:	3652df74 	ori	s2,s2,0xdf74
bfc00c78:	161205e4 	bne	s0,s2,bfc0240c <inst_error>
bfc00c7c:	00000000 	nop
bfc00c80:	3c086d28 	lui	t0,0x6d28
bfc00c84:	35086d78 	ori	t0,t0,0x6d78
bfc00c88:	3409f403 	li	t1,0xf403
bfc00c8c:	3510f403 	ori	s0,t0,0xf403
bfc00c90:	3c126d28 	lui	s2,0x6d28
bfc00c94:	3652fd7b 	ori	s2,s2,0xfd7b
bfc00c98:	161205dc 	bne	s0,s2,bfc0240c <inst_error>
bfc00c9c:	00000000 	nop
bfc00ca0:	3c08ad87 	lui	t0,0xad87
bfc00ca4:	35086708 	ori	t0,t0,0x6708
bfc00ca8:	24093b68 	li	t1,15208
bfc00cac:	35103b68 	ori	s0,t0,0x3b68
bfc00cb0:	3c12ad87 	lui	s2,0xad87
bfc00cb4:	36527f68 	ori	s2,s2,0x7f68
bfc00cb8:	161205d4 	bne	s0,s2,bfc0240c <inst_error>
bfc00cbc:	00000000 	nop
bfc00cc0:	3c083025 	lui	t0,0x3025
bfc00cc4:	35080d28 	ori	t0,t0,0xd28
bfc00cc8:	3409f738 	li	t1,0xf738
bfc00ccc:	3510f738 	ori	s0,t0,0xf738
bfc00cd0:	3c123025 	lui	s2,0x3025
bfc00cd4:	3652ff38 	ori	s2,s2,0xff38
bfc00cd8:	161205cc 	bne	s0,s2,bfc0240c <inst_error>
bfc00cdc:	00000000 	nop
bfc00ce0:	3c08d01e 	lui	t0,0xd01e
bfc00ce4:	35089a08 	ori	t0,t0,0x9a08
bfc00ce8:	3409c97a 	li	t1,0xc97a
bfc00cec:	3510c97a 	ori	s0,t0,0xc97a
bfc00cf0:	3c12d01e 	lui	s2,0xd01e
bfc00cf4:	3652db7a 	ori	s2,s2,0xdb7a
bfc00cf8:	161205c4 	bne	s0,s2,bfc0240c <inst_error>
bfc00cfc:	00000000 	nop
bfc00d00:	3c08d8ca 	lui	t0,0xd8ca
bfc00d04:	3508d66c 	ori	t0,t0,0xd66c
bfc00d08:	240958af 	li	t1,22703
bfc00d0c:	351058af 	ori	s0,t0,0x58af
bfc00d10:	3c12d8ca 	lui	s2,0xd8ca
bfc00d14:	3652deef 	ori	s2,s2,0xdeef
bfc00d18:	161205bc 	bne	s0,s2,bfc0240c <inst_error>
bfc00d1c:	00000000 	nop
bfc00d20:	3c08e257 	lui	t0,0xe257
bfc00d24:	35089b80 	ori	t0,t0,0x9b80
bfc00d28:	3409af3e 	li	t1,0xaf3e
bfc00d2c:	3510af3e 	ori	s0,t0,0xaf3e
bfc00d30:	3c12e257 	lui	s2,0xe257
bfc00d34:	3652bfbe 	ori	s2,s2,0xbfbe
bfc00d38:	161205b4 	bne	s0,s2,bfc0240c <inst_error>
bfc00d3c:	00000000 	nop
bfc00d40:	3c081e4a 	lui	t0,0x1e4a
bfc00d44:	35081000 	ori	t0,t0,0x1000
bfc00d48:	240904b8 	li	t1,1208
bfc00d4c:	351004b8 	ori	s0,t0,0x4b8
bfc00d50:	3c121e4a 	lui	s2,0x1e4a
bfc00d54:	365214b8 	ori	s2,s2,0x14b8
bfc00d58:	161205ac 	bne	s0,s2,bfc0240c <inst_error>
bfc00d5c:	00000000 	nop
bfc00d60:	3c085346 	lui	t0,0x5346
bfc00d64:	3508e4d8 	ori	t0,t0,0xe4d8
bfc00d68:	3409e44b 	li	t1,0xe44b
bfc00d6c:	3510e44b 	ori	s0,t0,0xe44b
bfc00d70:	3c125346 	lui	s2,0x5346
bfc00d74:	3652e4db 	ori	s2,s2,0xe4db
bfc00d78:	161205a4 	bne	s0,s2,bfc0240c <inst_error>
bfc00d7c:	00000000 	nop
bfc00d80:	3c085cc3 	lui	t0,0x5cc3
bfc00d84:	35087c88 	ori	t0,t0,0x7c88
bfc00d88:	3409f94b 	li	t1,0xf94b
bfc00d8c:	3510f94b 	ori	s0,t0,0xf94b
bfc00d90:	3c125cc3 	lui	s2,0x5cc3
bfc00d94:	3652fdcb 	ori	s2,s2,0xfdcb
bfc00d98:	1612059c 	bne	s0,s2,bfc0240c <inst_error>
bfc00d9c:	00000000 	nop
bfc00da0:	3c08a697 	lui	t0,0xa697
bfc00da4:	35080491 	ori	t0,t0,0x491
bfc00da8:	24097752 	li	t1,30546
bfc00dac:	35107752 	ori	s0,t0,0x7752
bfc00db0:	3c12a697 	lui	s2,0xa697
bfc00db4:	365277d3 	ori	s2,s2,0x77d3
bfc00db8:	16120594 	bne	s0,s2,bfc0240c <inst_error>
bfc00dbc:	00000000 	nop
bfc00dc0:	3c085a71 	lui	t0,0x5a71
bfc00dc4:	350857fc 	ori	t0,t0,0x57fc
bfc00dc8:	3409e910 	li	t1,0xe910
bfc00dcc:	3510e910 	ori	s0,t0,0xe910
bfc00dd0:	3c125a71 	lui	s2,0x5a71
bfc00dd4:	3652fffc 	ori	s2,s2,0xfffc
bfc00dd8:	1612058c 	bne	s0,s2,bfc0240c <inst_error>
bfc00ddc:	00000000 	nop
bfc00de0:	3c08220a 	lui	t0,0x220a
bfc00de4:	35080c60 	ori	t0,t0,0xc60
bfc00de8:	3409f713 	li	t1,0xf713
bfc00dec:	3510f713 	ori	s0,t0,0xf713
bfc00df0:	3c12220a 	lui	s2,0x220a
bfc00df4:	3652ff73 	ori	s2,s2,0xff73
bfc00df8:	16120584 	bne	s0,s2,bfc0240c <inst_error>
bfc00dfc:	00000000 	nop
bfc00e00:	3c08ddb2 	lui	t0,0xddb2
bfc00e04:	35087280 	ori	t0,t0,0x7280
bfc00e08:	24095f2b 	li	t1,24363
bfc00e0c:	35105f2b 	ori	s0,t0,0x5f2b
bfc00e10:	3c12ddb2 	lui	s2,0xddb2
bfc00e14:	36527fab 	ori	s2,s2,0x7fab
bfc00e18:	1612057c 	bne	s0,s2,bfc0240c <inst_error>
bfc00e1c:	00000000 	nop
bfc00e20:	3c082ef9 	lui	t0,0x2ef9
bfc00e24:	35085576 	ori	t0,t0,0x5576
bfc00e28:	24094554 	li	t1,17748
bfc00e2c:	35104554 	ori	s0,t0,0x4554
bfc00e30:	3c122ef9 	lui	s2,0x2ef9
bfc00e34:	36525576 	ori	s2,s2,0x5576
bfc00e38:	16120574 	bne	s0,s2,bfc0240c <inst_error>
bfc00e3c:	00000000 	nop
bfc00e40:	3c08976e 	lui	t0,0x976e
bfc00e44:	35085e98 	ori	t0,t0,0x5e98
bfc00e48:	24090458 	li	t1,1112
bfc00e4c:	35100458 	ori	s0,t0,0x458
bfc00e50:	3c12976e 	lui	s2,0x976e
bfc00e54:	36525ed8 	ori	s2,s2,0x5ed8
bfc00e58:	1612056c 	bne	s0,s2,bfc0240c <inst_error>
bfc00e5c:	00000000 	nop
bfc00e60:	3c08354d 	lui	t0,0x354d
bfc00e64:	35080320 	ori	t0,t0,0x320
bfc00e68:	3409ea8d 	li	t1,0xea8d
bfc00e6c:	3510ea8d 	ori	s0,t0,0xea8d
bfc00e70:	3c12354d 	lui	s2,0x354d
bfc00e74:	3652ebad 	ori	s2,s2,0xebad
bfc00e78:	16120564 	bne	s0,s2,bfc0240c <inst_error>
bfc00e7c:	00000000 	nop
bfc00e80:	3c0894b6 	lui	t0,0x94b6
bfc00e84:	3508eb72 	ori	t0,t0,0xeb72
bfc00e88:	3409fbab 	li	t1,0xfbab
bfc00e8c:	3510fbab 	ori	s0,t0,0xfbab
bfc00e90:	3c1294b6 	lui	s2,0x94b6
bfc00e94:	3652fbfb 	ori	s2,s2,0xfbfb
bfc00e98:	1612055c 	bne	s0,s2,bfc0240c <inst_error>
bfc00e9c:	00000000 	nop
bfc00ea0:	3c08f652 	lui	t0,0xf652
bfc00ea4:	3508ddc0 	ori	t0,t0,0xddc0
bfc00ea8:	3409dcf6 	li	t1,0xdcf6
bfc00eac:	3510dcf6 	ori	s0,t0,0xdcf6
bfc00eb0:	3c12f652 	lui	s2,0xf652
bfc00eb4:	3652ddf6 	ori	s2,s2,0xddf6
bfc00eb8:	16120554 	bne	s0,s2,bfc0240c <inst_error>
bfc00ebc:	00000000 	nop
bfc00ec0:	3c0883f6 	lui	t0,0x83f6
bfc00ec4:	3508ded0 	ori	t0,t0,0xded0
bfc00ec8:	3409eb9e 	li	t1,0xeb9e
bfc00ecc:	3510eb9e 	ori	s0,t0,0xeb9e
bfc00ed0:	3c1283f6 	lui	s2,0x83f6
bfc00ed4:	3652ffde 	ori	s2,s2,0xffde
bfc00ed8:	1612054c 	bne	s0,s2,bfc0240c <inst_error>
bfc00edc:	00000000 	nop
bfc00ee0:	3c081576 	lui	t0,0x1576
bfc00ee4:	3508ee33 	ori	t0,t0,0xee33
bfc00ee8:	3409aaec 	li	t1,0xaaec
bfc00eec:	3510aaec 	ori	s0,t0,0xaaec
bfc00ef0:	3c121576 	lui	s2,0x1576
bfc00ef4:	3652eeff 	ori	s2,s2,0xeeff
bfc00ef8:	16120544 	bne	s0,s2,bfc0240c <inst_error>
bfc00efc:	00000000 	nop
bfc00f00:	3c08dec2 	lui	t0,0xdec2
bfc00f04:	3508831b 	ori	t0,t0,0x831b
bfc00f08:	24094f46 	li	t1,20294
bfc00f0c:	35104f46 	ori	s0,t0,0x4f46
bfc00f10:	3c12dec2 	lui	s2,0xdec2
bfc00f14:	3652cf5f 	ori	s2,s2,0xcf5f
bfc00f18:	1612053c 	bne	s0,s2,bfc0240c <inst_error>
bfc00f1c:	00000000 	nop
bfc00f20:	3c088afa 	lui	t0,0x8afa
bfc00f24:	35080658 	ori	t0,t0,0x658
bfc00f28:	3409994a 	li	t1,0x994a
bfc00f2c:	3510994a 	ori	s0,t0,0x994a
bfc00f30:	3c128afa 	lui	s2,0x8afa
bfc00f34:	36529f5a 	ori	s2,s2,0x9f5a
bfc00f38:	16120534 	bne	s0,s2,bfc0240c <inst_error>
bfc00f3c:	00000000 	nop
bfc00f40:	3c08db33 	lui	t0,0xdb33
bfc00f44:	3508e5a0 	ori	t0,t0,0xe5a0
bfc00f48:	3409b18f 	li	t1,0xb18f
bfc00f4c:	3510b18f 	ori	s0,t0,0xb18f
bfc00f50:	3c12db33 	lui	s2,0xdb33
bfc00f54:	3652f5af 	ori	s2,s2,0xf5af
bfc00f58:	1612052c 	bne	s0,s2,bfc0240c <inst_error>
bfc00f5c:	00000000 	nop
bfc00f60:	3c089527 	lui	t0,0x9527
bfc00f64:	3508dc50 	ori	t0,t0,0xdc50
bfc00f68:	24093de0 	li	t1,15840
bfc00f6c:	35103de0 	ori	s0,t0,0x3de0
bfc00f70:	3c129527 	lui	s2,0x9527
bfc00f74:	3652fdf0 	ori	s2,s2,0xfdf0
bfc00f78:	16120524 	bne	s0,s2,bfc0240c <inst_error>
bfc00f7c:	00000000 	nop
bfc00f80:	3c083973 	lui	t0,0x3973
bfc00f84:	35082998 	ori	t0,t0,0x2998
bfc00f88:	24094b1f 	li	t1,19231
bfc00f8c:	35104b1f 	ori	s0,t0,0x4b1f
bfc00f90:	3c123973 	lui	s2,0x3973
bfc00f94:	36526b9f 	ori	s2,s2,0x6b9f
bfc00f98:	1612051c 	bne	s0,s2,bfc0240c <inst_error>
bfc00f9c:	00000000 	nop
bfc00fa0:	3c0835b8 	lui	t0,0x35b8
bfc00fa4:	3508f6d8 	ori	t0,t0,0xf6d8
bfc00fa8:	34099c60 	li	t1,0x9c60
bfc00fac:	35109c60 	ori	s0,t0,0x9c60
bfc00fb0:	3c1235b8 	lui	s2,0x35b8
bfc00fb4:	3652fef8 	ori	s2,s2,0xfef8
bfc00fb8:	16120514 	bne	s0,s2,bfc0240c <inst_error>
bfc00fbc:	00000000 	nop
bfc00fc0:	3c08f023 	lui	t0,0xf023
bfc00fc4:	3508c8c6 	ori	t0,t0,0xc8c6
bfc00fc8:	3409ef4a 	li	t1,0xef4a
bfc00fcc:	3510ef4a 	ori	s0,t0,0xef4a
bfc00fd0:	3c12f023 	lui	s2,0xf023
bfc00fd4:	3652efce 	ori	s2,s2,0xefce
bfc00fd8:	1612050c 	bne	s0,s2,bfc0240c <inst_error>
bfc00fdc:	00000000 	nop
bfc00fe0:	3c085453 	lui	t0,0x5453
bfc00fe4:	3508363d 	ori	t0,t0,0x363d
bfc00fe8:	3409d113 	li	t1,0xd113
bfc00fec:	3510d113 	ori	s0,t0,0xd113
bfc00ff0:	3c125453 	lui	s2,0x5453
bfc00ff4:	3652f73f 	ori	s2,s2,0xf73f
bfc00ff8:	16120504 	bne	s0,s2,bfc0240c <inst_error>
bfc00ffc:	00000000 	nop
bfc01000:	3c08b38d 	lui	t0,0xb38d
bfc01004:	35083666 	ori	t0,t0,0x3666
bfc01008:	3409fb10 	li	t1,0xfb10
bfc0100c:	3510fb10 	ori	s0,t0,0xfb10
bfc01010:	3c12b38d 	lui	s2,0xb38d
bfc01014:	3652ff76 	ori	s2,s2,0xff76
bfc01018:	161204fc 	bne	s0,s2,bfc0240c <inst_error>
bfc0101c:	00000000 	nop
bfc01020:	3c084d3c 	lui	t0,0x4d3c
bfc01024:	35088579 	ori	t0,t0,0x8579
bfc01028:	3409a40c 	li	t1,0xa40c
bfc0102c:	3510a40c 	ori	s0,t0,0xa40c
bfc01030:	3c124d3c 	lui	s2,0x4d3c
bfc01034:	3652a57d 	ori	s2,s2,0xa57d
bfc01038:	161204f4 	bne	s0,s2,bfc0240c <inst_error>
bfc0103c:	00000000 	nop
bfc01040:	3c087d84 	lui	t0,0x7d84
bfc01044:	350830e8 	ori	t0,t0,0x30e8
bfc01048:	24097082 	li	t1,28802
bfc0104c:	35107082 	ori	s0,t0,0x7082
bfc01050:	3c127d84 	lui	s2,0x7d84
bfc01054:	365270ea 	ori	s2,s2,0x70ea
bfc01058:	161204ec 	bne	s0,s2,bfc0240c <inst_error>
bfc0105c:	00000000 	nop
bfc01060:	3c08bd3f 	lui	t0,0xbd3f
bfc01064:	35081480 	ori	t0,t0,0x1480
bfc01068:	3409ee60 	li	t1,0xee60
bfc0106c:	3510ee60 	ori	s0,t0,0xee60
bfc01070:	3c12bd3f 	lui	s2,0xbd3f
bfc01074:	3652fee0 	ori	s2,s2,0xfee0
bfc01078:	161204e4 	bne	s0,s2,bfc0240c <inst_error>
bfc0107c:	00000000 	nop
bfc01080:	3c086055 	lui	t0,0x6055
bfc01084:	3508ac72 	ori	t0,t0,0xac72
bfc01088:	240958ec 	li	t1,22764
bfc0108c:	351058ec 	ori	s0,t0,0x58ec
bfc01090:	3c126055 	lui	s2,0x6055
bfc01094:	3652fcfe 	ori	s2,s2,0xfcfe
bfc01098:	161204dc 	bne	s0,s2,bfc0240c <inst_error>
bfc0109c:	00000000 	nop
bfc010a0:	3c08efe1 	lui	t0,0xefe1
bfc010a4:	35083aa0 	ori	t0,t0,0x3aa0
bfc010a8:	3409d4d8 	li	t1,0xd4d8
bfc010ac:	3510d4d8 	ori	s0,t0,0xd4d8
bfc010b0:	3c12efe1 	lui	s2,0xefe1
bfc010b4:	3652fef8 	ori	s2,s2,0xfef8
bfc010b8:	161204d4 	bne	s0,s2,bfc0240c <inst_error>
bfc010bc:	00000000 	nop
bfc010c0:	3c08b1d6 	lui	t0,0xb1d6
bfc010c4:	350823aa 	ori	t0,t0,0x23aa
bfc010c8:	3409fbd0 	li	t1,0xfbd0
bfc010cc:	3510fbd0 	ori	s0,t0,0xfbd0
bfc010d0:	3c12b1d6 	lui	s2,0xb1d6
bfc010d4:	3652fbfa 	ori	s2,s2,0xfbfa
bfc010d8:	161204cc 	bne	s0,s2,bfc0240c <inst_error>
bfc010dc:	00000000 	nop
bfc010e0:	3c08953f 	lui	t0,0x953f
bfc010e4:	3508f764 	ori	t0,t0,0xf764
bfc010e8:	3409a6fc 	li	t1,0xa6fc
bfc010ec:	3510a6fc 	ori	s0,t0,0xa6fc
bfc010f0:	3c12953f 	lui	s2,0x953f
bfc010f4:	3652f7fc 	ori	s2,s2,0xf7fc
bfc010f8:	161204c4 	bne	s0,s2,bfc0240c <inst_error>
bfc010fc:	00000000 	nop
bfc01100:	3c088bd5 	lui	t0,0x8bd5
bfc01104:	35089790 	ori	t0,t0,0x9790
bfc01108:	3409e6c0 	li	t1,0xe6c0
bfc0110c:	3510e6c0 	ori	s0,t0,0xe6c0
bfc01110:	3c128bd5 	lui	s2,0x8bd5
bfc01114:	3652f7d0 	ori	s2,s2,0xf7d0
bfc01118:	161204bc 	bne	s0,s2,bfc0240c <inst_error>
bfc0111c:	00000000 	nop
bfc01120:	3c0813ef 	lui	t0,0x13ef
bfc01124:	350859ce 	ori	t0,t0,0x59ce
bfc01128:	340998a4 	li	t1,0x98a4
bfc0112c:	351098a4 	ori	s0,t0,0x98a4
bfc01130:	3c1213ef 	lui	s2,0x13ef
bfc01134:	3652d9ee 	ori	s2,s2,0xd9ee
bfc01138:	161204b4 	bne	s0,s2,bfc0240c <inst_error>
bfc0113c:	00000000 	nop
bfc01140:	3c08bc31 	lui	t0,0xbc31
bfc01144:	3508829c 	ori	t0,t0,0x829c
bfc01148:	3409c026 	li	t1,0xc026
bfc0114c:	3510c026 	ori	s0,t0,0xc026
bfc01150:	3c12bc31 	lui	s2,0xbc31
bfc01154:	3652c2be 	ori	s2,s2,0xc2be
bfc01158:	161204ac 	bne	s0,s2,bfc0240c <inst_error>
bfc0115c:	00000000 	nop
bfc01160:	3c084e4c 	lui	t0,0x4e4c
bfc01164:	35081a00 	ori	t0,t0,0x1a00
bfc01168:	3409fccd 	li	t1,0xfccd
bfc0116c:	3510fccd 	ori	s0,t0,0xfccd
bfc01170:	3c124e4c 	lui	s2,0x4e4c
bfc01174:	3652fecd 	ori	s2,s2,0xfecd
bfc01178:	161204a4 	bne	s0,s2,bfc0240c <inst_error>
bfc0117c:	00000000 	nop
bfc01180:	3c088e57 	lui	t0,0x8e57
bfc01184:	3508c6a2 	ori	t0,t0,0xc6a2
bfc01188:	3409943f 	li	t1,0x943f
bfc0118c:	3510943f 	ori	s0,t0,0x943f
bfc01190:	3c128e57 	lui	s2,0x8e57
bfc01194:	3652d6bf 	ori	s2,s2,0xd6bf
bfc01198:	1612049c 	bne	s0,s2,bfc0240c <inst_error>
bfc0119c:	00000000 	nop
bfc011a0:	3c08bd1c 	lui	t0,0xbd1c
bfc011a4:	350806ed 	ori	t0,t0,0x6ed
bfc011a8:	24093c65 	li	t1,15461
bfc011ac:	35103c65 	ori	s0,t0,0x3c65
bfc011b0:	3c12bd1c 	lui	s2,0xbd1c
bfc011b4:	36523eed 	ori	s2,s2,0x3eed
bfc011b8:	16120494 	bne	s0,s2,bfc0240c <inst_error>
bfc011bc:	00000000 	nop
bfc011c0:	3c08efaf 	lui	t0,0xefaf
bfc011c4:	3508cd50 	ori	t0,t0,0xcd50
bfc011c8:	240930aa 	li	t1,12458
bfc011cc:	351030aa 	ori	s0,t0,0x30aa
bfc011d0:	3c12efaf 	lui	s2,0xefaf
bfc011d4:	3652fdfa 	ori	s2,s2,0xfdfa
bfc011d8:	1612048c 	bne	s0,s2,bfc0240c <inst_error>
bfc011dc:	00000000 	nop
bfc011e0:	3c08a2cf 	lui	t0,0xa2cf
bfc011e4:	35086860 	ori	t0,t0,0x6860
bfc011e8:	3409ac72 	li	t1,0xac72
bfc011ec:	3510ac72 	ori	s0,t0,0xac72
bfc011f0:	3c12a2cf 	lui	s2,0xa2cf
bfc011f4:	3652ec72 	ori	s2,s2,0xec72
bfc011f8:	16120484 	bne	s0,s2,bfc0240c <inst_error>
bfc011fc:	00000000 	nop
bfc01200:	3c08e082 	lui	t0,0xe082
bfc01204:	3508dd28 	ori	t0,t0,0xdd28
bfc01208:	3409c7e5 	li	t1,0xc7e5
bfc0120c:	3510c7e5 	ori	s0,t0,0xc7e5
bfc01210:	3c12e082 	lui	s2,0xe082
bfc01214:	3652dfed 	ori	s2,s2,0xdfed
bfc01218:	1612047c 	bne	s0,s2,bfc0240c <inst_error>
bfc0121c:	00000000 	nop
bfc01220:	3c0818ed 	lui	t0,0x18ed
bfc01224:	350812b4 	ori	t0,t0,0x12b4
bfc01228:	3409f09b 	li	t1,0xf09b
bfc0122c:	3510f09b 	ori	s0,t0,0xf09b
bfc01230:	3c1218ed 	lui	s2,0x18ed
bfc01234:	3652f2bf 	ori	s2,s2,0xf2bf
bfc01238:	16120474 	bne	s0,s2,bfc0240c <inst_error>
bfc0123c:	00000000 	nop
bfc01240:	3c08c9f7 	lui	t0,0xc9f7
bfc01244:	35083d9f 	ori	t0,t0,0x3d9f
bfc01248:	3409b36c 	li	t1,0xb36c
bfc0124c:	3510b36c 	ori	s0,t0,0xb36c
bfc01250:	3c12c9f7 	lui	s2,0xc9f7
bfc01254:	3652bfff 	ori	s2,s2,0xbfff
bfc01258:	1612046c 	bne	s0,s2,bfc0240c <inst_error>
bfc0125c:	00000000 	nop
bfc01260:	3c08be45 	lui	t0,0xbe45
bfc01264:	3508a000 	ori	t0,t0,0xa000
bfc01268:	3409b9ff 	li	t1,0xb9ff
bfc0126c:	3510b9ff 	ori	s0,t0,0xb9ff
bfc01270:	3c12be45 	lui	s2,0xbe45
bfc01274:	3652b9ff 	ori	s2,s2,0xb9ff
bfc01278:	16120464 	bne	s0,s2,bfc0240c <inst_error>
bfc0127c:	00000000 	nop
bfc01280:	3c08ded2 	lui	t0,0xded2
bfc01284:	3508a4a8 	ori	t0,t0,0xa4a8
bfc01288:	24091304 	li	t1,4868
bfc0128c:	35101304 	ori	s0,t0,0x1304
bfc01290:	3c12ded2 	lui	s2,0xded2
bfc01294:	3652b7ac 	ori	s2,s2,0xb7ac
bfc01298:	1612045c 	bne	s0,s2,bfc0240c <inst_error>
bfc0129c:	00000000 	nop
bfc012a0:	3c089aaa 	lui	t0,0x9aaa
bfc012a4:	3508ef18 	ori	t0,t0,0xef18
bfc012a8:	34099390 	li	t1,0x9390
bfc012ac:	35109390 	ori	s0,t0,0x9390
bfc012b0:	3c129aaa 	lui	s2,0x9aaa
bfc012b4:	3652ff98 	ori	s2,s2,0xff98
bfc012b8:	16120454 	bne	s0,s2,bfc0240c <inst_error>
bfc012bc:	00000000 	nop
bfc012c0:	3c08dbce 	lui	t0,0xdbce
bfc012c4:	35081804 	ori	t0,t0,0x1804
bfc012c8:	24096a8c 	li	t1,27276
bfc012cc:	35106a8c 	ori	s0,t0,0x6a8c
bfc012d0:	3c12dbce 	lui	s2,0xdbce
bfc012d4:	36527a8c 	ori	s2,s2,0x7a8c
bfc012d8:	1612044c 	bne	s0,s2,bfc0240c <inst_error>
bfc012dc:	00000000 	nop
bfc012e0:	3c0846d6 	lui	t0,0x46d6
bfc012e4:	350819d4 	ori	t0,t0,0x19d4
bfc012e8:	240928a0 	li	t1,10400
bfc012ec:	351028a0 	ori	s0,t0,0x28a0
bfc012f0:	3c1246d6 	lui	s2,0x46d6
bfc012f4:	365239f4 	ori	s2,s2,0x39f4
bfc012f8:	16120444 	bne	s0,s2,bfc0240c <inst_error>
bfc012fc:	00000000 	nop
bfc01300:	3c08c293 	lui	t0,0xc293
bfc01304:	35085100 	ori	t0,t0,0x5100
bfc01308:	3409946c 	li	t1,0x946c
bfc0130c:	3510946c 	ori	s0,t0,0x946c
bfc01310:	3c12c293 	lui	s2,0xc293
bfc01314:	3652d56c 	ori	s2,s2,0xd56c
bfc01318:	1612043c 	bne	s0,s2,bfc0240c <inst_error>
bfc0131c:	00000000 	nop
bfc01320:	3c08fef8 	lui	t0,0xfef8
bfc01324:	35089ad6 	ori	t0,t0,0x9ad6
bfc01328:	34099210 	li	t1,0x9210
bfc0132c:	35109210 	ori	s0,t0,0x9210
bfc01330:	3c12fef8 	lui	s2,0xfef8
bfc01334:	36529ad6 	ori	s2,s2,0x9ad6
bfc01338:	16120434 	bne	s0,s2,bfc0240c <inst_error>
bfc0133c:	00000000 	nop
bfc01340:	3c082ab7 	lui	t0,0x2ab7
bfc01344:	3508a890 	ori	t0,t0,0xa890
bfc01348:	34098560 	li	t1,0x8560
bfc0134c:	35108560 	ori	s0,t0,0x8560
bfc01350:	3c122ab7 	lui	s2,0x2ab7
bfc01354:	3652adf0 	ori	s2,s2,0xadf0
bfc01358:	1612042c 	bne	s0,s2,bfc0240c <inst_error>
bfc0135c:	00000000 	nop
bfc01360:	3c08ce9e 	lui	t0,0xce9e
bfc01364:	35081788 	ori	t0,t0,0x1788
bfc01368:	3409a9c4 	li	t1,0xa9c4
bfc0136c:	3510a9c4 	ori	s0,t0,0xa9c4
bfc01370:	3c12ce9e 	lui	s2,0xce9e
bfc01374:	3652bfcc 	ori	s2,s2,0xbfcc
bfc01378:	16120424 	bne	s0,s2,bfc0240c <inst_error>
bfc0137c:	00000000 	nop
bfc01380:	3c082c4b 	lui	t0,0x2c4b
bfc01384:	3508a739 	ori	t0,t0,0xa739
bfc01388:	3409b902 	li	t1,0xb902
bfc0138c:	3510b902 	ori	s0,t0,0xb902
bfc01390:	3c122c4b 	lui	s2,0x2c4b
bfc01394:	3652bf3b 	ori	s2,s2,0xbf3b
bfc01398:	1612041c 	bne	s0,s2,bfc0240c <inst_error>
bfc0139c:	00000000 	nop
bfc013a0:	3c08fbaa 	lui	t0,0xfbaa
bfc013a4:	3508c1b8 	ori	t0,t0,0xc1b8
bfc013a8:	3409e0d2 	li	t1,0xe0d2
bfc013ac:	3510e0d2 	ori	s0,t0,0xe0d2
bfc013b0:	3c12fbaa 	lui	s2,0xfbaa
bfc013b4:	3652e1fa 	ori	s2,s2,0xe1fa
bfc013b8:	16120414 	bne	s0,s2,bfc0240c <inst_error>
bfc013bc:	00000000 	nop
bfc013c0:	3c0847ae 	lui	t0,0x47ae
bfc013c4:	35087e9c 	ori	t0,t0,0x7e9c
bfc013c8:	24094ee0 	li	t1,20192
bfc013cc:	35104ee0 	ori	s0,t0,0x4ee0
bfc013d0:	3c1247ae 	lui	s2,0x47ae
bfc013d4:	36527efc 	ori	s2,s2,0x7efc
bfc013d8:	1612040c 	bne	s0,s2,bfc0240c <inst_error>
bfc013dc:	00000000 	nop
bfc013e0:	3c08b90d 	lui	t0,0xb90d
bfc013e4:	35081d4e 	ori	t0,t0,0x1d4e
bfc013e8:	3409d2d0 	li	t1,0xd2d0
bfc013ec:	3510d2d0 	ori	s0,t0,0xd2d0
bfc013f0:	3c12b90d 	lui	s2,0xb90d
bfc013f4:	3652dfde 	ori	s2,s2,0xdfde
bfc013f8:	16120404 	bne	s0,s2,bfc0240c <inst_error>
bfc013fc:	00000000 	nop
bfc01400:	3c08c313 	lui	t0,0xc313
bfc01404:	35084de6 	ori	t0,t0,0x4de6
bfc01408:	24096126 	li	t1,24870
bfc0140c:	35106126 	ori	s0,t0,0x6126
bfc01410:	3c12c313 	lui	s2,0xc313
bfc01414:	36526de6 	ori	s2,s2,0x6de6
bfc01418:	161203fc 	bne	s0,s2,bfc0240c <inst_error>
bfc0141c:	00000000 	nop
bfc01420:	3c081840 	lui	t0,0x1840
bfc01424:	35081aaa 	ori	t0,t0,0x1aaa
bfc01428:	340992ca 	li	t1,0x92ca
bfc0142c:	351092ca 	ori	s0,t0,0x92ca
bfc01430:	3c121840 	lui	s2,0x1840
bfc01434:	36529aea 	ori	s2,s2,0x9aea
bfc01438:	161203f4 	bne	s0,s2,bfc0240c <inst_error>
bfc0143c:	00000000 	nop
bfc01440:	3c08a67d 	lui	t0,0xa67d
bfc01444:	3508ca53 	ori	t0,t0,0xca53
bfc01448:	24094b23 	li	t1,19235
bfc0144c:	35104b23 	ori	s0,t0,0x4b23
bfc01450:	3c12a67d 	lui	s2,0xa67d
bfc01454:	3652cb73 	ori	s2,s2,0xcb73
bfc01458:	161203ec 	bne	s0,s2,bfc0240c <inst_error>
bfc0145c:	00000000 	nop
bfc01460:	3c08b6d7 	lui	t0,0xb6d7
bfc01464:	3508927a 	ori	t0,t0,0x927a
bfc01468:	2409336e 	li	t1,13166
bfc0146c:	3510336e 	ori	s0,t0,0x336e
bfc01470:	3c12b6d7 	lui	s2,0xb6d7
bfc01474:	3652b37e 	ori	s2,s2,0xb37e
bfc01478:	161203e4 	bne	s0,s2,bfc0240c <inst_error>
bfc0147c:	00000000 	nop
bfc01480:	3c087b6e 	lui	t0,0x7b6e
bfc01484:	350894d8 	ori	t0,t0,0x94d8
bfc01488:	3409b6cd 	li	t1,0xb6cd
bfc0148c:	3510b6cd 	ori	s0,t0,0xb6cd
bfc01490:	3c127b6e 	lui	s2,0x7b6e
bfc01494:	3652b6dd 	ori	s2,s2,0xb6dd
bfc01498:	161203dc 	bne	s0,s2,bfc0240c <inst_error>
bfc0149c:	00000000 	nop
bfc014a0:	3c08de1e 	lui	t0,0xde1e
bfc014a4:	3508bbda 	ori	t0,t0,0xbbda
bfc014a8:	340989c0 	li	t1,0x89c0
bfc014ac:	351089c0 	ori	s0,t0,0x89c0
bfc014b0:	3c12de1e 	lui	s2,0xde1e
bfc014b4:	3652bbda 	ori	s2,s2,0xbbda
bfc014b8:	161203d4 	bne	s0,s2,bfc0240c <inst_error>
bfc014bc:	00000000 	nop
bfc014c0:	3c089965 	lui	t0,0x9965
bfc014c4:	3508f113 	ori	t0,t0,0xf113
bfc014c8:	3409f928 	li	t1,0xf928
bfc014cc:	3510f928 	ori	s0,t0,0xf928
bfc014d0:	3c129965 	lui	s2,0x9965
bfc014d4:	3652f93b 	ori	s2,s2,0xf93b
bfc014d8:	161203cc 	bne	s0,s2,bfc0240c <inst_error>
bfc014dc:	00000000 	nop
bfc014e0:	3c08bc0f 	lui	t0,0xbc0f
bfc014e4:	35080ab0 	ori	t0,t0,0xab0
bfc014e8:	3409c83a 	li	t1,0xc83a
bfc014ec:	3510c83a 	ori	s0,t0,0xc83a
bfc014f0:	3c12bc0f 	lui	s2,0xbc0f
bfc014f4:	3652caba 	ori	s2,s2,0xcaba
bfc014f8:	161203c4 	bne	s0,s2,bfc0240c <inst_error>
bfc014fc:	00000000 	nop
bfc01500:	3c087b99 	lui	t0,0x7b99
bfc01504:	350813ee 	ori	t0,t0,0x13ee
bfc01508:	3409fee5 	li	t1,0xfee5
bfc0150c:	3510fee5 	ori	s0,t0,0xfee5
bfc01510:	3c127b99 	lui	s2,0x7b99
bfc01514:	3652ffef 	ori	s2,s2,0xffef
bfc01518:	161203bc 	bne	s0,s2,bfc0240c <inst_error>
bfc0151c:	00000000 	nop
bfc01520:	3c085b94 	lui	t0,0x5b94
bfc01524:	350851e8 	ori	t0,t0,0x51e8
bfc01528:	34098337 	li	t1,0x8337
bfc0152c:	35108337 	ori	s0,t0,0x8337
bfc01530:	3c125b94 	lui	s2,0x5b94
bfc01534:	3652d3ff 	ori	s2,s2,0xd3ff
bfc01538:	161203b4 	bne	s0,s2,bfc0240c <inst_error>
bfc0153c:	00000000 	nop
bfc01540:	3c0823f9 	lui	t0,0x23f9
bfc01544:	35083c34 	ori	t0,t0,0x3c34
bfc01548:	3409d4a2 	li	t1,0xd4a2
bfc0154c:	3510d4a2 	ori	s0,t0,0xd4a2
bfc01550:	3c1223f9 	lui	s2,0x23f9
bfc01554:	3652fcb6 	ori	s2,s2,0xfcb6
bfc01558:	161203ac 	bne	s0,s2,bfc0240c <inst_error>
bfc0155c:	00000000 	nop
bfc01560:	3c083bf9 	lui	t0,0x3bf9
bfc01564:	35084812 	ori	t0,t0,0x4812
bfc01568:	34099c4c 	li	t1,0x9c4c
bfc0156c:	35109c4c 	ori	s0,t0,0x9c4c
bfc01570:	3c123bf9 	lui	s2,0x3bf9
bfc01574:	3652dc5e 	ori	s2,s2,0xdc5e
bfc01578:	161203a4 	bne	s0,s2,bfc0240c <inst_error>
bfc0157c:	00000000 	nop
bfc01580:	3c0810ec 	lui	t0,0x10ec
bfc01584:	3508e560 	ori	t0,t0,0xe560
bfc01588:	24090324 	li	t1,804
bfc0158c:	35100324 	ori	s0,t0,0x324
bfc01590:	3c1210ec 	lui	s2,0x10ec
bfc01594:	3652e764 	ori	s2,s2,0xe764
bfc01598:	1612039c 	bne	s0,s2,bfc0240c <inst_error>
bfc0159c:	00000000 	nop
bfc015a0:	3c080d86 	lui	t0,0xd86
bfc015a4:	3508f558 	ori	t0,t0,0xf558
bfc015a8:	24091489 	li	t1,5257
bfc015ac:	35101489 	ori	s0,t0,0x1489
bfc015b0:	3c120d86 	lui	s2,0xd86
bfc015b4:	3652f5d9 	ori	s2,s2,0xf5d9
bfc015b8:	16120394 	bne	s0,s2,bfc0240c <inst_error>
bfc015bc:	00000000 	nop
bfc015c0:	3c0824bc 	lui	t0,0x24bc
bfc015c4:	3508972d 	ori	t0,t0,0x972d
bfc015c8:	340991d0 	li	t1,0x91d0
bfc015cc:	351091d0 	ori	s0,t0,0x91d0
bfc015d0:	3c1224bc 	lui	s2,0x24bc
bfc015d4:	365297fd 	ori	s2,s2,0x97fd
bfc015d8:	1612038c 	bne	s0,s2,bfc0240c <inst_error>
bfc015dc:	00000000 	nop
bfc015e0:	3c08b6d1 	lui	t0,0xb6d1
bfc015e4:	35087ce6 	ori	t0,t0,0x7ce6
bfc015e8:	3409974a 	li	t1,0x974a
bfc015ec:	3510974a 	ori	s0,t0,0x974a
bfc015f0:	3c12b6d1 	lui	s2,0xb6d1
bfc015f4:	3652ffee 	ori	s2,s2,0xffee
bfc015f8:	16120384 	bne	s0,s2,bfc0240c <inst_error>
bfc015fc:	00000000 	nop
bfc01600:	3c080bb6 	lui	t0,0xbb6
bfc01604:	350882bc 	ori	t0,t0,0x82bc
bfc01608:	24091ec0 	li	t1,7872
bfc0160c:	35101ec0 	ori	s0,t0,0x1ec0
bfc01610:	3c120bb6 	lui	s2,0xbb6
bfc01614:	36529efc 	ori	s2,s2,0x9efc
bfc01618:	1612037c 	bne	s0,s2,bfc0240c <inst_error>
bfc0161c:	00000000 	nop
bfc01620:	3c087ab4 	lui	t0,0x7ab4
bfc01624:	35085fe2 	ori	t0,t0,0x5fe2
bfc01628:	240911c2 	li	t1,4546
bfc0162c:	351011c2 	ori	s0,t0,0x11c2
bfc01630:	3c127ab4 	lui	s2,0x7ab4
bfc01634:	36525fe2 	ori	s2,s2,0x5fe2
bfc01638:	16120374 	bne	s0,s2,bfc0240c <inst_error>
bfc0163c:	00000000 	nop
bfc01640:	3c08bfcb 	lui	t0,0xbfcb
bfc01644:	3508a888 	ori	t0,t0,0xa888
bfc01648:	3409b840 	li	t1,0xb840
bfc0164c:	3510b840 	ori	s0,t0,0xb840
bfc01650:	3c12bfcb 	lui	s2,0xbfcb
bfc01654:	3652b8c8 	ori	s2,s2,0xb8c8
bfc01658:	1612036c 	bne	s0,s2,bfc0240c <inst_error>
bfc0165c:	00000000 	nop
bfc01660:	3c0889d4 	lui	t0,0x89d4
bfc01664:	35089b8f 	ori	t0,t0,0x9b8f
bfc01668:	3409860a 	li	t1,0x860a
bfc0166c:	3510860a 	ori	s0,t0,0x860a
bfc01670:	3c1289d4 	lui	s2,0x89d4
bfc01674:	36529f8f 	ori	s2,s2,0x9f8f
bfc01678:	16120364 	bne	s0,s2,bfc0240c <inst_error>
bfc0167c:	00000000 	nop
bfc01680:	3c08739b 	lui	t0,0x739b
bfc01684:	3508e6e8 	ori	t0,t0,0xe6e8
bfc01688:	240906c2 	li	t1,1730
bfc0168c:	351006c2 	ori	s0,t0,0x6c2
bfc01690:	3c12739b 	lui	s2,0x739b
bfc01694:	3652e6ea 	ori	s2,s2,0xe6ea
bfc01698:	1612035c 	bne	s0,s2,bfc0240c <inst_error>
bfc0169c:	00000000 	nop
bfc016a0:	3c08a9b4 	lui	t0,0xa9b4
bfc016a4:	35082b00 	ori	t0,t0,0x2b00
bfc016a8:	34099a44 	li	t1,0x9a44
bfc016ac:	35109a44 	ori	s0,t0,0x9a44
bfc016b0:	3c12a9b4 	lui	s2,0xa9b4
bfc016b4:	3652bb44 	ori	s2,s2,0xbb44
bfc016b8:	16120354 	bne	s0,s2,bfc0240c <inst_error>
bfc016bc:	00000000 	nop
bfc016c0:	3c087651 	lui	t0,0x7651
bfc016c4:	35084d40 	ori	t0,t0,0x4d40
bfc016c8:	24090204 	li	t1,516
bfc016cc:	35100204 	ori	s0,t0,0x204
bfc016d0:	3c127651 	lui	s2,0x7651
bfc016d4:	36524f44 	ori	s2,s2,0x4f44
bfc016d8:	1612034c 	bne	s0,s2,bfc0240c <inst_error>
bfc016dc:	00000000 	nop
bfc016e0:	3c0868f8 	lui	t0,0x68f8
bfc016e4:	35080800 	ori	t0,t0,0x800
bfc016e8:	3409c166 	li	t1,0xc166
bfc016ec:	3510c166 	ori	s0,t0,0xc166
bfc016f0:	3c1268f8 	lui	s2,0x68f8
bfc016f4:	3652c966 	ori	s2,s2,0xc966
bfc016f8:	16120344 	bne	s0,s2,bfc0240c <inst_error>
bfc016fc:	00000000 	nop
bfc01700:	3c08035d 	lui	t0,0x35d
bfc01704:	3508ac7e 	ori	t0,t0,0xac7e
bfc01708:	3409ebc8 	li	t1,0xebc8
bfc0170c:	3510ebc8 	ori	s0,t0,0xebc8
bfc01710:	3c12035d 	lui	s2,0x35d
bfc01714:	3652effe 	ori	s2,s2,0xeffe
bfc01718:	1612033c 	bne	s0,s2,bfc0240c <inst_error>
bfc0171c:	00000000 	nop
bfc01720:	3c08d1b9 	lui	t0,0xd1b9
bfc01724:	35084930 	ori	t0,t0,0x4930
bfc01728:	3409871f 	li	t1,0x871f
bfc0172c:	3510871f 	ori	s0,t0,0x871f
bfc01730:	3c12d1b9 	lui	s2,0xd1b9
bfc01734:	3652cf3f 	ori	s2,s2,0xcf3f
bfc01738:	16120334 	bne	s0,s2,bfc0240c <inst_error>
bfc0173c:	00000000 	nop
bfc01740:	3c08d5b8 	lui	t0,0xd5b8
bfc01744:	35085b86 	ori	t0,t0,0x5b86
bfc01748:	2409043e 	li	t1,1086
bfc0174c:	3510043e 	ori	s0,t0,0x43e
bfc01750:	3c12d5b8 	lui	s2,0xd5b8
bfc01754:	36525fbe 	ori	s2,s2,0x5fbe
bfc01758:	1612032c 	bne	s0,s2,bfc0240c <inst_error>
bfc0175c:	00000000 	nop
bfc01760:	3c082d26 	lui	t0,0x2d26
bfc01764:	350838e0 	ori	t0,t0,0x38e0
bfc01768:	240937b0 	li	t1,14256
bfc0176c:	351037b0 	ori	s0,t0,0x37b0
bfc01770:	3c122d26 	lui	s2,0x2d26
bfc01774:	36523ff0 	ori	s2,s2,0x3ff0
bfc01778:	16120324 	bne	s0,s2,bfc0240c <inst_error>
bfc0177c:	00000000 	nop
bfc01780:	3c08e47c 	lui	t0,0xe47c
bfc01784:	350881bc 	ori	t0,t0,0x81bc
bfc01788:	240965d7 	li	t1,26071
bfc0178c:	351065d7 	ori	s0,t0,0x65d7
bfc01790:	3c12e47c 	lui	s2,0xe47c
bfc01794:	3652e5ff 	ori	s2,s2,0xe5ff
bfc01798:	1612031c 	bne	s0,s2,bfc0240c <inst_error>
bfc0179c:	00000000 	nop
bfc017a0:	3c08e8b4 	lui	t0,0xe8b4
bfc017a4:	350883f3 	ori	t0,t0,0x83f3
bfc017a8:	3409a39a 	li	t1,0xa39a
bfc017ac:	3510a39a 	ori	s0,t0,0xa39a
bfc017b0:	3c12e8b4 	lui	s2,0xe8b4
bfc017b4:	3652a3fb 	ori	s2,s2,0xa3fb
bfc017b8:	16120314 	bne	s0,s2,bfc0240c <inst_error>
bfc017bc:	00000000 	nop
bfc017c0:	3c08fe58 	lui	t0,0xfe58
bfc017c4:	3508c120 	ori	t0,t0,0xc120
bfc017c8:	2409192c 	li	t1,6444
bfc017cc:	3510192c 	ori	s0,t0,0x192c
bfc017d0:	3c12fe58 	lui	s2,0xfe58
bfc017d4:	3652d92c 	ori	s2,s2,0xd92c
bfc017d8:	1612030c 	bne	s0,s2,bfc0240c <inst_error>
bfc017dc:	00000000 	nop
bfc017e0:	3c085eed 	lui	t0,0x5eed
bfc017e4:	35084089 	ori	t0,t0,0x4089
bfc017e8:	24091bdc 	li	t1,7132
bfc017ec:	35101bdc 	ori	s0,t0,0x1bdc
bfc017f0:	3c125eed 	lui	s2,0x5eed
bfc017f4:	36525bdd 	ori	s2,s2,0x5bdd
bfc017f8:	16120304 	bne	s0,s2,bfc0240c <inst_error>
bfc017fc:	00000000 	nop
bfc01800:	3c08418d 	lui	t0,0x418d
bfc01804:	35089d98 	ori	t0,t0,0x9d98
bfc01808:	34098409 	li	t1,0x8409
bfc0180c:	35108409 	ori	s0,t0,0x8409
bfc01810:	3c12418d 	lui	s2,0x418d
bfc01814:	36529d99 	ori	s2,s2,0x9d99
bfc01818:	161202fc 	bne	s0,s2,bfc0240c <inst_error>
bfc0181c:	00000000 	nop
bfc01820:	3c086870 	lui	t0,0x6870
bfc01824:	35083e32 	ori	t0,t0,0x3e32
bfc01828:	34098d56 	li	t1,0x8d56
bfc0182c:	35108d56 	ori	s0,t0,0x8d56
bfc01830:	3c126870 	lui	s2,0x6870
bfc01834:	3652bf76 	ori	s2,s2,0xbf76
bfc01838:	161202f4 	bne	s0,s2,bfc0240c <inst_error>
bfc0183c:	00000000 	nop
bfc01840:	3c08a5aa 	lui	t0,0xa5aa
bfc01844:	35088a80 	ori	t0,t0,0x8a80
bfc01848:	24093ad2 	li	t1,15058
bfc0184c:	35103ad2 	ori	s0,t0,0x3ad2
bfc01850:	3c12a5aa 	lui	s2,0xa5aa
bfc01854:	3652bad2 	ori	s2,s2,0xbad2
bfc01858:	161202ec 	bne	s0,s2,bfc0240c <inst_error>
bfc0185c:	00000000 	nop
bfc01860:	3c081345 	lui	t0,0x1345
bfc01864:	3508c932 	ori	t0,t0,0xc932
bfc01868:	24096247 	li	t1,25159
bfc0186c:	35106247 	ori	s0,t0,0x6247
bfc01870:	3c121345 	lui	s2,0x1345
bfc01874:	3652eb77 	ori	s2,s2,0xeb77
bfc01878:	161202e4 	bne	s0,s2,bfc0240c <inst_error>
bfc0187c:	00000000 	nop
bfc01880:	3c089e77 	lui	t0,0x9e77
bfc01884:	35088cec 	ori	t0,t0,0x8cec
bfc01888:	3409c5df 	li	t1,0xc5df
bfc0188c:	3510c5df 	ori	s0,t0,0xc5df
bfc01890:	3c129e77 	lui	s2,0x9e77
bfc01894:	3652cdff 	ori	s2,s2,0xcdff
bfc01898:	161202dc 	bne	s0,s2,bfc0240c <inst_error>
bfc0189c:	00000000 	nop
bfc018a0:	3c08e47a 	lui	t0,0xe47a
bfc018a4:	35083820 	ori	t0,t0,0x3820
bfc018a8:	240937a9 	li	t1,14249
bfc018ac:	351037a9 	ori	s0,t0,0x37a9
bfc018b0:	3c12e47a 	lui	s2,0xe47a
bfc018b4:	36523fa9 	ori	s2,s2,0x3fa9
bfc018b8:	161202d4 	bne	s0,s2,bfc0240c <inst_error>
bfc018bc:	00000000 	nop
bfc018c0:	3c08d92a 	lui	t0,0xd92a
bfc018c4:	350874e0 	ori	t0,t0,0x74e0
bfc018c8:	3409b5d5 	li	t1,0xb5d5
bfc018cc:	3510b5d5 	ori	s0,t0,0xb5d5
bfc018d0:	3c12d92a 	lui	s2,0xd92a
bfc018d4:	3652f5f5 	ori	s2,s2,0xf5f5
bfc018d8:	161202cc 	bne	s0,s2,bfc0240c <inst_error>
bfc018dc:	00000000 	nop
bfc018e0:	3c08255f 	lui	t0,0x255f
bfc018e4:	35083270 	ori	t0,t0,0x3270
bfc018e8:	24094b41 	li	t1,19265
bfc018ec:	35104b41 	ori	s0,t0,0x4b41
bfc018f0:	3c12255f 	lui	s2,0x255f
bfc018f4:	36527b71 	ori	s2,s2,0x7b71
bfc018f8:	161202c4 	bne	s0,s2,bfc0240c <inst_error>
bfc018fc:	00000000 	nop
bfc01900:	3c08d44c 	lui	t0,0xd44c
bfc01904:	35089f59 	ori	t0,t0,0x9f59
bfc01908:	24090000 	li	t1,0
bfc0190c:	35100000 	ori	s0,t0,0x0
bfc01910:	3c12d44c 	lui	s2,0xd44c
bfc01914:	36529f59 	ori	s2,s2,0x9f59
bfc01918:	161202bc 	bne	s0,s2,bfc0240c <inst_error>
bfc0191c:	00000000 	nop
bfc01920:	3c08a34a 	lui	t0,0xa34a
bfc01924:	35088759 	ori	t0,t0,0x8759
bfc01928:	24090000 	li	t1,0
bfc0192c:	35100000 	ori	s0,t0,0x0
bfc01930:	3c12a34a 	lui	s2,0xa34a
bfc01934:	36528759 	ori	s2,s2,0x8759
bfc01938:	161202b4 	bne	s0,s2,bfc0240c <inst_error>
bfc0193c:	00000000 	nop
bfc01940:	3c085c27 	lui	t0,0x5c27
bfc01944:	3508d4ac 	ori	t0,t0,0xd4ac
bfc01948:	24090000 	li	t1,0
bfc0194c:	35100000 	ori	s0,t0,0x0
bfc01950:	3c125c27 	lui	s2,0x5c27
bfc01954:	3652d4ac 	ori	s2,s2,0xd4ac
bfc01958:	161202ac 	bne	s0,s2,bfc0240c <inst_error>
bfc0195c:	00000000 	nop
bfc01960:	3c0892dc 	lui	t0,0x92dc
bfc01964:	3508a4e0 	ori	t0,t0,0xa4e0
bfc01968:	24090000 	li	t1,0
bfc0196c:	35100000 	ori	s0,t0,0x0
bfc01970:	3c1292dc 	lui	s2,0x92dc
bfc01974:	3652a4e0 	ori	s2,s2,0xa4e0
bfc01978:	161202a4 	bne	s0,s2,bfc0240c <inst_error>
bfc0197c:	00000000 	nop
bfc01980:	3c084be1 	lui	t0,0x4be1
bfc01984:	3508411c 	ori	t0,t0,0x411c
bfc01988:	24090000 	li	t1,0
bfc0198c:	35100000 	ori	s0,t0,0x0
bfc01990:	3c124be1 	lui	s2,0x4be1
bfc01994:	3652411c 	ori	s2,s2,0x411c
bfc01998:	1612029c 	bne	s0,s2,bfc0240c <inst_error>
bfc0199c:	00000000 	nop
bfc019a0:	3c088206 	lui	t0,0x8206
bfc019a4:	35086660 	ori	t0,t0,0x6660
bfc019a8:	24090000 	li	t1,0
bfc019ac:	35100000 	ori	s0,t0,0x0
bfc019b0:	3c128206 	lui	s2,0x8206
bfc019b4:	36526660 	ori	s2,s2,0x6660
bfc019b8:	16120294 	bne	s0,s2,bfc0240c <inst_error>
bfc019bc:	00000000 	nop
bfc019c0:	3c0851ca 	lui	t0,0x51ca
bfc019c4:	35083726 	ori	t0,t0,0x3726
bfc019c8:	24090000 	li	t1,0
bfc019cc:	35100000 	ori	s0,t0,0x0
bfc019d0:	3c1251ca 	lui	s2,0x51ca
bfc019d4:	36523726 	ori	s2,s2,0x3726
bfc019d8:	1612028c 	bne	s0,s2,bfc0240c <inst_error>
bfc019dc:	00000000 	nop
bfc019e0:	3c08ac12 	lui	t0,0xac12
bfc019e4:	3508e711 	ori	t0,t0,0xe711
bfc019e8:	24090000 	li	t1,0
bfc019ec:	35100000 	ori	s0,t0,0x0
bfc019f0:	3c12ac12 	lui	s2,0xac12
bfc019f4:	3652e711 	ori	s2,s2,0xe711
bfc019f8:	16120284 	bne	s0,s2,bfc0240c <inst_error>
bfc019fc:	00000000 	nop
bfc01a00:	3c082b96 	lui	t0,0x2b96
bfc01a04:	3508a5d8 	ori	t0,t0,0xa5d8
bfc01a08:	24090000 	li	t1,0
bfc01a0c:	35100000 	ori	s0,t0,0x0
bfc01a10:	3c122b96 	lui	s2,0x2b96
bfc01a14:	3652a5d8 	ori	s2,s2,0xa5d8
bfc01a18:	1612027c 	bne	s0,s2,bfc0240c <inst_error>
bfc01a1c:	00000000 	nop
bfc01a20:	3c088463 	lui	t0,0x8463
bfc01a24:	350833dc 	ori	t0,t0,0x33dc
bfc01a28:	24090000 	li	t1,0
bfc01a2c:	35100000 	ori	s0,t0,0x0
bfc01a30:	3c128463 	lui	s2,0x8463
bfc01a34:	365233dc 	ori	s2,s2,0x33dc
bfc01a38:	16120274 	bne	s0,s2,bfc0240c <inst_error>
bfc01a3c:	00000000 	nop
bfc01a40:	3c08bb9e 	lui	t0,0xbb9e
bfc01a44:	35082b40 	ori	t0,t0,0x2b40
bfc01a48:	24090000 	li	t1,0
bfc01a4c:	35100000 	ori	s0,t0,0x0
bfc01a50:	3c12bb9e 	lui	s2,0xbb9e
bfc01a54:	36522b40 	ori	s2,s2,0x2b40
bfc01a58:	1612026c 	bne	s0,s2,bfc0240c <inst_error>
bfc01a5c:	00000000 	nop
bfc01a60:	3c082ae8 	lui	t0,0x2ae8
bfc01a64:	35084900 	ori	t0,t0,0x4900
bfc01a68:	24090000 	li	t1,0
bfc01a6c:	35100000 	ori	s0,t0,0x0
bfc01a70:	3c122ae8 	lui	s2,0x2ae8
bfc01a74:	36524900 	ori	s2,s2,0x4900
bfc01a78:	16120264 	bne	s0,s2,bfc0240c <inst_error>
bfc01a7c:	00000000 	nop
bfc01a80:	3c082da8 	lui	t0,0x2da8
bfc01a84:	350848c8 	ori	t0,t0,0x48c8
bfc01a88:	24090000 	li	t1,0
bfc01a8c:	35100000 	ori	s0,t0,0x0
bfc01a90:	3c122da8 	lui	s2,0x2da8
bfc01a94:	365248c8 	ori	s2,s2,0x48c8
bfc01a98:	1612025c 	bne	s0,s2,bfc0240c <inst_error>
bfc01a9c:	00000000 	nop
bfc01aa0:	3c088948 	lui	t0,0x8948
bfc01aa4:	35086176 	ori	t0,t0,0x6176
bfc01aa8:	24090000 	li	t1,0
bfc01aac:	35100000 	ori	s0,t0,0x0
bfc01ab0:	3c128948 	lui	s2,0x8948
bfc01ab4:	36526176 	ori	s2,s2,0x6176
bfc01ab8:	16120254 	bne	s0,s2,bfc0240c <inst_error>
bfc01abc:	00000000 	nop
bfc01ac0:	3c08c521 	lui	t0,0xc521
bfc01ac4:	3508e80c 	ori	t0,t0,0xe80c
bfc01ac8:	24090000 	li	t1,0
bfc01acc:	35100000 	ori	s0,t0,0x0
bfc01ad0:	3c12c521 	lui	s2,0xc521
bfc01ad4:	3652e80c 	ori	s2,s2,0xe80c
bfc01ad8:	1612024c 	bne	s0,s2,bfc0240c <inst_error>
bfc01adc:	00000000 	nop
bfc01ae0:	3c086179 	lui	t0,0x6179
bfc01ae4:	350855c4 	ori	t0,t0,0x55c4
bfc01ae8:	24090000 	li	t1,0
bfc01aec:	35100000 	ori	s0,t0,0x0
bfc01af0:	3c126179 	lui	s2,0x6179
bfc01af4:	365255c4 	ori	s2,s2,0x55c4
bfc01af8:	16120244 	bne	s0,s2,bfc0240c <inst_error>
bfc01afc:	00000000 	nop
bfc01b00:	3c08b52a 	lui	t0,0xb52a
bfc01b04:	35086838 	ori	t0,t0,0x6838
bfc01b08:	24090000 	li	t1,0
bfc01b0c:	35100000 	ori	s0,t0,0x0
bfc01b10:	3c12b52a 	lui	s2,0xb52a
bfc01b14:	36526838 	ori	s2,s2,0x6838
bfc01b18:	1612023c 	bne	s0,s2,bfc0240c <inst_error>
bfc01b1c:	00000000 	nop
bfc01b20:	3c08228a 	lui	t0,0x228a
bfc01b24:	3508f848 	ori	t0,t0,0xf848
bfc01b28:	24090000 	li	t1,0
bfc01b2c:	35100000 	ori	s0,t0,0x0
bfc01b30:	3c12228a 	lui	s2,0x228a
bfc01b34:	3652f848 	ori	s2,s2,0xf848
bfc01b38:	16120234 	bne	s0,s2,bfc0240c <inst_error>
bfc01b3c:	00000000 	nop
bfc01b40:	3c0858d2 	lui	t0,0x58d2
bfc01b44:	350897b4 	ori	t0,t0,0x97b4
bfc01b48:	24090000 	li	t1,0
bfc01b4c:	35100000 	ori	s0,t0,0x0
bfc01b50:	3c1258d2 	lui	s2,0x58d2
bfc01b54:	365297b4 	ori	s2,s2,0x97b4
bfc01b58:	1612022c 	bne	s0,s2,bfc0240c <inst_error>
bfc01b5c:	00000000 	nop
bfc01b60:	3c08f5ad 	lui	t0,0xf5ad
bfc01b64:	35087cce 	ori	t0,t0,0x7cce
bfc01b68:	24090000 	li	t1,0
bfc01b6c:	35100000 	ori	s0,t0,0x0
bfc01b70:	3c12f5ad 	lui	s2,0xf5ad
bfc01b74:	36527cce 	ori	s2,s2,0x7cce
bfc01b78:	16120224 	bne	s0,s2,bfc0240c <inst_error>
bfc01b7c:	00000000 	nop
bfc01b80:	3c088ce1 	lui	t0,0x8ce1
bfc01b84:	3508fb50 	ori	t0,t0,0xfb50
bfc01b88:	24090000 	li	t1,0
bfc01b8c:	35100000 	ori	s0,t0,0x0
bfc01b90:	3c128ce1 	lui	s2,0x8ce1
bfc01b94:	3652fb50 	ori	s2,s2,0xfb50
bfc01b98:	1612021c 	bne	s0,s2,bfc0240c <inst_error>
bfc01b9c:	00000000 	nop
bfc01ba0:	3c089524 	lui	t0,0x9524
bfc01ba4:	350874c0 	ori	t0,t0,0x74c0
bfc01ba8:	24090000 	li	t1,0
bfc01bac:	35100000 	ori	s0,t0,0x0
bfc01bb0:	3c129524 	lui	s2,0x9524
bfc01bb4:	365274c0 	ori	s2,s2,0x74c0
bfc01bb8:	16120214 	bne	s0,s2,bfc0240c <inst_error>
bfc01bbc:	00000000 	nop
bfc01bc0:	3c08eb9a 	lui	t0,0xeb9a
bfc01bc4:	3508ec1a 	ori	t0,t0,0xec1a
bfc01bc8:	24090000 	li	t1,0
bfc01bcc:	35100000 	ori	s0,t0,0x0
bfc01bd0:	3c12eb9a 	lui	s2,0xeb9a
bfc01bd4:	3652ec1a 	ori	s2,s2,0xec1a
bfc01bd8:	1612020c 	bne	s0,s2,bfc0240c <inst_error>
bfc01bdc:	00000000 	nop
bfc01be0:	3c08ec76 	lui	t0,0xec76
bfc01be4:	35086400 	ori	t0,t0,0x6400
bfc01be8:	24090000 	li	t1,0
bfc01bec:	35100000 	ori	s0,t0,0x0
bfc01bf0:	3c12ec76 	lui	s2,0xec76
bfc01bf4:	36526400 	ori	s2,s2,0x6400
bfc01bf8:	16120204 	bne	s0,s2,bfc0240c <inst_error>
bfc01bfc:	00000000 	nop
bfc01c00:	3c083c65 	lui	t0,0x3c65
bfc01c04:	3508f0e0 	ori	t0,t0,0xf0e0
bfc01c08:	24090000 	li	t1,0
bfc01c0c:	35100000 	ori	s0,t0,0x0
bfc01c10:	3c123c65 	lui	s2,0x3c65
bfc01c14:	3652f0e0 	ori	s2,s2,0xf0e0
bfc01c18:	161201fc 	bne	s0,s2,bfc0240c <inst_error>
bfc01c1c:	00000000 	nop
bfc01c20:	3c082c9e 	lui	t0,0x2c9e
bfc01c24:	350891bf 	ori	t0,t0,0x91bf
bfc01c28:	24090000 	li	t1,0
bfc01c2c:	35100000 	ori	s0,t0,0x0
bfc01c30:	3c122c9e 	lui	s2,0x2c9e
bfc01c34:	365291bf 	ori	s2,s2,0x91bf
bfc01c38:	161201f4 	bne	s0,s2,bfc0240c <inst_error>
bfc01c3c:	00000000 	nop
bfc01c40:	3c08ab70 	lui	t0,0xab70
bfc01c44:	35082a00 	ori	t0,t0,0x2a00
bfc01c48:	24090000 	li	t1,0
bfc01c4c:	35100000 	ori	s0,t0,0x0
bfc01c50:	3c12ab70 	lui	s2,0xab70
bfc01c54:	36522a00 	ori	s2,s2,0x2a00
bfc01c58:	161201ec 	bne	s0,s2,bfc0240c <inst_error>
bfc01c5c:	00000000 	nop
bfc01c60:	3c08b15e 	lui	t0,0xb15e
bfc01c64:	350841a1 	ori	t0,t0,0x41a1
bfc01c68:	24090000 	li	t1,0
bfc01c6c:	35100000 	ori	s0,t0,0x0
bfc01c70:	3c12b15e 	lui	s2,0xb15e
bfc01c74:	365241a1 	ori	s2,s2,0x41a1
bfc01c78:	161201e4 	bne	s0,s2,bfc0240c <inst_error>
bfc01c7c:	00000000 	nop
bfc01c80:	3c083028 	lui	t0,0x3028
bfc01c84:	3508f734 	ori	t0,t0,0xf734
bfc01c88:	24090000 	li	t1,0
bfc01c8c:	35100000 	ori	s0,t0,0x0
bfc01c90:	3c123028 	lui	s2,0x3028
bfc01c94:	3652f734 	ori	s2,s2,0xf734
bfc01c98:	161201dc 	bne	s0,s2,bfc0240c <inst_error>
bfc01c9c:	00000000 	nop
bfc01ca0:	3c0838e6 	lui	t0,0x38e6
bfc01ca4:	35082150 	ori	t0,t0,0x2150
bfc01ca8:	24090000 	li	t1,0
bfc01cac:	35100000 	ori	s0,t0,0x0
bfc01cb0:	3c1238e6 	lui	s2,0x38e6
bfc01cb4:	36522150 	ori	s2,s2,0x2150
bfc01cb8:	161201d4 	bne	s0,s2,bfc0240c <inst_error>
bfc01cbc:	00000000 	nop
bfc01cc0:	3c086302 	lui	t0,0x6302
bfc01cc4:	3508aa80 	ori	t0,t0,0xaa80
bfc01cc8:	24090000 	li	t1,0
bfc01ccc:	35100000 	ori	s0,t0,0x0
bfc01cd0:	3c126302 	lui	s2,0x6302
bfc01cd4:	3652aa80 	ori	s2,s2,0xaa80
bfc01cd8:	161201cc 	bne	s0,s2,bfc0240c <inst_error>
bfc01cdc:	00000000 	nop
bfc01ce0:	3c0846cf 	lui	t0,0x46cf
bfc01ce4:	350837fc 	ori	t0,t0,0x37fc
bfc01ce8:	24090000 	li	t1,0
bfc01cec:	35100000 	ori	s0,t0,0x0
bfc01cf0:	3c1246cf 	lui	s2,0x46cf
bfc01cf4:	365237fc 	ori	s2,s2,0x37fc
bfc01cf8:	161201c4 	bne	s0,s2,bfc0240c <inst_error>
bfc01cfc:	00000000 	nop
bfc01d00:	3c089b9b 	lui	t0,0x9b9b
bfc01d04:	3508c370 	ori	t0,t0,0xc370
bfc01d08:	24090000 	li	t1,0
bfc01d0c:	35100000 	ori	s0,t0,0x0
bfc01d10:	3c129b9b 	lui	s2,0x9b9b
bfc01d14:	3652c370 	ori	s2,s2,0xc370
bfc01d18:	161201bc 	bne	s0,s2,bfc0240c <inst_error>
bfc01d1c:	00000000 	nop
bfc01d20:	3c088524 	lui	t0,0x8524
bfc01d24:	35081290 	ori	t0,t0,0x1290
bfc01d28:	24090000 	li	t1,0
bfc01d2c:	35100000 	ori	s0,t0,0x0
bfc01d30:	3c128524 	lui	s2,0x8524
bfc01d34:	36521290 	ori	s2,s2,0x1290
bfc01d38:	161201b4 	bne	s0,s2,bfc0240c <inst_error>
bfc01d3c:	00000000 	nop
bfc01d40:	3c0828f6 	lui	t0,0x28f6
bfc01d44:	350820ea 	ori	t0,t0,0x20ea
bfc01d48:	24090000 	li	t1,0
bfc01d4c:	35100000 	ori	s0,t0,0x0
bfc01d50:	3c1228f6 	lui	s2,0x28f6
bfc01d54:	365220ea 	ori	s2,s2,0x20ea
bfc01d58:	161201ac 	bne	s0,s2,bfc0240c <inst_error>
bfc01d5c:	00000000 	nop
bfc01d60:	3c08b176 	lui	t0,0xb176
bfc01d64:	350855e0 	ori	t0,t0,0x55e0
bfc01d68:	24090000 	li	t1,0
bfc01d6c:	35100000 	ori	s0,t0,0x0
bfc01d70:	3c12b176 	lui	s2,0xb176
bfc01d74:	365255e0 	ori	s2,s2,0x55e0
bfc01d78:	161201a4 	bne	s0,s2,bfc0240c <inst_error>
bfc01d7c:	00000000 	nop
bfc01d80:	3c08f23b 	lui	t0,0xf23b
bfc01d84:	350825c8 	ori	t0,t0,0x25c8
bfc01d88:	24090000 	li	t1,0
bfc01d8c:	35100000 	ori	s0,t0,0x0
bfc01d90:	3c12f23b 	lui	s2,0xf23b
bfc01d94:	365225c8 	ori	s2,s2,0x25c8
bfc01d98:	1612019c 	bne	s0,s2,bfc0240c <inst_error>
bfc01d9c:	00000000 	nop
bfc01da0:	3c08cff6 	lui	t0,0xcff6
bfc01da4:	3508da18 	ori	t0,t0,0xda18
bfc01da8:	24090000 	li	t1,0
bfc01dac:	35100000 	ori	s0,t0,0x0
bfc01db0:	3c12cff6 	lui	s2,0xcff6
bfc01db4:	3652da18 	ori	s2,s2,0xda18
bfc01db8:	16120194 	bne	s0,s2,bfc0240c <inst_error>
bfc01dbc:	00000000 	nop
bfc01dc0:	3c08f420 	lui	t0,0xf420
bfc01dc4:	3508b7f0 	ori	t0,t0,0xb7f0
bfc01dc8:	24090000 	li	t1,0
bfc01dcc:	35100000 	ori	s0,t0,0x0
bfc01dd0:	3c12f420 	lui	s2,0xf420
bfc01dd4:	3652b7f0 	ori	s2,s2,0xb7f0
bfc01dd8:	1612018c 	bne	s0,s2,bfc0240c <inst_error>
bfc01ddc:	00000000 	nop
bfc01de0:	3c082c5b 	lui	t0,0x2c5b
bfc01de4:	35087e44 	ori	t0,t0,0x7e44
bfc01de8:	24090000 	li	t1,0
bfc01dec:	35100000 	ori	s0,t0,0x0
bfc01df0:	3c122c5b 	lui	s2,0x2c5b
bfc01df4:	36527e44 	ori	s2,s2,0x7e44
bfc01df8:	16120184 	bne	s0,s2,bfc0240c <inst_error>
bfc01dfc:	00000000 	nop
bfc01e00:	3c08689d 	lui	t0,0x689d
bfc01e04:	35086e48 	ori	t0,t0,0x6e48
bfc01e08:	24090000 	li	t1,0
bfc01e0c:	35100000 	ori	s0,t0,0x0
bfc01e10:	3c12689d 	lui	s2,0x689d
bfc01e14:	36526e48 	ori	s2,s2,0x6e48
bfc01e18:	1612017c 	bne	s0,s2,bfc0240c <inst_error>
bfc01e1c:	00000000 	nop
bfc01e20:	3c08587c 	lui	t0,0x587c
bfc01e24:	35087960 	ori	t0,t0,0x7960
bfc01e28:	24090000 	li	t1,0
bfc01e2c:	35100000 	ori	s0,t0,0x0
bfc01e30:	3c12587c 	lui	s2,0x587c
bfc01e34:	36527960 	ori	s2,s2,0x7960
bfc01e38:	16120174 	bne	s0,s2,bfc0240c <inst_error>
bfc01e3c:	00000000 	nop
bfc01e40:	3c08115d 	lui	t0,0x115d
bfc01e44:	3508d974 	ori	t0,t0,0xd974
bfc01e48:	24090000 	li	t1,0
bfc01e4c:	35100000 	ori	s0,t0,0x0
bfc01e50:	3c12115d 	lui	s2,0x115d
bfc01e54:	3652d974 	ori	s2,s2,0xd974
bfc01e58:	1612016c 	bne	s0,s2,bfc0240c <inst_error>
bfc01e5c:	00000000 	nop
bfc01e60:	3c082c0f 	lui	t0,0x2c0f
bfc01e64:	3508663b 	ori	t0,t0,0x663b
bfc01e68:	24090000 	li	t1,0
bfc01e6c:	35100000 	ori	s0,t0,0x0
bfc01e70:	3c122c0f 	lui	s2,0x2c0f
bfc01e74:	3652663b 	ori	s2,s2,0x663b
bfc01e78:	16120164 	bne	s0,s2,bfc0240c <inst_error>
bfc01e7c:	00000000 	nop
bfc01e80:	3c08f29c 	lui	t0,0xf29c
bfc01e84:	3508d1fb 	ori	t0,t0,0xd1fb
bfc01e88:	24090000 	li	t1,0
bfc01e8c:	35100000 	ori	s0,t0,0x0
bfc01e90:	3c12f29c 	lui	s2,0xf29c
bfc01e94:	3652d1fb 	ori	s2,s2,0xd1fb
bfc01e98:	1612015c 	bne	s0,s2,bfc0240c <inst_error>
bfc01e9c:	00000000 	nop
bfc01ea0:	3c083c38 	lui	t0,0x3c38
bfc01ea4:	3508c883 	ori	t0,t0,0xc883
bfc01ea8:	24090000 	li	t1,0
bfc01eac:	35100000 	ori	s0,t0,0x0
bfc01eb0:	3c123c38 	lui	s2,0x3c38
bfc01eb4:	3652c883 	ori	s2,s2,0xc883
bfc01eb8:	16120154 	bne	s0,s2,bfc0240c <inst_error>
bfc01ebc:	00000000 	nop
bfc01ec0:	3c085bf8 	lui	t0,0x5bf8
bfc01ec4:	35082500 	ori	t0,t0,0x2500
bfc01ec8:	24090000 	li	t1,0
bfc01ecc:	35100000 	ori	s0,t0,0x0
bfc01ed0:	3c125bf8 	lui	s2,0x5bf8
bfc01ed4:	36522500 	ori	s2,s2,0x2500
bfc01ed8:	1612014c 	bne	s0,s2,bfc0240c <inst_error>
bfc01edc:	00000000 	nop
bfc01ee0:	3c0803dd 	lui	t0,0x3dd
bfc01ee4:	3508621c 	ori	t0,t0,0x621c
bfc01ee8:	24090000 	li	t1,0
bfc01eec:	35100000 	ori	s0,t0,0x0
bfc01ef0:	3c1203dd 	lui	s2,0x3dd
bfc01ef4:	3652621c 	ori	s2,s2,0x621c
bfc01ef8:	16120144 	bne	s0,s2,bfc0240c <inst_error>
bfc01efc:	00000000 	nop
bfc01f00:	3c0843a3 	lui	t0,0x43a3
bfc01f04:	3508d75c 	ori	t0,t0,0xd75c
bfc01f08:	24090000 	li	t1,0
bfc01f0c:	35100000 	ori	s0,t0,0x0
bfc01f10:	3c1243a3 	lui	s2,0x43a3
bfc01f14:	3652d75c 	ori	s2,s2,0xd75c
bfc01f18:	1612013c 	bne	s0,s2,bfc0240c <inst_error>
bfc01f1c:	00000000 	nop
bfc01f20:	3c08b39d 	lui	t0,0xb39d
bfc01f24:	3508d06c 	ori	t0,t0,0xd06c
bfc01f28:	24090000 	li	t1,0
bfc01f2c:	35100000 	ori	s0,t0,0x0
bfc01f30:	3c12b39d 	lui	s2,0xb39d
bfc01f34:	3652d06c 	ori	s2,s2,0xd06c
bfc01f38:	16120134 	bne	s0,s2,bfc0240c <inst_error>
bfc01f3c:	00000000 	nop
bfc01f40:	24080000 	li	t0,0
bfc01f44:	3409bde4 	li	t1,0xbde4
bfc01f48:	3510bde4 	ori	s0,t0,0xbde4
bfc01f4c:	3412bde4 	li	s2,0xbde4
bfc01f50:	1612012e 	bne	s0,s2,bfc0240c <inst_error>
bfc01f54:	00000000 	nop
bfc01f58:	24080000 	li	t0,0
bfc01f5c:	240922e2 	li	t1,8930
bfc01f60:	351022e2 	ori	s0,t0,0x22e2
bfc01f64:	241222e2 	li	s2,8930
bfc01f68:	16120128 	bne	s0,s2,bfc0240c <inst_error>
bfc01f6c:	00000000 	nop
bfc01f70:	24080000 	li	t0,0
bfc01f74:	3409fa34 	li	t1,0xfa34
bfc01f78:	3510fa34 	ori	s0,t0,0xfa34
bfc01f7c:	3412fa34 	li	s2,0xfa34
bfc01f80:	16120122 	bne	s0,s2,bfc0240c <inst_error>
bfc01f84:	00000000 	nop
bfc01f88:	24080000 	li	t0,0
bfc01f8c:	3409cea7 	li	t1,0xcea7
bfc01f90:	3510cea7 	ori	s0,t0,0xcea7
bfc01f94:	3412cea7 	li	s2,0xcea7
bfc01f98:	1612011c 	bne	s0,s2,bfc0240c <inst_error>
bfc01f9c:	00000000 	nop
bfc01fa0:	24080000 	li	t0,0
bfc01fa4:	3409a738 	li	t1,0xa738
bfc01fa8:	3510a738 	ori	s0,t0,0xa738
bfc01fac:	3412a738 	li	s2,0xa738
bfc01fb0:	16120116 	bne	s0,s2,bfc0240c <inst_error>
bfc01fb4:	00000000 	nop
bfc01fb8:	24080000 	li	t0,0
bfc01fbc:	3409cb80 	li	t1,0xcb80
bfc01fc0:	3510cb80 	ori	s0,t0,0xcb80
bfc01fc4:	3412cb80 	li	s2,0xcb80
bfc01fc8:	16120110 	bne	s0,s2,bfc0240c <inst_error>
bfc01fcc:	00000000 	nop
bfc01fd0:	24080000 	li	t0,0
bfc01fd4:	3409c5ae 	li	t1,0xc5ae
bfc01fd8:	3510c5ae 	ori	s0,t0,0xc5ae
bfc01fdc:	3412c5ae 	li	s2,0xc5ae
bfc01fe0:	1612010a 	bne	s0,s2,bfc0240c <inst_error>
bfc01fe4:	00000000 	nop
bfc01fe8:	24080000 	li	t0,0
bfc01fec:	240968ed 	li	t1,26861
bfc01ff0:	351068ed 	ori	s0,t0,0x68ed
bfc01ff4:	241268ed 	li	s2,26861
bfc01ff8:	16120104 	bne	s0,s2,bfc0240c <inst_error>
bfc01ffc:	00000000 	nop
bfc02000:	24080000 	li	t0,0
bfc02004:	24097d58 	li	t1,32088
bfc02008:	35107d58 	ori	s0,t0,0x7d58
bfc0200c:	24127d58 	li	s2,32088
bfc02010:	161200fe 	bne	s0,s2,bfc0240c <inst_error>
bfc02014:	00000000 	nop
bfc02018:	24080000 	li	t0,0
bfc0201c:	24091eb4 	li	t1,7860
bfc02020:	35101eb4 	ori	s0,t0,0x1eb4
bfc02024:	24121eb4 	li	s2,7860
bfc02028:	161200f8 	bne	s0,s2,bfc0240c <inst_error>
bfc0202c:	00000000 	nop
bfc02030:	24080000 	li	t0,0
bfc02034:	3409a76c 	li	t1,0xa76c
bfc02038:	3510a76c 	ori	s0,t0,0xa76c
bfc0203c:	3412a76c 	li	s2,0xa76c
bfc02040:	161200f2 	bne	s0,s2,bfc0240c <inst_error>
bfc02044:	00000000 	nop
bfc02048:	24080000 	li	t0,0
bfc0204c:	240940a8 	li	t1,16552
bfc02050:	351040a8 	ori	s0,t0,0x40a8
bfc02054:	241240a8 	li	s2,16552
bfc02058:	161200ec 	bne	s0,s2,bfc0240c <inst_error>
bfc0205c:	00000000 	nop
bfc02060:	24080000 	li	t0,0
bfc02064:	34099cd8 	li	t1,0x9cd8
bfc02068:	35109cd8 	ori	s0,t0,0x9cd8
bfc0206c:	34129cd8 	li	s2,0x9cd8
bfc02070:	161200e6 	bne	s0,s2,bfc0240c <inst_error>
bfc02074:	00000000 	nop
bfc02078:	24080000 	li	t0,0
bfc0207c:	3409882c 	li	t1,0x882c
bfc02080:	3510882c 	ori	s0,t0,0x882c
bfc02084:	3412882c 	li	s2,0x882c
bfc02088:	161200e0 	bne	s0,s2,bfc0240c <inst_error>
bfc0208c:	00000000 	nop
bfc02090:	24080000 	li	t0,0
bfc02094:	24091714 	li	t1,5908
bfc02098:	35101714 	ori	s0,t0,0x1714
bfc0209c:	24121714 	li	s2,5908
bfc020a0:	161200da 	bne	s0,s2,bfc0240c <inst_error>
bfc020a4:	00000000 	nop
bfc020a8:	24080000 	li	t0,0
bfc020ac:	24096665 	li	t1,26213
bfc020b0:	35106665 	ori	s0,t0,0x6665
bfc020b4:	24126665 	li	s2,26213
bfc020b8:	161200d4 	bne	s0,s2,bfc0240c <inst_error>
bfc020bc:	00000000 	nop
bfc020c0:	24080000 	li	t0,0
bfc020c4:	340988ef 	li	t1,0x88ef
bfc020c8:	351088ef 	ori	s0,t0,0x88ef
bfc020cc:	341288ef 	li	s2,0x88ef
bfc020d0:	161200ce 	bne	s0,s2,bfc0240c <inst_error>
bfc020d4:	00000000 	nop
bfc020d8:	24080000 	li	t0,0
bfc020dc:	3409b800 	li	t1,0xb800
bfc020e0:	3510b800 	ori	s0,t0,0xb800
bfc020e4:	3412b800 	li	s2,0xb800
bfc020e8:	161200c8 	bne	s0,s2,bfc0240c <inst_error>
bfc020ec:	00000000 	nop
bfc020f0:	24080000 	li	t0,0
bfc020f4:	24090a5f 	li	t1,2655
bfc020f8:	35100a5f 	ori	s0,t0,0xa5f
bfc020fc:	24120a5f 	li	s2,2655
bfc02100:	161200c2 	bne	s0,s2,bfc0240c <inst_error>
bfc02104:	00000000 	nop
bfc02108:	24080000 	li	t0,0
bfc0210c:	3409ea0e 	li	t1,0xea0e
bfc02110:	3510ea0e 	ori	s0,t0,0xea0e
bfc02114:	3412ea0e 	li	s2,0xea0e
bfc02118:	161200bc 	bne	s0,s2,bfc0240c <inst_error>
bfc0211c:	00000000 	nop
bfc02120:	24080000 	li	t0,0
bfc02124:	3409999e 	li	t1,0x999e
bfc02128:	3510999e 	ori	s0,t0,0x999e
bfc0212c:	3412999e 	li	s2,0x999e
bfc02130:	161200b6 	bne	s0,s2,bfc0240c <inst_error>
bfc02134:	00000000 	nop
bfc02138:	24080000 	li	t0,0
bfc0213c:	3409fa20 	li	t1,0xfa20
bfc02140:	3510fa20 	ori	s0,t0,0xfa20
bfc02144:	3412fa20 	li	s2,0xfa20
bfc02148:	161200b0 	bne	s0,s2,bfc0240c <inst_error>
bfc0214c:	00000000 	nop
bfc02150:	24080000 	li	t0,0
bfc02154:	24090768 	li	t1,1896
bfc02158:	35100768 	ori	s0,t0,0x768
bfc0215c:	24120768 	li	s2,1896
bfc02160:	161200aa 	bne	s0,s2,bfc0240c <inst_error>
bfc02164:	00000000 	nop
bfc02168:	24080000 	li	t0,0
bfc0216c:	2409001c 	li	t1,28
bfc02170:	3510001c 	ori	s0,t0,0x1c
bfc02174:	2412001c 	li	s2,28
bfc02178:	161200a4 	bne	s0,s2,bfc0240c <inst_error>
bfc0217c:	00000000 	nop
bfc02180:	24080000 	li	t0,0
bfc02184:	34099a60 	li	t1,0x9a60
bfc02188:	35109a60 	ori	s0,t0,0x9a60
bfc0218c:	34129a60 	li	s2,0x9a60
bfc02190:	1612009e 	bne	s0,s2,bfc0240c <inst_error>
bfc02194:	00000000 	nop
bfc02198:	24080000 	li	t0,0
bfc0219c:	3409d637 	li	t1,0xd637
bfc021a0:	3510d637 	ori	s0,t0,0xd637
bfc021a4:	3412d637 	li	s2,0xd637
bfc021a8:	16120098 	bne	s0,s2,bfc0240c <inst_error>
bfc021ac:	00000000 	nop
bfc021b0:	24080000 	li	t0,0
bfc021b4:	24091300 	li	t1,4864
bfc021b8:	35101300 	ori	s0,t0,0x1300
bfc021bc:	24121300 	li	s2,4864
bfc021c0:	16120092 	bne	s0,s2,bfc0240c <inst_error>
bfc021c4:	00000000 	nop
bfc021c8:	24080000 	li	t0,0
bfc021cc:	3409e54e 	li	t1,0xe54e
bfc021d0:	3510e54e 	ori	s0,t0,0xe54e
bfc021d4:	3412e54e 	li	s2,0xe54e
bfc021d8:	1612008c 	bne	s0,s2,bfc0240c <inst_error>
bfc021dc:	00000000 	nop
bfc021e0:	24080000 	li	t0,0
bfc021e4:	340991f5 	li	t1,0x91f5
bfc021e8:	351091f5 	ori	s0,t0,0x91f5
bfc021ec:	341291f5 	li	s2,0x91f5
bfc021f0:	16120086 	bne	s0,s2,bfc0240c <inst_error>
bfc021f4:	00000000 	nop
bfc021f8:	24080000 	li	t0,0
bfc021fc:	3409e29b 	li	t1,0xe29b
bfc02200:	3510e29b 	ori	s0,t0,0xe29b
bfc02204:	3412e29b 	li	s2,0xe29b
bfc02208:	16120080 	bne	s0,s2,bfc0240c <inst_error>
bfc0220c:	00000000 	nop
bfc02210:	24080000 	li	t0,0
bfc02214:	24097449 	li	t1,29769
bfc02218:	35107449 	ori	s0,t0,0x7449
bfc0221c:	24127449 	li	s2,29769
bfc02220:	1612007a 	bne	s0,s2,bfc0240c <inst_error>
bfc02224:	00000000 	nop
bfc02228:	24080000 	li	t0,0
bfc0222c:	24090a2c 	li	t1,2604
bfc02230:	35100a2c 	ori	s0,t0,0xa2c
bfc02234:	24120a2c 	li	s2,2604
bfc02238:	16120074 	bne	s0,s2,bfc0240c <inst_error>
bfc0223c:	00000000 	nop
bfc02240:	24080000 	li	t0,0
bfc02244:	34099a04 	li	t1,0x9a04
bfc02248:	35109a04 	ori	s0,t0,0x9a04
bfc0224c:	34129a04 	li	s2,0x9a04
bfc02250:	1612006e 	bne	s0,s2,bfc0240c <inst_error>
bfc02254:	00000000 	nop
bfc02258:	24080000 	li	t0,0
bfc0225c:	24096980 	li	t1,27008
bfc02260:	35106980 	ori	s0,t0,0x6980
bfc02264:	24126980 	li	s2,27008
bfc02268:	16120068 	bne	s0,s2,bfc0240c <inst_error>
bfc0226c:	00000000 	nop
bfc02270:	24080000 	li	t0,0
bfc02274:	3409b93f 	li	t1,0xb93f
bfc02278:	3510b93f 	ori	s0,t0,0xb93f
bfc0227c:	3412b93f 	li	s2,0xb93f
bfc02280:	16120062 	bne	s0,s2,bfc0240c <inst_error>
bfc02284:	00000000 	nop
bfc02288:	24080000 	li	t0,0
bfc0228c:	24092659 	li	t1,9817
bfc02290:	35102659 	ori	s0,t0,0x2659
bfc02294:	24122659 	li	s2,9817
bfc02298:	1612005c 	bne	s0,s2,bfc0240c <inst_error>
bfc0229c:	00000000 	nop
bfc022a0:	24080000 	li	t0,0
bfc022a4:	34098b28 	li	t1,0x8b28
bfc022a8:	35108b28 	ori	s0,t0,0x8b28
bfc022ac:	34128b28 	li	s2,0x8b28
bfc022b0:	16120056 	bne	s0,s2,bfc0240c <inst_error>
bfc022b4:	00000000 	nop
bfc022b8:	24080000 	li	t0,0
bfc022bc:	24092338 	li	t1,9016
bfc022c0:	35102338 	ori	s0,t0,0x2338
bfc022c4:	24122338 	li	s2,9016
bfc022c8:	16120050 	bne	s0,s2,bfc0240c <inst_error>
bfc022cc:	00000000 	nop
bfc022d0:	24080000 	li	t0,0
bfc022d4:	24094abb 	li	t1,19131
bfc022d8:	35104abb 	ori	s0,t0,0x4abb
bfc022dc:	24124abb 	li	s2,19131
bfc022e0:	1612004a 	bne	s0,s2,bfc0240c <inst_error>
bfc022e4:	00000000 	nop
bfc022e8:	24080000 	li	t0,0
bfc022ec:	3409affe 	li	t1,0xaffe
bfc022f0:	3510affe 	ori	s0,t0,0xaffe
bfc022f4:	3412affe 	li	s2,0xaffe
bfc022f8:	16120044 	bne	s0,s2,bfc0240c <inst_error>
bfc022fc:	00000000 	nop
bfc02300:	24080000 	li	t0,0
bfc02304:	3409f484 	li	t1,0xf484
bfc02308:	3510f484 	ori	s0,t0,0xf484
bfc0230c:	3412f484 	li	s2,0xf484
bfc02310:	1612003e 	bne	s0,s2,bfc0240c <inst_error>
bfc02314:	00000000 	nop
bfc02318:	24080000 	li	t0,0
bfc0231c:	340985aa 	li	t1,0x85aa
bfc02320:	351085aa 	ori	s0,t0,0x85aa
bfc02324:	341285aa 	li	s2,0x85aa
bfc02328:	16120038 	bne	s0,s2,bfc0240c <inst_error>
bfc0232c:	00000000 	nop
bfc02330:	24080000 	li	t0,0
bfc02334:	24096560 	li	t1,25952
bfc02338:	35106560 	ori	s0,t0,0x6560
bfc0233c:	24126560 	li	s2,25952
bfc02340:	16120032 	bne	s0,s2,bfc0240c <inst_error>
bfc02344:	00000000 	nop
bfc02348:	24080000 	li	t0,0
bfc0234c:	24092cdd 	li	t1,11485
bfc02350:	35102cdd 	ori	s0,t0,0x2cdd
bfc02354:	24122cdd 	li	s2,11485
bfc02358:	1612002c 	bne	s0,s2,bfc0240c <inst_error>
bfc0235c:	00000000 	nop
bfc02360:	24080000 	li	t0,0
bfc02364:	3409dca7 	li	t1,0xdca7
bfc02368:	3510dca7 	ori	s0,t0,0xdca7
bfc0236c:	3412dca7 	li	s2,0xdca7
bfc02370:	16120026 	bne	s0,s2,bfc0240c <inst_error>
bfc02374:	00000000 	nop
bfc02378:	24080000 	li	t0,0
bfc0237c:	24095b2e 	li	t1,23342
bfc02380:	35105b2e 	ori	s0,t0,0x5b2e
bfc02384:	24125b2e 	li	s2,23342
bfc02388:	16120020 	bne	s0,s2,bfc0240c <inst_error>
bfc0238c:	00000000 	nop
bfc02390:	24080000 	li	t0,0
bfc02394:	3409bf5d 	li	t1,0xbf5d
bfc02398:	3510bf5d 	ori	s0,t0,0xbf5d
bfc0239c:	3412bf5d 	li	s2,0xbf5d
bfc023a0:	1612001a 	bne	s0,s2,bfc0240c <inst_error>
bfc023a4:	00000000 	nop
bfc023a8:	24080000 	li	t0,0
bfc023ac:	3409f373 	li	t1,0xf373
bfc023b0:	3510f373 	ori	s0,t0,0xf373
bfc023b4:	3412f373 	li	s2,0xf373
bfc023b8:	16120014 	bne	s0,s2,bfc0240c <inst_error>
bfc023bc:	00000000 	nop
bfc023c0:	24080000 	li	t0,0
bfc023c4:	24090c46 	li	t1,3142
bfc023c8:	35100c46 	ori	s0,t0,0xc46
bfc023cc:	24120c46 	li	s2,3142
bfc023d0:	1612000e 	bne	s0,s2,bfc0240c <inst_error>
bfc023d4:	00000000 	nop
bfc023d8:	24080000 	li	t0,0
bfc023dc:	3409ed94 	li	t1,0xed94
bfc023e0:	3510ed94 	ori	s0,t0,0xed94
bfc023e4:	3412ed94 	li	s2,0xed94
bfc023e8:	16120008 	bne	s0,s2,bfc0240c <inst_error>
bfc023ec:	00000000 	nop
bfc023f0:	24080000 	li	t0,0
bfc023f4:	24090000 	li	t1,0
bfc023f8:	35100000 	ori	s0,t0,0x0
bfc023fc:	24120000 	li	s2,0
bfc02400:	16120002 	bne	s0,s2,bfc0240c <inst_error>
bfc02404:	00000000 	nop
bfc02408:	4a000000 	c2	0x0

bfc0240c <inst_error>:
inst_error():
bfc0240c:	4a000000 	c2	0x0

Disassembly of section .reginfo:

00000000 <.reginfo>:
   0:	00050300 	sll	zero,a1,0xc
	...
