
build/sb:     file format elf32-tradlittlemips
build/sb


Disassembly of section .text:

bfc00000 <main>:
bfc00000:	3c097955 	lui	t1,0x7955
bfc00004:	3529c40a 	ori	t1,t1,0xc40a
bfc00008:	3c088010 	lui	t0,0x8010
bfc0000c:	350816ec 	ori	t0,t0,0x16ec
bfc00010:	240a61ec 	li	t2,25068
bfc00014:	240c61ec 	li	t4,25068
bfc00018:	3c0db4f0 	lui	t5,0xb4f0
bfc0001c:	35ad0930 	ori	t5,t5,0x930
bfc00020:	ad0d61ec 	sw	t5,25068(t0)
bfc00024:	a10961ec 	sb	t1,25068(t0)
bfc00028:	8d1061ec 	lw	s0,25068(t0)
bfc0002c:	3c12b4f0 	lui	s2,0xb4f0
bfc00030:	3652090a 	ori	s2,s2,0x90a
bfc00034:	16120936 	bne	s0,s2,bfc02510 <inst_error>
bfc00038:	00000000 	nop
bfc0003c:	3c094765 	lui	t1,0x4765
bfc00040:	35297e06 	ori	t1,t1,0x7e06
bfc00044:	3c088010 	lui	t0,0x8010
bfc00048:	35085068 	ori	t0,t0,0x5068
bfc0004c:	240a6868 	li	t2,26728
bfc00050:	240c6868 	li	t4,26728
bfc00054:	3c0d1943 	lui	t5,0x1943
bfc00058:	35ad31ca 	ori	t5,t5,0x31ca
bfc0005c:	ad0d6868 	sw	t5,26728(t0)
bfc00060:	a1096868 	sb	t1,26728(t0)
bfc00064:	8d106868 	lw	s0,26728(t0)
bfc00068:	3c121943 	lui	s2,0x1943
bfc0006c:	36523106 	ori	s2,s2,0x3106
bfc00070:	16120927 	bne	s0,s2,bfc02510 <inst_error>
bfc00074:	00000000 	nop
bfc00078:	3c092547 	lui	t1,0x2547
bfc0007c:	35294bf0 	ori	t1,t1,0x4bf0
bfc00080:	3c088010 	lui	t0,0x8010
bfc00084:	35089f20 	ori	t0,t0,0x9f20
bfc00088:	240a3662 	li	t2,13922
bfc0008c:	240c3660 	li	t4,13920
bfc00090:	3c0d9efa 	lui	t5,0x9efa
bfc00094:	35adfca8 	ori	t5,t5,0xfca8
bfc00098:	ad0d3660 	sw	t5,13920(t0)
bfc0009c:	a1093662 	sb	t1,13922(t0)
bfc000a0:	8d103660 	lw	s0,13920(t0)
bfc000a4:	3c129ef0 	lui	s2,0x9ef0
bfc000a8:	3652fca8 	ori	s2,s2,0xfca8
bfc000ac:	16120918 	bne	s0,s2,bfc02510 <inst_error>
bfc000b0:	00000000 	nop
bfc000b4:	3c092516 	lui	t1,0x2516
bfc000b8:	35295c46 	ori	t1,t1,0x5c46
bfc000bc:	3c088010 	lui	t0,0x8010
bfc000c0:	350894a4 	ori	t0,t0,0x94a4
bfc000c4:	240a01fc 	li	t2,508
bfc000c8:	240c01fc 	li	t4,508
bfc000cc:	3c0d9648 	lui	t5,0x9648
bfc000d0:	35adec44 	ori	t5,t5,0xec44
bfc000d4:	ad0d01fc 	sw	t5,508(t0)
bfc000d8:	a10901fc 	sb	t1,508(t0)
bfc000dc:	8d1001fc 	lw	s0,508(t0)
bfc000e0:	3c129648 	lui	s2,0x9648
bfc000e4:	3652ec46 	ori	s2,s2,0xec46
bfc000e8:	16120909 	bne	s0,s2,bfc02510 <inst_error>
bfc000ec:	00000000 	nop
bfc000f0:	3c096070 	lui	t1,0x6070
bfc000f4:	352947b4 	ori	t1,t1,0x47b4
bfc000f8:	3c088010 	lui	t0,0x8010
bfc000fc:	3508f8f0 	ori	t0,t0,0xf8f0
bfc00100:	240a00fb 	li	t2,251
bfc00104:	240c00f8 	li	t4,248
bfc00108:	3c0dc93c 	lui	t5,0xc93c
bfc0010c:	35ad8d07 	ori	t5,t5,0x8d07
bfc00110:	ad0d00f8 	sw	t5,248(t0)
bfc00114:	a10900fb 	sb	t1,251(t0)
bfc00118:	8d1000f8 	lw	s0,248(t0)
bfc0011c:	3c12b43c 	lui	s2,0xb43c
bfc00120:	36528d07 	ori	s2,s2,0x8d07
bfc00124:	161208fa 	bne	s0,s2,bfc02510 <inst_error>
bfc00128:	00000000 	nop
bfc0012c:	3c0933e9 	lui	t1,0x33e9
bfc00130:	35294a7c 	ori	t1,t1,0x4a7c
bfc00134:	3c088010 	lui	t0,0x8010
bfc00138:	350854b4 	ori	t0,t0,0x54b4
bfc0013c:	240a5210 	li	t2,21008
bfc00140:	240c5210 	li	t4,21008
bfc00144:	3c0d2a18 	lui	t5,0x2a18
bfc00148:	35adbf86 	ori	t5,t5,0xbf86
bfc0014c:	ad0d5210 	sw	t5,21008(t0)
bfc00150:	a1095210 	sb	t1,21008(t0)
bfc00154:	8d105210 	lw	s0,21008(t0)
bfc00158:	3c122a18 	lui	s2,0x2a18
bfc0015c:	3652bf7c 	ori	s2,s2,0xbf7c
bfc00160:	161208eb 	bne	s0,s2,bfc02510 <inst_error>
bfc00164:	00000000 	nop
bfc00168:	3c094852 	lui	t1,0x4852
bfc0016c:	35294d98 	ori	t1,t1,0x4d98
bfc00170:	3c088010 	lui	t0,0x8010
bfc00174:	35084c20 	ori	t0,t0,0x4c20
bfc00178:	240a5c56 	li	t2,23638
bfc0017c:	240c5c54 	li	t4,23636
bfc00180:	3c0d4283 	lui	t5,0x4283
bfc00184:	35adbdfc 	ori	t5,t5,0xbdfc
bfc00188:	ad0d5c54 	sw	t5,23636(t0)
bfc0018c:	a1095c56 	sb	t1,23638(t0)
bfc00190:	8d105c54 	lw	s0,23636(t0)
bfc00194:	3c124298 	lui	s2,0x4298
bfc00198:	3652bdfc 	ori	s2,s2,0xbdfc
bfc0019c:	161208dc 	bne	s0,s2,bfc02510 <inst_error>
bfc001a0:	00000000 	nop
bfc001a4:	3c09132a 	lui	t1,0x132a
bfc001a8:	35299383 	ori	t1,t1,0x9383
bfc001ac:	3c088010 	lui	t0,0x8010
bfc001b0:	35085b10 	ori	t0,t0,0x5b10
bfc001b4:	240a2ca8 	li	t2,11432
bfc001b8:	240c2ca8 	li	t4,11432
bfc001bc:	3c0df950 	lui	t5,0xf950
bfc001c0:	35adbe60 	ori	t5,t5,0xbe60
bfc001c4:	ad0d2ca8 	sw	t5,11432(t0)
bfc001c8:	a1092ca8 	sb	t1,11432(t0)
bfc001cc:	8d102ca8 	lw	s0,11432(t0)
bfc001d0:	3c12f950 	lui	s2,0xf950
bfc001d4:	3652be83 	ori	s2,s2,0xbe83
bfc001d8:	161208cd 	bne	s0,s2,bfc02510 <inst_error>
bfc001dc:	00000000 	nop
bfc001e0:	3c09a6a8 	lui	t1,0xa6a8
bfc001e4:	35298b20 	ori	t1,t1,0x8b20
bfc001e8:	3c088010 	lui	t0,0x8010
bfc001ec:	35089db0 	ori	t0,t0,0x9db0
bfc001f0:	240a3970 	li	t2,14704
bfc001f4:	240c3970 	li	t4,14704
bfc001f8:	3c0d7123 	lui	t5,0x7123
bfc001fc:	35ad68e3 	ori	t5,t5,0x68e3
bfc00200:	ad0d3970 	sw	t5,14704(t0)
bfc00204:	a1093970 	sb	t1,14704(t0)
bfc00208:	8d103970 	lw	s0,14704(t0)
bfc0020c:	3c127123 	lui	s2,0x7123
bfc00210:	36526820 	ori	s2,s2,0x6820
bfc00214:	161208be 	bne	s0,s2,bfc02510 <inst_error>
bfc00218:	00000000 	nop
bfc0021c:	3c093384 	lui	t1,0x3384
bfc00220:	3529462f 	ori	t1,t1,0x462f
bfc00224:	3c088010 	lui	t0,0x8010
bfc00228:	3508a420 	ori	t0,t0,0xa420
bfc0022c:	240a1560 	li	t2,5472
bfc00230:	240c1560 	li	t4,5472
bfc00234:	3c0dd1b0 	lui	t5,0xd1b0
bfc00238:	35adab60 	ori	t5,t5,0xab60
bfc0023c:	ad0d1560 	sw	t5,5472(t0)
bfc00240:	a1091560 	sb	t1,5472(t0)
bfc00244:	8d101560 	lw	s0,5472(t0)
bfc00248:	3c12d1b0 	lui	s2,0xd1b0
bfc0024c:	3652ab2f 	ori	s2,s2,0xab2f
bfc00250:	161208af 	bne	s0,s2,bfc02510 <inst_error>
bfc00254:	00000000 	nop
bfc00258:	3c09093c 	lui	t1,0x93c
bfc0025c:	35292180 	ori	t1,t1,0x2180
bfc00260:	3c088010 	lui	t0,0x8010
bfc00264:	35086f20 	ori	t0,t0,0x6f20
bfc00268:	240a67de 	li	t2,26590
bfc0026c:	240c67dc 	li	t4,26588
bfc00270:	3c0d06d2 	lui	t5,0x6d2
bfc00274:	35adb531 	ori	t5,t5,0xb531
bfc00278:	ad0d67dc 	sw	t5,26588(t0)
bfc0027c:	a10967de 	sb	t1,26590(t0)
bfc00280:	8d1067dc 	lw	s0,26588(t0)
bfc00284:	3c120680 	lui	s2,0x680
bfc00288:	3652b531 	ori	s2,s2,0xb531
bfc0028c:	161208a0 	bne	s0,s2,bfc02510 <inst_error>
bfc00290:	00000000 	nop
bfc00294:	3c09c97f 	lui	t1,0xc97f
bfc00298:	35294716 	ori	t1,t1,0x4716
bfc0029c:	3c088010 	lui	t0,0x8010
bfc002a0:	35081c3c 	ori	t0,t0,0x1c3c
bfc002a4:	240a52e6 	li	t2,21222
bfc002a8:	240c52e4 	li	t4,21220
bfc002ac:	3c0dbc5e 	lui	t5,0xbc5e
bfc002b0:	35ad8270 	ori	t5,t5,0x8270
bfc002b4:	ad0d52e4 	sw	t5,21220(t0)
bfc002b8:	a10952e6 	sb	t1,21222(t0)
bfc002bc:	8d1052e4 	lw	s0,21220(t0)
bfc002c0:	3c12bc16 	lui	s2,0xbc16
bfc002c4:	36528270 	ori	s2,s2,0x8270
bfc002c8:	16120891 	bne	s0,s2,bfc02510 <inst_error>
bfc002cc:	00000000 	nop
bfc002d0:	3c094de1 	lui	t1,0x4de1
bfc002d4:	35296970 	ori	t1,t1,0x6970
bfc002d8:	3c088010 	lui	t0,0x8010
bfc002dc:	35080770 	ori	t0,t0,0x770
bfc002e0:	240a4571 	li	t2,17777
bfc002e4:	240c4570 	li	t4,17776
bfc002e8:	3c0d6754 	lui	t5,0x6754
bfc002ec:	35ad4f88 	ori	t5,t5,0x4f88
bfc002f0:	ad0d4570 	sw	t5,17776(t0)
bfc002f4:	a1094571 	sb	t1,17777(t0)
bfc002f8:	8d104570 	lw	s0,17776(t0)
bfc002fc:	3c126754 	lui	s2,0x6754
bfc00300:	36527088 	ori	s2,s2,0x7088
bfc00304:	16120882 	bne	s0,s2,bfc02510 <inst_error>
bfc00308:	00000000 	nop
bfc0030c:	3c091204 	lui	t1,0x1204
bfc00310:	35293778 	ori	t1,t1,0x3778
bfc00314:	3c088010 	lui	t0,0x8010
bfc00318:	35089718 	ori	t0,t0,0x9718
bfc0031c:	240a0121 	li	t2,289
bfc00320:	240c0120 	li	t4,288
bfc00324:	3c0d9a91 	lui	t5,0x9a91
bfc00328:	35ad63f0 	ori	t5,t5,0x63f0
bfc0032c:	ad0d0120 	sw	t5,288(t0)
bfc00330:	a1090121 	sb	t1,289(t0)
bfc00334:	8d100120 	lw	s0,288(t0)
bfc00338:	3c129a91 	lui	s2,0x9a91
bfc0033c:	365278f0 	ori	s2,s2,0x78f0
bfc00340:	16120873 	bne	s0,s2,bfc02510 <inst_error>
bfc00344:	00000000 	nop
bfc00348:	3c090264 	lui	t1,0x264
bfc0034c:	35290360 	ori	t1,t1,0x360
bfc00350:	3c088010 	lui	t0,0x8010
bfc00354:	35081e24 	ori	t0,t0,0x1e24
bfc00358:	240a0f28 	li	t2,3880
bfc0035c:	240c0f28 	li	t4,3880
bfc00360:	3c0de9a7 	lui	t5,0xe9a7
bfc00364:	35ad36d0 	ori	t5,t5,0x36d0
bfc00368:	ad0d0f28 	sw	t5,3880(t0)
bfc0036c:	a1090f28 	sb	t1,3880(t0)
bfc00370:	8d100f28 	lw	s0,3880(t0)
bfc00374:	3c12e9a7 	lui	s2,0xe9a7
bfc00378:	36523660 	ori	s2,s2,0x3660
bfc0037c:	16120864 	bne	s0,s2,bfc02510 <inst_error>
bfc00380:	00000000 	nop
bfc00384:	3c0923cf 	lui	t1,0x23cf
bfc00388:	3529ed10 	ori	t1,t1,0xed10
bfc0038c:	3c088010 	lui	t0,0x8010
bfc00390:	3508d340 	ori	t0,t0,0xd340
bfc00394:	240a1de4 	li	t2,7652
bfc00398:	240c1de4 	li	t4,7652
bfc0039c:	3c0debf1 	lui	t5,0xebf1
bfc003a0:	35adc120 	ori	t5,t5,0xc120
bfc003a4:	ad0d1de4 	sw	t5,7652(t0)
bfc003a8:	a1091de4 	sb	t1,7652(t0)
bfc003ac:	8d101de4 	lw	s0,7652(t0)
bfc003b0:	3c12ebf1 	lui	s2,0xebf1
bfc003b4:	3652c110 	ori	s2,s2,0xc110
bfc003b8:	16120855 	bne	s0,s2,bfc02510 <inst_error>
bfc003bc:	00000000 	nop
bfc003c0:	3c091b55 	lui	t1,0x1b55
bfc003c4:	35297440 	ori	t1,t1,0x7440
bfc003c8:	3c088010 	lui	t0,0x8010
bfc003cc:	350856f0 	ori	t0,t0,0x56f0
bfc003d0:	240a430a 	li	t2,17162
bfc003d4:	240c4308 	li	t4,17160
bfc003d8:	3c0d5854 	lui	t5,0x5854
bfc003dc:	35ad9334 	ori	t5,t5,0x9334
bfc003e0:	ad0d4308 	sw	t5,17160(t0)
bfc003e4:	a109430a 	sb	t1,17162(t0)
bfc003e8:	8d104308 	lw	s0,17160(t0)
bfc003ec:	3c125840 	lui	s2,0x5840
bfc003f0:	36529334 	ori	s2,s2,0x9334
bfc003f4:	16120846 	bne	s0,s2,bfc02510 <inst_error>
bfc003f8:	00000000 	nop
bfc003fc:	3c099705 	lui	t1,0x9705
bfc00400:	3529c818 	ori	t1,t1,0xc818
bfc00404:	3c088010 	lui	t0,0x8010
bfc00408:	3508869c 	ori	t0,t0,0x869c
bfc0040c:	240a197e 	li	t2,6526
bfc00410:	240c197c 	li	t4,6524
bfc00414:	3c0d0a1f 	lui	t5,0xa1f
bfc00418:	35ad3a0d 	ori	t5,t5,0x3a0d
bfc0041c:	ad0d197c 	sw	t5,6524(t0)
bfc00420:	a109197e 	sb	t1,6526(t0)
bfc00424:	8d10197c 	lw	s0,6524(t0)
bfc00428:	3c120a18 	lui	s2,0xa18
bfc0042c:	36523a0d 	ori	s2,s2,0x3a0d
bfc00430:	16120837 	bne	s0,s2,bfc02510 <inst_error>
bfc00434:	00000000 	nop
bfc00438:	3c09e26f 	lui	t1,0xe26f
bfc0043c:	3529d0dc 	ori	t1,t1,0xd0dc
bfc00440:	3c088010 	lui	t0,0x8010
bfc00444:	3508d4a0 	ori	t0,t0,0xd4a0
bfc00448:	240a01f4 	li	t2,500
bfc0044c:	240c01f4 	li	t4,500
bfc00450:	3c0dc545 	lui	t5,0xc545
bfc00454:	35adeb10 	ori	t5,t5,0xeb10
bfc00458:	ad0d01f4 	sw	t5,500(t0)
bfc0045c:	a10901f4 	sb	t1,500(t0)
bfc00460:	8d1001f4 	lw	s0,500(t0)
bfc00464:	3c12c545 	lui	s2,0xc545
bfc00468:	3652ebdc 	ori	s2,s2,0xebdc
bfc0046c:	16120828 	bne	s0,s2,bfc02510 <inst_error>
bfc00470:	00000000 	nop
bfc00474:	3c092b6d 	lui	t1,0x2b6d
bfc00478:	35299dcc 	ori	t1,t1,0x9dcc
bfc0047c:	3c088010 	lui	t0,0x8010
bfc00480:	35085654 	ori	t0,t0,0x5654
bfc00484:	240a46af 	li	t2,18095
bfc00488:	240c46ac 	li	t4,18092
bfc0048c:	3c0d2495 	lui	t5,0x2495
bfc00490:	35ada82c 	ori	t5,t5,0xa82c
bfc00494:	ad0d46ac 	sw	t5,18092(t0)
bfc00498:	a10946af 	sb	t1,18095(t0)
bfc0049c:	8d1046ac 	lw	s0,18092(t0)
bfc004a0:	3c12cc95 	lui	s2,0xcc95
bfc004a4:	3652a82c 	ori	s2,s2,0xa82c
bfc004a8:	16120819 	bne	s0,s2,bfc02510 <inst_error>
bfc004ac:	00000000 	nop
bfc004b0:	3c097285 	lui	t1,0x7285
bfc004b4:	352925c0 	ori	t1,t1,0x25c0
bfc004b8:	3c088010 	lui	t0,0x8010
bfc004bc:	35082538 	ori	t0,t0,0x2538
bfc004c0:	240a0d04 	li	t2,3332
bfc004c4:	240c0d04 	li	t4,3332
bfc004c8:	3c0dd155 	lui	t5,0xd155
bfc004cc:	35ad26cc 	ori	t5,t5,0x26cc
bfc004d0:	ad0d0d04 	sw	t5,3332(t0)
bfc004d4:	a1090d04 	sb	t1,3332(t0)
bfc004d8:	8d100d04 	lw	s0,3332(t0)
bfc004dc:	3c12d155 	lui	s2,0xd155
bfc004e0:	365226c0 	ori	s2,s2,0x26c0
bfc004e4:	1612080a 	bne	s0,s2,bfc02510 <inst_error>
bfc004e8:	00000000 	nop
bfc004ec:	3c0909c0 	lui	t1,0x9c0
bfc004f0:	3529dd47 	ori	t1,t1,0xdd47
bfc004f4:	3c088010 	lui	t0,0x8010
bfc004f8:	35082400 	ori	t0,t0,0x2400
bfc004fc:	340abd3d 	li	t2,0xbd3d
bfc00500:	340cbd3c 	li	t4,0xbd3c
bfc00504:	3c0d4995 	lui	t5,0x4995
bfc00508:	35ad521e 	ori	t5,t5,0x521e
bfc0050c:	3c010001 	lui	at,0x1
bfc00510:	00280821 	addu	at,at,t0
bfc00514:	ac2dbd3c 	sw	t5,-17092(at)
bfc00518:	3c010001 	lui	at,0x1
bfc0051c:	00280821 	addu	at,at,t0
bfc00520:	a029bd3d 	sb	t1,-17091(at)
bfc00524:	3c100001 	lui	s0,0x1
bfc00528:	02088021 	addu	s0,s0,t0
bfc0052c:	8e10bd3c 	lw	s0,-17092(s0)
bfc00530:	3c124995 	lui	s2,0x4995
bfc00534:	3652471e 	ori	s2,s2,0x471e
bfc00538:	161207f5 	bne	s0,s2,bfc02510 <inst_error>
bfc0053c:	00000000 	nop
bfc00540:	3c09b7dc 	lui	t1,0xb7dc
bfc00544:	3529b7de 	ori	t1,t1,0xb7de
bfc00548:	3c088010 	lui	t0,0x8010
bfc0054c:	35085324 	ori	t0,t0,0x5324
bfc00550:	240a15a8 	li	t2,5544
bfc00554:	240c15a8 	li	t4,5544
bfc00558:	3c0de68f 	lui	t5,0xe68f
bfc0055c:	35ada3cb 	ori	t5,t5,0xa3cb
bfc00560:	ad0d15a8 	sw	t5,5544(t0)
bfc00564:	a10915a8 	sb	t1,5544(t0)
bfc00568:	8d1015a8 	lw	s0,5544(t0)
bfc0056c:	3c12e68f 	lui	s2,0xe68f
bfc00570:	3652a3de 	ori	s2,s2,0xa3de
bfc00574:	161207e6 	bne	s0,s2,bfc02510 <inst_error>
bfc00578:	00000000 	nop
bfc0057c:	3c09fd28 	lui	t1,0xfd28
bfc00580:	352982a4 	ori	t1,t1,0x82a4
bfc00584:	3c088010 	lui	t0,0x8010
bfc00588:	3508bb68 	ori	t0,t0,0xbb68
bfc0058c:	240a3d18 	li	t2,15640
bfc00590:	240c3d18 	li	t4,15640
bfc00594:	3c0da1d5 	lui	t5,0xa1d5
bfc00598:	35ad08e8 	ori	t5,t5,0x8e8
bfc0059c:	ad0d3d18 	sw	t5,15640(t0)
bfc005a0:	a1093d18 	sb	t1,15640(t0)
bfc005a4:	8d103d18 	lw	s0,15640(t0)
bfc005a8:	3c12a1d5 	lui	s2,0xa1d5
bfc005ac:	365208a4 	ori	s2,s2,0x8a4
bfc005b0:	161207d7 	bne	s0,s2,bfc02510 <inst_error>
bfc005b4:	00000000 	nop
bfc005b8:	3c09d5fc 	lui	t1,0xd5fc
bfc005bc:	35298620 	ori	t1,t1,0x8620
bfc005c0:	3c088010 	lui	t0,0x8010
bfc005c4:	35082b20 	ori	t0,t0,0x2b20
bfc005c8:	340ab797 	li	t2,0xb797
bfc005cc:	340cb794 	li	t4,0xb794
bfc005d0:	3c0d1951 	lui	t5,0x1951
bfc005d4:	35ad5bd9 	ori	t5,t5,0x5bd9
bfc005d8:	3c010001 	lui	at,0x1
bfc005dc:	00280821 	addu	at,at,t0
bfc005e0:	ac2db794 	sw	t5,-18540(at)
bfc005e4:	3c010001 	lui	at,0x1
bfc005e8:	00280821 	addu	at,at,t0
bfc005ec:	a029b797 	sb	t1,-18537(at)
bfc005f0:	3c100001 	lui	s0,0x1
bfc005f4:	02088021 	addu	s0,s0,t0
bfc005f8:	8e10b794 	lw	s0,-18540(s0)
bfc005fc:	3c122051 	lui	s2,0x2051
bfc00600:	36525bd9 	ori	s2,s2,0x5bd9
bfc00604:	161207c2 	bne	s0,s2,bfc02510 <inst_error>
bfc00608:	00000000 	nop
bfc0060c:	3c098de3 	lui	t1,0x8de3
bfc00610:	3529033d 	ori	t1,t1,0x33d
bfc00614:	3c088010 	lui	t0,0x8010
bfc00618:	350883d4 	ori	t0,t0,0x83d4
bfc0061c:	240a4d0c 	li	t2,19724
bfc00620:	240c4d0c 	li	t4,19724
bfc00624:	3c0d431f 	lui	t5,0x431f
bfc00628:	35ad36bc 	ori	t5,t5,0x36bc
bfc0062c:	ad0d4d0c 	sw	t5,19724(t0)
bfc00630:	a1094d0c 	sb	t1,19724(t0)
bfc00634:	8d104d0c 	lw	s0,19724(t0)
bfc00638:	3c12431f 	lui	s2,0x431f
bfc0063c:	3652363d 	ori	s2,s2,0x363d
bfc00640:	161207b3 	bne	s0,s2,bfc02510 <inst_error>
bfc00644:	00000000 	nop
bfc00648:	3c093eb8 	lui	t1,0x3eb8
bfc0064c:	3529314c 	ori	t1,t1,0x314c
bfc00650:	3c088010 	lui	t0,0x8010
bfc00654:	3508e3a8 	ori	t0,t0,0xe3a8
bfc00658:	240a0ae5 	li	t2,2789
bfc0065c:	240c0ae4 	li	t4,2788
bfc00660:	3c0d3232 	lui	t5,0x3232
bfc00664:	35ad9da6 	ori	t5,t5,0x9da6
bfc00668:	ad0d0ae4 	sw	t5,2788(t0)
bfc0066c:	a1090ae5 	sb	t1,2789(t0)
bfc00670:	8d100ae4 	lw	s0,2788(t0)
bfc00674:	3c123232 	lui	s2,0x3232
bfc00678:	36524ca6 	ori	s2,s2,0x4ca6
bfc0067c:	161207a4 	bne	s0,s2,bfc02510 <inst_error>
bfc00680:	00000000 	nop
bfc00684:	3c09cb6e 	lui	t1,0xcb6e
bfc00688:	3529a900 	ori	t1,t1,0xa900
bfc0068c:	3c088010 	lui	t0,0x8010
bfc00690:	35084550 	ori	t0,t0,0x4550
bfc00694:	240a66a6 	li	t2,26278
bfc00698:	240c66a4 	li	t4,26276
bfc0069c:	3c0dc12c 	lui	t5,0xc12c
bfc006a0:	35adc3cc 	ori	t5,t5,0xc3cc
bfc006a4:	ad0d66a4 	sw	t5,26276(t0)
bfc006a8:	a10966a6 	sb	t1,26278(t0)
bfc006ac:	8d1066a4 	lw	s0,26276(t0)
bfc006b0:	3c12c100 	lui	s2,0xc100
bfc006b4:	3652c3cc 	ori	s2,s2,0xc3cc
bfc006b8:	16120795 	bne	s0,s2,bfc02510 <inst_error>
bfc006bc:	00000000 	nop
bfc006c0:	3c09e9ff 	lui	t1,0xe9ff
bfc006c4:	3529efab 	ori	t1,t1,0xefab
bfc006c8:	3c088010 	lui	t0,0x8010
bfc006cc:	350882b4 	ori	t0,t0,0x82b4
bfc006d0:	240a41f4 	li	t2,16884
bfc006d4:	240c41f4 	li	t4,16884
bfc006d8:	3c0d4c48 	lui	t5,0x4c48
bfc006dc:	35adff70 	ori	t5,t5,0xff70
bfc006e0:	ad0d41f4 	sw	t5,16884(t0)
bfc006e4:	a10941f4 	sb	t1,16884(t0)
bfc006e8:	8d1041f4 	lw	s0,16884(t0)
bfc006ec:	3c124c48 	lui	s2,0x4c48
bfc006f0:	3652ffab 	ori	s2,s2,0xffab
bfc006f4:	16120786 	bne	s0,s2,bfc02510 <inst_error>
bfc006f8:	00000000 	nop
bfc006fc:	3c090bcb 	lui	t1,0xbcb
bfc00700:	35297118 	ori	t1,t1,0x7118
bfc00704:	3c088010 	lui	t0,0x8010
bfc00708:	35084fdc 	ori	t0,t0,0x4fdc
bfc0070c:	240a2f0c 	li	t2,12044
bfc00710:	240c2f0c 	li	t4,12044
bfc00714:	3c0d9100 	lui	t5,0x9100
bfc00718:	35ad6168 	ori	t5,t5,0x6168
bfc0071c:	ad0d2f0c 	sw	t5,12044(t0)
bfc00720:	a1092f0c 	sb	t1,12044(t0)
bfc00724:	8d102f0c 	lw	s0,12044(t0)
bfc00728:	3c129100 	lui	s2,0x9100
bfc0072c:	36526118 	ori	s2,s2,0x6118
bfc00730:	16120777 	bne	s0,s2,bfc02510 <inst_error>
bfc00734:	00000000 	nop
bfc00738:	3c097d4a 	lui	t1,0x7d4a
bfc0073c:	35296bb6 	ori	t1,t1,0x6bb6
bfc00740:	3c088010 	lui	t0,0x8010
bfc00744:	3508635c 	ori	t0,t0,0x635c
bfc00748:	240a1b7e 	li	t2,7038
bfc0074c:	240c1b7c 	li	t4,7036
bfc00750:	3c0d8fe7 	lui	t5,0x8fe7
bfc00754:	35ad39a2 	ori	t5,t5,0x39a2
bfc00758:	ad0d1b7c 	sw	t5,7036(t0)
bfc0075c:	a1091b7e 	sb	t1,7038(t0)
bfc00760:	8d101b7c 	lw	s0,7036(t0)
bfc00764:	3c128fb6 	lui	s2,0x8fb6
bfc00768:	365239a2 	ori	s2,s2,0x39a2
bfc0076c:	16120768 	bne	s0,s2,bfc02510 <inst_error>
bfc00770:	00000000 	nop
bfc00774:	3c09ff48 	lui	t1,0xff48
bfc00778:	35291820 	ori	t1,t1,0x1820
bfc0077c:	3c088010 	lui	t0,0x8010
bfc00780:	3508d9e8 	ori	t0,t0,0xd9e8
bfc00784:	240a06e8 	li	t2,1768
bfc00788:	240c06e8 	li	t4,1768
bfc0078c:	3c0d4be1 	lui	t5,0x4be1
bfc00790:	35ad5cd4 	ori	t5,t5,0x5cd4
bfc00794:	ad0d06e8 	sw	t5,1768(t0)
bfc00798:	a10906e8 	sb	t1,1768(t0)
bfc0079c:	8d1006e8 	lw	s0,1768(t0)
bfc007a0:	3c124be1 	lui	s2,0x4be1
bfc007a4:	36525c20 	ori	s2,s2,0x5c20
bfc007a8:	16120759 	bne	s0,s2,bfc02510 <inst_error>
bfc007ac:	00000000 	nop
bfc007b0:	3c09229f 	lui	t1,0x229f
bfc007b4:	3529a36c 	ori	t1,t1,0xa36c
bfc007b8:	3c088010 	lui	t0,0x8010
bfc007bc:	35080f70 	ori	t0,t0,0xf70
bfc007c0:	240a4c50 	li	t2,19536
bfc007c4:	240c4c50 	li	t4,19536
bfc007c8:	3c0dab84 	lui	t5,0xab84
bfc007cc:	35adef36 	ori	t5,t5,0xef36
bfc007d0:	ad0d4c50 	sw	t5,19536(t0)
bfc007d4:	a1094c50 	sb	t1,19536(t0)
bfc007d8:	8d104c50 	lw	s0,19536(t0)
bfc007dc:	3c12ab84 	lui	s2,0xab84
bfc007e0:	3652ef6c 	ori	s2,s2,0xef6c
bfc007e4:	1612074a 	bne	s0,s2,bfc02510 <inst_error>
bfc007e8:	00000000 	nop
bfc007ec:	3c099c60 	lui	t1,0x9c60
bfc007f0:	35295140 	ori	t1,t1,0x5140
bfc007f4:	3c088010 	lui	t0,0x8010
bfc007f8:	35081bb4 	ori	t0,t0,0x1bb4
bfc007fc:	340abc54 	li	t2,0xbc54
bfc00800:	340cbc54 	li	t4,0xbc54
bfc00804:	3c0d0ab4 	lui	t5,0xab4
bfc00808:	35ad30f0 	ori	t5,t5,0x30f0
bfc0080c:	3c010001 	lui	at,0x1
bfc00810:	00280821 	addu	at,at,t0
bfc00814:	ac2dbc54 	sw	t5,-17324(at)
bfc00818:	3c010001 	lui	at,0x1
bfc0081c:	00280821 	addu	at,at,t0
bfc00820:	a029bc54 	sb	t1,-17324(at)
bfc00824:	3c100001 	lui	s0,0x1
bfc00828:	02088021 	addu	s0,s0,t0
bfc0082c:	8e10bc54 	lw	s0,-17324(s0)
bfc00830:	3c120ab4 	lui	s2,0xab4
bfc00834:	36523040 	ori	s2,s2,0x3040
bfc00838:	16120735 	bne	s0,s2,bfc02510 <inst_error>
bfc0083c:	00000000 	nop
bfc00840:	3c092943 	lui	t1,0x2943
bfc00844:	352937c4 	ori	t1,t1,0x37c4
bfc00848:	3c088010 	lui	t0,0x8010
bfc0084c:	35083a28 	ori	t0,t0,0x3a28
bfc00850:	340aa532 	li	t2,0xa532
bfc00854:	340ca530 	li	t4,0xa530
bfc00858:	3c0dc9df 	lui	t5,0xc9df
bfc0085c:	35ad3d10 	ori	t5,t5,0x3d10
bfc00860:	3c010001 	lui	at,0x1
bfc00864:	00280821 	addu	at,at,t0
bfc00868:	ac2da530 	sw	t5,-23248(at)
bfc0086c:	3c010001 	lui	at,0x1
bfc00870:	00280821 	addu	at,at,t0
bfc00874:	a029a532 	sb	t1,-23246(at)
bfc00878:	3c100001 	lui	s0,0x1
bfc0087c:	02088021 	addu	s0,s0,t0
bfc00880:	8e10a530 	lw	s0,-23248(s0)
bfc00884:	3c12c9c4 	lui	s2,0xc9c4
bfc00888:	36523d10 	ori	s2,s2,0x3d10
bfc0088c:	16120720 	bne	s0,s2,bfc02510 <inst_error>
bfc00890:	00000000 	nop
bfc00894:	3c095471 	lui	t1,0x5471
bfc00898:	3529d562 	ori	t1,t1,0xd562
bfc0089c:	3c088010 	lui	t0,0x8010
bfc008a0:	3508383c 	ori	t0,t0,0x383c
bfc008a4:	240a2272 	li	t2,8818
bfc008a8:	240c2270 	li	t4,8816
bfc008ac:	3c0d8e71 	lui	t5,0x8e71
bfc008b0:	35adb1bc 	ori	t5,t5,0xb1bc
bfc008b4:	ad0d2270 	sw	t5,8816(t0)
bfc008b8:	a1092272 	sb	t1,8818(t0)
bfc008bc:	8d102270 	lw	s0,8816(t0)
bfc008c0:	3c128e62 	lui	s2,0x8e62
bfc008c4:	3652b1bc 	ori	s2,s2,0xb1bc
bfc008c8:	16120711 	bne	s0,s2,bfc02510 <inst_error>
bfc008cc:	00000000 	nop
bfc008d0:	3c09ceb7 	lui	t1,0xceb7
bfc008d4:	35297ef8 	ori	t1,t1,0x7ef8
bfc008d8:	3c088010 	lui	t0,0x8010
bfc008dc:	3508dd40 	ori	t0,t0,0xdd40
bfc008e0:	240a1838 	li	t2,6200
bfc008e4:	240c1838 	li	t4,6200
bfc008e8:	3c0d29c4 	lui	t5,0x29c4
bfc008ec:	35ad4152 	ori	t5,t5,0x4152
bfc008f0:	ad0d1838 	sw	t5,6200(t0)
bfc008f4:	a1091838 	sb	t1,6200(t0)
bfc008f8:	8d101838 	lw	s0,6200(t0)
bfc008fc:	3c1229c4 	lui	s2,0x29c4
bfc00900:	365241f8 	ori	s2,s2,0x41f8
bfc00904:	16120702 	bne	s0,s2,bfc02510 <inst_error>
bfc00908:	00000000 	nop
bfc0090c:	3c09f86a 	lui	t1,0xf86a
bfc00910:	35297943 	ori	t1,t1,0x7943
bfc00914:	3c088010 	lui	t0,0x8010
bfc00918:	350823c0 	ori	t0,t0,0x23c0
bfc0091c:	340aa4bc 	li	t2,0xa4bc
bfc00920:	340ca4bc 	li	t4,0xa4bc
bfc00924:	3c0dfacb 	lui	t5,0xfacb
bfc00928:	35ad2a90 	ori	t5,t5,0x2a90
bfc0092c:	3c010001 	lui	at,0x1
bfc00930:	00280821 	addu	at,at,t0
bfc00934:	ac2da4bc 	sw	t5,-23364(at)
bfc00938:	3c010001 	lui	at,0x1
bfc0093c:	00280821 	addu	at,at,t0
bfc00940:	a029a4bc 	sb	t1,-23364(at)
bfc00944:	3c100001 	lui	s0,0x1
bfc00948:	02088021 	addu	s0,s0,t0
bfc0094c:	8e10a4bc 	lw	s0,-23364(s0)
bfc00950:	3c12facb 	lui	s2,0xfacb
bfc00954:	36522a43 	ori	s2,s2,0x2a43
bfc00958:	161206ed 	bne	s0,s2,bfc02510 <inst_error>
bfc0095c:	00000000 	nop
bfc00960:	3c09b88e 	lui	t1,0xb88e
bfc00964:	35299842 	ori	t1,t1,0x9842
bfc00968:	3c088010 	lui	t0,0x8010
bfc0096c:	35081fcc 	ori	t0,t0,0x1fcc
bfc00970:	240a5586 	li	t2,21894
bfc00974:	240c5584 	li	t4,21892
bfc00978:	3c0d9201 	lui	t5,0x9201
bfc0097c:	35ad2960 	ori	t5,t5,0x2960
bfc00980:	ad0d5584 	sw	t5,21892(t0)
bfc00984:	a1095586 	sb	t1,21894(t0)
bfc00988:	8d105584 	lw	s0,21892(t0)
bfc0098c:	3c129242 	lui	s2,0x9242
bfc00990:	36522960 	ori	s2,s2,0x2960
bfc00994:	161206de 	bne	s0,s2,bfc02510 <inst_error>
bfc00998:	00000000 	nop
bfc0099c:	3c09243f 	lui	t1,0x243f
bfc009a0:	3529b100 	ori	t1,t1,0xb100
bfc009a4:	3c088010 	lui	t0,0x8010
bfc009a8:	35081f60 	ori	t0,t0,0x1f60
bfc009ac:	340a9564 	li	t2,0x9564
bfc009b0:	340c9564 	li	t4,0x9564
bfc009b4:	3c0de182 	lui	t5,0xe182
bfc009b8:	35ad1d9f 	ori	t5,t5,0x1d9f
bfc009bc:	3c010001 	lui	at,0x1
bfc009c0:	00280821 	addu	at,at,t0
bfc009c4:	ac2d9564 	sw	t5,-27292(at)
bfc009c8:	3c010001 	lui	at,0x1
bfc009cc:	00280821 	addu	at,at,t0
bfc009d0:	a0299564 	sb	t1,-27292(at)
bfc009d4:	3c100001 	lui	s0,0x1
bfc009d8:	02088021 	addu	s0,s0,t0
bfc009dc:	8e109564 	lw	s0,-27292(s0)
bfc009e0:	3c12e182 	lui	s2,0xe182
bfc009e4:	36521d00 	ori	s2,s2,0x1d00
bfc009e8:	161206c9 	bne	s0,s2,bfc02510 <inst_error>
bfc009ec:	00000000 	nop
bfc009f0:	3c096d26 	lui	t1,0x6d26
bfc009f4:	3529ba18 	ori	t1,t1,0xba18
bfc009f8:	3c088010 	lui	t0,0x8010
bfc009fc:	35080de4 	ori	t0,t0,0xde4
bfc00a00:	240a7f55 	li	t2,32597
bfc00a04:	240c7f54 	li	t4,32596
bfc00a08:	3c0de046 	lui	t5,0xe046
bfc00a0c:	35adc016 	ori	t5,t5,0xc016
bfc00a10:	ad0d7f54 	sw	t5,32596(t0)
bfc00a14:	a1097f55 	sb	t1,32597(t0)
bfc00a18:	8d107f54 	lw	s0,32596(t0)
bfc00a1c:	3c12e046 	lui	s2,0xe046
bfc00a20:	36521816 	ori	s2,s2,0x1816
bfc00a24:	161206ba 	bne	s0,s2,bfc02510 <inst_error>
bfc00a28:	00000000 	nop
bfc00a2c:	3c09a43f 	lui	t1,0xa43f
bfc00a30:	3529f300 	ori	t1,t1,0xf300
bfc00a34:	3c088010 	lui	t0,0x8010
bfc00a38:	35084b28 	ori	t0,t0,0x4b28
bfc00a3c:	240a4e23 	li	t2,20003
bfc00a40:	240c4e20 	li	t4,20000
bfc00a44:	3c0d11b7 	lui	t5,0x11b7
bfc00a48:	35ad7b10 	ori	t5,t5,0x7b10
bfc00a4c:	ad0d4e20 	sw	t5,20000(t0)
bfc00a50:	a1094e23 	sb	t1,20003(t0)
bfc00a54:	8d104e20 	lw	s0,20000(t0)
bfc00a58:	3c1200b7 	lui	s2,0xb7
bfc00a5c:	36527b10 	ori	s2,s2,0x7b10
bfc00a60:	161206ab 	bne	s0,s2,bfc02510 <inst_error>
bfc00a64:	00000000 	nop
bfc00a68:	3c092acd 	lui	t1,0x2acd
bfc00a6c:	3529e050 	ori	t1,t1,0xe050
bfc00a70:	3c088010 	lui	t0,0x8010
bfc00a74:	35085690 	ori	t0,t0,0x5690
bfc00a78:	240a0060 	li	t2,96
bfc00a7c:	240c0060 	li	t4,96
bfc00a80:	3c0de07e 	lui	t5,0xe07e
bfc00a84:	35adb068 	ori	t5,t5,0xb068
bfc00a88:	ad0d0060 	sw	t5,96(t0)
bfc00a8c:	a1090060 	sb	t1,96(t0)
bfc00a90:	8d100060 	lw	s0,96(t0)
bfc00a94:	3c12e07e 	lui	s2,0xe07e
bfc00a98:	3652b050 	ori	s2,s2,0xb050
bfc00a9c:	1612069c 	bne	s0,s2,bfc02510 <inst_error>
bfc00aa0:	00000000 	nop
bfc00aa4:	3c09b41b 	lui	t1,0xb41b
bfc00aa8:	3529fba8 	ori	t1,t1,0xfba8
bfc00aac:	3c088010 	lui	t0,0x8010
bfc00ab0:	35088300 	ori	t0,t0,0x8300
bfc00ab4:	240a1ceb 	li	t2,7403
bfc00ab8:	240c1ce8 	li	t4,7400
bfc00abc:	3c0da043 	lui	t5,0xa043
bfc00ac0:	35ade100 	ori	t5,t5,0xe100
bfc00ac4:	ad0d1ce8 	sw	t5,7400(t0)
bfc00ac8:	a1091ceb 	sb	t1,7403(t0)
bfc00acc:	8d101ce8 	lw	s0,7400(t0)
bfc00ad0:	3c12a843 	lui	s2,0xa843
bfc00ad4:	3652e100 	ori	s2,s2,0xe100
bfc00ad8:	1612068d 	bne	s0,s2,bfc02510 <inst_error>
bfc00adc:	00000000 	nop
bfc00ae0:	3c09f0f8 	lui	t1,0xf0f8
bfc00ae4:	352932f0 	ori	t1,t1,0x32f0
bfc00ae8:	3c088010 	lui	t0,0x8010
bfc00aec:	35088bbc 	ori	t0,t0,0x8bbc
bfc00af0:	240a6658 	li	t2,26200
bfc00af4:	240c6658 	li	t4,26200
bfc00af8:	3c0d4aaa 	lui	t5,0x4aaa
bfc00afc:	35ad2324 	ori	t5,t5,0x2324
bfc00b00:	ad0d6658 	sw	t5,26200(t0)
bfc00b04:	a1096658 	sb	t1,26200(t0)
bfc00b08:	8d106658 	lw	s0,26200(t0)
bfc00b0c:	3c124aaa 	lui	s2,0x4aaa
bfc00b10:	365223f0 	ori	s2,s2,0x23f0
bfc00b14:	1612067e 	bne	s0,s2,bfc02510 <inst_error>
bfc00b18:	00000000 	nop
bfc00b1c:	3c092bb7 	lui	t1,0x2bb7
bfc00b20:	3529892d 	ori	t1,t1,0x892d
bfc00b24:	3c088010 	lui	t0,0x8010
bfc00b28:	35084fe8 	ori	t0,t0,0x4fe8
bfc00b2c:	340a8e30 	li	t2,0x8e30
bfc00b30:	340c8e30 	li	t4,0x8e30
bfc00b34:	3c0d786a 	lui	t5,0x786a
bfc00b38:	35add380 	ori	t5,t5,0xd380
bfc00b3c:	3c010001 	lui	at,0x1
bfc00b40:	00280821 	addu	at,at,t0
bfc00b44:	ac2d8e30 	sw	t5,-29136(at)
bfc00b48:	3c010001 	lui	at,0x1
bfc00b4c:	00280821 	addu	at,at,t0
bfc00b50:	a0298e30 	sb	t1,-29136(at)
bfc00b54:	3c100001 	lui	s0,0x1
bfc00b58:	02088021 	addu	s0,s0,t0
bfc00b5c:	8e108e30 	lw	s0,-29136(s0)
bfc00b60:	3c12786a 	lui	s2,0x786a
bfc00b64:	3652d32d 	ori	s2,s2,0xd32d
bfc00b68:	16120669 	bne	s0,s2,bfc02510 <inst_error>
bfc00b6c:	00000000 	nop
bfc00b70:	3c091e3d 	lui	t1,0x1e3d
bfc00b74:	35290b98 	ori	t1,t1,0xb98
bfc00b78:	3c088010 	lui	t0,0x8010
bfc00b7c:	35083934 	ori	t0,t0,0x3934
bfc00b80:	240a3cba 	li	t2,15546
bfc00b84:	240c3cb8 	li	t4,15544
bfc00b88:	3c0d59cc 	lui	t5,0x59cc
bfc00b8c:	35ad096a 	ori	t5,t5,0x96a
bfc00b90:	ad0d3cb8 	sw	t5,15544(t0)
bfc00b94:	a1093cba 	sb	t1,15546(t0)
bfc00b98:	8d103cb8 	lw	s0,15544(t0)
bfc00b9c:	3c125998 	lui	s2,0x5998
bfc00ba0:	3652096a 	ori	s2,s2,0x96a
bfc00ba4:	1612065a 	bne	s0,s2,bfc02510 <inst_error>
bfc00ba8:	00000000 	nop
bfc00bac:	3c09b332 	lui	t1,0xb332
bfc00bb0:	35290d55 	ori	t1,t1,0xd55
bfc00bb4:	3c088010 	lui	t0,0x8010
bfc00bb8:	35084b70 	ori	t0,t0,0x4b70
bfc00bbc:	240a1c10 	li	t2,7184
bfc00bc0:	240c1c10 	li	t4,7184
bfc00bc4:	3c0d526c 	lui	t5,0x526c
bfc00bc8:	35ad5640 	ori	t5,t5,0x5640
bfc00bcc:	ad0d1c10 	sw	t5,7184(t0)
bfc00bd0:	a1091c10 	sb	t1,7184(t0)
bfc00bd4:	8d101c10 	lw	s0,7184(t0)
bfc00bd8:	3c12526c 	lui	s2,0x526c
bfc00bdc:	36525655 	ori	s2,s2,0x5655
bfc00be0:	1612064b 	bne	s0,s2,bfc02510 <inst_error>
bfc00be4:	00000000 	nop
bfc00be8:	3c09093d 	lui	t1,0x93d
bfc00bec:	3529eefd 	ori	t1,t1,0xeefd
bfc00bf0:	3c088010 	lui	t0,0x8010
bfc00bf4:	350857d8 	ori	t0,t0,0x57d8
bfc00bf8:	340a8802 	li	t2,0x8802
bfc00bfc:	340c8800 	li	t4,0x8800
bfc00c00:	3c0d9052 	lui	t5,0x9052
bfc00c04:	35ad9fa8 	ori	t5,t5,0x9fa8
bfc00c08:	3c010001 	lui	at,0x1
bfc00c0c:	00280821 	addu	at,at,t0
bfc00c10:	ac2d8800 	sw	t5,-30720(at)
bfc00c14:	3c010001 	lui	at,0x1
bfc00c18:	00280821 	addu	at,at,t0
bfc00c1c:	a0298802 	sb	t1,-30718(at)
bfc00c20:	3c100001 	lui	s0,0x1
bfc00c24:	02088021 	addu	s0,s0,t0
bfc00c28:	8e108800 	lw	s0,-30720(s0)
bfc00c2c:	3c1290fd 	lui	s2,0x90fd
bfc00c30:	36529fa8 	ori	s2,s2,0x9fa8
bfc00c34:	16120636 	bne	s0,s2,bfc02510 <inst_error>
bfc00c38:	00000000 	nop
bfc00c3c:	3c096a92 	lui	t1,0x6a92
bfc00c40:	352969dc 	ori	t1,t1,0x69dc
bfc00c44:	3c088010 	lui	t0,0x8010
bfc00c48:	350813b8 	ori	t0,t0,0x13b8
bfc00c4c:	340add02 	li	t2,0xdd02
bfc00c50:	340cdd00 	li	t4,0xdd00
bfc00c54:	3c0d708e 	lui	t5,0x708e
bfc00c58:	35add54a 	ori	t5,t5,0xd54a
bfc00c5c:	3c010001 	lui	at,0x1
bfc00c60:	00280821 	addu	at,at,t0
bfc00c64:	ac2ddd00 	sw	t5,-8960(at)
bfc00c68:	3c010001 	lui	at,0x1
bfc00c6c:	00280821 	addu	at,at,t0
bfc00c70:	a029dd02 	sb	t1,-8958(at)
bfc00c74:	3c100001 	lui	s0,0x1
bfc00c78:	02088021 	addu	s0,s0,t0
bfc00c7c:	8e10dd00 	lw	s0,-8960(s0)
bfc00c80:	3c1270dc 	lui	s2,0x70dc
bfc00c84:	3652d54a 	ori	s2,s2,0xd54a
bfc00c88:	16120621 	bne	s0,s2,bfc02510 <inst_error>
bfc00c8c:	00000000 	nop
bfc00c90:	3c09013c 	lui	t1,0x13c
bfc00c94:	352984aa 	ori	t1,t1,0x84aa
bfc00c98:	3c088011 	lui	t0,0x8011
bfc00c9c:	240a2254 	li	t2,8788
bfc00ca0:	240c2254 	li	t4,8788
bfc00ca4:	3c0d1c89 	lui	t5,0x1c89
bfc00ca8:	35ade8a0 	ori	t5,t5,0xe8a0
bfc00cac:	ad0d2254 	sw	t5,8788(t0)
bfc00cb0:	a1092254 	sb	t1,8788(t0)
bfc00cb4:	8d102254 	lw	s0,8788(t0)
bfc00cb8:	3c121c89 	lui	s2,0x1c89
bfc00cbc:	3652e8aa 	ori	s2,s2,0xe8aa
bfc00cc0:	16120613 	bne	s0,s2,bfc02510 <inst_error>
bfc00cc4:	00000000 	nop
bfc00cc8:	3c098465 	lui	t1,0x8465
bfc00ccc:	35298f03 	ori	t1,t1,0x8f03
bfc00cd0:	3c088011 	lui	t0,0x8011
bfc00cd4:	340af400 	li	t2,0xf400
bfc00cd8:	340cf400 	li	t4,0xf400
bfc00cdc:	3c0d8487 	lui	t5,0x8487
bfc00ce0:	35adc1cc 	ori	t5,t5,0xc1cc
bfc00ce4:	3c010001 	lui	at,0x1
bfc00ce8:	00280821 	addu	at,at,t0
bfc00cec:	ac2df400 	sw	t5,-3072(at)
bfc00cf0:	3c010001 	lui	at,0x1
bfc00cf4:	00280821 	addu	at,at,t0
bfc00cf8:	a029f400 	sb	t1,-3072(at)
bfc00cfc:	3c100001 	lui	s0,0x1
bfc00d00:	02088021 	addu	s0,s0,t0
bfc00d04:	8e10f400 	lw	s0,-3072(s0)
bfc00d08:	3c128487 	lui	s2,0x8487
bfc00d0c:	3652c103 	ori	s2,s2,0xc103
bfc00d10:	161205ff 	bne	s0,s2,bfc02510 <inst_error>
bfc00d14:	00000000 	nop
bfc00d18:	3c0917b4 	lui	t1,0x17b4
bfc00d1c:	3529277c 	ori	t1,t1,0x277c
bfc00d20:	3c088011 	lui	t0,0x8011
bfc00d24:	340a80c8 	li	t2,0x80c8
bfc00d28:	340c80c8 	li	t4,0x80c8
bfc00d2c:	3c0d360b 	lui	t5,0x360b
bfc00d30:	35ad6978 	ori	t5,t5,0x6978
bfc00d34:	3c010001 	lui	at,0x1
bfc00d38:	00280821 	addu	at,at,t0
bfc00d3c:	ac2d80c8 	sw	t5,-32568(at)
bfc00d40:	3c010001 	lui	at,0x1
bfc00d44:	00280821 	addu	at,at,t0
bfc00d48:	a02980c8 	sb	t1,-32568(at)
bfc00d4c:	3c100001 	lui	s0,0x1
bfc00d50:	02088021 	addu	s0,s0,t0
bfc00d54:	8e1080c8 	lw	s0,-32568(s0)
bfc00d58:	3c12360b 	lui	s2,0x360b
bfc00d5c:	3652697c 	ori	s2,s2,0x697c
bfc00d60:	161205eb 	bne	s0,s2,bfc02510 <inst_error>
bfc00d64:	00000000 	nop
bfc00d68:	3c09393d 	lui	t1,0x393d
bfc00d6c:	35297940 	ori	t1,t1,0x7940
bfc00d70:	3c088011 	lui	t0,0x8011
bfc00d74:	340afd80 	li	t2,0xfd80
bfc00d78:	340cfd80 	li	t4,0xfd80
bfc00d7c:	3c0df3fe 	lui	t5,0xf3fe
bfc00d80:	35adf36b 	ori	t5,t5,0xf36b
bfc00d84:	3c010001 	lui	at,0x1
bfc00d88:	00280821 	addu	at,at,t0
bfc00d8c:	ac2dfd80 	sw	t5,-640(at)
bfc00d90:	3c010001 	lui	at,0x1
bfc00d94:	00280821 	addu	at,at,t0
bfc00d98:	a029fd80 	sb	t1,-640(at)
bfc00d9c:	3c100001 	lui	s0,0x1
bfc00da0:	02088021 	addu	s0,s0,t0
bfc00da4:	8e10fd80 	lw	s0,-640(s0)
bfc00da8:	3c12f3fe 	lui	s2,0xf3fe
bfc00dac:	3652f340 	ori	s2,s2,0xf340
bfc00db0:	161205d7 	bne	s0,s2,bfc02510 <inst_error>
bfc00db4:	00000000 	nop
bfc00db8:	3c09835b 	lui	t1,0x835b
bfc00dbc:	3529bf00 	ori	t1,t1,0xbf00
bfc00dc0:	3c088011 	lui	t0,0x8011
bfc00dc4:	240a6de0 	li	t2,28128
bfc00dc8:	240c6de0 	li	t4,28128
bfc00dcc:	3c0dd0e5 	lui	t5,0xd0e5
bfc00dd0:	35adeb0e 	ori	t5,t5,0xeb0e
bfc00dd4:	ad0d6de0 	sw	t5,28128(t0)
bfc00dd8:	a1096de0 	sb	t1,28128(t0)
bfc00ddc:	8d106de0 	lw	s0,28128(t0)
bfc00de0:	3c12d0e5 	lui	s2,0xd0e5
bfc00de4:	3652eb00 	ori	s2,s2,0xeb00
bfc00de8:	161205c9 	bne	s0,s2,bfc02510 <inst_error>
bfc00dec:	00000000 	nop
bfc00df0:	3c0919ea 	lui	t1,0x19ea
bfc00df4:	35296d90 	ori	t1,t1,0x6d90
bfc00df8:	3c088011 	lui	t0,0x8011
bfc00dfc:	340af7ab 	li	t2,0xf7ab
bfc00e00:	340cf7a8 	li	t4,0xf7a8
bfc00e04:	3c0d03aa 	lui	t5,0x3aa
bfc00e08:	35ade560 	ori	t5,t5,0xe560
bfc00e0c:	3c010001 	lui	at,0x1
bfc00e10:	00280821 	addu	at,at,t0
bfc00e14:	ac2df7a8 	sw	t5,-2136(at)
bfc00e18:	3c010001 	lui	at,0x1
bfc00e1c:	00280821 	addu	at,at,t0
bfc00e20:	a029f7ab 	sb	t1,-2133(at)
bfc00e24:	3c100001 	lui	s0,0x1
bfc00e28:	02088021 	addu	s0,s0,t0
bfc00e2c:	8e10f7a8 	lw	s0,-2136(s0)
bfc00e30:	3c1290aa 	lui	s2,0x90aa
bfc00e34:	3652e560 	ori	s2,s2,0xe560
bfc00e38:	161205b5 	bne	s0,s2,bfc02510 <inst_error>
bfc00e3c:	00000000 	nop
bfc00e40:	3c092a0a 	lui	t1,0x2a0a
bfc00e44:	3529711c 	ori	t1,t1,0x711c
bfc00e48:	3c088011 	lui	t0,0x8011
bfc00e4c:	240a3a40 	li	t2,14912
bfc00e50:	240c3a40 	li	t4,14912
bfc00e54:	3c0d4983 	lui	t5,0x4983
bfc00e58:	35ad7840 	ori	t5,t5,0x7840
bfc00e5c:	ad0d3a40 	sw	t5,14912(t0)
bfc00e60:	a1093a40 	sb	t1,14912(t0)
bfc00e64:	8d103a40 	lw	s0,14912(t0)
bfc00e68:	3c124983 	lui	s2,0x4983
bfc00e6c:	3652781c 	ori	s2,s2,0x781c
bfc00e70:	161205a7 	bne	s0,s2,bfc02510 <inst_error>
bfc00e74:	00000000 	nop
bfc00e78:	3c096e98 	lui	t1,0x6e98
bfc00e7c:	3529ee40 	ori	t1,t1,0xee40
bfc00e80:	3c088011 	lui	t0,0x8011
bfc00e84:	240a296a 	li	t2,10602
bfc00e88:	240c2968 	li	t4,10600
bfc00e8c:	3c0d8508 	lui	t5,0x8508
bfc00e90:	35ad13af 	ori	t5,t5,0x13af
bfc00e94:	ad0d2968 	sw	t5,10600(t0)
bfc00e98:	a109296a 	sb	t1,10602(t0)
bfc00e9c:	8d102968 	lw	s0,10600(t0)
bfc00ea0:	3c128540 	lui	s2,0x8540
bfc00ea4:	365213af 	ori	s2,s2,0x13af
bfc00ea8:	16120599 	bne	s0,s2,bfc02510 <inst_error>
bfc00eac:	00000000 	nop
bfc00eb0:	3c09490a 	lui	t1,0x490a
bfc00eb4:	35290f90 	ori	t1,t1,0xf90
bfc00eb8:	3c088011 	lui	t0,0x8011
bfc00ebc:	240a15a7 	li	t2,5543
bfc00ec0:	240c15a4 	li	t4,5540
bfc00ec4:	3c0d8b01 	lui	t5,0x8b01
bfc00ec8:	35adf0c8 	ori	t5,t5,0xf0c8
bfc00ecc:	ad0d15a4 	sw	t5,5540(t0)
bfc00ed0:	a10915a7 	sb	t1,5543(t0)
bfc00ed4:	8d1015a4 	lw	s0,5540(t0)
bfc00ed8:	3c129001 	lui	s2,0x9001
bfc00edc:	3652f0c8 	ori	s2,s2,0xf0c8
bfc00ee0:	1612058b 	bne	s0,s2,bfc02510 <inst_error>
bfc00ee4:	00000000 	nop
bfc00ee8:	3c092012 	lui	t1,0x2012
bfc00eec:	35299920 	ori	t1,t1,0x9920
bfc00ef0:	3c088011 	lui	t0,0x8011
bfc00ef4:	240a730c 	li	t2,29452
bfc00ef8:	240c730c 	li	t4,29452
bfc00efc:	3c0d553f 	lui	t5,0x553f
bfc00f00:	35ad5c64 	ori	t5,t5,0x5c64
bfc00f04:	ad0d730c 	sw	t5,29452(t0)
bfc00f08:	a109730c 	sb	t1,29452(t0)
bfc00f0c:	8d10730c 	lw	s0,29452(t0)
bfc00f10:	3c12553f 	lui	s2,0x553f
bfc00f14:	36525c20 	ori	s2,s2,0x5c20
bfc00f18:	1612057d 	bne	s0,s2,bfc02510 <inst_error>
bfc00f1c:	00000000 	nop
bfc00f20:	3c099b0a 	lui	t1,0x9b0a
bfc00f24:	35294e5c 	ori	t1,t1,0x4e5c
bfc00f28:	3c088011 	lui	t0,0x8011
bfc00f2c:	240a1b02 	li	t2,6914
bfc00f30:	240c1b00 	li	t4,6912
bfc00f34:	3c0dcf71 	lui	t5,0xcf71
bfc00f38:	35adb130 	ori	t5,t5,0xb130
bfc00f3c:	ad0d1b00 	sw	t5,6912(t0)
bfc00f40:	a1091b02 	sb	t1,6914(t0)
bfc00f44:	8d101b00 	lw	s0,6912(t0)
bfc00f48:	3c12cf5c 	lui	s2,0xcf5c
bfc00f4c:	3652b130 	ori	s2,s2,0xb130
bfc00f50:	1612056f 	bne	s0,s2,bfc02510 <inst_error>
bfc00f54:	00000000 	nop
bfc00f58:	3c09f64d 	lui	t1,0xf64d
bfc00f5c:	3529eefc 	ori	t1,t1,0xeefc
bfc00f60:	3c088011 	lui	t0,0x8011
bfc00f64:	340a9150 	li	t2,0x9150
bfc00f68:	340c9150 	li	t4,0x9150
bfc00f6c:	3c0ddfc9 	lui	t5,0xdfc9
bfc00f70:	35ad8d18 	ori	t5,t5,0x8d18
bfc00f74:	3c010001 	lui	at,0x1
bfc00f78:	00280821 	addu	at,at,t0
bfc00f7c:	ac2d9150 	sw	t5,-28336(at)
bfc00f80:	3c010001 	lui	at,0x1
bfc00f84:	00280821 	addu	at,at,t0
bfc00f88:	a0299150 	sb	t1,-28336(at)
bfc00f8c:	3c100001 	lui	s0,0x1
bfc00f90:	02088021 	addu	s0,s0,t0
bfc00f94:	8e109150 	lw	s0,-28336(s0)
bfc00f98:	3c12dfc9 	lui	s2,0xdfc9
bfc00f9c:	36528dfc 	ori	s2,s2,0x8dfc
bfc00fa0:	1612055b 	bne	s0,s2,bfc02510 <inst_error>
bfc00fa4:	00000000 	nop
bfc00fa8:	3c0953ab 	lui	t1,0x53ab
bfc00fac:	3529798c 	ori	t1,t1,0x798c
bfc00fb0:	3c088011 	lui	t0,0x8011
bfc00fb4:	340abe7a 	li	t2,0xbe7a
bfc00fb8:	340cbe78 	li	t4,0xbe78
bfc00fbc:	3c0d5f92 	lui	t5,0x5f92
bfc00fc0:	35ada4bd 	ori	t5,t5,0xa4bd
bfc00fc4:	3c010001 	lui	at,0x1
bfc00fc8:	00280821 	addu	at,at,t0
bfc00fcc:	ac2dbe78 	sw	t5,-16776(at)
bfc00fd0:	3c010001 	lui	at,0x1
bfc00fd4:	00280821 	addu	at,at,t0
bfc00fd8:	a029be7a 	sb	t1,-16774(at)
bfc00fdc:	3c100001 	lui	s0,0x1
bfc00fe0:	02088021 	addu	s0,s0,t0
bfc00fe4:	8e10be78 	lw	s0,-16776(s0)
bfc00fe8:	3c125f8c 	lui	s2,0x5f8c
bfc00fec:	3652a4bd 	ori	s2,s2,0xa4bd
bfc00ff0:	16120547 	bne	s0,s2,bfc02510 <inst_error>
bfc00ff4:	00000000 	nop
bfc00ff8:	3c09f7b8 	lui	t1,0xf7b8
bfc00ffc:	35296140 	ori	t1,t1,0x6140
bfc01000:	3c088011 	lui	t0,0x8011
bfc01004:	240a1376 	li	t2,4982
bfc01008:	240c1374 	li	t4,4980
bfc0100c:	3c0d8bb6 	lui	t5,0x8bb6
bfc01010:	35ada77b 	ori	t5,t5,0xa77b
bfc01014:	ad0d1374 	sw	t5,4980(t0)
bfc01018:	a1091376 	sb	t1,4982(t0)
bfc0101c:	8d101374 	lw	s0,4980(t0)
bfc01020:	3c128b40 	lui	s2,0x8b40
bfc01024:	3652a77b 	ori	s2,s2,0xa77b
bfc01028:	16120539 	bne	s0,s2,bfc02510 <inst_error>
bfc0102c:	00000000 	nop
bfc01030:	3c09b3ce 	lui	t1,0xb3ce
bfc01034:	35296a64 	ori	t1,t1,0x6a64
bfc01038:	3c088011 	lui	t0,0x8011
bfc0103c:	340a9b60 	li	t2,0x9b60
bfc01040:	340c9b60 	li	t4,0x9b60
bfc01044:	3c0db10c 	lui	t5,0xb10c
bfc01048:	35ad9e34 	ori	t5,t5,0x9e34
bfc0104c:	3c010001 	lui	at,0x1
bfc01050:	00280821 	addu	at,at,t0
bfc01054:	ac2d9b60 	sw	t5,-25760(at)
bfc01058:	3c010001 	lui	at,0x1
bfc0105c:	00280821 	addu	at,at,t0
bfc01060:	a0299b60 	sb	t1,-25760(at)
bfc01064:	3c100001 	lui	s0,0x1
bfc01068:	02088021 	addu	s0,s0,t0
bfc0106c:	8e109b60 	lw	s0,-25760(s0)
bfc01070:	3c12b10c 	lui	s2,0xb10c
bfc01074:	36529e64 	ori	s2,s2,0x9e64
bfc01078:	16120525 	bne	s0,s2,bfc02510 <inst_error>
bfc0107c:	00000000 	nop
bfc01080:	3c09d8f2 	lui	t1,0xd8f2
bfc01084:	3529d0f0 	ori	t1,t1,0xd0f0
bfc01088:	3c088011 	lui	t0,0x8011
bfc0108c:	340ac342 	li	t2,0xc342
bfc01090:	340cc340 	li	t4,0xc340
bfc01094:	3c0d6c79 	lui	t5,0x6c79
bfc01098:	35adddc8 	ori	t5,t5,0xddc8
bfc0109c:	3c010001 	lui	at,0x1
bfc010a0:	00280821 	addu	at,at,t0
bfc010a4:	ac2dc340 	sw	t5,-15552(at)
bfc010a8:	3c010001 	lui	at,0x1
bfc010ac:	00280821 	addu	at,at,t0
bfc010b0:	a029c342 	sb	t1,-15550(at)
bfc010b4:	3c100001 	lui	s0,0x1
bfc010b8:	02088021 	addu	s0,s0,t0
bfc010bc:	8e10c340 	lw	s0,-15552(s0)
bfc010c0:	3c126cf0 	lui	s2,0x6cf0
bfc010c4:	3652ddc8 	ori	s2,s2,0xddc8
bfc010c8:	16120511 	bne	s0,s2,bfc02510 <inst_error>
bfc010cc:	00000000 	nop
bfc010d0:	3c09da5c 	lui	t1,0xda5c
bfc010d4:	35299528 	ori	t1,t1,0x9528
bfc010d8:	3c088011 	lui	t0,0x8011
bfc010dc:	340ad92c 	li	t2,0xd92c
bfc010e0:	340cd92c 	li	t4,0xd92c
bfc010e4:	3c0d9ff6 	lui	t5,0x9ff6
bfc010e8:	35ad2c5a 	ori	t5,t5,0x2c5a
bfc010ec:	3c010001 	lui	at,0x1
bfc010f0:	00280821 	addu	at,at,t0
bfc010f4:	ac2dd92c 	sw	t5,-9940(at)
bfc010f8:	3c010001 	lui	at,0x1
bfc010fc:	00280821 	addu	at,at,t0
bfc01100:	a029d92c 	sb	t1,-9940(at)
bfc01104:	3c100001 	lui	s0,0x1
bfc01108:	02088021 	addu	s0,s0,t0
bfc0110c:	8e10d92c 	lw	s0,-9940(s0)
bfc01110:	3c129ff6 	lui	s2,0x9ff6
bfc01114:	36522c28 	ori	s2,s2,0x2c28
bfc01118:	161204fd 	bne	s0,s2,bfc02510 <inst_error>
bfc0111c:	00000000 	nop
bfc01120:	3c09e20e 	lui	t1,0xe20e
bfc01124:	3529e422 	ori	t1,t1,0xe422
bfc01128:	3c088011 	lui	t0,0x8011
bfc0112c:	240a3f1e 	li	t2,16158
bfc01130:	240c3f1c 	li	t4,16156
bfc01134:	3c0d8d23 	lui	t5,0x8d23
bfc01138:	35adef7b 	ori	t5,t5,0xef7b
bfc0113c:	ad0d3f1c 	sw	t5,16156(t0)
bfc01140:	a1093f1e 	sb	t1,16158(t0)
bfc01144:	8d103f1c 	lw	s0,16156(t0)
bfc01148:	3c128d22 	lui	s2,0x8d22
bfc0114c:	3652ef7b 	ori	s2,s2,0xef7b
bfc01150:	161204ef 	bne	s0,s2,bfc02510 <inst_error>
bfc01154:	00000000 	nop
bfc01158:	3c09ab92 	lui	t1,0xab92
bfc0115c:	35292c0e 	ori	t1,t1,0x2c0e
bfc01160:	3c088011 	lui	t0,0x8011
bfc01164:	240a669f 	li	t2,26271
bfc01168:	240c669c 	li	t4,26268
bfc0116c:	3c0d021a 	lui	t5,0x21a
bfc01170:	35ad8000 	ori	t5,t5,0x8000
bfc01174:	ad0d669c 	sw	t5,26268(t0)
bfc01178:	a109669f 	sb	t1,26271(t0)
bfc0117c:	8d10669c 	lw	s0,26268(t0)
bfc01180:	3c120e1a 	lui	s2,0xe1a
bfc01184:	36528000 	ori	s2,s2,0x8000
bfc01188:	161204e1 	bne	s0,s2,bfc02510 <inst_error>
bfc0118c:	00000000 	nop
bfc01190:	3c09b481 	lui	t1,0xb481
bfc01194:	35290280 	ori	t1,t1,0x280
bfc01198:	3c088011 	lui	t0,0x8011
bfc0119c:	340a94b2 	li	t2,0x94b2
bfc011a0:	340c94b0 	li	t4,0x94b0
bfc011a4:	3c0d2b32 	lui	t5,0x2b32
bfc011a8:	35ad3168 	ori	t5,t5,0x3168
bfc011ac:	3c010001 	lui	at,0x1
bfc011b0:	00280821 	addu	at,at,t0
bfc011b4:	ac2d94b0 	sw	t5,-27472(at)
bfc011b8:	3c010001 	lui	at,0x1
bfc011bc:	00280821 	addu	at,at,t0
bfc011c0:	a02994b2 	sb	t1,-27470(at)
bfc011c4:	3c100001 	lui	s0,0x1
bfc011c8:	02088021 	addu	s0,s0,t0
bfc011cc:	8e1094b0 	lw	s0,-27472(s0)
bfc011d0:	3c122b80 	lui	s2,0x2b80
bfc011d4:	36523168 	ori	s2,s2,0x3168
bfc011d8:	161204cd 	bne	s0,s2,bfc02510 <inst_error>
bfc011dc:	00000000 	nop
bfc011e0:	3c091ab8 	lui	t1,0x1ab8
bfc011e4:	35293286 	ori	t1,t1,0x3286
bfc011e8:	3c088011 	lui	t0,0x8011
bfc011ec:	340a9a0e 	li	t2,0x9a0e
bfc011f0:	340c9a0c 	li	t4,0x9a0c
bfc011f4:	3c0dfa0a 	lui	t5,0xfa0a
bfc011f8:	35ad8cc8 	ori	t5,t5,0x8cc8
bfc011fc:	3c010001 	lui	at,0x1
bfc01200:	00280821 	addu	at,at,t0
bfc01204:	ac2d9a0c 	sw	t5,-26100(at)
bfc01208:	3c010001 	lui	at,0x1
bfc0120c:	00280821 	addu	at,at,t0
bfc01210:	a0299a0e 	sb	t1,-26098(at)
bfc01214:	3c100001 	lui	s0,0x1
bfc01218:	02088021 	addu	s0,s0,t0
bfc0121c:	8e109a0c 	lw	s0,-26100(s0)
bfc01220:	3c12fa86 	lui	s2,0xfa86
bfc01224:	36528cc8 	ori	s2,s2,0x8cc8
bfc01228:	161204b9 	bne	s0,s2,bfc02510 <inst_error>
bfc0122c:	00000000 	nop
bfc01230:	3c095f6c 	lui	t1,0x5f6c
bfc01234:	3529f2b0 	ori	t1,t1,0xf2b0
bfc01238:	3c088011 	lui	t0,0x8011
bfc0123c:	340a8c40 	li	t2,0x8c40
bfc01240:	340c8c40 	li	t4,0x8c40
bfc01244:	3c0dfba3 	lui	t5,0xfba3
bfc01248:	35ad5550 	ori	t5,t5,0x5550
bfc0124c:	3c010001 	lui	at,0x1
bfc01250:	00280821 	addu	at,at,t0
bfc01254:	ac2d8c40 	sw	t5,-29632(at)
bfc01258:	3c010001 	lui	at,0x1
bfc0125c:	00280821 	addu	at,at,t0
bfc01260:	a0298c40 	sb	t1,-29632(at)
bfc01264:	3c100001 	lui	s0,0x1
bfc01268:	02088021 	addu	s0,s0,t0
bfc0126c:	8e108c40 	lw	s0,-29632(s0)
bfc01270:	3c12fba3 	lui	s2,0xfba3
bfc01274:	365255b0 	ori	s2,s2,0x55b0
bfc01278:	161204a5 	bne	s0,s2,bfc02510 <inst_error>
bfc0127c:	00000000 	nop
bfc01280:	3c0920dc 	lui	t1,0x20dc
bfc01284:	3529cff4 	ori	t1,t1,0xcff4
bfc01288:	3c088011 	lui	t0,0x8011
bfc0128c:	340aaae8 	li	t2,0xaae8
bfc01290:	340caae8 	li	t4,0xaae8
bfc01294:	3c0dccdc 	lui	t5,0xccdc
bfc01298:	35ad0930 	ori	t5,t5,0x930
bfc0129c:	3c010001 	lui	at,0x1
bfc012a0:	00280821 	addu	at,at,t0
bfc012a4:	ac2daae8 	sw	t5,-21784(at)
bfc012a8:	3c010001 	lui	at,0x1
bfc012ac:	00280821 	addu	at,at,t0
bfc012b0:	a029aae8 	sb	t1,-21784(at)
bfc012b4:	3c100001 	lui	s0,0x1
bfc012b8:	02088021 	addu	s0,s0,t0
bfc012bc:	8e10aae8 	lw	s0,-21784(s0)
bfc012c0:	3c12ccdc 	lui	s2,0xccdc
bfc012c4:	365209f4 	ori	s2,s2,0x9f4
bfc012c8:	16120491 	bne	s0,s2,bfc02510 <inst_error>
bfc012cc:	00000000 	nop
bfc012d0:	3c0900f8 	lui	t1,0xf8
bfc012d4:	3529ce7a 	ori	t1,t1,0xce7a
bfc012d8:	3c088011 	lui	t0,0x8011
bfc012dc:	240a1e5c 	li	t2,7772
bfc012e0:	240c1e5c 	li	t4,7772
bfc012e4:	3c0d50ef 	lui	t5,0x50ef
bfc012e8:	35ade178 	ori	t5,t5,0xe178
bfc012ec:	ad0d1e5c 	sw	t5,7772(t0)
bfc012f0:	a1091e5c 	sb	t1,7772(t0)
bfc012f4:	8d101e5c 	lw	s0,7772(t0)
bfc012f8:	3c1250ef 	lui	s2,0x50ef
bfc012fc:	3652e17a 	ori	s2,s2,0xe17a
bfc01300:	16120483 	bne	s0,s2,bfc02510 <inst_error>
bfc01304:	00000000 	nop
bfc01308:	3c091e1f 	lui	t1,0x1e1f
bfc0130c:	3529cf80 	ori	t1,t1,0xcf80
bfc01310:	3c088011 	lui	t0,0x8011
bfc01314:	240a5cac 	li	t2,23724
bfc01318:	240c5cac 	li	t4,23724
bfc0131c:	3c0dc894 	lui	t5,0xc894
bfc01320:	35ad6b68 	ori	t5,t5,0x6b68
bfc01324:	ad0d5cac 	sw	t5,23724(t0)
bfc01328:	a1095cac 	sb	t1,23724(t0)
bfc0132c:	8d105cac 	lw	s0,23724(t0)
bfc01330:	3c12c894 	lui	s2,0xc894
bfc01334:	36526b80 	ori	s2,s2,0x6b80
bfc01338:	16120475 	bne	s0,s2,bfc02510 <inst_error>
bfc0133c:	00000000 	nop
bfc01340:	3c096b0a 	lui	t1,0x6b0a
bfc01344:	3529b578 	ori	t1,t1,0xb578
bfc01348:	3c088011 	lui	t0,0x8011
bfc0134c:	240a5c18 	li	t2,23576
bfc01350:	240c5c18 	li	t4,23576
bfc01354:	3c0d9e0e 	lui	t5,0x9e0e
bfc01358:	35adfce6 	ori	t5,t5,0xfce6
bfc0135c:	ad0d5c18 	sw	t5,23576(t0)
bfc01360:	a1095c18 	sb	t1,23576(t0)
bfc01364:	8d105c18 	lw	s0,23576(t0)
bfc01368:	3c129e0e 	lui	s2,0x9e0e
bfc0136c:	3652fc78 	ori	s2,s2,0xfc78
bfc01370:	16120467 	bne	s0,s2,bfc02510 <inst_error>
bfc01374:	00000000 	nop
bfc01378:	3c094395 	lui	t1,0x4395
bfc0137c:	35295964 	ori	t1,t1,0x5964
bfc01380:	3c088011 	lui	t0,0x8011
bfc01384:	340ae5d2 	li	t2,0xe5d2
bfc01388:	340ce5d0 	li	t4,0xe5d0
bfc0138c:	3c0d55b3 	lui	t5,0x55b3
bfc01390:	35ad2c78 	ori	t5,t5,0x2c78
bfc01394:	3c010001 	lui	at,0x1
bfc01398:	00280821 	addu	at,at,t0
bfc0139c:	ac2de5d0 	sw	t5,-6704(at)
bfc013a0:	3c010001 	lui	at,0x1
bfc013a4:	00280821 	addu	at,at,t0
bfc013a8:	a029e5d2 	sb	t1,-6702(at)
bfc013ac:	3c100001 	lui	s0,0x1
bfc013b0:	02088021 	addu	s0,s0,t0
bfc013b4:	8e10e5d0 	lw	s0,-6704(s0)
bfc013b8:	3c125564 	lui	s2,0x5564
bfc013bc:	36522c78 	ori	s2,s2,0x2c78
bfc013c0:	16120453 	bne	s0,s2,bfc02510 <inst_error>
bfc013c4:	00000000 	nop
bfc013c8:	3c09385c 	lui	t1,0x385c
bfc013cc:	35290602 	ori	t1,t1,0x602
bfc013d0:	3c088011 	lui	t0,0x8011
bfc013d4:	340aa2e6 	li	t2,0xa2e6
bfc013d8:	340ca2e4 	li	t4,0xa2e4
bfc013dc:	3c0df2e0 	lui	t5,0xf2e0
bfc013e0:	35ad2444 	ori	t5,t5,0x2444
bfc013e4:	3c010001 	lui	at,0x1
bfc013e8:	00280821 	addu	at,at,t0
bfc013ec:	ac2da2e4 	sw	t5,-23836(at)
bfc013f0:	3c010001 	lui	at,0x1
bfc013f4:	00280821 	addu	at,at,t0
bfc013f8:	a029a2e6 	sb	t1,-23834(at)
bfc013fc:	3c100001 	lui	s0,0x1
bfc01400:	02088021 	addu	s0,s0,t0
bfc01404:	8e10a2e4 	lw	s0,-23836(s0)
bfc01408:	3c12f202 	lui	s2,0xf202
bfc0140c:	36522444 	ori	s2,s2,0x2444
bfc01410:	1612043f 	bne	s0,s2,bfc02510 <inst_error>
bfc01414:	00000000 	nop
bfc01418:	3c09befc 	lui	t1,0xbefc
bfc0141c:	35299708 	ori	t1,t1,0x9708
bfc01420:	3c088011 	lui	t0,0x8011
bfc01424:	240a1476 	li	t2,5238
bfc01428:	240c1474 	li	t4,5236
bfc0142c:	3c0da34c 	lui	t5,0xa34c
bfc01430:	35adf9ae 	ori	t5,t5,0xf9ae
bfc01434:	ad0d1474 	sw	t5,5236(t0)
bfc01438:	a1091476 	sb	t1,5238(t0)
bfc0143c:	8d101474 	lw	s0,5236(t0)
bfc01440:	3c12a308 	lui	s2,0xa308
bfc01444:	3652f9ae 	ori	s2,s2,0xf9ae
bfc01448:	16120431 	bne	s0,s2,bfc02510 <inst_error>
bfc0144c:	00000000 	nop
bfc01450:	3c097313 	lui	t1,0x7313
bfc01454:	3529e200 	ori	t1,t1,0xe200
bfc01458:	3c088011 	lui	t0,0x8011
bfc0145c:	340a9b0c 	li	t2,0x9b0c
bfc01460:	340c9b0c 	li	t4,0x9b0c
bfc01464:	3c0ddea4 	lui	t5,0xdea4
bfc01468:	35adfad0 	ori	t5,t5,0xfad0
bfc0146c:	3c010001 	lui	at,0x1
bfc01470:	00280821 	addu	at,at,t0
bfc01474:	ac2d9b0c 	sw	t5,-25844(at)
bfc01478:	3c010001 	lui	at,0x1
bfc0147c:	00280821 	addu	at,at,t0
bfc01480:	a0299b0c 	sb	t1,-25844(at)
bfc01484:	3c100001 	lui	s0,0x1
bfc01488:	02088021 	addu	s0,s0,t0
bfc0148c:	8e109b0c 	lw	s0,-25844(s0)
bfc01490:	3c12dea4 	lui	s2,0xdea4
bfc01494:	3652fa00 	ori	s2,s2,0xfa00
bfc01498:	1612041d 	bne	s0,s2,bfc02510 <inst_error>
bfc0149c:	00000000 	nop
bfc014a0:	3c099a6d 	lui	t1,0x9a6d
bfc014a4:	3529a064 	ori	t1,t1,0xa064
bfc014a8:	3c088011 	lui	t0,0x8011
bfc014ac:	340a8a00 	li	t2,0x8a00
bfc014b0:	340c8a00 	li	t4,0x8a00
bfc014b4:	3c0dbcdf 	lui	t5,0xbcdf
bfc014b8:	35ad3620 	ori	t5,t5,0x3620
bfc014bc:	3c010001 	lui	at,0x1
bfc014c0:	00280821 	addu	at,at,t0
bfc014c4:	ac2d8a00 	sw	t5,-30208(at)
bfc014c8:	3c010001 	lui	at,0x1
bfc014cc:	00280821 	addu	at,at,t0
bfc014d0:	a0298a00 	sb	t1,-30208(at)
bfc014d4:	3c100001 	lui	s0,0x1
bfc014d8:	02088021 	addu	s0,s0,t0
bfc014dc:	8e108a00 	lw	s0,-30208(s0)
bfc014e0:	3c12bcdf 	lui	s2,0xbcdf
bfc014e4:	36523664 	ori	s2,s2,0x3664
bfc014e8:	16120409 	bne	s0,s2,bfc02510 <inst_error>
bfc014ec:	00000000 	nop
bfc014f0:	3c0980f6 	lui	t1,0x80f6
bfc014f4:	3529ff70 	ori	t1,t1,0xff70
bfc014f8:	3c088011 	lui	t0,0x8011
bfc014fc:	240a6410 	li	t2,25616
bfc01500:	240c6410 	li	t4,25616
bfc01504:	3c0da3ed 	lui	t5,0xa3ed
bfc01508:	35ada870 	ori	t5,t5,0xa870
bfc0150c:	ad0d6410 	sw	t5,25616(t0)
bfc01510:	a1096410 	sb	t1,25616(t0)
bfc01514:	8d106410 	lw	s0,25616(t0)
bfc01518:	3c12a3ed 	lui	s2,0xa3ed
bfc0151c:	3652a870 	ori	s2,s2,0xa870
bfc01520:	161203fb 	bne	s0,s2,bfc02510 <inst_error>
bfc01524:	00000000 	nop
bfc01528:	3c09b41c 	lui	t1,0xb41c
bfc0152c:	35297810 	ori	t1,t1,0x7810
bfc01530:	3c088011 	lui	t0,0x8011
bfc01534:	340ace98 	li	t2,0xce98
bfc01538:	340cce98 	li	t4,0xce98
bfc0153c:	3c0d2779 	lui	t5,0x2779
bfc01540:	35add654 	ori	t5,t5,0xd654
bfc01544:	3c010001 	lui	at,0x1
bfc01548:	00280821 	addu	at,at,t0
bfc0154c:	ac2dce98 	sw	t5,-12648(at)
bfc01550:	3c010001 	lui	at,0x1
bfc01554:	00280821 	addu	at,at,t0
bfc01558:	a029ce98 	sb	t1,-12648(at)
bfc0155c:	3c100001 	lui	s0,0x1
bfc01560:	02088021 	addu	s0,s0,t0
bfc01564:	8e10ce98 	lw	s0,-12648(s0)
bfc01568:	3c122779 	lui	s2,0x2779
bfc0156c:	3652d610 	ori	s2,s2,0xd610
bfc01570:	161203e7 	bne	s0,s2,bfc02510 <inst_error>
bfc01574:	00000000 	nop
bfc01578:	3c09c22d 	lui	t1,0xc22d
bfc0157c:	35298e54 	ori	t1,t1,0x8e54
bfc01580:	3c088011 	lui	t0,0x8011
bfc01584:	240a4789 	li	t2,18313
bfc01588:	240c4788 	li	t4,18312
bfc0158c:	3c0dde63 	lui	t5,0xde63
bfc01590:	35adec11 	ori	t5,t5,0xec11
bfc01594:	ad0d4788 	sw	t5,18312(t0)
bfc01598:	a1094789 	sb	t1,18313(t0)
bfc0159c:	8d104788 	lw	s0,18312(t0)
bfc015a0:	3c12de63 	lui	s2,0xde63
bfc015a4:	36525411 	ori	s2,s2,0x5411
bfc015a8:	161203d9 	bne	s0,s2,bfc02510 <inst_error>
bfc015ac:	00000000 	nop
bfc015b0:	3c0912d8 	lui	t1,0x12d8
bfc015b4:	3529a1d8 	ori	t1,t1,0xa1d8
bfc015b8:	3c088011 	lui	t0,0x8011
bfc015bc:	240a5376 	li	t2,21366
bfc015c0:	240c5374 	li	t4,21364
bfc015c4:	3c0d98bf 	lui	t5,0x98bf
bfc015c8:	35adc55c 	ori	t5,t5,0xc55c
bfc015cc:	ad0d5374 	sw	t5,21364(t0)
bfc015d0:	a1095376 	sb	t1,21366(t0)
bfc015d4:	8d105374 	lw	s0,21364(t0)
bfc015d8:	3c1298d8 	lui	s2,0x98d8
bfc015dc:	3652c55c 	ori	s2,s2,0xc55c
bfc015e0:	161203cb 	bne	s0,s2,bfc02510 <inst_error>
bfc015e4:	00000000 	nop
bfc015e8:	3c0930a7 	lui	t1,0x30a7
bfc015ec:	3529f300 	ori	t1,t1,0xf300
bfc015f0:	3c088011 	lui	t0,0x8011
bfc015f4:	240a1e7c 	li	t2,7804
bfc015f8:	240c1e7c 	li	t4,7804
bfc015fc:	3c0d95b2 	lui	t5,0x95b2
bfc01600:	35adb736 	ori	t5,t5,0xb736
bfc01604:	ad0d1e7c 	sw	t5,7804(t0)
bfc01608:	a1091e7c 	sb	t1,7804(t0)
bfc0160c:	8d101e7c 	lw	s0,7804(t0)
bfc01610:	3c1295b2 	lui	s2,0x95b2
bfc01614:	3652b700 	ori	s2,s2,0xb700
bfc01618:	161203bd 	bne	s0,s2,bfc02510 <inst_error>
bfc0161c:	00000000 	nop
bfc01620:	3c09a0b5 	lui	t1,0xa0b5
bfc01624:	35293160 	ori	t1,t1,0x3160
bfc01628:	3c088011 	lui	t0,0x8011
bfc0162c:	240a3a87 	li	t2,14983
bfc01630:	240c3a84 	li	t4,14980
bfc01634:	3c0d408e 	lui	t5,0x408e
bfc01638:	35ad7440 	ori	t5,t5,0x7440
bfc0163c:	ad0d3a84 	sw	t5,14980(t0)
bfc01640:	a1093a87 	sb	t1,14983(t0)
bfc01644:	8d103a84 	lw	s0,14980(t0)
bfc01648:	3c12608e 	lui	s2,0x608e
bfc0164c:	36527440 	ori	s2,s2,0x7440
bfc01650:	161203af 	bne	s0,s2,bfc02510 <inst_error>
bfc01654:	00000000 	nop
bfc01658:	3c09077d 	lui	t1,0x77d
bfc0165c:	35296f24 	ori	t1,t1,0x6f24
bfc01660:	3c088011 	lui	t0,0x8011
bfc01664:	340afccc 	li	t2,0xfccc
bfc01668:	340cfccc 	li	t4,0xfccc
bfc0166c:	3c0d2d9b 	lui	t5,0x2d9b
bfc01670:	35ad8c36 	ori	t5,t5,0x8c36
bfc01674:	3c010001 	lui	at,0x1
bfc01678:	00280821 	addu	at,at,t0
bfc0167c:	ac2dfccc 	sw	t5,-820(at)
bfc01680:	3c010001 	lui	at,0x1
bfc01684:	00280821 	addu	at,at,t0
bfc01688:	a029fccc 	sb	t1,-820(at)
bfc0168c:	3c100001 	lui	s0,0x1
bfc01690:	02088021 	addu	s0,s0,t0
bfc01694:	8e10fccc 	lw	s0,-820(s0)
bfc01698:	3c122d9b 	lui	s2,0x2d9b
bfc0169c:	36528c24 	ori	s2,s2,0x8c24
bfc016a0:	1612039b 	bne	s0,s2,bfc02510 <inst_error>
bfc016a4:	00000000 	nop
bfc016a8:	3c098026 	lui	t1,0x8026
bfc016ac:	35294e9e 	ori	t1,t1,0x4e9e
bfc016b0:	3c088011 	lui	t0,0x8011
bfc016b4:	340ae9cf 	li	t2,0xe9cf
bfc016b8:	340ce9cc 	li	t4,0xe9cc
bfc016bc:	3c0dc31b 	lui	t5,0xc31b
bfc016c0:	35adc4fa 	ori	t5,t5,0xc4fa
bfc016c4:	3c010001 	lui	at,0x1
bfc016c8:	00280821 	addu	at,at,t0
bfc016cc:	ac2de9cc 	sw	t5,-5684(at)
bfc016d0:	3c010001 	lui	at,0x1
bfc016d4:	00280821 	addu	at,at,t0
bfc016d8:	a029e9cf 	sb	t1,-5681(at)
bfc016dc:	3c100001 	lui	s0,0x1
bfc016e0:	02088021 	addu	s0,s0,t0
bfc016e4:	8e10e9cc 	lw	s0,-5684(s0)
bfc016e8:	3c129e1b 	lui	s2,0x9e1b
bfc016ec:	3652c4fa 	ori	s2,s2,0xc4fa
bfc016f0:	16120387 	bne	s0,s2,bfc02510 <inst_error>
bfc016f4:	00000000 	nop
bfc016f8:	3c09f394 	lui	t1,0xf394
bfc016fc:	35290600 	ori	t1,t1,0x600
bfc01700:	3c088011 	lui	t0,0x8011
bfc01704:	340ab6be 	li	t2,0xb6be
bfc01708:	340cb6bc 	li	t4,0xb6bc
bfc0170c:	3c0d0ae2 	lui	t5,0xae2
bfc01710:	35adb41c 	ori	t5,t5,0xb41c
bfc01714:	3c010001 	lui	at,0x1
bfc01718:	00280821 	addu	at,at,t0
bfc0171c:	ac2db6bc 	sw	t5,-18756(at)
bfc01720:	3c010001 	lui	at,0x1
bfc01724:	00280821 	addu	at,at,t0
bfc01728:	a029b6be 	sb	t1,-18754(at)
bfc0172c:	3c100001 	lui	s0,0x1
bfc01730:	02088021 	addu	s0,s0,t0
bfc01734:	8e10b6bc 	lw	s0,-18756(s0)
bfc01738:	3c120a00 	lui	s2,0xa00
bfc0173c:	3652b41c 	ori	s2,s2,0xb41c
bfc01740:	16120373 	bne	s0,s2,bfc02510 <inst_error>
bfc01744:	00000000 	nop
bfc01748:	3c09f54f 	lui	t1,0xf54f
bfc0174c:	35296e10 	ori	t1,t1,0x6e10
bfc01750:	3c088011 	lui	t0,0x8011
bfc01754:	240a33e6 	li	t2,13286
bfc01758:	240c33e4 	li	t4,13284
bfc0175c:	3c0dd672 	lui	t5,0xd672
bfc01760:	35ad125e 	ori	t5,t5,0x125e
bfc01764:	ad0d33e4 	sw	t5,13284(t0)
bfc01768:	a10933e6 	sb	t1,13286(t0)
bfc0176c:	8d1033e4 	lw	s0,13284(t0)
bfc01770:	3c12d610 	lui	s2,0xd610
bfc01774:	3652125e 	ori	s2,s2,0x125e
bfc01778:	16120365 	bne	s0,s2,bfc02510 <inst_error>
bfc0177c:	00000000 	nop
bfc01780:	3c09b0be 	lui	t1,0xb0be
bfc01784:	35294800 	ori	t1,t1,0x4800
bfc01788:	3c088011 	lui	t0,0x8011
bfc0178c:	340afc06 	li	t2,0xfc06
bfc01790:	340cfc04 	li	t4,0xfc04
bfc01794:	3c0d16df 	lui	t5,0x16df
bfc01798:	35ad9976 	ori	t5,t5,0x9976
bfc0179c:	3c010001 	lui	at,0x1
bfc017a0:	00280821 	addu	at,at,t0
bfc017a4:	ac2dfc04 	sw	t5,-1020(at)
bfc017a8:	3c010001 	lui	at,0x1
bfc017ac:	00280821 	addu	at,at,t0
bfc017b0:	a029fc06 	sb	t1,-1018(at)
bfc017b4:	3c100001 	lui	s0,0x1
bfc017b8:	02088021 	addu	s0,s0,t0
bfc017bc:	8e10fc04 	lw	s0,-1020(s0)
bfc017c0:	3c121600 	lui	s2,0x1600
bfc017c4:	36529976 	ori	s2,s2,0x9976
bfc017c8:	16120351 	bne	s0,s2,bfc02510 <inst_error>
bfc017cc:	00000000 	nop
bfc017d0:	3c097964 	lui	t1,0x7964
bfc017d4:	35295dd6 	ori	t1,t1,0x5dd6
bfc017d8:	3c088011 	lui	t0,0x8011
bfc017dc:	340ab998 	li	t2,0xb998
bfc017e0:	340cb998 	li	t4,0xb998
bfc017e4:	3c0d9d36 	lui	t5,0x9d36
bfc017e8:	35ad01ce 	ori	t5,t5,0x1ce
bfc017ec:	3c010001 	lui	at,0x1
bfc017f0:	00280821 	addu	at,at,t0
bfc017f4:	ac2db998 	sw	t5,-18024(at)
bfc017f8:	3c010001 	lui	at,0x1
bfc017fc:	00280821 	addu	at,at,t0
bfc01800:	a029b998 	sb	t1,-18024(at)
bfc01804:	3c100001 	lui	s0,0x1
bfc01808:	02088021 	addu	s0,s0,t0
bfc0180c:	8e10b998 	lw	s0,-18024(s0)
bfc01810:	3c129d36 	lui	s2,0x9d36
bfc01814:	365201d6 	ori	s2,s2,0x1d6
bfc01818:	1612033d 	bne	s0,s2,bfc02510 <inst_error>
bfc0181c:	00000000 	nop
bfc01820:	3c092de5 	lui	t1,0x2de5
bfc01824:	3529ab28 	ori	t1,t1,0xab28
bfc01828:	3c088011 	lui	t0,0x8011
bfc0182c:	240a15f4 	li	t2,5620
bfc01830:	240c15f4 	li	t4,5620
bfc01834:	3c0df085 	lui	t5,0xf085
bfc01838:	35ad81f4 	ori	t5,t5,0x81f4
bfc0183c:	ad0d15f4 	sw	t5,5620(t0)
bfc01840:	a10915f4 	sb	t1,5620(t0)
bfc01844:	8d1015f4 	lw	s0,5620(t0)
bfc01848:	3c12f085 	lui	s2,0xf085
bfc0184c:	36528128 	ori	s2,s2,0x8128
bfc01850:	1612032f 	bne	s0,s2,bfc02510 <inst_error>
bfc01854:	00000000 	nop
bfc01858:	3c090bbc 	lui	t1,0xbbc
bfc0185c:	3529d41c 	ori	t1,t1,0xd41c
bfc01860:	3c088011 	lui	t0,0x8011
bfc01864:	240a7eae 	li	t2,32430
bfc01868:	240c7eac 	li	t4,32428
bfc0186c:	3c0d52c8 	lui	t5,0x52c8
bfc01870:	35ad82b0 	ori	t5,t5,0x82b0
bfc01874:	ad0d7eac 	sw	t5,32428(t0)
bfc01878:	a1097eae 	sb	t1,32430(t0)
bfc0187c:	8d107eac 	lw	s0,32428(t0)
bfc01880:	3c12521c 	lui	s2,0x521c
bfc01884:	365282b0 	ori	s2,s2,0x82b0
bfc01888:	16120321 	bne	s0,s2,bfc02510 <inst_error>
bfc0188c:	00000000 	nop
bfc01890:	3c09b008 	lui	t1,0xb008
bfc01894:	3529d7c8 	ori	t1,t1,0xd7c8
bfc01898:	3c088011 	lui	t0,0x8011
bfc0189c:	340ac514 	li	t2,0xc514
bfc018a0:	340cc514 	li	t4,0xc514
bfc018a4:	3c0d1817 	lui	t5,0x1817
bfc018a8:	35ad8fb0 	ori	t5,t5,0x8fb0
bfc018ac:	3c010001 	lui	at,0x1
bfc018b0:	00280821 	addu	at,at,t0
bfc018b4:	ac2dc514 	sw	t5,-15084(at)
bfc018b8:	3c010001 	lui	at,0x1
bfc018bc:	00280821 	addu	at,at,t0
bfc018c0:	a029c514 	sb	t1,-15084(at)
bfc018c4:	3c100001 	lui	s0,0x1
bfc018c8:	02088021 	addu	s0,s0,t0
bfc018cc:	8e10c514 	lw	s0,-15084(s0)
bfc018d0:	3c121817 	lui	s2,0x1817
bfc018d4:	36528fc8 	ori	s2,s2,0x8fc8
bfc018d8:	1612030d 	bne	s0,s2,bfc02510 <inst_error>
bfc018dc:	00000000 	nop
bfc018e0:	3c0944c6 	lui	t1,0x44c6
bfc018e4:	35290618 	ori	t1,t1,0x618
bfc018e8:	3c088011 	lui	t0,0x8011
bfc018ec:	340aae68 	li	t2,0xae68
bfc018f0:	340cae68 	li	t4,0xae68
bfc018f4:	3c0dc195 	lui	t5,0xc195
bfc018f8:	35ad8740 	ori	t5,t5,0x8740
bfc018fc:	3c010001 	lui	at,0x1
bfc01900:	00280821 	addu	at,at,t0
bfc01904:	ac2dae68 	sw	t5,-20888(at)
bfc01908:	3c010001 	lui	at,0x1
bfc0190c:	00280821 	addu	at,at,t0
bfc01910:	a029ae68 	sb	t1,-20888(at)
bfc01914:	3c100001 	lui	s0,0x1
bfc01918:	02088021 	addu	s0,s0,t0
bfc0191c:	8e10ae68 	lw	s0,-20888(s0)
bfc01920:	3c12c195 	lui	s2,0xc195
bfc01924:	36528718 	ori	s2,s2,0x8718
bfc01928:	161202f9 	bne	s0,s2,bfc02510 <inst_error>
bfc0192c:	00000000 	nop
bfc01930:	3c0953cc 	lui	t1,0x53cc
bfc01934:	3529f0e9 	ori	t1,t1,0xf0e9
bfc01938:	3c088011 	lui	t0,0x8011
bfc0193c:	340ae150 	li	t2,0xe150
bfc01940:	340ce150 	li	t4,0xe150
bfc01944:	3c0d9ca3 	lui	t5,0x9ca3
bfc01948:	35ade13c 	ori	t5,t5,0xe13c
bfc0194c:	3c010001 	lui	at,0x1
bfc01950:	00280821 	addu	at,at,t0
bfc01954:	ac2de150 	sw	t5,-7856(at)
bfc01958:	3c010001 	lui	at,0x1
bfc0195c:	00280821 	addu	at,at,t0
bfc01960:	a029e150 	sb	t1,-7856(at)
bfc01964:	3c100001 	lui	s0,0x1
bfc01968:	02088021 	addu	s0,s0,t0
bfc0196c:	8e10e150 	lw	s0,-7856(s0)
bfc01970:	3c129ca3 	lui	s2,0x9ca3
bfc01974:	3652e1e9 	ori	s2,s2,0xe1e9
bfc01978:	161202e5 	bne	s0,s2,bfc02510 <inst_error>
bfc0197c:	00000000 	nop
bfc01980:	3c09e204 	lui	t1,0xe204
bfc01984:	3529a4bd 	ori	t1,t1,0xa4bd
bfc01988:	3c088011 	lui	t0,0x8011
bfc0198c:	240a5e50 	li	t2,24144
bfc01990:	240c5e50 	li	t4,24144
bfc01994:	3c0d3a0d 	lui	t5,0x3a0d
bfc01998:	35ad9754 	ori	t5,t5,0x9754
bfc0199c:	ad0d5e50 	sw	t5,24144(t0)
bfc019a0:	a1095e50 	sb	t1,24144(t0)
bfc019a4:	8d105e50 	lw	s0,24144(t0)
bfc019a8:	3c123a0d 	lui	s2,0x3a0d
bfc019ac:	365297bd 	ori	s2,s2,0x97bd
bfc019b0:	161202d7 	bne	s0,s2,bfc02510 <inst_error>
bfc019b4:	00000000 	nop
bfc019b8:	3c099d1b 	lui	t1,0x9d1b
bfc019bc:	3529a87b 	ori	t1,t1,0xa87b
bfc019c0:	3c088011 	lui	t0,0x8011
bfc019c4:	240a5c87 	li	t2,23687
bfc019c8:	240c5c84 	li	t4,23684
bfc019cc:	3c0dc17b 	lui	t5,0xc17b
bfc019d0:	35ada750 	ori	t5,t5,0xa750
bfc019d4:	ad0d5c84 	sw	t5,23684(t0)
bfc019d8:	a1095c87 	sb	t1,23687(t0)
bfc019dc:	8d105c84 	lw	s0,23684(t0)
bfc019e0:	3c127b7b 	lui	s2,0x7b7b
bfc019e4:	3652a750 	ori	s2,s2,0xa750
bfc019e8:	161202c9 	bne	s0,s2,bfc02510 <inst_error>
bfc019ec:	00000000 	nop
bfc019f0:	3c095e9b 	lui	t1,0x5e9b
bfc019f4:	35296298 	ori	t1,t1,0x6298
bfc019f8:	3c088011 	lui	t0,0x8011
bfc019fc:	240a0001 	li	t2,1
bfc01a00:	240c0000 	li	t4,0
bfc01a04:	3c0d3df6 	lui	t5,0x3df6
bfc01a08:	35add256 	ori	t5,t5,0xd256
bfc01a0c:	ad0d0000 	sw	t5,0(t0)
bfc01a10:	a1090001 	sb	t1,1(t0)
bfc01a14:	8d100000 	lw	s0,0(t0)
bfc01a18:	3c123df6 	lui	s2,0x3df6
bfc01a1c:	36529856 	ori	s2,s2,0x9856
bfc01a20:	161202bb 	bne	s0,s2,bfc02510 <inst_error>
bfc01a24:	00000000 	nop
bfc01a28:	3c09d156 	lui	t1,0xd156
bfc01a2c:	35293c04 	ori	t1,t1,0x3c04
bfc01a30:	3c088011 	lui	t0,0x8011
bfc01a34:	240a0002 	li	t2,2
bfc01a38:	240c0000 	li	t4,0
bfc01a3c:	3c0d5f50 	lui	t5,0x5f50
bfc01a40:	35adb378 	ori	t5,t5,0xb378
bfc01a44:	ad0d0000 	sw	t5,0(t0)
bfc01a48:	a1090002 	sb	t1,2(t0)
bfc01a4c:	8d100000 	lw	s0,0(t0)
bfc01a50:	3c125f04 	lui	s2,0x5f04
bfc01a54:	3652b378 	ori	s2,s2,0xb378
bfc01a58:	161202ad 	bne	s0,s2,bfc02510 <inst_error>
bfc01a5c:	00000000 	nop
bfc01a60:	3c091093 	lui	t1,0x1093
bfc01a64:	352956f8 	ori	t1,t1,0x56f8
bfc01a68:	3c088011 	lui	t0,0x8011
bfc01a6c:	240a0001 	li	t2,1
bfc01a70:	240c0000 	li	t4,0
bfc01a74:	3c0d036b 	lui	t5,0x36b
bfc01a78:	35adb8b0 	ori	t5,t5,0xb8b0
bfc01a7c:	ad0d0000 	sw	t5,0(t0)
bfc01a80:	a1090001 	sb	t1,1(t0)
bfc01a84:	8d100000 	lw	s0,0(t0)
bfc01a88:	3c12036b 	lui	s2,0x36b
bfc01a8c:	3652f8b0 	ori	s2,s2,0xf8b0
bfc01a90:	1612029f 	bne	s0,s2,bfc02510 <inst_error>
bfc01a94:	00000000 	nop
bfc01a98:	3c09bd99 	lui	t1,0xbd99
bfc01a9c:	352940a5 	ori	t1,t1,0x40a5
bfc01aa0:	3c088011 	lui	t0,0x8011
bfc01aa4:	240a0000 	li	t2,0
bfc01aa8:	240c0000 	li	t4,0
bfc01aac:	3c0d8d12 	lui	t5,0x8d12
bfc01ab0:	35ad10b8 	ori	t5,t5,0x10b8
bfc01ab4:	ad0d0000 	sw	t5,0(t0)
bfc01ab8:	a1090000 	sb	t1,0(t0)
bfc01abc:	8d100000 	lw	s0,0(t0)
bfc01ac0:	3c128d12 	lui	s2,0x8d12
bfc01ac4:	365210a5 	ori	s2,s2,0x10a5
bfc01ac8:	16120291 	bne	s0,s2,bfc02510 <inst_error>
bfc01acc:	00000000 	nop
bfc01ad0:	3c09d53d 	lui	t1,0xd53d
bfc01ad4:	3529d416 	ori	t1,t1,0xd416
bfc01ad8:	3c088011 	lui	t0,0x8011
bfc01adc:	240a0001 	li	t2,1
bfc01ae0:	240c0000 	li	t4,0
bfc01ae4:	3c0dae1f 	lui	t5,0xae1f
bfc01ae8:	35ad4651 	ori	t5,t5,0x4651
bfc01aec:	ad0d0000 	sw	t5,0(t0)
bfc01af0:	a1090001 	sb	t1,1(t0)
bfc01af4:	8d100000 	lw	s0,0(t0)
bfc01af8:	3c12ae1f 	lui	s2,0xae1f
bfc01afc:	36521651 	ori	s2,s2,0x1651
bfc01b00:	16120283 	bne	s0,s2,bfc02510 <inst_error>
bfc01b04:	00000000 	nop
bfc01b08:	3c095eb1 	lui	t1,0x5eb1
bfc01b0c:	3529d1e8 	ori	t1,t1,0xd1e8
bfc01b10:	3c088011 	lui	t0,0x8011
bfc01b14:	240a0002 	li	t2,2
bfc01b18:	240c0000 	li	t4,0
bfc01b1c:	3c0d76f9 	lui	t5,0x76f9
bfc01b20:	35ad942c 	ori	t5,t5,0x942c
bfc01b24:	ad0d0000 	sw	t5,0(t0)
bfc01b28:	a1090002 	sb	t1,2(t0)
bfc01b2c:	8d100000 	lw	s0,0(t0)
bfc01b30:	3c1276e8 	lui	s2,0x76e8
bfc01b34:	3652942c 	ori	s2,s2,0x942c
bfc01b38:	16120275 	bne	s0,s2,bfc02510 <inst_error>
bfc01b3c:	00000000 	nop
bfc01b40:	3c094cdb 	lui	t1,0x4cdb
bfc01b44:	3529d878 	ori	t1,t1,0xd878
bfc01b48:	3c088011 	lui	t0,0x8011
bfc01b4c:	240a0000 	li	t2,0
bfc01b50:	240c0000 	li	t4,0
bfc01b54:	3c0dfb19 	lui	t5,0xfb19
bfc01b58:	35ad2df2 	ori	t5,t5,0x2df2
bfc01b5c:	ad0d0000 	sw	t5,0(t0)
bfc01b60:	a1090000 	sb	t1,0(t0)
bfc01b64:	8d100000 	lw	s0,0(t0)
bfc01b68:	3c12fb19 	lui	s2,0xfb19
bfc01b6c:	36522d78 	ori	s2,s2,0x2d78
bfc01b70:	16120267 	bne	s0,s2,bfc02510 <inst_error>
bfc01b74:	00000000 	nop
bfc01b78:	3c09895b 	lui	t1,0x895b
bfc01b7c:	3529bb88 	ori	t1,t1,0xbb88
bfc01b80:	3c088011 	lui	t0,0x8011
bfc01b84:	240a0002 	li	t2,2
bfc01b88:	240c0000 	li	t4,0
bfc01b8c:	3c0d7854 	lui	t5,0x7854
bfc01b90:	35ad532e 	ori	t5,t5,0x532e
bfc01b94:	ad0d0000 	sw	t5,0(t0)
bfc01b98:	a1090002 	sb	t1,2(t0)
bfc01b9c:	8d100000 	lw	s0,0(t0)
bfc01ba0:	3c127888 	lui	s2,0x7888
bfc01ba4:	3652532e 	ori	s2,s2,0x532e
bfc01ba8:	16120259 	bne	s0,s2,bfc02510 <inst_error>
bfc01bac:	00000000 	nop
bfc01bb0:	3c09d1c9 	lui	t1,0xd1c9
bfc01bb4:	35299748 	ori	t1,t1,0x9748
bfc01bb8:	3c088011 	lui	t0,0x8011
bfc01bbc:	240a0002 	li	t2,2
bfc01bc0:	240c0000 	li	t4,0
bfc01bc4:	3c0de918 	lui	t5,0xe918
bfc01bc8:	35adba4c 	ori	t5,t5,0xba4c
bfc01bcc:	ad0d0000 	sw	t5,0(t0)
bfc01bd0:	a1090002 	sb	t1,2(t0)
bfc01bd4:	8d100000 	lw	s0,0(t0)
bfc01bd8:	3c12e948 	lui	s2,0xe948
bfc01bdc:	3652ba4c 	ori	s2,s2,0xba4c
bfc01be0:	1612024b 	bne	s0,s2,bfc02510 <inst_error>
bfc01be4:	00000000 	nop
bfc01be8:	3c0985af 	lui	t1,0x85af
bfc01bec:	35291f1e 	ori	t1,t1,0x1f1e
bfc01bf0:	3c088011 	lui	t0,0x8011
bfc01bf4:	240a0001 	li	t2,1
bfc01bf8:	240c0000 	li	t4,0
bfc01bfc:	3c0d9cdf 	lui	t5,0x9cdf
bfc01c00:	35adb200 	ori	t5,t5,0xb200
bfc01c04:	ad0d0000 	sw	t5,0(t0)
bfc01c08:	a1090001 	sb	t1,1(t0)
bfc01c0c:	8d100000 	lw	s0,0(t0)
bfc01c10:	3c129cdf 	lui	s2,0x9cdf
bfc01c14:	36521e00 	ori	s2,s2,0x1e00
bfc01c18:	1612023d 	bne	s0,s2,bfc02510 <inst_error>
bfc01c1c:	00000000 	nop
bfc01c20:	3c097ba8 	lui	t1,0x7ba8
bfc01c24:	3529c8a0 	ori	t1,t1,0xc8a0
bfc01c28:	3c088011 	lui	t0,0x8011
bfc01c2c:	240a0003 	li	t2,3
bfc01c30:	240c0000 	li	t4,0
bfc01c34:	3c0d9a16 	lui	t5,0x9a16
bfc01c38:	35ad3388 	ori	t5,t5,0x3388
bfc01c3c:	ad0d0000 	sw	t5,0(t0)
bfc01c40:	a1090003 	sb	t1,3(t0)
bfc01c44:	8d100000 	lw	s0,0(t0)
bfc01c48:	3c12a016 	lui	s2,0xa016
bfc01c4c:	36523388 	ori	s2,s2,0x3388
bfc01c50:	1612022f 	bne	s0,s2,bfc02510 <inst_error>
bfc01c54:	00000000 	nop
bfc01c58:	3c099daf 	lui	t1,0x9daf
bfc01c5c:	3529dbd4 	ori	t1,t1,0xdbd4
bfc01c60:	3c088011 	lui	t0,0x8011
bfc01c64:	240a0003 	li	t2,3
bfc01c68:	240c0000 	li	t4,0
bfc01c6c:	3c0d0676 	lui	t5,0x676
bfc01c70:	35adc233 	ori	t5,t5,0xc233
bfc01c74:	ad0d0000 	sw	t5,0(t0)
bfc01c78:	a1090003 	sb	t1,3(t0)
bfc01c7c:	8d100000 	lw	s0,0(t0)
bfc01c80:	3c12d476 	lui	s2,0xd476
bfc01c84:	3652c233 	ori	s2,s2,0xc233
bfc01c88:	16120221 	bne	s0,s2,bfc02510 <inst_error>
bfc01c8c:	00000000 	nop
bfc01c90:	3c0948d7 	lui	t1,0x48d7
bfc01c94:	35292a28 	ori	t1,t1,0x2a28
bfc01c98:	3c088011 	lui	t0,0x8011
bfc01c9c:	240a0000 	li	t2,0
bfc01ca0:	240c0000 	li	t4,0
bfc01ca4:	3c0dd52c 	lui	t5,0xd52c
bfc01ca8:	35ad0b08 	ori	t5,t5,0xb08
bfc01cac:	ad0d0000 	sw	t5,0(t0)
bfc01cb0:	a1090000 	sb	t1,0(t0)
bfc01cb4:	8d100000 	lw	s0,0(t0)
bfc01cb8:	3c12d52c 	lui	s2,0xd52c
bfc01cbc:	36520b28 	ori	s2,s2,0xb28
bfc01cc0:	16120213 	bne	s0,s2,bfc02510 <inst_error>
bfc01cc4:	00000000 	nop
bfc01cc8:	3c09b57c 	lui	t1,0xb57c
bfc01ccc:	3529c36c 	ori	t1,t1,0xc36c
bfc01cd0:	3c088011 	lui	t0,0x8011
bfc01cd4:	240a0000 	li	t2,0
bfc01cd8:	240c0000 	li	t4,0
bfc01cdc:	3c0dc47f 	lui	t5,0xc47f
bfc01ce0:	35ad87c8 	ori	t5,t5,0x87c8
bfc01ce4:	ad0d0000 	sw	t5,0(t0)
bfc01ce8:	a1090000 	sb	t1,0(t0)
bfc01cec:	8d100000 	lw	s0,0(t0)
bfc01cf0:	3c12c47f 	lui	s2,0xc47f
bfc01cf4:	3652876c 	ori	s2,s2,0x876c
bfc01cf8:	16120205 	bne	s0,s2,bfc02510 <inst_error>
bfc01cfc:	00000000 	nop
bfc01d00:	3c09ea61 	lui	t1,0xea61
bfc01d04:	352970e8 	ori	t1,t1,0x70e8
bfc01d08:	3c088011 	lui	t0,0x8011
bfc01d0c:	240a0000 	li	t2,0
bfc01d10:	240c0000 	li	t4,0
bfc01d14:	3c0d4416 	lui	t5,0x4416
bfc01d18:	35addbe6 	ori	t5,t5,0xdbe6
bfc01d1c:	ad0d0000 	sw	t5,0(t0)
bfc01d20:	a1090000 	sb	t1,0(t0)
bfc01d24:	8d100000 	lw	s0,0(t0)
bfc01d28:	3c124416 	lui	s2,0x4416
bfc01d2c:	3652dbe8 	ori	s2,s2,0xdbe8
bfc01d30:	161201f7 	bne	s0,s2,bfc02510 <inst_error>
bfc01d34:	00000000 	nop
bfc01d38:	3c093fe8 	lui	t1,0x3fe8
bfc01d3c:	3529f8a2 	ori	t1,t1,0xf8a2
bfc01d40:	3c088011 	lui	t0,0x8011
bfc01d44:	240a0000 	li	t2,0
bfc01d48:	240c0000 	li	t4,0
bfc01d4c:	3c0da6a8 	lui	t5,0xa6a8
bfc01d50:	35ad2196 	ori	t5,t5,0x2196
bfc01d54:	ad0d0000 	sw	t5,0(t0)
bfc01d58:	a1090000 	sb	t1,0(t0)
bfc01d5c:	8d100000 	lw	s0,0(t0)
bfc01d60:	3c12a6a8 	lui	s2,0xa6a8
bfc01d64:	365221a2 	ori	s2,s2,0x21a2
bfc01d68:	161201e9 	bne	s0,s2,bfc02510 <inst_error>
bfc01d6c:	00000000 	nop
bfc01d70:	3c09caed 	lui	t1,0xcaed
bfc01d74:	3529fd56 	ori	t1,t1,0xfd56
bfc01d78:	3c088011 	lui	t0,0x8011
bfc01d7c:	240a0002 	li	t2,2
bfc01d80:	240c0000 	li	t4,0
bfc01d84:	3c0d0971 	lui	t5,0x971
bfc01d88:	35adf49e 	ori	t5,t5,0xf49e
bfc01d8c:	ad0d0000 	sw	t5,0(t0)
bfc01d90:	a1090002 	sb	t1,2(t0)
bfc01d94:	8d100000 	lw	s0,0(t0)
bfc01d98:	3c120956 	lui	s2,0x956
bfc01d9c:	3652f49e 	ori	s2,s2,0xf49e
bfc01da0:	161201db 	bne	s0,s2,bfc02510 <inst_error>
bfc01da4:	00000000 	nop
bfc01da8:	3c09ee54 	lui	t1,0xee54
bfc01dac:	3529a808 	ori	t1,t1,0xa808
bfc01db0:	3c088011 	lui	t0,0x8011
bfc01db4:	240a0001 	li	t2,1
bfc01db8:	240c0000 	li	t4,0
bfc01dbc:	3c0d06eb 	lui	t5,0x6eb
bfc01dc0:	35adfb12 	ori	t5,t5,0xfb12
bfc01dc4:	ad0d0000 	sw	t5,0(t0)
bfc01dc8:	a1090001 	sb	t1,1(t0)
bfc01dcc:	8d100000 	lw	s0,0(t0)
bfc01dd0:	3c1206eb 	lui	s2,0x6eb
bfc01dd4:	36520812 	ori	s2,s2,0x812
bfc01dd8:	161201cd 	bne	s0,s2,bfc02510 <inst_error>
bfc01ddc:	00000000 	nop
bfc01de0:	3c09c374 	lui	t1,0xc374
bfc01de4:	35296cb0 	ori	t1,t1,0x6cb0
bfc01de8:	3c088011 	lui	t0,0x8011
bfc01dec:	240a0000 	li	t2,0
bfc01df0:	240c0000 	li	t4,0
bfc01df4:	3c0dcc67 	lui	t5,0xcc67
bfc01df8:	35ad595e 	ori	t5,t5,0x595e
bfc01dfc:	ad0d0000 	sw	t5,0(t0)
bfc01e00:	a1090000 	sb	t1,0(t0)
bfc01e04:	8d100000 	lw	s0,0(t0)
bfc01e08:	3c12cc67 	lui	s2,0xcc67
bfc01e0c:	365259b0 	ori	s2,s2,0x59b0
bfc01e10:	161201bf 	bne	s0,s2,bfc02510 <inst_error>
bfc01e14:	00000000 	nop
bfc01e18:	3c099486 	lui	t1,0x9486
bfc01e1c:	35292c00 	ori	t1,t1,0x2c00
bfc01e20:	3c088011 	lui	t0,0x8011
bfc01e24:	240a0002 	li	t2,2
bfc01e28:	240c0000 	li	t4,0
bfc01e2c:	3c0d3b4e 	lui	t5,0x3b4e
bfc01e30:	35ad02ac 	ori	t5,t5,0x2ac
bfc01e34:	ad0d0000 	sw	t5,0(t0)
bfc01e38:	a1090002 	sb	t1,2(t0)
bfc01e3c:	8d100000 	lw	s0,0(t0)
bfc01e40:	3c123b00 	lui	s2,0x3b00
bfc01e44:	365202ac 	ori	s2,s2,0x2ac
bfc01e48:	161201b1 	bne	s0,s2,bfc02510 <inst_error>
bfc01e4c:	00000000 	nop
bfc01e50:	3c0903ad 	lui	t1,0x3ad
bfc01e54:	352975f4 	ori	t1,t1,0x75f4
bfc01e58:	3c088011 	lui	t0,0x8011
bfc01e5c:	240a0000 	li	t2,0
bfc01e60:	240c0000 	li	t4,0
bfc01e64:	3c0de21e 	lui	t5,0xe21e
bfc01e68:	35ad9e40 	ori	t5,t5,0x9e40
bfc01e6c:	ad0d0000 	sw	t5,0(t0)
bfc01e70:	a1090000 	sb	t1,0(t0)
bfc01e74:	8d100000 	lw	s0,0(t0)
bfc01e78:	3c12e21e 	lui	s2,0xe21e
bfc01e7c:	36529ef4 	ori	s2,s2,0x9ef4
bfc01e80:	161201a3 	bne	s0,s2,bfc02510 <inst_error>
bfc01e84:	00000000 	nop
bfc01e88:	3c091a25 	lui	t1,0x1a25
bfc01e8c:	35291802 	ori	t1,t1,0x1802
bfc01e90:	3c088011 	lui	t0,0x8011
bfc01e94:	240a0000 	li	t2,0
bfc01e98:	240c0000 	li	t4,0
bfc01e9c:	3c0d2a4f 	lui	t5,0x2a4f
bfc01ea0:	35ad1a28 	ori	t5,t5,0x1a28
bfc01ea4:	ad0d0000 	sw	t5,0(t0)
bfc01ea8:	a1090000 	sb	t1,0(t0)
bfc01eac:	8d100000 	lw	s0,0(t0)
bfc01eb0:	3c122a4f 	lui	s2,0x2a4f
bfc01eb4:	36521a02 	ori	s2,s2,0x1a02
bfc01eb8:	16120195 	bne	s0,s2,bfc02510 <inst_error>
bfc01ebc:	00000000 	nop
bfc01ec0:	3c09394a 	lui	t1,0x394a
bfc01ec4:	35296480 	ori	t1,t1,0x6480
bfc01ec8:	3c088011 	lui	t0,0x8011
bfc01ecc:	240a0002 	li	t2,2
bfc01ed0:	240c0000 	li	t4,0
bfc01ed4:	3c0d2de3 	lui	t5,0x2de3
bfc01ed8:	35adb624 	ori	t5,t5,0xb624
bfc01edc:	ad0d0000 	sw	t5,0(t0)
bfc01ee0:	a1090002 	sb	t1,2(t0)
bfc01ee4:	8d100000 	lw	s0,0(t0)
bfc01ee8:	3c122d80 	lui	s2,0x2d80
bfc01eec:	3652b624 	ori	s2,s2,0xb624
bfc01ef0:	16120187 	bne	s0,s2,bfc02510 <inst_error>
bfc01ef4:	00000000 	nop
bfc01ef8:	3c099829 	lui	t1,0x9829
bfc01efc:	35295f3e 	ori	t1,t1,0x5f3e
bfc01f00:	3c088011 	lui	t0,0x8011
bfc01f04:	240a0000 	li	t2,0
bfc01f08:	240c0000 	li	t4,0
bfc01f0c:	3c0d163a 	lui	t5,0x163a
bfc01f10:	35ad9c0e 	ori	t5,t5,0x9c0e
bfc01f14:	ad0d0000 	sw	t5,0(t0)
bfc01f18:	a1090000 	sb	t1,0(t0)
bfc01f1c:	8d100000 	lw	s0,0(t0)
bfc01f20:	3c12163a 	lui	s2,0x163a
bfc01f24:	36529c3e 	ori	s2,s2,0x9c3e
bfc01f28:	16120179 	bne	s0,s2,bfc02510 <inst_error>
bfc01f2c:	00000000 	nop
bfc01f30:	3c09ab39 	lui	t1,0xab39
bfc01f34:	3529a0f1 	ori	t1,t1,0xa0f1
bfc01f38:	3c088011 	lui	t0,0x8011
bfc01f3c:	240a0003 	li	t2,3
bfc01f40:	240c0000 	li	t4,0
bfc01f44:	3c0d4e95 	lui	t5,0x4e95
bfc01f48:	35adb5e6 	ori	t5,t5,0xb5e6
bfc01f4c:	ad0d0000 	sw	t5,0(t0)
bfc01f50:	a1090003 	sb	t1,3(t0)
bfc01f54:	8d100000 	lw	s0,0(t0)
bfc01f58:	3c12f195 	lui	s2,0xf195
bfc01f5c:	3652b5e6 	ori	s2,s2,0xb5e6
bfc01f60:	1612016b 	bne	s0,s2,bfc02510 <inst_error>
bfc01f64:	00000000 	nop
bfc01f68:	3c09920b 	lui	t1,0x920b
bfc01f6c:	35296b7c 	ori	t1,t1,0x6b7c
bfc01f70:	3c088011 	lui	t0,0x8011
bfc01f74:	240a0003 	li	t2,3
bfc01f78:	240c0000 	li	t4,0
bfc01f7c:	3c0d72a0 	lui	t5,0x72a0
bfc01f80:	35ad13f3 	ori	t5,t5,0x13f3
bfc01f84:	ad0d0000 	sw	t5,0(t0)
bfc01f88:	a1090003 	sb	t1,3(t0)
bfc01f8c:	8d100000 	lw	s0,0(t0)
bfc01f90:	3c127ca0 	lui	s2,0x7ca0
bfc01f94:	365213f3 	ori	s2,s2,0x13f3
bfc01f98:	1612015d 	bne	s0,s2,bfc02510 <inst_error>
bfc01f9c:	00000000 	nop
bfc01fa0:	3c09495b 	lui	t1,0x495b
bfc01fa4:	35295ac8 	ori	t1,t1,0x5ac8
bfc01fa8:	3c088011 	lui	t0,0x8011
bfc01fac:	240a0000 	li	t2,0
bfc01fb0:	240c0000 	li	t4,0
bfc01fb4:	3c0dec64 	lui	t5,0xec64
bfc01fb8:	35adb700 	ori	t5,t5,0xb700
bfc01fbc:	ad0d0000 	sw	t5,0(t0)
bfc01fc0:	a1090000 	sb	t1,0(t0)
bfc01fc4:	8d100000 	lw	s0,0(t0)
bfc01fc8:	3c12ec64 	lui	s2,0xec64
bfc01fcc:	3652b7c8 	ori	s2,s2,0xb7c8
bfc01fd0:	1612014f 	bne	s0,s2,bfc02510 <inst_error>
bfc01fd4:	00000000 	nop
bfc01fd8:	3c090859 	lui	t1,0x859
bfc01fdc:	352960aa 	ori	t1,t1,0x60aa
bfc01fe0:	3c088011 	lui	t0,0x8011
bfc01fe4:	240a0000 	li	t2,0
bfc01fe8:	240c0000 	li	t4,0
bfc01fec:	3c0d1342 	lui	t5,0x1342
bfc01ff0:	35ad70b0 	ori	t5,t5,0x70b0
bfc01ff4:	ad0d0000 	sw	t5,0(t0)
bfc01ff8:	a1090000 	sb	t1,0(t0)
bfc01ffc:	8d100000 	lw	s0,0(t0)
bfc02000:	3c121342 	lui	s2,0x1342
bfc02004:	365270aa 	ori	s2,s2,0x70aa
bfc02008:	16120141 	bne	s0,s2,bfc02510 <inst_error>
bfc0200c:	00000000 	nop
bfc02010:	3c093cbf 	lui	t1,0x3cbf
bfc02014:	35292870 	ori	t1,t1,0x2870
bfc02018:	3c088011 	lui	t0,0x8011
bfc0201c:	240a0000 	li	t2,0
bfc02020:	240c0000 	li	t4,0
bfc02024:	3c0d59b4 	lui	t5,0x59b4
bfc02028:	35ad5880 	ori	t5,t5,0x5880
bfc0202c:	ad0d0000 	sw	t5,0(t0)
bfc02030:	a1090000 	sb	t1,0(t0)
bfc02034:	8d100000 	lw	s0,0(t0)
bfc02038:	3c1259b4 	lui	s2,0x59b4
bfc0203c:	36525870 	ori	s2,s2,0x5870
bfc02040:	16120133 	bne	s0,s2,bfc02510 <inst_error>
bfc02044:	00000000 	nop
bfc02048:	3c0956f5 	lui	t1,0x56f5
bfc0204c:	3529f5c0 	ori	t1,t1,0xf5c0
bfc02050:	3c088011 	lui	t0,0x8011
bfc02054:	240a0003 	li	t2,3
bfc02058:	240c0000 	li	t4,0
bfc0205c:	3c0d256c 	lui	t5,0x256c
bfc02060:	35ada3e0 	ori	t5,t5,0xa3e0
bfc02064:	ad0d0000 	sw	t5,0(t0)
bfc02068:	a1090003 	sb	t1,3(t0)
bfc0206c:	8d100000 	lw	s0,0(t0)
bfc02070:	3c12c06c 	lui	s2,0xc06c
bfc02074:	3652a3e0 	ori	s2,s2,0xa3e0
bfc02078:	16120125 	bne	s0,s2,bfc02510 <inst_error>
bfc0207c:	00000000 	nop
bfc02080:	3c0970fc 	lui	t1,0x70fc
bfc02084:	35299514 	ori	t1,t1,0x9514
bfc02088:	3c088011 	lui	t0,0x8011
bfc0208c:	240a0003 	li	t2,3
bfc02090:	240c0000 	li	t4,0
bfc02094:	3c0d98f1 	lui	t5,0x98f1
bfc02098:	35ad2540 	ori	t5,t5,0x2540
bfc0209c:	ad0d0000 	sw	t5,0(t0)
bfc020a0:	a1090003 	sb	t1,3(t0)
bfc020a4:	8d100000 	lw	s0,0(t0)
bfc020a8:	3c1214f1 	lui	s2,0x14f1
bfc020ac:	36522540 	ori	s2,s2,0x2540
bfc020b0:	16120117 	bne	s0,s2,bfc02510 <inst_error>
bfc020b4:	00000000 	nop
bfc020b8:	3c09e529 	lui	t1,0xe529
bfc020bc:	3529fb0c 	ori	t1,t1,0xfb0c
bfc020c0:	3c088011 	lui	t0,0x8011
bfc020c4:	240a0003 	li	t2,3
bfc020c8:	240c0000 	li	t4,0
bfc020cc:	3c0de33e 	lui	t5,0xe33e
bfc020d0:	35ad6db8 	ori	t5,t5,0x6db8
bfc020d4:	ad0d0000 	sw	t5,0(t0)
bfc020d8:	a1090003 	sb	t1,3(t0)
bfc020dc:	8d100000 	lw	s0,0(t0)
bfc020e0:	3c120c3e 	lui	s2,0xc3e
bfc020e4:	36526db8 	ori	s2,s2,0x6db8
bfc020e8:	16120109 	bne	s0,s2,bfc02510 <inst_error>
bfc020ec:	00000000 	nop
bfc020f0:	3c09b4dc 	lui	t1,0xb4dc
bfc020f4:	35291216 	ori	t1,t1,0x1216
bfc020f8:	3c088011 	lui	t0,0x8011
bfc020fc:	240a0003 	li	t2,3
bfc02100:	240c0000 	li	t4,0
bfc02104:	3c0d061a 	lui	t5,0x61a
bfc02108:	35addb30 	ori	t5,t5,0xdb30
bfc0210c:	ad0d0000 	sw	t5,0(t0)
bfc02110:	a1090003 	sb	t1,3(t0)
bfc02114:	8d100000 	lw	s0,0(t0)
bfc02118:	3c12161a 	lui	s2,0x161a
bfc0211c:	3652db30 	ori	s2,s2,0xdb30
bfc02120:	161200fb 	bne	s0,s2,bfc02510 <inst_error>
bfc02124:	00000000 	nop
bfc02128:	3c093238 	lui	t1,0x3238
bfc0212c:	35293ee2 	ori	t1,t1,0x3ee2
bfc02130:	3c088011 	lui	t0,0x8011
bfc02134:	240a0002 	li	t2,2
bfc02138:	240c0000 	li	t4,0
bfc0213c:	3c0d7465 	lui	t5,0x7465
bfc02140:	35ad1ad8 	ori	t5,t5,0x1ad8
bfc02144:	ad0d0000 	sw	t5,0(t0)
bfc02148:	a1090002 	sb	t1,2(t0)
bfc0214c:	8d100000 	lw	s0,0(t0)
bfc02150:	3c1274e2 	lui	s2,0x74e2
bfc02154:	36521ad8 	ori	s2,s2,0x1ad8
bfc02158:	161200ed 	bne	s0,s2,bfc02510 <inst_error>
bfc0215c:	00000000 	nop
bfc02160:	3c092fe2 	lui	t1,0x2fe2
bfc02164:	35291aa9 	ori	t1,t1,0x1aa9
bfc02168:	3c088011 	lui	t0,0x8011
bfc0216c:	240a0001 	li	t2,1
bfc02170:	240c0000 	li	t4,0
bfc02174:	3c0d6be1 	lui	t5,0x6be1
bfc02178:	35ad9ab0 	ori	t5,t5,0x9ab0
bfc0217c:	ad0d0000 	sw	t5,0(t0)
bfc02180:	a1090001 	sb	t1,1(t0)
bfc02184:	8d100000 	lw	s0,0(t0)
bfc02188:	3c126be1 	lui	s2,0x6be1
bfc0218c:	3652a9b0 	ori	s2,s2,0xa9b0
bfc02190:	161200df 	bne	s0,s2,bfc02510 <inst_error>
bfc02194:	00000000 	nop
bfc02198:	3c090772 	lui	t1,0x772
bfc0219c:	3529f456 	ori	t1,t1,0xf456
bfc021a0:	3c088011 	lui	t0,0x8011
bfc021a4:	240a0002 	li	t2,2
bfc021a8:	240c0000 	li	t4,0
bfc021ac:	3c0d3d6b 	lui	t5,0x3d6b
bfc021b0:	35ad9a47 	ori	t5,t5,0x9a47
bfc021b4:	ad0d0000 	sw	t5,0(t0)
bfc021b8:	a1090002 	sb	t1,2(t0)
bfc021bc:	8d100000 	lw	s0,0(t0)
bfc021c0:	3c123d56 	lui	s2,0x3d56
bfc021c4:	36529a47 	ori	s2,s2,0x9a47
bfc021c8:	161200d1 	bne	s0,s2,bfc02510 <inst_error>
bfc021cc:	00000000 	nop
bfc021d0:	3c09b7b8 	lui	t1,0xb7b8
bfc021d4:	3529d04b 	ori	t1,t1,0xd04b
bfc021d8:	3c088011 	lui	t0,0x8011
bfc021dc:	240a0002 	li	t2,2
bfc021e0:	240c0000 	li	t4,0
bfc021e4:	3c0d4010 	lui	t5,0x4010
bfc021e8:	35ad9700 	ori	t5,t5,0x9700
bfc021ec:	ad0d0000 	sw	t5,0(t0)
bfc021f0:	a1090002 	sb	t1,2(t0)
bfc021f4:	8d100000 	lw	s0,0(t0)
bfc021f8:	3c12404b 	lui	s2,0x404b
bfc021fc:	36529700 	ori	s2,s2,0x9700
bfc02200:	161200c3 	bne	s0,s2,bfc02510 <inst_error>
bfc02204:	00000000 	nop
bfc02208:	3c092554 	lui	t1,0x2554
bfc0220c:	3529b190 	ori	t1,t1,0xb190
bfc02210:	3c088011 	lui	t0,0x8011
bfc02214:	240a0001 	li	t2,1
bfc02218:	240c0000 	li	t4,0
bfc0221c:	3c0d8a35 	lui	t5,0x8a35
bfc02220:	35ad007a 	ori	t5,t5,0x7a
bfc02224:	ad0d0000 	sw	t5,0(t0)
bfc02228:	a1090001 	sb	t1,1(t0)
bfc0222c:	8d100000 	lw	s0,0(t0)
bfc02230:	3c128a35 	lui	s2,0x8a35
bfc02234:	3652907a 	ori	s2,s2,0x907a
bfc02238:	161200b5 	bne	s0,s2,bfc02510 <inst_error>
bfc0223c:	00000000 	nop
bfc02240:	3c0999ea 	lui	t1,0x99ea
bfc02244:	3529f5c0 	ori	t1,t1,0xf5c0
bfc02248:	3c088011 	lui	t0,0x8011
bfc0224c:	240a0001 	li	t2,1
bfc02250:	240c0000 	li	t4,0
bfc02254:	3c0dc118 	lui	t5,0xc118
bfc02258:	35ad7138 	ori	t5,t5,0x7138
bfc0225c:	ad0d0000 	sw	t5,0(t0)
bfc02260:	a1090001 	sb	t1,1(t0)
bfc02264:	8d100000 	lw	s0,0(t0)
bfc02268:	3c12c118 	lui	s2,0xc118
bfc0226c:	3652c038 	ori	s2,s2,0xc038
bfc02270:	161200a7 	bne	s0,s2,bfc02510 <inst_error>
bfc02274:	00000000 	nop
bfc02278:	3c0901c3 	lui	t1,0x1c3
bfc0227c:	3529cc60 	ori	t1,t1,0xcc60
bfc02280:	3c088011 	lui	t0,0x8011
bfc02284:	240a0003 	li	t2,3
bfc02288:	240c0000 	li	t4,0
bfc0228c:	3c0d4862 	lui	t5,0x4862
bfc02290:	35ad5563 	ori	t5,t5,0x5563
bfc02294:	ad0d0000 	sw	t5,0(t0)
bfc02298:	a1090003 	sb	t1,3(t0)
bfc0229c:	8d100000 	lw	s0,0(t0)
bfc022a0:	3c126062 	lui	s2,0x6062
bfc022a4:	36525563 	ori	s2,s2,0x5563
bfc022a8:	16120099 	bne	s0,s2,bfc02510 <inst_error>
bfc022ac:	00000000 	nop
bfc022b0:	3c0938f3 	lui	t1,0x38f3
bfc022b4:	3529f91a 	ori	t1,t1,0xf91a
bfc022b8:	3c088011 	lui	t0,0x8011
bfc022bc:	240a0001 	li	t2,1
bfc022c0:	240c0000 	li	t4,0
bfc022c4:	3c0df0cd 	lui	t5,0xf0cd
bfc022c8:	35ad4bd0 	ori	t5,t5,0x4bd0
bfc022cc:	ad0d0000 	sw	t5,0(t0)
bfc022d0:	a1090001 	sb	t1,1(t0)
bfc022d4:	8d100000 	lw	s0,0(t0)
bfc022d8:	3c12f0cd 	lui	s2,0xf0cd
bfc022dc:	36521ad0 	ori	s2,s2,0x1ad0
bfc022e0:	1612008b 	bne	s0,s2,bfc02510 <inst_error>
bfc022e4:	00000000 	nop
bfc022e8:	3c096379 	lui	t1,0x6379
bfc022ec:	35296d34 	ori	t1,t1,0x6d34
bfc022f0:	3c088011 	lui	t0,0x8011
bfc022f4:	240a0003 	li	t2,3
bfc022f8:	240c0000 	li	t4,0
bfc022fc:	3c0d9782 	lui	t5,0x9782
bfc02300:	35add734 	ori	t5,t5,0xd734
bfc02304:	ad0d0000 	sw	t5,0(t0)
bfc02308:	a1090003 	sb	t1,3(t0)
bfc0230c:	8d100000 	lw	s0,0(t0)
bfc02310:	3c123482 	lui	s2,0x3482
bfc02314:	3652d734 	ori	s2,s2,0xd734
bfc02318:	1612007d 	bne	s0,s2,bfc02510 <inst_error>
bfc0231c:	00000000 	nop
bfc02320:	3c09db5b 	lui	t1,0xdb5b
bfc02324:	3529a150 	ori	t1,t1,0xa150
bfc02328:	3c088011 	lui	t0,0x8011
bfc0232c:	240a0001 	li	t2,1
bfc02330:	240c0000 	li	t4,0
bfc02334:	3c0d098f 	lui	t5,0x98f
bfc02338:	35ade6e4 	ori	t5,t5,0xe6e4
bfc0233c:	ad0d0000 	sw	t5,0(t0)
bfc02340:	a1090001 	sb	t1,1(t0)
bfc02344:	8d100000 	lw	s0,0(t0)
bfc02348:	3c12098f 	lui	s2,0x98f
bfc0234c:	365250e4 	ori	s2,s2,0x50e4
bfc02350:	1612006f 	bne	s0,s2,bfc02510 <inst_error>
bfc02354:	00000000 	nop
bfc02358:	3c094631 	lui	t1,0x4631
bfc0235c:	35291ae6 	ori	t1,t1,0x1ae6
bfc02360:	3c088011 	lui	t0,0x8011
bfc02364:	240a0002 	li	t2,2
bfc02368:	240c0000 	li	t4,0
bfc0236c:	3c0d34d5 	lui	t5,0x34d5
bfc02370:	35ad36f0 	ori	t5,t5,0x36f0
bfc02374:	ad0d0000 	sw	t5,0(t0)
bfc02378:	a1090002 	sb	t1,2(t0)
bfc0237c:	8d100000 	lw	s0,0(t0)
bfc02380:	3c1234e6 	lui	s2,0x34e6
bfc02384:	365236f0 	ori	s2,s2,0x36f0
bfc02388:	16120061 	bne	s0,s2,bfc02510 <inst_error>
bfc0238c:	00000000 	nop
bfc02390:	3c09fd27 	lui	t1,0xfd27
bfc02394:	3529d0d0 	ori	t1,t1,0xd0d0
bfc02398:	3c088011 	lui	t0,0x8011
bfc0239c:	240a0003 	li	t2,3
bfc023a0:	240c0000 	li	t4,0
bfc023a4:	3c0d7aa0 	lui	t5,0x7aa0
bfc023a8:	35adf9d0 	ori	t5,t5,0xf9d0
bfc023ac:	ad0d0000 	sw	t5,0(t0)
bfc023b0:	a1090003 	sb	t1,3(t0)
bfc023b4:	8d100000 	lw	s0,0(t0)
bfc023b8:	3c12d0a0 	lui	s2,0xd0a0
bfc023bc:	3652f9d0 	ori	s2,s2,0xf9d0
bfc023c0:	16120053 	bne	s0,s2,bfc02510 <inst_error>
bfc023c4:	00000000 	nop
bfc023c8:	3c09b3be 	lui	t1,0xb3be
bfc023cc:	352948f8 	ori	t1,t1,0x48f8
bfc023d0:	3c088011 	lui	t0,0x8011
bfc023d4:	240a0003 	li	t2,3
bfc023d8:	240c0000 	li	t4,0
bfc023dc:	3c0d5ff7 	lui	t5,0x5ff7
bfc023e0:	35ad8063 	ori	t5,t5,0x8063
bfc023e4:	ad0d0000 	sw	t5,0(t0)
bfc023e8:	a1090003 	sb	t1,3(t0)
bfc023ec:	8d100000 	lw	s0,0(t0)
bfc023f0:	3c12f8f7 	lui	s2,0xf8f7
bfc023f4:	36528063 	ori	s2,s2,0x8063
bfc023f8:	16120045 	bne	s0,s2,bfc02510 <inst_error>
bfc023fc:	00000000 	nop
bfc02400:	3c09bd04 	lui	t1,0xbd04
bfc02404:	35296514 	ori	t1,t1,0x6514
bfc02408:	3c088011 	lui	t0,0x8011
bfc0240c:	240a0000 	li	t2,0
bfc02410:	240c0000 	li	t4,0
bfc02414:	3c0d857c 	lui	t5,0x857c
bfc02418:	35ad8744 	ori	t5,t5,0x8744
bfc0241c:	ad0d0000 	sw	t5,0(t0)
bfc02420:	a1090000 	sb	t1,0(t0)
bfc02424:	8d100000 	lw	s0,0(t0)
bfc02428:	3c12857c 	lui	s2,0x857c
bfc0242c:	36528714 	ori	s2,s2,0x8714
bfc02430:	16120037 	bne	s0,s2,bfc02510 <inst_error>
bfc02434:	00000000 	nop
bfc02438:	3c09542f 	lui	t1,0x542f
bfc0243c:	352967c0 	ori	t1,t1,0x67c0
bfc02440:	3c088011 	lui	t0,0x8011
bfc02444:	240a0001 	li	t2,1
bfc02448:	240c0000 	li	t4,0
bfc0244c:	3c0d387f 	lui	t5,0x387f
bfc02450:	35addade 	ori	t5,t5,0xdade
bfc02454:	ad0d0000 	sw	t5,0(t0)
bfc02458:	a1090001 	sb	t1,1(t0)
bfc0245c:	8d100000 	lw	s0,0(t0)
bfc02460:	3c12387f 	lui	s2,0x387f
bfc02464:	3652c0de 	ori	s2,s2,0xc0de
bfc02468:	16120029 	bne	s0,s2,bfc02510 <inst_error>
bfc0246c:	00000000 	nop
bfc02470:	3c09c78f 	lui	t1,0xc78f
bfc02474:	3529ac20 	ori	t1,t1,0xac20
bfc02478:	3c088011 	lui	t0,0x8011
bfc0247c:	240a0001 	li	t2,1
bfc02480:	240c0000 	li	t4,0
bfc02484:	3c0df96b 	lui	t5,0xf96b
bfc02488:	35ad1db0 	ori	t5,t5,0x1db0
bfc0248c:	ad0d0000 	sw	t5,0(t0)
bfc02490:	a1090001 	sb	t1,1(t0)
bfc02494:	8d100000 	lw	s0,0(t0)
bfc02498:	3c12f96b 	lui	s2,0xf96b
bfc0249c:	365220b0 	ori	s2,s2,0x20b0
bfc024a0:	1612001b 	bne	s0,s2,bfc02510 <inst_error>
bfc024a4:	00000000 	nop
bfc024a8:	3c096e6d 	lui	t1,0x6e6d
bfc024ac:	352940e0 	ori	t1,t1,0x40e0
bfc024b0:	3c088011 	lui	t0,0x8011
bfc024b4:	240a0000 	li	t2,0
bfc024b8:	240c0000 	li	t4,0
bfc024bc:	3c0dda28 	lui	t5,0xda28
bfc024c0:	35ad716c 	ori	t5,t5,0x716c
bfc024c4:	ad0d0000 	sw	t5,0(t0)
bfc024c8:	a1090000 	sb	t1,0(t0)
bfc024cc:	8d100000 	lw	s0,0(t0)
bfc024d0:	3c12da28 	lui	s2,0xda28
bfc024d4:	365271e0 	ori	s2,s2,0x71e0
bfc024d8:	1612000d 	bne	s0,s2,bfc02510 <inst_error>
bfc024dc:	00000000 	nop
bfc024e0:	24090000 	li	t1,0
bfc024e4:	3c088011 	lui	t0,0x8011
bfc024e8:	240a0000 	li	t2,0
bfc024ec:	240c0000 	li	t4,0
bfc024f0:	240d0000 	li	t5,0
bfc024f4:	ad0d0000 	sw	t5,0(t0)
bfc024f8:	a1090000 	sb	t1,0(t0)
bfc024fc:	8d100000 	lw	s0,0(t0)
bfc02500:	24120000 	li	s2,0
bfc02504:	16120002 	bne	s0,s2,bfc02510 <inst_error>
bfc02508:	00000000 	nop
bfc0250c:	4a000000 	c2	0x0

bfc02510 <inst_error>:
inst_error():
bfc02510:	0000003f 	0x3f

Disassembly of section .reginfo:

00000000 <.reginfo>:
   0:	00053702 	srl	a2,a1,0x1c
	...
