
build/sh:     file format elf32-tradlittlemips
build/sh


Disassembly of section .text:

bfc00000 <main>:
bfc00000:	3c090e1a 	lui	t1,0xe1a
bfc00004:	35293600 	ori	t1,t1,0x3600
bfc00008:	3c088010 	lui	t0,0x8010
bfc0000c:	350852a4 	ori	t0,t0,0x52a4
bfc00010:	240a3ade 	li	t2,15070
bfc00014:	240c3adc 	li	t4,15068
bfc00018:	3c0de15f 	lui	t5,0xe15f
bfc0001c:	35ad8848 	ori	t5,t5,0x8848
bfc00020:	ad0d3adc 	sw	t5,15068(t0)
bfc00024:	a5093ade 	sh	t1,15070(t0)
bfc00028:	8d103adc 	lw	s0,15068(t0)
bfc0002c:	3c123600 	lui	s2,0x3600
bfc00030:	36528848 	ori	s2,s2,0x8848
bfc00034:	1612066d 	bne	s0,s2,bfc019ec <inst_error>
bfc00038:	00000000 	nop
bfc0003c:	3c09b64d 	lui	t1,0xb64d
bfc00040:	35295300 	ori	t1,t1,0x5300
bfc00044:	3c088010 	lui	t0,0x8010
bfc00048:	35083f6c 	ori	t0,t0,0x3f6c
bfc0004c:	240a156a 	li	t2,5482
bfc00050:	240c1568 	li	t4,5480
bfc00054:	3c0d0410 	lui	t5,0x410
bfc00058:	35ad5cf0 	ori	t5,t5,0x5cf0
bfc0005c:	ad0d1568 	sw	t5,5480(t0)
bfc00060:	a509156a 	sh	t1,5482(t0)
bfc00064:	8d101568 	lw	s0,5480(t0)
bfc00068:	3c125300 	lui	s2,0x5300
bfc0006c:	36525cf0 	ori	s2,s2,0x5cf0
bfc00070:	1612065e 	bne	s0,s2,bfc019ec <inst_error>
bfc00074:	00000000 	nop
bfc00078:	3c09a1cf 	lui	t1,0xa1cf
bfc0007c:	3529708e 	ori	t1,t1,0x708e
bfc00080:	3c088010 	lui	t0,0x8010
bfc00084:	3508b7a0 	ori	t0,t0,0xb7a0
bfc00088:	240a0bf4 	li	t2,3060
bfc0008c:	240c0bf4 	li	t4,3060
bfc00090:	3c0dd187 	lui	t5,0xd187
bfc00094:	35adbd18 	ori	t5,t5,0xbd18
bfc00098:	ad0d0bf4 	sw	t5,3060(t0)
bfc0009c:	a5090bf4 	sh	t1,3060(t0)
bfc000a0:	8d100bf4 	lw	s0,3060(t0)
bfc000a4:	3c12d187 	lui	s2,0xd187
bfc000a8:	3652708e 	ori	s2,s2,0x708e
bfc000ac:	1612064f 	bne	s0,s2,bfc019ec <inst_error>
bfc000b0:	00000000 	nop
bfc000b4:	3c09ee02 	lui	t1,0xee02
bfc000b8:	3529bbc2 	ori	t1,t1,0xbbc2
bfc000bc:	3c088010 	lui	t0,0x8010
bfc000c0:	35086188 	ori	t0,t0,0x6188
bfc000c4:	240a2e44 	li	t2,11844
bfc000c8:	240c2e44 	li	t4,11844
bfc000cc:	3c0db5ab 	lui	t5,0xb5ab
bfc000d0:	35adcbf4 	ori	t5,t5,0xcbf4
bfc000d4:	ad0d2e44 	sw	t5,11844(t0)
bfc000d8:	a5092e44 	sh	t1,11844(t0)
bfc000dc:	8d102e44 	lw	s0,11844(t0)
bfc000e0:	3c12b5ab 	lui	s2,0xb5ab
bfc000e4:	3652bbc2 	ori	s2,s2,0xbbc2
bfc000e8:	16120640 	bne	s0,s2,bfc019ec <inst_error>
bfc000ec:	00000000 	nop
bfc000f0:	3c093069 	lui	t1,0x3069
bfc000f4:	352960f0 	ori	t1,t1,0x60f0
bfc000f8:	3c088010 	lui	t0,0x8010
bfc000fc:	35088d40 	ori	t0,t0,0x8d40
bfc00100:	240a6580 	li	t2,25984
bfc00104:	240c6580 	li	t4,25984
bfc00108:	3c0d6b04 	lui	t5,0x6b04
bfc0010c:	35adbf60 	ori	t5,t5,0xbf60
bfc00110:	ad0d6580 	sw	t5,25984(t0)
bfc00114:	a5096580 	sh	t1,25984(t0)
bfc00118:	8d106580 	lw	s0,25984(t0)
bfc0011c:	3c126b04 	lui	s2,0x6b04
bfc00120:	365260f0 	ori	s2,s2,0x60f0
bfc00124:	16120631 	bne	s0,s2,bfc019ec <inst_error>
bfc00128:	00000000 	nop
bfc0012c:	3c09fe00 	lui	t1,0xfe00
bfc00130:	3529ebf6 	ori	t1,t1,0xebf6
bfc00134:	3c088010 	lui	t0,0x8010
bfc00138:	35087090 	ori	t0,t0,0x7090
bfc0013c:	240a2086 	li	t2,8326
bfc00140:	240c2084 	li	t4,8324
bfc00144:	3c0d2532 	lui	t5,0x2532
bfc00148:	35add240 	ori	t5,t5,0xd240
bfc0014c:	ad0d2084 	sw	t5,8324(t0)
bfc00150:	a5092086 	sh	t1,8326(t0)
bfc00154:	8d102084 	lw	s0,8324(t0)
bfc00158:	3c12ebf6 	lui	s2,0xebf6
bfc0015c:	3652d240 	ori	s2,s2,0xd240
bfc00160:	16120622 	bne	s0,s2,bfc019ec <inst_error>
bfc00164:	00000000 	nop
bfc00168:	3c0928bd 	lui	t1,0x28bd
bfc0016c:	3529e000 	ori	t1,t1,0xe000
bfc00170:	3c088010 	lui	t0,0x8010
bfc00174:	350824e0 	ori	t0,t0,0x24e0
bfc00178:	240a24d6 	li	t2,9430
bfc0017c:	240c24d4 	li	t4,9428
bfc00180:	3c0d2b61 	lui	t5,0x2b61
bfc00184:	35adec90 	ori	t5,t5,0xec90
bfc00188:	ad0d24d4 	sw	t5,9428(t0)
bfc0018c:	a50924d6 	sh	t1,9430(t0)
bfc00190:	8d1024d4 	lw	s0,9428(t0)
bfc00194:	3c12e000 	lui	s2,0xe000
bfc00198:	3652ec90 	ori	s2,s2,0xec90
bfc0019c:	16120613 	bne	s0,s2,bfc019ec <inst_error>
bfc001a0:	00000000 	nop
bfc001a4:	3c09f569 	lui	t1,0xf569
bfc001a8:	35299820 	ori	t1,t1,0x9820
bfc001ac:	3c088010 	lui	t0,0x8010
bfc001b0:	35083b4c 	ori	t0,t0,0x3b4c
bfc001b4:	240a5e50 	li	t2,24144
bfc001b8:	240c5e50 	li	t4,24144
bfc001bc:	3c0da52d 	lui	t5,0xa52d
bfc001c0:	35ade360 	ori	t5,t5,0xe360
bfc001c4:	ad0d5e50 	sw	t5,24144(t0)
bfc001c8:	a5095e50 	sh	t1,24144(t0)
bfc001cc:	8d105e50 	lw	s0,24144(t0)
bfc001d0:	3c12a52d 	lui	s2,0xa52d
bfc001d4:	36529820 	ori	s2,s2,0x9820
bfc001d8:	16120604 	bne	s0,s2,bfc019ec <inst_error>
bfc001dc:	00000000 	nop
bfc001e0:	3c09a69f 	lui	t1,0xa69f
bfc001e4:	35293ca0 	ori	t1,t1,0x3ca0
bfc001e8:	3c088010 	lui	t0,0x8010
bfc001ec:	35082968 	ori	t0,t0,0x2968
bfc001f0:	240a5364 	li	t2,21348
bfc001f4:	240c5364 	li	t4,21348
bfc001f8:	3c0d7978 	lui	t5,0x7978
bfc001fc:	35adaff8 	ori	t5,t5,0xaff8
bfc00200:	ad0d5364 	sw	t5,21348(t0)
bfc00204:	a5095364 	sh	t1,21348(t0)
bfc00208:	8d105364 	lw	s0,21348(t0)
bfc0020c:	3c127978 	lui	s2,0x7978
bfc00210:	36523ca0 	ori	s2,s2,0x3ca0
bfc00214:	161205f5 	bne	s0,s2,bfc019ec <inst_error>
bfc00218:	00000000 	nop
bfc0021c:	3c090a66 	lui	t1,0xa66
bfc00220:	3529bf0c 	ori	t1,t1,0xbf0c
bfc00224:	3c088010 	lui	t0,0x8010
bfc00228:	3508ad70 	ori	t0,t0,0xad70
bfc0022c:	240a02bc 	li	t2,700
bfc00230:	240c02bc 	li	t4,700
bfc00234:	3c0dc4dd 	lui	t5,0xc4dd
bfc00238:	35adc7df 	ori	t5,t5,0xc7df
bfc0023c:	ad0d02bc 	sw	t5,700(t0)
bfc00240:	a50902bc 	sh	t1,700(t0)
bfc00244:	8d1002bc 	lw	s0,700(t0)
bfc00248:	3c12c4dd 	lui	s2,0xc4dd
bfc0024c:	3652bf0c 	ori	s2,s2,0xbf0c
bfc00250:	161205e6 	bne	s0,s2,bfc019ec <inst_error>
bfc00254:	00000000 	nop
bfc00258:	3c0927d4 	lui	t1,0x27d4
bfc0025c:	3529869c 	ori	t1,t1,0x869c
bfc00260:	3c088010 	lui	t0,0x8010
bfc00264:	35081500 	ori	t0,t0,0x1500
bfc00268:	240a48b6 	li	t2,18614
bfc0026c:	240c48b4 	li	t4,18612
bfc00270:	3c0dd6ef 	lui	t5,0xd6ef
bfc00274:	35ad145e 	ori	t5,t5,0x145e
bfc00278:	ad0d48b4 	sw	t5,18612(t0)
bfc0027c:	a50948b6 	sh	t1,18614(t0)
bfc00280:	8d1048b4 	lw	s0,18612(t0)
bfc00284:	3c12869c 	lui	s2,0x869c
bfc00288:	3652145e 	ori	s2,s2,0x145e
bfc0028c:	161205d7 	bne	s0,s2,bfc019ec <inst_error>
bfc00290:	00000000 	nop
bfc00294:	3c09a1fc 	lui	t1,0xa1fc
bfc00298:	35296927 	ori	t1,t1,0x6927
bfc0029c:	3c088010 	lui	t0,0x8010
bfc002a0:	35082f30 	ori	t0,t0,0x2f30
bfc002a4:	240a693c 	li	t2,26940
bfc002a8:	240c693c 	li	t4,26940
bfc002ac:	3c0de57c 	lui	t5,0xe57c
bfc002b0:	35ad6800 	ori	t5,t5,0x6800
bfc002b4:	ad0d693c 	sw	t5,26940(t0)
bfc002b8:	a509693c 	sh	t1,26940(t0)
bfc002bc:	8d10693c 	lw	s0,26940(t0)
bfc002c0:	3c12e57c 	lui	s2,0xe57c
bfc002c4:	36526927 	ori	s2,s2,0x6927
bfc002c8:	161205c8 	bne	s0,s2,bfc019ec <inst_error>
bfc002cc:	00000000 	nop
bfc002d0:	3c094c8f 	lui	t1,0x4c8f
bfc002d4:	3529b6e6 	ori	t1,t1,0xb6e6
bfc002d8:	3c088010 	lui	t0,0x8010
bfc002dc:	35082728 	ori	t0,t0,0x2728
bfc002e0:	240a22b8 	li	t2,8888
bfc002e4:	240c22b8 	li	t4,8888
bfc002e8:	3c0da645 	lui	t5,0xa645
bfc002ec:	35ad0915 	ori	t5,t5,0x915
bfc002f0:	ad0d22b8 	sw	t5,8888(t0)
bfc002f4:	a50922b8 	sh	t1,8888(t0)
bfc002f8:	8d1022b8 	lw	s0,8888(t0)
bfc002fc:	3c12a645 	lui	s2,0xa645
bfc00300:	3652b6e6 	ori	s2,s2,0xb6e6
bfc00304:	161205b9 	bne	s0,s2,bfc019ec <inst_error>
bfc00308:	00000000 	nop
bfc0030c:	3c09ec7b 	lui	t1,0xec7b
bfc00310:	35292b18 	ori	t1,t1,0x2b18
bfc00314:	3c088010 	lui	t0,0x8010
bfc00318:	3508e270 	ori	t0,t0,0xe270
bfc0031c:	240a05f4 	li	t2,1524
bfc00320:	240c05f4 	li	t4,1524
bfc00324:	3c0d3937 	lui	t5,0x3937
bfc00328:	35ad8cfc 	ori	t5,t5,0x8cfc
bfc0032c:	ad0d05f4 	sw	t5,1524(t0)
bfc00330:	a50905f4 	sh	t1,1524(t0)
bfc00334:	8d1005f4 	lw	s0,1524(t0)
bfc00338:	3c123937 	lui	s2,0x3937
bfc0033c:	36522b18 	ori	s2,s2,0x2b18
bfc00340:	161205aa 	bne	s0,s2,bfc019ec <inst_error>
bfc00344:	00000000 	nop
bfc00348:	3c0958c1 	lui	t1,0x58c1
bfc0034c:	3529d2c8 	ori	t1,t1,0xd2c8
bfc00350:	3c088010 	lui	t0,0x8010
bfc00354:	35083098 	ori	t0,t0,0x3098
bfc00358:	240a004c 	li	t2,76
bfc0035c:	240c004c 	li	t4,76
bfc00360:	3c0d4171 	lui	t5,0x4171
bfc00364:	35adb083 	ori	t5,t5,0xb083
bfc00368:	ad0d004c 	sw	t5,76(t0)
bfc0036c:	a509004c 	sh	t1,76(t0)
bfc00370:	8d10004c 	lw	s0,76(t0)
bfc00374:	3c124171 	lui	s2,0x4171
bfc00378:	3652d2c8 	ori	s2,s2,0xd2c8
bfc0037c:	1612059b 	bne	s0,s2,bfc019ec <inst_error>
bfc00380:	00000000 	nop
bfc00384:	3c0902f5 	lui	t1,0x2f5
bfc00388:	35293f68 	ori	t1,t1,0x3f68
bfc0038c:	3c088010 	lui	t0,0x8010
bfc00390:	35083c40 	ori	t0,t0,0x3c40
bfc00394:	340a85dc 	li	t2,0x85dc
bfc00398:	340c85dc 	li	t4,0x85dc
bfc0039c:	3c0d7616 	lui	t5,0x7616
bfc003a0:	35ad56b0 	ori	t5,t5,0x56b0
bfc003a4:	3c010001 	lui	at,0x1
bfc003a8:	00280821 	addu	at,at,t0
bfc003ac:	ac2d85dc 	sw	t5,-31268(at)
bfc003b0:	3c010001 	lui	at,0x1
bfc003b4:	00280821 	addu	at,at,t0
bfc003b8:	a42985dc 	sh	t1,-31268(at)
bfc003bc:	3c100001 	lui	s0,0x1
bfc003c0:	02088021 	addu	s0,s0,t0
bfc003c4:	8e1085dc 	lw	s0,-31268(s0)
bfc003c8:	3c127616 	lui	s2,0x7616
bfc003cc:	36523f68 	ori	s2,s2,0x3f68
bfc003d0:	16120586 	bne	s0,s2,bfc019ec <inst_error>
bfc003d4:	00000000 	nop
bfc003d8:	3c098d75 	lui	t1,0x8d75
bfc003dc:	3529b188 	ori	t1,t1,0xb188
bfc003e0:	3c088010 	lui	t0,0x8010
bfc003e4:	35080a20 	ori	t0,t0,0xa20
bfc003e8:	340ad0da 	li	t2,0xd0da
bfc003ec:	340cd0d8 	li	t4,0xd0d8
bfc003f0:	3c0de249 	lui	t5,0xe249
bfc003f4:	35adae52 	ori	t5,t5,0xae52
bfc003f8:	3c010001 	lui	at,0x1
bfc003fc:	00280821 	addu	at,at,t0
bfc00400:	ac2dd0d8 	sw	t5,-12072(at)
bfc00404:	3c010001 	lui	at,0x1
bfc00408:	00280821 	addu	at,at,t0
bfc0040c:	a429d0da 	sh	t1,-12070(at)
bfc00410:	3c100001 	lui	s0,0x1
bfc00414:	02088021 	addu	s0,s0,t0
bfc00418:	8e10d0d8 	lw	s0,-12072(s0)
bfc0041c:	3c12b188 	lui	s2,0xb188
bfc00420:	3652ae52 	ori	s2,s2,0xae52
bfc00424:	16120571 	bne	s0,s2,bfc019ec <inst_error>
bfc00428:	00000000 	nop
bfc0042c:	3c094ad4 	lui	t1,0x4ad4
bfc00430:	35294d00 	ori	t1,t1,0x4d00
bfc00434:	3c088010 	lui	t0,0x8010
bfc00438:	35089cf0 	ori	t0,t0,0x9cf0
bfc0043c:	240a3ecc 	li	t2,16076
bfc00440:	240c3ecc 	li	t4,16076
bfc00444:	3c0daa82 	lui	t5,0xaa82
bfc00448:	35ad73e0 	ori	t5,t5,0x73e0
bfc0044c:	ad0d3ecc 	sw	t5,16076(t0)
bfc00450:	a5093ecc 	sh	t1,16076(t0)
bfc00454:	8d103ecc 	lw	s0,16076(t0)
bfc00458:	3c12aa82 	lui	s2,0xaa82
bfc0045c:	36524d00 	ori	s2,s2,0x4d00
bfc00460:	16120562 	bne	s0,s2,bfc019ec <inst_error>
bfc00464:	00000000 	nop
bfc00468:	3c09c3e1 	lui	t1,0xc3e1
bfc0046c:	3529f538 	ori	t1,t1,0xf538
bfc00470:	3c088010 	lui	t0,0x8010
bfc00474:	350833d4 	ori	t0,t0,0x33d4
bfc00478:	240a6888 	li	t2,26760
bfc0047c:	240c6888 	li	t4,26760
bfc00480:	3c0d98dd 	lui	t5,0x98dd
bfc00484:	35ad412e 	ori	t5,t5,0x412e
bfc00488:	ad0d6888 	sw	t5,26760(t0)
bfc0048c:	a5096888 	sh	t1,26760(t0)
bfc00490:	8d106888 	lw	s0,26760(t0)
bfc00494:	3c1298dd 	lui	s2,0x98dd
bfc00498:	3652f538 	ori	s2,s2,0xf538
bfc0049c:	16120553 	bne	s0,s2,bfc019ec <inst_error>
bfc004a0:	00000000 	nop
bfc004a4:	3c092612 	lui	t1,0x2612
bfc004a8:	3529cae7 	ori	t1,t1,0xcae7
bfc004ac:	3c088010 	lui	t0,0x8010
bfc004b0:	3508910c 	ori	t0,t0,0x910c
bfc004b4:	240a658a 	li	t2,25994
bfc004b8:	240c6588 	li	t4,25992
bfc004bc:	3c0df705 	lui	t5,0xf705
bfc004c0:	35ad1708 	ori	t5,t5,0x1708
bfc004c4:	ad0d6588 	sw	t5,25992(t0)
bfc004c8:	a509658a 	sh	t1,25994(t0)
bfc004cc:	8d106588 	lw	s0,25992(t0)
bfc004d0:	3c12cae7 	lui	s2,0xcae7
bfc004d4:	36521708 	ori	s2,s2,0x1708
bfc004d8:	16120544 	bne	s0,s2,bfc019ec <inst_error>
bfc004dc:	00000000 	nop
bfc004e0:	3c09d674 	lui	t1,0xd674
bfc004e4:	3529f530 	ori	t1,t1,0xf530
bfc004e8:	3c088010 	lui	t0,0x8010
bfc004ec:	350843f4 	ori	t0,t0,0x43f4
bfc004f0:	240a7ae0 	li	t2,31456
bfc004f4:	240c7ae0 	li	t4,31456
bfc004f8:	3c0df649 	lui	t5,0xf649
bfc004fc:	35adb700 	ori	t5,t5,0xb700
bfc00500:	ad0d7ae0 	sw	t5,31456(t0)
bfc00504:	a5097ae0 	sh	t1,31456(t0)
bfc00508:	8d107ae0 	lw	s0,31456(t0)
bfc0050c:	3c12f649 	lui	s2,0xf649
bfc00510:	3652f530 	ori	s2,s2,0xf530
bfc00514:	16120535 	bne	s0,s2,bfc019ec <inst_error>
bfc00518:	00000000 	nop
bfc0051c:	3c0923b1 	lui	t1,0x23b1
bfc00520:	3529f91c 	ori	t1,t1,0xf91c
bfc00524:	3c088010 	lui	t0,0x8010
bfc00528:	35082b58 	ori	t0,t0,0x2b58
bfc0052c:	340ac826 	li	t2,0xc826
bfc00530:	340cc824 	li	t4,0xc824
bfc00534:	3c0d0080 	lui	t5,0x80
bfc00538:	35ad4f26 	ori	t5,t5,0x4f26
bfc0053c:	3c010001 	lui	at,0x1
bfc00540:	00280821 	addu	at,at,t0
bfc00544:	ac2dc824 	sw	t5,-14300(at)
bfc00548:	3c010001 	lui	at,0x1
bfc0054c:	00280821 	addu	at,at,t0
bfc00550:	a429c826 	sh	t1,-14298(at)
bfc00554:	3c100001 	lui	s0,0x1
bfc00558:	02088021 	addu	s0,s0,t0
bfc0055c:	8e10c824 	lw	s0,-14300(s0)
bfc00560:	3c12f91c 	lui	s2,0xf91c
bfc00564:	36524f26 	ori	s2,s2,0x4f26
bfc00568:	16120520 	bne	s0,s2,bfc019ec <inst_error>
bfc0056c:	00000000 	nop
bfc00570:	3c09b7b6 	lui	t1,0xb7b6
bfc00574:	3529d134 	ori	t1,t1,0xd134
bfc00578:	3c088010 	lui	t0,0x8010
bfc0057c:	3508065c 	ori	t0,t0,0x65c
bfc00580:	240a1508 	li	t2,5384
bfc00584:	240c1508 	li	t4,5384
bfc00588:	3c0d82ca 	lui	t5,0x82ca
bfc0058c:	35ad8844 	ori	t5,t5,0x8844
bfc00590:	ad0d1508 	sw	t5,5384(t0)
bfc00594:	a5091508 	sh	t1,5384(t0)
bfc00598:	8d101508 	lw	s0,5384(t0)
bfc0059c:	3c1282ca 	lui	s2,0x82ca
bfc005a0:	3652d134 	ori	s2,s2,0xd134
bfc005a4:	16120511 	bne	s0,s2,bfc019ec <inst_error>
bfc005a8:	00000000 	nop
bfc005ac:	3c09c125 	lui	t1,0xc125
bfc005b0:	35290920 	ori	t1,t1,0x920
bfc005b4:	3c088010 	lui	t0,0x8010
bfc005b8:	35084370 	ori	t0,t0,0x4370
bfc005bc:	340a8a92 	li	t2,0x8a92
bfc005c0:	340c8a90 	li	t4,0x8a90
bfc005c4:	3c0d74b5 	lui	t5,0x74b5
bfc005c8:	35ad6c00 	ori	t5,t5,0x6c00
bfc005cc:	3c010001 	lui	at,0x1
bfc005d0:	00280821 	addu	at,at,t0
bfc005d4:	ac2d8a90 	sw	t5,-30064(at)
bfc005d8:	3c010001 	lui	at,0x1
bfc005dc:	00280821 	addu	at,at,t0
bfc005e0:	a4298a92 	sh	t1,-30062(at)
bfc005e4:	3c100001 	lui	s0,0x1
bfc005e8:	02088021 	addu	s0,s0,t0
bfc005ec:	8e108a90 	lw	s0,-30064(s0)
bfc005f0:	3c120920 	lui	s2,0x920
bfc005f4:	36526c00 	ori	s2,s2,0x6c00
bfc005f8:	161204fc 	bne	s0,s2,bfc019ec <inst_error>
bfc005fc:	00000000 	nop
bfc00600:	3c09d537 	lui	t1,0xd537
bfc00604:	35297a44 	ori	t1,t1,0x7a44
bfc00608:	3c088010 	lui	t0,0x8010
bfc0060c:	35080144 	ori	t0,t0,0x144
bfc00610:	340ac640 	li	t2,0xc640
bfc00614:	340cc640 	li	t4,0xc640
bfc00618:	3c0db99f 	lui	t5,0xb99f
bfc0061c:	35adef40 	ori	t5,t5,0xef40
bfc00620:	3c010001 	lui	at,0x1
bfc00624:	00280821 	addu	at,at,t0
bfc00628:	ac2dc640 	sw	t5,-14784(at)
bfc0062c:	3c010001 	lui	at,0x1
bfc00630:	00280821 	addu	at,at,t0
bfc00634:	a429c640 	sh	t1,-14784(at)
bfc00638:	3c100001 	lui	s0,0x1
bfc0063c:	02088021 	addu	s0,s0,t0
bfc00640:	8e10c640 	lw	s0,-14784(s0)
bfc00644:	3c12b99f 	lui	s2,0xb99f
bfc00648:	36527a44 	ori	s2,s2,0x7a44
bfc0064c:	161204e7 	bne	s0,s2,bfc019ec <inst_error>
bfc00650:	00000000 	nop
bfc00654:	3c09868b 	lui	t1,0x868b
bfc00658:	35291930 	ori	t1,t1,0x1930
bfc0065c:	3c088010 	lui	t0,0x8010
bfc00660:	35085920 	ori	t0,t0,0x5920
bfc00664:	240a3fd6 	li	t2,16342
bfc00668:	240c3fd4 	li	t4,16340
bfc0066c:	3c0dbf9b 	lui	t5,0xbf9b
bfc00670:	35ad8ef0 	ori	t5,t5,0x8ef0
bfc00674:	ad0d3fd4 	sw	t5,16340(t0)
bfc00678:	a5093fd6 	sh	t1,16342(t0)
bfc0067c:	8d103fd4 	lw	s0,16340(t0)
bfc00680:	3c121930 	lui	s2,0x1930
bfc00684:	36528ef0 	ori	s2,s2,0x8ef0
bfc00688:	161204d8 	bne	s0,s2,bfc019ec <inst_error>
bfc0068c:	00000000 	nop
bfc00690:	3c097d70 	lui	t1,0x7d70
bfc00694:	352908a0 	ori	t1,t1,0x8a0
bfc00698:	3c088010 	lui	t0,0x8010
bfc0069c:	35082020 	ori	t0,t0,0x2020
bfc006a0:	240a4cc0 	li	t2,19648
bfc006a4:	240c4cc0 	li	t4,19648
bfc006a8:	3c0d7da1 	lui	t5,0x7da1
bfc006ac:	35adadef 	ori	t5,t5,0xadef
bfc006b0:	ad0d4cc0 	sw	t5,19648(t0)
bfc006b4:	a5094cc0 	sh	t1,19648(t0)
bfc006b8:	8d104cc0 	lw	s0,19648(t0)
bfc006bc:	3c127da1 	lui	s2,0x7da1
bfc006c0:	365208a0 	ori	s2,s2,0x8a0
bfc006c4:	161204c9 	bne	s0,s2,bfc019ec <inst_error>
bfc006c8:	00000000 	nop
bfc006cc:	3c092140 	lui	t1,0x2140
bfc006d0:	352970c6 	ori	t1,t1,0x70c6
bfc006d4:	3c088010 	lui	t0,0x8010
bfc006d8:	35080b58 	ori	t0,t0,0xb58
bfc006dc:	340ac83c 	li	t2,0xc83c
bfc006e0:	340cc83c 	li	t4,0xc83c
bfc006e4:	3c0df233 	lui	t5,0xf233
bfc006e8:	35ad47d4 	ori	t5,t5,0x47d4
bfc006ec:	3c010001 	lui	at,0x1
bfc006f0:	00280821 	addu	at,at,t0
bfc006f4:	ac2dc83c 	sw	t5,-14276(at)
bfc006f8:	3c010001 	lui	at,0x1
bfc006fc:	00280821 	addu	at,at,t0
bfc00700:	a429c83c 	sh	t1,-14276(at)
bfc00704:	3c100001 	lui	s0,0x1
bfc00708:	02088021 	addu	s0,s0,t0
bfc0070c:	8e10c83c 	lw	s0,-14276(s0)
bfc00710:	3c12f233 	lui	s2,0xf233
bfc00714:	365270c6 	ori	s2,s2,0x70c6
bfc00718:	161204b4 	bne	s0,s2,bfc019ec <inst_error>
bfc0071c:	00000000 	nop
bfc00720:	3c098937 	lui	t1,0x8937
bfc00724:	352935c8 	ori	t1,t1,0x35c8
bfc00728:	3c088010 	lui	t0,0x8010
bfc0072c:	350823a4 	ori	t0,t0,0x23a4
bfc00730:	240a5048 	li	t2,20552
bfc00734:	240c5048 	li	t4,20552
bfc00738:	3c0db54f 	lui	t5,0xb54f
bfc0073c:	35ad5ca2 	ori	t5,t5,0x5ca2
bfc00740:	ad0d5048 	sw	t5,20552(t0)
bfc00744:	a5095048 	sh	t1,20552(t0)
bfc00748:	8d105048 	lw	s0,20552(t0)
bfc0074c:	3c12b54f 	lui	s2,0xb54f
bfc00750:	365235c8 	ori	s2,s2,0x35c8
bfc00754:	161204a5 	bne	s0,s2,bfc019ec <inst_error>
bfc00758:	00000000 	nop
bfc0075c:	3c090121 	lui	t1,0x121
bfc00760:	3529c94c 	ori	t1,t1,0xc94c
bfc00764:	3c088010 	lui	t0,0x8010
bfc00768:	350824b8 	ori	t0,t0,0x24b8
bfc0076c:	240a2ad0 	li	t2,10960
bfc00770:	240c2ad0 	li	t4,10960
bfc00774:	3c0df829 	lui	t5,0xf829
bfc00778:	35ad69ad 	ori	t5,t5,0x69ad
bfc0077c:	ad0d2ad0 	sw	t5,10960(t0)
bfc00780:	a5092ad0 	sh	t1,10960(t0)
bfc00784:	8d102ad0 	lw	s0,10960(t0)
bfc00788:	3c12f829 	lui	s2,0xf829
bfc0078c:	3652c94c 	ori	s2,s2,0xc94c
bfc00790:	16120496 	bne	s0,s2,bfc019ec <inst_error>
bfc00794:	00000000 	nop
bfc00798:	3c0950bc 	lui	t1,0x50bc
bfc0079c:	35299348 	ori	t1,t1,0x9348
bfc007a0:	3c088010 	lui	t0,0x8010
bfc007a4:	35081584 	ori	t0,t0,0x1584
bfc007a8:	240a4ca8 	li	t2,19624
bfc007ac:	240c4ca8 	li	t4,19624
bfc007b0:	3c0deca9 	lui	t5,0xeca9
bfc007b4:	35ad6c00 	ori	t5,t5,0x6c00
bfc007b8:	ad0d4ca8 	sw	t5,19624(t0)
bfc007bc:	a5094ca8 	sh	t1,19624(t0)
bfc007c0:	8d104ca8 	lw	s0,19624(t0)
bfc007c4:	3c12eca9 	lui	s2,0xeca9
bfc007c8:	36529348 	ori	s2,s2,0x9348
bfc007cc:	16120487 	bne	s0,s2,bfc019ec <inst_error>
bfc007d0:	00000000 	nop
bfc007d4:	3c09097e 	lui	t1,0x97e
bfc007d8:	352993b8 	ori	t1,t1,0x93b8
bfc007dc:	3c088010 	lui	t0,0x8010
bfc007e0:	35081a8c 	ori	t0,t0,0x1a8c
bfc007e4:	240a514c 	li	t2,20812
bfc007e8:	240c514c 	li	t4,20812
bfc007ec:	3c0db731 	lui	t5,0xb731
bfc007f0:	35ade211 	ori	t5,t5,0xe211
bfc007f4:	ad0d514c 	sw	t5,20812(t0)
bfc007f8:	a509514c 	sh	t1,20812(t0)
bfc007fc:	8d10514c 	lw	s0,20812(t0)
bfc00800:	3c12b731 	lui	s2,0xb731
bfc00804:	365293b8 	ori	s2,s2,0x93b8
bfc00808:	16120478 	bne	s0,s2,bfc019ec <inst_error>
bfc0080c:	00000000 	nop
bfc00810:	3c095f45 	lui	t1,0x5f45
bfc00814:	3529347c 	ori	t1,t1,0x347c
bfc00818:	3c088010 	lui	t0,0x8010
bfc0081c:	350854d8 	ori	t0,t0,0x54d8
bfc00820:	240a4284 	li	t2,17028
bfc00824:	240c4284 	li	t4,17028
bfc00828:	3c0de4e4 	lui	t5,0xe4e4
bfc0082c:	35ad2ad0 	ori	t5,t5,0x2ad0
bfc00830:	ad0d4284 	sw	t5,17028(t0)
bfc00834:	a5094284 	sh	t1,17028(t0)
bfc00838:	8d104284 	lw	s0,17028(t0)
bfc0083c:	3c12e4e4 	lui	s2,0xe4e4
bfc00840:	3652347c 	ori	s2,s2,0x347c
bfc00844:	16120469 	bne	s0,s2,bfc019ec <inst_error>
bfc00848:	00000000 	nop
bfc0084c:	3c095e83 	lui	t1,0x5e83
bfc00850:	3529e8d0 	ori	t1,t1,0xe8d0
bfc00854:	3c088010 	lui	t0,0x8010
bfc00858:	350828c0 	ori	t0,t0,0x28c0
bfc0085c:	340ab0ca 	li	t2,0xb0ca
bfc00860:	340cb0c8 	li	t4,0xb0c8
bfc00864:	3c0d4aa5 	lui	t5,0x4aa5
bfc00868:	35adc058 	ori	t5,t5,0xc058
bfc0086c:	3c010001 	lui	at,0x1
bfc00870:	00280821 	addu	at,at,t0
bfc00874:	ac2db0c8 	sw	t5,-20280(at)
bfc00878:	3c010001 	lui	at,0x1
bfc0087c:	00280821 	addu	at,at,t0
bfc00880:	a429b0ca 	sh	t1,-20278(at)
bfc00884:	3c100001 	lui	s0,0x1
bfc00888:	02088021 	addu	s0,s0,t0
bfc0088c:	8e10b0c8 	lw	s0,-20280(s0)
bfc00890:	3c12e8d0 	lui	s2,0xe8d0
bfc00894:	3652c058 	ori	s2,s2,0xc058
bfc00898:	16120454 	bne	s0,s2,bfc019ec <inst_error>
bfc0089c:	00000000 	nop
bfc008a0:	3c099492 	lui	t1,0x9492
bfc008a4:	352920de 	ori	t1,t1,0x20de
bfc008a8:	3c088010 	lui	t0,0x8010
bfc008ac:	3508eb88 	ori	t0,t0,0xeb88
bfc008b0:	240a1084 	li	t2,4228
bfc008b4:	240c1084 	li	t4,4228
bfc008b8:	3c0d1054 	lui	t5,0x1054
bfc008bc:	35ad6b60 	ori	t5,t5,0x6b60
bfc008c0:	ad0d1084 	sw	t5,4228(t0)
bfc008c4:	a5091084 	sh	t1,4228(t0)
bfc008c8:	8d101084 	lw	s0,4228(t0)
bfc008cc:	3c121054 	lui	s2,0x1054
bfc008d0:	365220de 	ori	s2,s2,0x20de
bfc008d4:	16120445 	bne	s0,s2,bfc019ec <inst_error>
bfc008d8:	00000000 	nop
bfc008dc:	3c09ac9f 	lui	t1,0xac9f
bfc008e0:	35291540 	ori	t1,t1,0x1540
bfc008e4:	3c088010 	lui	t0,0x8010
bfc008e8:	35088964 	ori	t0,t0,0x8964
bfc008ec:	240a3c7e 	li	t2,15486
bfc008f0:	240c3c7c 	li	t4,15484
bfc008f4:	3c0d54c8 	lui	t5,0x54c8
bfc008f8:	35ad7bb0 	ori	t5,t5,0x7bb0
bfc008fc:	ad0d3c7c 	sw	t5,15484(t0)
bfc00900:	a5093c7e 	sh	t1,15486(t0)
bfc00904:	8d103c7c 	lw	s0,15484(t0)
bfc00908:	3c121540 	lui	s2,0x1540
bfc0090c:	36527bb0 	ori	s2,s2,0x7bb0
bfc00910:	16120436 	bne	s0,s2,bfc019ec <inst_error>
bfc00914:	00000000 	nop
bfc00918:	3c097623 	lui	t1,0x7623
bfc0091c:	35291aa0 	ori	t1,t1,0x1aa0
bfc00920:	3c088010 	lui	t0,0x8010
bfc00924:	3508a4a4 	ori	t0,t0,0xa4a4
bfc00928:	240a311a 	li	t2,12570
bfc0092c:	240c3118 	li	t4,12568
bfc00930:	3c0d2061 	lui	t5,0x2061
bfc00934:	35ad2be0 	ori	t5,t5,0x2be0
bfc00938:	ad0d3118 	sw	t5,12568(t0)
bfc0093c:	a509311a 	sh	t1,12570(t0)
bfc00940:	8d103118 	lw	s0,12568(t0)
bfc00944:	3c121aa0 	lui	s2,0x1aa0
bfc00948:	36522be0 	ori	s2,s2,0x2be0
bfc0094c:	16120427 	bne	s0,s2,bfc019ec <inst_error>
bfc00950:	00000000 	nop
bfc00954:	3c095976 	lui	t1,0x5976
bfc00958:	3529c160 	ori	t1,t1,0xc160
bfc0095c:	3c088010 	lui	t0,0x8010
bfc00960:	3508c7c8 	ori	t0,t0,0xc7c8
bfc00964:	240a00d2 	li	t2,210
bfc00968:	240c00d0 	li	t4,208
bfc0096c:	3c0d2393 	lui	t5,0x2393
bfc00970:	35ad8928 	ori	t5,t5,0x8928
bfc00974:	ad0d00d0 	sw	t5,208(t0)
bfc00978:	a50900d2 	sh	t1,210(t0)
bfc0097c:	8d1000d0 	lw	s0,208(t0)
bfc00980:	3c12c160 	lui	s2,0xc160
bfc00984:	36528928 	ori	s2,s2,0x8928
bfc00988:	16120418 	bne	s0,s2,bfc019ec <inst_error>
bfc0098c:	00000000 	nop
bfc00990:	3c09f84b 	lui	t1,0xf84b
bfc00994:	3529893f 	ori	t1,t1,0x893f
bfc00998:	3c088010 	lui	t0,0x8010
bfc0099c:	350812f8 	ori	t0,t0,0x12f8
bfc009a0:	240a31ee 	li	t2,12782
bfc009a4:	240c31ec 	li	t4,12780
bfc009a8:	3c0d042a 	lui	t5,0x42a
bfc009ac:	35ad28c0 	ori	t5,t5,0x28c0
bfc009b0:	ad0d31ec 	sw	t5,12780(t0)
bfc009b4:	a50931ee 	sh	t1,12782(t0)
bfc009b8:	8d1031ec 	lw	s0,12780(t0)
bfc009bc:	3c12893f 	lui	s2,0x893f
bfc009c0:	365228c0 	ori	s2,s2,0x28c0
bfc009c4:	16120409 	bne	s0,s2,bfc019ec <inst_error>
bfc009c8:	00000000 	nop
bfc009cc:	3c090630 	lui	t1,0x630
bfc009d0:	3529b104 	ori	t1,t1,0xb104
bfc009d4:	3c088010 	lui	t0,0x8010
bfc009d8:	35084f80 	ori	t0,t0,0x4f80
bfc009dc:	340aadbc 	li	t2,0xadbc
bfc009e0:	340cadbc 	li	t4,0xadbc
bfc009e4:	3c0d4b50 	lui	t5,0x4b50
bfc009e8:	35ad9c68 	ori	t5,t5,0x9c68
bfc009ec:	3c010001 	lui	at,0x1
bfc009f0:	00280821 	addu	at,at,t0
bfc009f4:	ac2dadbc 	sw	t5,-21060(at)
bfc009f8:	3c010001 	lui	at,0x1
bfc009fc:	00280821 	addu	at,at,t0
bfc00a00:	a429adbc 	sh	t1,-21060(at)
bfc00a04:	3c100001 	lui	s0,0x1
bfc00a08:	02088021 	addu	s0,s0,t0
bfc00a0c:	8e10adbc 	lw	s0,-21060(s0)
bfc00a10:	3c124b50 	lui	s2,0x4b50
bfc00a14:	3652b104 	ori	s2,s2,0xb104
bfc00a18:	161203f4 	bne	s0,s2,bfc019ec <inst_error>
bfc00a1c:	00000000 	nop
bfc00a20:	3c098943 	lui	t1,0x8943
bfc00a24:	3529216c 	ori	t1,t1,0x216c
bfc00a28:	3c088011 	lui	t0,0x8011
bfc00a2c:	340a84f0 	li	t2,0x84f0
bfc00a30:	340c84f0 	li	t4,0x84f0
bfc00a34:	3c0d7ea7 	lui	t5,0x7ea7
bfc00a38:	35ad4858 	ori	t5,t5,0x4858
bfc00a3c:	3c010001 	lui	at,0x1
bfc00a40:	00280821 	addu	at,at,t0
bfc00a44:	ac2d84f0 	sw	t5,-31504(at)
bfc00a48:	3c010001 	lui	at,0x1
bfc00a4c:	00280821 	addu	at,at,t0
bfc00a50:	a42984f0 	sh	t1,-31504(at)
bfc00a54:	3c100001 	lui	s0,0x1
bfc00a58:	02088021 	addu	s0,s0,t0
bfc00a5c:	8e1084f0 	lw	s0,-31504(s0)
bfc00a60:	3c127ea7 	lui	s2,0x7ea7
bfc00a64:	3652216c 	ori	s2,s2,0x216c
bfc00a68:	161203e0 	bne	s0,s2,bfc019ec <inst_error>
bfc00a6c:	00000000 	nop
bfc00a70:	3c09fc37 	lui	t1,0xfc37
bfc00a74:	35290cd0 	ori	t1,t1,0xcd0
bfc00a78:	3c088011 	lui	t0,0x8011
bfc00a7c:	240a5b62 	li	t2,23394
bfc00a80:	240c5b60 	li	t4,23392
bfc00a84:	3c0dfd4d 	lui	t5,0xfd4d
bfc00a88:	35adfbaa 	ori	t5,t5,0xfbaa
bfc00a8c:	ad0d5b60 	sw	t5,23392(t0)
bfc00a90:	a5095b62 	sh	t1,23394(t0)
bfc00a94:	8d105b60 	lw	s0,23392(t0)
bfc00a98:	3c120cd0 	lui	s2,0xcd0
bfc00a9c:	3652fbaa 	ori	s2,s2,0xfbaa
bfc00aa0:	161203d2 	bne	s0,s2,bfc019ec <inst_error>
bfc00aa4:	00000000 	nop
bfc00aa8:	3c09ba1d 	lui	t1,0xba1d
bfc00aac:	352906fc 	ori	t1,t1,0x6fc
bfc00ab0:	3c088011 	lui	t0,0x8011
bfc00ab4:	240a5848 	li	t2,22600
bfc00ab8:	240c5848 	li	t4,22600
bfc00abc:	3c0def7b 	lui	t5,0xef7b
bfc00ac0:	35ad46c8 	ori	t5,t5,0x46c8
bfc00ac4:	ad0d5848 	sw	t5,22600(t0)
bfc00ac8:	a5095848 	sh	t1,22600(t0)
bfc00acc:	8d105848 	lw	s0,22600(t0)
bfc00ad0:	3c12ef7b 	lui	s2,0xef7b
bfc00ad4:	365206fc 	ori	s2,s2,0x6fc
bfc00ad8:	161203c4 	bne	s0,s2,bfc019ec <inst_error>
bfc00adc:	00000000 	nop
bfc00ae0:	3c0995fa 	lui	t1,0x95fa
bfc00ae4:	3529ec5f 	ori	t1,t1,0xec5f
bfc00ae8:	3c088011 	lui	t0,0x8011
bfc00aec:	240a02c0 	li	t2,704
bfc00af0:	240c02c0 	li	t4,704
bfc00af4:	3c0d151b 	lui	t5,0x151b
bfc00af8:	35ad86df 	ori	t5,t5,0x86df
bfc00afc:	ad0d02c0 	sw	t5,704(t0)
bfc00b00:	a50902c0 	sh	t1,704(t0)
bfc00b04:	8d1002c0 	lw	s0,704(t0)
bfc00b08:	3c12151b 	lui	s2,0x151b
bfc00b0c:	3652ec5f 	ori	s2,s2,0xec5f
bfc00b10:	161203b6 	bne	s0,s2,bfc019ec <inst_error>
bfc00b14:	00000000 	nop
bfc00b18:	3c0968ff 	lui	t1,0x68ff
bfc00b1c:	35297500 	ori	t1,t1,0x7500
bfc00b20:	3c088011 	lui	t0,0x8011
bfc00b24:	240a51ec 	li	t2,20972
bfc00b28:	240c51ec 	li	t4,20972
bfc00b2c:	3c0d1266 	lui	t5,0x1266
bfc00b30:	35ad4cbb 	ori	t5,t5,0x4cbb
bfc00b34:	ad0d51ec 	sw	t5,20972(t0)
bfc00b38:	a50951ec 	sh	t1,20972(t0)
bfc00b3c:	8d1051ec 	lw	s0,20972(t0)
bfc00b40:	3c121266 	lui	s2,0x1266
bfc00b44:	36527500 	ori	s2,s2,0x7500
bfc00b48:	161203a8 	bne	s0,s2,bfc019ec <inst_error>
bfc00b4c:	00000000 	nop
bfc00b50:	3c097abd 	lui	t1,0x7abd
bfc00b54:	3529fe92 	ori	t1,t1,0xfe92
bfc00b58:	3c088011 	lui	t0,0x8011
bfc00b5c:	240a010c 	li	t2,268
bfc00b60:	240c010c 	li	t4,268
bfc00b64:	3c0d7383 	lui	t5,0x7383
bfc00b68:	35ad76f0 	ori	t5,t5,0x76f0
bfc00b6c:	ad0d010c 	sw	t5,268(t0)
bfc00b70:	a509010c 	sh	t1,268(t0)
bfc00b74:	8d10010c 	lw	s0,268(t0)
bfc00b78:	3c127383 	lui	s2,0x7383
bfc00b7c:	3652fe92 	ori	s2,s2,0xfe92
bfc00b80:	1612039a 	bne	s0,s2,bfc019ec <inst_error>
bfc00b84:	00000000 	nop
bfc00b88:	3c09eedf 	lui	t1,0xeedf
bfc00b8c:	35291820 	ori	t1,t1,0x1820
bfc00b90:	3c088011 	lui	t0,0x8011
bfc00b94:	340abedc 	li	t2,0xbedc
bfc00b98:	340cbedc 	li	t4,0xbedc
bfc00b9c:	3c0da818 	lui	t5,0xa818
bfc00ba0:	35ad59c0 	ori	t5,t5,0x59c0
bfc00ba4:	3c010001 	lui	at,0x1
bfc00ba8:	00280821 	addu	at,at,t0
bfc00bac:	ac2dbedc 	sw	t5,-16676(at)
bfc00bb0:	3c010001 	lui	at,0x1
bfc00bb4:	00280821 	addu	at,at,t0
bfc00bb8:	a429bedc 	sh	t1,-16676(at)
bfc00bbc:	3c100001 	lui	s0,0x1
bfc00bc0:	02088021 	addu	s0,s0,t0
bfc00bc4:	8e10bedc 	lw	s0,-16676(s0)
bfc00bc8:	3c12a818 	lui	s2,0xa818
bfc00bcc:	36521820 	ori	s2,s2,0x1820
bfc00bd0:	16120386 	bne	s0,s2,bfc019ec <inst_error>
bfc00bd4:	00000000 	nop
bfc00bd8:	3c09b775 	lui	t1,0xb775
bfc00bdc:	35291ea0 	ori	t1,t1,0x1ea0
bfc00be0:	3c088011 	lui	t0,0x8011
bfc00be4:	340ac894 	li	t2,0xc894
bfc00be8:	340cc894 	li	t4,0xc894
bfc00bec:	3c0dbf96 	lui	t5,0xbf96
bfc00bf0:	35ad25c0 	ori	t5,t5,0x25c0
bfc00bf4:	3c010001 	lui	at,0x1
bfc00bf8:	00280821 	addu	at,at,t0
bfc00bfc:	ac2dc894 	sw	t5,-14188(at)
bfc00c00:	3c010001 	lui	at,0x1
bfc00c04:	00280821 	addu	at,at,t0
bfc00c08:	a429c894 	sh	t1,-14188(at)
bfc00c0c:	3c100001 	lui	s0,0x1
bfc00c10:	02088021 	addu	s0,s0,t0
bfc00c14:	8e10c894 	lw	s0,-14188(s0)
bfc00c18:	3c12bf96 	lui	s2,0xbf96
bfc00c1c:	36521ea0 	ori	s2,s2,0x1ea0
bfc00c20:	16120372 	bne	s0,s2,bfc019ec <inst_error>
bfc00c24:	00000000 	nop
bfc00c28:	3c09aea1 	lui	t1,0xaea1
bfc00c2c:	35290357 	ori	t1,t1,0x357
bfc00c30:	3c088011 	lui	t0,0x8011
bfc00c34:	340ae5e8 	li	t2,0xe5e8
bfc00c38:	340ce5e8 	li	t4,0xe5e8
bfc00c3c:	3c0d8a0b 	lui	t5,0x8a0b
bfc00c40:	35ad0e78 	ori	t5,t5,0xe78
bfc00c44:	3c010001 	lui	at,0x1
bfc00c48:	00280821 	addu	at,at,t0
bfc00c4c:	ac2de5e8 	sw	t5,-6680(at)
bfc00c50:	3c010001 	lui	at,0x1
bfc00c54:	00280821 	addu	at,at,t0
bfc00c58:	a429e5e8 	sh	t1,-6680(at)
bfc00c5c:	3c100001 	lui	s0,0x1
bfc00c60:	02088021 	addu	s0,s0,t0
bfc00c64:	8e10e5e8 	lw	s0,-6680(s0)
bfc00c68:	3c128a0b 	lui	s2,0x8a0b
bfc00c6c:	36520357 	ori	s2,s2,0x357
bfc00c70:	1612035e 	bne	s0,s2,bfc019ec <inst_error>
bfc00c74:	00000000 	nop
bfc00c78:	3c092552 	lui	t1,0x2552
bfc00c7c:	3529c584 	ori	t1,t1,0xc584
bfc00c80:	3c088011 	lui	t0,0x8011
bfc00c84:	340a9968 	li	t2,0x9968
bfc00c88:	340c9968 	li	t4,0x9968
bfc00c8c:	3c0d38c0 	lui	t5,0x38c0
bfc00c90:	35adfeb0 	ori	t5,t5,0xfeb0
bfc00c94:	3c010001 	lui	at,0x1
bfc00c98:	00280821 	addu	at,at,t0
bfc00c9c:	ac2d9968 	sw	t5,-26264(at)
bfc00ca0:	3c010001 	lui	at,0x1
bfc00ca4:	00280821 	addu	at,at,t0
bfc00ca8:	a4299968 	sh	t1,-26264(at)
bfc00cac:	3c100001 	lui	s0,0x1
bfc00cb0:	02088021 	addu	s0,s0,t0
bfc00cb4:	8e109968 	lw	s0,-26264(s0)
bfc00cb8:	3c1238c0 	lui	s2,0x38c0
bfc00cbc:	3652c584 	ori	s2,s2,0xc584
bfc00cc0:	1612034a 	bne	s0,s2,bfc019ec <inst_error>
bfc00cc4:	00000000 	nop
bfc00cc8:	3c09e427 	lui	t1,0xe427
bfc00ccc:	35299110 	ori	t1,t1,0x9110
bfc00cd0:	3c088011 	lui	t0,0x8011
bfc00cd4:	340aa6a0 	li	t2,0xa6a0
bfc00cd8:	340ca6a0 	li	t4,0xa6a0
bfc00cdc:	3c0d09de 	lui	t5,0x9de
bfc00ce0:	35ad6ee8 	ori	t5,t5,0x6ee8
bfc00ce4:	3c010001 	lui	at,0x1
bfc00ce8:	00280821 	addu	at,at,t0
bfc00cec:	ac2da6a0 	sw	t5,-22880(at)
bfc00cf0:	3c010001 	lui	at,0x1
bfc00cf4:	00280821 	addu	at,at,t0
bfc00cf8:	a429a6a0 	sh	t1,-22880(at)
bfc00cfc:	3c100001 	lui	s0,0x1
bfc00d00:	02088021 	addu	s0,s0,t0
bfc00d04:	8e10a6a0 	lw	s0,-22880(s0)
bfc00d08:	3c1209de 	lui	s2,0x9de
bfc00d0c:	36529110 	ori	s2,s2,0x9110
bfc00d10:	16120336 	bne	s0,s2,bfc019ec <inst_error>
bfc00d14:	00000000 	nop
bfc00d18:	3c098950 	lui	t1,0x8950
bfc00d1c:	3529f9f6 	ori	t1,t1,0xf9f6
bfc00d20:	3c088011 	lui	t0,0x8011
bfc00d24:	240a3408 	li	t2,13320
bfc00d28:	240c3408 	li	t4,13320
bfc00d2c:	3c0dffeb 	lui	t5,0xffeb
bfc00d30:	35ad3340 	ori	t5,t5,0x3340
bfc00d34:	ad0d3408 	sw	t5,13320(t0)
bfc00d38:	a5093408 	sh	t1,13320(t0)
bfc00d3c:	8d103408 	lw	s0,13320(t0)
bfc00d40:	3c12ffeb 	lui	s2,0xffeb
bfc00d44:	3652f9f6 	ori	s2,s2,0xf9f6
bfc00d48:	16120328 	bne	s0,s2,bfc019ec <inst_error>
bfc00d4c:	00000000 	nop
bfc00d50:	3c095c89 	lui	t1,0x5c89
bfc00d54:	3529cd7a 	ori	t1,t1,0xcd7a
bfc00d58:	3c088011 	lui	t0,0x8011
bfc00d5c:	340a8c00 	li	t2,0x8c00
bfc00d60:	340c8c00 	li	t4,0x8c00
bfc00d64:	3c0d8f70 	lui	t5,0x8f70
bfc00d68:	35ad24be 	ori	t5,t5,0x24be
bfc00d6c:	3c010001 	lui	at,0x1
bfc00d70:	00280821 	addu	at,at,t0
bfc00d74:	ac2d8c00 	sw	t5,-29696(at)
bfc00d78:	3c010001 	lui	at,0x1
bfc00d7c:	00280821 	addu	at,at,t0
bfc00d80:	a4298c00 	sh	t1,-29696(at)
bfc00d84:	3c100001 	lui	s0,0x1
bfc00d88:	02088021 	addu	s0,s0,t0
bfc00d8c:	8e108c00 	lw	s0,-29696(s0)
bfc00d90:	3c128f70 	lui	s2,0x8f70
bfc00d94:	3652cd7a 	ori	s2,s2,0xcd7a
bfc00d98:	16120314 	bne	s0,s2,bfc019ec <inst_error>
bfc00d9c:	00000000 	nop
bfc00da0:	3c09ac47 	lui	t1,0xac47
bfc00da4:	35296c50 	ori	t1,t1,0x6c50
bfc00da8:	3c088011 	lui	t0,0x8011
bfc00dac:	340aad4a 	li	t2,0xad4a
bfc00db0:	340cad48 	li	t4,0xad48
bfc00db4:	3c0deb29 	lui	t5,0xeb29
bfc00db8:	35ad2500 	ori	t5,t5,0x2500
bfc00dbc:	3c010001 	lui	at,0x1
bfc00dc0:	00280821 	addu	at,at,t0
bfc00dc4:	ac2dad48 	sw	t5,-21176(at)
bfc00dc8:	3c010001 	lui	at,0x1
bfc00dcc:	00280821 	addu	at,at,t0
bfc00dd0:	a429ad4a 	sh	t1,-21174(at)
bfc00dd4:	3c100001 	lui	s0,0x1
bfc00dd8:	02088021 	addu	s0,s0,t0
bfc00ddc:	8e10ad48 	lw	s0,-21176(s0)
bfc00de0:	3c126c50 	lui	s2,0x6c50
bfc00de4:	36522500 	ori	s2,s2,0x2500
bfc00de8:	16120300 	bne	s0,s2,bfc019ec <inst_error>
bfc00dec:	00000000 	nop
bfc00df0:	3c09d58d 	lui	t1,0xd58d
bfc00df4:	35297eb8 	ori	t1,t1,0x7eb8
bfc00df8:	3c088011 	lui	t0,0x8011
bfc00dfc:	240a3c38 	li	t2,15416
bfc00e00:	240c3c38 	li	t4,15416
bfc00e04:	3c0df85d 	lui	t5,0xf85d
bfc00e08:	35ad3b84 	ori	t5,t5,0x3b84
bfc00e0c:	ad0d3c38 	sw	t5,15416(t0)
bfc00e10:	a5093c38 	sh	t1,15416(t0)
bfc00e14:	8d103c38 	lw	s0,15416(t0)
bfc00e18:	3c12f85d 	lui	s2,0xf85d
bfc00e1c:	36527eb8 	ori	s2,s2,0x7eb8
bfc00e20:	161202f2 	bne	s0,s2,bfc019ec <inst_error>
bfc00e24:	00000000 	nop
bfc00e28:	3c09b061 	lui	t1,0xb061
bfc00e2c:	35298d2c 	ori	t1,t1,0x8d2c
bfc00e30:	3c088011 	lui	t0,0x8011
bfc00e34:	240a4b18 	li	t2,19224
bfc00e38:	240c4b18 	li	t4,19224
bfc00e3c:	3c0d2b14 	lui	t5,0x2b14
bfc00e40:	35ad20e8 	ori	t5,t5,0x20e8
bfc00e44:	ad0d4b18 	sw	t5,19224(t0)
bfc00e48:	a5094b18 	sh	t1,19224(t0)
bfc00e4c:	8d104b18 	lw	s0,19224(t0)
bfc00e50:	3c122b14 	lui	s2,0x2b14
bfc00e54:	36528d2c 	ori	s2,s2,0x8d2c
bfc00e58:	161202e4 	bne	s0,s2,bfc019ec <inst_error>
bfc00e5c:	00000000 	nop
bfc00e60:	3c091e59 	lui	t1,0x1e59
bfc00e64:	3529b179 	ori	t1,t1,0xb179
bfc00e68:	3c088011 	lui	t0,0x8011
bfc00e6c:	240a3880 	li	t2,14464
bfc00e70:	240c3880 	li	t4,14464
bfc00e74:	3c0d9e68 	lui	t5,0x9e68
bfc00e78:	35ad7728 	ori	t5,t5,0x7728
bfc00e7c:	ad0d3880 	sw	t5,14464(t0)
bfc00e80:	a5093880 	sh	t1,14464(t0)
bfc00e84:	8d103880 	lw	s0,14464(t0)
bfc00e88:	3c129e68 	lui	s2,0x9e68
bfc00e8c:	3652b179 	ori	s2,s2,0xb179
bfc00e90:	161202d6 	bne	s0,s2,bfc019ec <inst_error>
bfc00e94:	00000000 	nop
bfc00e98:	3c091b8e 	lui	t1,0x1b8e
bfc00e9c:	3529eb80 	ori	t1,t1,0xeb80
bfc00ea0:	3c088011 	lui	t0,0x8011
bfc00ea4:	340a8d72 	li	t2,0x8d72
bfc00ea8:	340c8d70 	li	t4,0x8d70
bfc00eac:	3c0d2611 	lui	t5,0x2611
bfc00eb0:	35ada63a 	ori	t5,t5,0xa63a
bfc00eb4:	3c010001 	lui	at,0x1
bfc00eb8:	00280821 	addu	at,at,t0
bfc00ebc:	ac2d8d70 	sw	t5,-29328(at)
bfc00ec0:	3c010001 	lui	at,0x1
bfc00ec4:	00280821 	addu	at,at,t0
bfc00ec8:	a4298d72 	sh	t1,-29326(at)
bfc00ecc:	3c100001 	lui	s0,0x1
bfc00ed0:	02088021 	addu	s0,s0,t0
bfc00ed4:	8e108d70 	lw	s0,-29328(s0)
bfc00ed8:	3c12eb80 	lui	s2,0xeb80
bfc00edc:	3652a63a 	ori	s2,s2,0xa63a
bfc00ee0:	161202c2 	bne	s0,s2,bfc019ec <inst_error>
bfc00ee4:	00000000 	nop
bfc00ee8:	3c09e897 	lui	t1,0xe897
bfc00eec:	35292ef0 	ori	t1,t1,0x2ef0
bfc00ef0:	3c088011 	lui	t0,0x8011
bfc00ef4:	340aed84 	li	t2,0xed84
bfc00ef8:	340ced84 	li	t4,0xed84
bfc00efc:	3c0d1ccb 	lui	t5,0x1ccb
bfc00f00:	35ad4da8 	ori	t5,t5,0x4da8
bfc00f04:	3c010001 	lui	at,0x1
bfc00f08:	00280821 	addu	at,at,t0
bfc00f0c:	ac2ded84 	sw	t5,-4732(at)
bfc00f10:	3c010001 	lui	at,0x1
bfc00f14:	00280821 	addu	at,at,t0
bfc00f18:	a429ed84 	sh	t1,-4732(at)
bfc00f1c:	3c100001 	lui	s0,0x1
bfc00f20:	02088021 	addu	s0,s0,t0
bfc00f24:	8e10ed84 	lw	s0,-4732(s0)
bfc00f28:	3c121ccb 	lui	s2,0x1ccb
bfc00f2c:	36522ef0 	ori	s2,s2,0x2ef0
bfc00f30:	161202ae 	bne	s0,s2,bfc019ec <inst_error>
bfc00f34:	00000000 	nop
bfc00f38:	3c091c42 	lui	t1,0x1c42
bfc00f3c:	3529a1e0 	ori	t1,t1,0xa1e0
bfc00f40:	3c088011 	lui	t0,0x8011
bfc00f44:	340aed86 	li	t2,0xed86
bfc00f48:	340ced84 	li	t4,0xed84
bfc00f4c:	3c0d720c 	lui	t5,0x720c
bfc00f50:	35ad51f4 	ori	t5,t5,0x51f4
bfc00f54:	3c010001 	lui	at,0x1
bfc00f58:	00280821 	addu	at,at,t0
bfc00f5c:	ac2ded84 	sw	t5,-4732(at)
bfc00f60:	3c010001 	lui	at,0x1
bfc00f64:	00280821 	addu	at,at,t0
bfc00f68:	a429ed86 	sh	t1,-4730(at)
bfc00f6c:	3c100001 	lui	s0,0x1
bfc00f70:	02088021 	addu	s0,s0,t0
bfc00f74:	8e10ed84 	lw	s0,-4732(s0)
bfc00f78:	3c12a1e0 	lui	s2,0xa1e0
bfc00f7c:	365251f4 	ori	s2,s2,0x51f4
bfc00f80:	1612029a 	bne	s0,s2,bfc019ec <inst_error>
bfc00f84:	00000000 	nop
bfc00f88:	3c09a115 	lui	t1,0xa115
bfc00f8c:	35294920 	ori	t1,t1,0x4920
bfc00f90:	3c088011 	lui	t0,0x8011
bfc00f94:	340ae740 	li	t2,0xe740
bfc00f98:	340ce740 	li	t4,0xe740
bfc00f9c:	3c0ddd72 	lui	t5,0xdd72
bfc00fa0:	35add0b0 	ori	t5,t5,0xd0b0
bfc00fa4:	3c010001 	lui	at,0x1
bfc00fa8:	00280821 	addu	at,at,t0
bfc00fac:	ac2de740 	sw	t5,-6336(at)
bfc00fb0:	3c010001 	lui	at,0x1
bfc00fb4:	00280821 	addu	at,at,t0
bfc00fb8:	a429e740 	sh	t1,-6336(at)
bfc00fbc:	3c100001 	lui	s0,0x1
bfc00fc0:	02088021 	addu	s0,s0,t0
bfc00fc4:	8e10e740 	lw	s0,-6336(s0)
bfc00fc8:	3c12dd72 	lui	s2,0xdd72
bfc00fcc:	36524920 	ori	s2,s2,0x4920
bfc00fd0:	16120286 	bne	s0,s2,bfc019ec <inst_error>
bfc00fd4:	00000000 	nop
bfc00fd8:	3c09f8e0 	lui	t1,0xf8e0
bfc00fdc:	35297e80 	ori	t1,t1,0x7e80
bfc00fe0:	3c088011 	lui	t0,0x8011
bfc00fe4:	240a13d8 	li	t2,5080
bfc00fe8:	240c13d8 	li	t4,5080
bfc00fec:	3c0d8882 	lui	t5,0x8882
bfc00ff0:	35ad040c 	ori	t5,t5,0x40c
bfc00ff4:	ad0d13d8 	sw	t5,5080(t0)
bfc00ff8:	a50913d8 	sh	t1,5080(t0)
bfc00ffc:	8d1013d8 	lw	s0,5080(t0)
bfc01000:	3c128882 	lui	s2,0x8882
bfc01004:	36527e80 	ori	s2,s2,0x7e80
bfc01008:	16120278 	bne	s0,s2,bfc019ec <inst_error>
bfc0100c:	00000000 	nop
bfc01010:	3c092056 	lui	t1,0x2056
bfc01014:	3529abbc 	ori	t1,t1,0xabbc
bfc01018:	3c088011 	lui	t0,0x8011
bfc0101c:	340ac03a 	li	t2,0xc03a
bfc01020:	340cc038 	li	t4,0xc038
bfc01024:	3c0df854 	lui	t5,0xf854
bfc01028:	35ad84f0 	ori	t5,t5,0x84f0
bfc0102c:	3c010001 	lui	at,0x1
bfc01030:	00280821 	addu	at,at,t0
bfc01034:	ac2dc038 	sw	t5,-16328(at)
bfc01038:	3c010001 	lui	at,0x1
bfc0103c:	00280821 	addu	at,at,t0
bfc01040:	a429c03a 	sh	t1,-16326(at)
bfc01044:	3c100001 	lui	s0,0x1
bfc01048:	02088021 	addu	s0,s0,t0
bfc0104c:	8e10c038 	lw	s0,-16328(s0)
bfc01050:	3c12abbc 	lui	s2,0xabbc
bfc01054:	365284f0 	ori	s2,s2,0x84f0
bfc01058:	16120264 	bne	s0,s2,bfc019ec <inst_error>
bfc0105c:	00000000 	nop
bfc01060:	3c093ec8 	lui	t1,0x3ec8
bfc01064:	35298830 	ori	t1,t1,0x8830
bfc01068:	3c088011 	lui	t0,0x8011
bfc0106c:	340af612 	li	t2,0xf612
bfc01070:	340cf610 	li	t4,0xf610
bfc01074:	3c0d5eb1 	lui	t5,0x5eb1
bfc01078:	35ad9438 	ori	t5,t5,0x9438
bfc0107c:	3c010001 	lui	at,0x1
bfc01080:	00280821 	addu	at,at,t0
bfc01084:	ac2df610 	sw	t5,-2544(at)
bfc01088:	3c010001 	lui	at,0x1
bfc0108c:	00280821 	addu	at,at,t0
bfc01090:	a429f612 	sh	t1,-2542(at)
bfc01094:	3c100001 	lui	s0,0x1
bfc01098:	02088021 	addu	s0,s0,t0
bfc0109c:	8e10f610 	lw	s0,-2544(s0)
bfc010a0:	3c128830 	lui	s2,0x8830
bfc010a4:	36529438 	ori	s2,s2,0x9438
bfc010a8:	16120250 	bne	s0,s2,bfc019ec <inst_error>
bfc010ac:	00000000 	nop
bfc010b0:	3c0941f8 	lui	t1,0x41f8
bfc010b4:	3529c4b0 	ori	t1,t1,0xc4b0
bfc010b8:	3c088011 	lui	t0,0x8011
bfc010bc:	340af1e6 	li	t2,0xf1e6
bfc010c0:	340cf1e4 	li	t4,0xf1e4
bfc010c4:	3c0d4c34 	lui	t5,0x4c34
bfc010c8:	35ada5a0 	ori	t5,t5,0xa5a0
bfc010cc:	3c010001 	lui	at,0x1
bfc010d0:	00280821 	addu	at,at,t0
bfc010d4:	ac2df1e4 	sw	t5,-3612(at)
bfc010d8:	3c010001 	lui	at,0x1
bfc010dc:	00280821 	addu	at,at,t0
bfc010e0:	a429f1e6 	sh	t1,-3610(at)
bfc010e4:	3c100001 	lui	s0,0x1
bfc010e8:	02088021 	addu	s0,s0,t0
bfc010ec:	8e10f1e4 	lw	s0,-3612(s0)
bfc010f0:	3c12c4b0 	lui	s2,0xc4b0
bfc010f4:	3652a5a0 	ori	s2,s2,0xa5a0
bfc010f8:	1612023c 	bne	s0,s2,bfc019ec <inst_error>
bfc010fc:	00000000 	nop
bfc01100:	3c0919fb 	lui	t1,0x19fb
bfc01104:	3529b8d6 	ori	t1,t1,0xb8d6
bfc01108:	3c088011 	lui	t0,0x8011
bfc0110c:	240a0ace 	li	t2,2766
bfc01110:	240c0acc 	li	t4,2764
bfc01114:	3c0d9bc0 	lui	t5,0x9bc0
bfc01118:	35ad0fe8 	ori	t5,t5,0xfe8
bfc0111c:	ad0d0acc 	sw	t5,2764(t0)
bfc01120:	a5090ace 	sh	t1,2766(t0)
bfc01124:	8d100acc 	lw	s0,2764(t0)
bfc01128:	3c12b8d6 	lui	s2,0xb8d6
bfc0112c:	36520fe8 	ori	s2,s2,0xfe8
bfc01130:	1612022e 	bne	s0,s2,bfc019ec <inst_error>
bfc01134:	00000000 	nop
bfc01138:	3c09cc73 	lui	t1,0xcc73
bfc0113c:	35290080 	ori	t1,t1,0x80
bfc01140:	3c088011 	lui	t0,0x8011
bfc01144:	240a51b0 	li	t2,20912
bfc01148:	240c51b0 	li	t4,20912
bfc0114c:	3c0de293 	lui	t5,0xe293
bfc01150:	35ada67e 	ori	t5,t5,0xa67e
bfc01154:	ad0d51b0 	sw	t5,20912(t0)
bfc01158:	a50951b0 	sh	t1,20912(t0)
bfc0115c:	8d1051b0 	lw	s0,20912(t0)
bfc01160:	3c12e293 	lui	s2,0xe293
bfc01164:	36520080 	ori	s2,s2,0x80
bfc01168:	16120220 	bne	s0,s2,bfc019ec <inst_error>
bfc0116c:	00000000 	nop
bfc01170:	3c09c0c9 	lui	t1,0xc0c9
bfc01174:	35299855 	ori	t1,t1,0x9855
bfc01178:	3c088011 	lui	t0,0x8011
bfc0117c:	340ab540 	li	t2,0xb540
bfc01180:	340cb540 	li	t4,0xb540
bfc01184:	3c0d93c7 	lui	t5,0x93c7
bfc01188:	35add5b0 	ori	t5,t5,0xd5b0
bfc0118c:	3c010001 	lui	at,0x1
bfc01190:	00280821 	addu	at,at,t0
bfc01194:	ac2db540 	sw	t5,-19136(at)
bfc01198:	3c010001 	lui	at,0x1
bfc0119c:	00280821 	addu	at,at,t0
bfc011a0:	a429b540 	sh	t1,-19136(at)
bfc011a4:	3c100001 	lui	s0,0x1
bfc011a8:	02088021 	addu	s0,s0,t0
bfc011ac:	8e10b540 	lw	s0,-19136(s0)
bfc011b0:	3c1293c7 	lui	s2,0x93c7
bfc011b4:	36529855 	ori	s2,s2,0x9855
bfc011b8:	1612020c 	bne	s0,s2,bfc019ec <inst_error>
bfc011bc:	00000000 	nop
bfc011c0:	3c090421 	lui	t1,0x421
bfc011c4:	35299ef4 	ori	t1,t1,0x9ef4
bfc011c8:	3c088011 	lui	t0,0x8011
bfc011cc:	240a48b2 	li	t2,18610
bfc011d0:	240c48b0 	li	t4,18608
bfc011d4:	3c0d5a4a 	lui	t5,0x5a4a
bfc011d8:	35ad07f6 	ori	t5,t5,0x7f6
bfc011dc:	ad0d48b0 	sw	t5,18608(t0)
bfc011e0:	a50948b2 	sh	t1,18610(t0)
bfc011e4:	8d1048b0 	lw	s0,18608(t0)
bfc011e8:	3c129ef4 	lui	s2,0x9ef4
bfc011ec:	365207f6 	ori	s2,s2,0x7f6
bfc011f0:	161201fe 	bne	s0,s2,bfc019ec <inst_error>
bfc011f4:	00000000 	nop
bfc011f8:	3c098cfc 	lui	t1,0x8cfc
bfc011fc:	3529f2c0 	ori	t1,t1,0xf2c0
bfc01200:	3c088011 	lui	t0,0x8011
bfc01204:	240a5e60 	li	t2,24160
bfc01208:	240c5e60 	li	t4,24160
bfc0120c:	3c0d0cb8 	lui	t5,0xcb8
bfc01210:	35ad09e4 	ori	t5,t5,0x9e4
bfc01214:	ad0d5e60 	sw	t5,24160(t0)
bfc01218:	a5095e60 	sh	t1,24160(t0)
bfc0121c:	8d105e60 	lw	s0,24160(t0)
bfc01220:	3c120cb8 	lui	s2,0xcb8
bfc01224:	3652f2c0 	ori	s2,s2,0xf2c0
bfc01228:	161201f0 	bne	s0,s2,bfc019ec <inst_error>
bfc0122c:	00000000 	nop
bfc01230:	3c098df9 	lui	t1,0x8df9
bfc01234:	3529423c 	ori	t1,t1,0x423c
bfc01238:	3c088011 	lui	t0,0x8011
bfc0123c:	340abe9e 	li	t2,0xbe9e
bfc01240:	340cbe9c 	li	t4,0xbe9c
bfc01244:	3c0db596 	lui	t5,0xb596
bfc01248:	35adca6a 	ori	t5,t5,0xca6a
bfc0124c:	3c010001 	lui	at,0x1
bfc01250:	00280821 	addu	at,at,t0
bfc01254:	ac2dbe9c 	sw	t5,-16740(at)
bfc01258:	3c010001 	lui	at,0x1
bfc0125c:	00280821 	addu	at,at,t0
bfc01260:	a429be9e 	sh	t1,-16738(at)
bfc01264:	3c100001 	lui	s0,0x1
bfc01268:	02088021 	addu	s0,s0,t0
bfc0126c:	8e10be9c 	lw	s0,-16740(s0)
bfc01270:	3c12423c 	lui	s2,0x423c
bfc01274:	3652ca6a 	ori	s2,s2,0xca6a
bfc01278:	161201dc 	bne	s0,s2,bfc019ec <inst_error>
bfc0127c:	00000000 	nop
bfc01280:	3c094cc9 	lui	t1,0x4cc9
bfc01284:	3529d636 	ori	t1,t1,0xd636
bfc01288:	3c088011 	lui	t0,0x8011
bfc0128c:	340aaecc 	li	t2,0xaecc
bfc01290:	340caecc 	li	t4,0xaecc
bfc01294:	3c0da84a 	lui	t5,0xa84a
bfc01298:	35ad74a8 	ori	t5,t5,0x74a8
bfc0129c:	3c010001 	lui	at,0x1
bfc012a0:	00280821 	addu	at,at,t0
bfc012a4:	ac2daecc 	sw	t5,-20788(at)
bfc012a8:	3c010001 	lui	at,0x1
bfc012ac:	00280821 	addu	at,at,t0
bfc012b0:	a429aecc 	sh	t1,-20788(at)
bfc012b4:	3c100001 	lui	s0,0x1
bfc012b8:	02088021 	addu	s0,s0,t0
bfc012bc:	8e10aecc 	lw	s0,-20788(s0)
bfc012c0:	3c12a84a 	lui	s2,0xa84a
bfc012c4:	3652d636 	ori	s2,s2,0xd636
bfc012c8:	161201c8 	bne	s0,s2,bfc019ec <inst_error>
bfc012cc:	00000000 	nop
bfc012d0:	3c09a81b 	lui	t1,0xa81b
bfc012d4:	35299980 	ori	t1,t1,0x9980
bfc012d8:	3c088011 	lui	t0,0x8011
bfc012dc:	240a2cc8 	li	t2,11464
bfc012e0:	240c2cc8 	li	t4,11464
bfc012e4:	3c0daa5e 	lui	t5,0xaa5e
bfc012e8:	35ad6ea0 	ori	t5,t5,0x6ea0
bfc012ec:	ad0d2cc8 	sw	t5,11464(t0)
bfc012f0:	a5092cc8 	sh	t1,11464(t0)
bfc012f4:	8d102cc8 	lw	s0,11464(t0)
bfc012f8:	3c12aa5e 	lui	s2,0xaa5e
bfc012fc:	36529980 	ori	s2,s2,0x9980
bfc01300:	161201ba 	bne	s0,s2,bfc019ec <inst_error>
bfc01304:	00000000 	nop
bfc01308:	3c09ad2f 	lui	t1,0xad2f
bfc0130c:	35298b20 	ori	t1,t1,0x8b20
bfc01310:	3c088011 	lui	t0,0x8011
bfc01314:	340aad0a 	li	t2,0xad0a
bfc01318:	340cad08 	li	t4,0xad08
bfc0131c:	3c0db266 	lui	t5,0xb266
bfc01320:	35adaf70 	ori	t5,t5,0xaf70
bfc01324:	3c010001 	lui	at,0x1
bfc01328:	00280821 	addu	at,at,t0
bfc0132c:	ac2dad08 	sw	t5,-21240(at)
bfc01330:	3c010001 	lui	at,0x1
bfc01334:	00280821 	addu	at,at,t0
bfc01338:	a429ad0a 	sh	t1,-21238(at)
bfc0133c:	3c100001 	lui	s0,0x1
bfc01340:	02088021 	addu	s0,s0,t0
bfc01344:	8e10ad08 	lw	s0,-21240(s0)
bfc01348:	3c128b20 	lui	s2,0x8b20
bfc0134c:	3652af70 	ori	s2,s2,0xaf70
bfc01350:	161201a6 	bne	s0,s2,bfc019ec <inst_error>
bfc01354:	00000000 	nop
bfc01358:	3c09e431 	lui	t1,0xe431
bfc0135c:	35291540 	ori	t1,t1,0x1540
bfc01360:	3c088011 	lui	t0,0x8011
bfc01364:	240a4ff0 	li	t2,20464
bfc01368:	240c4ff0 	li	t4,20464
bfc0136c:	3c0d40d3 	lui	t5,0x40d3
bfc01370:	35adb176 	ori	t5,t5,0xb176
bfc01374:	ad0d4ff0 	sw	t5,20464(t0)
bfc01378:	a5094ff0 	sh	t1,20464(t0)
bfc0137c:	8d104ff0 	lw	s0,20464(t0)
bfc01380:	3c1240d3 	lui	s2,0x40d3
bfc01384:	36521540 	ori	s2,s2,0x1540
bfc01388:	16120198 	bne	s0,s2,bfc019ec <inst_error>
bfc0138c:	00000000 	nop
bfc01390:	3c0955d5 	lui	t1,0x55d5
bfc01394:	3529b870 	ori	t1,t1,0xb870
bfc01398:	3c088011 	lui	t0,0x8011
bfc0139c:	340a9400 	li	t2,0x9400
bfc013a0:	340c9400 	li	t4,0x9400
bfc013a4:	3c0d80b3 	lui	t5,0x80b3
bfc013a8:	35ad7e6c 	ori	t5,t5,0x7e6c
bfc013ac:	3c010001 	lui	at,0x1
bfc013b0:	00280821 	addu	at,at,t0
bfc013b4:	ac2d9400 	sw	t5,-27648(at)
bfc013b8:	3c010001 	lui	at,0x1
bfc013bc:	00280821 	addu	at,at,t0
bfc013c0:	a4299400 	sh	t1,-27648(at)
bfc013c4:	3c100001 	lui	s0,0x1
bfc013c8:	02088021 	addu	s0,s0,t0
bfc013cc:	8e109400 	lw	s0,-27648(s0)
bfc013d0:	3c1280b3 	lui	s2,0x80b3
bfc013d4:	3652b870 	ori	s2,s2,0xb870
bfc013d8:	16120184 	bne	s0,s2,bfc019ec <inst_error>
bfc013dc:	00000000 	nop
bfc013e0:	3c099fdd 	lui	t1,0x9fdd
bfc013e4:	352923a8 	ori	t1,t1,0x23a8
bfc013e8:	3c088011 	lui	t0,0x8011
bfc013ec:	340afbe0 	li	t2,0xfbe0
bfc013f0:	340cfbe0 	li	t4,0xfbe0
bfc013f4:	3c0ded52 	lui	t5,0xed52
bfc013f8:	35ad58d8 	ori	t5,t5,0x58d8
bfc013fc:	3c010001 	lui	at,0x1
bfc01400:	00280821 	addu	at,at,t0
bfc01404:	ac2dfbe0 	sw	t5,-1056(at)
bfc01408:	3c010001 	lui	at,0x1
bfc0140c:	00280821 	addu	at,at,t0
bfc01410:	a429fbe0 	sh	t1,-1056(at)
bfc01414:	3c100001 	lui	s0,0x1
bfc01418:	02088021 	addu	s0,s0,t0
bfc0141c:	8e10fbe0 	lw	s0,-1056(s0)
bfc01420:	3c12ed52 	lui	s2,0xed52
bfc01424:	365223a8 	ori	s2,s2,0x23a8
bfc01428:	16120170 	bne	s0,s2,bfc019ec <inst_error>
bfc0142c:	00000000 	nop
bfc01430:	3c0948a0 	lui	t1,0x48a0
bfc01434:	35291f4e 	ori	t1,t1,0x1f4e
bfc01438:	3c088011 	lui	t0,0x8011
bfc0143c:	340aae00 	li	t2,0xae00
bfc01440:	340cae00 	li	t4,0xae00
bfc01444:	3c0d3974 	lui	t5,0x3974
bfc01448:	35adb6f0 	ori	t5,t5,0xb6f0
bfc0144c:	3c010001 	lui	at,0x1
bfc01450:	00280821 	addu	at,at,t0
bfc01454:	ac2dae00 	sw	t5,-20992(at)
bfc01458:	3c010001 	lui	at,0x1
bfc0145c:	00280821 	addu	at,at,t0
bfc01460:	a429ae00 	sh	t1,-20992(at)
bfc01464:	3c100001 	lui	s0,0x1
bfc01468:	02088021 	addu	s0,s0,t0
bfc0146c:	8e10ae00 	lw	s0,-20992(s0)
bfc01470:	3c123974 	lui	s2,0x3974
bfc01474:	36521f4e 	ori	s2,s2,0x1f4e
bfc01478:	1612015c 	bne	s0,s2,bfc019ec <inst_error>
bfc0147c:	00000000 	nop
bfc01480:	3c09e28a 	lui	t1,0xe28a
bfc01484:	3529eb00 	ori	t1,t1,0xeb00
bfc01488:	3c088011 	lui	t0,0x8011
bfc0148c:	240a1700 	li	t2,5888
bfc01490:	240c1700 	li	t4,5888
bfc01494:	3c0d77dd 	lui	t5,0x77dd
bfc01498:	35adf4e0 	ori	t5,t5,0xf4e0
bfc0149c:	ad0d1700 	sw	t5,5888(t0)
bfc014a0:	a5091700 	sh	t1,5888(t0)
bfc014a4:	8d101700 	lw	s0,5888(t0)
bfc014a8:	3c1277dd 	lui	s2,0x77dd
bfc014ac:	3652eb00 	ori	s2,s2,0xeb00
bfc014b0:	1612014e 	bne	s0,s2,bfc019ec <inst_error>
bfc014b4:	00000000 	nop
bfc014b8:	3c09a83f 	lui	t1,0xa83f
bfc014bc:	35298680 	ori	t1,t1,0x8680
bfc014c0:	3c088011 	lui	t0,0x8011
bfc014c4:	240a0000 	li	t2,0
bfc014c8:	240c0000 	li	t4,0
bfc014cc:	3c0d1865 	lui	t5,0x1865
bfc014d0:	35addd7c 	ori	t5,t5,0xdd7c
bfc014d4:	ad0d0000 	sw	t5,0(t0)
bfc014d8:	a5090000 	sh	t1,0(t0)
bfc014dc:	8d100000 	lw	s0,0(t0)
bfc014e0:	3c121865 	lui	s2,0x1865
bfc014e4:	36528680 	ori	s2,s2,0x8680
bfc014e8:	16120140 	bne	s0,s2,bfc019ec <inst_error>
bfc014ec:	00000000 	nop
bfc014f0:	3c09051e 	lui	t1,0x51e
bfc014f4:	352907d1 	ori	t1,t1,0x7d1
bfc014f8:	3c088011 	lui	t0,0x8011
bfc014fc:	240a0002 	li	t2,2
bfc01500:	240c0000 	li	t4,0
bfc01504:	3c0d3dc1 	lui	t5,0x3dc1
bfc01508:	35ad31bc 	ori	t5,t5,0x31bc
bfc0150c:	ad0d0000 	sw	t5,0(t0)
bfc01510:	a5090002 	sh	t1,2(t0)
bfc01514:	8d100000 	lw	s0,0(t0)
bfc01518:	3c1207d1 	lui	s2,0x7d1
bfc0151c:	365231bc 	ori	s2,s2,0x31bc
bfc01520:	16120132 	bne	s0,s2,bfc019ec <inst_error>
bfc01524:	00000000 	nop
bfc01528:	3c093baa 	lui	t1,0x3baa
bfc0152c:	35293c68 	ori	t1,t1,0x3c68
bfc01530:	3c088011 	lui	t0,0x8011
bfc01534:	240a0000 	li	t2,0
bfc01538:	240c0000 	li	t4,0
bfc0153c:	3c0d58e1 	lui	t5,0x58e1
bfc01540:	35ad32b2 	ori	t5,t5,0x32b2
bfc01544:	ad0d0000 	sw	t5,0(t0)
bfc01548:	a5090000 	sh	t1,0(t0)
bfc0154c:	8d100000 	lw	s0,0(t0)
bfc01550:	3c1258e1 	lui	s2,0x58e1
bfc01554:	36523c68 	ori	s2,s2,0x3c68
bfc01558:	16120124 	bne	s0,s2,bfc019ec <inst_error>
bfc0155c:	00000000 	nop
bfc01560:	3c090c55 	lui	t1,0xc55
bfc01564:	352952e2 	ori	t1,t1,0x52e2
bfc01568:	3c088011 	lui	t0,0x8011
bfc0156c:	240a0000 	li	t2,0
bfc01570:	240c0000 	li	t4,0
bfc01574:	3c0d498c 	lui	t5,0x498c
bfc01578:	35adc104 	ori	t5,t5,0xc104
bfc0157c:	ad0d0000 	sw	t5,0(t0)
bfc01580:	a5090000 	sh	t1,0(t0)
bfc01584:	8d100000 	lw	s0,0(t0)
bfc01588:	3c12498c 	lui	s2,0x498c
bfc0158c:	365252e2 	ori	s2,s2,0x52e2
bfc01590:	16120116 	bne	s0,s2,bfc019ec <inst_error>
bfc01594:	00000000 	nop
bfc01598:	3c09d942 	lui	t1,0xd942
bfc0159c:	3529b23c 	ori	t1,t1,0xb23c
bfc015a0:	3c088011 	lui	t0,0x8011
bfc015a4:	240a0000 	li	t2,0
bfc015a8:	240c0000 	li	t4,0
bfc015ac:	3c0d906f 	lui	t5,0x906f
bfc015b0:	35adc250 	ori	t5,t5,0xc250
bfc015b4:	ad0d0000 	sw	t5,0(t0)
bfc015b8:	a5090000 	sh	t1,0(t0)
bfc015bc:	8d100000 	lw	s0,0(t0)
bfc015c0:	3c12906f 	lui	s2,0x906f
bfc015c4:	3652b23c 	ori	s2,s2,0xb23c
bfc015c8:	16120108 	bne	s0,s2,bfc019ec <inst_error>
bfc015cc:	00000000 	nop
bfc015d0:	3c09c287 	lui	t1,0xc287
bfc015d4:	35296832 	ori	t1,t1,0x6832
bfc015d8:	3c088011 	lui	t0,0x8011
bfc015dc:	240a0002 	li	t2,2
bfc015e0:	240c0000 	li	t4,0
bfc015e4:	3c0d110e 	lui	t5,0x110e
bfc015e8:	35add930 	ori	t5,t5,0xd930
bfc015ec:	ad0d0000 	sw	t5,0(t0)
bfc015f0:	a5090002 	sh	t1,2(t0)
bfc015f4:	8d100000 	lw	s0,0(t0)
bfc015f8:	3c126832 	lui	s2,0x6832
bfc015fc:	3652d930 	ori	s2,s2,0xd930
bfc01600:	161200fa 	bne	s0,s2,bfc019ec <inst_error>
bfc01604:	00000000 	nop
bfc01608:	3c09a568 	lui	t1,0xa568
bfc0160c:	3529a9e0 	ori	t1,t1,0xa9e0
bfc01610:	3c088011 	lui	t0,0x8011
bfc01614:	240a0000 	li	t2,0
bfc01618:	240c0000 	li	t4,0
bfc0161c:	3c0dc390 	lui	t5,0xc390
bfc01620:	35ad96a4 	ori	t5,t5,0x96a4
bfc01624:	ad0d0000 	sw	t5,0(t0)
bfc01628:	a5090000 	sh	t1,0(t0)
bfc0162c:	8d100000 	lw	s0,0(t0)
bfc01630:	3c12c390 	lui	s2,0xc390
bfc01634:	3652a9e0 	ori	s2,s2,0xa9e0
bfc01638:	161200ec 	bne	s0,s2,bfc019ec <inst_error>
bfc0163c:	00000000 	nop
bfc01640:	3c09e286 	lui	t1,0xe286
bfc01644:	3529dc78 	ori	t1,t1,0xdc78
bfc01648:	3c088011 	lui	t0,0x8011
bfc0164c:	240a0000 	li	t2,0
bfc01650:	240c0000 	li	t4,0
bfc01654:	3c0dfe04 	lui	t5,0xfe04
bfc01658:	35ad34c1 	ori	t5,t5,0x34c1
bfc0165c:	ad0d0000 	sw	t5,0(t0)
bfc01660:	a5090000 	sh	t1,0(t0)
bfc01664:	8d100000 	lw	s0,0(t0)
bfc01668:	3c12fe04 	lui	s2,0xfe04
bfc0166c:	3652dc78 	ori	s2,s2,0xdc78
bfc01670:	161200de 	bne	s0,s2,bfc019ec <inst_error>
bfc01674:	00000000 	nop
bfc01678:	3c096e34 	lui	t1,0x6e34
bfc0167c:	3529bc70 	ori	t1,t1,0xbc70
bfc01680:	3c088011 	lui	t0,0x8011
bfc01684:	240a0000 	li	t2,0
bfc01688:	240c0000 	li	t4,0
bfc0168c:	3c0d4345 	lui	t5,0x4345
bfc01690:	35ad056c 	ori	t5,t5,0x56c
bfc01694:	ad0d0000 	sw	t5,0(t0)
bfc01698:	a5090000 	sh	t1,0(t0)
bfc0169c:	8d100000 	lw	s0,0(t0)
bfc016a0:	3c124345 	lui	s2,0x4345
bfc016a4:	3652bc70 	ori	s2,s2,0xbc70
bfc016a8:	161200d0 	bne	s0,s2,bfc019ec <inst_error>
bfc016ac:	00000000 	nop
bfc016b0:	3c09fe2d 	lui	t1,0xfe2d
bfc016b4:	3529c400 	ori	t1,t1,0xc400
bfc016b8:	3c088011 	lui	t0,0x8011
bfc016bc:	240a0002 	li	t2,2
bfc016c0:	240c0000 	li	t4,0
bfc016c4:	3c0d3d48 	lui	t5,0x3d48
bfc016c8:	35ad9f5f 	ori	t5,t5,0x9f5f
bfc016cc:	ad0d0000 	sw	t5,0(t0)
bfc016d0:	a5090002 	sh	t1,2(t0)
bfc016d4:	8d100000 	lw	s0,0(t0)
bfc016d8:	3c12c400 	lui	s2,0xc400
bfc016dc:	36529f5f 	ori	s2,s2,0x9f5f
bfc016e0:	161200c2 	bne	s0,s2,bfc019ec <inst_error>
bfc016e4:	00000000 	nop
bfc016e8:	3c09d456 	lui	t1,0xd456
bfc016ec:	3529f5e0 	ori	t1,t1,0xf5e0
bfc016f0:	3c088011 	lui	t0,0x8011
bfc016f4:	240a0002 	li	t2,2
bfc016f8:	240c0000 	li	t4,0
bfc016fc:	3c0d46e6 	lui	t5,0x46e6
bfc01700:	35ad0202 	ori	t5,t5,0x202
bfc01704:	ad0d0000 	sw	t5,0(t0)
bfc01708:	a5090002 	sh	t1,2(t0)
bfc0170c:	8d100000 	lw	s0,0(t0)
bfc01710:	3c12f5e0 	lui	s2,0xf5e0
bfc01714:	36520202 	ori	s2,s2,0x202
bfc01718:	161200b4 	bne	s0,s2,bfc019ec <inst_error>
bfc0171c:	00000000 	nop
bfc01720:	3c091013 	lui	t1,0x1013
bfc01724:	3529b676 	ori	t1,t1,0xb676
bfc01728:	3c088011 	lui	t0,0x8011
bfc0172c:	240a0000 	li	t2,0
bfc01730:	240c0000 	li	t4,0
bfc01734:	3c0d3d44 	lui	t5,0x3d44
bfc01738:	35ad363a 	ori	t5,t5,0x363a
bfc0173c:	ad0d0000 	sw	t5,0(t0)
bfc01740:	a5090000 	sh	t1,0(t0)
bfc01744:	8d100000 	lw	s0,0(t0)
bfc01748:	3c123d44 	lui	s2,0x3d44
bfc0174c:	3652b676 	ori	s2,s2,0xb676
bfc01750:	161200a6 	bne	s0,s2,bfc019ec <inst_error>
bfc01754:	00000000 	nop
bfc01758:	3c0930c0 	lui	t1,0x30c0
bfc0175c:	35296a40 	ori	t1,t1,0x6a40
bfc01760:	3c088011 	lui	t0,0x8011
bfc01764:	240a0000 	li	t2,0
bfc01768:	240c0000 	li	t4,0
bfc0176c:	3c0d8108 	lui	t5,0x8108
bfc01770:	ad0d0000 	sw	t5,0(t0)
bfc01774:	a5090000 	sh	t1,0(t0)
bfc01778:	8d100000 	lw	s0,0(t0)
bfc0177c:	3c128108 	lui	s2,0x8108
bfc01780:	36526a40 	ori	s2,s2,0x6a40
bfc01784:	16120099 	bne	s0,s2,bfc019ec <inst_error>
bfc01788:	00000000 	nop
bfc0178c:	3c096dfd 	lui	t1,0x6dfd
bfc01790:	3529dc50 	ori	t1,t1,0xdc50
bfc01794:	3c088011 	lui	t0,0x8011
bfc01798:	240a0002 	li	t2,2
bfc0179c:	240c0000 	li	t4,0
bfc017a0:	3c0d7e38 	lui	t5,0x7e38
bfc017a4:	35ad6f48 	ori	t5,t5,0x6f48
bfc017a8:	ad0d0000 	sw	t5,0(t0)
bfc017ac:	a5090002 	sh	t1,2(t0)
bfc017b0:	8d100000 	lw	s0,0(t0)
bfc017b4:	3c12dc50 	lui	s2,0xdc50
bfc017b8:	36526f48 	ori	s2,s2,0x6f48
bfc017bc:	1612008b 	bne	s0,s2,bfc019ec <inst_error>
bfc017c0:	00000000 	nop
bfc017c4:	3c098f70 	lui	t1,0x8f70
bfc017c8:	3529aaa6 	ori	t1,t1,0xaaa6
bfc017cc:	3c088011 	lui	t0,0x8011
bfc017d0:	240a0002 	li	t2,2
bfc017d4:	240c0000 	li	t4,0
bfc017d8:	3c0ddd5f 	lui	t5,0xdd5f
bfc017dc:	35adcc66 	ori	t5,t5,0xcc66
bfc017e0:	ad0d0000 	sw	t5,0(t0)
bfc017e4:	a5090002 	sh	t1,2(t0)
bfc017e8:	8d100000 	lw	s0,0(t0)
bfc017ec:	3c12aaa6 	lui	s2,0xaaa6
bfc017f0:	3652cc66 	ori	s2,s2,0xcc66
bfc017f4:	1612007d 	bne	s0,s2,bfc019ec <inst_error>
bfc017f8:	00000000 	nop
bfc017fc:	3c098fb8 	lui	t1,0x8fb8
bfc01800:	35291998 	ori	t1,t1,0x1998
bfc01804:	3c088011 	lui	t0,0x8011
bfc01808:	240a0002 	li	t2,2
bfc0180c:	240c0000 	li	t4,0
bfc01810:	3c0df5d0 	lui	t5,0xf5d0
bfc01814:	35adcd30 	ori	t5,t5,0xcd30
bfc01818:	ad0d0000 	sw	t5,0(t0)
bfc0181c:	a5090002 	sh	t1,2(t0)
bfc01820:	8d100000 	lw	s0,0(t0)
bfc01824:	3c121998 	lui	s2,0x1998
bfc01828:	3652cd30 	ori	s2,s2,0xcd30
bfc0182c:	1612006f 	bne	s0,s2,bfc019ec <inst_error>
bfc01830:	00000000 	nop
bfc01834:	3c0925ed 	lui	t1,0x25ed
bfc01838:	35295b7f 	ori	t1,t1,0x5b7f
bfc0183c:	3c088011 	lui	t0,0x8011
bfc01840:	240a0002 	li	t2,2
bfc01844:	240c0000 	li	t4,0
bfc01848:	3c0d19d5 	lui	t5,0x19d5
bfc0184c:	35ade812 	ori	t5,t5,0xe812
bfc01850:	ad0d0000 	sw	t5,0(t0)
bfc01854:	a5090002 	sh	t1,2(t0)
bfc01858:	8d100000 	lw	s0,0(t0)
bfc0185c:	3c125b7f 	lui	s2,0x5b7f
bfc01860:	3652e812 	ori	s2,s2,0xe812
bfc01864:	16120061 	bne	s0,s2,bfc019ec <inst_error>
bfc01868:	00000000 	nop
bfc0186c:	3c09a5a0 	lui	t1,0xa5a0
bfc01870:	3529ecb4 	ori	t1,t1,0xecb4
bfc01874:	3c088011 	lui	t0,0x8011
bfc01878:	240a0000 	li	t2,0
bfc0187c:	240c0000 	li	t4,0
bfc01880:	3c0d4b17 	lui	t5,0x4b17
bfc01884:	35ad9300 	ori	t5,t5,0x9300
bfc01888:	ad0d0000 	sw	t5,0(t0)
bfc0188c:	a5090000 	sh	t1,0(t0)
bfc01890:	8d100000 	lw	s0,0(t0)
bfc01894:	3c124b17 	lui	s2,0x4b17
bfc01898:	3652ecb4 	ori	s2,s2,0xecb4
bfc0189c:	16120053 	bne	s0,s2,bfc019ec <inst_error>
bfc018a0:	00000000 	nop
bfc018a4:	3c0978d7 	lui	t1,0x78d7
bfc018a8:	3529370c 	ori	t1,t1,0x370c
bfc018ac:	3c088011 	lui	t0,0x8011
bfc018b0:	240a0002 	li	t2,2
bfc018b4:	240c0000 	li	t4,0
bfc018b8:	3c0de00d 	lui	t5,0xe00d
bfc018bc:	35adfa00 	ori	t5,t5,0xfa00
bfc018c0:	ad0d0000 	sw	t5,0(t0)
bfc018c4:	a5090002 	sh	t1,2(t0)
bfc018c8:	8d100000 	lw	s0,0(t0)
bfc018cc:	3c12370c 	lui	s2,0x370c
bfc018d0:	3652fa00 	ori	s2,s2,0xfa00
bfc018d4:	16120045 	bne	s0,s2,bfc019ec <inst_error>
bfc018d8:	00000000 	nop
bfc018dc:	3c0952ec 	lui	t1,0x52ec
bfc018e0:	3529d998 	ori	t1,t1,0xd998
bfc018e4:	3c088011 	lui	t0,0x8011
bfc018e8:	240a0002 	li	t2,2
bfc018ec:	240c0000 	li	t4,0
bfc018f0:	3c0db704 	lui	t5,0xb704
bfc018f4:	35adfce8 	ori	t5,t5,0xfce8
bfc018f8:	ad0d0000 	sw	t5,0(t0)
bfc018fc:	a5090002 	sh	t1,2(t0)
bfc01900:	8d100000 	lw	s0,0(t0)
bfc01904:	3c12d998 	lui	s2,0xd998
bfc01908:	3652fce8 	ori	s2,s2,0xfce8
bfc0190c:	16120037 	bne	s0,s2,bfc019ec <inst_error>
bfc01910:	00000000 	nop
bfc01914:	3c093cab 	lui	t1,0x3cab
bfc01918:	3529c304 	ori	t1,t1,0xc304
bfc0191c:	3c088011 	lui	t0,0x8011
bfc01920:	240a0000 	li	t2,0
bfc01924:	240c0000 	li	t4,0
bfc01928:	3c0d0207 	lui	t5,0x207
bfc0192c:	35ad5c00 	ori	t5,t5,0x5c00
bfc01930:	ad0d0000 	sw	t5,0(t0)
bfc01934:	a5090000 	sh	t1,0(t0)
bfc01938:	8d100000 	lw	s0,0(t0)
bfc0193c:	3c120207 	lui	s2,0x207
bfc01940:	3652c304 	ori	s2,s2,0xc304
bfc01944:	16120029 	bne	s0,s2,bfc019ec <inst_error>
bfc01948:	00000000 	nop
bfc0194c:	3c09f81c 	lui	t1,0xf81c
bfc01950:	35294fea 	ori	t1,t1,0x4fea
bfc01954:	3c088011 	lui	t0,0x8011
bfc01958:	240a0000 	li	t2,0
bfc0195c:	240c0000 	li	t4,0
bfc01960:	3c0d896c 	lui	t5,0x896c
bfc01964:	35ad92c0 	ori	t5,t5,0x92c0
bfc01968:	ad0d0000 	sw	t5,0(t0)
bfc0196c:	a5090000 	sh	t1,0(t0)
bfc01970:	8d100000 	lw	s0,0(t0)
bfc01974:	3c12896c 	lui	s2,0x896c
bfc01978:	36524fea 	ori	s2,s2,0x4fea
bfc0197c:	1612001b 	bne	s0,s2,bfc019ec <inst_error>
bfc01980:	00000000 	nop
bfc01984:	3c096840 	lui	t1,0x6840
bfc01988:	35293610 	ori	t1,t1,0x3610
bfc0198c:	3c088011 	lui	t0,0x8011
bfc01990:	240a0002 	li	t2,2
bfc01994:	240c0000 	li	t4,0
bfc01998:	3c0dabc0 	lui	t5,0xabc0
bfc0199c:	35ad3313 	ori	t5,t5,0x3313
bfc019a0:	ad0d0000 	sw	t5,0(t0)
bfc019a4:	a5090002 	sh	t1,2(t0)
bfc019a8:	8d100000 	lw	s0,0(t0)
bfc019ac:	3c123610 	lui	s2,0x3610
bfc019b0:	36523313 	ori	s2,s2,0x3313
bfc019b4:	1612000d 	bne	s0,s2,bfc019ec <inst_error>
bfc019b8:	00000000 	nop
bfc019bc:	24090000 	li	t1,0
bfc019c0:	3c088011 	lui	t0,0x8011
bfc019c4:	240a0000 	li	t2,0
bfc019c8:	240c0000 	li	t4,0
bfc019cc:	240d0000 	li	t5,0
bfc019d0:	ad0d0000 	sw	t5,0(t0)
bfc019d4:	a5090000 	sh	t1,0(t0)
bfc019d8:	8d100000 	lw	s0,0(t0)
bfc019dc:	24120000 	li	s2,0
bfc019e0:	16120002 	bne	s0,s2,bfc019ec <inst_error>
bfc019e4:	00000000 	nop
bfc019e8:	4a000000 	c2	0x0

bfc019ec <inst_error>:
inst_error():
bfc019ec:	0000003f 	0x3f

Disassembly of section .reginfo:

00000000 <.reginfo>:
   0:	00053702 	srl	a2,a1,0x1c
	...
