
build/sll:     file format elf32-tradlittlemips
build/sll


Disassembly of section .text:

bfc00000 <main>:
bfc00000:	3c084799 	lui	t0,0x4799
bfc00004:	35084e5e 	ori	t0,t0,0x4e5e
bfc00008:	24090001 	li	t1,1
bfc0000c:	00088040 	sll	s0,t0,0x1
bfc00010:	3c128f32 	lui	s2,0x8f32
bfc00014:	36529cbc 	ori	s2,s2,0x9cbc
bfc00018:	1612088a 	bne	s0,s2,bfc02244 <inst_error>
bfc0001c:	00000000 	nop
bfc00020:	3c08482a 	lui	t0,0x482a
bfc00024:	3508c578 	ori	t0,t0,0xc578
bfc00028:	24090009 	li	t1,9
bfc0002c:	00088240 	sll	s0,t0,0x9
bfc00030:	3c12558a 	lui	s2,0x558a
bfc00034:	3652f000 	ori	s2,s2,0xf000
bfc00038:	16120882 	bne	s0,s2,bfc02244 <inst_error>
bfc0003c:	00000000 	nop
bfc00040:	3c087419 	lui	t0,0x7419
bfc00044:	3508091a 	ori	t0,t0,0x91a
bfc00048:	2409000b 	li	t1,11
bfc0004c:	000882c0 	sll	s0,t0,0xb
bfc00050:	3c12c848 	lui	s2,0xc848
bfc00054:	3652d000 	ori	s2,s2,0xd000
bfc00058:	1612087a 	bne	s0,s2,bfc02244 <inst_error>
bfc0005c:	00000000 	nop
bfc00060:	3c08ba65 	lui	t0,0xba65
bfc00064:	3508ad72 	ori	t0,t0,0xad72
bfc00068:	24090003 	li	t1,3
bfc0006c:	000880c0 	sll	s0,t0,0x3
bfc00070:	3c12d32d 	lui	s2,0xd32d
bfc00074:	36526b90 	ori	s2,s2,0x6b90
bfc00078:	16120872 	bne	s0,s2,bfc02244 <inst_error>
bfc0007c:	00000000 	nop
bfc00080:	3c0850a5 	lui	t0,0x50a5
bfc00084:	3508f780 	ori	t0,t0,0xf780
bfc00088:	24090018 	li	t1,24
bfc0008c:	00088600 	sll	s0,t0,0x18
bfc00090:	3c128000 	lui	s2,0x8000
bfc00094:	1612086b 	bne	s0,s2,bfc02244 <inst_error>
bfc00098:	00000000 	nop
bfc0009c:	3c08738d 	lui	t0,0x738d
bfc000a0:	35082871 	ori	t0,t0,0x2871
bfc000a4:	2409000f 	li	t1,15
bfc000a8:	000883c0 	sll	s0,t0,0xf
bfc000ac:	3c129438 	lui	s2,0x9438
bfc000b0:	36528000 	ori	s2,s2,0x8000
bfc000b4:	16120863 	bne	s0,s2,bfc02244 <inst_error>
bfc000b8:	00000000 	nop
bfc000bc:	3c08556f 	lui	t0,0x556f
bfc000c0:	3508af00 	ori	t0,t0,0xaf00
bfc000c4:	24090010 	li	t1,16
bfc000c8:	00088400 	sll	s0,t0,0x10
bfc000cc:	3c12af00 	lui	s2,0xaf00
bfc000d0:	1612085c 	bne	s0,s2,bfc02244 <inst_error>
bfc000d4:	00000000 	nop
bfc000d8:	3c083005 	lui	t0,0x3005
bfc000dc:	350835d6 	ori	t0,t0,0x35d6
bfc000e0:	24090008 	li	t1,8
bfc000e4:	00088200 	sll	s0,t0,0x8
bfc000e8:	3c120535 	lui	s2,0x535
bfc000ec:	3652d600 	ori	s2,s2,0xd600
bfc000f0:	16120854 	bne	s0,s2,bfc02244 <inst_error>
bfc000f4:	00000000 	nop
bfc000f8:	3c0824ec 	lui	t0,0x24ec
bfc000fc:	35082590 	ori	t0,t0,0x2590
bfc00100:	24090003 	li	t1,3
bfc00104:	000880c0 	sll	s0,t0,0x3
bfc00108:	3c122761 	lui	s2,0x2761
bfc0010c:	36522c80 	ori	s2,s2,0x2c80
bfc00110:	1612084c 	bne	s0,s2,bfc02244 <inst_error>
bfc00114:	00000000 	nop
bfc00118:	3c08e3cb 	lui	t0,0xe3cb
bfc0011c:	35083a58 	ori	t0,t0,0x3a58
bfc00120:	2409000c 	li	t1,12
bfc00124:	00088300 	sll	s0,t0,0xc
bfc00128:	3c12b3a5 	lui	s2,0xb3a5
bfc0012c:	36528000 	ori	s2,s2,0x8000
bfc00130:	16120844 	bne	s0,s2,bfc02244 <inst_error>
bfc00134:	00000000 	nop
bfc00138:	3c08a20d 	lui	t0,0xa20d
bfc0013c:	35080b10 	ori	t0,t0,0xb10
bfc00140:	24090005 	li	t1,5
bfc00144:	00088140 	sll	s0,t0,0x5
bfc00148:	3c1241a1 	lui	s2,0x41a1
bfc0014c:	36526200 	ori	s2,s2,0x6200
bfc00150:	1612083c 	bne	s0,s2,bfc02244 <inst_error>
bfc00154:	00000000 	nop
bfc00158:	3c08263f 	lui	t0,0x263f
bfc0015c:	3508c560 	ori	t0,t0,0xc560
bfc00160:	24090005 	li	t1,5
bfc00164:	00088140 	sll	s0,t0,0x5
bfc00168:	3c12c7f8 	lui	s2,0xc7f8
bfc0016c:	3652ac00 	ori	s2,s2,0xac00
bfc00170:	16120834 	bne	s0,s2,bfc02244 <inst_error>
bfc00174:	00000000 	nop
bfc00178:	3c08b15c 	lui	t0,0xb15c
bfc0017c:	35089f10 	ori	t0,t0,0x9f10
bfc00180:	2409001c 	li	t1,28
bfc00184:	00088700 	sll	s0,t0,0x1c
bfc00188:	24120000 	li	s2,0
bfc0018c:	1612082d 	bne	s0,s2,bfc02244 <inst_error>
bfc00190:	00000000 	nop
bfc00194:	3c084e57 	lui	t0,0x4e57
bfc00198:	35086df0 	ori	t0,t0,0x6df0
bfc0019c:	2409001d 	li	t1,29
bfc001a0:	00088740 	sll	s0,t0,0x1d
bfc001a4:	24120000 	li	s2,0
bfc001a8:	16120826 	bne	s0,s2,bfc02244 <inst_error>
bfc001ac:	00000000 	nop
bfc001b0:	3c087ada 	lui	t0,0x7ada
bfc001b4:	35084d80 	ori	t0,t0,0x4d80
bfc001b8:	24090006 	li	t1,6
bfc001bc:	00088180 	sll	s0,t0,0x6
bfc001c0:	3c12b693 	lui	s2,0xb693
bfc001c4:	36526000 	ori	s2,s2,0x6000
bfc001c8:	1612081e 	bne	s0,s2,bfc02244 <inst_error>
bfc001cc:	00000000 	nop
bfc001d0:	3c0877d3 	lui	t0,0x77d3
bfc001d4:	35080188 	ori	t0,t0,0x188
bfc001d8:	24090019 	li	t1,25
bfc001dc:	00088640 	sll	s0,t0,0x19
bfc001e0:	3c121000 	lui	s2,0x1000
bfc001e4:	16120817 	bne	s0,s2,bfc02244 <inst_error>
bfc001e8:	00000000 	nop
bfc001ec:	3c08fd9a 	lui	t0,0xfd9a
bfc001f0:	35088a90 	ori	t0,t0,0x8a90
bfc001f4:	2409000b 	li	t1,11
bfc001f8:	000882c0 	sll	s0,t0,0xb
bfc001fc:	3c12d454 	lui	s2,0xd454
bfc00200:	36528000 	ori	s2,s2,0x8000
bfc00204:	1612080f 	bne	s0,s2,bfc02244 <inst_error>
bfc00208:	00000000 	nop
bfc0020c:	3c08cb97 	lui	t0,0xcb97
bfc00210:	35083890 	ori	t0,t0,0x3890
bfc00214:	24090007 	li	t1,7
bfc00218:	000881c0 	sll	s0,t0,0x7
bfc0021c:	3c12cb9c 	lui	s2,0xcb9c
bfc00220:	36524800 	ori	s2,s2,0x4800
bfc00224:	16120807 	bne	s0,s2,bfc02244 <inst_error>
bfc00228:	00000000 	nop
bfc0022c:	3c08cdcf 	lui	t0,0xcdcf
bfc00230:	3508b000 	ori	t0,t0,0xb000
bfc00234:	24090017 	li	t1,23
bfc00238:	000885c0 	sll	s0,t0,0x17
bfc0023c:	24120000 	li	s2,0
bfc00240:	16120800 	bne	s0,s2,bfc02244 <inst_error>
bfc00244:	00000000 	nop
bfc00248:	3c08cc34 	lui	t0,0xcc34
bfc0024c:	35083782 	ori	t0,t0,0x3782
bfc00250:	24090013 	li	t1,19
bfc00254:	000884c0 	sll	s0,t0,0x13
bfc00258:	3c12bc10 	lui	s2,0xbc10
bfc0025c:	161207f9 	bne	s0,s2,bfc02244 <inst_error>
bfc00260:	00000000 	nop
bfc00264:	3c08d78b 	lui	t0,0xd78b
bfc00268:	35087d00 	ori	t0,t0,0x7d00
bfc0026c:	2409000e 	li	t1,14
bfc00270:	00088380 	sll	s0,t0,0xe
bfc00274:	3c12df40 	lui	s2,0xdf40
bfc00278:	161207f2 	bne	s0,s2,bfc02244 <inst_error>
bfc0027c:	00000000 	nop
bfc00280:	3c081a1f 	lui	t0,0x1a1f
bfc00284:	350828ce 	ori	t0,t0,0x28ce
bfc00288:	2409000a 	li	t1,10
bfc0028c:	00088280 	sll	s0,t0,0xa
bfc00290:	3c127ca3 	lui	s2,0x7ca3
bfc00294:	36523800 	ori	s2,s2,0x3800
bfc00298:	161207ea 	bne	s0,s2,bfc02244 <inst_error>
bfc0029c:	00000000 	nop
bfc002a0:	3c089fb0 	lui	t0,0x9fb0
bfc002a4:	3508c5f6 	ori	t0,t0,0xc5f6
bfc002a8:	24090014 	li	t1,20
bfc002ac:	00088500 	sll	s0,t0,0x14
bfc002b0:	3c125f60 	lui	s2,0x5f60
bfc002b4:	161207e3 	bne	s0,s2,bfc02244 <inst_error>
bfc002b8:	00000000 	nop
bfc002bc:	3c08f700 	lui	t0,0xf700
bfc002c0:	350858d0 	ori	t0,t0,0x58d0
bfc002c4:	2409001e 	li	t1,30
bfc002c8:	00088780 	sll	s0,t0,0x1e
bfc002cc:	24120000 	li	s2,0
bfc002d0:	161207dc 	bne	s0,s2,bfc02244 <inst_error>
bfc002d4:	00000000 	nop
bfc002d8:	3c083c0c 	lui	t0,0x3c0c
bfc002dc:	3508d7ae 	ori	t0,t0,0xd7ae
bfc002e0:	24090019 	li	t1,25
bfc002e4:	00088640 	sll	s0,t0,0x19
bfc002e8:	3c125c00 	lui	s2,0x5c00
bfc002ec:	161207d5 	bne	s0,s2,bfc02244 <inst_error>
bfc002f0:	00000000 	nop
bfc002f4:	3c08f4ce 	lui	t0,0xf4ce
bfc002f8:	3508179a 	ori	t0,t0,0x179a
bfc002fc:	2409000c 	li	t1,12
bfc00300:	00088300 	sll	s0,t0,0xc
bfc00304:	3c12e179 	lui	s2,0xe179
bfc00308:	3652a000 	ori	s2,s2,0xa000
bfc0030c:	161207cd 	bne	s0,s2,bfc02244 <inst_error>
bfc00310:	00000000 	nop
bfc00314:	3c08468e 	lui	t0,0x468e
bfc00318:	35086b1c 	ori	t0,t0,0x6b1c
bfc0031c:	2409001f 	li	t1,31
bfc00320:	000887c0 	sll	s0,t0,0x1f
bfc00324:	24120000 	li	s2,0
bfc00328:	161207c6 	bne	s0,s2,bfc02244 <inst_error>
bfc0032c:	00000000 	nop
bfc00330:	3c08a665 	lui	t0,0xa665
bfc00334:	35086698 	ori	t0,t0,0x6698
bfc00338:	2409000c 	li	t1,12
bfc0033c:	00088300 	sll	s0,t0,0xc
bfc00340:	3c125669 	lui	s2,0x5669
bfc00344:	36528000 	ori	s2,s2,0x8000
bfc00348:	161207be 	bne	s0,s2,bfc02244 <inst_error>
bfc0034c:	00000000 	nop
bfc00350:	3c08d889 	lui	t0,0xd889
bfc00354:	3508922c 	ori	t0,t0,0x922c
bfc00358:	24090002 	li	t1,2
bfc0035c:	00088080 	sll	s0,t0,0x2
bfc00360:	3c126226 	lui	s2,0x6226
bfc00364:	365248b0 	ori	s2,s2,0x48b0
bfc00368:	161207b6 	bne	s0,s2,bfc02244 <inst_error>
bfc0036c:	00000000 	nop
bfc00370:	3c089f8e 	lui	t0,0x9f8e
bfc00374:	350899f0 	ori	t0,t0,0x99f0
bfc00378:	2409000f 	li	t1,15
bfc0037c:	000883c0 	sll	s0,t0,0xf
bfc00380:	3c124cf8 	lui	s2,0x4cf8
bfc00384:	161207af 	bne	s0,s2,bfc02244 <inst_error>
bfc00388:	00000000 	nop
bfc0038c:	3c085ccc 	lui	t0,0x5ccc
bfc00390:	3508150c 	ori	t0,t0,0x150c
bfc00394:	24090015 	li	t1,21
bfc00398:	00088540 	sll	s0,t0,0x15
bfc0039c:	3c12a180 	lui	s2,0xa180
bfc003a0:	161207a8 	bne	s0,s2,bfc02244 <inst_error>
bfc003a4:	00000000 	nop
bfc003a8:	3c085a5c 	lui	t0,0x5a5c
bfc003ac:	35086a07 	ori	t0,t0,0x6a07
bfc003b0:	24090017 	li	t1,23
bfc003b4:	000885c0 	sll	s0,t0,0x17
bfc003b8:	3c120380 	lui	s2,0x380
bfc003bc:	161207a1 	bne	s0,s2,bfc02244 <inst_error>
bfc003c0:	00000000 	nop
bfc003c4:	3c083ef7 	lui	t0,0x3ef7
bfc003c8:	35085672 	ori	t0,t0,0x5672
bfc003cc:	24090011 	li	t1,17
bfc003d0:	00088440 	sll	s0,t0,0x11
bfc003d4:	3c12ace4 	lui	s2,0xace4
bfc003d8:	1612079a 	bne	s0,s2,bfc02244 <inst_error>
bfc003dc:	00000000 	nop
bfc003e0:	3c08255c 	lui	t0,0x255c
bfc003e4:	350870dc 	ori	t0,t0,0x70dc
bfc003e8:	24090015 	li	t1,21
bfc003ec:	00088540 	sll	s0,t0,0x15
bfc003f0:	3c121b80 	lui	s2,0x1b80
bfc003f4:	16120793 	bne	s0,s2,bfc02244 <inst_error>
bfc003f8:	00000000 	nop
bfc003fc:	3c0804a7 	lui	t0,0x4a7
bfc00400:	350888f0 	ori	t0,t0,0x88f0
bfc00404:	24090013 	li	t1,19
bfc00408:	000884c0 	sll	s0,t0,0x13
bfc0040c:	3c124780 	lui	s2,0x4780
bfc00410:	1612078c 	bne	s0,s2,bfc02244 <inst_error>
bfc00414:	00000000 	nop
bfc00418:	3c082f1f 	lui	t0,0x2f1f
bfc0041c:	35085840 	ori	t0,t0,0x5840
bfc00420:	24090011 	li	t1,17
bfc00424:	00088440 	sll	s0,t0,0x11
bfc00428:	3c12b080 	lui	s2,0xb080
bfc0042c:	16120785 	bne	s0,s2,bfc02244 <inst_error>
bfc00430:	00000000 	nop
bfc00434:	3c08d9ab 	lui	t0,0xd9ab
bfc00438:	3508f1dc 	ori	t0,t0,0xf1dc
bfc0043c:	2409001b 	li	t1,27
bfc00440:	000886c0 	sll	s0,t0,0x1b
bfc00444:	3c12e000 	lui	s2,0xe000
bfc00448:	1612077e 	bne	s0,s2,bfc02244 <inst_error>
bfc0044c:	00000000 	nop
bfc00450:	3c08aa27 	lui	t0,0xaa27
bfc00454:	3508be82 	ori	t0,t0,0xbe82
bfc00458:	24090019 	li	t1,25
bfc0045c:	00088640 	sll	s0,t0,0x19
bfc00460:	3c120400 	lui	s2,0x400
bfc00464:	16120777 	bne	s0,s2,bfc02244 <inst_error>
bfc00468:	00000000 	nop
bfc0046c:	3c089c5c 	lui	t0,0x9c5c
bfc00470:	3508b278 	ori	t0,t0,0xb278
bfc00474:	24090004 	li	t1,4
bfc00478:	00088100 	sll	s0,t0,0x4
bfc0047c:	3c12c5cb 	lui	s2,0xc5cb
bfc00480:	36522780 	ori	s2,s2,0x2780
bfc00484:	1612076f 	bne	s0,s2,bfc02244 <inst_error>
bfc00488:	00000000 	nop
bfc0048c:	3c0857d2 	lui	t0,0x57d2
bfc00490:	35085a38 	ori	t0,t0,0x5a38
bfc00494:	2409001c 	li	t1,28
bfc00498:	00088700 	sll	s0,t0,0x1c
bfc0049c:	3c128000 	lui	s2,0x8000
bfc004a0:	16120768 	bne	s0,s2,bfc02244 <inst_error>
bfc004a4:	00000000 	nop
bfc004a8:	3c084ffb 	lui	t0,0x4ffb
bfc004ac:	350893ec 	ori	t0,t0,0x93ec
bfc004b0:	24090003 	li	t1,3
bfc004b4:	000880c0 	sll	s0,t0,0x3
bfc004b8:	3c127fdc 	lui	s2,0x7fdc
bfc004bc:	36529f60 	ori	s2,s2,0x9f60
bfc004c0:	16120760 	bne	s0,s2,bfc02244 <inst_error>
bfc004c4:	00000000 	nop
bfc004c8:	3c0867b9 	lui	t0,0x67b9
bfc004cc:	3508e2f0 	ori	t0,t0,0xe2f0
bfc004d0:	24090015 	li	t1,21
bfc004d4:	00088540 	sll	s0,t0,0x15
bfc004d8:	3c125e00 	lui	s2,0x5e00
bfc004dc:	16120759 	bne	s0,s2,bfc02244 <inst_error>
bfc004e0:	00000000 	nop
bfc004e4:	3c082589 	lui	t0,0x2589
bfc004e8:	3508b408 	ori	t0,t0,0xb408
bfc004ec:	24090016 	li	t1,22
bfc004f0:	00088580 	sll	s0,t0,0x16
bfc004f4:	3c120200 	lui	s2,0x200
bfc004f8:	16120752 	bne	s0,s2,bfc02244 <inst_error>
bfc004fc:	00000000 	nop
bfc00500:	3c089553 	lui	t0,0x9553
bfc00504:	35087c44 	ori	t0,t0,0x7c44
bfc00508:	24090006 	li	t1,6
bfc0050c:	00088180 	sll	s0,t0,0x6
bfc00510:	3c1254df 	lui	s2,0x54df
bfc00514:	36521100 	ori	s2,s2,0x1100
bfc00518:	1612074a 	bne	s0,s2,bfc02244 <inst_error>
bfc0051c:	00000000 	nop
bfc00520:	3c0839c7 	lui	t0,0x39c7
bfc00524:	3508673a 	ori	t0,t0,0x673a
bfc00528:	24090000 	li	t1,0
bfc0052c:	00088000 	sll	s0,t0,0x0
bfc00530:	3c1239c7 	lui	s2,0x39c7
bfc00534:	3652673a 	ori	s2,s2,0x673a
bfc00538:	16120742 	bne	s0,s2,bfc02244 <inst_error>
bfc0053c:	00000000 	nop
bfc00540:	3c082d5c 	lui	t0,0x2d5c
bfc00544:	35086ba0 	ori	t0,t0,0x6ba0
bfc00548:	2409000a 	li	t1,10
bfc0054c:	00088280 	sll	s0,t0,0xa
bfc00550:	3c1271ae 	lui	s2,0x71ae
bfc00554:	36528000 	ori	s2,s2,0x8000
bfc00558:	1612073a 	bne	s0,s2,bfc02244 <inst_error>
bfc0055c:	00000000 	nop
bfc00560:	3c08b69f 	lui	t0,0xb69f
bfc00564:	35086fd8 	ori	t0,t0,0x6fd8
bfc00568:	24090006 	li	t1,6
bfc0056c:	00088180 	sll	s0,t0,0x6
bfc00570:	3c12a7db 	lui	s2,0xa7db
bfc00574:	3652f600 	ori	s2,s2,0xf600
bfc00578:	16120732 	bne	s0,s2,bfc02244 <inst_error>
bfc0057c:	00000000 	nop
bfc00580:	3c08b231 	lui	t0,0xb231
bfc00584:	35081918 	ori	t0,t0,0x1918
bfc00588:	24090011 	li	t1,17
bfc0058c:	00088440 	sll	s0,t0,0x11
bfc00590:	3c123230 	lui	s2,0x3230
bfc00594:	1612072b 	bne	s0,s2,bfc02244 <inst_error>
bfc00598:	00000000 	nop
bfc0059c:	3c0804bf 	lui	t0,0x4bf
bfc005a0:	35081faa 	ori	t0,t0,0x1faa
bfc005a4:	24090003 	li	t1,3
bfc005a8:	000880c0 	sll	s0,t0,0x3
bfc005ac:	3c1225f8 	lui	s2,0x25f8
bfc005b0:	3652fd50 	ori	s2,s2,0xfd50
bfc005b4:	16120723 	bne	s0,s2,bfc02244 <inst_error>
bfc005b8:	00000000 	nop
bfc005bc:	3c08cf33 	lui	t0,0xcf33
bfc005c0:	3508ef3c 	ori	t0,t0,0xef3c
bfc005c4:	24090007 	li	t1,7
bfc005c8:	000881c0 	sll	s0,t0,0x7
bfc005cc:	3c1299f7 	lui	s2,0x99f7
bfc005d0:	36529e00 	ori	s2,s2,0x9e00
bfc005d4:	1612071b 	bne	s0,s2,bfc02244 <inst_error>
bfc005d8:	00000000 	nop
bfc005dc:	3c089b49 	lui	t0,0x9b49
bfc005e0:	350896d0 	ori	t0,t0,0x96d0
bfc005e4:	24090016 	li	t1,22
bfc005e8:	00088580 	sll	s0,t0,0x16
bfc005ec:	3c12b400 	lui	s2,0xb400
bfc005f0:	16120714 	bne	s0,s2,bfc02244 <inst_error>
bfc005f4:	00000000 	nop
bfc005f8:	3c0881df 	lui	t0,0x81df
bfc005fc:	35086b40 	ori	t0,t0,0x6b40
bfc00600:	24090006 	li	t1,6
bfc00604:	00088180 	sll	s0,t0,0x6
bfc00608:	3c1277da 	lui	s2,0x77da
bfc0060c:	3652d000 	ori	s2,s2,0xd000
bfc00610:	1612070c 	bne	s0,s2,bfc02244 <inst_error>
bfc00614:	00000000 	nop
bfc00618:	3c0898d7 	lui	t0,0x98d7
bfc0061c:	3508f1e0 	ori	t0,t0,0xf1e0
bfc00620:	24090012 	li	t1,18
bfc00624:	00088480 	sll	s0,t0,0x12
bfc00628:	3c12c780 	lui	s2,0xc780
bfc0062c:	16120705 	bne	s0,s2,bfc02244 <inst_error>
bfc00630:	00000000 	nop
bfc00634:	3c08dd6e 	lui	t0,0xdd6e
bfc00638:	35083f61 	ori	t0,t0,0x3f61
bfc0063c:	24090017 	li	t1,23
bfc00640:	000885c0 	sll	s0,t0,0x17
bfc00644:	3c12b080 	lui	s2,0xb080
bfc00648:	161206fe 	bne	s0,s2,bfc02244 <inst_error>
bfc0064c:	00000000 	nop
bfc00650:	3c0821b8 	lui	t0,0x21b8
bfc00654:	3508b320 	ori	t0,t0,0xb320
bfc00658:	2409001b 	li	t1,27
bfc0065c:	000886c0 	sll	s0,t0,0x1b
bfc00660:	24120000 	li	s2,0
bfc00664:	161206f7 	bne	s0,s2,bfc02244 <inst_error>
bfc00668:	00000000 	nop
bfc0066c:	3c086e00 	lui	t0,0x6e00
bfc00670:	350858d0 	ori	t0,t0,0x58d0
bfc00674:	24090014 	li	t1,20
bfc00678:	00088500 	sll	s0,t0,0x14
bfc0067c:	3c128d00 	lui	s2,0x8d00
bfc00680:	161206f0 	bne	s0,s2,bfc02244 <inst_error>
bfc00684:	00000000 	nop
bfc00688:	3c08f616 	lui	t0,0xf616
bfc0068c:	350800ce 	ori	t0,t0,0xce
bfc00690:	24090011 	li	t1,17
bfc00694:	00088440 	sll	s0,t0,0x11
bfc00698:	3c12019c 	lui	s2,0x19c
bfc0069c:	161206e9 	bne	s0,s2,bfc02244 <inst_error>
bfc006a0:	00000000 	nop
bfc006a4:	3c085fcf 	lui	t0,0x5fcf
bfc006a8:	3508d000 	ori	t0,t0,0xd000
bfc006ac:	2409000e 	li	t1,14
bfc006b0:	00088380 	sll	s0,t0,0xe
bfc006b4:	3c12f400 	lui	s2,0xf400
bfc006b8:	161206e2 	bne	s0,s2,bfc02244 <inst_error>
bfc006bc:	00000000 	nop
bfc006c0:	3c08b0c1 	lui	t0,0xb0c1
bfc006c4:	3508dae5 	ori	t0,t0,0xdae5
bfc006c8:	2409001a 	li	t1,26
bfc006cc:	00088680 	sll	s0,t0,0x1a
bfc006d0:	3c129400 	lui	s2,0x9400
bfc006d4:	161206db 	bne	s0,s2,bfc02244 <inst_error>
bfc006d8:	00000000 	nop
bfc006dc:	3c08e2ae 	lui	t0,0xe2ae
bfc006e0:	3508e250 	ori	t0,t0,0xe250
bfc006e4:	2409000e 	li	t1,14
bfc006e8:	00088380 	sll	s0,t0,0xe
bfc006ec:	3c12b894 	lui	s2,0xb894
bfc006f0:	161206d4 	bne	s0,s2,bfc02244 <inst_error>
bfc006f4:	00000000 	nop
bfc006f8:	3c08e407 	lui	t0,0xe407
bfc006fc:	35084e50 	ori	t0,t0,0x4e50
bfc00700:	24090009 	li	t1,9
bfc00704:	00088240 	sll	s0,t0,0x9
bfc00708:	3c120e9c 	lui	s2,0xe9c
bfc0070c:	3652a000 	ori	s2,s2,0xa000
bfc00710:	161206cc 	bne	s0,s2,bfc02244 <inst_error>
bfc00714:	00000000 	nop
bfc00718:	3c08c87b 	lui	t0,0xc87b
bfc0071c:	350886cc 	ori	t0,t0,0x86cc
bfc00720:	2409001e 	li	t1,30
bfc00724:	00088780 	sll	s0,t0,0x1e
bfc00728:	24120000 	li	s2,0
bfc0072c:	161206c5 	bne	s0,s2,bfc02244 <inst_error>
bfc00730:	00000000 	nop
bfc00734:	3c0839f6 	lui	t0,0x39f6
bfc00738:	35081008 	ori	t0,t0,0x1008
bfc0073c:	24090011 	li	t1,17
bfc00740:	00088440 	sll	s0,t0,0x11
bfc00744:	3c122010 	lui	s2,0x2010
bfc00748:	161206be 	bne	s0,s2,bfc02244 <inst_error>
bfc0074c:	00000000 	nop
bfc00750:	3c0849ab 	lui	t0,0x49ab
bfc00754:	3508c3b8 	ori	t0,t0,0xc3b8
bfc00758:	24090014 	li	t1,20
bfc0075c:	00088500 	sll	s0,t0,0x14
bfc00760:	3c123b80 	lui	s2,0x3b80
bfc00764:	161206b7 	bne	s0,s2,bfc02244 <inst_error>
bfc00768:	00000000 	nop
bfc0076c:	3c08a018 	lui	t0,0xa018
bfc00770:	3508b028 	ori	t0,t0,0xb028
bfc00774:	24090016 	li	t1,22
bfc00778:	00088580 	sll	s0,t0,0x16
bfc0077c:	3c120a00 	lui	s2,0xa00
bfc00780:	161206b0 	bne	s0,s2,bfc02244 <inst_error>
bfc00784:	00000000 	nop
bfc00788:	3c08f81f 	lui	t0,0xf81f
bfc0078c:	3508909d 	ori	t0,t0,0x909d
bfc00790:	2409000b 	li	t1,11
bfc00794:	000882c0 	sll	s0,t0,0xb
bfc00798:	3c12fc84 	lui	s2,0xfc84
bfc0079c:	3652e800 	ori	s2,s2,0xe800
bfc007a0:	161206a8 	bne	s0,s2,bfc02244 <inst_error>
bfc007a4:	00000000 	nop
bfc007a8:	3c086219 	lui	t0,0x6219
bfc007ac:	350815f0 	ori	t0,t0,0x15f0
bfc007b0:	2409000c 	li	t1,12
bfc007b4:	00088300 	sll	s0,t0,0xc
bfc007b8:	3c12915f 	lui	s2,0x915f
bfc007bc:	161206a1 	bne	s0,s2,bfc02244 <inst_error>
bfc007c0:	00000000 	nop
bfc007c4:	3c084327 	lui	t0,0x4327
bfc007c8:	3508ab9b 	ori	t0,t0,0xab9b
bfc007cc:	24090019 	li	t1,25
bfc007d0:	00088640 	sll	s0,t0,0x19
bfc007d4:	3c123600 	lui	s2,0x3600
bfc007d8:	1612069a 	bne	s0,s2,bfc02244 <inst_error>
bfc007dc:	00000000 	nop
bfc007e0:	3c08cc30 	lui	t0,0xcc30
bfc007e4:	35088445 	ori	t0,t0,0x8445
bfc007e8:	24090007 	li	t1,7
bfc007ec:	000881c0 	sll	s0,t0,0x7
bfc007f0:	3c121842 	lui	s2,0x1842
bfc007f4:	36522280 	ori	s2,s2,0x2280
bfc007f8:	16120692 	bne	s0,s2,bfc02244 <inst_error>
bfc007fc:	00000000 	nop
bfc00800:	3c088325 	lui	t0,0x8325
bfc00804:	350845e8 	ori	t0,t0,0x45e8
bfc00808:	2409001b 	li	t1,27
bfc0080c:	000886c0 	sll	s0,t0,0x1b
bfc00810:	3c124000 	lui	s2,0x4000
bfc00814:	1612068b 	bne	s0,s2,bfc02244 <inst_error>
bfc00818:	00000000 	nop
bfc0081c:	3c0875fd 	lui	t0,0x75fd
bfc00820:	35086110 	ori	t0,t0,0x6110
bfc00824:	24090010 	li	t1,16
bfc00828:	00088400 	sll	s0,t0,0x10
bfc0082c:	3c126110 	lui	s2,0x6110
bfc00830:	16120684 	bne	s0,s2,bfc02244 <inst_error>
bfc00834:	00000000 	nop
bfc00838:	3c08d4a0 	lui	t0,0xd4a0
bfc0083c:	35083837 	ori	t0,t0,0x3837
bfc00840:	24090008 	li	t1,8
bfc00844:	00088200 	sll	s0,t0,0x8
bfc00848:	3c12a038 	lui	s2,0xa038
bfc0084c:	36523700 	ori	s2,s2,0x3700
bfc00850:	1612067c 	bne	s0,s2,bfc02244 <inst_error>
bfc00854:	00000000 	nop
bfc00858:	3c081642 	lui	t0,0x1642
bfc0085c:	3508c680 	ori	t0,t0,0xc680
bfc00860:	24090003 	li	t1,3
bfc00864:	000880c0 	sll	s0,t0,0x3
bfc00868:	3c12b216 	lui	s2,0xb216
bfc0086c:	36523400 	ori	s2,s2,0x3400
bfc00870:	16120674 	bne	s0,s2,bfc02244 <inst_error>
bfc00874:	00000000 	nop
bfc00878:	3c08d106 	lui	t0,0xd106
bfc0087c:	3508dc60 	ori	t0,t0,0xdc60
bfc00880:	24090000 	li	t1,0
bfc00884:	00088000 	sll	s0,t0,0x0
bfc00888:	3c12d106 	lui	s2,0xd106
bfc0088c:	3652dc60 	ori	s2,s2,0xdc60
bfc00890:	1612066c 	bne	s0,s2,bfc02244 <inst_error>
bfc00894:	00000000 	nop
bfc00898:	3c089f30 	lui	t0,0x9f30
bfc0089c:	35088277 	ori	t0,t0,0x8277
bfc008a0:	24090009 	li	t1,9
bfc008a4:	00088240 	sll	s0,t0,0x9
bfc008a8:	3c126104 	lui	s2,0x6104
bfc008ac:	3652ee00 	ori	s2,s2,0xee00
bfc008b0:	16120664 	bne	s0,s2,bfc02244 <inst_error>
bfc008b4:	00000000 	nop
bfc008b8:	3c088013 	lui	t0,0x8013
bfc008bc:	35085d28 	ori	t0,t0,0x5d28
bfc008c0:	24090019 	li	t1,25
bfc008c4:	00088640 	sll	s0,t0,0x19
bfc008c8:	3c125000 	lui	s2,0x5000
bfc008cc:	1612065d 	bne	s0,s2,bfc02244 <inst_error>
bfc008d0:	00000000 	nop
bfc008d4:	3c08aae1 	lui	t0,0xaae1
bfc008d8:	3508e09a 	ori	t0,t0,0xe09a
bfc008dc:	24090015 	li	t1,21
bfc008e0:	00088540 	sll	s0,t0,0x15
bfc008e4:	3c121340 	lui	s2,0x1340
bfc008e8:	16120656 	bne	s0,s2,bfc02244 <inst_error>
bfc008ec:	00000000 	nop
bfc008f0:	3c088c7c 	lui	t0,0x8c7c
bfc008f4:	3508ab1e 	ori	t0,t0,0xab1e
bfc008f8:	24090003 	li	t1,3
bfc008fc:	000880c0 	sll	s0,t0,0x3
bfc00900:	3c1263e5 	lui	s2,0x63e5
bfc00904:	365258f0 	ori	s2,s2,0x58f0
bfc00908:	1612064e 	bne	s0,s2,bfc02244 <inst_error>
bfc0090c:	00000000 	nop
bfc00910:	3c08b818 	lui	t0,0xb818
bfc00914:	3508b0e2 	ori	t0,t0,0xb0e2
bfc00918:	2409001e 	li	t1,30
bfc0091c:	00088780 	sll	s0,t0,0x1e
bfc00920:	3c128000 	lui	s2,0x8000
bfc00924:	16120647 	bne	s0,s2,bfc02244 <inst_error>
bfc00928:	00000000 	nop
bfc0092c:	3c08e937 	lui	t0,0xe937
bfc00930:	3508b364 	ori	t0,t0,0xb364
bfc00934:	24090001 	li	t1,1
bfc00938:	00088040 	sll	s0,t0,0x1
bfc0093c:	3c12d26f 	lui	s2,0xd26f
bfc00940:	365266c8 	ori	s2,s2,0x66c8
bfc00944:	1612063f 	bne	s0,s2,bfc02244 <inst_error>
bfc00948:	00000000 	nop
bfc0094c:	3c088e14 	lui	t0,0x8e14
bfc00950:	3508bef0 	ori	t0,t0,0xbef0
bfc00954:	24090008 	li	t1,8
bfc00958:	00088200 	sll	s0,t0,0x8
bfc0095c:	3c1214be 	lui	s2,0x14be
bfc00960:	3652f000 	ori	s2,s2,0xf000
bfc00964:	16120637 	bne	s0,s2,bfc02244 <inst_error>
bfc00968:	00000000 	nop
bfc0096c:	3c08fa55 	lui	t0,0xfa55
bfc00970:	3508f471 	ori	t0,t0,0xf471
bfc00974:	2409000c 	li	t1,12
bfc00978:	00088300 	sll	s0,t0,0xc
bfc0097c:	3c125f47 	lui	s2,0x5f47
bfc00980:	36521000 	ori	s2,s2,0x1000
bfc00984:	1612062f 	bne	s0,s2,bfc02244 <inst_error>
bfc00988:	00000000 	nop
bfc0098c:	3c08949f 	lui	t0,0x949f
bfc00990:	3508f1c0 	ori	t0,t0,0xf1c0
bfc00994:	24090011 	li	t1,17
bfc00998:	00088440 	sll	s0,t0,0x11
bfc0099c:	3c12e380 	lui	s2,0xe380
bfc009a0:	16120628 	bne	s0,s2,bfc02244 <inst_error>
bfc009a4:	00000000 	nop
bfc009a8:	3c08e20f 	lui	t0,0xe20f
bfc009ac:	35081000 	ori	t0,t0,0x1000
bfc009b0:	2409000c 	li	t1,12
bfc009b4:	00088300 	sll	s0,t0,0xc
bfc009b8:	3c12f100 	lui	s2,0xf100
bfc009bc:	16120621 	bne	s0,s2,bfc02244 <inst_error>
bfc009c0:	00000000 	nop
bfc009c4:	3c085911 	lui	t0,0x5911
bfc009c8:	35083ddc 	ori	t0,t0,0x3ddc
bfc009cc:	24090007 	li	t1,7
bfc009d0:	000881c0 	sll	s0,t0,0x7
bfc009d4:	3c12889e 	lui	s2,0x889e
bfc009d8:	3652ee00 	ori	s2,s2,0xee00
bfc009dc:	16120619 	bne	s0,s2,bfc02244 <inst_error>
bfc009e0:	00000000 	nop
bfc009e4:	3c083fac 	lui	t0,0x3fac
bfc009e8:	350873a8 	ori	t0,t0,0x73a8
bfc009ec:	24090009 	li	t1,9
bfc009f0:	00088240 	sll	s0,t0,0x9
bfc009f4:	3c1258e7 	lui	s2,0x58e7
bfc009f8:	36525000 	ori	s2,s2,0x5000
bfc009fc:	16120611 	bne	s0,s2,bfc02244 <inst_error>
bfc00a00:	00000000 	nop
bfc00a04:	3c086785 	lui	t0,0x6785
bfc00a08:	35089a1a 	ori	t0,t0,0x9a1a
bfc00a0c:	24090000 	li	t1,0
bfc00a10:	00088000 	sll	s0,t0,0x0
bfc00a14:	3c126785 	lui	s2,0x6785
bfc00a18:	36529a1a 	ori	s2,s2,0x9a1a
bfc00a1c:	16120609 	bne	s0,s2,bfc02244 <inst_error>
bfc00a20:	00000000 	nop
bfc00a24:	3c08cf12 	lui	t0,0xcf12
bfc00a28:	35080200 	ori	t0,t0,0x200
bfc00a2c:	2409000b 	li	t1,11
bfc00a30:	000882c0 	sll	s0,t0,0xb
bfc00a34:	3c129010 	lui	s2,0x9010
bfc00a38:	16120602 	bne	s0,s2,bfc02244 <inst_error>
bfc00a3c:	00000000 	nop
bfc00a40:	3c086072 	lui	t0,0x6072
bfc00a44:	3508ca26 	ori	t0,t0,0xca26
bfc00a48:	24090002 	li	t1,2
bfc00a4c:	00088080 	sll	s0,t0,0x2
bfc00a50:	3c1281cb 	lui	s2,0x81cb
bfc00a54:	36522898 	ori	s2,s2,0x2898
bfc00a58:	161205fa 	bne	s0,s2,bfc02244 <inst_error>
bfc00a5c:	00000000 	nop
bfc00a60:	3c083f79 	lui	t0,0x3f79
bfc00a64:	3508cac0 	ori	t0,t0,0xcac0
bfc00a68:	24090002 	li	t1,2
bfc00a6c:	00088080 	sll	s0,t0,0x2
bfc00a70:	3c12fde7 	lui	s2,0xfde7
bfc00a74:	36522b00 	ori	s2,s2,0x2b00
bfc00a78:	161205f2 	bne	s0,s2,bfc02244 <inst_error>
bfc00a7c:	00000000 	nop
bfc00a80:	3c08d204 	lui	t0,0xd204
bfc00a84:	3508130c 	ori	t0,t0,0x130c
bfc00a88:	24090019 	li	t1,25
bfc00a8c:	00088640 	sll	s0,t0,0x19
bfc00a90:	3c121800 	lui	s2,0x1800
bfc00a94:	161205eb 	bne	s0,s2,bfc02244 <inst_error>
bfc00a98:	00000000 	nop
bfc00a9c:	3c086594 	lui	t0,0x6594
bfc00aa0:	3508c514 	ori	t0,t0,0xc514
bfc00aa4:	2409001f 	li	t1,31
bfc00aa8:	000887c0 	sll	s0,t0,0x1f
bfc00aac:	24120000 	li	s2,0
bfc00ab0:	161205e4 	bne	s0,s2,bfc02244 <inst_error>
bfc00ab4:	00000000 	nop
bfc00ab8:	3c086d4a 	lui	t0,0x6d4a
bfc00abc:	35088ffc 	ori	t0,t0,0x8ffc
bfc00ac0:	24090007 	li	t1,7
bfc00ac4:	000881c0 	sll	s0,t0,0x7
bfc00ac8:	3c12a547 	lui	s2,0xa547
bfc00acc:	3652fe00 	ori	s2,s2,0xfe00
bfc00ad0:	161205dc 	bne	s0,s2,bfc02244 <inst_error>
bfc00ad4:	00000000 	nop
bfc00ad8:	3c08dd9d 	lui	t0,0xdd9d
bfc00adc:	35080cc0 	ori	t0,t0,0xcc0
bfc00ae0:	24090008 	li	t1,8
bfc00ae4:	00088200 	sll	s0,t0,0x8
bfc00ae8:	3c129d0c 	lui	s2,0x9d0c
bfc00aec:	3652c000 	ori	s2,s2,0xc000
bfc00af0:	161205d4 	bne	s0,s2,bfc02244 <inst_error>
bfc00af4:	00000000 	nop
bfc00af8:	3c08c2cb 	lui	t0,0xc2cb
bfc00afc:	3508a0de 	ori	t0,t0,0xa0de
bfc00b00:	24090014 	li	t1,20
bfc00b04:	00088500 	sll	s0,t0,0x14
bfc00b08:	3c120de0 	lui	s2,0xde0
bfc00b0c:	161205cd 	bne	s0,s2,bfc02244 <inst_error>
bfc00b10:	00000000 	nop
bfc00b14:	3c089038 	lui	t0,0x9038
bfc00b18:	3508d880 	ori	t0,t0,0xd880
bfc00b1c:	24090003 	li	t1,3
bfc00b20:	000880c0 	sll	s0,t0,0x3
bfc00b24:	3c1281c6 	lui	s2,0x81c6
bfc00b28:	3652c400 	ori	s2,s2,0xc400
bfc00b2c:	161205c5 	bne	s0,s2,bfc02244 <inst_error>
bfc00b30:	00000000 	nop
bfc00b34:	3c0859ee 	lui	t0,0x59ee
bfc00b38:	35084cef 	ori	t0,t0,0x4cef
bfc00b3c:	24090012 	li	t1,18
bfc00b40:	00088480 	sll	s0,t0,0x12
bfc00b44:	3c1233bc 	lui	s2,0x33bc
bfc00b48:	161205be 	bne	s0,s2,bfc02244 <inst_error>
bfc00b4c:	00000000 	nop
bfc00b50:	3c089d2a 	lui	t0,0x9d2a
bfc00b54:	35082a18 	ori	t0,t0,0x2a18
bfc00b58:	24090002 	li	t1,2
bfc00b5c:	00088080 	sll	s0,t0,0x2
bfc00b60:	3c1274a8 	lui	s2,0x74a8
bfc00b64:	3652a860 	ori	s2,s2,0xa860
bfc00b68:	161205b6 	bne	s0,s2,bfc02244 <inst_error>
bfc00b6c:	00000000 	nop
bfc00b70:	3c08677a 	lui	t0,0x677a
bfc00b74:	350848b4 	ori	t0,t0,0x48b4
bfc00b78:	2409001c 	li	t1,28
bfc00b7c:	00088700 	sll	s0,t0,0x1c
bfc00b80:	3c124000 	lui	s2,0x4000
bfc00b84:	161205af 	bne	s0,s2,bfc02244 <inst_error>
bfc00b88:	00000000 	nop
bfc00b8c:	3c084f84 	lui	t0,0x4f84
bfc00b90:	3508d0f0 	ori	t0,t0,0xd0f0
bfc00b94:	24090004 	li	t1,4
bfc00b98:	00088100 	sll	s0,t0,0x4
bfc00b9c:	3c12f84d 	lui	s2,0xf84d
bfc00ba0:	36520f00 	ori	s2,s2,0xf00
bfc00ba4:	161205a7 	bne	s0,s2,bfc02244 <inst_error>
bfc00ba8:	00000000 	nop
bfc00bac:	3c08cb83 	lui	t0,0xcb83
bfc00bb0:	35080868 	ori	t0,t0,0x868
bfc00bb4:	24090004 	li	t1,4
bfc00bb8:	00088100 	sll	s0,t0,0x4
bfc00bbc:	3c12b830 	lui	s2,0xb830
bfc00bc0:	36528680 	ori	s2,s2,0x8680
bfc00bc4:	1612059f 	bne	s0,s2,bfc02244 <inst_error>
bfc00bc8:	00000000 	nop
bfc00bcc:	3c08343b 	lui	t0,0x343b
bfc00bd0:	35082320 	ori	t0,t0,0x2320
bfc00bd4:	2409000a 	li	t1,10
bfc00bd8:	00088280 	sll	s0,t0,0xa
bfc00bdc:	3c12ec8c 	lui	s2,0xec8c
bfc00be0:	36528000 	ori	s2,s2,0x8000
bfc00be4:	16120597 	bne	s0,s2,bfc02244 <inst_error>
bfc00be8:	00000000 	nop
bfc00bec:	3c08df6e 	lui	t0,0xdf6e
bfc00bf0:	35080ee0 	ori	t0,t0,0xee0
bfc00bf4:	24090016 	li	t1,22
bfc00bf8:	00088580 	sll	s0,t0,0x16
bfc00bfc:	3c12b800 	lui	s2,0xb800
bfc00c00:	16120590 	bne	s0,s2,bfc02244 <inst_error>
bfc00c04:	00000000 	nop
bfc00c08:	3c086965 	lui	t0,0x6965
bfc00c0c:	3508d880 	ori	t0,t0,0xd880
bfc00c10:	2409001a 	li	t1,26
bfc00c14:	00088680 	sll	s0,t0,0x1a
bfc00c18:	24120000 	li	s2,0
bfc00c1c:	16120589 	bne	s0,s2,bfc02244 <inst_error>
bfc00c20:	00000000 	nop
bfc00c24:	3c08b20d 	lui	t0,0xb20d
bfc00c28:	35083240 	ori	t0,t0,0x3240
bfc00c2c:	24090003 	li	t1,3
bfc00c30:	000880c0 	sll	s0,t0,0x3
bfc00c34:	3c129069 	lui	s2,0x9069
bfc00c38:	36529200 	ori	s2,s2,0x9200
bfc00c3c:	16120581 	bne	s0,s2,bfc02244 <inst_error>
bfc00c40:	00000000 	nop
bfc00c44:	3c083f70 	lui	t0,0x3f70
bfc00c48:	35081158 	ori	t0,t0,0x1158
bfc00c4c:	24090000 	li	t1,0
bfc00c50:	00088000 	sll	s0,t0,0x0
bfc00c54:	3c123f70 	lui	s2,0x3f70
bfc00c58:	36521158 	ori	s2,s2,0x1158
bfc00c5c:	16120579 	bne	s0,s2,bfc02244 <inst_error>
bfc00c60:	00000000 	nop
bfc00c64:	3c08a9e4 	lui	t0,0xa9e4
bfc00c68:	3508a438 	ori	t0,t0,0xa438
bfc00c6c:	2409001b 	li	t1,27
bfc00c70:	000886c0 	sll	s0,t0,0x1b
bfc00c74:	3c12c000 	lui	s2,0xc000
bfc00c78:	16120572 	bne	s0,s2,bfc02244 <inst_error>
bfc00c7c:	00000000 	nop
bfc00c80:	3c087b03 	lui	t0,0x7b03
bfc00c84:	350898d8 	ori	t0,t0,0x98d8
bfc00c88:	24090000 	li	t1,0
bfc00c8c:	00088000 	sll	s0,t0,0x0
bfc00c90:	3c127b03 	lui	s2,0x7b03
bfc00c94:	365298d8 	ori	s2,s2,0x98d8
bfc00c98:	1612056a 	bne	s0,s2,bfc02244 <inst_error>
bfc00c9c:	00000000 	nop
bfc00ca0:	3c0865cc 	lui	t0,0x65cc
bfc00ca4:	35082f00 	ori	t0,t0,0x2f00
bfc00ca8:	2409000c 	li	t1,12
bfc00cac:	00088300 	sll	s0,t0,0xc
bfc00cb0:	3c12c2f0 	lui	s2,0xc2f0
bfc00cb4:	16120563 	bne	s0,s2,bfc02244 <inst_error>
bfc00cb8:	00000000 	nop
bfc00cbc:	3c086763 	lui	t0,0x6763
bfc00cc0:	35082ffb 	ori	t0,t0,0x2ffb
bfc00cc4:	24090013 	li	t1,19
bfc00cc8:	000884c0 	sll	s0,t0,0x13
bfc00ccc:	3c127fd8 	lui	s2,0x7fd8
bfc00cd0:	1612055c 	bne	s0,s2,bfc02244 <inst_error>
bfc00cd4:	00000000 	nop
bfc00cd8:	3c0822c6 	lui	t0,0x22c6
bfc00cdc:	3508a208 	ori	t0,t0,0xa208
bfc00ce0:	2409000d 	li	t1,13
bfc00ce4:	00088340 	sll	s0,t0,0xd
bfc00ce8:	3c12d441 	lui	s2,0xd441
bfc00cec:	16120555 	bne	s0,s2,bfc02244 <inst_error>
bfc00cf0:	00000000 	nop
bfc00cf4:	3c08990a 	lui	t0,0x990a
bfc00cf8:	350839f7 	ori	t0,t0,0x39f7
bfc00cfc:	24090008 	li	t1,8
bfc00d00:	00088200 	sll	s0,t0,0x8
bfc00d04:	3c120a39 	lui	s2,0xa39
bfc00d08:	3652f700 	ori	s2,s2,0xf700
bfc00d0c:	1612054d 	bne	s0,s2,bfc02244 <inst_error>
bfc00d10:	00000000 	nop
bfc00d14:	3c08e4c3 	lui	t0,0xe4c3
bfc00d18:	3508d10c 	ori	t0,t0,0xd10c
bfc00d1c:	24090017 	li	t1,23
bfc00d20:	000885c0 	sll	s0,t0,0x17
bfc00d24:	3c128600 	lui	s2,0x8600
bfc00d28:	16120546 	bne	s0,s2,bfc02244 <inst_error>
bfc00d2c:	00000000 	nop
bfc00d30:	3c08955c 	lui	t0,0x955c
bfc00d34:	35083456 	ori	t0,t0,0x3456
bfc00d38:	2409001a 	li	t1,26
bfc00d3c:	00088680 	sll	s0,t0,0x1a
bfc00d40:	3c125800 	lui	s2,0x5800
bfc00d44:	1612053f 	bne	s0,s2,bfc02244 <inst_error>
bfc00d48:	00000000 	nop
bfc00d4c:	3c0833ce 	lui	t0,0x33ce
bfc00d50:	35086412 	ori	t0,t0,0x6412
bfc00d54:	24090017 	li	t1,23
bfc00d58:	000885c0 	sll	s0,t0,0x17
bfc00d5c:	3c120900 	lui	s2,0x900
bfc00d60:	16120538 	bne	s0,s2,bfc02244 <inst_error>
bfc00d64:	00000000 	nop
bfc00d68:	3c0867b4 	lui	t0,0x67b4
bfc00d6c:	35081200 	ori	t0,t0,0x1200
bfc00d70:	24090016 	li	t1,22
bfc00d74:	00088580 	sll	s0,t0,0x16
bfc00d78:	3c128000 	lui	s2,0x8000
bfc00d7c:	16120531 	bne	s0,s2,bfc02244 <inst_error>
bfc00d80:	00000000 	nop
bfc00d84:	3c080380 	lui	t0,0x380
bfc00d88:	3508d8b8 	ori	t0,t0,0xd8b8
bfc00d8c:	24090015 	li	t1,21
bfc00d90:	00088540 	sll	s0,t0,0x15
bfc00d94:	3c121700 	lui	s2,0x1700
bfc00d98:	1612052a 	bne	s0,s2,bfc02244 <inst_error>
bfc00d9c:	00000000 	nop
bfc00da0:	3c08da01 	lui	t0,0xda01
bfc00da4:	350841f0 	ori	t0,t0,0x41f0
bfc00da8:	24090016 	li	t1,22
bfc00dac:	00088580 	sll	s0,t0,0x16
bfc00db0:	3c127c00 	lui	s2,0x7c00
bfc00db4:	16120523 	bne	s0,s2,bfc02244 <inst_error>
bfc00db8:	00000000 	nop
bfc00dbc:	3c084c6a 	lui	t0,0x4c6a
bfc00dc0:	35084618 	ori	t0,t0,0x4618
bfc00dc4:	24090017 	li	t1,23
bfc00dc8:	000885c0 	sll	s0,t0,0x17
bfc00dcc:	3c120c00 	lui	s2,0xc00
bfc00dd0:	1612051c 	bne	s0,s2,bfc02244 <inst_error>
bfc00dd4:	00000000 	nop
bfc00dd8:	3c08c417 	lui	t0,0xc417
bfc00ddc:	35083a6a 	ori	t0,t0,0x3a6a
bfc00de0:	24090008 	li	t1,8
bfc00de4:	00088200 	sll	s0,t0,0x8
bfc00de8:	3c12173a 	lui	s2,0x173a
bfc00dec:	36526a00 	ori	s2,s2,0x6a00
bfc00df0:	16120514 	bne	s0,s2,bfc02244 <inst_error>
bfc00df4:	00000000 	nop
bfc00df8:	3c08c79f 	lui	t0,0xc79f
bfc00dfc:	350879e0 	ori	t0,t0,0x79e0
bfc00e00:	2409001a 	li	t1,26
bfc00e04:	00088680 	sll	s0,t0,0x1a
bfc00e08:	3c128000 	lui	s2,0x8000
bfc00e0c:	1612050d 	bne	s0,s2,bfc02244 <inst_error>
bfc00e10:	00000000 	nop
bfc00e14:	3c0856db 	lui	t0,0x56db
bfc00e18:	35085516 	ori	t0,t0,0x5516
bfc00e1c:	24090001 	li	t1,1
bfc00e20:	00088040 	sll	s0,t0,0x1
bfc00e24:	3c12adb6 	lui	s2,0xadb6
bfc00e28:	3652aa2c 	ori	s2,s2,0xaa2c
bfc00e2c:	16120505 	bne	s0,s2,bfc02244 <inst_error>
bfc00e30:	00000000 	nop
bfc00e34:	3c08e5c6 	lui	t0,0xe5c6
bfc00e38:	3508fa78 	ori	t0,t0,0xfa78
bfc00e3c:	2409001f 	li	t1,31
bfc00e40:	000887c0 	sll	s0,t0,0x1f
bfc00e44:	24120000 	li	s2,0
bfc00e48:	161204fe 	bne	s0,s2,bfc02244 <inst_error>
bfc00e4c:	00000000 	nop
bfc00e50:	3c0898dd 	lui	t0,0x98dd
bfc00e54:	35080099 	ori	t0,t0,0x99
bfc00e58:	24090013 	li	t1,19
bfc00e5c:	000884c0 	sll	s0,t0,0x13
bfc00e60:	3c1204c8 	lui	s2,0x4c8
bfc00e64:	161204f7 	bne	s0,s2,bfc02244 <inst_error>
bfc00e68:	00000000 	nop
bfc00e6c:	3c086adb 	lui	t0,0x6adb
bfc00e70:	350841c0 	ori	t0,t0,0x41c0
bfc00e74:	24090019 	li	t1,25
bfc00e78:	00088640 	sll	s0,t0,0x19
bfc00e7c:	3c128000 	lui	s2,0x8000
bfc00e80:	161204f0 	bne	s0,s2,bfc02244 <inst_error>
bfc00e84:	00000000 	nop
bfc00e88:	3c0854d8 	lui	t0,0x54d8
bfc00e8c:	35084300 	ori	t0,t0,0x4300
bfc00e90:	2409000e 	li	t1,14
bfc00e94:	00088380 	sll	s0,t0,0xe
bfc00e98:	3c1210c0 	lui	s2,0x10c0
bfc00e9c:	161204e9 	bne	s0,s2,bfc02244 <inst_error>
bfc00ea0:	00000000 	nop
bfc00ea4:	3c087fb7 	lui	t0,0x7fb7
bfc00ea8:	350866c6 	ori	t0,t0,0x66c6
bfc00eac:	24090011 	li	t1,17
bfc00eb0:	00088440 	sll	s0,t0,0x11
bfc00eb4:	3c12cd8c 	lui	s2,0xcd8c
bfc00eb8:	161204e2 	bne	s0,s2,bfc02244 <inst_error>
bfc00ebc:	00000000 	nop
bfc00ec0:	3c08e4ee 	lui	t0,0xe4ee
bfc00ec4:	35086ba6 	ori	t0,t0,0x6ba6
bfc00ec8:	2409001d 	li	t1,29
bfc00ecc:	00088740 	sll	s0,t0,0x1d
bfc00ed0:	3c12c000 	lui	s2,0xc000
bfc00ed4:	161204db 	bne	s0,s2,bfc02244 <inst_error>
bfc00ed8:	00000000 	nop
bfc00edc:	3c0868ee 	lui	t0,0x68ee
bfc00ee0:	35085e60 	ori	t0,t0,0x5e60
bfc00ee4:	2409001b 	li	t1,27
bfc00ee8:	000886c0 	sll	s0,t0,0x1b
bfc00eec:	24120000 	li	s2,0
bfc00ef0:	161204d4 	bne	s0,s2,bfc02244 <inst_error>
bfc00ef4:	00000000 	nop
bfc00ef8:	3c08fb0f 	lui	t0,0xfb0f
bfc00efc:	35080089 	ori	t0,t0,0x89
bfc00f00:	2409001e 	li	t1,30
bfc00f04:	00088780 	sll	s0,t0,0x1e
bfc00f08:	3c124000 	lui	s2,0x4000
bfc00f0c:	161204cd 	bne	s0,s2,bfc02244 <inst_error>
bfc00f10:	00000000 	nop
bfc00f14:	3c08d98c 	lui	t0,0xd98c
bfc00f18:	35081ee0 	ori	t0,t0,0x1ee0
bfc00f1c:	24090000 	li	t1,0
bfc00f20:	00088000 	sll	s0,t0,0x0
bfc00f24:	3c12d98c 	lui	s2,0xd98c
bfc00f28:	36521ee0 	ori	s2,s2,0x1ee0
bfc00f2c:	161204c5 	bne	s0,s2,bfc02244 <inst_error>
bfc00f30:	00000000 	nop
bfc00f34:	3c086dad 	lui	t0,0x6dad
bfc00f38:	35086a22 	ori	t0,t0,0x6a22
bfc00f3c:	2409000c 	li	t1,12
bfc00f40:	00088300 	sll	s0,t0,0xc
bfc00f44:	3c12d6a2 	lui	s2,0xd6a2
bfc00f48:	36522000 	ori	s2,s2,0x2000
bfc00f4c:	161204bd 	bne	s0,s2,bfc02244 <inst_error>
bfc00f50:	00000000 	nop
bfc00f54:	3c084e1b 	lui	t0,0x4e1b
bfc00f58:	3508c194 	ori	t0,t0,0xc194
bfc00f5c:	2409000b 	li	t1,11
bfc00f60:	000882c0 	sll	s0,t0,0xb
bfc00f64:	3c12de0c 	lui	s2,0xde0c
bfc00f68:	3652a000 	ori	s2,s2,0xa000
bfc00f6c:	161204b5 	bne	s0,s2,bfc02244 <inst_error>
bfc00f70:	00000000 	nop
bfc00f74:	3c08bee5 	lui	t0,0xbee5
bfc00f78:	3508d930 	ori	t0,t0,0xd930
bfc00f7c:	2409001c 	li	t1,28
bfc00f80:	00088700 	sll	s0,t0,0x1c
bfc00f84:	24120000 	li	s2,0
bfc00f88:	161204ae 	bne	s0,s2,bfc02244 <inst_error>
bfc00f8c:	00000000 	nop
bfc00f90:	3c08bcc5 	lui	t0,0xbcc5
bfc00f94:	35083010 	ori	t0,t0,0x3010
bfc00f98:	2409001f 	li	t1,31
bfc00f9c:	000887c0 	sll	s0,t0,0x1f
bfc00fa0:	24120000 	li	s2,0
bfc00fa4:	161204a7 	bne	s0,s2,bfc02244 <inst_error>
bfc00fa8:	00000000 	nop
bfc00fac:	3c082dae 	lui	t0,0x2dae
bfc00fb0:	35087637 	ori	t0,t0,0x7637
bfc00fb4:	2409000b 	li	t1,11
bfc00fb8:	000882c0 	sll	s0,t0,0xb
bfc00fbc:	3c1273b1 	lui	s2,0x73b1
bfc00fc0:	3652b800 	ori	s2,s2,0xb800
bfc00fc4:	1612049f 	bne	s0,s2,bfc02244 <inst_error>
bfc00fc8:	00000000 	nop
bfc00fcc:	3c0842a8 	lui	t0,0x42a8
bfc00fd0:	35083300 	ori	t0,t0,0x3300
bfc00fd4:	24090005 	li	t1,5
bfc00fd8:	00088140 	sll	s0,t0,0x5
bfc00fdc:	3c125506 	lui	s2,0x5506
bfc00fe0:	36526000 	ori	s2,s2,0x6000
bfc00fe4:	16120497 	bne	s0,s2,bfc02244 <inst_error>
bfc00fe8:	00000000 	nop
bfc00fec:	3c08ce7d 	lui	t0,0xce7d
bfc00ff0:	35088cc7 	ori	t0,t0,0x8cc7
bfc00ff4:	2409001d 	li	t1,29
bfc00ff8:	00088740 	sll	s0,t0,0x1d
bfc00ffc:	3c12e000 	lui	s2,0xe000
bfc01000:	16120490 	bne	s0,s2,bfc02244 <inst_error>
bfc01004:	00000000 	nop
bfc01008:	3c08a2f9 	lui	t0,0xa2f9
bfc0100c:	350828b2 	ori	t0,t0,0x28b2
bfc01010:	2409001e 	li	t1,30
bfc01014:	00088780 	sll	s0,t0,0x1e
bfc01018:	3c128000 	lui	s2,0x8000
bfc0101c:	16120489 	bne	s0,s2,bfc02244 <inst_error>
bfc01020:	00000000 	nop
bfc01024:	3c081622 	lui	t0,0x1622
bfc01028:	3508e39c 	ori	t0,t0,0xe39c
bfc0102c:	2409000e 	li	t1,14
bfc01030:	00088380 	sll	s0,t0,0xe
bfc01034:	3c12b8e7 	lui	s2,0xb8e7
bfc01038:	16120482 	bne	s0,s2,bfc02244 <inst_error>
bfc0103c:	00000000 	nop
bfc01040:	3c08b0ab 	lui	t0,0xb0ab
bfc01044:	3508fdca 	ori	t0,t0,0xfdca
bfc01048:	24090009 	li	t1,9
bfc0104c:	00088240 	sll	s0,t0,0x9
bfc01050:	3c1257fb 	lui	s2,0x57fb
bfc01054:	36529400 	ori	s2,s2,0x9400
bfc01058:	1612047a 	bne	s0,s2,bfc02244 <inst_error>
bfc0105c:	00000000 	nop
bfc01060:	3c089faa 	lui	t0,0x9faa
bfc01064:	35085a80 	ori	t0,t0,0x5a80
bfc01068:	24090006 	li	t1,6
bfc0106c:	00088180 	sll	s0,t0,0x6
bfc01070:	3c12ea96 	lui	s2,0xea96
bfc01074:	3652a000 	ori	s2,s2,0xa000
bfc01078:	16120472 	bne	s0,s2,bfc02244 <inst_error>
bfc0107c:	00000000 	nop
bfc01080:	3c083354 	lui	t0,0x3354
bfc01084:	3508c094 	ori	t0,t0,0xc094
bfc01088:	2409001b 	li	t1,27
bfc0108c:	000886c0 	sll	s0,t0,0x1b
bfc01090:	3c12a000 	lui	s2,0xa000
bfc01094:	1612046b 	bne	s0,s2,bfc02244 <inst_error>
bfc01098:	00000000 	nop
bfc0109c:	3c084a49 	lui	t0,0x4a49
bfc010a0:	35081cb8 	ori	t0,t0,0x1cb8
bfc010a4:	2409001e 	li	t1,30
bfc010a8:	00088780 	sll	s0,t0,0x1e
bfc010ac:	24120000 	li	s2,0
bfc010b0:	16120464 	bne	s0,s2,bfc02244 <inst_error>
bfc010b4:	00000000 	nop
bfc010b8:	3c087dd8 	lui	t0,0x7dd8
bfc010bc:	3508aa30 	ori	t0,t0,0xaa30
bfc010c0:	24090003 	li	t1,3
bfc010c4:	000880c0 	sll	s0,t0,0x3
bfc010c8:	3c12eec5 	lui	s2,0xeec5
bfc010cc:	36525180 	ori	s2,s2,0x5180
bfc010d0:	1612045c 	bne	s0,s2,bfc02244 <inst_error>
bfc010d4:	00000000 	nop
bfc010d8:	3c08bdac 	lui	t0,0xbdac
bfc010dc:	35088ea0 	ori	t0,t0,0x8ea0
bfc010e0:	2409000e 	li	t1,14
bfc010e4:	00088380 	sll	s0,t0,0xe
bfc010e8:	3c1223a8 	lui	s2,0x23a8
bfc010ec:	16120455 	bne	s0,s2,bfc02244 <inst_error>
bfc010f0:	00000000 	nop
bfc010f4:	3c08bf8d 	lui	t0,0xbf8d
bfc010f8:	35081106 	ori	t0,t0,0x1106
bfc010fc:	24090007 	li	t1,7
bfc01100:	000881c0 	sll	s0,t0,0x7
bfc01104:	3c12c688 	lui	s2,0xc688
bfc01108:	36528300 	ori	s2,s2,0x8300
bfc0110c:	1612044d 	bne	s0,s2,bfc02244 <inst_error>
bfc01110:	00000000 	nop
bfc01114:	3c087357 	lui	t0,0x7357
bfc01118:	3508e674 	ori	t0,t0,0xe674
bfc0111c:	2409000b 	li	t1,11
bfc01120:	000882c0 	sll	s0,t0,0xb
bfc01124:	3c12bf33 	lui	s2,0xbf33
bfc01128:	3652a000 	ori	s2,s2,0xa000
bfc0112c:	16120445 	bne	s0,s2,bfc02244 <inst_error>
bfc01130:	00000000 	nop
bfc01134:	3c088120 	lui	t0,0x8120
bfc01138:	3508994c 	ori	t0,t0,0x994c
bfc0113c:	24090016 	li	t1,22
bfc01140:	00088580 	sll	s0,t0,0x16
bfc01144:	3c125300 	lui	s2,0x5300
bfc01148:	1612043e 	bne	s0,s2,bfc02244 <inst_error>
bfc0114c:	00000000 	nop
bfc01150:	3c08ee76 	lui	t0,0xee76
bfc01154:	35088d3c 	ori	t0,t0,0x8d3c
bfc01158:	24090005 	li	t1,5
bfc0115c:	00088140 	sll	s0,t0,0x5
bfc01160:	3c12ced1 	lui	s2,0xced1
bfc01164:	3652a780 	ori	s2,s2,0xa780
bfc01168:	16120436 	bne	s0,s2,bfc02244 <inst_error>
bfc0116c:	00000000 	nop
bfc01170:	3c0838dc 	lui	t0,0x38dc
bfc01174:	35086cfc 	ori	t0,t0,0x6cfc
bfc01178:	24090009 	li	t1,9
bfc0117c:	00088240 	sll	s0,t0,0x9
bfc01180:	3c12b8d9 	lui	s2,0xb8d9
bfc01184:	3652f800 	ori	s2,s2,0xf800
bfc01188:	1612042e 	bne	s0,s2,bfc02244 <inst_error>
bfc0118c:	00000000 	nop
bfc01190:	3c08a09b 	lui	t0,0xa09b
bfc01194:	35087890 	ori	t0,t0,0x7890
bfc01198:	2409000f 	li	t1,15
bfc0119c:	000883c0 	sll	s0,t0,0xf
bfc011a0:	3c12bc48 	lui	s2,0xbc48
bfc011a4:	16120427 	bne	s0,s2,bfc02244 <inst_error>
bfc011a8:	00000000 	nop
bfc011ac:	3c0863cb 	lui	t0,0x63cb
bfc011b0:	35088d00 	ori	t0,t0,0x8d00
bfc011b4:	24090002 	li	t1,2
bfc011b8:	00088080 	sll	s0,t0,0x2
bfc011bc:	3c128f2e 	lui	s2,0x8f2e
bfc011c0:	36523400 	ori	s2,s2,0x3400
bfc011c4:	1612041f 	bne	s0,s2,bfc02244 <inst_error>
bfc011c8:	00000000 	nop
bfc011cc:	3c089db2 	lui	t0,0x9db2
bfc011d0:	350868b0 	ori	t0,t0,0x68b0
bfc011d4:	24090012 	li	t1,18
bfc011d8:	00088480 	sll	s0,t0,0x12
bfc011dc:	3c12a2c0 	lui	s2,0xa2c0
bfc011e0:	16120418 	bne	s0,s2,bfc02244 <inst_error>
bfc011e4:	00000000 	nop
bfc011e8:	3c08e6d7 	lui	t0,0xe6d7
bfc011ec:	35086fc7 	ori	t0,t0,0x6fc7
bfc011f0:	24090011 	li	t1,17
bfc011f4:	00088440 	sll	s0,t0,0x11
bfc011f8:	3c12df8e 	lui	s2,0xdf8e
bfc011fc:	16120411 	bne	s0,s2,bfc02244 <inst_error>
bfc01200:	00000000 	nop
bfc01204:	3c08c101 	lui	t0,0xc101
bfc01208:	35089e51 	ori	t0,t0,0x9e51
bfc0120c:	2409001a 	li	t1,26
bfc01210:	00088680 	sll	s0,t0,0x1a
bfc01214:	3c124400 	lui	s2,0x4400
bfc01218:	1612040a 	bne	s0,s2,bfc02244 <inst_error>
bfc0121c:	00000000 	nop
bfc01220:	3c08fc9e 	lui	t0,0xfc9e
bfc01224:	350891a0 	ori	t0,t0,0x91a0
bfc01228:	24090011 	li	t1,17
bfc0122c:	00088440 	sll	s0,t0,0x11
bfc01230:	3c122340 	lui	s2,0x2340
bfc01234:	16120403 	bne	s0,s2,bfc02244 <inst_error>
bfc01238:	00000000 	nop
bfc0123c:	3c0841c5 	lui	t0,0x41c5
bfc01240:	35084e60 	ori	t0,t0,0x4e60
bfc01244:	24090005 	li	t1,5
bfc01248:	00088140 	sll	s0,t0,0x5
bfc0124c:	3c1238a9 	lui	s2,0x38a9
bfc01250:	3652cc00 	ori	s2,s2,0xcc00
bfc01254:	161203fb 	bne	s0,s2,bfc02244 <inst_error>
bfc01258:	00000000 	nop
bfc0125c:	3c080a92 	lui	t0,0xa92
bfc01260:	3508bc39 	ori	t0,t0,0xbc39
bfc01264:	2409001d 	li	t1,29
bfc01268:	00088740 	sll	s0,t0,0x1d
bfc0126c:	3c122000 	lui	s2,0x2000
bfc01270:	161203f4 	bne	s0,s2,bfc02244 <inst_error>
bfc01274:	00000000 	nop
bfc01278:	3c08ba53 	lui	t0,0xba53
bfc0127c:	3508beb6 	ori	t0,t0,0xbeb6
bfc01280:	24090015 	li	t1,21
bfc01284:	00088540 	sll	s0,t0,0x15
bfc01288:	3c12d6c0 	lui	s2,0xd6c0
bfc0128c:	161203ed 	bne	s0,s2,bfc02244 <inst_error>
bfc01290:	00000000 	nop
bfc01294:	3c08d1ef 	lui	t0,0xd1ef
bfc01298:	35086870 	ori	t0,t0,0x6870
bfc0129c:	24090005 	li	t1,5
bfc012a0:	00088140 	sll	s0,t0,0x5
bfc012a4:	3c123ded 	lui	s2,0x3ded
bfc012a8:	36520e00 	ori	s2,s2,0xe00
bfc012ac:	161203e5 	bne	s0,s2,bfc02244 <inst_error>
bfc012b0:	00000000 	nop
bfc012b4:	3c0843f6 	lui	t0,0x43f6
bfc012b8:	3508d1b4 	ori	t0,t0,0xd1b4
bfc012bc:	2409001d 	li	t1,29
bfc012c0:	00088740 	sll	s0,t0,0x1d
bfc012c4:	3c128000 	lui	s2,0x8000
bfc012c8:	161203de 	bne	s0,s2,bfc02244 <inst_error>
bfc012cc:	00000000 	nop
bfc012d0:	3c0859c5 	lui	t0,0x59c5
bfc012d4:	3508b394 	ori	t0,t0,0xb394
bfc012d8:	24090012 	li	t1,18
bfc012dc:	00088480 	sll	s0,t0,0x12
bfc012e0:	3c12ce50 	lui	s2,0xce50
bfc012e4:	161203d7 	bne	s0,s2,bfc02244 <inst_error>
bfc012e8:	00000000 	nop
bfc012ec:	3c084e9c 	lui	t0,0x4e9c
bfc012f0:	3508b07a 	ori	t0,t0,0xb07a
bfc012f4:	24090011 	li	t1,17
bfc012f8:	00088440 	sll	s0,t0,0x11
bfc012fc:	3c1260f4 	lui	s2,0x60f4
bfc01300:	161203d0 	bne	s0,s2,bfc02244 <inst_error>
bfc01304:	00000000 	nop
bfc01308:	3c08d8bc 	lui	t0,0xd8bc
bfc0130c:	35089780 	ori	t0,t0,0x9780
bfc01310:	2409000a 	li	t1,10
bfc01314:	00088280 	sll	s0,t0,0xa
bfc01318:	3c12f25e 	lui	s2,0xf25e
bfc0131c:	161203c9 	bne	s0,s2,bfc02244 <inst_error>
bfc01320:	00000000 	nop
bfc01324:	3c089d95 	lui	t0,0x9d95
bfc01328:	35082d78 	ori	t0,t0,0x2d78
bfc0132c:	24090012 	li	t1,18
bfc01330:	00088480 	sll	s0,t0,0x12
bfc01334:	3c12b5e0 	lui	s2,0xb5e0
bfc01338:	161203c2 	bne	s0,s2,bfc02244 <inst_error>
bfc0133c:	00000000 	nop
bfc01340:	3c08ed9c 	lui	t0,0xed9c
bfc01344:	3508d568 	ori	t0,t0,0xd568
bfc01348:	2409001c 	li	t1,28
bfc0134c:	00088700 	sll	s0,t0,0x1c
bfc01350:	3c128000 	lui	s2,0x8000
bfc01354:	161203bb 	bne	s0,s2,bfc02244 <inst_error>
bfc01358:	00000000 	nop
bfc0135c:	3c08297f 	lui	t0,0x297f
bfc01360:	35086323 	ori	t0,t0,0x6323
bfc01364:	24090019 	li	t1,25
bfc01368:	00088640 	sll	s0,t0,0x19
bfc0136c:	3c124600 	lui	s2,0x4600
bfc01370:	161203b4 	bne	s0,s2,bfc02244 <inst_error>
bfc01374:	00000000 	nop
bfc01378:	3c084b52 	lui	t0,0x4b52
bfc0137c:	3508cc52 	ori	t0,t0,0xcc52
bfc01380:	24090016 	li	t1,22
bfc01384:	00088580 	sll	s0,t0,0x16
bfc01388:	3c121480 	lui	s2,0x1480
bfc0138c:	161203ad 	bne	s0,s2,bfc02244 <inst_error>
bfc01390:	00000000 	nop
bfc01394:	3c08de37 	lui	t0,0xde37
bfc01398:	3508c5c4 	ori	t0,t0,0xc5c4
bfc0139c:	24090003 	li	t1,3
bfc013a0:	000880c0 	sll	s0,t0,0x3
bfc013a4:	3c12f1be 	lui	s2,0xf1be
bfc013a8:	36522e20 	ori	s2,s2,0x2e20
bfc013ac:	161203a5 	bne	s0,s2,bfc02244 <inst_error>
bfc013b0:	00000000 	nop
bfc013b4:	3c08c8d3 	lui	t0,0xc8d3
bfc013b8:	3508a864 	ori	t0,t0,0xa864
bfc013bc:	24090012 	li	t1,18
bfc013c0:	00088480 	sll	s0,t0,0x12
bfc013c4:	3c12a190 	lui	s2,0xa190
bfc013c8:	1612039e 	bne	s0,s2,bfc02244 <inst_error>
bfc013cc:	00000000 	nop
bfc013d0:	3c08cc76 	lui	t0,0xcc76
bfc013d4:	3508ee32 	ori	t0,t0,0xee32
bfc013d8:	24090007 	li	t1,7
bfc013dc:	000881c0 	sll	s0,t0,0x7
bfc013e0:	3c123b77 	lui	s2,0x3b77
bfc013e4:	36521900 	ori	s2,s2,0x1900
bfc013e8:	16120396 	bne	s0,s2,bfc02244 <inst_error>
bfc013ec:	00000000 	nop
bfc013f0:	3c0854f0 	lui	t0,0x54f0
bfc013f4:	35089600 	ori	t0,t0,0x9600
bfc013f8:	24090002 	li	t1,2
bfc013fc:	00088080 	sll	s0,t0,0x2
bfc01400:	3c1253c2 	lui	s2,0x53c2
bfc01404:	36525800 	ori	s2,s2,0x5800
bfc01408:	1612038e 	bne	s0,s2,bfc02244 <inst_error>
bfc0140c:	00000000 	nop
bfc01410:	3c0827b0 	lui	t0,0x27b0
bfc01414:	3508fa54 	ori	t0,t0,0xfa54
bfc01418:	24090006 	li	t1,6
bfc0141c:	00088180 	sll	s0,t0,0x6
bfc01420:	3c12ec3e 	lui	s2,0xec3e
bfc01424:	36529500 	ori	s2,s2,0x9500
bfc01428:	16120386 	bne	s0,s2,bfc02244 <inst_error>
bfc0142c:	00000000 	nop
bfc01430:	3c08e893 	lui	t0,0xe893
bfc01434:	350868d0 	ori	t0,t0,0x68d0
bfc01438:	24090004 	li	t1,4
bfc0143c:	00088100 	sll	s0,t0,0x4
bfc01440:	3c128936 	lui	s2,0x8936
bfc01444:	36528d00 	ori	s2,s2,0x8d00
bfc01448:	1612037e 	bne	s0,s2,bfc02244 <inst_error>
bfc0144c:	00000000 	nop
bfc01450:	3c086ed8 	lui	t0,0x6ed8
bfc01454:	3508b7d2 	ori	t0,t0,0xb7d2
bfc01458:	24090012 	li	t1,18
bfc0145c:	00088480 	sll	s0,t0,0x12
bfc01460:	3c12df48 	lui	s2,0xdf48
bfc01464:	16120377 	bne	s0,s2,bfc02244 <inst_error>
bfc01468:	00000000 	nop
bfc0146c:	3c086bd8 	lui	t0,0x6bd8
bfc01470:	35087d10 	ori	t0,t0,0x7d10
bfc01474:	24090016 	li	t1,22
bfc01478:	00088580 	sll	s0,t0,0x16
bfc0147c:	3c124400 	lui	s2,0x4400
bfc01480:	16120370 	bne	s0,s2,bfc02244 <inst_error>
bfc01484:	00000000 	nop
bfc01488:	3c08a72b 	lui	t0,0xa72b
bfc0148c:	350875b0 	ori	t0,t0,0x75b0
bfc01490:	2409001f 	li	t1,31
bfc01494:	000887c0 	sll	s0,t0,0x1f
bfc01498:	24120000 	li	s2,0
bfc0149c:	16120369 	bne	s0,s2,bfc02244 <inst_error>
bfc014a0:	00000000 	nop
bfc014a4:	3c085387 	lui	t0,0x5387
bfc014a8:	350879e2 	ori	t0,t0,0x79e2
bfc014ac:	2409000c 	li	t1,12
bfc014b0:	00088300 	sll	s0,t0,0xc
bfc014b4:	3c12779e 	lui	s2,0x779e
bfc014b8:	36522000 	ori	s2,s2,0x2000
bfc014bc:	16120361 	bne	s0,s2,bfc02244 <inst_error>
bfc014c0:	00000000 	nop
bfc014c4:	3c0828aa 	lui	t0,0x28aa
bfc014c8:	35089431 	ori	t0,t0,0x9431
bfc014cc:	24090000 	li	t1,0
bfc014d0:	00088000 	sll	s0,t0,0x0
bfc014d4:	3c1228aa 	lui	s2,0x28aa
bfc014d8:	36529431 	ori	s2,s2,0x9431
bfc014dc:	16120359 	bne	s0,s2,bfc02244 <inst_error>
bfc014e0:	00000000 	nop
bfc014e4:	3c0891de 	lui	t0,0x91de
bfc014e8:	350820b0 	ori	t0,t0,0x20b0
bfc014ec:	24090009 	li	t1,9
bfc014f0:	00088240 	sll	s0,t0,0x9
bfc014f4:	3c12bc41 	lui	s2,0xbc41
bfc014f8:	36526000 	ori	s2,s2,0x6000
bfc014fc:	16120351 	bne	s0,s2,bfc02244 <inst_error>
bfc01500:	00000000 	nop
bfc01504:	3c083d0b 	lui	t0,0x3d0b
bfc01508:	3508e9c0 	ori	t0,t0,0xe9c0
bfc0150c:	24090002 	li	t1,2
bfc01510:	00088080 	sll	s0,t0,0x2
bfc01514:	3c12f42f 	lui	s2,0xf42f
bfc01518:	3652a700 	ori	s2,s2,0xa700
bfc0151c:	16120349 	bne	s0,s2,bfc02244 <inst_error>
bfc01520:	00000000 	nop
bfc01524:	3c0848cc 	lui	t0,0x48cc
bfc01528:	35083f30 	ori	t0,t0,0x3f30
bfc0152c:	24090004 	li	t1,4
bfc01530:	00088100 	sll	s0,t0,0x4
bfc01534:	3c128cc3 	lui	s2,0x8cc3
bfc01538:	3652f300 	ori	s2,s2,0xf300
bfc0153c:	16120341 	bne	s0,s2,bfc02244 <inst_error>
bfc01540:	00000000 	nop
bfc01544:	3c08fc51 	lui	t0,0xfc51
bfc01548:	35088448 	ori	t0,t0,0x8448
bfc0154c:	2409001f 	li	t1,31
bfc01550:	000887c0 	sll	s0,t0,0x1f
bfc01554:	24120000 	li	s2,0
bfc01558:	1612033a 	bne	s0,s2,bfc02244 <inst_error>
bfc0155c:	00000000 	nop
bfc01560:	3c087ae8 	lui	t0,0x7ae8
bfc01564:	3508be34 	ori	t0,t0,0xbe34
bfc01568:	24090007 	li	t1,7
bfc0156c:	000881c0 	sll	s0,t0,0x7
bfc01570:	3c12745f 	lui	s2,0x745f
bfc01574:	36521a00 	ori	s2,s2,0x1a00
bfc01578:	16120332 	bne	s0,s2,bfc02244 <inst_error>
bfc0157c:	00000000 	nop
bfc01580:	3c089e07 	lui	t0,0x9e07
bfc01584:	3508b8bc 	ori	t0,t0,0xb8bc
bfc01588:	24090012 	li	t1,18
bfc0158c:	00088480 	sll	s0,t0,0x12
bfc01590:	3c12e2f0 	lui	s2,0xe2f0
bfc01594:	1612032b 	bne	s0,s2,bfc02244 <inst_error>
bfc01598:	00000000 	nop
bfc0159c:	3c086392 	lui	t0,0x6392
bfc015a0:	3508e668 	ori	t0,t0,0xe668
bfc015a4:	24090008 	li	t1,8
bfc015a8:	00088200 	sll	s0,t0,0x8
bfc015ac:	3c1292e6 	lui	s2,0x92e6
bfc015b0:	36526800 	ori	s2,s2,0x6800
bfc015b4:	16120323 	bne	s0,s2,bfc02244 <inst_error>
bfc015b8:	00000000 	nop
bfc015bc:	3c08df45 	lui	t0,0xdf45
bfc015c0:	35085e10 	ori	t0,t0,0x5e10
bfc015c4:	24090008 	li	t1,8
bfc015c8:	00088200 	sll	s0,t0,0x8
bfc015cc:	3c12455e 	lui	s2,0x455e
bfc015d0:	36521000 	ori	s2,s2,0x1000
bfc015d4:	1612031b 	bne	s0,s2,bfc02244 <inst_error>
bfc015d8:	00000000 	nop
bfc015dc:	3c080708 	lui	t0,0x708
bfc015e0:	35088f21 	ori	t0,t0,0x8f21
bfc015e4:	24090017 	li	t1,23
bfc015e8:	000885c0 	sll	s0,t0,0x17
bfc015ec:	3c129080 	lui	s2,0x9080
bfc015f0:	16120314 	bne	s0,s2,bfc02244 <inst_error>
bfc015f4:	00000000 	nop
bfc015f8:	3c083518 	lui	t0,0x3518
bfc015fc:	35084800 	ori	t0,t0,0x4800
bfc01600:	24090019 	li	t1,25
bfc01604:	00088640 	sll	s0,t0,0x19
bfc01608:	24120000 	li	s2,0
bfc0160c:	1612030d 	bne	s0,s2,bfc02244 <inst_error>
bfc01610:	00000000 	nop
bfc01614:	3c08e4c7 	lui	t0,0xe4c7
bfc01618:	350815e4 	ori	t0,t0,0x15e4
bfc0161c:	24090018 	li	t1,24
bfc01620:	00088600 	sll	s0,t0,0x18
bfc01624:	3c12e400 	lui	s2,0xe400
bfc01628:	16120306 	bne	s0,s2,bfc02244 <inst_error>
bfc0162c:	00000000 	nop
bfc01630:	3c088e69 	lui	t0,0x8e69
bfc01634:	35088400 	ori	t0,t0,0x8400
bfc01638:	24090016 	li	t1,22
bfc0163c:	00088580 	sll	s0,t0,0x16
bfc01640:	24120000 	li	s2,0
bfc01644:	161202ff 	bne	s0,s2,bfc02244 <inst_error>
bfc01648:	00000000 	nop
bfc0164c:	3c082ceb 	lui	t0,0x2ceb
bfc01650:	35086fb2 	ori	t0,t0,0x6fb2
bfc01654:	24090013 	li	t1,19
bfc01658:	000884c0 	sll	s0,t0,0x13
bfc0165c:	3c127d90 	lui	s2,0x7d90
bfc01660:	161202f8 	bne	s0,s2,bfc02244 <inst_error>
bfc01664:	00000000 	nop
bfc01668:	3c089f54 	lui	t0,0x9f54
bfc0166c:	35087120 	ori	t0,t0,0x7120
bfc01670:	2409000b 	li	t1,11
bfc01674:	000882c0 	sll	s0,t0,0xb
bfc01678:	3c12a389 	lui	s2,0xa389
bfc0167c:	161202f1 	bne	s0,s2,bfc02244 <inst_error>
bfc01680:	00000000 	nop
bfc01684:	3c085cfb 	lui	t0,0x5cfb
bfc01688:	3508a16d 	ori	t0,t0,0xa16d
bfc0168c:	24090001 	li	t1,1
bfc01690:	00088040 	sll	s0,t0,0x1
bfc01694:	3c12b9f7 	lui	s2,0xb9f7
bfc01698:	365242da 	ori	s2,s2,0x42da
bfc0169c:	161202e9 	bne	s0,s2,bfc02244 <inst_error>
bfc016a0:	00000000 	nop
bfc016a4:	3c089832 	lui	t0,0x9832
bfc016a8:	3508e740 	ori	t0,t0,0xe740
bfc016ac:	2409000d 	li	t1,13
bfc016b0:	00088340 	sll	s0,t0,0xd
bfc016b4:	3c125ce8 	lui	s2,0x5ce8
bfc016b8:	161202e2 	bne	s0,s2,bfc02244 <inst_error>
bfc016bc:	00000000 	nop
bfc016c0:	3c08e78f 	lui	t0,0xe78f
bfc016c4:	3508c4f8 	ori	t0,t0,0xc4f8
bfc016c8:	2409000e 	li	t1,14
bfc016cc:	00088380 	sll	s0,t0,0xe
bfc016d0:	3c12f13e 	lui	s2,0xf13e
bfc016d4:	161202db 	bne	s0,s2,bfc02244 <inst_error>
bfc016d8:	00000000 	nop
bfc016dc:	3c0848d0 	lui	t0,0x48d0
bfc016e0:	3508c228 	ori	t0,t0,0xc228
bfc016e4:	24090006 	li	t1,6
bfc016e8:	00088180 	sll	s0,t0,0x6
bfc016ec:	3c123430 	lui	s2,0x3430
bfc016f0:	36528a00 	ori	s2,s2,0x8a00
bfc016f4:	161202d3 	bne	s0,s2,bfc02244 <inst_error>
bfc016f8:	00000000 	nop
bfc016fc:	3c084894 	lui	t0,0x4894
bfc01700:	3508d178 	ori	t0,t0,0xd178
bfc01704:	24090001 	li	t1,1
bfc01708:	00088040 	sll	s0,t0,0x1
bfc0170c:	3c129129 	lui	s2,0x9129
bfc01710:	3652a2f0 	ori	s2,s2,0xa2f0
bfc01714:	161202cb 	bne	s0,s2,bfc02244 <inst_error>
bfc01718:	00000000 	nop
bfc0171c:	3c08c1b2 	lui	t0,0xc1b2
bfc01720:	350858a0 	ori	t0,t0,0x58a0
bfc01724:	24090015 	li	t1,21
bfc01728:	00088540 	sll	s0,t0,0x15
bfc0172c:	3c121400 	lui	s2,0x1400
bfc01730:	161202c4 	bne	s0,s2,bfc02244 <inst_error>
bfc01734:	00000000 	nop
bfc01738:	3c08b6f7 	lui	t0,0xb6f7
bfc0173c:	3508d1cc 	ori	t0,t0,0xd1cc
bfc01740:	24090000 	li	t1,0
bfc01744:	00088000 	sll	s0,t0,0x0
bfc01748:	3c12b6f7 	lui	s2,0xb6f7
bfc0174c:	3652d1cc 	ori	s2,s2,0xd1cc
bfc01750:	161202bc 	bne	s0,s2,bfc02244 <inst_error>
bfc01754:	00000000 	nop
bfc01758:	3c087ac0 	lui	t0,0x7ac0
bfc0175c:	350827f0 	ori	t0,t0,0x27f0
bfc01760:	24090000 	li	t1,0
bfc01764:	00088000 	sll	s0,t0,0x0
bfc01768:	3c127ac0 	lui	s2,0x7ac0
bfc0176c:	365227f0 	ori	s2,s2,0x27f0
bfc01770:	161202b4 	bne	s0,s2,bfc02244 <inst_error>
bfc01774:	00000000 	nop
bfc01778:	3c087cfd 	lui	t0,0x7cfd
bfc0177c:	3508e1e0 	ori	t0,t0,0xe1e0
bfc01780:	24090000 	li	t1,0
bfc01784:	00088000 	sll	s0,t0,0x0
bfc01788:	3c127cfd 	lui	s2,0x7cfd
bfc0178c:	3652e1e0 	ori	s2,s2,0xe1e0
bfc01790:	161202ac 	bne	s0,s2,bfc02244 <inst_error>
bfc01794:	00000000 	nop
bfc01798:	3c08bfa2 	lui	t0,0xbfa2
bfc0179c:	3508e928 	ori	t0,t0,0xe928
bfc017a0:	24090000 	li	t1,0
bfc017a4:	00088000 	sll	s0,t0,0x0
bfc017a8:	3c12bfa2 	lui	s2,0xbfa2
bfc017ac:	3652e928 	ori	s2,s2,0xe928
bfc017b0:	161202a4 	bne	s0,s2,bfc02244 <inst_error>
bfc017b4:	00000000 	nop
bfc017b8:	3c0867b4 	lui	t0,0x67b4
bfc017bc:	35080770 	ori	t0,t0,0x770
bfc017c0:	24090000 	li	t1,0
bfc017c4:	00088000 	sll	s0,t0,0x0
bfc017c8:	3c1267b4 	lui	s2,0x67b4
bfc017cc:	36520770 	ori	s2,s2,0x770
bfc017d0:	1612029c 	bne	s0,s2,bfc02244 <inst_error>
bfc017d4:	00000000 	nop
bfc017d8:	3c08447e 	lui	t0,0x447e
bfc017dc:	3508018c 	ori	t0,t0,0x18c
bfc017e0:	24090000 	li	t1,0
bfc017e4:	00088000 	sll	s0,t0,0x0
bfc017e8:	3c12447e 	lui	s2,0x447e
bfc017ec:	3652018c 	ori	s2,s2,0x18c
bfc017f0:	16120294 	bne	s0,s2,bfc02244 <inst_error>
bfc017f4:	00000000 	nop
bfc017f8:	3c08f7bd 	lui	t0,0xf7bd
bfc017fc:	350848e6 	ori	t0,t0,0x48e6
bfc01800:	24090000 	li	t1,0
bfc01804:	00088000 	sll	s0,t0,0x0
bfc01808:	3c12f7bd 	lui	s2,0xf7bd
bfc0180c:	365248e6 	ori	s2,s2,0x48e6
bfc01810:	1612028c 	bne	s0,s2,bfc02244 <inst_error>
bfc01814:	00000000 	nop
bfc01818:	3c082a8a 	lui	t0,0x2a8a
bfc0181c:	35081140 	ori	t0,t0,0x1140
bfc01820:	24090000 	li	t1,0
bfc01824:	00088000 	sll	s0,t0,0x0
bfc01828:	3c122a8a 	lui	s2,0x2a8a
bfc0182c:	36521140 	ori	s2,s2,0x1140
bfc01830:	16120284 	bne	s0,s2,bfc02244 <inst_error>
bfc01834:	00000000 	nop
bfc01838:	3c087390 	lui	t0,0x7390
bfc0183c:	35088458 	ori	t0,t0,0x8458
bfc01840:	24090000 	li	t1,0
bfc01844:	00088000 	sll	s0,t0,0x0
bfc01848:	3c127390 	lui	s2,0x7390
bfc0184c:	36528458 	ori	s2,s2,0x8458
bfc01850:	1612027c 	bne	s0,s2,bfc02244 <inst_error>
bfc01854:	00000000 	nop
bfc01858:	3c08d470 	lui	t0,0xd470
bfc0185c:	35089350 	ori	t0,t0,0x9350
bfc01860:	24090000 	li	t1,0
bfc01864:	00088000 	sll	s0,t0,0x0
bfc01868:	3c12d470 	lui	s2,0xd470
bfc0186c:	36529350 	ori	s2,s2,0x9350
bfc01870:	16120274 	bne	s0,s2,bfc02244 <inst_error>
bfc01874:	00000000 	nop
bfc01878:	3c085d67 	lui	t0,0x5d67
bfc0187c:	3508ee80 	ori	t0,t0,0xee80
bfc01880:	24090000 	li	t1,0
bfc01884:	00088000 	sll	s0,t0,0x0
bfc01888:	3c125d67 	lui	s2,0x5d67
bfc0188c:	3652ee80 	ori	s2,s2,0xee80
bfc01890:	1612026c 	bne	s0,s2,bfc02244 <inst_error>
bfc01894:	00000000 	nop
bfc01898:	3c08392a 	lui	t0,0x392a
bfc0189c:	350824a0 	ori	t0,t0,0x24a0
bfc018a0:	24090000 	li	t1,0
bfc018a4:	00088000 	sll	s0,t0,0x0
bfc018a8:	3c12392a 	lui	s2,0x392a
bfc018ac:	365224a0 	ori	s2,s2,0x24a0
bfc018b0:	16120264 	bne	s0,s2,bfc02244 <inst_error>
bfc018b4:	00000000 	nop
bfc018b8:	3c0815ff 	lui	t0,0x15ff
bfc018bc:	35085ed9 	ori	t0,t0,0x5ed9
bfc018c0:	24090000 	li	t1,0
bfc018c4:	00088000 	sll	s0,t0,0x0
bfc018c8:	3c1215ff 	lui	s2,0x15ff
bfc018cc:	36525ed9 	ori	s2,s2,0x5ed9
bfc018d0:	1612025c 	bne	s0,s2,bfc02244 <inst_error>
bfc018d4:	00000000 	nop
bfc018d8:	3c083e1f 	lui	t0,0x3e1f
bfc018dc:	3508d219 	ori	t0,t0,0xd219
bfc018e0:	24090000 	li	t1,0
bfc018e4:	00088000 	sll	s0,t0,0x0
bfc018e8:	3c123e1f 	lui	s2,0x3e1f
bfc018ec:	3652d219 	ori	s2,s2,0xd219
bfc018f0:	16120254 	bne	s0,s2,bfc02244 <inst_error>
bfc018f4:	00000000 	nop
bfc018f8:	3c089b79 	lui	t0,0x9b79
bfc018fc:	3508a2e8 	ori	t0,t0,0xa2e8
bfc01900:	24090000 	li	t1,0
bfc01904:	00088000 	sll	s0,t0,0x0
bfc01908:	3c129b79 	lui	s2,0x9b79
bfc0190c:	3652a2e8 	ori	s2,s2,0xa2e8
bfc01910:	1612024c 	bne	s0,s2,bfc02244 <inst_error>
bfc01914:	00000000 	nop
bfc01918:	3c081b94 	lui	t0,0x1b94
bfc0191c:	3508962c 	ori	t0,t0,0x962c
bfc01920:	24090000 	li	t1,0
bfc01924:	00088000 	sll	s0,t0,0x0
bfc01928:	3c121b94 	lui	s2,0x1b94
bfc0192c:	3652962c 	ori	s2,s2,0x962c
bfc01930:	16120244 	bne	s0,s2,bfc02244 <inst_error>
bfc01934:	00000000 	nop
bfc01938:	3c08aa85 	lui	t0,0xaa85
bfc0193c:	35089446 	ori	t0,t0,0x9446
bfc01940:	24090000 	li	t1,0
bfc01944:	00088000 	sll	s0,t0,0x0
bfc01948:	3c12aa85 	lui	s2,0xaa85
bfc0194c:	36529446 	ori	s2,s2,0x9446
bfc01950:	1612023c 	bne	s0,s2,bfc02244 <inst_error>
bfc01954:	00000000 	nop
bfc01958:	3c08033e 	lui	t0,0x33e
bfc0195c:	35088e74 	ori	t0,t0,0x8e74
bfc01960:	24090000 	li	t1,0
bfc01964:	00088000 	sll	s0,t0,0x0
bfc01968:	3c12033e 	lui	s2,0x33e
bfc0196c:	36528e74 	ori	s2,s2,0x8e74
bfc01970:	16120234 	bne	s0,s2,bfc02244 <inst_error>
bfc01974:	00000000 	nop
bfc01978:	3c08484a 	lui	t0,0x484a
bfc0197c:	3508e2bc 	ori	t0,t0,0xe2bc
bfc01980:	24090000 	li	t1,0
bfc01984:	00088000 	sll	s0,t0,0x0
bfc01988:	3c12484a 	lui	s2,0x484a
bfc0198c:	3652e2bc 	ori	s2,s2,0xe2bc
bfc01990:	1612022c 	bne	s0,s2,bfc02244 <inst_error>
bfc01994:	00000000 	nop
bfc01998:	3c08f9a5 	lui	t0,0xf9a5
bfc0199c:	3508bd1d 	ori	t0,t0,0xbd1d
bfc019a0:	24090000 	li	t1,0
bfc019a4:	00088000 	sll	s0,t0,0x0
bfc019a8:	3c12f9a5 	lui	s2,0xf9a5
bfc019ac:	3652bd1d 	ori	s2,s2,0xbd1d
bfc019b0:	16120224 	bne	s0,s2,bfc02244 <inst_error>
bfc019b4:	00000000 	nop
bfc019b8:	3c08d1d8 	lui	t0,0xd1d8
bfc019bc:	3508fe72 	ori	t0,t0,0xfe72
bfc019c0:	24090000 	li	t1,0
bfc019c4:	00088000 	sll	s0,t0,0x0
bfc019c8:	3c12d1d8 	lui	s2,0xd1d8
bfc019cc:	3652fe72 	ori	s2,s2,0xfe72
bfc019d0:	1612021c 	bne	s0,s2,bfc02244 <inst_error>
bfc019d4:	00000000 	nop
bfc019d8:	3c089bd5 	lui	t0,0x9bd5
bfc019dc:	350800b8 	ori	t0,t0,0xb8
bfc019e0:	24090000 	li	t1,0
bfc019e4:	00088000 	sll	s0,t0,0x0
bfc019e8:	3c129bd5 	lui	s2,0x9bd5
bfc019ec:	365200b8 	ori	s2,s2,0xb8
bfc019f0:	16120214 	bne	s0,s2,bfc02244 <inst_error>
bfc019f4:	00000000 	nop
bfc019f8:	3c08f700 	lui	t0,0xf700
bfc019fc:	3508ccf1 	ori	t0,t0,0xccf1
bfc01a00:	24090000 	li	t1,0
bfc01a04:	00088000 	sll	s0,t0,0x0
bfc01a08:	3c12f700 	lui	s2,0xf700
bfc01a0c:	3652ccf1 	ori	s2,s2,0xccf1
bfc01a10:	1612020c 	bne	s0,s2,bfc02244 <inst_error>
bfc01a14:	00000000 	nop
bfc01a18:	3c08e31b 	lui	t0,0xe31b
bfc01a1c:	3508ddfc 	ori	t0,t0,0xddfc
bfc01a20:	24090000 	li	t1,0
bfc01a24:	00088000 	sll	s0,t0,0x0
bfc01a28:	3c12e31b 	lui	s2,0xe31b
bfc01a2c:	3652ddfc 	ori	s2,s2,0xddfc
bfc01a30:	16120204 	bne	s0,s2,bfc02244 <inst_error>
bfc01a34:	00000000 	nop
bfc01a38:	3c082e11 	lui	t0,0x2e11
bfc01a3c:	350897b0 	ori	t0,t0,0x97b0
bfc01a40:	24090000 	li	t1,0
bfc01a44:	00088000 	sll	s0,t0,0x0
bfc01a48:	3c122e11 	lui	s2,0x2e11
bfc01a4c:	365297b0 	ori	s2,s2,0x97b0
bfc01a50:	161201fc 	bne	s0,s2,bfc02244 <inst_error>
bfc01a54:	00000000 	nop
bfc01a58:	3c08eb3f 	lui	t0,0xeb3f
bfc01a5c:	35089bf8 	ori	t0,t0,0x9bf8
bfc01a60:	24090000 	li	t1,0
bfc01a64:	00088000 	sll	s0,t0,0x0
bfc01a68:	3c12eb3f 	lui	s2,0xeb3f
bfc01a6c:	36529bf8 	ori	s2,s2,0x9bf8
bfc01a70:	161201f4 	bne	s0,s2,bfc02244 <inst_error>
bfc01a74:	00000000 	nop
bfc01a78:	3c0886ca 	lui	t0,0x86ca
bfc01a7c:	3508fcec 	ori	t0,t0,0xfcec
bfc01a80:	24090000 	li	t1,0
bfc01a84:	00088000 	sll	s0,t0,0x0
bfc01a88:	3c1286ca 	lui	s2,0x86ca
bfc01a8c:	3652fcec 	ori	s2,s2,0xfcec
bfc01a90:	161201ec 	bne	s0,s2,bfc02244 <inst_error>
bfc01a94:	00000000 	nop
bfc01a98:	3c0814d0 	lui	t0,0x14d0
bfc01a9c:	350898b8 	ori	t0,t0,0x98b8
bfc01aa0:	24090000 	li	t1,0
bfc01aa4:	00088000 	sll	s0,t0,0x0
bfc01aa8:	3c1214d0 	lui	s2,0x14d0
bfc01aac:	365298b8 	ori	s2,s2,0x98b8
bfc01ab0:	161201e4 	bne	s0,s2,bfc02244 <inst_error>
bfc01ab4:	00000000 	nop
bfc01ab8:	3c08a3e1 	lui	t0,0xa3e1
bfc01abc:	35080114 	ori	t0,t0,0x114
bfc01ac0:	24090000 	li	t1,0
bfc01ac4:	00088000 	sll	s0,t0,0x0
bfc01ac8:	3c12a3e1 	lui	s2,0xa3e1
bfc01acc:	36520114 	ori	s2,s2,0x114
bfc01ad0:	161201dc 	bne	s0,s2,bfc02244 <inst_error>
bfc01ad4:	00000000 	nop
bfc01ad8:	3c08c3b4 	lui	t0,0xc3b4
bfc01adc:	3508bed0 	ori	t0,t0,0xbed0
bfc01ae0:	24090000 	li	t1,0
bfc01ae4:	00088000 	sll	s0,t0,0x0
bfc01ae8:	3c12c3b4 	lui	s2,0xc3b4
bfc01aec:	3652bed0 	ori	s2,s2,0xbed0
bfc01af0:	161201d4 	bne	s0,s2,bfc02244 <inst_error>
bfc01af4:	00000000 	nop
bfc01af8:	3c08c963 	lui	t0,0xc963
bfc01afc:	3508e299 	ori	t0,t0,0xe299
bfc01b00:	24090000 	li	t1,0
bfc01b04:	00088000 	sll	s0,t0,0x0
bfc01b08:	3c12c963 	lui	s2,0xc963
bfc01b0c:	3652e299 	ori	s2,s2,0xe299
bfc01b10:	161201cc 	bne	s0,s2,bfc02244 <inst_error>
bfc01b14:	00000000 	nop
bfc01b18:	3c08dcb7 	lui	t0,0xdcb7
bfc01b1c:	3508aaf4 	ori	t0,t0,0xaaf4
bfc01b20:	24090000 	li	t1,0
bfc01b24:	00088000 	sll	s0,t0,0x0
bfc01b28:	3c12dcb7 	lui	s2,0xdcb7
bfc01b2c:	3652aaf4 	ori	s2,s2,0xaaf4
bfc01b30:	161201c4 	bne	s0,s2,bfc02244 <inst_error>
bfc01b34:	00000000 	nop
bfc01b38:	3c089806 	lui	t0,0x9806
bfc01b3c:	3508a5ec 	ori	t0,t0,0xa5ec
bfc01b40:	24090000 	li	t1,0
bfc01b44:	00088000 	sll	s0,t0,0x0
bfc01b48:	3c129806 	lui	s2,0x9806
bfc01b4c:	3652a5ec 	ori	s2,s2,0xa5ec
bfc01b50:	161201bc 	bne	s0,s2,bfc02244 <inst_error>
bfc01b54:	00000000 	nop
bfc01b58:	3c082108 	lui	t0,0x2108
bfc01b5c:	3508d9cb 	ori	t0,t0,0xd9cb
bfc01b60:	24090000 	li	t1,0
bfc01b64:	00088000 	sll	s0,t0,0x0
bfc01b68:	3c122108 	lui	s2,0x2108
bfc01b6c:	3652d9cb 	ori	s2,s2,0xd9cb
bfc01b70:	161201b4 	bne	s0,s2,bfc02244 <inst_error>
bfc01b74:	00000000 	nop
bfc01b78:	3c08c768 	lui	t0,0xc768
bfc01b7c:	350858a0 	ori	t0,t0,0x58a0
bfc01b80:	24090000 	li	t1,0
bfc01b84:	00088000 	sll	s0,t0,0x0
bfc01b88:	3c12c768 	lui	s2,0xc768
bfc01b8c:	365258a0 	ori	s2,s2,0x58a0
bfc01b90:	161201ac 	bne	s0,s2,bfc02244 <inst_error>
bfc01b94:	00000000 	nop
bfc01b98:	3c083057 	lui	t0,0x3057
bfc01b9c:	3508b780 	ori	t0,t0,0xb780
bfc01ba0:	24090000 	li	t1,0
bfc01ba4:	00088000 	sll	s0,t0,0x0
bfc01ba8:	3c123057 	lui	s2,0x3057
bfc01bac:	3652b780 	ori	s2,s2,0xb780
bfc01bb0:	161201a4 	bne	s0,s2,bfc02244 <inst_error>
bfc01bb4:	00000000 	nop
bfc01bb8:	3c085ea6 	lui	t0,0x5ea6
bfc01bbc:	3508d1ea 	ori	t0,t0,0xd1ea
bfc01bc0:	24090000 	li	t1,0
bfc01bc4:	00088000 	sll	s0,t0,0x0
bfc01bc8:	3c125ea6 	lui	s2,0x5ea6
bfc01bcc:	3652d1ea 	ori	s2,s2,0xd1ea
bfc01bd0:	1612019c 	bne	s0,s2,bfc02244 <inst_error>
bfc01bd4:	00000000 	nop
bfc01bd8:	3c08c8ac 	lui	t0,0xc8ac
bfc01bdc:	3508d874 	ori	t0,t0,0xd874
bfc01be0:	24090000 	li	t1,0
bfc01be4:	00088000 	sll	s0,t0,0x0
bfc01be8:	3c12c8ac 	lui	s2,0xc8ac
bfc01bec:	3652d874 	ori	s2,s2,0xd874
bfc01bf0:	16120194 	bne	s0,s2,bfc02244 <inst_error>
bfc01bf4:	00000000 	nop
bfc01bf8:	3c08c701 	lui	t0,0xc701
bfc01bfc:	35089de0 	ori	t0,t0,0x9de0
bfc01c00:	24090000 	li	t1,0
bfc01c04:	00088000 	sll	s0,t0,0x0
bfc01c08:	3c12c701 	lui	s2,0xc701
bfc01c0c:	36529de0 	ori	s2,s2,0x9de0
bfc01c10:	1612018c 	bne	s0,s2,bfc02244 <inst_error>
bfc01c14:	00000000 	nop
bfc01c18:	3c0892a6 	lui	t0,0x92a6
bfc01c1c:	350834de 	ori	t0,t0,0x34de
bfc01c20:	24090000 	li	t1,0
bfc01c24:	00088000 	sll	s0,t0,0x0
bfc01c28:	3c1292a6 	lui	s2,0x92a6
bfc01c2c:	365234de 	ori	s2,s2,0x34de
bfc01c30:	16120184 	bne	s0,s2,bfc02244 <inst_error>
bfc01c34:	00000000 	nop
bfc01c38:	3c082490 	lui	t0,0x2490
bfc01c3c:	350818dd 	ori	t0,t0,0x18dd
bfc01c40:	24090000 	li	t1,0
bfc01c44:	00088000 	sll	s0,t0,0x0
bfc01c48:	3c122490 	lui	s2,0x2490
bfc01c4c:	365218dd 	ori	s2,s2,0x18dd
bfc01c50:	1612017c 	bne	s0,s2,bfc02244 <inst_error>
bfc01c54:	00000000 	nop
bfc01c58:	3c0834d2 	lui	t0,0x34d2
bfc01c5c:	3508bbc4 	ori	t0,t0,0xbbc4
bfc01c60:	24090000 	li	t1,0
bfc01c64:	00088000 	sll	s0,t0,0x0
bfc01c68:	3c1234d2 	lui	s2,0x34d2
bfc01c6c:	3652bbc4 	ori	s2,s2,0xbbc4
bfc01c70:	16120174 	bne	s0,s2,bfc02244 <inst_error>
bfc01c74:	00000000 	nop
bfc01c78:	3c082f62 	lui	t0,0x2f62
bfc01c7c:	3508470c 	ori	t0,t0,0x470c
bfc01c80:	24090000 	li	t1,0
bfc01c84:	00088000 	sll	s0,t0,0x0
bfc01c88:	3c122f62 	lui	s2,0x2f62
bfc01c8c:	3652470c 	ori	s2,s2,0x470c
bfc01c90:	1612016c 	bne	s0,s2,bfc02244 <inst_error>
bfc01c94:	00000000 	nop
bfc01c98:	3c087de9 	lui	t0,0x7de9
bfc01c9c:	35083ffe 	ori	t0,t0,0x3ffe
bfc01ca0:	24090000 	li	t1,0
bfc01ca4:	00088000 	sll	s0,t0,0x0
bfc01ca8:	3c127de9 	lui	s2,0x7de9
bfc01cac:	36523ffe 	ori	s2,s2,0x3ffe
bfc01cb0:	16120164 	bne	s0,s2,bfc02244 <inst_error>
bfc01cb4:	00000000 	nop
bfc01cb8:	3c08ca48 	lui	t0,0xca48
bfc01cbc:	35088c00 	ori	t0,t0,0x8c00
bfc01cc0:	24090000 	li	t1,0
bfc01cc4:	00088000 	sll	s0,t0,0x0
bfc01cc8:	3c12ca48 	lui	s2,0xca48
bfc01ccc:	36528c00 	ori	s2,s2,0x8c00
bfc01cd0:	1612015c 	bne	s0,s2,bfc02244 <inst_error>
bfc01cd4:	00000000 	nop
bfc01cd8:	3c089733 	lui	t0,0x9733
bfc01cdc:	3508d3ca 	ori	t0,t0,0xd3ca
bfc01ce0:	24090000 	li	t1,0
bfc01ce4:	00088000 	sll	s0,t0,0x0
bfc01ce8:	3c129733 	lui	s2,0x9733
bfc01cec:	3652d3ca 	ori	s2,s2,0xd3ca
bfc01cf0:	16120154 	bne	s0,s2,bfc02244 <inst_error>
bfc01cf4:	00000000 	nop
bfc01cf8:	3c082b32 	lui	t0,0x2b32
bfc01cfc:	35089d1c 	ori	t0,t0,0x9d1c
bfc01d00:	24090000 	li	t1,0
bfc01d04:	00088000 	sll	s0,t0,0x0
bfc01d08:	3c122b32 	lui	s2,0x2b32
bfc01d0c:	36529d1c 	ori	s2,s2,0x9d1c
bfc01d10:	1612014c 	bne	s0,s2,bfc02244 <inst_error>
bfc01d14:	00000000 	nop
bfc01d18:	3c0851fa 	lui	t0,0x51fa
bfc01d1c:	3508c62e 	ori	t0,t0,0xc62e
bfc01d20:	24090000 	li	t1,0
bfc01d24:	00088000 	sll	s0,t0,0x0
bfc01d28:	3c1251fa 	lui	s2,0x51fa
bfc01d2c:	3652c62e 	ori	s2,s2,0xc62e
bfc01d30:	16120144 	bne	s0,s2,bfc02244 <inst_error>
bfc01d34:	00000000 	nop
bfc01d38:	3c080684 	lui	t0,0x684
bfc01d3c:	3508045e 	ori	t0,t0,0x45e
bfc01d40:	24090000 	li	t1,0
bfc01d44:	00088000 	sll	s0,t0,0x0
bfc01d48:	3c120684 	lui	s2,0x684
bfc01d4c:	3652045e 	ori	s2,s2,0x45e
bfc01d50:	1612013c 	bne	s0,s2,bfc02244 <inst_error>
bfc01d54:	00000000 	nop
bfc01d58:	3c0802a1 	lui	t0,0x2a1
bfc01d5c:	3508a840 	ori	t0,t0,0xa840
bfc01d60:	24090000 	li	t1,0
bfc01d64:	00088000 	sll	s0,t0,0x0
bfc01d68:	3c1202a1 	lui	s2,0x2a1
bfc01d6c:	3652a840 	ori	s2,s2,0xa840
bfc01d70:	16120134 	bne	s0,s2,bfc02244 <inst_error>
bfc01d74:	00000000 	nop
bfc01d78:	24080000 	li	t0,0
bfc01d7c:	24090017 	li	t1,23
bfc01d80:	000885c0 	sll	s0,t0,0x17
bfc01d84:	24120000 	li	s2,0
bfc01d88:	1612012e 	bne	s0,s2,bfc02244 <inst_error>
bfc01d8c:	00000000 	nop
bfc01d90:	24080000 	li	t0,0
bfc01d94:	24090013 	li	t1,19
bfc01d98:	000884c0 	sll	s0,t0,0x13
bfc01d9c:	24120000 	li	s2,0
bfc01da0:	16120128 	bne	s0,s2,bfc02244 <inst_error>
bfc01da4:	00000000 	nop
bfc01da8:	24080000 	li	t0,0
bfc01dac:	24090016 	li	t1,22
bfc01db0:	00088580 	sll	s0,t0,0x16
bfc01db4:	24120000 	li	s2,0
bfc01db8:	16120122 	bne	s0,s2,bfc02244 <inst_error>
bfc01dbc:	00000000 	nop
bfc01dc0:	24080000 	li	t0,0
bfc01dc4:	24090001 	li	t1,1
bfc01dc8:	00088040 	sll	s0,t0,0x1
bfc01dcc:	24120000 	li	s2,0
bfc01dd0:	1612011c 	bne	s0,s2,bfc02244 <inst_error>
bfc01dd4:	00000000 	nop
bfc01dd8:	24080000 	li	t0,0
bfc01ddc:	24090015 	li	t1,21
bfc01de0:	00088540 	sll	s0,t0,0x15
bfc01de4:	24120000 	li	s2,0
bfc01de8:	16120116 	bne	s0,s2,bfc02244 <inst_error>
bfc01dec:	00000000 	nop
bfc01df0:	24080000 	li	t0,0
bfc01df4:	24090002 	li	t1,2
bfc01df8:	00088080 	sll	s0,t0,0x2
bfc01dfc:	24120000 	li	s2,0
bfc01e00:	16120110 	bne	s0,s2,bfc02244 <inst_error>
bfc01e04:	00000000 	nop
bfc01e08:	24080000 	li	t0,0
bfc01e0c:	24090002 	li	t1,2
bfc01e10:	00088080 	sll	s0,t0,0x2
bfc01e14:	24120000 	li	s2,0
bfc01e18:	1612010a 	bne	s0,s2,bfc02244 <inst_error>
bfc01e1c:	00000000 	nop
bfc01e20:	24080000 	li	t0,0
bfc01e24:	2409001a 	li	t1,26
bfc01e28:	00088680 	sll	s0,t0,0x1a
bfc01e2c:	24120000 	li	s2,0
bfc01e30:	16120104 	bne	s0,s2,bfc02244 <inst_error>
bfc01e34:	00000000 	nop
bfc01e38:	24080000 	li	t0,0
bfc01e3c:	24090006 	li	t1,6
bfc01e40:	00088180 	sll	s0,t0,0x6
bfc01e44:	24120000 	li	s2,0
bfc01e48:	161200fe 	bne	s0,s2,bfc02244 <inst_error>
bfc01e4c:	00000000 	nop
bfc01e50:	24080000 	li	t0,0
bfc01e54:	24090010 	li	t1,16
bfc01e58:	00088400 	sll	s0,t0,0x10
bfc01e5c:	24120000 	li	s2,0
bfc01e60:	161200f8 	bne	s0,s2,bfc02244 <inst_error>
bfc01e64:	00000000 	nop
bfc01e68:	24080000 	li	t0,0
bfc01e6c:	24090016 	li	t1,22
bfc01e70:	00088580 	sll	s0,t0,0x16
bfc01e74:	24120000 	li	s2,0
bfc01e78:	161200f2 	bne	s0,s2,bfc02244 <inst_error>
bfc01e7c:	00000000 	nop
bfc01e80:	24080000 	li	t0,0
bfc01e84:	24090005 	li	t1,5
bfc01e88:	00088140 	sll	s0,t0,0x5
bfc01e8c:	24120000 	li	s2,0
bfc01e90:	161200ec 	bne	s0,s2,bfc02244 <inst_error>
bfc01e94:	00000000 	nop
bfc01e98:	24080000 	li	t0,0
bfc01e9c:	24090016 	li	t1,22
bfc01ea0:	00088580 	sll	s0,t0,0x16
bfc01ea4:	24120000 	li	s2,0
bfc01ea8:	161200e6 	bne	s0,s2,bfc02244 <inst_error>
bfc01eac:	00000000 	nop
bfc01eb0:	24080000 	li	t0,0
bfc01eb4:	24090003 	li	t1,3
bfc01eb8:	000880c0 	sll	s0,t0,0x3
bfc01ebc:	24120000 	li	s2,0
bfc01ec0:	161200e0 	bne	s0,s2,bfc02244 <inst_error>
bfc01ec4:	00000000 	nop
bfc01ec8:	24080000 	li	t0,0
bfc01ecc:	24090005 	li	t1,5
bfc01ed0:	00088140 	sll	s0,t0,0x5
bfc01ed4:	24120000 	li	s2,0
bfc01ed8:	161200da 	bne	s0,s2,bfc02244 <inst_error>
bfc01edc:	00000000 	nop
bfc01ee0:	24080000 	li	t0,0
bfc01ee4:	2409001b 	li	t1,27
bfc01ee8:	000886c0 	sll	s0,t0,0x1b
bfc01eec:	24120000 	li	s2,0
bfc01ef0:	161200d4 	bne	s0,s2,bfc02244 <inst_error>
bfc01ef4:	00000000 	nop
bfc01ef8:	24080000 	li	t0,0
bfc01efc:	2409001d 	li	t1,29
bfc01f00:	00088740 	sll	s0,t0,0x1d
bfc01f04:	24120000 	li	s2,0
bfc01f08:	161200ce 	bne	s0,s2,bfc02244 <inst_error>
bfc01f0c:	00000000 	nop
bfc01f10:	24080000 	li	t0,0
bfc01f14:	24090011 	li	t1,17
bfc01f18:	00088440 	sll	s0,t0,0x11
bfc01f1c:	24120000 	li	s2,0
bfc01f20:	161200c8 	bne	s0,s2,bfc02244 <inst_error>
bfc01f24:	00000000 	nop
bfc01f28:	24080000 	li	t0,0
bfc01f2c:	24090017 	li	t1,23
bfc01f30:	000885c0 	sll	s0,t0,0x17
bfc01f34:	24120000 	li	s2,0
bfc01f38:	161200c2 	bne	s0,s2,bfc02244 <inst_error>
bfc01f3c:	00000000 	nop
bfc01f40:	24080000 	li	t0,0
bfc01f44:	24090014 	li	t1,20
bfc01f48:	00088500 	sll	s0,t0,0x14
bfc01f4c:	24120000 	li	s2,0
bfc01f50:	161200bc 	bne	s0,s2,bfc02244 <inst_error>
bfc01f54:	00000000 	nop
bfc01f58:	24080000 	li	t0,0
bfc01f5c:	24090011 	li	t1,17
bfc01f60:	00088440 	sll	s0,t0,0x11
bfc01f64:	24120000 	li	s2,0
bfc01f68:	161200b6 	bne	s0,s2,bfc02244 <inst_error>
bfc01f6c:	00000000 	nop
bfc01f70:	24080000 	li	t0,0
bfc01f74:	24090017 	li	t1,23
bfc01f78:	000885c0 	sll	s0,t0,0x17
bfc01f7c:	24120000 	li	s2,0
bfc01f80:	161200b0 	bne	s0,s2,bfc02244 <inst_error>
bfc01f84:	00000000 	nop
bfc01f88:	24080000 	li	t0,0
bfc01f8c:	24090013 	li	t1,19
bfc01f90:	000884c0 	sll	s0,t0,0x13
bfc01f94:	24120000 	li	s2,0
bfc01f98:	161200aa 	bne	s0,s2,bfc02244 <inst_error>
bfc01f9c:	00000000 	nop
bfc01fa0:	24080000 	li	t0,0
bfc01fa4:	2409001a 	li	t1,26
bfc01fa8:	00088680 	sll	s0,t0,0x1a
bfc01fac:	24120000 	li	s2,0
bfc01fb0:	161200a4 	bne	s0,s2,bfc02244 <inst_error>
bfc01fb4:	00000000 	nop
bfc01fb8:	24080000 	li	t0,0
bfc01fbc:	24090019 	li	t1,25
bfc01fc0:	00088640 	sll	s0,t0,0x19
bfc01fc4:	24120000 	li	s2,0
bfc01fc8:	1612009e 	bne	s0,s2,bfc02244 <inst_error>
bfc01fcc:	00000000 	nop
bfc01fd0:	24080000 	li	t0,0
bfc01fd4:	24090016 	li	t1,22
bfc01fd8:	00088580 	sll	s0,t0,0x16
bfc01fdc:	24120000 	li	s2,0
bfc01fe0:	16120098 	bne	s0,s2,bfc02244 <inst_error>
bfc01fe4:	00000000 	nop
bfc01fe8:	24080000 	li	t0,0
bfc01fec:	2409001d 	li	t1,29
bfc01ff0:	00088740 	sll	s0,t0,0x1d
bfc01ff4:	24120000 	li	s2,0
bfc01ff8:	16120092 	bne	s0,s2,bfc02244 <inst_error>
bfc01ffc:	00000000 	nop
bfc02000:	24080000 	li	t0,0
bfc02004:	24090002 	li	t1,2
bfc02008:	00088080 	sll	s0,t0,0x2
bfc0200c:	24120000 	li	s2,0
bfc02010:	1612008c 	bne	s0,s2,bfc02244 <inst_error>
bfc02014:	00000000 	nop
bfc02018:	24080000 	li	t0,0
bfc0201c:	24090011 	li	t1,17
bfc02020:	00088440 	sll	s0,t0,0x11
bfc02024:	24120000 	li	s2,0
bfc02028:	16120086 	bne	s0,s2,bfc02244 <inst_error>
bfc0202c:	00000000 	nop
bfc02030:	24080000 	li	t0,0
bfc02034:	2409001e 	li	t1,30
bfc02038:	00088780 	sll	s0,t0,0x1e
bfc0203c:	24120000 	li	s2,0
bfc02040:	16120080 	bne	s0,s2,bfc02244 <inst_error>
bfc02044:	00000000 	nop
bfc02048:	24080000 	li	t0,0
bfc0204c:	24090012 	li	t1,18
bfc02050:	00088480 	sll	s0,t0,0x12
bfc02054:	24120000 	li	s2,0
bfc02058:	1612007a 	bne	s0,s2,bfc02244 <inst_error>
bfc0205c:	00000000 	nop
bfc02060:	24080000 	li	t0,0
bfc02064:	24090001 	li	t1,1
bfc02068:	00088040 	sll	s0,t0,0x1
bfc0206c:	24120000 	li	s2,0
bfc02070:	16120074 	bne	s0,s2,bfc02244 <inst_error>
bfc02074:	00000000 	nop
bfc02078:	24080000 	li	t0,0
bfc0207c:	24090012 	li	t1,18
bfc02080:	00088480 	sll	s0,t0,0x12
bfc02084:	24120000 	li	s2,0
bfc02088:	1612006e 	bne	s0,s2,bfc02244 <inst_error>
bfc0208c:	00000000 	nop
bfc02090:	24080000 	li	t0,0
bfc02094:	24090006 	li	t1,6
bfc02098:	00088180 	sll	s0,t0,0x6
bfc0209c:	24120000 	li	s2,0
bfc020a0:	16120068 	bne	s0,s2,bfc02244 <inst_error>
bfc020a4:	00000000 	nop
bfc020a8:	24080000 	li	t0,0
bfc020ac:	24090016 	li	t1,22
bfc020b0:	00088580 	sll	s0,t0,0x16
bfc020b4:	24120000 	li	s2,0
bfc020b8:	16120062 	bne	s0,s2,bfc02244 <inst_error>
bfc020bc:	00000000 	nop
bfc020c0:	24080000 	li	t0,0
bfc020c4:	24090001 	li	t1,1
bfc020c8:	00088040 	sll	s0,t0,0x1
bfc020cc:	24120000 	li	s2,0
bfc020d0:	1612005c 	bne	s0,s2,bfc02244 <inst_error>
bfc020d4:	00000000 	nop
bfc020d8:	24080000 	li	t0,0
bfc020dc:	24090012 	li	t1,18
bfc020e0:	00088480 	sll	s0,t0,0x12
bfc020e4:	24120000 	li	s2,0
bfc020e8:	16120056 	bne	s0,s2,bfc02244 <inst_error>
bfc020ec:	00000000 	nop
bfc020f0:	24080000 	li	t0,0
bfc020f4:	2409001c 	li	t1,28
bfc020f8:	00088700 	sll	s0,t0,0x1c
bfc020fc:	24120000 	li	s2,0
bfc02100:	16120050 	bne	s0,s2,bfc02244 <inst_error>
bfc02104:	00000000 	nop
bfc02108:	24080000 	li	t0,0
bfc0210c:	24090010 	li	t1,16
bfc02110:	00088400 	sll	s0,t0,0x10
bfc02114:	24120000 	li	s2,0
bfc02118:	1612004a 	bne	s0,s2,bfc02244 <inst_error>
bfc0211c:	00000000 	nop
bfc02120:	24080000 	li	t0,0
bfc02124:	24090003 	li	t1,3
bfc02128:	000880c0 	sll	s0,t0,0x3
bfc0212c:	24120000 	li	s2,0
bfc02130:	16120044 	bne	s0,s2,bfc02244 <inst_error>
bfc02134:	00000000 	nop
bfc02138:	24080000 	li	t0,0
bfc0213c:	2409000a 	li	t1,10
bfc02140:	00088280 	sll	s0,t0,0xa
bfc02144:	24120000 	li	s2,0
bfc02148:	1612003e 	bne	s0,s2,bfc02244 <inst_error>
bfc0214c:	00000000 	nop
bfc02150:	24080000 	li	t0,0
bfc02154:	2409000e 	li	t1,14
bfc02158:	00088380 	sll	s0,t0,0xe
bfc0215c:	24120000 	li	s2,0
bfc02160:	16120038 	bne	s0,s2,bfc02244 <inst_error>
bfc02164:	00000000 	nop
bfc02168:	24080000 	li	t0,0
bfc0216c:	24090012 	li	t1,18
bfc02170:	00088480 	sll	s0,t0,0x12
bfc02174:	24120000 	li	s2,0
bfc02178:	16120032 	bne	s0,s2,bfc02244 <inst_error>
bfc0217c:	00000000 	nop
bfc02180:	24080000 	li	t0,0
bfc02184:	2409001d 	li	t1,29
bfc02188:	00088740 	sll	s0,t0,0x1d
bfc0218c:	24120000 	li	s2,0
bfc02190:	1612002c 	bne	s0,s2,bfc02244 <inst_error>
bfc02194:	00000000 	nop
bfc02198:	24080000 	li	t0,0
bfc0219c:	24090013 	li	t1,19
bfc021a0:	000884c0 	sll	s0,t0,0x13
bfc021a4:	24120000 	li	s2,0
bfc021a8:	16120026 	bne	s0,s2,bfc02244 <inst_error>
bfc021ac:	00000000 	nop
bfc021b0:	24080000 	li	t0,0
bfc021b4:	24090015 	li	t1,21
bfc021b8:	00088540 	sll	s0,t0,0x15
bfc021bc:	24120000 	li	s2,0
bfc021c0:	16120020 	bne	s0,s2,bfc02244 <inst_error>
bfc021c4:	00000000 	nop
bfc021c8:	24080000 	li	t0,0
bfc021cc:	24090008 	li	t1,8
bfc021d0:	00088200 	sll	s0,t0,0x8
bfc021d4:	24120000 	li	s2,0
bfc021d8:	1612001a 	bne	s0,s2,bfc02244 <inst_error>
bfc021dc:	00000000 	nop
bfc021e0:	24080000 	li	t0,0
bfc021e4:	24090005 	li	t1,5
bfc021e8:	00088140 	sll	s0,t0,0x5
bfc021ec:	24120000 	li	s2,0
bfc021f0:	16120014 	bne	s0,s2,bfc02244 <inst_error>
bfc021f4:	00000000 	nop
bfc021f8:	24080000 	li	t0,0
bfc021fc:	24090017 	li	t1,23
bfc02200:	000885c0 	sll	s0,t0,0x17
bfc02204:	24120000 	li	s2,0
bfc02208:	1612000e 	bne	s0,s2,bfc02244 <inst_error>
bfc0220c:	00000000 	nop
bfc02210:	24080000 	li	t0,0
bfc02214:	2409000a 	li	t1,10
bfc02218:	00088280 	sll	s0,t0,0xa
bfc0221c:	24120000 	li	s2,0
bfc02220:	16120008 	bne	s0,s2,bfc02244 <inst_error>
bfc02224:	00000000 	nop
bfc02228:	24080000 	li	t0,0
bfc0222c:	24090000 	li	t1,0
bfc02230:	00088000 	sll	s0,t0,0x0
bfc02234:	24120000 	li	s2,0
bfc02238:	16120002 	bne	s0,s2,bfc02244 <inst_error>
bfc0223c:	00000000 	nop
bfc02240:	4a000000 	c2	0x0

bfc02244 <inst_error>:
inst_error():
bfc02244:	0000003f 	0x3f

Disassembly of section .reginfo:

00000000 <.reginfo>:
   0:	00050300 	sll	zero,a1,0xc
	...
