
build/sllv:     file format elf32-tradlittlemips
build/sllv


Disassembly of section .text:

bfc00000 <main>:
bfc00000:	3c0879db 	lui	t0,0x79db
bfc00004:	3508db34 	ori	t0,t0,0xdb34
bfc00008:	24090007 	li	t1,7
bfc0000c:	01288004 	sllv	s0,t0,t1
bfc00010:	3c12eded 	lui	s2,0xeded
bfc00014:	36529a00 	ori	s2,s2,0x9a00
bfc00018:	1612087c 	bne	s0,s2,bfc0220c <inst_error>
bfc0001c:	00000000 	nop
bfc00020:	3c08a903 	lui	t0,0xa903
bfc00024:	3508fa10 	ori	t0,t0,0xfa10
bfc00028:	2409001d 	li	t1,29
bfc0002c:	01288004 	sllv	s0,t0,t1
bfc00030:	24120000 	li	s2,0
bfc00034:	16120875 	bne	s0,s2,bfc0220c <inst_error>
bfc00038:	00000000 	nop
bfc0003c:	3c086bd7 	lui	t0,0x6bd7
bfc00040:	350839d8 	ori	t0,t0,0x39d8
bfc00044:	2409000d 	li	t1,13
bfc00048:	01288004 	sllv	s0,t0,t1
bfc0004c:	3c12e73b 	lui	s2,0xe73b
bfc00050:	1612086e 	bne	s0,s2,bfc0220c <inst_error>
bfc00054:	00000000 	nop
bfc00058:	3c08273a 	lui	t0,0x273a
bfc0005c:	3508784a 	ori	t0,t0,0x784a
bfc00060:	2409000a 	li	t1,10
bfc00064:	01288004 	sllv	s0,t0,t1
bfc00068:	3c12e9e1 	lui	s2,0xe9e1
bfc0006c:	36522800 	ori	s2,s2,0x2800
bfc00070:	16120866 	bne	s0,s2,bfc0220c <inst_error>
bfc00074:	00000000 	nop
bfc00078:	3c083405 	lui	t0,0x3405
bfc0007c:	35088000 	ori	t0,t0,0x8000
bfc00080:	24090009 	li	t1,9
bfc00084:	01288004 	sllv	s0,t0,t1
bfc00088:	3c120b00 	lui	s2,0xb00
bfc0008c:	1612085f 	bne	s0,s2,bfc0220c <inst_error>
bfc00090:	00000000 	nop
bfc00094:	3c087c82 	lui	t0,0x7c82
bfc00098:	35085738 	ori	t0,t0,0x5738
bfc0009c:	24090002 	li	t1,2
bfc000a0:	01288004 	sllv	s0,t0,t1
bfc000a4:	3c12f209 	lui	s2,0xf209
bfc000a8:	36525ce0 	ori	s2,s2,0x5ce0
bfc000ac:	16120857 	bne	s0,s2,bfc0220c <inst_error>
bfc000b0:	00000000 	nop
bfc000b4:	3c087016 	lui	t0,0x7016
bfc000b8:	3508cbc2 	ori	t0,t0,0xcbc2
bfc000bc:	2409000a 	li	t1,10
bfc000c0:	01288004 	sllv	s0,t0,t1
bfc000c4:	3c125b2f 	lui	s2,0x5b2f
bfc000c8:	36520800 	ori	s2,s2,0x800
bfc000cc:	1612084f 	bne	s0,s2,bfc0220c <inst_error>
bfc000d0:	00000000 	nop
bfc000d4:	3c084a4a 	lui	t0,0x4a4a
bfc000d8:	350830e0 	ori	t0,t0,0x30e0
bfc000dc:	24090009 	li	t1,9
bfc000e0:	01288004 	sllv	s0,t0,t1
bfc000e4:	3c129461 	lui	s2,0x9461
bfc000e8:	3652c000 	ori	s2,s2,0xc000
bfc000ec:	16120847 	bne	s0,s2,bfc0220c <inst_error>
bfc000f0:	00000000 	nop
bfc000f4:	3c08949d 	lui	t0,0x949d
bfc000f8:	350824ae 	ori	t0,t0,0x24ae
bfc000fc:	2409000f 	li	t1,15
bfc00100:	01288004 	sllv	s0,t0,t1
bfc00104:	3c129257 	lui	s2,0x9257
bfc00108:	16120840 	bne	s0,s2,bfc0220c <inst_error>
bfc0010c:	00000000 	nop
bfc00110:	3c08951c 	lui	t0,0x951c
bfc00114:	3508a218 	ori	t0,t0,0xa218
bfc00118:	2409001c 	li	t1,28
bfc0011c:	01288004 	sllv	s0,t0,t1
bfc00120:	3c128000 	lui	s2,0x8000
bfc00124:	16120839 	bne	s0,s2,bfc0220c <inst_error>
bfc00128:	00000000 	nop
bfc0012c:	3c08c137 	lui	t0,0xc137
bfc00130:	3508cea0 	ori	t0,t0,0xcea0
bfc00134:	24090013 	li	t1,19
bfc00138:	01288004 	sllv	s0,t0,t1
bfc0013c:	3c127500 	lui	s2,0x7500
bfc00140:	16120832 	bne	s0,s2,bfc0220c <inst_error>
bfc00144:	00000000 	nop
bfc00148:	3c0896b7 	lui	t0,0x96b7
bfc0014c:	3508d6f6 	ori	t0,t0,0xd6f6
bfc00150:	24090019 	li	t1,25
bfc00154:	01288004 	sllv	s0,t0,t1
bfc00158:	3c12ec00 	lui	s2,0xec00
bfc0015c:	1612082b 	bne	s0,s2,bfc0220c <inst_error>
bfc00160:	00000000 	nop
bfc00164:	3c08e2b9 	lui	t0,0xe2b9
bfc00168:	3508c7a9 	ori	t0,t0,0xc7a9
bfc0016c:	24090016 	li	t1,22
bfc00170:	01288004 	sllv	s0,t0,t1
bfc00174:	3c12ea40 	lui	s2,0xea40
bfc00178:	16120824 	bne	s0,s2,bfc0220c <inst_error>
bfc0017c:	00000000 	nop
bfc00180:	3c08b2b3 	lui	t0,0xb2b3
bfc00184:	35080175 	ori	t0,t0,0x175
bfc00188:	24090014 	li	t1,20
bfc0018c:	01288004 	sllv	s0,t0,t1
bfc00190:	3c121750 	lui	s2,0x1750
bfc00194:	1612081d 	bne	s0,s2,bfc0220c <inst_error>
bfc00198:	00000000 	nop
bfc0019c:	3c0869be 	lui	t0,0x69be
bfc001a0:	35084540 	ori	t0,t0,0x4540
bfc001a4:	2409000a 	li	t1,10
bfc001a8:	01288004 	sllv	s0,t0,t1
bfc001ac:	3c12f915 	lui	s2,0xf915
bfc001b0:	16120816 	bne	s0,s2,bfc0220c <inst_error>
bfc001b4:	00000000 	nop
bfc001b8:	3c087c52 	lui	t0,0x7c52
bfc001bc:	3508a6b8 	ori	t0,t0,0xa6b8
bfc001c0:	2409000c 	li	t1,12
bfc001c4:	01288004 	sllv	s0,t0,t1
bfc001c8:	3c122a6b 	lui	s2,0x2a6b
bfc001cc:	36528000 	ori	s2,s2,0x8000
bfc001d0:	1612080e 	bne	s0,s2,bfc0220c <inst_error>
bfc001d4:	00000000 	nop
bfc001d8:	3c08f5fa 	lui	t0,0xf5fa
bfc001dc:	3508f940 	ori	t0,t0,0xf940
bfc001e0:	24090010 	li	t1,16
bfc001e4:	01288004 	sllv	s0,t0,t1
bfc001e8:	3c12f940 	lui	s2,0xf940
bfc001ec:	16120807 	bne	s0,s2,bfc0220c <inst_error>
bfc001f0:	00000000 	nop
bfc001f4:	3c08be28 	lui	t0,0xbe28
bfc001f8:	35087b6d 	ori	t0,t0,0x7b6d
bfc001fc:	24090017 	li	t1,23
bfc00200:	01288004 	sllv	s0,t0,t1
bfc00204:	3c12b680 	lui	s2,0xb680
bfc00208:	16120800 	bne	s0,s2,bfc0220c <inst_error>
bfc0020c:	00000000 	nop
bfc00210:	3c0827fb 	lui	t0,0x27fb
bfc00214:	35082ce5 	ori	t0,t0,0x2ce5
bfc00218:	2409001b 	li	t1,27
bfc0021c:	01288004 	sllv	s0,t0,t1
bfc00220:	3c122800 	lui	s2,0x2800
bfc00224:	161207f9 	bne	s0,s2,bfc0220c <inst_error>
bfc00228:	00000000 	nop
bfc0022c:	3c0810e5 	lui	t0,0x10e5
bfc00230:	35086648 	ori	t0,t0,0x6648
bfc00234:	2409000c 	li	t1,12
bfc00238:	01288004 	sllv	s0,t0,t1
bfc0023c:	3c125664 	lui	s2,0x5664
bfc00240:	36528000 	ori	s2,s2,0x8000
bfc00244:	161207f1 	bne	s0,s2,bfc0220c <inst_error>
bfc00248:	00000000 	nop
bfc0024c:	3c08f1f7 	lui	t0,0xf1f7
bfc00250:	35086d5c 	ori	t0,t0,0x6d5c
bfc00254:	24090019 	li	t1,25
bfc00258:	01288004 	sllv	s0,t0,t1
bfc0025c:	3c12b800 	lui	s2,0xb800
bfc00260:	161207ea 	bne	s0,s2,bfc0220c <inst_error>
bfc00264:	00000000 	nop
bfc00268:	3c081eea 	lui	t0,0x1eea
bfc0026c:	35084938 	ori	t0,t0,0x4938
bfc00270:	24090014 	li	t1,20
bfc00274:	01288004 	sllv	s0,t0,t1
bfc00278:	3c129380 	lui	s2,0x9380
bfc0027c:	161207e3 	bne	s0,s2,bfc0220c <inst_error>
bfc00280:	00000000 	nop
bfc00284:	3c089925 	lui	t0,0x9925
bfc00288:	3508ee64 	ori	t0,t0,0xee64
bfc0028c:	2409000f 	li	t1,15
bfc00290:	01288004 	sllv	s0,t0,t1
bfc00294:	3c12f732 	lui	s2,0xf732
bfc00298:	161207dc 	bne	s0,s2,bfc0220c <inst_error>
bfc0029c:	00000000 	nop
bfc002a0:	3c08687c 	lui	t0,0x687c
bfc002a4:	350868b0 	ori	t0,t0,0x68b0
bfc002a8:	24090014 	li	t1,20
bfc002ac:	01288004 	sllv	s0,t0,t1
bfc002b0:	3c128b00 	lui	s2,0x8b00
bfc002b4:	161207d5 	bne	s0,s2,bfc0220c <inst_error>
bfc002b8:	00000000 	nop
bfc002bc:	3c085783 	lui	t0,0x5783
bfc002c0:	35086790 	ori	t0,t0,0x6790
bfc002c4:	24090016 	li	t1,22
bfc002c8:	01288004 	sllv	s0,t0,t1
bfc002cc:	3c12e400 	lui	s2,0xe400
bfc002d0:	161207ce 	bne	s0,s2,bfc0220c <inst_error>
bfc002d4:	00000000 	nop
bfc002d8:	3c08f105 	lui	t0,0xf105
bfc002dc:	3508ef10 	ori	t0,t0,0xef10
bfc002e0:	2409000d 	li	t1,13
bfc002e4:	01288004 	sllv	s0,t0,t1
bfc002e8:	3c12bde2 	lui	s2,0xbde2
bfc002ec:	161207c7 	bne	s0,s2,bfc0220c <inst_error>
bfc002f0:	00000000 	nop
bfc002f4:	3c08f214 	lui	t0,0xf214
bfc002f8:	3508adb4 	ori	t0,t0,0xadb4
bfc002fc:	24090006 	li	t1,6
bfc00300:	01288004 	sllv	s0,t0,t1
bfc00304:	3c12852b 	lui	s2,0x852b
bfc00308:	36526d00 	ori	s2,s2,0x6d00
bfc0030c:	161207bf 	bne	s0,s2,bfc0220c <inst_error>
bfc00310:	00000000 	nop
bfc00314:	3c08398a 	lui	t0,0x398a
bfc00318:	35082730 	ori	t0,t0,0x2730
bfc0031c:	24090013 	li	t1,19
bfc00320:	01288004 	sllv	s0,t0,t1
bfc00324:	3c123980 	lui	s2,0x3980
bfc00328:	161207b8 	bne	s0,s2,bfc0220c <inst_error>
bfc0032c:	00000000 	nop
bfc00330:	3c085b29 	lui	t0,0x5b29
bfc00334:	3508289c 	ori	t0,t0,0x289c
bfc00338:	24090013 	li	t1,19
bfc0033c:	01288004 	sllv	s0,t0,t1
bfc00340:	3c1244e0 	lui	s2,0x44e0
bfc00344:	161207b1 	bne	s0,s2,bfc0220c <inst_error>
bfc00348:	00000000 	nop
bfc0034c:	3c08c9a4 	lui	t0,0xc9a4
bfc00350:	350819c0 	ori	t0,t0,0x19c0
bfc00354:	24090019 	li	t1,25
bfc00358:	01288004 	sllv	s0,t0,t1
bfc0035c:	3c128000 	lui	s2,0x8000
bfc00360:	161207aa 	bne	s0,s2,bfc0220c <inst_error>
bfc00364:	00000000 	nop
bfc00368:	3c088788 	lui	t0,0x8788
bfc0036c:	35083249 	ori	t0,t0,0x3249
bfc00370:	24090013 	li	t1,19
bfc00374:	01288004 	sllv	s0,t0,t1
bfc00378:	3c129248 	lui	s2,0x9248
bfc0037c:	161207a3 	bne	s0,s2,bfc0220c <inst_error>
bfc00380:	00000000 	nop
bfc00384:	3c08a1d6 	lui	t0,0xa1d6
bfc00388:	3508c588 	ori	t0,t0,0xc588
bfc0038c:	24090011 	li	t1,17
bfc00390:	01288004 	sllv	s0,t0,t1
bfc00394:	3c128b10 	lui	s2,0x8b10
bfc00398:	1612079c 	bne	s0,s2,bfc0220c <inst_error>
bfc0039c:	00000000 	nop
bfc003a0:	3c082375 	lui	t0,0x2375
bfc003a4:	35088004 	ori	t0,t0,0x8004
bfc003a8:	24090009 	li	t1,9
bfc003ac:	01288004 	sllv	s0,t0,t1
bfc003b0:	3c12eb00 	lui	s2,0xeb00
bfc003b4:	36520800 	ori	s2,s2,0x800
bfc003b8:	16120794 	bne	s0,s2,bfc0220c <inst_error>
bfc003bc:	00000000 	nop
bfc003c0:	3c08c6e9 	lui	t0,0xc6e9
bfc003c4:	350828d0 	ori	t0,t0,0x28d0
bfc003c8:	2409000f 	li	t1,15
bfc003cc:	01288004 	sllv	s0,t0,t1
bfc003d0:	3c129468 	lui	s2,0x9468
bfc003d4:	1612078d 	bne	s0,s2,bfc0220c <inst_error>
bfc003d8:	00000000 	nop
bfc003dc:	3c088d90 	lui	t0,0x8d90
bfc003e0:	35080ae4 	ori	t0,t0,0xae4
bfc003e4:	24090010 	li	t1,16
bfc003e8:	01288004 	sllv	s0,t0,t1
bfc003ec:	3c120ae4 	lui	s2,0xae4
bfc003f0:	16120786 	bne	s0,s2,bfc0220c <inst_error>
bfc003f4:	00000000 	nop
bfc003f8:	3c0899e3 	lui	t0,0x99e3
bfc003fc:	3508ba00 	ori	t0,t0,0xba00
bfc00400:	2409001b 	li	t1,27
bfc00404:	01288004 	sllv	s0,t0,t1
bfc00408:	24120000 	li	s2,0
bfc0040c:	1612077f 	bne	s0,s2,bfc0220c <inst_error>
bfc00410:	00000000 	nop
bfc00414:	3c080137 	lui	t0,0x137
bfc00418:	3508d1e8 	ori	t0,t0,0xd1e8
bfc0041c:	2409000d 	li	t1,13
bfc00420:	01288004 	sllv	s0,t0,t1
bfc00424:	3c12fa3d 	lui	s2,0xfa3d
bfc00428:	16120778 	bne	s0,s2,bfc0220c <inst_error>
bfc0042c:	00000000 	nop
bfc00430:	3c088fd6 	lui	t0,0x8fd6
bfc00434:	35082ad0 	ori	t0,t0,0x2ad0
bfc00438:	24090000 	li	t1,0
bfc0043c:	01288004 	sllv	s0,t0,t1
bfc00440:	3c128fd6 	lui	s2,0x8fd6
bfc00444:	36522ad0 	ori	s2,s2,0x2ad0
bfc00448:	16120770 	bne	s0,s2,bfc0220c <inst_error>
bfc0044c:	00000000 	nop
bfc00450:	3c080b88 	lui	t0,0xb88
bfc00454:	35088d4c 	ori	t0,t0,0x8d4c
bfc00458:	2409001a 	li	t1,26
bfc0045c:	01288004 	sllv	s0,t0,t1
bfc00460:	3c123000 	lui	s2,0x3000
bfc00464:	16120769 	bne	s0,s2,bfc0220c <inst_error>
bfc00468:	00000000 	nop
bfc0046c:	3c08585f 	lui	t0,0x585f
bfc00470:	35088f28 	ori	t0,t0,0x8f28
bfc00474:	24090007 	li	t1,7
bfc00478:	01288004 	sllv	s0,t0,t1
bfc0047c:	3c122fc7 	lui	s2,0x2fc7
bfc00480:	36529400 	ori	s2,s2,0x9400
bfc00484:	16120761 	bne	s0,s2,bfc0220c <inst_error>
bfc00488:	00000000 	nop
bfc0048c:	3c08b0b0 	lui	t0,0xb0b0
bfc00490:	35089f98 	ori	t0,t0,0x9f98
bfc00494:	24090007 	li	t1,7
bfc00498:	01288004 	sllv	s0,t0,t1
bfc0049c:	3c12584f 	lui	s2,0x584f
bfc004a0:	3652cc00 	ori	s2,s2,0xcc00
bfc004a4:	16120759 	bne	s0,s2,bfc0220c <inst_error>
bfc004a8:	00000000 	nop
bfc004ac:	3c08e08d 	lui	t0,0xe08d
bfc004b0:	3508ab9c 	ori	t0,t0,0xab9c
bfc004b4:	24090009 	li	t1,9
bfc004b8:	01288004 	sllv	s0,t0,t1
bfc004bc:	3c121b57 	lui	s2,0x1b57
bfc004c0:	36523800 	ori	s2,s2,0x3800
bfc004c4:	16120751 	bne	s0,s2,bfc0220c <inst_error>
bfc004c8:	00000000 	nop
bfc004cc:	3c08c0f7 	lui	t0,0xc0f7
bfc004d0:	35081e1c 	ori	t0,t0,0x1e1c
bfc004d4:	24090004 	li	t1,4
bfc004d8:	01288004 	sllv	s0,t0,t1
bfc004dc:	3c120f71 	lui	s2,0xf71
bfc004e0:	3652e1c0 	ori	s2,s2,0xe1c0
bfc004e4:	16120749 	bne	s0,s2,bfc0220c <inst_error>
bfc004e8:	00000000 	nop
bfc004ec:	3c08ff68 	lui	t0,0xff68
bfc004f0:	35085a9c 	ori	t0,t0,0x5a9c
bfc004f4:	2409001f 	li	t1,31
bfc004f8:	01288004 	sllv	s0,t0,t1
bfc004fc:	24120000 	li	s2,0
bfc00500:	16120742 	bne	s0,s2,bfc0220c <inst_error>
bfc00504:	00000000 	nop
bfc00508:	3c08a32c 	lui	t0,0xa32c
bfc0050c:	35084348 	ori	t0,t0,0x4348
bfc00510:	24090017 	li	t1,23
bfc00514:	01288004 	sllv	s0,t0,t1
bfc00518:	3c12a400 	lui	s2,0xa400
bfc0051c:	1612073b 	bne	s0,s2,bfc0220c <inst_error>
bfc00520:	00000000 	nop
bfc00524:	3c08e261 	lui	t0,0xe261
bfc00528:	35081a00 	ori	t0,t0,0x1a00
bfc0052c:	2409000a 	li	t1,10
bfc00530:	01288004 	sllv	s0,t0,t1
bfc00534:	3c128468 	lui	s2,0x8468
bfc00538:	16120734 	bne	s0,s2,bfc0220c <inst_error>
bfc0053c:	00000000 	nop
bfc00540:	3c080122 	lui	t0,0x122
bfc00544:	3508739b 	ori	t0,t0,0x739b
bfc00548:	2409000d 	li	t1,13
bfc0054c:	01288004 	sllv	s0,t0,t1
bfc00550:	3c124e73 	lui	s2,0x4e73
bfc00554:	36526000 	ori	s2,s2,0x6000
bfc00558:	1612072c 	bne	s0,s2,bfc0220c <inst_error>
bfc0055c:	00000000 	nop
bfc00560:	3c08c743 	lui	t0,0xc743
bfc00564:	35083a9e 	ori	t0,t0,0x3a9e
bfc00568:	2409000d 	li	t1,13
bfc0056c:	01288004 	sllv	s0,t0,t1
bfc00570:	3c126753 	lui	s2,0x6753
bfc00574:	3652c000 	ori	s2,s2,0xc000
bfc00578:	16120724 	bne	s0,s2,bfc0220c <inst_error>
bfc0057c:	00000000 	nop
bfc00580:	3c08118f 	lui	t0,0x118f
bfc00584:	3508cb00 	ori	t0,t0,0xcb00
bfc00588:	24090002 	li	t1,2
bfc0058c:	01288004 	sllv	s0,t0,t1
bfc00590:	3c12463f 	lui	s2,0x463f
bfc00594:	36522c00 	ori	s2,s2,0x2c00
bfc00598:	1612071c 	bne	s0,s2,bfc0220c <inst_error>
bfc0059c:	00000000 	nop
bfc005a0:	3c0872d3 	lui	t0,0x72d3
bfc005a4:	3508ced8 	ori	t0,t0,0xced8
bfc005a8:	24090015 	li	t1,21
bfc005ac:	01288004 	sllv	s0,t0,t1
bfc005b0:	3c12db00 	lui	s2,0xdb00
bfc005b4:	16120715 	bne	s0,s2,bfc0220c <inst_error>
bfc005b8:	00000000 	nop
bfc005bc:	3c08ce4d 	lui	t0,0xce4d
bfc005c0:	35082a10 	ori	t0,t0,0x2a10
bfc005c4:	2409001a 	li	t1,26
bfc005c8:	01288004 	sllv	s0,t0,t1
bfc005cc:	3c124000 	lui	s2,0x4000
bfc005d0:	1612070e 	bne	s0,s2,bfc0220c <inst_error>
bfc005d4:	00000000 	nop
bfc005d8:	3c084ea4 	lui	t0,0x4ea4
bfc005dc:	3508b03a 	ori	t0,t0,0xb03a
bfc005e0:	24090013 	li	t1,19
bfc005e4:	01288004 	sllv	s0,t0,t1
bfc005e8:	3c1281d0 	lui	s2,0x81d0
bfc005ec:	16120707 	bne	s0,s2,bfc0220c <inst_error>
bfc005f0:	00000000 	nop
bfc005f4:	3c08470a 	lui	t0,0x470a
bfc005f8:	3508c0d0 	ori	t0,t0,0xc0d0
bfc005fc:	2409001d 	li	t1,29
bfc00600:	01288004 	sllv	s0,t0,t1
bfc00604:	24120000 	li	s2,0
bfc00608:	16120700 	bne	s0,s2,bfc0220c <inst_error>
bfc0060c:	00000000 	nop
bfc00610:	3c087106 	lui	t0,0x7106
bfc00614:	3508c6a0 	ori	t0,t0,0xc6a0
bfc00618:	24090017 	li	t1,23
bfc0061c:	01288004 	sllv	s0,t0,t1
bfc00620:	3c125000 	lui	s2,0x5000
bfc00624:	161206f9 	bne	s0,s2,bfc0220c <inst_error>
bfc00628:	00000000 	nop
bfc0062c:	3c08eb36 	lui	t0,0xeb36
bfc00630:	3508b8d6 	ori	t0,t0,0xb8d6
bfc00634:	24090006 	li	t1,6
bfc00638:	01288004 	sllv	s0,t0,t1
bfc0063c:	3c12cdae 	lui	s2,0xcdae
bfc00640:	36523580 	ori	s2,s2,0x3580
bfc00644:	161206f1 	bne	s0,s2,bfc0220c <inst_error>
bfc00648:	00000000 	nop
bfc0064c:	3c08e69f 	lui	t0,0xe69f
bfc00650:	3508eb9a 	ori	t0,t0,0xeb9a
bfc00654:	2409000b 	li	t1,11
bfc00658:	01288004 	sllv	s0,t0,t1
bfc0065c:	3c12ff5c 	lui	s2,0xff5c
bfc00660:	3652d000 	ori	s2,s2,0xd000
bfc00664:	161206e9 	bne	s0,s2,bfc0220c <inst_error>
bfc00668:	00000000 	nop
bfc0066c:	3c08d2fb 	lui	t0,0xd2fb
bfc00670:	3508fd80 	ori	t0,t0,0xfd80
bfc00674:	24090019 	li	t1,25
bfc00678:	01288004 	sllv	s0,t0,t1
bfc0067c:	24120000 	li	s2,0
bfc00680:	161206e2 	bne	s0,s2,bfc0220c <inst_error>
bfc00684:	00000000 	nop
bfc00688:	3c0899b0 	lui	t0,0x99b0
bfc0068c:	3508b320 	ori	t0,t0,0xb320
bfc00690:	24090018 	li	t1,24
bfc00694:	01288004 	sllv	s0,t0,t1
bfc00698:	3c122000 	lui	s2,0x2000
bfc0069c:	161206db 	bne	s0,s2,bfc0220c <inst_error>
bfc006a0:	00000000 	nop
bfc006a4:	3c083d43 	lui	t0,0x3d43
bfc006a8:	3508a180 	ori	t0,t0,0xa180
bfc006ac:	24090016 	li	t1,22
bfc006b0:	01288004 	sllv	s0,t0,t1
bfc006b4:	3c126000 	lui	s2,0x6000
bfc006b8:	161206d4 	bne	s0,s2,bfc0220c <inst_error>
bfc006bc:	00000000 	nop
bfc006c0:	3c088116 	lui	t0,0x8116
bfc006c4:	350833f0 	ori	t0,t0,0x33f0
bfc006c8:	2409001d 	li	t1,29
bfc006cc:	01288004 	sllv	s0,t0,t1
bfc006d0:	24120000 	li	s2,0
bfc006d4:	161206cd 	bne	s0,s2,bfc0220c <inst_error>
bfc006d8:	00000000 	nop
bfc006dc:	3c080ada 	lui	t0,0xada
bfc006e0:	3508f9d0 	ori	t0,t0,0xf9d0
bfc006e4:	24090009 	li	t1,9
bfc006e8:	01288004 	sllv	s0,t0,t1
bfc006ec:	3c12b5f3 	lui	s2,0xb5f3
bfc006f0:	3652a000 	ori	s2,s2,0xa000
bfc006f4:	161206c5 	bne	s0,s2,bfc0220c <inst_error>
bfc006f8:	00000000 	nop
bfc006fc:	3c082ac4 	lui	t0,0x2ac4
bfc00700:	3508db84 	ori	t0,t0,0xdb84
bfc00704:	2409000b 	li	t1,11
bfc00708:	01288004 	sllv	s0,t0,t1
bfc0070c:	3c1226dc 	lui	s2,0x26dc
bfc00710:	36522000 	ori	s2,s2,0x2000
bfc00714:	161206bd 	bne	s0,s2,bfc0220c <inst_error>
bfc00718:	00000000 	nop
bfc0071c:	3c08e6b4 	lui	t0,0xe6b4
bfc00720:	35081000 	ori	t0,t0,0x1000
bfc00724:	24090000 	li	t1,0
bfc00728:	01288004 	sllv	s0,t0,t1
bfc0072c:	3c12e6b4 	lui	s2,0xe6b4
bfc00730:	36521000 	ori	s2,s2,0x1000
bfc00734:	161206b5 	bne	s0,s2,bfc0220c <inst_error>
bfc00738:	00000000 	nop
bfc0073c:	3c084405 	lui	t0,0x4405
bfc00740:	35080d44 	ori	t0,t0,0xd44
bfc00744:	2409001c 	li	t1,28
bfc00748:	01288004 	sllv	s0,t0,t1
bfc0074c:	3c124000 	lui	s2,0x4000
bfc00750:	161206ae 	bne	s0,s2,bfc0220c <inst_error>
bfc00754:	00000000 	nop
bfc00758:	3c08cef4 	lui	t0,0xcef4
bfc0075c:	35087ae0 	ori	t0,t0,0x7ae0
bfc00760:	2409001f 	li	t1,31
bfc00764:	01288004 	sllv	s0,t0,t1
bfc00768:	24120000 	li	s2,0
bfc0076c:	161206a7 	bne	s0,s2,bfc0220c <inst_error>
bfc00770:	00000000 	nop
bfc00774:	3c08cb58 	lui	t0,0xcb58
bfc00778:	3508e299 	ori	t0,t0,0xe299
bfc0077c:	2409001f 	li	t1,31
bfc00780:	01288004 	sllv	s0,t0,t1
bfc00784:	3c128000 	lui	s2,0x8000
bfc00788:	161206a0 	bne	s0,s2,bfc0220c <inst_error>
bfc0078c:	00000000 	nop
bfc00790:	3c08d761 	lui	t0,0xd761
bfc00794:	3508ba60 	ori	t0,t0,0xba60
bfc00798:	2409000a 	li	t1,10
bfc0079c:	01288004 	sllv	s0,t0,t1
bfc007a0:	3c1286e9 	lui	s2,0x86e9
bfc007a4:	36528000 	ori	s2,s2,0x8000
bfc007a8:	16120698 	bne	s0,s2,bfc0220c <inst_error>
bfc007ac:	00000000 	nop
bfc007b0:	3c08c4b9 	lui	t0,0xc4b9
bfc007b4:	35087c6e 	ori	t0,t0,0x7c6e
bfc007b8:	24090006 	li	t1,6
bfc007bc:	01288004 	sllv	s0,t0,t1
bfc007c0:	3c122e5f 	lui	s2,0x2e5f
bfc007c4:	36521b80 	ori	s2,s2,0x1b80
bfc007c8:	16120690 	bne	s0,s2,bfc0220c <inst_error>
bfc007cc:	00000000 	nop
bfc007d0:	3c08d8e0 	lui	t0,0xd8e0
bfc007d4:	350884e0 	ori	t0,t0,0x84e0
bfc007d8:	24090017 	li	t1,23
bfc007dc:	01288004 	sllv	s0,t0,t1
bfc007e0:	3c127000 	lui	s2,0x7000
bfc007e4:	16120689 	bne	s0,s2,bfc0220c <inst_error>
bfc007e8:	00000000 	nop
bfc007ec:	3c086f62 	lui	t0,0x6f62
bfc007f0:	3508be20 	ori	t0,t0,0xbe20
bfc007f4:	24090000 	li	t1,0
bfc007f8:	01288004 	sllv	s0,t0,t1
bfc007fc:	3c126f62 	lui	s2,0x6f62
bfc00800:	3652be20 	ori	s2,s2,0xbe20
bfc00804:	16120681 	bne	s0,s2,bfc0220c <inst_error>
bfc00808:	00000000 	nop
bfc0080c:	3c0893fa 	lui	t0,0x93fa
bfc00810:	35082224 	ori	t0,t0,0x2224
bfc00814:	24090009 	li	t1,9
bfc00818:	01288004 	sllv	s0,t0,t1
bfc0081c:	3c12f444 	lui	s2,0xf444
bfc00820:	36524800 	ori	s2,s2,0x4800
bfc00824:	16120679 	bne	s0,s2,bfc0220c <inst_error>
bfc00828:	00000000 	nop
bfc0082c:	3c081746 	lui	t0,0x1746
bfc00830:	35080a00 	ori	t0,t0,0xa00
bfc00834:	24090019 	li	t1,25
bfc00838:	01288004 	sllv	s0,t0,t1
bfc0083c:	24120000 	li	s2,0
bfc00840:	16120672 	bne	s0,s2,bfc0220c <inst_error>
bfc00844:	00000000 	nop
bfc00848:	3c087d04 	lui	t0,0x7d04
bfc0084c:	3508da00 	ori	t0,t0,0xda00
bfc00850:	2409000f 	li	t1,15
bfc00854:	01288004 	sllv	s0,t0,t1
bfc00858:	3c126d00 	lui	s2,0x6d00
bfc0085c:	1612066b 	bne	s0,s2,bfc0220c <inst_error>
bfc00860:	00000000 	nop
bfc00864:	3c08940d 	lui	t0,0x940d
bfc00868:	3508f080 	ori	t0,t0,0xf080
bfc0086c:	24090013 	li	t1,19
bfc00870:	01288004 	sllv	s0,t0,t1
bfc00874:	3c128400 	lui	s2,0x8400
bfc00878:	16120664 	bne	s0,s2,bfc0220c <inst_error>
bfc0087c:	00000000 	nop
bfc00880:	3c084deb 	lui	t0,0x4deb
bfc00884:	3508fc42 	ori	t0,t0,0xfc42
bfc00888:	2409001d 	li	t1,29
bfc0088c:	01288004 	sllv	s0,t0,t1
bfc00890:	3c124000 	lui	s2,0x4000
bfc00894:	1612065d 	bne	s0,s2,bfc0220c <inst_error>
bfc00898:	00000000 	nop
bfc0089c:	3c08e8bc 	lui	t0,0xe8bc
bfc008a0:	3508a424 	ori	t0,t0,0xa424
bfc008a4:	2409000e 	li	t1,14
bfc008a8:	01288004 	sllv	s0,t0,t1
bfc008ac:	3c122909 	lui	s2,0x2909
bfc008b0:	16120656 	bne	s0,s2,bfc0220c <inst_error>
bfc008b4:	00000000 	nop
bfc008b8:	3c084ded 	lui	t0,0x4ded
bfc008bc:	3508e958 	ori	t0,t0,0xe958
bfc008c0:	2409001b 	li	t1,27
bfc008c4:	01288004 	sllv	s0,t0,t1
bfc008c8:	3c12c000 	lui	s2,0xc000
bfc008cc:	1612064f 	bne	s0,s2,bfc0220c <inst_error>
bfc008d0:	00000000 	nop
bfc008d4:	3c084e70 	lui	t0,0x4e70
bfc008d8:	3508b0be 	ori	t0,t0,0xb0be
bfc008dc:	24090011 	li	t1,17
bfc008e0:	01288004 	sllv	s0,t0,t1
bfc008e4:	3c12617c 	lui	s2,0x617c
bfc008e8:	16120648 	bne	s0,s2,bfc0220c <inst_error>
bfc008ec:	00000000 	nop
bfc008f0:	3c08b9f7 	lui	t0,0xb9f7
bfc008f4:	3508da6c 	ori	t0,t0,0xda6c
bfc008f8:	24090004 	li	t1,4
bfc008fc:	01288004 	sllv	s0,t0,t1
bfc00900:	3c129f7d 	lui	s2,0x9f7d
bfc00904:	3652a6c0 	ori	s2,s2,0xa6c0
bfc00908:	16120640 	bne	s0,s2,bfc0220c <inst_error>
bfc0090c:	00000000 	nop
bfc00910:	3c08d82f 	lui	t0,0xd82f
bfc00914:	3508c800 	ori	t0,t0,0xc800
bfc00918:	24090001 	li	t1,1
bfc0091c:	01288004 	sllv	s0,t0,t1
bfc00920:	3c12b05f 	lui	s2,0xb05f
bfc00924:	36529000 	ori	s2,s2,0x9000
bfc00928:	16120638 	bne	s0,s2,bfc0220c <inst_error>
bfc0092c:	00000000 	nop
bfc00930:	3c08bccf 	lui	t0,0xbccf
bfc00934:	35086abc 	ori	t0,t0,0x6abc
bfc00938:	2409000d 	li	t1,13
bfc0093c:	01288004 	sllv	s0,t0,t1
bfc00940:	3c12ed57 	lui	s2,0xed57
bfc00944:	36528000 	ori	s2,s2,0x8000
bfc00948:	16120630 	bne	s0,s2,bfc0220c <inst_error>
bfc0094c:	00000000 	nop
bfc00950:	3c08fca4 	lui	t0,0xfca4
bfc00954:	35086278 	ori	t0,t0,0x6278
bfc00958:	2409001f 	li	t1,31
bfc0095c:	01288004 	sllv	s0,t0,t1
bfc00960:	24120000 	li	s2,0
bfc00964:	16120629 	bne	s0,s2,bfc0220c <inst_error>
bfc00968:	00000000 	nop
bfc0096c:	3c08d6e4 	lui	t0,0xd6e4
bfc00970:	35082464 	ori	t0,t0,0x2464
bfc00974:	24090008 	li	t1,8
bfc00978:	01288004 	sllv	s0,t0,t1
bfc0097c:	3c12e424 	lui	s2,0xe424
bfc00980:	36526400 	ori	s2,s2,0x6400
bfc00984:	16120621 	bne	s0,s2,bfc0220c <inst_error>
bfc00988:	00000000 	nop
bfc0098c:	3c08c016 	lui	t0,0xc016
bfc00990:	35086f60 	ori	t0,t0,0x6f60
bfc00994:	2409000d 	li	t1,13
bfc00998:	01288004 	sllv	s0,t0,t1
bfc0099c:	3c12cdec 	lui	s2,0xcdec
bfc009a0:	1612061a 	bne	s0,s2,bfc0220c <inst_error>
bfc009a4:	00000000 	nop
bfc009a8:	3c0814d7 	lui	t0,0x14d7
bfc009ac:	3508f5f0 	ori	t0,t0,0xf5f0
bfc009b0:	2409000e 	li	t1,14
bfc009b4:	01288004 	sllv	s0,t0,t1
bfc009b8:	3c12fd7c 	lui	s2,0xfd7c
bfc009bc:	16120613 	bne	s0,s2,bfc0220c <inst_error>
bfc009c0:	00000000 	nop
bfc009c4:	3c082a87 	lui	t0,0x2a87
bfc009c8:	3508d301 	ori	t0,t0,0xd301
bfc009cc:	24090005 	li	t1,5
bfc009d0:	01288004 	sllv	s0,t0,t1
bfc009d4:	3c1250fa 	lui	s2,0x50fa
bfc009d8:	36526020 	ori	s2,s2,0x6020
bfc009dc:	1612060b 	bne	s0,s2,bfc0220c <inst_error>
bfc009e0:	00000000 	nop
bfc009e4:	3c081295 	lui	t0,0x1295
bfc009e8:	35088a26 	ori	t0,t0,0x8a26
bfc009ec:	24090003 	li	t1,3
bfc009f0:	01288004 	sllv	s0,t0,t1
bfc009f4:	3c1294ac 	lui	s2,0x94ac
bfc009f8:	36525130 	ori	s2,s2,0x5130
bfc009fc:	16120603 	bne	s0,s2,bfc0220c <inst_error>
bfc00a00:	00000000 	nop
bfc00a04:	3c08406a 	lui	t0,0x406a
bfc00a08:	35083de8 	ori	t0,t0,0x3de8
bfc00a0c:	2409001e 	li	t1,30
bfc00a10:	01288004 	sllv	s0,t0,t1
bfc00a14:	24120000 	li	s2,0
bfc00a18:	161205fc 	bne	s0,s2,bfc0220c <inst_error>
bfc00a1c:	00000000 	nop
bfc00a20:	3c08680b 	lui	t0,0x680b
bfc00a24:	3508ecb0 	ori	t0,t0,0xecb0
bfc00a28:	2409000f 	li	t1,15
bfc00a2c:	01288004 	sllv	s0,t0,t1
bfc00a30:	3c12f658 	lui	s2,0xf658
bfc00a34:	161205f5 	bne	s0,s2,bfc0220c <inst_error>
bfc00a38:	00000000 	nop
bfc00a3c:	3c08e67d 	lui	t0,0xe67d
bfc00a40:	350854c0 	ori	t0,t0,0x54c0
bfc00a44:	2409000d 	li	t1,13
bfc00a48:	01288004 	sllv	s0,t0,t1
bfc00a4c:	3c12aa98 	lui	s2,0xaa98
bfc00a50:	161205ee 	bne	s0,s2,bfc0220c <inst_error>
bfc00a54:	00000000 	nop
bfc00a58:	3c081687 	lui	t0,0x1687
bfc00a5c:	35084504 	ori	t0,t0,0x4504
bfc00a60:	2409001b 	li	t1,27
bfc00a64:	01288004 	sllv	s0,t0,t1
bfc00a68:	3c122000 	lui	s2,0x2000
bfc00a6c:	161205e7 	bne	s0,s2,bfc0220c <inst_error>
bfc00a70:	00000000 	nop
bfc00a74:	3c08b655 	lui	t0,0xb655
bfc00a78:	3508a278 	ori	t0,t0,0xa278
bfc00a7c:	2409001d 	li	t1,29
bfc00a80:	01288004 	sllv	s0,t0,t1
bfc00a84:	24120000 	li	s2,0
bfc00a88:	161205e0 	bne	s0,s2,bfc0220c <inst_error>
bfc00a8c:	00000000 	nop
bfc00a90:	3c080a08 	lui	t0,0xa08
bfc00a94:	3508c174 	ori	t0,t0,0xc174
bfc00a98:	24090011 	li	t1,17
bfc00a9c:	01288004 	sllv	s0,t0,t1
bfc00aa0:	3c1282e8 	lui	s2,0x82e8
bfc00aa4:	161205d9 	bne	s0,s2,bfc0220c <inst_error>
bfc00aa8:	00000000 	nop
bfc00aac:	3c08e5e5 	lui	t0,0xe5e5
bfc00ab0:	35088380 	ori	t0,t0,0x8380
bfc00ab4:	24090006 	li	t1,6
bfc00ab8:	01288004 	sllv	s0,t0,t1
bfc00abc:	3c127960 	lui	s2,0x7960
bfc00ac0:	3652e000 	ori	s2,s2,0xe000
bfc00ac4:	161205d1 	bne	s0,s2,bfc0220c <inst_error>
bfc00ac8:	00000000 	nop
bfc00acc:	3c08148d 	lui	t0,0x148d
bfc00ad0:	3508c340 	ori	t0,t0,0xc340
bfc00ad4:	24090017 	li	t1,23
bfc00ad8:	01288004 	sllv	s0,t0,t1
bfc00adc:	3c12a000 	lui	s2,0xa000
bfc00ae0:	161205ca 	bne	s0,s2,bfc0220c <inst_error>
bfc00ae4:	00000000 	nop
bfc00ae8:	3c08c6ff 	lui	t0,0xc6ff
bfc00aec:	3508cf60 	ori	t0,t0,0xcf60
bfc00af0:	2409000b 	li	t1,11
bfc00af4:	01288004 	sllv	s0,t0,t1
bfc00af8:	3c12fe7b 	lui	s2,0xfe7b
bfc00afc:	161205c3 	bne	s0,s2,bfc0220c <inst_error>
bfc00b00:	00000000 	nop
bfc00b04:	3c0851ed 	lui	t0,0x51ed
bfc00b08:	3508adc8 	ori	t0,t0,0xadc8
bfc00b0c:	2409000e 	li	t1,14
bfc00b10:	01288004 	sllv	s0,t0,t1
bfc00b14:	3c126b72 	lui	s2,0x6b72
bfc00b18:	161205bc 	bne	s0,s2,bfc0220c <inst_error>
bfc00b1c:	00000000 	nop
bfc00b20:	3c082810 	lui	t0,0x2810
bfc00b24:	35084394 	ori	t0,t0,0x4394
bfc00b28:	24090006 	li	t1,6
bfc00b2c:	01288004 	sllv	s0,t0,t1
bfc00b30:	3c120410 	lui	s2,0x410
bfc00b34:	3652e500 	ori	s2,s2,0xe500
bfc00b38:	161205b4 	bne	s0,s2,bfc0220c <inst_error>
bfc00b3c:	00000000 	nop
bfc00b40:	3c08dc32 	lui	t0,0xdc32
bfc00b44:	35087b4e 	ori	t0,t0,0x7b4e
bfc00b48:	24090016 	li	t1,22
bfc00b4c:	01288004 	sllv	s0,t0,t1
bfc00b50:	3c12d380 	lui	s2,0xd380
bfc00b54:	161205ad 	bne	s0,s2,bfc0220c <inst_error>
bfc00b58:	00000000 	nop
bfc00b5c:	3c08dc61 	lui	t0,0xdc61
bfc00b60:	3508023b 	ori	t0,t0,0x23b
bfc00b64:	24090012 	li	t1,18
bfc00b68:	01288004 	sllv	s0,t0,t1
bfc00b6c:	3c1208ec 	lui	s2,0x8ec
bfc00b70:	161205a6 	bne	s0,s2,bfc0220c <inst_error>
bfc00b74:	00000000 	nop
bfc00b78:	3c082589 	lui	t0,0x2589
bfc00b7c:	35085ec8 	ori	t0,t0,0x5ec8
bfc00b80:	2409000f 	li	t1,15
bfc00b84:	01288004 	sllv	s0,t0,t1
bfc00b88:	3c12af64 	lui	s2,0xaf64
bfc00b8c:	1612059f 	bne	s0,s2,bfc0220c <inst_error>
bfc00b90:	00000000 	nop
bfc00b94:	3c0820e4 	lui	t0,0x20e4
bfc00b98:	350862e8 	ori	t0,t0,0x62e8
bfc00b9c:	24090019 	li	t1,25
bfc00ba0:	01288004 	sllv	s0,t0,t1
bfc00ba4:	3c12d000 	lui	s2,0xd000
bfc00ba8:	16120598 	bne	s0,s2,bfc0220c <inst_error>
bfc00bac:	00000000 	nop
bfc00bb0:	3c08fa6c 	lui	t0,0xfa6c
bfc00bb4:	3508e618 	ori	t0,t0,0xe618
bfc00bb8:	24090005 	li	t1,5
bfc00bbc:	01288004 	sllv	s0,t0,t1
bfc00bc0:	3c124d9c 	lui	s2,0x4d9c
bfc00bc4:	3652c300 	ori	s2,s2,0xc300
bfc00bc8:	16120590 	bne	s0,s2,bfc0220c <inst_error>
bfc00bcc:	00000000 	nop
bfc00bd0:	3c087ffa 	lui	t0,0x7ffa
bfc00bd4:	3508f5c0 	ori	t0,t0,0xf5c0
bfc00bd8:	2409001e 	li	t1,30
bfc00bdc:	01288004 	sllv	s0,t0,t1
bfc00be0:	24120000 	li	s2,0
bfc00be4:	16120589 	bne	s0,s2,bfc0220c <inst_error>
bfc00be8:	00000000 	nop
bfc00bec:	3c0840b4 	lui	t0,0x40b4
bfc00bf0:	3508e265 	ori	t0,t0,0xe265
bfc00bf4:	24090014 	li	t1,20
bfc00bf8:	01288004 	sllv	s0,t0,t1
bfc00bfc:	3c122650 	lui	s2,0x2650
bfc00c00:	16120582 	bne	s0,s2,bfc0220c <inst_error>
bfc00c04:	00000000 	nop
bfc00c08:	3c089648 	lui	t0,0x9648
bfc00c0c:	35086a70 	ori	t0,t0,0x6a70
bfc00c10:	2409000d 	li	t1,13
bfc00c14:	01288004 	sllv	s0,t0,t1
bfc00c18:	3c120d4e 	lui	s2,0xd4e
bfc00c1c:	1612057b 	bne	s0,s2,bfc0220c <inst_error>
bfc00c20:	00000000 	nop
bfc00c24:	3c08ca89 	lui	t0,0xca89
bfc00c28:	35085580 	ori	t0,t0,0x5580
bfc00c2c:	24090002 	li	t1,2
bfc00c30:	01288004 	sllv	s0,t0,t1
bfc00c34:	3c122a25 	lui	s2,0x2a25
bfc00c38:	36525600 	ori	s2,s2,0x5600
bfc00c3c:	16120573 	bne	s0,s2,bfc0220c <inst_error>
bfc00c40:	00000000 	nop
bfc00c44:	3c0889a4 	lui	t0,0x89a4
bfc00c48:	350815a8 	ori	t0,t0,0x15a8
bfc00c4c:	24090013 	li	t1,19
bfc00c50:	01288004 	sllv	s0,t0,t1
bfc00c54:	3c12ad40 	lui	s2,0xad40
bfc00c58:	1612056c 	bne	s0,s2,bfc0220c <inst_error>
bfc00c5c:	00000000 	nop
bfc00c60:	3c08bcdf 	lui	t0,0xbcdf
bfc00c64:	3508c854 	ori	t0,t0,0xc854
bfc00c68:	24090007 	li	t1,7
bfc00c6c:	01288004 	sllv	s0,t0,t1
bfc00c70:	3c126fe4 	lui	s2,0x6fe4
bfc00c74:	36522a00 	ori	s2,s2,0x2a00
bfc00c78:	16120564 	bne	s0,s2,bfc0220c <inst_error>
bfc00c7c:	00000000 	nop
bfc00c80:	3c08a3e7 	lui	t0,0xa3e7
bfc00c84:	35088c0e 	ori	t0,t0,0x8c0e
bfc00c88:	24090019 	li	t1,25
bfc00c8c:	01288004 	sllv	s0,t0,t1
bfc00c90:	3c121c00 	lui	s2,0x1c00
bfc00c94:	1612055d 	bne	s0,s2,bfc0220c <inst_error>
bfc00c98:	00000000 	nop
bfc00c9c:	3c08a17c 	lui	t0,0xa17c
bfc00ca0:	350875cc 	ori	t0,t0,0x75cc
bfc00ca4:	24090012 	li	t1,18
bfc00ca8:	01288004 	sllv	s0,t0,t1
bfc00cac:	3c12d730 	lui	s2,0xd730
bfc00cb0:	16120556 	bne	s0,s2,bfc0220c <inst_error>
bfc00cb4:	00000000 	nop
bfc00cb8:	3c08d682 	lui	t0,0xd682
bfc00cbc:	3508d870 	ori	t0,t0,0xd870
bfc00cc0:	2409000d 	li	t1,13
bfc00cc4:	01288004 	sllv	s0,t0,t1
bfc00cc8:	3c125b0e 	lui	s2,0x5b0e
bfc00ccc:	1612054f 	bne	s0,s2,bfc0220c <inst_error>
bfc00cd0:	00000000 	nop
bfc00cd4:	3c08cce4 	lui	t0,0xcce4
bfc00cd8:	35081a43 	ori	t0,t0,0x1a43
bfc00cdc:	24090015 	li	t1,21
bfc00ce0:	01288004 	sllv	s0,t0,t1
bfc00ce4:	3c124860 	lui	s2,0x4860
bfc00ce8:	16120548 	bne	s0,s2,bfc0220c <inst_error>
bfc00cec:	00000000 	nop
bfc00cf0:	3c085a9f 	lui	t0,0x5a9f
bfc00cf4:	3508d367 	ori	t0,t0,0xd367
bfc00cf8:	2409001d 	li	t1,29
bfc00cfc:	01288004 	sllv	s0,t0,t1
bfc00d00:	3c12e000 	lui	s2,0xe000
bfc00d04:	16120541 	bne	s0,s2,bfc0220c <inst_error>
bfc00d08:	00000000 	nop
bfc00d0c:	3c08d7c5 	lui	t0,0xd7c5
bfc00d10:	3508af3c 	ori	t0,t0,0xaf3c
bfc00d14:	24090008 	li	t1,8
bfc00d18:	01288004 	sllv	s0,t0,t1
bfc00d1c:	3c12c5af 	lui	s2,0xc5af
bfc00d20:	36523c00 	ori	s2,s2,0x3c00
bfc00d24:	16120539 	bne	s0,s2,bfc0220c <inst_error>
bfc00d28:	00000000 	nop
bfc00d2c:	3c087c15 	lui	t0,0x7c15
bfc00d30:	35089e3c 	ori	t0,t0,0x9e3c
bfc00d34:	2409000d 	li	t1,13
bfc00d38:	01288004 	sllv	s0,t0,t1
bfc00d3c:	3c12b3c7 	lui	s2,0xb3c7
bfc00d40:	36528000 	ori	s2,s2,0x8000
bfc00d44:	16120531 	bne	s0,s2,bfc0220c <inst_error>
bfc00d48:	00000000 	nop
bfc00d4c:	3c08dcdf 	lui	t0,0xdcdf
bfc00d50:	35081a48 	ori	t0,t0,0x1a48
bfc00d54:	24090014 	li	t1,20
bfc00d58:	01288004 	sllv	s0,t0,t1
bfc00d5c:	3c12a480 	lui	s2,0xa480
bfc00d60:	1612052a 	bne	s0,s2,bfc0220c <inst_error>
bfc00d64:	00000000 	nop
bfc00d68:	3c082994 	lui	t0,0x2994
bfc00d6c:	35082540 	ori	t0,t0,0x2540
bfc00d70:	24090002 	li	t1,2
bfc00d74:	01288004 	sllv	s0,t0,t1
bfc00d78:	3c12a650 	lui	s2,0xa650
bfc00d7c:	36529500 	ori	s2,s2,0x9500
bfc00d80:	16120522 	bne	s0,s2,bfc0220c <inst_error>
bfc00d84:	00000000 	nop
bfc00d88:	3c08b73d 	lui	t0,0xb73d
bfc00d8c:	3508c880 	ori	t0,t0,0xc880
bfc00d90:	24090015 	li	t1,21
bfc00d94:	01288004 	sllv	s0,t0,t1
bfc00d98:	3c121000 	lui	s2,0x1000
bfc00d9c:	1612051b 	bne	s0,s2,bfc0220c <inst_error>
bfc00da0:	00000000 	nop
bfc00da4:	3c08a363 	lui	t0,0xa363
bfc00da8:	35085354 	ori	t0,t0,0x5354
bfc00dac:	24090012 	li	t1,18
bfc00db0:	01288004 	sllv	s0,t0,t1
bfc00db4:	3c124d50 	lui	s2,0x4d50
bfc00db8:	16120514 	bne	s0,s2,bfc0220c <inst_error>
bfc00dbc:	00000000 	nop
bfc00dc0:	3c085186 	lui	t0,0x5186
bfc00dc4:	35089ead 	ori	t0,t0,0x9ead
bfc00dc8:	24090015 	li	t1,21
bfc00dcc:	01288004 	sllv	s0,t0,t1
bfc00dd0:	3c12d5a0 	lui	s2,0xd5a0
bfc00dd4:	1612050d 	bne	s0,s2,bfc0220c <inst_error>
bfc00dd8:	00000000 	nop
bfc00ddc:	3c087e8a 	lui	t0,0x7e8a
bfc00de0:	35083b38 	ori	t0,t0,0x3b38
bfc00de4:	24090000 	li	t1,0
bfc00de8:	01288004 	sllv	s0,t0,t1
bfc00dec:	3c127e8a 	lui	s2,0x7e8a
bfc00df0:	36523b38 	ori	s2,s2,0x3b38
bfc00df4:	16120505 	bne	s0,s2,bfc0220c <inst_error>
bfc00df8:	00000000 	nop
bfc00dfc:	3c088da6 	lui	t0,0x8da6
bfc00e00:	35083f26 	ori	t0,t0,0x3f26
bfc00e04:	24090015 	li	t1,21
bfc00e08:	01288004 	sllv	s0,t0,t1
bfc00e0c:	3c12e4c0 	lui	s2,0xe4c0
bfc00e10:	161204fe 	bne	s0,s2,bfc0220c <inst_error>
bfc00e14:	00000000 	nop
bfc00e18:	3c0839b6 	lui	t0,0x39b6
bfc00e1c:	35086e1a 	ori	t0,t0,0x6e1a
bfc00e20:	24090007 	li	t1,7
bfc00e24:	01288004 	sllv	s0,t0,t1
bfc00e28:	3c12db37 	lui	s2,0xdb37
bfc00e2c:	36520d00 	ori	s2,s2,0xd00
bfc00e30:	161204f6 	bne	s0,s2,bfc0220c <inst_error>
bfc00e34:	00000000 	nop
bfc00e38:	3c0869ec 	lui	t0,0x69ec
bfc00e3c:	3508a580 	ori	t0,t0,0xa580
bfc00e40:	24090018 	li	t1,24
bfc00e44:	01288004 	sllv	s0,t0,t1
bfc00e48:	3c128000 	lui	s2,0x8000
bfc00e4c:	161204ef 	bne	s0,s2,bfc0220c <inst_error>
bfc00e50:	00000000 	nop
bfc00e54:	3c083915 	lui	t0,0x3915
bfc00e58:	350854e5 	ori	t0,t0,0x54e5
bfc00e5c:	2409000b 	li	t1,11
bfc00e60:	01288004 	sllv	s0,t0,t1
bfc00e64:	3c12aaa7 	lui	s2,0xaaa7
bfc00e68:	36522800 	ori	s2,s2,0x2800
bfc00e6c:	161204e7 	bne	s0,s2,bfc0220c <inst_error>
bfc00e70:	00000000 	nop
bfc00e74:	3c087825 	lui	t0,0x7825
bfc00e78:	3508fdca 	ori	t0,t0,0xfdca
bfc00e7c:	24090012 	li	t1,18
bfc00e80:	01288004 	sllv	s0,t0,t1
bfc00e84:	3c12f728 	lui	s2,0xf728
bfc00e88:	161204e0 	bne	s0,s2,bfc0220c <inst_error>
bfc00e8c:	00000000 	nop
bfc00e90:	3c0876ad 	lui	t0,0x76ad
bfc00e94:	350879c0 	ori	t0,t0,0x79c0
bfc00e98:	2409000e 	li	t1,14
bfc00e9c:	01288004 	sllv	s0,t0,t1
bfc00ea0:	3c125e70 	lui	s2,0x5e70
bfc00ea4:	161204d9 	bne	s0,s2,bfc0220c <inst_error>
bfc00ea8:	00000000 	nop
bfc00eac:	3c089251 	lui	t0,0x9251
bfc00eb0:	35080adb 	ori	t0,t0,0xadb
bfc00eb4:	24090018 	li	t1,24
bfc00eb8:	01288004 	sllv	s0,t0,t1
bfc00ebc:	3c12db00 	lui	s2,0xdb00
bfc00ec0:	161204d2 	bne	s0,s2,bfc0220c <inst_error>
bfc00ec4:	00000000 	nop
bfc00ec8:	3c080067 	lui	t0,0x67
bfc00ecc:	350826cc 	ori	t0,t0,0x26cc
bfc00ed0:	2409001e 	li	t1,30
bfc00ed4:	01288004 	sllv	s0,t0,t1
bfc00ed8:	24120000 	li	s2,0
bfc00edc:	161204cb 	bne	s0,s2,bfc0220c <inst_error>
bfc00ee0:	00000000 	nop
bfc00ee4:	3c087199 	lui	t0,0x7199
bfc00ee8:	35080146 	ori	t0,t0,0x146
bfc00eec:	24090013 	li	t1,19
bfc00ef0:	01288004 	sllv	s0,t0,t1
bfc00ef4:	3c120a30 	lui	s2,0xa30
bfc00ef8:	161204c4 	bne	s0,s2,bfc0220c <inst_error>
bfc00efc:	00000000 	nop
bfc00f00:	3c08b16d 	lui	t0,0xb16d
bfc00f04:	3508ffdc 	ori	t0,t0,0xffdc
bfc00f08:	2409000b 	li	t1,11
bfc00f0c:	01288004 	sllv	s0,t0,t1
bfc00f10:	3c126ffe 	lui	s2,0x6ffe
bfc00f14:	3652e000 	ori	s2,s2,0xe000
bfc00f18:	161204bc 	bne	s0,s2,bfc0220c <inst_error>
bfc00f1c:	00000000 	nop
bfc00f20:	3c081497 	lui	t0,0x1497
bfc00f24:	35085570 	ori	t0,t0,0x5570
bfc00f28:	24090008 	li	t1,8
bfc00f2c:	01288004 	sllv	s0,t0,t1
bfc00f30:	3c129755 	lui	s2,0x9755
bfc00f34:	36527000 	ori	s2,s2,0x7000
bfc00f38:	161204b4 	bne	s0,s2,bfc0220c <inst_error>
bfc00f3c:	00000000 	nop
bfc00f40:	3c0877c0 	lui	t0,0x77c0
bfc00f44:	35081184 	ori	t0,t0,0x1184
bfc00f48:	24090000 	li	t1,0
bfc00f4c:	01288004 	sllv	s0,t0,t1
bfc00f50:	3c1277c0 	lui	s2,0x77c0
bfc00f54:	36521184 	ori	s2,s2,0x1184
bfc00f58:	161204ac 	bne	s0,s2,bfc0220c <inst_error>
bfc00f5c:	00000000 	nop
bfc00f60:	3c086785 	lui	t0,0x6785
bfc00f64:	35087183 	ori	t0,t0,0x7183
bfc00f68:	24090006 	li	t1,6
bfc00f6c:	01288004 	sllv	s0,t0,t1
bfc00f70:	3c12e15c 	lui	s2,0xe15c
bfc00f74:	365260c0 	ori	s2,s2,0x60c0
bfc00f78:	161204a4 	bne	s0,s2,bfc0220c <inst_error>
bfc00f7c:	00000000 	nop
bfc00f80:	3c089de3 	lui	t0,0x9de3
bfc00f84:	3508b83f 	ori	t0,t0,0xb83f
bfc00f88:	2409000d 	li	t1,13
bfc00f8c:	01288004 	sllv	s0,t0,t1
bfc00f90:	3c127707 	lui	s2,0x7707
bfc00f94:	3652e000 	ori	s2,s2,0xe000
bfc00f98:	1612049c 	bne	s0,s2,bfc0220c <inst_error>
bfc00f9c:	00000000 	nop
bfc00fa0:	3c08d4ba 	lui	t0,0xd4ba
bfc00fa4:	350897c4 	ori	t0,t0,0x97c4
bfc00fa8:	2409000a 	li	t1,10
bfc00fac:	01288004 	sllv	s0,t0,t1
bfc00fb0:	3c12ea5f 	lui	s2,0xea5f
bfc00fb4:	36521000 	ori	s2,s2,0x1000
bfc00fb8:	16120494 	bne	s0,s2,bfc0220c <inst_error>
bfc00fbc:	00000000 	nop
bfc00fc0:	3c08437e 	lui	t0,0x437e
bfc00fc4:	35088e14 	ori	t0,t0,0x8e14
bfc00fc8:	2409001e 	li	t1,30
bfc00fcc:	01288004 	sllv	s0,t0,t1
bfc00fd0:	24120000 	li	s2,0
bfc00fd4:	1612048d 	bne	s0,s2,bfc0220c <inst_error>
bfc00fd8:	00000000 	nop
bfc00fdc:	3c089cb2 	lui	t0,0x9cb2
bfc00fe0:	350831d4 	ori	t0,t0,0x31d4
bfc00fe4:	24090010 	li	t1,16
bfc00fe8:	01288004 	sllv	s0,t0,t1
bfc00fec:	3c1231d4 	lui	s2,0x31d4
bfc00ff0:	16120486 	bne	s0,s2,bfc0220c <inst_error>
bfc00ff4:	00000000 	nop
bfc00ff8:	3c08de53 	lui	t0,0xde53
bfc00ffc:	35087f8c 	ori	t0,t0,0x7f8c
bfc01000:	24090011 	li	t1,17
bfc01004:	01288004 	sllv	s0,t0,t1
bfc01008:	3c12ff18 	lui	s2,0xff18
bfc0100c:	1612047f 	bne	s0,s2,bfc0220c <inst_error>
bfc01010:	00000000 	nop
bfc01014:	3c08f387 	lui	t0,0xf387
bfc01018:	35081474 	ori	t0,t0,0x1474
bfc0101c:	24090008 	li	t1,8
bfc01020:	01288004 	sllv	s0,t0,t1
bfc01024:	3c128714 	lui	s2,0x8714
bfc01028:	36527400 	ori	s2,s2,0x7400
bfc0102c:	16120477 	bne	s0,s2,bfc0220c <inst_error>
bfc01030:	00000000 	nop
bfc01034:	3c08003d 	lui	t0,0x3d
bfc01038:	3508b9a8 	ori	t0,t0,0xb9a8
bfc0103c:	24090008 	li	t1,8
bfc01040:	01288004 	sllv	s0,t0,t1
bfc01044:	3c123db9 	lui	s2,0x3db9
bfc01048:	3652a800 	ori	s2,s2,0xa800
bfc0104c:	1612046f 	bne	s0,s2,bfc0220c <inst_error>
bfc01050:	00000000 	nop
bfc01054:	3c08ef20 	lui	t0,0xef20
bfc01058:	3508582a 	ori	t0,t0,0x582a
bfc0105c:	24090008 	li	t1,8
bfc01060:	01288004 	sllv	s0,t0,t1
bfc01064:	3c122058 	lui	s2,0x2058
bfc01068:	36522a00 	ori	s2,s2,0x2a00
bfc0106c:	16120467 	bne	s0,s2,bfc0220c <inst_error>
bfc01070:	00000000 	nop
bfc01074:	3c08c355 	lui	t0,0xc355
bfc01078:	35083251 	ori	t0,t0,0x3251
bfc0107c:	24090019 	li	t1,25
bfc01080:	01288004 	sllv	s0,t0,t1
bfc01084:	3c12a200 	lui	s2,0xa200
bfc01088:	16120460 	bne	s0,s2,bfc0220c <inst_error>
bfc0108c:	00000000 	nop
bfc01090:	3c08bb30 	lui	t0,0xbb30
bfc01094:	35082ae0 	ori	t0,t0,0x2ae0
bfc01098:	24090005 	li	t1,5
bfc0109c:	01288004 	sllv	s0,t0,t1
bfc010a0:	3c126605 	lui	s2,0x6605
bfc010a4:	36525c00 	ori	s2,s2,0x5c00
bfc010a8:	16120458 	bne	s0,s2,bfc0220c <inst_error>
bfc010ac:	00000000 	nop
bfc010b0:	3c08ff1c 	lui	t0,0xff1c
bfc010b4:	35086596 	ori	t0,t0,0x6596
bfc010b8:	24090016 	li	t1,22
bfc010bc:	01288004 	sllv	s0,t0,t1
bfc010c0:	3c126580 	lui	s2,0x6580
bfc010c4:	16120451 	bne	s0,s2,bfc0220c <inst_error>
bfc010c8:	00000000 	nop
bfc010cc:	3c089f65 	lui	t0,0x9f65
bfc010d0:	3508a5c2 	ori	t0,t0,0xa5c2
bfc010d4:	24090013 	li	t1,19
bfc010d8:	01288004 	sllv	s0,t0,t1
bfc010dc:	3c122e10 	lui	s2,0x2e10
bfc010e0:	1612044a 	bne	s0,s2,bfc0220c <inst_error>
bfc010e4:	00000000 	nop
bfc010e8:	3c08a337 	lui	t0,0xa337
bfc010ec:	35086784 	ori	t0,t0,0x6784
bfc010f0:	2409000e 	li	t1,14
bfc010f4:	01288004 	sllv	s0,t0,t1
bfc010f8:	3c12d9e1 	lui	s2,0xd9e1
bfc010fc:	16120443 	bne	s0,s2,bfc0220c <inst_error>
bfc01100:	00000000 	nop
bfc01104:	3c08be04 	lui	t0,0xbe04
bfc01108:	35080fcc 	ori	t0,t0,0xfcc
bfc0110c:	24090019 	li	t1,25
bfc01110:	01288004 	sllv	s0,t0,t1
bfc01114:	3c129800 	lui	s2,0x9800
bfc01118:	1612043c 	bne	s0,s2,bfc0220c <inst_error>
bfc0111c:	00000000 	nop
bfc01120:	3c08ee62 	lui	t0,0xee62
bfc01124:	35082b70 	ori	t0,t0,0x2b70
bfc01128:	2409001b 	li	t1,27
bfc0112c:	01288004 	sllv	s0,t0,t1
bfc01130:	3c128000 	lui	s2,0x8000
bfc01134:	16120435 	bne	s0,s2,bfc0220c <inst_error>
bfc01138:	00000000 	nop
bfc0113c:	3c088e71 	lui	t0,0x8e71
bfc01140:	3508dbe2 	ori	t0,t0,0xdbe2
bfc01144:	24090014 	li	t1,20
bfc01148:	01288004 	sllv	s0,t0,t1
bfc0114c:	3c12be20 	lui	s2,0xbe20
bfc01150:	1612042e 	bne	s0,s2,bfc0220c <inst_error>
bfc01154:	00000000 	nop
bfc01158:	3c0878c4 	lui	t0,0x78c4
bfc0115c:	350803d7 	ori	t0,t0,0x3d7
bfc01160:	24090005 	li	t1,5
bfc01164:	01288004 	sllv	s0,t0,t1
bfc01168:	3c121880 	lui	s2,0x1880
bfc0116c:	36527ae0 	ori	s2,s2,0x7ae0
bfc01170:	16120426 	bne	s0,s2,bfc0220c <inst_error>
bfc01174:	00000000 	nop
bfc01178:	3c08d00d 	lui	t0,0xd00d
bfc0117c:	3508b648 	ori	t0,t0,0xb648
bfc01180:	24090007 	li	t1,7
bfc01184:	01288004 	sllv	s0,t0,t1
bfc01188:	3c1206db 	lui	s2,0x6db
bfc0118c:	36522400 	ori	s2,s2,0x2400
bfc01190:	1612041e 	bne	s0,s2,bfc0220c <inst_error>
bfc01194:	00000000 	nop
bfc01198:	3c082f7b 	lui	t0,0x2f7b
bfc0119c:	35089bfa 	ori	t0,t0,0x9bfa
bfc011a0:	24090004 	li	t1,4
bfc011a4:	01288004 	sllv	s0,t0,t1
bfc011a8:	3c12f7b9 	lui	s2,0xf7b9
bfc011ac:	3652bfa0 	ori	s2,s2,0xbfa0
bfc011b0:	16120416 	bne	s0,s2,bfc0220c <inst_error>
bfc011b4:	00000000 	nop
bfc011b8:	3c0833a4 	lui	t0,0x33a4
bfc011bc:	3508be82 	ori	t0,t0,0xbe82
bfc011c0:	2409001a 	li	t1,26
bfc011c4:	01288004 	sllv	s0,t0,t1
bfc011c8:	3c120800 	lui	s2,0x800
bfc011cc:	1612040f 	bne	s0,s2,bfc0220c <inst_error>
bfc011d0:	00000000 	nop
bfc011d4:	3c081451 	lui	t0,0x1451
bfc011d8:	3508c0dc 	ori	t0,t0,0xc0dc
bfc011dc:	24090015 	li	t1,21
bfc011e0:	01288004 	sllv	s0,t0,t1
bfc011e4:	3c121b80 	lui	s2,0x1b80
bfc011e8:	16120408 	bne	s0,s2,bfc0220c <inst_error>
bfc011ec:	00000000 	nop
bfc011f0:	3c08e70d 	lui	t0,0xe70d
bfc011f4:	3508261e 	ori	t0,t0,0x261e
bfc011f8:	24090003 	li	t1,3
bfc011fc:	01288004 	sllv	s0,t0,t1
bfc01200:	3c123869 	lui	s2,0x3869
bfc01204:	365230f0 	ori	s2,s2,0x30f0
bfc01208:	16120400 	bne	s0,s2,bfc0220c <inst_error>
bfc0120c:	00000000 	nop
bfc01210:	3c082b63 	lui	t0,0x2b63
bfc01214:	3508cb38 	ori	t0,t0,0xcb38
bfc01218:	2409001b 	li	t1,27
bfc0121c:	01288004 	sllv	s0,t0,t1
bfc01220:	3c12c000 	lui	s2,0xc000
bfc01224:	161203f9 	bne	s0,s2,bfc0220c <inst_error>
bfc01228:	00000000 	nop
bfc0122c:	3c08c56b 	lui	t0,0xc56b
bfc01230:	35088b90 	ori	t0,t0,0x8b90
bfc01234:	24090011 	li	t1,17
bfc01238:	01288004 	sllv	s0,t0,t1
bfc0123c:	3c121720 	lui	s2,0x1720
bfc01240:	161203f2 	bne	s0,s2,bfc0220c <inst_error>
bfc01244:	00000000 	nop
bfc01248:	3c082442 	lui	t0,0x2442
bfc0124c:	350819d4 	ori	t0,t0,0x19d4
bfc01250:	2409001f 	li	t1,31
bfc01254:	01288004 	sllv	s0,t0,t1
bfc01258:	24120000 	li	s2,0
bfc0125c:	161203eb 	bne	s0,s2,bfc0220c <inst_error>
bfc01260:	00000000 	nop
bfc01264:	3c086b51 	lui	t0,0x6b51
bfc01268:	3508e9c2 	ori	t0,t0,0xe9c2
bfc0126c:	2409001a 	li	t1,26
bfc01270:	01288004 	sllv	s0,t0,t1
bfc01274:	3c120800 	lui	s2,0x800
bfc01278:	161203e4 	bne	s0,s2,bfc0220c <inst_error>
bfc0127c:	00000000 	nop
bfc01280:	3c08b8d9 	lui	t0,0xb8d9
bfc01284:	3508e5f8 	ori	t0,t0,0xe5f8
bfc01288:	2409000c 	li	t1,12
bfc0128c:	01288004 	sllv	s0,t0,t1
bfc01290:	3c129e5f 	lui	s2,0x9e5f
bfc01294:	36528000 	ori	s2,s2,0x8000
bfc01298:	161203dc 	bne	s0,s2,bfc0220c <inst_error>
bfc0129c:	00000000 	nop
bfc012a0:	3c089492 	lui	t0,0x9492
bfc012a4:	3508c630 	ori	t0,t0,0xc630
bfc012a8:	2409000c 	li	t1,12
bfc012ac:	01288004 	sllv	s0,t0,t1
bfc012b0:	3c122c63 	lui	s2,0x2c63
bfc012b4:	161203d5 	bne	s0,s2,bfc0220c <inst_error>
bfc012b8:	00000000 	nop
bfc012bc:	3c08a419 	lui	t0,0xa419
bfc012c0:	3508afc0 	ori	t0,t0,0xafc0
bfc012c4:	2409001b 	li	t1,27
bfc012c8:	01288004 	sllv	s0,t0,t1
bfc012cc:	24120000 	li	s2,0
bfc012d0:	161203ce 	bne	s0,s2,bfc0220c <inst_error>
bfc012d4:	00000000 	nop
bfc012d8:	3c08fef3 	lui	t0,0xfef3
bfc012dc:	35084de0 	ori	t0,t0,0x4de0
bfc012e0:	24090009 	li	t1,9
bfc012e4:	01288004 	sllv	s0,t0,t1
bfc012e8:	3c12e69b 	lui	s2,0xe69b
bfc012ec:	3652c000 	ori	s2,s2,0xc000
bfc012f0:	161203c6 	bne	s0,s2,bfc0220c <inst_error>
bfc012f4:	00000000 	nop
bfc012f8:	3c084eb8 	lui	t0,0x4eb8
bfc012fc:	3508cbca 	ori	t0,t0,0xcbca
bfc01300:	2409001d 	li	t1,29
bfc01304:	01288004 	sllv	s0,t0,t1
bfc01308:	3c124000 	lui	s2,0x4000
bfc0130c:	161203bf 	bne	s0,s2,bfc0220c <inst_error>
bfc01310:	00000000 	nop
bfc01314:	3c086649 	lui	t0,0x6649
bfc01318:	35085b88 	ori	t0,t0,0x5b88
bfc0131c:	2409000d 	li	t1,13
bfc01320:	01288004 	sllv	s0,t0,t1
bfc01324:	3c122b71 	lui	s2,0x2b71
bfc01328:	161203b8 	bne	s0,s2,bfc0220c <inst_error>
bfc0132c:	00000000 	nop
bfc01330:	3c082726 	lui	t0,0x2726
bfc01334:	35087278 	ori	t0,t0,0x7278
bfc01338:	24090015 	li	t1,21
bfc0133c:	01288004 	sllv	s0,t0,t1
bfc01340:	3c124f00 	lui	s2,0x4f00
bfc01344:	161203b1 	bne	s0,s2,bfc0220c <inst_error>
bfc01348:	00000000 	nop
bfc0134c:	3c083278 	lui	t0,0x3278
bfc01350:	35089910 	ori	t0,t0,0x9910
bfc01354:	2409001c 	li	t1,28
bfc01358:	01288004 	sllv	s0,t0,t1
bfc0135c:	24120000 	li	s2,0
bfc01360:	161203aa 	bne	s0,s2,bfc0220c <inst_error>
bfc01364:	00000000 	nop
bfc01368:	3c089db8 	lui	t0,0x9db8
bfc0136c:	350898e9 	ori	t0,t0,0x98e9
bfc01370:	24090015 	li	t1,21
bfc01374:	01288004 	sllv	s0,t0,t1
bfc01378:	3c121d20 	lui	s2,0x1d20
bfc0137c:	161203a3 	bne	s0,s2,bfc0220c <inst_error>
bfc01380:	00000000 	nop
bfc01384:	3c08f2f8 	lui	t0,0xf2f8
bfc01388:	350835c0 	ori	t0,t0,0x35c0
bfc0138c:	2409001c 	li	t1,28
bfc01390:	01288004 	sllv	s0,t0,t1
bfc01394:	24120000 	li	s2,0
bfc01398:	1612039c 	bne	s0,s2,bfc0220c <inst_error>
bfc0139c:	00000000 	nop
bfc013a0:	3c08e5d0 	lui	t0,0xe5d0
bfc013a4:	35088f1c 	ori	t0,t0,0x8f1c
bfc013a8:	24090000 	li	t1,0
bfc013ac:	01288004 	sllv	s0,t0,t1
bfc013b0:	3c12e5d0 	lui	s2,0xe5d0
bfc013b4:	36528f1c 	ori	s2,s2,0x8f1c
bfc013b8:	16120394 	bne	s0,s2,bfc0220c <inst_error>
bfc013bc:	00000000 	nop
bfc013c0:	3c087231 	lui	t0,0x7231
bfc013c4:	35085bfc 	ori	t0,t0,0x5bfc
bfc013c8:	24090014 	li	t1,20
bfc013cc:	01288004 	sllv	s0,t0,t1
bfc013d0:	3c12bfc0 	lui	s2,0xbfc0
bfc013d4:	1612038d 	bne	s0,s2,bfc0220c <inst_error>
bfc013d8:	00000000 	nop
bfc013dc:	3c087a38 	lui	t0,0x7a38
bfc013e0:	3508d700 	ori	t0,t0,0xd700
bfc013e4:	24090001 	li	t1,1
bfc013e8:	01288004 	sllv	s0,t0,t1
bfc013ec:	3c12f471 	lui	s2,0xf471
bfc013f0:	3652ae00 	ori	s2,s2,0xae00
bfc013f4:	16120385 	bne	s0,s2,bfc0220c <inst_error>
bfc013f8:	00000000 	nop
bfc013fc:	3c0876cd 	lui	t0,0x76cd
bfc01400:	3508f700 	ori	t0,t0,0xf700
bfc01404:	24090016 	li	t1,22
bfc01408:	01288004 	sllv	s0,t0,t1
bfc0140c:	3c12c000 	lui	s2,0xc000
bfc01410:	1612037e 	bne	s0,s2,bfc0220c <inst_error>
bfc01414:	00000000 	nop
bfc01418:	3c08dbe4 	lui	t0,0xdbe4
bfc0141c:	35086800 	ori	t0,t0,0x6800
bfc01420:	24090010 	li	t1,16
bfc01424:	01288004 	sllv	s0,t0,t1
bfc01428:	3c126800 	lui	s2,0x6800
bfc0142c:	16120377 	bne	s0,s2,bfc0220c <inst_error>
bfc01430:	00000000 	nop
bfc01434:	3c08722b 	lui	t0,0x722b
bfc01438:	3508ca40 	ori	t0,t0,0xca40
bfc0143c:	24090011 	li	t1,17
bfc01440:	01288004 	sllv	s0,t0,t1
bfc01444:	3c129480 	lui	s2,0x9480
bfc01448:	16120370 	bne	s0,s2,bfc0220c <inst_error>
bfc0144c:	00000000 	nop
bfc01450:	3c08d371 	lui	t0,0xd371
bfc01454:	350816f8 	ori	t0,t0,0x16f8
bfc01458:	24090006 	li	t1,6
bfc0145c:	01288004 	sllv	s0,t0,t1
bfc01460:	3c12dc45 	lui	s2,0xdc45
bfc01464:	3652be00 	ori	s2,s2,0xbe00
bfc01468:	16120368 	bne	s0,s2,bfc0220c <inst_error>
bfc0146c:	00000000 	nop
bfc01470:	3c088c4d 	lui	t0,0x8c4d
bfc01474:	35084800 	ori	t0,t0,0x4800
bfc01478:	24090017 	li	t1,23
bfc0147c:	01288004 	sllv	s0,t0,t1
bfc01480:	24120000 	li	s2,0
bfc01484:	16120361 	bne	s0,s2,bfc0220c <inst_error>
bfc01488:	00000000 	nop
bfc0148c:	3c084415 	lui	t0,0x4415
bfc01490:	350866d5 	ori	t0,t0,0x66d5
bfc01494:	24090019 	li	t1,25
bfc01498:	01288004 	sllv	s0,t0,t1
bfc0149c:	3c12aa00 	lui	s2,0xaa00
bfc014a0:	1612035a 	bne	s0,s2,bfc0220c <inst_error>
bfc014a4:	00000000 	nop
bfc014a8:	3c081c9d 	lui	t0,0x1c9d
bfc014ac:	3508905c 	ori	t0,t0,0x905c
bfc014b0:	2409001f 	li	t1,31
bfc014b4:	01288004 	sllv	s0,t0,t1
bfc014b8:	24120000 	li	s2,0
bfc014bc:	16120353 	bne	s0,s2,bfc0220c <inst_error>
bfc014c0:	00000000 	nop
bfc014c4:	3c085fef 	lui	t0,0x5fef
bfc014c8:	35089198 	ori	t0,t0,0x9198
bfc014cc:	24090012 	li	t1,18
bfc014d0:	01288004 	sllv	s0,t0,t1
bfc014d4:	3c124660 	lui	s2,0x4660
bfc014d8:	1612034c 	bne	s0,s2,bfc0220c <inst_error>
bfc014dc:	00000000 	nop
bfc014e0:	3c08ee6f 	lui	t0,0xee6f
bfc014e4:	3508f60b 	ori	t0,t0,0xf60b
bfc014e8:	2409000c 	li	t1,12
bfc014ec:	01288004 	sllv	s0,t0,t1
bfc014f0:	3c12ff60 	lui	s2,0xff60
bfc014f4:	3652b000 	ori	s2,s2,0xb000
bfc014f8:	16120344 	bne	s0,s2,bfc0220c <inst_error>
bfc014fc:	00000000 	nop
bfc01500:	3c08da51 	lui	t0,0xda51
bfc01504:	35089dd4 	ori	t0,t0,0x9dd4
bfc01508:	24090007 	li	t1,7
bfc0150c:	01288004 	sllv	s0,t0,t1
bfc01510:	3c1228ce 	lui	s2,0x28ce
bfc01514:	3652ea00 	ori	s2,s2,0xea00
bfc01518:	1612033c 	bne	s0,s2,bfc0220c <inst_error>
bfc0151c:	00000000 	nop
bfc01520:	3c0827a1 	lui	t0,0x27a1
bfc01524:	35084a12 	ori	t0,t0,0x4a12
bfc01528:	2409000a 	li	t1,10
bfc0152c:	01288004 	sllv	s0,t0,t1
bfc01530:	3c128528 	lui	s2,0x8528
bfc01534:	36524800 	ori	s2,s2,0x4800
bfc01538:	16120334 	bne	s0,s2,bfc0220c <inst_error>
bfc0153c:	00000000 	nop
bfc01540:	3c0821e4 	lui	t0,0x21e4
bfc01544:	350867b0 	ori	t0,t0,0x67b0
bfc01548:	2409000f 	li	t1,15
bfc0154c:	01288004 	sllv	s0,t0,t1
bfc01550:	3c1233d8 	lui	s2,0x33d8
bfc01554:	1612032d 	bne	s0,s2,bfc0220c <inst_error>
bfc01558:	00000000 	nop
bfc0155c:	3c080103 	lui	t0,0x103
bfc01560:	35084900 	ori	t0,t0,0x4900
bfc01564:	24090004 	li	t1,4
bfc01568:	01288004 	sllv	s0,t0,t1
bfc0156c:	3c121034 	lui	s2,0x1034
bfc01570:	36529000 	ori	s2,s2,0x9000
bfc01574:	16120325 	bne	s0,s2,bfc0220c <inst_error>
bfc01578:	00000000 	nop
bfc0157c:	3c083826 	lui	t0,0x3826
bfc01580:	3508bdf6 	ori	t0,t0,0xbdf6
bfc01584:	2409001a 	li	t1,26
bfc01588:	01288004 	sllv	s0,t0,t1
bfc0158c:	3c12d800 	lui	s2,0xd800
bfc01590:	1612031e 	bne	s0,s2,bfc0220c <inst_error>
bfc01594:	00000000 	nop
bfc01598:	3c088b14 	lui	t0,0x8b14
bfc0159c:	35088fe0 	ori	t0,t0,0x8fe0
bfc015a0:	24090003 	li	t1,3
bfc015a4:	01288004 	sllv	s0,t0,t1
bfc015a8:	3c1258a4 	lui	s2,0x58a4
bfc015ac:	36527f00 	ori	s2,s2,0x7f00
bfc015b0:	16120316 	bne	s0,s2,bfc0220c <inst_error>
bfc015b4:	00000000 	nop
bfc015b8:	3c08ce87 	lui	t0,0xce87
bfc015bc:	35088c10 	ori	t0,t0,0x8c10
bfc015c0:	24090007 	li	t1,7
bfc015c4:	01288004 	sllv	s0,t0,t1
bfc015c8:	3c1243c6 	lui	s2,0x43c6
bfc015cc:	36520800 	ori	s2,s2,0x800
bfc015d0:	1612030e 	bne	s0,s2,bfc0220c <inst_error>
bfc015d4:	00000000 	nop
bfc015d8:	3c08fd68 	lui	t0,0xfd68
bfc015dc:	35081070 	ori	t0,t0,0x1070
bfc015e0:	24090017 	li	t1,23
bfc015e4:	01288004 	sllv	s0,t0,t1
bfc015e8:	3c123800 	lui	s2,0x3800
bfc015ec:	16120307 	bne	s0,s2,bfc0220c <inst_error>
bfc015f0:	00000000 	nop
bfc015f4:	3c080b43 	lui	t0,0xb43
bfc015f8:	35089f62 	ori	t0,t0,0x9f62
bfc015fc:	24090013 	li	t1,19
bfc01600:	01288004 	sllv	s0,t0,t1
bfc01604:	3c12fb10 	lui	s2,0xfb10
bfc01608:	16120300 	bne	s0,s2,bfc0220c <inst_error>
bfc0160c:	00000000 	nop
bfc01610:	3c08a1ee 	lui	t0,0xa1ee
bfc01614:	35080314 	ori	t0,t0,0x314
bfc01618:	2409000b 	li	t1,11
bfc0161c:	01288004 	sllv	s0,t0,t1
bfc01620:	3c127018 	lui	s2,0x7018
bfc01624:	3652a000 	ori	s2,s2,0xa000
bfc01628:	161202f8 	bne	s0,s2,bfc0220c <inst_error>
bfc0162c:	00000000 	nop
bfc01630:	3c086d21 	lui	t0,0x6d21
bfc01634:	350875a0 	ori	t0,t0,0x75a0
bfc01638:	2409001d 	li	t1,29
bfc0163c:	01288004 	sllv	s0,t0,t1
bfc01640:	24120000 	li	s2,0
bfc01644:	161202f1 	bne	s0,s2,bfc0220c <inst_error>
bfc01648:	00000000 	nop
bfc0164c:	3c082050 	lui	t0,0x2050
bfc01650:	35085abd 	ori	t0,t0,0x5abd
bfc01654:	24090017 	li	t1,23
bfc01658:	01288004 	sllv	s0,t0,t1
bfc0165c:	3c125e80 	lui	s2,0x5e80
bfc01660:	161202ea 	bne	s0,s2,bfc0220c <inst_error>
bfc01664:	00000000 	nop
bfc01668:	3c08f7fe 	lui	t0,0xf7fe
bfc0166c:	3508a1d0 	ori	t0,t0,0xa1d0
bfc01670:	24090007 	li	t1,7
bfc01674:	01288004 	sllv	s0,t0,t1
bfc01678:	3c12ff50 	lui	s2,0xff50
bfc0167c:	3652e800 	ori	s2,s2,0xe800
bfc01680:	161202e2 	bne	s0,s2,bfc0220c <inst_error>
bfc01684:	00000000 	nop
bfc01688:	3c08c7a3 	lui	t0,0xc7a3
bfc0168c:	3508f400 	ori	t0,t0,0xf400
bfc01690:	2409000c 	li	t1,12
bfc01694:	01288004 	sllv	s0,t0,t1
bfc01698:	3c123f40 	lui	s2,0x3f40
bfc0169c:	161202db 	bne	s0,s2,bfc0220c <inst_error>
bfc016a0:	00000000 	nop
bfc016a4:	3c081b96 	lui	t0,0x1b96
bfc016a8:	350890c3 	ori	t0,t0,0x90c3
bfc016ac:	2409001b 	li	t1,27
bfc016b0:	01288004 	sllv	s0,t0,t1
bfc016b4:	3c121800 	lui	s2,0x1800
bfc016b8:	161202d4 	bne	s0,s2,bfc0220c <inst_error>
bfc016bc:	00000000 	nop
bfc016c0:	3c08999f 	lui	t0,0x999f
bfc016c4:	3508f140 	ori	t0,t0,0xf140
bfc016c8:	24090000 	li	t1,0
bfc016cc:	01288004 	sllv	s0,t0,t1
bfc016d0:	3c12999f 	lui	s2,0x999f
bfc016d4:	3652f140 	ori	s2,s2,0xf140
bfc016d8:	161202cc 	bne	s0,s2,bfc0220c <inst_error>
bfc016dc:	00000000 	nop
bfc016e0:	3c08235b 	lui	t0,0x235b
bfc016e4:	35080856 	ori	t0,t0,0x856
bfc016e8:	2409000e 	li	t1,14
bfc016ec:	01288004 	sllv	s0,t0,t1
bfc016f0:	3c12c215 	lui	s2,0xc215
bfc016f4:	36528000 	ori	s2,s2,0x8000
bfc016f8:	161202c4 	bne	s0,s2,bfc0220c <inst_error>
bfc016fc:	00000000 	nop
bfc01700:	3c08bd3f 	lui	t0,0xbd3f
bfc01704:	35083520 	ori	t0,t0,0x3520
bfc01708:	24090000 	li	t1,0
bfc0170c:	01288004 	sllv	s0,t0,t1
bfc01710:	3c12bd3f 	lui	s2,0xbd3f
bfc01714:	36523520 	ori	s2,s2,0x3520
bfc01718:	161202bc 	bne	s0,s2,bfc0220c <inst_error>
bfc0171c:	00000000 	nop
bfc01720:	3c082ba8 	lui	t0,0x2ba8
bfc01724:	3508915a 	ori	t0,t0,0x915a
bfc01728:	24090000 	li	t1,0
bfc0172c:	01288004 	sllv	s0,t0,t1
bfc01730:	3c122ba8 	lui	s2,0x2ba8
bfc01734:	3652915a 	ori	s2,s2,0x915a
bfc01738:	161202b4 	bne	s0,s2,bfc0220c <inst_error>
bfc0173c:	00000000 	nop
bfc01740:	3c08c2d4 	lui	t0,0xc2d4
bfc01744:	3508a826 	ori	t0,t0,0xa826
bfc01748:	24090000 	li	t1,0
bfc0174c:	01288004 	sllv	s0,t0,t1
bfc01750:	3c12c2d4 	lui	s2,0xc2d4
bfc01754:	3652a826 	ori	s2,s2,0xa826
bfc01758:	161202ac 	bne	s0,s2,bfc0220c <inst_error>
bfc0175c:	00000000 	nop
bfc01760:	3c085b74 	lui	t0,0x5b74
bfc01764:	35089a60 	ori	t0,t0,0x9a60
bfc01768:	24090000 	li	t1,0
bfc0176c:	01288004 	sllv	s0,t0,t1
bfc01770:	3c125b74 	lui	s2,0x5b74
bfc01774:	36529a60 	ori	s2,s2,0x9a60
bfc01778:	161202a4 	bne	s0,s2,bfc0220c <inst_error>
bfc0177c:	00000000 	nop
bfc01780:	3c080829 	lui	t0,0x829
bfc01784:	35081e00 	ori	t0,t0,0x1e00
bfc01788:	24090000 	li	t1,0
bfc0178c:	01288004 	sllv	s0,t0,t1
bfc01790:	3c120829 	lui	s2,0x829
bfc01794:	36521e00 	ori	s2,s2,0x1e00
bfc01798:	1612029c 	bne	s0,s2,bfc0220c <inst_error>
bfc0179c:	00000000 	nop
bfc017a0:	3c0880b5 	lui	t0,0x80b5
bfc017a4:	35083fd8 	ori	t0,t0,0x3fd8
bfc017a8:	24090000 	li	t1,0
bfc017ac:	01288004 	sllv	s0,t0,t1
bfc017b0:	3c1280b5 	lui	s2,0x80b5
bfc017b4:	36523fd8 	ori	s2,s2,0x3fd8
bfc017b8:	16120294 	bne	s0,s2,bfc0220c <inst_error>
bfc017bc:	00000000 	nop
bfc017c0:	3c08bd63 	lui	t0,0xbd63
bfc017c4:	35080190 	ori	t0,t0,0x190
bfc017c8:	24090000 	li	t1,0
bfc017cc:	01288004 	sllv	s0,t0,t1
bfc017d0:	3c12bd63 	lui	s2,0xbd63
bfc017d4:	36520190 	ori	s2,s2,0x190
bfc017d8:	1612028c 	bne	s0,s2,bfc0220c <inst_error>
bfc017dc:	00000000 	nop
bfc017e0:	3c08ae46 	lui	t0,0xae46
bfc017e4:	3508e1d8 	ori	t0,t0,0xe1d8
bfc017e8:	24090000 	li	t1,0
bfc017ec:	01288004 	sllv	s0,t0,t1
bfc017f0:	3c12ae46 	lui	s2,0xae46
bfc017f4:	3652e1d8 	ori	s2,s2,0xe1d8
bfc017f8:	16120284 	bne	s0,s2,bfc0220c <inst_error>
bfc017fc:	00000000 	nop
bfc01800:	3c084afb 	lui	t0,0x4afb
bfc01804:	35089404 	ori	t0,t0,0x9404
bfc01808:	24090000 	li	t1,0
bfc0180c:	01288004 	sllv	s0,t0,t1
bfc01810:	3c124afb 	lui	s2,0x4afb
bfc01814:	36529404 	ori	s2,s2,0x9404
bfc01818:	1612027c 	bne	s0,s2,bfc0220c <inst_error>
bfc0181c:	00000000 	nop
bfc01820:	3c08aa34 	lui	t0,0xaa34
bfc01824:	35085ff4 	ori	t0,t0,0x5ff4
bfc01828:	24090000 	li	t1,0
bfc0182c:	01288004 	sllv	s0,t0,t1
bfc01830:	3c12aa34 	lui	s2,0xaa34
bfc01834:	36525ff4 	ori	s2,s2,0x5ff4
bfc01838:	16120274 	bne	s0,s2,bfc0220c <inst_error>
bfc0183c:	00000000 	nop
bfc01840:	3c0804e4 	lui	t0,0x4e4
bfc01844:	35086b9c 	ori	t0,t0,0x6b9c
bfc01848:	24090000 	li	t1,0
bfc0184c:	01288004 	sllv	s0,t0,t1
bfc01850:	3c1204e4 	lui	s2,0x4e4
bfc01854:	36526b9c 	ori	s2,s2,0x6b9c
bfc01858:	1612026c 	bne	s0,s2,bfc0220c <inst_error>
bfc0185c:	00000000 	nop
bfc01860:	3c089851 	lui	t0,0x9851
bfc01864:	3508a9ab 	ori	t0,t0,0xa9ab
bfc01868:	24090000 	li	t1,0
bfc0186c:	01288004 	sllv	s0,t0,t1
bfc01870:	3c129851 	lui	s2,0x9851
bfc01874:	3652a9ab 	ori	s2,s2,0xa9ab
bfc01878:	16120264 	bne	s0,s2,bfc0220c <inst_error>
bfc0187c:	00000000 	nop
bfc01880:	3c08cf81 	lui	t0,0xcf81
bfc01884:	35084896 	ori	t0,t0,0x4896
bfc01888:	24090000 	li	t1,0
bfc0188c:	01288004 	sllv	s0,t0,t1
bfc01890:	3c12cf81 	lui	s2,0xcf81
bfc01894:	36524896 	ori	s2,s2,0x4896
bfc01898:	1612025c 	bne	s0,s2,bfc0220c <inst_error>
bfc0189c:	00000000 	nop
bfc018a0:	3c084431 	lui	t0,0x4431
bfc018a4:	35080c9e 	ori	t0,t0,0xc9e
bfc018a8:	24090000 	li	t1,0
bfc018ac:	01288004 	sllv	s0,t0,t1
bfc018b0:	3c124431 	lui	s2,0x4431
bfc018b4:	36520c9e 	ori	s2,s2,0xc9e
bfc018b8:	16120254 	bne	s0,s2,bfc0220c <inst_error>
bfc018bc:	00000000 	nop
bfc018c0:	3c08fd51 	lui	t0,0xfd51
bfc018c4:	350832aa 	ori	t0,t0,0x32aa
bfc018c8:	24090000 	li	t1,0
bfc018cc:	01288004 	sllv	s0,t0,t1
bfc018d0:	3c12fd51 	lui	s2,0xfd51
bfc018d4:	365232aa 	ori	s2,s2,0x32aa
bfc018d8:	1612024c 	bne	s0,s2,bfc0220c <inst_error>
bfc018dc:	00000000 	nop
bfc018e0:	3c08cf2b 	lui	t0,0xcf2b
bfc018e4:	35086950 	ori	t0,t0,0x6950
bfc018e8:	24090000 	li	t1,0
bfc018ec:	01288004 	sllv	s0,t0,t1
bfc018f0:	3c12cf2b 	lui	s2,0xcf2b
bfc018f4:	36526950 	ori	s2,s2,0x6950
bfc018f8:	16120244 	bne	s0,s2,bfc0220c <inst_error>
bfc018fc:	00000000 	nop
bfc01900:	3c086351 	lui	t0,0x6351
bfc01904:	35088bb0 	ori	t0,t0,0x8bb0
bfc01908:	24090000 	li	t1,0
bfc0190c:	01288004 	sllv	s0,t0,t1
bfc01910:	3c126351 	lui	s2,0x6351
bfc01914:	36528bb0 	ori	s2,s2,0x8bb0
bfc01918:	1612023c 	bne	s0,s2,bfc0220c <inst_error>
bfc0191c:	00000000 	nop
bfc01920:	3c08e8f3 	lui	t0,0xe8f3
bfc01924:	3508cf20 	ori	t0,t0,0xcf20
bfc01928:	24090000 	li	t1,0
bfc0192c:	01288004 	sllv	s0,t0,t1
bfc01930:	3c12e8f3 	lui	s2,0xe8f3
bfc01934:	3652cf20 	ori	s2,s2,0xcf20
bfc01938:	16120234 	bne	s0,s2,bfc0220c <inst_error>
bfc0193c:	00000000 	nop
bfc01940:	3c08d3e7 	lui	t0,0xd3e7
bfc01944:	3508db28 	ori	t0,t0,0xdb28
bfc01948:	24090000 	li	t1,0
bfc0194c:	01288004 	sllv	s0,t0,t1
bfc01950:	3c12d3e7 	lui	s2,0xd3e7
bfc01954:	3652db28 	ori	s2,s2,0xdb28
bfc01958:	1612022c 	bne	s0,s2,bfc0220c <inst_error>
bfc0195c:	00000000 	nop
bfc01960:	3c08f54b 	lui	t0,0xf54b
bfc01964:	350866fc 	ori	t0,t0,0x66fc
bfc01968:	24090000 	li	t1,0
bfc0196c:	01288004 	sllv	s0,t0,t1
bfc01970:	3c12f54b 	lui	s2,0xf54b
bfc01974:	365266fc 	ori	s2,s2,0x66fc
bfc01978:	16120224 	bne	s0,s2,bfc0220c <inst_error>
bfc0197c:	00000000 	nop
bfc01980:	3c0831ed 	lui	t0,0x31ed
bfc01984:	3508e4b8 	ori	t0,t0,0xe4b8
bfc01988:	24090000 	li	t1,0
bfc0198c:	01288004 	sllv	s0,t0,t1
bfc01990:	3c1231ed 	lui	s2,0x31ed
bfc01994:	3652e4b8 	ori	s2,s2,0xe4b8
bfc01998:	1612021c 	bne	s0,s2,bfc0220c <inst_error>
bfc0199c:	00000000 	nop
bfc019a0:	3c082728 	lui	t0,0x2728
bfc019a4:	3508c3a2 	ori	t0,t0,0xc3a2
bfc019a8:	24090000 	li	t1,0
bfc019ac:	01288004 	sllv	s0,t0,t1
bfc019b0:	3c122728 	lui	s2,0x2728
bfc019b4:	3652c3a2 	ori	s2,s2,0xc3a2
bfc019b8:	16120214 	bne	s0,s2,bfc0220c <inst_error>
bfc019bc:	00000000 	nop
bfc019c0:	3c080c40 	lui	t0,0xc40
bfc019c4:	35080340 	ori	t0,t0,0x340
bfc019c8:	24090000 	li	t1,0
bfc019cc:	01288004 	sllv	s0,t0,t1
bfc019d0:	3c120c40 	lui	s2,0xc40
bfc019d4:	36520340 	ori	s2,s2,0x340
bfc019d8:	1612020c 	bne	s0,s2,bfc0220c <inst_error>
bfc019dc:	00000000 	nop
bfc019e0:	3c080b5b 	lui	t0,0xb5b
bfc019e4:	35083e04 	ori	t0,t0,0x3e04
bfc019e8:	24090000 	li	t1,0
bfc019ec:	01288004 	sllv	s0,t0,t1
bfc019f0:	3c120b5b 	lui	s2,0xb5b
bfc019f4:	36523e04 	ori	s2,s2,0x3e04
bfc019f8:	16120204 	bne	s0,s2,bfc0220c <inst_error>
bfc019fc:	00000000 	nop
bfc01a00:	3c083080 	lui	t0,0x3080
bfc01a04:	35087cb0 	ori	t0,t0,0x7cb0
bfc01a08:	24090000 	li	t1,0
bfc01a0c:	01288004 	sllv	s0,t0,t1
bfc01a10:	3c123080 	lui	s2,0x3080
bfc01a14:	36527cb0 	ori	s2,s2,0x7cb0
bfc01a18:	161201fc 	bne	s0,s2,bfc0220c <inst_error>
bfc01a1c:	00000000 	nop
bfc01a20:	3c08ace9 	lui	t0,0xace9
bfc01a24:	35082d24 	ori	t0,t0,0x2d24
bfc01a28:	24090000 	li	t1,0
bfc01a2c:	01288004 	sllv	s0,t0,t1
bfc01a30:	3c12ace9 	lui	s2,0xace9
bfc01a34:	36522d24 	ori	s2,s2,0x2d24
bfc01a38:	161201f4 	bne	s0,s2,bfc0220c <inst_error>
bfc01a3c:	00000000 	nop
bfc01a40:	3c088b48 	lui	t0,0x8b48
bfc01a44:	35085f60 	ori	t0,t0,0x5f60
bfc01a48:	24090000 	li	t1,0
bfc01a4c:	01288004 	sllv	s0,t0,t1
bfc01a50:	3c128b48 	lui	s2,0x8b48
bfc01a54:	36525f60 	ori	s2,s2,0x5f60
bfc01a58:	161201ec 	bne	s0,s2,bfc0220c <inst_error>
bfc01a5c:	00000000 	nop
bfc01a60:	3c084ee5 	lui	t0,0x4ee5
bfc01a64:	350819ee 	ori	t0,t0,0x19ee
bfc01a68:	24090000 	li	t1,0
bfc01a6c:	01288004 	sllv	s0,t0,t1
bfc01a70:	3c124ee5 	lui	s2,0x4ee5
bfc01a74:	365219ee 	ori	s2,s2,0x19ee
bfc01a78:	161201e4 	bne	s0,s2,bfc0220c <inst_error>
bfc01a7c:	00000000 	nop
bfc01a80:	3c08d477 	lui	t0,0xd477
bfc01a84:	3508fb2c 	ori	t0,t0,0xfb2c
bfc01a88:	24090000 	li	t1,0
bfc01a8c:	01288004 	sllv	s0,t0,t1
bfc01a90:	3c12d477 	lui	s2,0xd477
bfc01a94:	3652fb2c 	ori	s2,s2,0xfb2c
bfc01a98:	161201dc 	bne	s0,s2,bfc0220c <inst_error>
bfc01a9c:	00000000 	nop
bfc01aa0:	3c0830ea 	lui	t0,0x30ea
bfc01aa4:	3508056b 	ori	t0,t0,0x56b
bfc01aa8:	24090000 	li	t1,0
bfc01aac:	01288004 	sllv	s0,t0,t1
bfc01ab0:	3c1230ea 	lui	s2,0x30ea
bfc01ab4:	3652056b 	ori	s2,s2,0x56b
bfc01ab8:	161201d4 	bne	s0,s2,bfc0220c <inst_error>
bfc01abc:	00000000 	nop
bfc01ac0:	3c082752 	lui	t0,0x2752
bfc01ac4:	3508c3c0 	ori	t0,t0,0xc3c0
bfc01ac8:	24090000 	li	t1,0
bfc01acc:	01288004 	sllv	s0,t0,t1
bfc01ad0:	3c122752 	lui	s2,0x2752
bfc01ad4:	3652c3c0 	ori	s2,s2,0xc3c0
bfc01ad8:	161201cc 	bne	s0,s2,bfc0220c <inst_error>
bfc01adc:	00000000 	nop
bfc01ae0:	3c0857c6 	lui	t0,0x57c6
bfc01ae4:	35089600 	ori	t0,t0,0x9600
bfc01ae8:	24090000 	li	t1,0
bfc01aec:	01288004 	sllv	s0,t0,t1
bfc01af0:	3c1257c6 	lui	s2,0x57c6
bfc01af4:	36529600 	ori	s2,s2,0x9600
bfc01af8:	161201c4 	bne	s0,s2,bfc0220c <inst_error>
bfc01afc:	00000000 	nop
bfc01b00:	3c088d41 	lui	t0,0x8d41
bfc01b04:	35084e38 	ori	t0,t0,0x4e38
bfc01b08:	24090000 	li	t1,0
bfc01b0c:	01288004 	sllv	s0,t0,t1
bfc01b10:	3c128d41 	lui	s2,0x8d41
bfc01b14:	36524e38 	ori	s2,s2,0x4e38
bfc01b18:	161201bc 	bne	s0,s2,bfc0220c <inst_error>
bfc01b1c:	00000000 	nop
bfc01b20:	3c0897d3 	lui	t0,0x97d3
bfc01b24:	35088920 	ori	t0,t0,0x8920
bfc01b28:	24090000 	li	t1,0
bfc01b2c:	01288004 	sllv	s0,t0,t1
bfc01b30:	3c1297d3 	lui	s2,0x97d3
bfc01b34:	36528920 	ori	s2,s2,0x8920
bfc01b38:	161201b4 	bne	s0,s2,bfc0220c <inst_error>
bfc01b3c:	00000000 	nop
bfc01b40:	3c0894d6 	lui	t0,0x94d6
bfc01b44:	35089c62 	ori	t0,t0,0x9c62
bfc01b48:	24090000 	li	t1,0
bfc01b4c:	01288004 	sllv	s0,t0,t1
bfc01b50:	3c1294d6 	lui	s2,0x94d6
bfc01b54:	36529c62 	ori	s2,s2,0x9c62
bfc01b58:	161201ac 	bne	s0,s2,bfc0220c <inst_error>
bfc01b5c:	00000000 	nop
bfc01b60:	3c0867da 	lui	t0,0x67da
bfc01b64:	35083e31 	ori	t0,t0,0x3e31
bfc01b68:	24090000 	li	t1,0
bfc01b6c:	01288004 	sllv	s0,t0,t1
bfc01b70:	3c1267da 	lui	s2,0x67da
bfc01b74:	36523e31 	ori	s2,s2,0x3e31
bfc01b78:	161201a4 	bne	s0,s2,bfc0220c <inst_error>
bfc01b7c:	00000000 	nop
bfc01b80:	3c08729d 	lui	t0,0x729d
bfc01b84:	35083688 	ori	t0,t0,0x3688
bfc01b88:	24090000 	li	t1,0
bfc01b8c:	01288004 	sllv	s0,t0,t1
bfc01b90:	3c12729d 	lui	s2,0x729d
bfc01b94:	36523688 	ori	s2,s2,0x3688
bfc01b98:	1612019c 	bne	s0,s2,bfc0220c <inst_error>
bfc01b9c:	00000000 	nop
bfc01ba0:	3c08a51f 	lui	t0,0xa51f
bfc01ba4:	350879bf 	ori	t0,t0,0x79bf
bfc01ba8:	24090000 	li	t1,0
bfc01bac:	01288004 	sllv	s0,t0,t1
bfc01bb0:	3c12a51f 	lui	s2,0xa51f
bfc01bb4:	365279bf 	ori	s2,s2,0x79bf
bfc01bb8:	16120194 	bne	s0,s2,bfc0220c <inst_error>
bfc01bbc:	00000000 	nop
bfc01bc0:	3c081473 	lui	t0,0x1473
bfc01bc4:	35086ed5 	ori	t0,t0,0x6ed5
bfc01bc8:	24090000 	li	t1,0
bfc01bcc:	01288004 	sllv	s0,t0,t1
bfc01bd0:	3c121473 	lui	s2,0x1473
bfc01bd4:	36526ed5 	ori	s2,s2,0x6ed5
bfc01bd8:	1612018c 	bne	s0,s2,bfc0220c <inst_error>
bfc01bdc:	00000000 	nop
bfc01be0:	3c082ccf 	lui	t0,0x2ccf
bfc01be4:	3508043c 	ori	t0,t0,0x43c
bfc01be8:	24090000 	li	t1,0
bfc01bec:	01288004 	sllv	s0,t0,t1
bfc01bf0:	3c122ccf 	lui	s2,0x2ccf
bfc01bf4:	3652043c 	ori	s2,s2,0x43c
bfc01bf8:	16120184 	bne	s0,s2,bfc0220c <inst_error>
bfc01bfc:	00000000 	nop
bfc01c00:	3c087739 	lui	t0,0x7739
bfc01c04:	3508bde0 	ori	t0,t0,0xbde0
bfc01c08:	24090000 	li	t1,0
bfc01c0c:	01288004 	sllv	s0,t0,t1
bfc01c10:	3c127739 	lui	s2,0x7739
bfc01c14:	3652bde0 	ori	s2,s2,0xbde0
bfc01c18:	1612017c 	bne	s0,s2,bfc0220c <inst_error>
bfc01c1c:	00000000 	nop
bfc01c20:	3c087cb7 	lui	t0,0x7cb7
bfc01c24:	35080888 	ori	t0,t0,0x888
bfc01c28:	24090000 	li	t1,0
bfc01c2c:	01288004 	sllv	s0,t0,t1
bfc01c30:	3c127cb7 	lui	s2,0x7cb7
bfc01c34:	36520888 	ori	s2,s2,0x888
bfc01c38:	16120174 	bne	s0,s2,bfc0220c <inst_error>
bfc01c3c:	00000000 	nop
bfc01c40:	3c08c878 	lui	t0,0xc878
bfc01c44:	350883ac 	ori	t0,t0,0x83ac
bfc01c48:	24090000 	li	t1,0
bfc01c4c:	01288004 	sllv	s0,t0,t1
bfc01c50:	3c12c878 	lui	s2,0xc878
bfc01c54:	365283ac 	ori	s2,s2,0x83ac
bfc01c58:	1612016c 	bne	s0,s2,bfc0220c <inst_error>
bfc01c5c:	00000000 	nop
bfc01c60:	3c081e2c 	lui	t0,0x1e2c
bfc01c64:	3508beb6 	ori	t0,t0,0xbeb6
bfc01c68:	24090000 	li	t1,0
bfc01c6c:	01288004 	sllv	s0,t0,t1
bfc01c70:	3c121e2c 	lui	s2,0x1e2c
bfc01c74:	3652beb6 	ori	s2,s2,0xbeb6
bfc01c78:	16120164 	bne	s0,s2,bfc0220c <inst_error>
bfc01c7c:	00000000 	nop
bfc01c80:	3c0881cd 	lui	t0,0x81cd
bfc01c84:	3508bff3 	ori	t0,t0,0xbff3
bfc01c88:	24090000 	li	t1,0
bfc01c8c:	01288004 	sllv	s0,t0,t1
bfc01c90:	3c1281cd 	lui	s2,0x81cd
bfc01c94:	3652bff3 	ori	s2,s2,0xbff3
bfc01c98:	1612015c 	bne	s0,s2,bfc0220c <inst_error>
bfc01c9c:	00000000 	nop
bfc01ca0:	3c084934 	lui	t0,0x4934
bfc01ca4:	35086960 	ori	t0,t0,0x6960
bfc01ca8:	24090000 	li	t1,0
bfc01cac:	01288004 	sllv	s0,t0,t1
bfc01cb0:	3c124934 	lui	s2,0x4934
bfc01cb4:	36526960 	ori	s2,s2,0x6960
bfc01cb8:	16120154 	bne	s0,s2,bfc0220c <inst_error>
bfc01cbc:	00000000 	nop
bfc01cc0:	3c08bf69 	lui	t0,0xbf69
bfc01cc4:	3508f668 	ori	t0,t0,0xf668
bfc01cc8:	24090000 	li	t1,0
bfc01ccc:	01288004 	sllv	s0,t0,t1
bfc01cd0:	3c12bf69 	lui	s2,0xbf69
bfc01cd4:	3652f668 	ori	s2,s2,0xf668
bfc01cd8:	1612014c 	bne	s0,s2,bfc0220c <inst_error>
bfc01cdc:	00000000 	nop
bfc01ce0:	3c08ff16 	lui	t0,0xff16
bfc01ce4:	35088870 	ori	t0,t0,0x8870
bfc01ce8:	24090000 	li	t1,0
bfc01cec:	01288004 	sllv	s0,t0,t1
bfc01cf0:	3c12ff16 	lui	s2,0xff16
bfc01cf4:	36528870 	ori	s2,s2,0x8870
bfc01cf8:	16120144 	bne	s0,s2,bfc0220c <inst_error>
bfc01cfc:	00000000 	nop
bfc01d00:	3c08223c 	lui	t0,0x223c
bfc01d04:	350815f4 	ori	t0,t0,0x15f4
bfc01d08:	24090000 	li	t1,0
bfc01d0c:	01288004 	sllv	s0,t0,t1
bfc01d10:	3c12223c 	lui	s2,0x223c
bfc01d14:	365215f4 	ori	s2,s2,0x15f4
bfc01d18:	1612013c 	bne	s0,s2,bfc0220c <inst_error>
bfc01d1c:	00000000 	nop
bfc01d20:	3c08323b 	lui	t0,0x323b
bfc01d24:	3508d800 	ori	t0,t0,0xd800
bfc01d28:	24090000 	li	t1,0
bfc01d2c:	01288004 	sllv	s0,t0,t1
bfc01d30:	3c12323b 	lui	s2,0x323b
bfc01d34:	3652d800 	ori	s2,s2,0xd800
bfc01d38:	16120134 	bne	s0,s2,bfc0220c <inst_error>
bfc01d3c:	00000000 	nop
bfc01d40:	24080000 	li	t0,0
bfc01d44:	2409001e 	li	t1,30
bfc01d48:	01288004 	sllv	s0,t0,t1
bfc01d4c:	24120000 	li	s2,0
bfc01d50:	1612012e 	bne	s0,s2,bfc0220c <inst_error>
bfc01d54:	00000000 	nop
bfc01d58:	24080000 	li	t0,0
bfc01d5c:	24090003 	li	t1,3
bfc01d60:	01288004 	sllv	s0,t0,t1
bfc01d64:	24120000 	li	s2,0
bfc01d68:	16120128 	bne	s0,s2,bfc0220c <inst_error>
bfc01d6c:	00000000 	nop
bfc01d70:	24080000 	li	t0,0
bfc01d74:	24090016 	li	t1,22
bfc01d78:	01288004 	sllv	s0,t0,t1
bfc01d7c:	24120000 	li	s2,0
bfc01d80:	16120122 	bne	s0,s2,bfc0220c <inst_error>
bfc01d84:	00000000 	nop
bfc01d88:	24080000 	li	t0,0
bfc01d8c:	24090003 	li	t1,3
bfc01d90:	01288004 	sllv	s0,t0,t1
bfc01d94:	24120000 	li	s2,0
bfc01d98:	1612011c 	bne	s0,s2,bfc0220c <inst_error>
bfc01d9c:	00000000 	nop
bfc01da0:	24080000 	li	t0,0
bfc01da4:	2409001a 	li	t1,26
bfc01da8:	01288004 	sllv	s0,t0,t1
bfc01dac:	24120000 	li	s2,0
bfc01db0:	16120116 	bne	s0,s2,bfc0220c <inst_error>
bfc01db4:	00000000 	nop
bfc01db8:	24080000 	li	t0,0
bfc01dbc:	24090017 	li	t1,23
bfc01dc0:	01288004 	sllv	s0,t0,t1
bfc01dc4:	24120000 	li	s2,0
bfc01dc8:	16120110 	bne	s0,s2,bfc0220c <inst_error>
bfc01dcc:	00000000 	nop
bfc01dd0:	24080000 	li	t0,0
bfc01dd4:	24090011 	li	t1,17
bfc01dd8:	01288004 	sllv	s0,t0,t1
bfc01ddc:	24120000 	li	s2,0
bfc01de0:	1612010a 	bne	s0,s2,bfc0220c <inst_error>
bfc01de4:	00000000 	nop
bfc01de8:	24080000 	li	t0,0
bfc01dec:	24090002 	li	t1,2
bfc01df0:	01288004 	sllv	s0,t0,t1
bfc01df4:	24120000 	li	s2,0
bfc01df8:	16120104 	bne	s0,s2,bfc0220c <inst_error>
bfc01dfc:	00000000 	nop
bfc01e00:	24080000 	li	t0,0
bfc01e04:	24090015 	li	t1,21
bfc01e08:	01288004 	sllv	s0,t0,t1
bfc01e0c:	24120000 	li	s2,0
bfc01e10:	161200fe 	bne	s0,s2,bfc0220c <inst_error>
bfc01e14:	00000000 	nop
bfc01e18:	24080000 	li	t0,0
bfc01e1c:	24090018 	li	t1,24
bfc01e20:	01288004 	sllv	s0,t0,t1
bfc01e24:	24120000 	li	s2,0
bfc01e28:	161200f8 	bne	s0,s2,bfc0220c <inst_error>
bfc01e2c:	00000000 	nop
bfc01e30:	24080000 	li	t0,0
bfc01e34:	2409000a 	li	t1,10
bfc01e38:	01288004 	sllv	s0,t0,t1
bfc01e3c:	24120000 	li	s2,0
bfc01e40:	161200f2 	bne	s0,s2,bfc0220c <inst_error>
bfc01e44:	00000000 	nop
bfc01e48:	24080000 	li	t0,0
bfc01e4c:	24090012 	li	t1,18
bfc01e50:	01288004 	sllv	s0,t0,t1
bfc01e54:	24120000 	li	s2,0
bfc01e58:	161200ec 	bne	s0,s2,bfc0220c <inst_error>
bfc01e5c:	00000000 	nop
bfc01e60:	24080000 	li	t0,0
bfc01e64:	24090018 	li	t1,24
bfc01e68:	01288004 	sllv	s0,t0,t1
bfc01e6c:	24120000 	li	s2,0
bfc01e70:	161200e6 	bne	s0,s2,bfc0220c <inst_error>
bfc01e74:	00000000 	nop
bfc01e78:	24080000 	li	t0,0
bfc01e7c:	2409001d 	li	t1,29
bfc01e80:	01288004 	sllv	s0,t0,t1
bfc01e84:	24120000 	li	s2,0
bfc01e88:	161200e0 	bne	s0,s2,bfc0220c <inst_error>
bfc01e8c:	00000000 	nop
bfc01e90:	24080000 	li	t0,0
bfc01e94:	24090015 	li	t1,21
bfc01e98:	01288004 	sllv	s0,t0,t1
bfc01e9c:	24120000 	li	s2,0
bfc01ea0:	161200da 	bne	s0,s2,bfc0220c <inst_error>
bfc01ea4:	00000000 	nop
bfc01ea8:	24080000 	li	t0,0
bfc01eac:	2409000a 	li	t1,10
bfc01eb0:	01288004 	sllv	s0,t0,t1
bfc01eb4:	24120000 	li	s2,0
bfc01eb8:	161200d4 	bne	s0,s2,bfc0220c <inst_error>
bfc01ebc:	00000000 	nop
bfc01ec0:	24080000 	li	t0,0
bfc01ec4:	2409000f 	li	t1,15
bfc01ec8:	01288004 	sllv	s0,t0,t1
bfc01ecc:	24120000 	li	s2,0
bfc01ed0:	161200ce 	bne	s0,s2,bfc0220c <inst_error>
bfc01ed4:	00000000 	nop
bfc01ed8:	24080000 	li	t0,0
bfc01edc:	2409001e 	li	t1,30
bfc01ee0:	01288004 	sllv	s0,t0,t1
bfc01ee4:	24120000 	li	s2,0
bfc01ee8:	161200c8 	bne	s0,s2,bfc0220c <inst_error>
bfc01eec:	00000000 	nop
bfc01ef0:	24080000 	li	t0,0
bfc01ef4:	2409000e 	li	t1,14
bfc01ef8:	01288004 	sllv	s0,t0,t1
bfc01efc:	24120000 	li	s2,0
bfc01f00:	161200c2 	bne	s0,s2,bfc0220c <inst_error>
bfc01f04:	00000000 	nop
bfc01f08:	24080000 	li	t0,0
bfc01f0c:	2409000b 	li	t1,11
bfc01f10:	01288004 	sllv	s0,t0,t1
bfc01f14:	24120000 	li	s2,0
bfc01f18:	161200bc 	bne	s0,s2,bfc0220c <inst_error>
bfc01f1c:	00000000 	nop
bfc01f20:	24080000 	li	t0,0
bfc01f24:	24090006 	li	t1,6
bfc01f28:	01288004 	sllv	s0,t0,t1
bfc01f2c:	24120000 	li	s2,0
bfc01f30:	161200b6 	bne	s0,s2,bfc0220c <inst_error>
bfc01f34:	00000000 	nop
bfc01f38:	24080000 	li	t0,0
bfc01f3c:	24090019 	li	t1,25
bfc01f40:	01288004 	sllv	s0,t0,t1
bfc01f44:	24120000 	li	s2,0
bfc01f48:	161200b0 	bne	s0,s2,bfc0220c <inst_error>
bfc01f4c:	00000000 	nop
bfc01f50:	24080000 	li	t0,0
bfc01f54:	2409000a 	li	t1,10
bfc01f58:	01288004 	sllv	s0,t0,t1
bfc01f5c:	24120000 	li	s2,0
bfc01f60:	161200aa 	bne	s0,s2,bfc0220c <inst_error>
bfc01f64:	00000000 	nop
bfc01f68:	24080000 	li	t0,0
bfc01f6c:	2409000f 	li	t1,15
bfc01f70:	01288004 	sllv	s0,t0,t1
bfc01f74:	24120000 	li	s2,0
bfc01f78:	161200a4 	bne	s0,s2,bfc0220c <inst_error>
bfc01f7c:	00000000 	nop
bfc01f80:	24080000 	li	t0,0
bfc01f84:	24090000 	li	t1,0
bfc01f88:	01288004 	sllv	s0,t0,t1
bfc01f8c:	24120000 	li	s2,0
bfc01f90:	1612009e 	bne	s0,s2,bfc0220c <inst_error>
bfc01f94:	00000000 	nop
bfc01f98:	24080000 	li	t0,0
bfc01f9c:	2409001f 	li	t1,31
bfc01fa0:	01288004 	sllv	s0,t0,t1
bfc01fa4:	24120000 	li	s2,0
bfc01fa8:	16120098 	bne	s0,s2,bfc0220c <inst_error>
bfc01fac:	00000000 	nop
bfc01fb0:	24080000 	li	t0,0
bfc01fb4:	2409001f 	li	t1,31
bfc01fb8:	01288004 	sllv	s0,t0,t1
bfc01fbc:	24120000 	li	s2,0
bfc01fc0:	16120092 	bne	s0,s2,bfc0220c <inst_error>
bfc01fc4:	00000000 	nop
bfc01fc8:	24080000 	li	t0,0
bfc01fcc:	24090007 	li	t1,7
bfc01fd0:	01288004 	sllv	s0,t0,t1
bfc01fd4:	24120000 	li	s2,0
bfc01fd8:	1612008c 	bne	s0,s2,bfc0220c <inst_error>
bfc01fdc:	00000000 	nop
bfc01fe0:	24080000 	li	t0,0
bfc01fe4:	24090017 	li	t1,23
bfc01fe8:	01288004 	sllv	s0,t0,t1
bfc01fec:	24120000 	li	s2,0
bfc01ff0:	16120086 	bne	s0,s2,bfc0220c <inst_error>
bfc01ff4:	00000000 	nop
bfc01ff8:	24080000 	li	t0,0
bfc01ffc:	2409001d 	li	t1,29
bfc02000:	01288004 	sllv	s0,t0,t1
bfc02004:	24120000 	li	s2,0
bfc02008:	16120080 	bne	s0,s2,bfc0220c <inst_error>
bfc0200c:	00000000 	nop
bfc02010:	24080000 	li	t0,0
bfc02014:	24090017 	li	t1,23
bfc02018:	01288004 	sllv	s0,t0,t1
bfc0201c:	24120000 	li	s2,0
bfc02020:	1612007a 	bne	s0,s2,bfc0220c <inst_error>
bfc02024:	00000000 	nop
bfc02028:	24080000 	li	t0,0
bfc0202c:	2409000f 	li	t1,15
bfc02030:	01288004 	sllv	s0,t0,t1
bfc02034:	24120000 	li	s2,0
bfc02038:	16120074 	bne	s0,s2,bfc0220c <inst_error>
bfc0203c:	00000000 	nop
bfc02040:	24080000 	li	t0,0
bfc02044:	24090019 	li	t1,25
bfc02048:	01288004 	sllv	s0,t0,t1
bfc0204c:	24120000 	li	s2,0
bfc02050:	1612006e 	bne	s0,s2,bfc0220c <inst_error>
bfc02054:	00000000 	nop
bfc02058:	24080000 	li	t0,0
bfc0205c:	2409000a 	li	t1,10
bfc02060:	01288004 	sllv	s0,t0,t1
bfc02064:	24120000 	li	s2,0
bfc02068:	16120068 	bne	s0,s2,bfc0220c <inst_error>
bfc0206c:	00000000 	nop
bfc02070:	24080000 	li	t0,0
bfc02074:	24090005 	li	t1,5
bfc02078:	01288004 	sllv	s0,t0,t1
bfc0207c:	24120000 	li	s2,0
bfc02080:	16120062 	bne	s0,s2,bfc0220c <inst_error>
bfc02084:	00000000 	nop
bfc02088:	24080000 	li	t0,0
bfc0208c:	2409000a 	li	t1,10
bfc02090:	01288004 	sllv	s0,t0,t1
bfc02094:	24120000 	li	s2,0
bfc02098:	1612005c 	bne	s0,s2,bfc0220c <inst_error>
bfc0209c:	00000000 	nop
bfc020a0:	24080000 	li	t0,0
bfc020a4:	24090011 	li	t1,17
bfc020a8:	01288004 	sllv	s0,t0,t1
bfc020ac:	24120000 	li	s2,0
bfc020b0:	16120056 	bne	s0,s2,bfc0220c <inst_error>
bfc020b4:	00000000 	nop
bfc020b8:	24080000 	li	t0,0
bfc020bc:	24090017 	li	t1,23
bfc020c0:	01288004 	sllv	s0,t0,t1
bfc020c4:	24120000 	li	s2,0
bfc020c8:	16120050 	bne	s0,s2,bfc0220c <inst_error>
bfc020cc:	00000000 	nop
bfc020d0:	24080000 	li	t0,0
bfc020d4:	24090010 	li	t1,16
bfc020d8:	01288004 	sllv	s0,t0,t1
bfc020dc:	24120000 	li	s2,0
bfc020e0:	1612004a 	bne	s0,s2,bfc0220c <inst_error>
bfc020e4:	00000000 	nop
bfc020e8:	24080000 	li	t0,0
bfc020ec:	24090006 	li	t1,6
bfc020f0:	01288004 	sllv	s0,t0,t1
bfc020f4:	24120000 	li	s2,0
bfc020f8:	16120044 	bne	s0,s2,bfc0220c <inst_error>
bfc020fc:	00000000 	nop
bfc02100:	24080000 	li	t0,0
bfc02104:	24090009 	li	t1,9
bfc02108:	01288004 	sllv	s0,t0,t1
bfc0210c:	24120000 	li	s2,0
bfc02110:	1612003e 	bne	s0,s2,bfc0220c <inst_error>
bfc02114:	00000000 	nop
bfc02118:	24080000 	li	t0,0
bfc0211c:	24090014 	li	t1,20
bfc02120:	01288004 	sllv	s0,t0,t1
bfc02124:	24120000 	li	s2,0
bfc02128:	16120038 	bne	s0,s2,bfc0220c <inst_error>
bfc0212c:	00000000 	nop
bfc02130:	24080000 	li	t0,0
bfc02134:	2409000a 	li	t1,10
bfc02138:	01288004 	sllv	s0,t0,t1
bfc0213c:	24120000 	li	s2,0
bfc02140:	16120032 	bne	s0,s2,bfc0220c <inst_error>
bfc02144:	00000000 	nop
bfc02148:	24080000 	li	t0,0
bfc0214c:	24090003 	li	t1,3
bfc02150:	01288004 	sllv	s0,t0,t1
bfc02154:	24120000 	li	s2,0
bfc02158:	1612002c 	bne	s0,s2,bfc0220c <inst_error>
bfc0215c:	00000000 	nop
bfc02160:	24080000 	li	t0,0
bfc02164:	2409000b 	li	t1,11
bfc02168:	01288004 	sllv	s0,t0,t1
bfc0216c:	24120000 	li	s2,0
bfc02170:	16120026 	bne	s0,s2,bfc0220c <inst_error>
bfc02174:	00000000 	nop
bfc02178:	24080000 	li	t0,0
bfc0217c:	24090014 	li	t1,20
bfc02180:	01288004 	sllv	s0,t0,t1
bfc02184:	24120000 	li	s2,0
bfc02188:	16120020 	bne	s0,s2,bfc0220c <inst_error>
bfc0218c:	00000000 	nop
bfc02190:	24080000 	li	t0,0
bfc02194:	2409000b 	li	t1,11
bfc02198:	01288004 	sllv	s0,t0,t1
bfc0219c:	24120000 	li	s2,0
bfc021a0:	1612001a 	bne	s0,s2,bfc0220c <inst_error>
bfc021a4:	00000000 	nop
bfc021a8:	24080000 	li	t0,0
bfc021ac:	24090017 	li	t1,23
bfc021b0:	01288004 	sllv	s0,t0,t1
bfc021b4:	24120000 	li	s2,0
bfc021b8:	16120014 	bne	s0,s2,bfc0220c <inst_error>
bfc021bc:	00000000 	nop
bfc021c0:	24080000 	li	t0,0
bfc021c4:	24090016 	li	t1,22
bfc021c8:	01288004 	sllv	s0,t0,t1
bfc021cc:	24120000 	li	s2,0
bfc021d0:	1612000e 	bne	s0,s2,bfc0220c <inst_error>
bfc021d4:	00000000 	nop
bfc021d8:	24080000 	li	t0,0
bfc021dc:	24090001 	li	t1,1
bfc021e0:	01288004 	sllv	s0,t0,t1
bfc021e4:	24120000 	li	s2,0
bfc021e8:	16120008 	bne	s0,s2,bfc0220c <inst_error>
bfc021ec:	00000000 	nop
bfc021f0:	24080000 	li	t0,0
bfc021f4:	24090000 	li	t1,0
bfc021f8:	01288004 	sllv	s0,t0,t1
bfc021fc:	24120000 	li	s2,0
bfc02200:	16120002 	bne	s0,s2,bfc0220c <inst_error>
bfc02204:	00000000 	nop
bfc02208:	4a000000 	c2	0x0

bfc0220c <inst_error>:
inst_error():
bfc0220c:	0000003f 	0x3f

Disassembly of section .reginfo:

00000000 <.reginfo>:
   0:	00050300 	sll	zero,a1,0xc
	...
