
build/slt:     file format elf32-tradlittlemips
build/slt


Disassembly of section .text:

bfc00000 <main>:
bfc00000:	3c087245 	lui	t0,0x7245
bfc00004:	3508316a 	ori	t0,t0,0x316a
bfc00008:	3c097835 	lui	t1,0x7835
bfc0000c:	352906f0 	ori	t1,t1,0x6f0
bfc00010:	0109802a 	slt	s0,t0,t1
bfc00014:	24120001 	li	s2,1
bfc00018:	161208fc 	bne	s0,s2,bfc0240c <inst_error>
bfc0001c:	00000000 	nop
bfc00020:	3c08f93a 	lui	t0,0xf93a
bfc00024:	3508207e 	ori	t0,t0,0x207e
bfc00028:	3c09912e 	lui	t1,0x912e
bfc0002c:	3529d208 	ori	t1,t1,0xd208
bfc00030:	0109802a 	slt	s0,t0,t1
bfc00034:	24120000 	li	s2,0
bfc00038:	161208f4 	bne	s0,s2,bfc0240c <inst_error>
bfc0003c:	00000000 	nop
bfc00040:	3c084797 	lui	t0,0x4797
bfc00044:	35084516 	ori	t0,t0,0x4516
bfc00048:	3c09b8fd 	lui	t1,0xb8fd
bfc0004c:	35294d1c 	ori	t1,t1,0x4d1c
bfc00050:	0109802a 	slt	s0,t0,t1
bfc00054:	24120000 	li	s2,0
bfc00058:	161208ec 	bne	s0,s2,bfc0240c <inst_error>
bfc0005c:	00000000 	nop
bfc00060:	3c083892 	lui	t0,0x3892
bfc00064:	3508fe20 	ori	t0,t0,0xfe20
bfc00068:	3c09c03d 	lui	t1,0xc03d
bfc0006c:	352915f0 	ori	t1,t1,0x15f0
bfc00070:	0109802a 	slt	s0,t0,t1
bfc00074:	24120000 	li	s2,0
bfc00078:	161208e4 	bne	s0,s2,bfc0240c <inst_error>
bfc0007c:	00000000 	nop
bfc00080:	3c087e55 	lui	t0,0x7e55
bfc00084:	35089eb0 	ori	t0,t0,0x9eb0
bfc00088:	3c092628 	lui	t1,0x2628
bfc0008c:	3529fc00 	ori	t1,t1,0xfc00
bfc00090:	0109802a 	slt	s0,t0,t1
bfc00094:	24120000 	li	s2,0
bfc00098:	161208dc 	bne	s0,s2,bfc0240c <inst_error>
bfc0009c:	00000000 	nop
bfc000a0:	3c08f063 	lui	t0,0xf063
bfc000a4:	35083384 	ori	t0,t0,0x3384
bfc000a8:	3c0938e4 	lui	t1,0x38e4
bfc000ac:	3529ca32 	ori	t1,t1,0xca32
bfc000b0:	0109802a 	slt	s0,t0,t1
bfc000b4:	24120001 	li	s2,1
bfc000b8:	161208d4 	bne	s0,s2,bfc0240c <inst_error>
bfc000bc:	00000000 	nop
bfc000c0:	3c082a0a 	lui	t0,0x2a0a
bfc000c4:	350887d0 	ori	t0,t0,0x87d0
bfc000c8:	3c0989a6 	lui	t1,0x89a6
bfc000cc:	3529ba40 	ori	t1,t1,0xba40
bfc000d0:	0109802a 	slt	s0,t0,t1
bfc000d4:	24120000 	li	s2,0
bfc000d8:	161208cc 	bne	s0,s2,bfc0240c <inst_error>
bfc000dc:	00000000 	nop
bfc000e0:	3c082577 	lui	t0,0x2577
bfc000e4:	350842f8 	ori	t0,t0,0x42f8
bfc000e8:	3c099073 	lui	t1,0x9073
bfc000ec:	35290020 	ori	t1,t1,0x20
bfc000f0:	0109802a 	slt	s0,t0,t1
bfc000f4:	24120000 	li	s2,0
bfc000f8:	161208c4 	bne	s0,s2,bfc0240c <inst_error>
bfc000fc:	00000000 	nop
bfc00100:	3c087647 	lui	t0,0x7647
bfc00104:	35087934 	ori	t0,t0,0x7934
bfc00108:	3c09464f 	lui	t1,0x464f
bfc0010c:	3529a176 	ori	t1,t1,0xa176
bfc00110:	0109802a 	slt	s0,t0,t1
bfc00114:	24120000 	li	s2,0
bfc00118:	161208bc 	bne	s0,s2,bfc0240c <inst_error>
bfc0011c:	00000000 	nop
bfc00120:	3c08004a 	lui	t0,0x4a
bfc00124:	3508533a 	ori	t0,t0,0x533a
bfc00128:	3c09a9da 	lui	t1,0xa9da
bfc0012c:	3529da60 	ori	t1,t1,0xda60
bfc00130:	0109802a 	slt	s0,t0,t1
bfc00134:	24120000 	li	s2,0
bfc00138:	161208b4 	bne	s0,s2,bfc0240c <inst_error>
bfc0013c:	00000000 	nop
bfc00140:	3c08bd3f 	lui	t0,0xbd3f
bfc00144:	35083520 	ori	t0,t0,0x3520
bfc00148:	3c092365 	lui	t1,0x2365
bfc0014c:	352918fa 	ori	t1,t1,0x18fa
bfc00150:	0109802a 	slt	s0,t0,t1
bfc00154:	24120001 	li	s2,1
bfc00158:	161208ac 	bne	s0,s2,bfc0240c <inst_error>
bfc0015c:	00000000 	nop
bfc00160:	3c0803f1 	lui	t0,0x3f1
bfc00164:	35085cd8 	ori	t0,t0,0x5cd8
bfc00168:	3c09a777 	lui	t1,0xa777
bfc0016c:	3529f32c 	ori	t1,t1,0xf32c
bfc00170:	0109802a 	slt	s0,t0,t1
bfc00174:	24120000 	li	s2,0
bfc00178:	161208a4 	bne	s0,s2,bfc0240c <inst_error>
bfc0017c:	00000000 	nop
bfc00180:	3c08f8e7 	lui	t0,0xf8e7
bfc00184:	35084f26 	ori	t0,t0,0x4f26
bfc00188:	3c091d9a 	lui	t1,0x1d9a
bfc0018c:	3529f9b4 	ori	t1,t1,0xf9b4
bfc00190:	0109802a 	slt	s0,t0,t1
bfc00194:	24120001 	li	s2,1
bfc00198:	1612089c 	bne	s0,s2,bfc0240c <inst_error>
bfc0019c:	00000000 	nop
bfc001a0:	3c084ccf 	lui	t0,0x4ccf
bfc001a4:	350834d8 	ori	t0,t0,0x34d8
bfc001a8:	3c0992de 	lui	t1,0x92de
bfc001ac:	35296700 	ori	t1,t1,0x6700
bfc001b0:	0109802a 	slt	s0,t0,t1
bfc001b4:	24120000 	li	s2,0
bfc001b8:	16120894 	bne	s0,s2,bfc0240c <inst_error>
bfc001bc:	00000000 	nop
bfc001c0:	3c0852c3 	lui	t0,0x52c3
bfc001c4:	3508ebc9 	ori	t0,t0,0xebc9
bfc001c8:	3c098082 	lui	t1,0x8082
bfc001cc:	352918d2 	ori	t1,t1,0x18d2
bfc001d0:	0109802a 	slt	s0,t0,t1
bfc001d4:	24120000 	li	s2,0
bfc001d8:	1612088c 	bne	s0,s2,bfc0240c <inst_error>
bfc001dc:	00000000 	nop
bfc001e0:	3c08aec3 	lui	t0,0xaec3
bfc001e4:	3508a9c8 	ori	t0,t0,0xa9c8
bfc001e8:	3c0973b0 	lui	t1,0x73b0
bfc001ec:	3529130e 	ori	t1,t1,0x130e
bfc001f0:	0109802a 	slt	s0,t0,t1
bfc001f4:	24120001 	li	s2,1
bfc001f8:	16120884 	bne	s0,s2,bfc0240c <inst_error>
bfc001fc:	00000000 	nop
bfc00200:	3c0820e9 	lui	t0,0x20e9
bfc00204:	3508b1cc 	ori	t0,t0,0xb1cc
bfc00208:	3c090a80 	lui	t1,0xa80
bfc0020c:	3529cbc0 	ori	t1,t1,0xcbc0
bfc00210:	0109802a 	slt	s0,t0,t1
bfc00214:	24120000 	li	s2,0
bfc00218:	1612087c 	bne	s0,s2,bfc0240c <inst_error>
bfc0021c:	00000000 	nop
bfc00220:	3c080ec7 	lui	t0,0xec7
bfc00224:	3508d2d7 	ori	t0,t0,0xd2d7
bfc00228:	3c094934 	lui	t1,0x4934
bfc0022c:	3529b8c8 	ori	t1,t1,0xb8c8
bfc00230:	0109802a 	slt	s0,t0,t1
bfc00234:	24120001 	li	s2,1
bfc00238:	16120874 	bne	s0,s2,bfc0240c <inst_error>
bfc0023c:	00000000 	nop
bfc00240:	3c086051 	lui	t0,0x6051
bfc00244:	350860c8 	ori	t0,t0,0x60c8
bfc00248:	3c096c17 	lui	t1,0x6c17
bfc0024c:	3529f663 	ori	t1,t1,0xf663
bfc00250:	0109802a 	slt	s0,t0,t1
bfc00254:	24120001 	li	s2,1
bfc00258:	1612086c 	bne	s0,s2,bfc0240c <inst_error>
bfc0025c:	00000000 	nop
bfc00260:	3c081acb 	lui	t0,0x1acb
bfc00264:	35089d3e 	ori	t0,t0,0x9d3e
bfc00268:	3c097728 	lui	t1,0x7728
bfc0026c:	3529f204 	ori	t1,t1,0xf204
bfc00270:	0109802a 	slt	s0,t0,t1
bfc00274:	24120001 	li	s2,1
bfc00278:	16120864 	bne	s0,s2,bfc0240c <inst_error>
bfc0027c:	00000000 	nop
bfc00280:	3c083d6b 	lui	t0,0x3d6b
bfc00284:	35086a20 	ori	t0,t0,0x6a20
bfc00288:	3c0966f9 	lui	t1,0x66f9
bfc0028c:	35295638 	ori	t1,t1,0x5638
bfc00290:	0109802a 	slt	s0,t0,t1
bfc00294:	24120001 	li	s2,1
bfc00298:	1612085c 	bne	s0,s2,bfc0240c <inst_error>
bfc0029c:	00000000 	nop
bfc002a0:	3c0883c2 	lui	t0,0x83c2
bfc002a4:	35081248 	ori	t0,t0,0x1248
bfc002a8:	3c09af6a 	lui	t1,0xaf6a
bfc002ac:	3529cac7 	ori	t1,t1,0xcac7
bfc002b0:	0109802a 	slt	s0,t0,t1
bfc002b4:	24120001 	li	s2,1
bfc002b8:	16120854 	bne	s0,s2,bfc0240c <inst_error>
bfc002bc:	00000000 	nop
bfc002c0:	3c08d981 	lui	t0,0xd981
bfc002c4:	3508e54c 	ori	t0,t0,0xe54c
bfc002c8:	3c097c67 	lui	t1,0x7c67
bfc002cc:	3529ed24 	ori	t1,t1,0xed24
bfc002d0:	0109802a 	slt	s0,t0,t1
bfc002d4:	24120001 	li	s2,1
bfc002d8:	1612084c 	bne	s0,s2,bfc0240c <inst_error>
bfc002dc:	00000000 	nop
bfc002e0:	3c0865b7 	lui	t0,0x65b7
bfc002e4:	35083041 	ori	t0,t0,0x3041
bfc002e8:	3c092e2b 	lui	t1,0x2e2b
bfc002ec:	3529051c 	ori	t1,t1,0x51c
bfc002f0:	0109802a 	slt	s0,t0,t1
bfc002f4:	24120000 	li	s2,0
bfc002f8:	16120844 	bne	s0,s2,bfc0240c <inst_error>
bfc002fc:	00000000 	nop
bfc00300:	3c08297e 	lui	t0,0x297e
bfc00304:	3508c62d 	ori	t0,t0,0xc62d
bfc00308:	3c09ceaf 	lui	t1,0xceaf
bfc0030c:	3529021e 	ori	t1,t1,0x21e
bfc00310:	0109802a 	slt	s0,t0,t1
bfc00314:	24120000 	li	s2,0
bfc00318:	1612083c 	bne	s0,s2,bfc0240c <inst_error>
bfc0031c:	00000000 	nop
bfc00320:	3c080c4d 	lui	t0,0xc4d
bfc00324:	35087130 	ori	t0,t0,0x7130
bfc00328:	3c09d3ec 	lui	t1,0xd3ec
bfc0032c:	3529c104 	ori	t1,t1,0xc104
bfc00330:	0109802a 	slt	s0,t0,t1
bfc00334:	24120000 	li	s2,0
bfc00338:	16120834 	bne	s0,s2,bfc0240c <inst_error>
bfc0033c:	00000000 	nop
bfc00340:	3c08d595 	lui	t0,0xd595
bfc00344:	3508d780 	ori	t0,t0,0xd780
bfc00348:	3c096631 	lui	t1,0x6631
bfc0034c:	3529a33c 	ori	t1,t1,0xa33c
bfc00350:	0109802a 	slt	s0,t0,t1
bfc00354:	24120001 	li	s2,1
bfc00358:	1612082c 	bne	s0,s2,bfc0240c <inst_error>
bfc0035c:	00000000 	nop
bfc00360:	3c087bd5 	lui	t0,0x7bd5
bfc00364:	3508de0e 	ori	t0,t0,0xde0e
bfc00368:	3c095c07 	lui	t1,0x5c07
bfc0036c:	3529037c 	ori	t1,t1,0x37c
bfc00370:	0109802a 	slt	s0,t0,t1
bfc00374:	24120000 	li	s2,0
bfc00378:	16120824 	bne	s0,s2,bfc0240c <inst_error>
bfc0037c:	00000000 	nop
bfc00380:	3c0825cd 	lui	t0,0x25cd
bfc00384:	3508b6ac 	ori	t0,t0,0xb6ac
bfc00388:	3c09835c 	lui	t1,0x835c
bfc0038c:	3529bfa0 	ori	t1,t1,0xbfa0
bfc00390:	0109802a 	slt	s0,t0,t1
bfc00394:	24120000 	li	s2,0
bfc00398:	1612081c 	bne	s0,s2,bfc0240c <inst_error>
bfc0039c:	00000000 	nop
bfc003a0:	3c08e43e 	lui	t0,0xe43e
bfc003a4:	35080214 	ori	t0,t0,0x214
bfc003a8:	3c097c05 	lui	t1,0x7c05
bfc003ac:	3529ac8c 	ori	t1,t1,0xac8c
bfc003b0:	0109802a 	slt	s0,t0,t1
bfc003b4:	24120001 	li	s2,1
bfc003b8:	16120814 	bne	s0,s2,bfc0240c <inst_error>
bfc003bc:	00000000 	nop
bfc003c0:	3c089192 	lui	t0,0x9192
bfc003c4:	350831b6 	ori	t0,t0,0x31b6
bfc003c8:	3c09e724 	lui	t1,0xe724
bfc003cc:	35297c80 	ori	t1,t1,0x7c80
bfc003d0:	0109802a 	slt	s0,t0,t1
bfc003d4:	24120001 	li	s2,1
bfc003d8:	1612080c 	bne	s0,s2,bfc0240c <inst_error>
bfc003dc:	00000000 	nop
bfc003e0:	3c08fcad 	lui	t0,0xfcad
bfc003e4:	350865b0 	ori	t0,t0,0x65b0
bfc003e8:	3c09790f 	lui	t1,0x790f
bfc003ec:	35295170 	ori	t1,t1,0x5170
bfc003f0:	0109802a 	slt	s0,t0,t1
bfc003f4:	24120001 	li	s2,1
bfc003f8:	16120804 	bne	s0,s2,bfc0240c <inst_error>
bfc003fc:	00000000 	nop
bfc00400:	3c08fc96 	lui	t0,0xfc96
bfc00404:	35084d68 	ori	t0,t0,0x4d68
bfc00408:	3c09818a 	lui	t1,0x818a
bfc0040c:	3529abc0 	ori	t1,t1,0xabc0
bfc00410:	0109802a 	slt	s0,t0,t1
bfc00414:	24120000 	li	s2,0
bfc00418:	161207fc 	bne	s0,s2,bfc0240c <inst_error>
bfc0041c:	00000000 	nop
bfc00420:	3c08503f 	lui	t0,0x503f
bfc00424:	3508013c 	ori	t0,t0,0x13c
bfc00428:	3c0988ba 	lui	t1,0x88ba
bfc0042c:	3529ffe0 	ori	t1,t1,0xffe0
bfc00430:	0109802a 	slt	s0,t0,t1
bfc00434:	24120000 	li	s2,0
bfc00438:	161207f4 	bne	s0,s2,bfc0240c <inst_error>
bfc0043c:	00000000 	nop
bfc00440:	3c08d6b4 	lui	t0,0xd6b4
bfc00444:	35084670 	ori	t0,t0,0x4670
bfc00448:	3c096c4b 	lui	t1,0x6c4b
bfc0044c:	3529d678 	ori	t1,t1,0xd678
bfc00450:	0109802a 	slt	s0,t0,t1
bfc00454:	24120001 	li	s2,1
bfc00458:	161207ec 	bne	s0,s2,bfc0240c <inst_error>
bfc0045c:	00000000 	nop
bfc00460:	3c089f67 	lui	t0,0x9f67
bfc00464:	35088400 	ori	t0,t0,0x8400
bfc00468:	3c094ed2 	lui	t1,0x4ed2
bfc0046c:	3529db56 	ori	t1,t1,0xdb56
bfc00470:	0109802a 	slt	s0,t0,t1
bfc00474:	24120001 	li	s2,1
bfc00478:	161207e4 	bne	s0,s2,bfc0240c <inst_error>
bfc0047c:	00000000 	nop
bfc00480:	3c08d093 	lui	t0,0xd093
bfc00484:	3508578c 	ori	t0,t0,0x578c
bfc00488:	3c090a4d 	lui	t1,0xa4d
bfc0048c:	3529646f 	ori	t1,t1,0x646f
bfc00490:	0109802a 	slt	s0,t0,t1
bfc00494:	24120001 	li	s2,1
bfc00498:	161207dc 	bne	s0,s2,bfc0240c <inst_error>
bfc0049c:	00000000 	nop
bfc004a0:	3c08a394 	lui	t0,0xa394
bfc004a4:	3508f786 	ori	t0,t0,0xf786
bfc004a8:	3c09e34f 	lui	t1,0xe34f
bfc004ac:	35292554 	ori	t1,t1,0x2554
bfc004b0:	0109802a 	slt	s0,t0,t1
bfc004b4:	24120001 	li	s2,1
bfc004b8:	161207d4 	bne	s0,s2,bfc0240c <inst_error>
bfc004bc:	00000000 	nop
bfc004c0:	3c08ff42 	lui	t0,0xff42
bfc004c4:	35085d4a 	ori	t0,t0,0x5d4a
bfc004c8:	3c092766 	lui	t1,0x2766
bfc004cc:	3529b0af 	ori	t1,t1,0xb0af
bfc004d0:	0109802a 	slt	s0,t0,t1
bfc004d4:	24120001 	li	s2,1
bfc004d8:	161207cc 	bne	s0,s2,bfc0240c <inst_error>
bfc004dc:	00000000 	nop
bfc004e0:	3c08a68a 	lui	t0,0xa68a
bfc004e4:	35084d90 	ori	t0,t0,0x4d90
bfc004e8:	3c0960ee 	lui	t1,0x60ee
bfc004ec:	352958ea 	ori	t1,t1,0x58ea
bfc004f0:	0109802a 	slt	s0,t0,t1
bfc004f4:	24120001 	li	s2,1
bfc004f8:	161207c4 	bne	s0,s2,bfc0240c <inst_error>
bfc004fc:	00000000 	nop
bfc00500:	3c08e36b 	lui	t0,0xe36b
bfc00504:	35087cfe 	ori	t0,t0,0x7cfe
bfc00508:	3c090360 	lui	t1,0x360
bfc0050c:	3529d628 	ori	t1,t1,0xd628
bfc00510:	0109802a 	slt	s0,t0,t1
bfc00514:	24120001 	li	s2,1
bfc00518:	161207bc 	bne	s0,s2,bfc0240c <inst_error>
bfc0051c:	00000000 	nop
bfc00520:	3c08ba75 	lui	t0,0xba75
bfc00524:	35084d28 	ori	t0,t0,0x4d28
bfc00528:	3c09b8b7 	lui	t1,0xb8b7
bfc0052c:	3529eb58 	ori	t1,t1,0xeb58
bfc00530:	0109802a 	slt	s0,t0,t1
bfc00534:	24120000 	li	s2,0
bfc00538:	161207b4 	bne	s0,s2,bfc0240c <inst_error>
bfc0053c:	00000000 	nop
bfc00540:	3c080ad0 	lui	t0,0xad0
bfc00544:	35088228 	ori	t0,t0,0x8228
bfc00548:	3c096e42 	lui	t1,0x6e42
bfc0054c:	35298208 	ori	t1,t1,0x8208
bfc00550:	0109802a 	slt	s0,t0,t1
bfc00554:	24120001 	li	s2,1
bfc00558:	161207ac 	bne	s0,s2,bfc0240c <inst_error>
bfc0055c:	00000000 	nop
bfc00560:	3c080673 	lui	t0,0x673
bfc00564:	35082ec2 	ori	t0,t0,0x2ec2
bfc00568:	3c091b46 	lui	t1,0x1b46
bfc0056c:	35299bc8 	ori	t1,t1,0x9bc8
bfc00570:	0109802a 	slt	s0,t0,t1
bfc00574:	24120001 	li	s2,1
bfc00578:	161207a4 	bne	s0,s2,bfc0240c <inst_error>
bfc0057c:	00000000 	nop
bfc00580:	3c081ed8 	lui	t0,0x1ed8
bfc00584:	35082b9a 	ori	t0,t0,0x2b9a
bfc00588:	3c090d8c 	lui	t1,0xd8c
bfc0058c:	3529d600 	ori	t1,t1,0xd600
bfc00590:	0109802a 	slt	s0,t0,t1
bfc00594:	24120000 	li	s2,0
bfc00598:	1612079c 	bne	s0,s2,bfc0240c <inst_error>
bfc0059c:	00000000 	nop
bfc005a0:	3c082924 	lui	t0,0x2924
bfc005a4:	3508acbc 	ori	t0,t0,0xacbc
bfc005a8:	3c09de73 	lui	t1,0xde73
bfc005ac:	3529a848 	ori	t1,t1,0xa848
bfc005b0:	0109802a 	slt	s0,t0,t1
bfc005b4:	24120000 	li	s2,0
bfc005b8:	16120794 	bne	s0,s2,bfc0240c <inst_error>
bfc005bc:	00000000 	nop
bfc005c0:	3c08a125 	lui	t0,0xa125
bfc005c4:	3508c320 	ori	t0,t0,0xc320
bfc005c8:	3c09947e 	lui	t1,0x947e
bfc005cc:	3529e6ac 	ori	t1,t1,0xe6ac
bfc005d0:	0109802a 	slt	s0,t0,t1
bfc005d4:	24120000 	li	s2,0
bfc005d8:	1612078c 	bne	s0,s2,bfc0240c <inst_error>
bfc005dc:	00000000 	nop
bfc005e0:	3c082320 	lui	t0,0x2320
bfc005e4:	3508dc93 	ori	t0,t0,0xdc93
bfc005e8:	3c09c95f 	lui	t1,0xc95f
bfc005ec:	3529e71a 	ori	t1,t1,0xe71a
bfc005f0:	0109802a 	slt	s0,t0,t1
bfc005f4:	24120000 	li	s2,0
bfc005f8:	16120784 	bne	s0,s2,bfc0240c <inst_error>
bfc005fc:	00000000 	nop
bfc00600:	3c080dca 	lui	t0,0xdca
bfc00604:	35089952 	ori	t0,t0,0x9952
bfc00608:	3c09df86 	lui	t1,0xdf86
bfc0060c:	3529cad8 	ori	t1,t1,0xcad8
bfc00610:	0109802a 	slt	s0,t0,t1
bfc00614:	24120000 	li	s2,0
bfc00618:	1612077c 	bne	s0,s2,bfc0240c <inst_error>
bfc0061c:	00000000 	nop
bfc00620:	3c0806f7 	lui	t0,0x6f7
bfc00624:	3508ae98 	ori	t0,t0,0xae98
bfc00628:	3c09fe9b 	lui	t1,0xfe9b
bfc0062c:	35290978 	ori	t1,t1,0x978
bfc00630:	0109802a 	slt	s0,t0,t1
bfc00634:	24120000 	li	s2,0
bfc00638:	16120774 	bne	s0,s2,bfc0240c <inst_error>
bfc0063c:	00000000 	nop
bfc00640:	3c08f885 	lui	t0,0xf885
bfc00644:	3508d62c 	ori	t0,t0,0xd62c
bfc00648:	3c097105 	lui	t1,0x7105
bfc0064c:	3529be58 	ori	t1,t1,0xbe58
bfc00650:	0109802a 	slt	s0,t0,t1
bfc00654:	24120001 	li	s2,1
bfc00658:	1612076c 	bne	s0,s2,bfc0240c <inst_error>
bfc0065c:	00000000 	nop
bfc00660:	3c08760b 	lui	t0,0x760b
bfc00664:	3508f3d4 	ori	t0,t0,0xf3d4
bfc00668:	3c09406f 	lui	t1,0x406f
bfc0066c:	352998c0 	ori	t1,t1,0x98c0
bfc00670:	0109802a 	slt	s0,t0,t1
bfc00674:	24120000 	li	s2,0
bfc00678:	16120764 	bne	s0,s2,bfc0240c <inst_error>
bfc0067c:	00000000 	nop
bfc00680:	3c08c829 	lui	t0,0xc829
bfc00684:	3508a214 	ori	t0,t0,0xa214
bfc00688:	3c091193 	lui	t1,0x1193
bfc0068c:	35295f60 	ori	t1,t1,0x5f60
bfc00690:	0109802a 	slt	s0,t0,t1
bfc00694:	24120001 	li	s2,1
bfc00698:	1612075c 	bne	s0,s2,bfc0240c <inst_error>
bfc0069c:	00000000 	nop
bfc006a0:	3c08a1e8 	lui	t0,0xa1e8
bfc006a4:	3508edd6 	ori	t0,t0,0xedd6
bfc006a8:	3c09cb2d 	lui	t1,0xcb2d
bfc006ac:	3529d076 	ori	t1,t1,0xd076
bfc006b0:	0109802a 	slt	s0,t0,t1
bfc006b4:	24120001 	li	s2,1
bfc006b8:	16120754 	bne	s0,s2,bfc0240c <inst_error>
bfc006bc:	00000000 	nop
bfc006c0:	3c082c81 	lui	t0,0x2c81
bfc006c4:	3508e7a0 	ori	t0,t0,0xe7a0
bfc006c8:	3c093baf 	lui	t1,0x3baf
bfc006cc:	35296040 	ori	t1,t1,0x6040
bfc006d0:	0109802a 	slt	s0,t0,t1
bfc006d4:	24120001 	li	s2,1
bfc006d8:	1612074c 	bne	s0,s2,bfc0240c <inst_error>
bfc006dc:	00000000 	nop
bfc006e0:	3c08a23a 	lui	t0,0xa23a
bfc006e4:	35084884 	ori	t0,t0,0x4884
bfc006e8:	3c095373 	lui	t1,0x5373
bfc006ec:	3529b790 	ori	t1,t1,0xb790
bfc006f0:	0109802a 	slt	s0,t0,t1
bfc006f4:	24120001 	li	s2,1
bfc006f8:	16120744 	bne	s0,s2,bfc0240c <inst_error>
bfc006fc:	00000000 	nop
bfc00700:	3c08a084 	lui	t0,0xa084
bfc00704:	350885b2 	ori	t0,t0,0x85b2
bfc00708:	3c091099 	lui	t1,0x1099
bfc0070c:	35293f76 	ori	t1,t1,0x3f76
bfc00710:	0109802a 	slt	s0,t0,t1
bfc00714:	24120001 	li	s2,1
bfc00718:	1612073c 	bne	s0,s2,bfc0240c <inst_error>
bfc0071c:	00000000 	nop
bfc00720:	3c085596 	lui	t0,0x5596
bfc00724:	35080928 	ori	t0,t0,0x928
bfc00728:	3c098c4e 	lui	t1,0x8c4e
bfc0072c:	35299484 	ori	t1,t1,0x9484
bfc00730:	0109802a 	slt	s0,t0,t1
bfc00734:	24120000 	li	s2,0
bfc00738:	16120734 	bne	s0,s2,bfc0240c <inst_error>
bfc0073c:	00000000 	nop
bfc00740:	3c08a522 	lui	t0,0xa522
bfc00744:	35081a96 	ori	t0,t0,0x1a96
bfc00748:	3c09ed88 	lui	t1,0xed88
bfc0074c:	3529238c 	ori	t1,t1,0x238c
bfc00750:	0109802a 	slt	s0,t0,t1
bfc00754:	24120001 	li	s2,1
bfc00758:	1612072c 	bne	s0,s2,bfc0240c <inst_error>
bfc0075c:	00000000 	nop
bfc00760:	3c08b145 	lui	t0,0xb145
bfc00764:	35082240 	ori	t0,t0,0x2240
bfc00768:	3c09c7ce 	lui	t1,0xc7ce
bfc0076c:	3529d2ba 	ori	t1,t1,0xd2ba
bfc00770:	0109802a 	slt	s0,t0,t1
bfc00774:	24120001 	li	s2,1
bfc00778:	16120724 	bne	s0,s2,bfc0240c <inst_error>
bfc0077c:	00000000 	nop
bfc00780:	3c08dc85 	lui	t0,0xdc85
bfc00784:	3508d1ac 	ori	t0,t0,0xd1ac
bfc00788:	3c095953 	lui	t1,0x5953
bfc0078c:	3529ac94 	ori	t1,t1,0xac94
bfc00790:	0109802a 	slt	s0,t0,t1
bfc00794:	24120001 	li	s2,1
bfc00798:	1612071c 	bne	s0,s2,bfc0240c <inst_error>
bfc0079c:	00000000 	nop
bfc007a0:	3c0833b1 	lui	t0,0x33b1
bfc007a4:	350859ad 	ori	t0,t0,0x59ad
bfc007a8:	3c094cc5 	lui	t1,0x4cc5
bfc007ac:	3529dcdb 	ori	t1,t1,0xdcdb
bfc007b0:	0109802a 	slt	s0,t0,t1
bfc007b4:	24120001 	li	s2,1
bfc007b8:	16120714 	bne	s0,s2,bfc0240c <inst_error>
bfc007bc:	00000000 	nop
bfc007c0:	3c08e158 	lui	t0,0xe158
bfc007c4:	35085f34 	ori	t0,t0,0x5f34
bfc007c8:	3c09c1ec 	lui	t1,0xc1ec
bfc007cc:	3529f670 	ori	t1,t1,0xf670
bfc007d0:	0109802a 	slt	s0,t0,t1
bfc007d4:	24120000 	li	s2,0
bfc007d8:	1612070c 	bne	s0,s2,bfc0240c <inst_error>
bfc007dc:	00000000 	nop
bfc007e0:	3c089e35 	lui	t0,0x9e35
bfc007e4:	35082cc8 	ori	t0,t0,0x2cc8
bfc007e8:	3c0902ab 	lui	t1,0x2ab
bfc007ec:	35292610 	ori	t1,t1,0x2610
bfc007f0:	0109802a 	slt	s0,t0,t1
bfc007f4:	24120001 	li	s2,1
bfc007f8:	16120704 	bne	s0,s2,bfc0240c <inst_error>
bfc007fc:	00000000 	nop
bfc00800:	3c086486 	lui	t0,0x6486
bfc00804:	3508ed27 	ori	t0,t0,0xed27
bfc00808:	3c09b2ff 	lui	t1,0xb2ff
bfc0080c:	3529a084 	ori	t1,t1,0xa084
bfc00810:	0109802a 	slt	s0,t0,t1
bfc00814:	24120000 	li	s2,0
bfc00818:	161206fc 	bne	s0,s2,bfc0240c <inst_error>
bfc0081c:	00000000 	nop
bfc00820:	3c08e678 	lui	t0,0xe678
bfc00824:	3508b8e2 	ori	t0,t0,0xb8e2
bfc00828:	3c0906f5 	lui	t1,0x6f5
bfc0082c:	3529b6fa 	ori	t1,t1,0xb6fa
bfc00830:	0109802a 	slt	s0,t0,t1
bfc00834:	24120001 	li	s2,1
bfc00838:	161206f4 	bne	s0,s2,bfc0240c <inst_error>
bfc0083c:	00000000 	nop
bfc00840:	3c08c7d6 	lui	t0,0xc7d6
bfc00844:	3508d2c0 	ori	t0,t0,0xd2c0
bfc00848:	3c09aeb8 	lui	t1,0xaeb8
bfc0084c:	3529e646 	ori	t1,t1,0xe646
bfc00850:	0109802a 	slt	s0,t0,t1
bfc00854:	24120000 	li	s2,0
bfc00858:	161206ec 	bne	s0,s2,bfc0240c <inst_error>
bfc0085c:	00000000 	nop
bfc00860:	3c082587 	lui	t0,0x2587
bfc00864:	3508ee4a 	ori	t0,t0,0xee4a
bfc00868:	3c09440d 	lui	t1,0x440d
bfc0086c:	35296700 	ori	t1,t1,0x6700
bfc00870:	0109802a 	slt	s0,t0,t1
bfc00874:	24120001 	li	s2,1
bfc00878:	161206e4 	bne	s0,s2,bfc0240c <inst_error>
bfc0087c:	00000000 	nop
bfc00880:	3c08a6c6 	lui	t0,0xa6c6
bfc00884:	350863f0 	ori	t0,t0,0x63f0
bfc00888:	3c094733 	lui	t1,0x4733
bfc0088c:	35295161 	ori	t1,t1,0x5161
bfc00890:	0109802a 	slt	s0,t0,t1
bfc00894:	24120001 	li	s2,1
bfc00898:	161206dc 	bne	s0,s2,bfc0240c <inst_error>
bfc0089c:	00000000 	nop
bfc008a0:	3c0896d8 	lui	t0,0x96d8
bfc008a4:	350820c2 	ori	t0,t0,0x20c2
bfc008a8:	3c095cca 	lui	t1,0x5cca
bfc008ac:	352954fc 	ori	t1,t1,0x54fc
bfc008b0:	0109802a 	slt	s0,t0,t1
bfc008b4:	24120001 	li	s2,1
bfc008b8:	161206d4 	bne	s0,s2,bfc0240c <inst_error>
bfc008bc:	00000000 	nop
bfc008c0:	3c084574 	lui	t0,0x4574
bfc008c4:	3508fc00 	ori	t0,t0,0xfc00
bfc008c8:	3c09209b 	lui	t1,0x209b
bfc008cc:	3529e830 	ori	t1,t1,0xe830
bfc008d0:	0109802a 	slt	s0,t0,t1
bfc008d4:	24120000 	li	s2,0
bfc008d8:	161206cc 	bne	s0,s2,bfc0240c <inst_error>
bfc008dc:	00000000 	nop
bfc008e0:	3c0896ca 	lui	t0,0x96ca
bfc008e4:	35080400 	ori	t0,t0,0x400
bfc008e8:	3c09d224 	lui	t1,0xd224
bfc008ec:	35292ebe 	ori	t1,t1,0x2ebe
bfc008f0:	0109802a 	slt	s0,t0,t1
bfc008f4:	24120001 	li	s2,1
bfc008f8:	161206c4 	bne	s0,s2,bfc0240c <inst_error>
bfc008fc:	00000000 	nop
bfc00900:	3c08aba9 	lui	t0,0xaba9
bfc00904:	35089300 	ori	t0,t0,0x9300
bfc00908:	3c09c27d 	lui	t1,0xc27d
bfc0090c:	3529e6e0 	ori	t1,t1,0xe6e0
bfc00910:	0109802a 	slt	s0,t0,t1
bfc00914:	24120001 	li	s2,1
bfc00918:	161206bc 	bne	s0,s2,bfc0240c <inst_error>
bfc0091c:	00000000 	nop
bfc00920:	3c080df0 	lui	t0,0xdf0
bfc00924:	35083786 	ori	t0,t0,0x3786
bfc00928:	3c09c10c 	lui	t1,0xc10c
bfc0092c:	352942c0 	ori	t1,t1,0x42c0
bfc00930:	0109802a 	slt	s0,t0,t1
bfc00934:	24120000 	li	s2,0
bfc00938:	161206b4 	bne	s0,s2,bfc0240c <inst_error>
bfc0093c:	00000000 	nop
bfc00940:	3c084c86 	lui	t0,0x4c86
bfc00944:	35087110 	ori	t0,t0,0x7110
bfc00948:	3c09915f 	lui	t1,0x915f
bfc0094c:	35299315 	ori	t1,t1,0x9315
bfc00950:	0109802a 	slt	s0,t0,t1
bfc00954:	24120000 	li	s2,0
bfc00958:	161206ac 	bne	s0,s2,bfc0240c <inst_error>
bfc0095c:	00000000 	nop
bfc00960:	3c083007 	lui	t0,0x3007
bfc00964:	35086990 	ori	t0,t0,0x6990
bfc00968:	3c09aed9 	lui	t1,0xaed9
bfc0096c:	3529afdf 	ori	t1,t1,0xafdf
bfc00970:	0109802a 	slt	s0,t0,t1
bfc00974:	24120000 	li	s2,0
bfc00978:	161206a4 	bne	s0,s2,bfc0240c <inst_error>
bfc0097c:	00000000 	nop
bfc00980:	3c08aeca 	lui	t0,0xaeca
bfc00984:	35086a78 	ori	t0,t0,0x6a78
bfc00988:	3c09299d 	lui	t1,0x299d
bfc0098c:	3529e554 	ori	t1,t1,0xe554
bfc00990:	0109802a 	slt	s0,t0,t1
bfc00994:	24120001 	li	s2,1
bfc00998:	1612069c 	bne	s0,s2,bfc0240c <inst_error>
bfc0099c:	00000000 	nop
bfc009a0:	3c08a368 	lui	t0,0xa368
bfc009a4:	35081d24 	ori	t0,t0,0x1d24
bfc009a8:	3c09588a 	lui	t1,0x588a
bfc009ac:	3529b288 	ori	t1,t1,0xb288
bfc009b0:	0109802a 	slt	s0,t0,t1
bfc009b4:	24120001 	li	s2,1
bfc009b8:	16120694 	bne	s0,s2,bfc0240c <inst_error>
bfc009bc:	00000000 	nop
bfc009c0:	3c085aa1 	lui	t0,0x5aa1
bfc009c4:	35088828 	ori	t0,t0,0x8828
bfc009c8:	3c09d1a3 	lui	t1,0xd1a3
bfc009cc:	352932e4 	ori	t1,t1,0x32e4
bfc009d0:	0109802a 	slt	s0,t0,t1
bfc009d4:	24120000 	li	s2,0
bfc009d8:	1612068c 	bne	s0,s2,bfc0240c <inst_error>
bfc009dc:	00000000 	nop
bfc009e0:	3c081127 	lui	t0,0x1127
bfc009e4:	35086b80 	ori	t0,t0,0x6b80
bfc009e8:	3c09a20b 	lui	t1,0xa20b
bfc009ec:	3529bc40 	ori	t1,t1,0xbc40
bfc009f0:	0109802a 	slt	s0,t0,t1
bfc009f4:	24120000 	li	s2,0
bfc009f8:	16120684 	bne	s0,s2,bfc0240c <inst_error>
bfc009fc:	00000000 	nop
bfc00a00:	3c08e8fb 	lui	t0,0xe8fb
bfc00a04:	3508cac0 	ori	t0,t0,0xcac0
bfc00a08:	3c0950da 	lui	t1,0x50da
bfc00a0c:	3529443b 	ori	t1,t1,0x443b
bfc00a10:	0109802a 	slt	s0,t0,t1
bfc00a14:	24120001 	li	s2,1
bfc00a18:	1612067c 	bne	s0,s2,bfc0240c <inst_error>
bfc00a1c:	00000000 	nop
bfc00a20:	3c08e2c9 	lui	t0,0xe2c9
bfc00a24:	3508a0fb 	ori	t0,t0,0xa0fb
bfc00a28:	3c090008 	lui	t1,0x8
bfc00a2c:	3529e36a 	ori	t1,t1,0xe36a
bfc00a30:	0109802a 	slt	s0,t0,t1
bfc00a34:	24120001 	li	s2,1
bfc00a38:	16120674 	bne	s0,s2,bfc0240c <inst_error>
bfc00a3c:	00000000 	nop
bfc00a40:	3c08c1b5 	lui	t0,0xc1b5
bfc00a44:	350869ca 	ori	t0,t0,0x69ca
bfc00a48:	3c093064 	lui	t1,0x3064
bfc00a4c:	352962de 	ori	t1,t1,0x62de
bfc00a50:	0109802a 	slt	s0,t0,t1
bfc00a54:	24120001 	li	s2,1
bfc00a58:	1612066c 	bne	s0,s2,bfc0240c <inst_error>
bfc00a5c:	00000000 	nop
bfc00a60:	3c081012 	lui	t0,0x1012
bfc00a64:	35087040 	ori	t0,t0,0x7040
bfc00a68:	3c093cee 	lui	t1,0x3cee
bfc00a6c:	35298416 	ori	t1,t1,0x8416
bfc00a70:	0109802a 	slt	s0,t0,t1
bfc00a74:	24120001 	li	s2,1
bfc00a78:	16120664 	bne	s0,s2,bfc0240c <inst_error>
bfc00a7c:	00000000 	nop
bfc00a80:	3c08e53c 	lui	t0,0xe53c
bfc00a84:	3508b480 	ori	t0,t0,0xb480
bfc00a88:	3c099441 	lui	t1,0x9441
bfc00a8c:	352962f0 	ori	t1,t1,0x62f0
bfc00a90:	0109802a 	slt	s0,t0,t1
bfc00a94:	24120000 	li	s2,0
bfc00a98:	1612065c 	bne	s0,s2,bfc0240c <inst_error>
bfc00a9c:	00000000 	nop
bfc00aa0:	3c08cb1b 	lui	t0,0xcb1b
bfc00aa4:	35088640 	ori	t0,t0,0x8640
bfc00aa8:	3c09a98a 	lui	t1,0xa98a
bfc00aac:	352966a0 	ori	t1,t1,0x66a0
bfc00ab0:	0109802a 	slt	s0,t0,t1
bfc00ab4:	24120000 	li	s2,0
bfc00ab8:	16120654 	bne	s0,s2,bfc0240c <inst_error>
bfc00abc:	00000000 	nop
bfc00ac0:	3c082ff3 	lui	t0,0x2ff3
bfc00ac4:	3508fea0 	ori	t0,t0,0xfea0
bfc00ac8:	3c091b74 	lui	t1,0x1b74
bfc00acc:	352971d0 	ori	t1,t1,0x71d0
bfc00ad0:	0109802a 	slt	s0,t0,t1
bfc00ad4:	24120000 	li	s2,0
bfc00ad8:	1612064c 	bne	s0,s2,bfc0240c <inst_error>
bfc00adc:	00000000 	nop
bfc00ae0:	3c08ccf8 	lui	t0,0xccf8
bfc00ae4:	3508c3a0 	ori	t0,t0,0xc3a0
bfc00ae8:	3c0996bf 	lui	t1,0x96bf
bfc00aec:	3529b940 	ori	t1,t1,0xb940
bfc00af0:	0109802a 	slt	s0,t0,t1
bfc00af4:	24120000 	li	s2,0
bfc00af8:	16120644 	bne	s0,s2,bfc0240c <inst_error>
bfc00afc:	00000000 	nop
bfc00b00:	3c08765a 	lui	t0,0x765a
bfc00b04:	35082e8c 	ori	t0,t0,0x2e8c
bfc00b08:	3c093793 	lui	t1,0x3793
bfc00b0c:	35291377 	ori	t1,t1,0x1377
bfc00b10:	0109802a 	slt	s0,t0,t1
bfc00b14:	24120000 	li	s2,0
bfc00b18:	1612063c 	bne	s0,s2,bfc0240c <inst_error>
bfc00b1c:	00000000 	nop
bfc00b20:	3c08895d 	lui	t0,0x895d
bfc00b24:	3508db1e 	ori	t0,t0,0xdb1e
bfc00b28:	3c099361 	lui	t1,0x9361
bfc00b2c:	35294958 	ori	t1,t1,0x4958
bfc00b30:	0109802a 	slt	s0,t0,t1
bfc00b34:	24120001 	li	s2,1
bfc00b38:	16120634 	bne	s0,s2,bfc0240c <inst_error>
bfc00b3c:	00000000 	nop
bfc00b40:	3c08ca9c 	lui	t0,0xca9c
bfc00b44:	35089518 	ori	t0,t0,0x9518
bfc00b48:	3c098a17 	lui	t1,0x8a17
bfc00b4c:	35296c10 	ori	t1,t1,0x6c10
bfc00b50:	0109802a 	slt	s0,t0,t1
bfc00b54:	24120000 	li	s2,0
bfc00b58:	1612062c 	bne	s0,s2,bfc0240c <inst_error>
bfc00b5c:	00000000 	nop
bfc00b60:	3c089e5c 	lui	t0,0x9e5c
bfc00b64:	35087d25 	ori	t0,t0,0x7d25
bfc00b68:	3c093e41 	lui	t1,0x3e41
bfc00b6c:	3529fbde 	ori	t1,t1,0xfbde
bfc00b70:	0109802a 	slt	s0,t0,t1
bfc00b74:	24120001 	li	s2,1
bfc00b78:	16120624 	bne	s0,s2,bfc0240c <inst_error>
bfc00b7c:	00000000 	nop
bfc00b80:	3c080f07 	lui	t0,0xf07
bfc00b84:	35084fbd 	ori	t0,t0,0x4fbd
bfc00b88:	3c09f26e 	lui	t1,0xf26e
bfc00b8c:	3529245c 	ori	t1,t1,0x245c
bfc00b90:	0109802a 	slt	s0,t0,t1
bfc00b94:	24120000 	li	s2,0
bfc00b98:	1612061c 	bne	s0,s2,bfc0240c <inst_error>
bfc00b9c:	00000000 	nop
bfc00ba0:	3c084621 	lui	t0,0x4621
bfc00ba4:	3508dfce 	ori	t0,t0,0xdfce
bfc00ba8:	3c0944fc 	lui	t1,0x44fc
bfc00bac:	35293afd 	ori	t1,t1,0x3afd
bfc00bb0:	0109802a 	slt	s0,t0,t1
bfc00bb4:	24120000 	li	s2,0
bfc00bb8:	16120614 	bne	s0,s2,bfc0240c <inst_error>
bfc00bbc:	00000000 	nop
bfc00bc0:	3c08e701 	lui	t0,0xe701
bfc00bc4:	35082bc0 	ori	t0,t0,0x2bc0
bfc00bc8:	3c09b8f9 	lui	t1,0xb8f9
bfc00bcc:	352962a4 	ori	t1,t1,0x62a4
bfc00bd0:	0109802a 	slt	s0,t0,t1
bfc00bd4:	24120000 	li	s2,0
bfc00bd8:	1612060c 	bne	s0,s2,bfc0240c <inst_error>
bfc00bdc:	00000000 	nop
bfc00be0:	3c083e3b 	lui	t0,0x3e3b
bfc00be4:	350884a0 	ori	t0,t0,0x84a0
bfc00be8:	3c0993e3 	lui	t1,0x93e3
bfc00bec:	3529b270 	ori	t1,t1,0xb270
bfc00bf0:	0109802a 	slt	s0,t0,t1
bfc00bf4:	24120000 	li	s2,0
bfc00bf8:	16120604 	bne	s0,s2,bfc0240c <inst_error>
bfc00bfc:	00000000 	nop
bfc00c00:	3c089df9 	lui	t0,0x9df9
bfc00c04:	35081a88 	ori	t0,t0,0x1a88
bfc00c08:	3c09729e 	lui	t1,0x729e
bfc00c0c:	352937b1 	ori	t1,t1,0x37b1
bfc00c10:	0109802a 	slt	s0,t0,t1
bfc00c14:	24120001 	li	s2,1
bfc00c18:	161205fc 	bne	s0,s2,bfc0240c <inst_error>
bfc00c1c:	00000000 	nop
bfc00c20:	3c088eb5 	lui	t0,0x8eb5
bfc00c24:	35082124 	ori	t0,t0,0x2124
bfc00c28:	3c094939 	lui	t1,0x4939
bfc00c2c:	35299740 	ori	t1,t1,0x9740
bfc00c30:	0109802a 	slt	s0,t0,t1
bfc00c34:	24120001 	li	s2,1
bfc00c38:	161205f4 	bne	s0,s2,bfc0240c <inst_error>
bfc00c3c:	00000000 	nop
bfc00c40:	3c08b647 	lui	t0,0xb647
bfc00c44:	35089a56 	ori	t0,t0,0x9a56
bfc00c48:	3c09df73 	lui	t1,0xdf73
bfc00c4c:	35295dbc 	ori	t1,t1,0x5dbc
bfc00c50:	0109802a 	slt	s0,t0,t1
bfc00c54:	24120001 	li	s2,1
bfc00c58:	161205ec 	bne	s0,s2,bfc0240c <inst_error>
bfc00c5c:	00000000 	nop
bfc00c60:	3c086286 	lui	t0,0x6286
bfc00c64:	3508487c 	ori	t0,t0,0x487c
bfc00c68:	3c099ab3 	lui	t1,0x9ab3
bfc00c6c:	3529645c 	ori	t1,t1,0x645c
bfc00c70:	0109802a 	slt	s0,t0,t1
bfc00c74:	24120000 	li	s2,0
bfc00c78:	161205e4 	bne	s0,s2,bfc0240c <inst_error>
bfc00c7c:	00000000 	nop
bfc00c80:	3c082406 	lui	t0,0x2406
bfc00c84:	3508dc34 	ori	t0,t0,0xdc34
bfc00c88:	3c09147e 	lui	t1,0x147e
bfc00c8c:	352956ac 	ori	t1,t1,0x56ac
bfc00c90:	0109802a 	slt	s0,t0,t1
bfc00c94:	24120000 	li	s2,0
bfc00c98:	161205dc 	bne	s0,s2,bfc0240c <inst_error>
bfc00c9c:	00000000 	nop
bfc00ca0:	3c08bdb9 	lui	t0,0xbdb9
bfc00ca4:	3508b39e 	ori	t0,t0,0xb39e
bfc00ca8:	3c098e29 	lui	t1,0x8e29
bfc00cac:	3529c9e8 	ori	t1,t1,0xc9e8
bfc00cb0:	0109802a 	slt	s0,t0,t1
bfc00cb4:	24120000 	li	s2,0
bfc00cb8:	161205d4 	bne	s0,s2,bfc0240c <inst_error>
bfc00cbc:	00000000 	nop
bfc00cc0:	3c08f187 	lui	t0,0xf187
bfc00cc4:	35086f02 	ori	t0,t0,0x6f02
bfc00cc8:	3c09f488 	lui	t1,0xf488
bfc00ccc:	35290055 	ori	t1,t1,0x55
bfc00cd0:	0109802a 	slt	s0,t0,t1
bfc00cd4:	24120001 	li	s2,1
bfc00cd8:	161205cc 	bne	s0,s2,bfc0240c <inst_error>
bfc00cdc:	00000000 	nop
bfc00ce0:	3c08efcf 	lui	t0,0xefcf
bfc00ce4:	350896ae 	ori	t0,t0,0x96ae
bfc00ce8:	3c09b81e 	lui	t1,0xb81e
bfc00cec:	35296f00 	ori	t1,t1,0x6f00
bfc00cf0:	0109802a 	slt	s0,t0,t1
bfc00cf4:	24120000 	li	s2,0
bfc00cf8:	161205c4 	bne	s0,s2,bfc0240c <inst_error>
bfc00cfc:	00000000 	nop
bfc00d00:	3c08c529 	lui	t0,0xc529
bfc00d04:	3508e670 	ori	t0,t0,0xe670
bfc00d08:	3c09caf0 	lui	t1,0xcaf0
bfc00d0c:	35294ee0 	ori	t1,t1,0x4ee0
bfc00d10:	0109802a 	slt	s0,t0,t1
bfc00d14:	24120001 	li	s2,1
bfc00d18:	161205bc 	bne	s0,s2,bfc0240c <inst_error>
bfc00d1c:	00000000 	nop
bfc00d20:	3c083517 	lui	t0,0x3517
bfc00d24:	3508d030 	ori	t0,t0,0xd030
bfc00d28:	3c09e100 	lui	t1,0xe100
bfc00d2c:	35294739 	ori	t1,t1,0x4739
bfc00d30:	0109802a 	slt	s0,t0,t1
bfc00d34:	24120000 	li	s2,0
bfc00d38:	161205b4 	bne	s0,s2,bfc0240c <inst_error>
bfc00d3c:	00000000 	nop
bfc00d40:	3c084979 	lui	t0,0x4979
bfc00d44:	3508e060 	ori	t0,t0,0xe060
bfc00d48:	3c09668b 	lui	t1,0x668b
bfc00d4c:	3529872e 	ori	t1,t1,0x872e
bfc00d50:	0109802a 	slt	s0,t0,t1
bfc00d54:	24120001 	li	s2,1
bfc00d58:	161205ac 	bne	s0,s2,bfc0240c <inst_error>
bfc00d5c:	00000000 	nop
bfc00d60:	3c08ed37 	lui	t0,0xed37
bfc00d64:	35081600 	ori	t0,t0,0x1600
bfc00d68:	3c0996e8 	lui	t1,0x96e8
bfc00d6c:	35290d00 	ori	t1,t1,0xd00
bfc00d70:	0109802a 	slt	s0,t0,t1
bfc00d74:	24120000 	li	s2,0
bfc00d78:	161205a4 	bne	s0,s2,bfc0240c <inst_error>
bfc00d7c:	00000000 	nop
bfc00d80:	3c08b364 	lui	t0,0xb364
bfc00d84:	35080b21 	ori	t0,t0,0xb21
bfc00d88:	3c096e21 	lui	t1,0x6e21
bfc00d8c:	352975e2 	ori	t1,t1,0x75e2
bfc00d90:	0109802a 	slt	s0,t0,t1
bfc00d94:	24120001 	li	s2,1
bfc00d98:	1612059c 	bne	s0,s2,bfc0240c <inst_error>
bfc00d9c:	00000000 	nop
bfc00da0:	3c08b29e 	lui	t0,0xb29e
bfc00da4:	35081110 	ori	t0,t0,0x1110
bfc00da8:	3c09368e 	lui	t1,0x368e
bfc00dac:	35291ab0 	ori	t1,t1,0x1ab0
bfc00db0:	0109802a 	slt	s0,t0,t1
bfc00db4:	24120001 	li	s2,1
bfc00db8:	16120594 	bne	s0,s2,bfc0240c <inst_error>
bfc00dbc:	00000000 	nop
bfc00dc0:	3c08bbd7 	lui	t0,0xbbd7
bfc00dc4:	35084350 	ori	t0,t0,0x4350
bfc00dc8:	3c09a40c 	lui	t1,0xa40c
bfc00dcc:	3529a0a4 	ori	t1,t1,0xa0a4
bfc00dd0:	0109802a 	slt	s0,t0,t1
bfc00dd4:	24120000 	li	s2,0
bfc00dd8:	1612058c 	bne	s0,s2,bfc0240c <inst_error>
bfc00ddc:	00000000 	nop
bfc00de0:	3c08d248 	lui	t0,0xd248
bfc00de4:	35085274 	ori	t0,t0,0x5274
bfc00de8:	3c099ca5 	lui	t1,0x9ca5
bfc00dec:	352933f8 	ori	t1,t1,0x33f8
bfc00df0:	0109802a 	slt	s0,t0,t1
bfc00df4:	24120000 	li	s2,0
bfc00df8:	16120584 	bne	s0,s2,bfc0240c <inst_error>
bfc00dfc:	00000000 	nop
bfc00e00:	3c086653 	lui	t0,0x6653
bfc00e04:	3508b8a4 	ori	t0,t0,0xb8a4
bfc00e08:	3c09e0c9 	lui	t1,0xe0c9
bfc00e0c:	35292940 	ori	t1,t1,0x2940
bfc00e10:	0109802a 	slt	s0,t0,t1
bfc00e14:	24120000 	li	s2,0
bfc00e18:	1612057c 	bne	s0,s2,bfc0240c <inst_error>
bfc00e1c:	00000000 	nop
bfc00e20:	3c08bb69 	lui	t0,0xbb69
bfc00e24:	350804b8 	ori	t0,t0,0x4b8
bfc00e28:	3c09322e 	lui	t1,0x322e
bfc00e2c:	3529b6ec 	ori	t1,t1,0xb6ec
bfc00e30:	0109802a 	slt	s0,t0,t1
bfc00e34:	24120001 	li	s2,1
bfc00e38:	16120574 	bne	s0,s2,bfc0240c <inst_error>
bfc00e3c:	00000000 	nop
bfc00e40:	3c086fdf 	lui	t0,0x6fdf
bfc00e44:	35086448 	ori	t0,t0,0x6448
bfc00e48:	3c0984e7 	lui	t1,0x84e7
bfc00e4c:	35296bcc 	ori	t1,t1,0x6bcc
bfc00e50:	0109802a 	slt	s0,t0,t1
bfc00e54:	24120000 	li	s2,0
bfc00e58:	1612056c 	bne	s0,s2,bfc0240c <inst_error>
bfc00e5c:	00000000 	nop
bfc00e60:	3c089e29 	lui	t0,0x9e29
bfc00e64:	350827d8 	ori	t0,t0,0x27d8
bfc00e68:	3c09ca6b 	lui	t1,0xca6b
bfc00e6c:	35293d60 	ori	t1,t1,0x3d60
bfc00e70:	0109802a 	slt	s0,t0,t1
bfc00e74:	24120001 	li	s2,1
bfc00e78:	16120564 	bne	s0,s2,bfc0240c <inst_error>
bfc00e7c:	00000000 	nop
bfc00e80:	3c08e7fa 	lui	t0,0xe7fa
bfc00e84:	35081ee5 	ori	t0,t0,0x1ee5
bfc00e88:	3c096b6f 	lui	t1,0x6b6f
bfc00e8c:	3529b480 	ori	t1,t1,0xb480
bfc00e90:	0109802a 	slt	s0,t0,t1
bfc00e94:	24120001 	li	s2,1
bfc00e98:	1612055c 	bne	s0,s2,bfc0240c <inst_error>
bfc00e9c:	00000000 	nop
bfc00ea0:	3c088f63 	lui	t0,0x8f63
bfc00ea4:	35089960 	ori	t0,t0,0x9960
bfc00ea8:	3c09b465 	lui	t1,0xb465
bfc00eac:	3529b9e6 	ori	t1,t1,0xb9e6
bfc00eb0:	0109802a 	slt	s0,t0,t1
bfc00eb4:	24120001 	li	s2,1
bfc00eb8:	16120554 	bne	s0,s2,bfc0240c <inst_error>
bfc00ebc:	00000000 	nop
bfc00ec0:	3c08091a 	lui	t0,0x91a
bfc00ec4:	3508a721 	ori	t0,t0,0xa721
bfc00ec8:	3c09667a 	lui	t1,0x667a
bfc00ecc:	35296700 	ori	t1,t1,0x6700
bfc00ed0:	0109802a 	slt	s0,t0,t1
bfc00ed4:	24120001 	li	s2,1
bfc00ed8:	1612054c 	bne	s0,s2,bfc0240c <inst_error>
bfc00edc:	00000000 	nop
bfc00ee0:	3c089d14 	lui	t0,0x9d14
bfc00ee4:	35080b98 	ori	t0,t0,0xb98
bfc00ee8:	3c09a794 	lui	t1,0xa794
bfc00eec:	35290a60 	ori	t1,t1,0xa60
bfc00ef0:	0109802a 	slt	s0,t0,t1
bfc00ef4:	24120001 	li	s2,1
bfc00ef8:	16120544 	bne	s0,s2,bfc0240c <inst_error>
bfc00efc:	00000000 	nop
bfc00f00:	3c0814cb 	lui	t0,0x14cb
bfc00f04:	35084150 	ori	t0,t0,0x4150
bfc00f08:	3c099bda 	lui	t1,0x9bda
bfc00f0c:	352914b0 	ori	t1,t1,0x14b0
bfc00f10:	0109802a 	slt	s0,t0,t1
bfc00f14:	24120000 	li	s2,0
bfc00f18:	1612053c 	bne	s0,s2,bfc0240c <inst_error>
bfc00f1c:	00000000 	nop
bfc00f20:	3c08e377 	lui	t0,0xe377
bfc00f24:	3508e96a 	ori	t0,t0,0xe96a
bfc00f28:	3c09b4f6 	lui	t1,0xb4f6
bfc00f2c:	35294838 	ori	t1,t1,0x4838
bfc00f30:	0109802a 	slt	s0,t0,t1
bfc00f34:	24120000 	li	s2,0
bfc00f38:	16120534 	bne	s0,s2,bfc0240c <inst_error>
bfc00f3c:	00000000 	nop
bfc00f40:	3c08bf24 	lui	t0,0xbf24
bfc00f44:	35084bb4 	ori	t0,t0,0x4bb4
bfc00f48:	3c090834 	lui	t1,0x834
bfc00f4c:	3529de96 	ori	t1,t1,0xde96
bfc00f50:	0109802a 	slt	s0,t0,t1
bfc00f54:	24120001 	li	s2,1
bfc00f58:	1612052c 	bne	s0,s2,bfc0240c <inst_error>
bfc00f5c:	00000000 	nop
bfc00f60:	3c083bf4 	lui	t0,0x3bf4
bfc00f64:	350856f4 	ori	t0,t0,0x56f4
bfc00f68:	3c09c064 	lui	t1,0xc064
bfc00f6c:	35293a00 	ori	t1,t1,0x3a00
bfc00f70:	0109802a 	slt	s0,t0,t1
bfc00f74:	24120000 	li	s2,0
bfc00f78:	16120524 	bne	s0,s2,bfc0240c <inst_error>
bfc00f7c:	00000000 	nop
bfc00f80:	3c0866b1 	lui	t0,0x66b1
bfc00f84:	3508ca0c 	ori	t0,t0,0xca0c
bfc00f88:	3c09a5ab 	lui	t1,0xa5ab
bfc00f8c:	35290faf 	ori	t1,t1,0xfaf
bfc00f90:	0109802a 	slt	s0,t0,t1
bfc00f94:	24120000 	li	s2,0
bfc00f98:	1612051c 	bne	s0,s2,bfc0240c <inst_error>
bfc00f9c:	00000000 	nop
bfc00fa0:	3c08134b 	lui	t0,0x134b
bfc00fa4:	35080b25 	ori	t0,t0,0xb25
bfc00fa8:	3c09b1c5 	lui	t1,0xb1c5
bfc00fac:	3529f9e4 	ori	t1,t1,0xf9e4
bfc00fb0:	0109802a 	slt	s0,t0,t1
bfc00fb4:	24120000 	li	s2,0
bfc00fb8:	16120514 	bne	s0,s2,bfc0240c <inst_error>
bfc00fbc:	00000000 	nop
bfc00fc0:	3c084479 	lui	t0,0x4479
bfc00fc4:	3508c340 	ori	t0,t0,0xc340
bfc00fc8:	3c097530 	lui	t1,0x7530
bfc00fcc:	35291710 	ori	t1,t1,0x1710
bfc00fd0:	0109802a 	slt	s0,t0,t1
bfc00fd4:	24120001 	li	s2,1
bfc00fd8:	1612050c 	bne	s0,s2,bfc0240c <inst_error>
bfc00fdc:	00000000 	nop
bfc00fe0:	3c08be62 	lui	t0,0xbe62
bfc00fe4:	3508d866 	ori	t0,t0,0xd866
bfc00fe8:	3c094737 	lui	t1,0x4737
bfc00fec:	35299a7c 	ori	t1,t1,0x9a7c
bfc00ff0:	0109802a 	slt	s0,t0,t1
bfc00ff4:	24120001 	li	s2,1
bfc00ff8:	16120504 	bne	s0,s2,bfc0240c <inst_error>
bfc00ffc:	00000000 	nop
bfc01000:	3c08e820 	lui	t0,0xe820
bfc01004:	3508c438 	ori	t0,t0,0xc438
bfc01008:	3c09ccb4 	lui	t1,0xccb4
bfc0100c:	3529c338 	ori	t1,t1,0xc338
bfc01010:	0109802a 	slt	s0,t0,t1
bfc01014:	24120000 	li	s2,0
bfc01018:	161204fc 	bne	s0,s2,bfc0240c <inst_error>
bfc0101c:	00000000 	nop
bfc01020:	3c08db00 	lui	t0,0xdb00
bfc01024:	3508195e 	ori	t0,t0,0x195e
bfc01028:	3c0951b5 	lui	t1,0x51b5
bfc0102c:	35297d4d 	ori	t1,t1,0x7d4d
bfc01030:	0109802a 	slt	s0,t0,t1
bfc01034:	24120001 	li	s2,1
bfc01038:	161204f4 	bne	s0,s2,bfc0240c <inst_error>
bfc0103c:	00000000 	nop
bfc01040:	3c0884ef 	lui	t0,0x84ef
bfc01044:	3508d570 	ori	t0,t0,0xd570
bfc01048:	3c096af0 	lui	t1,0x6af0
bfc0104c:	3529dece 	ori	t1,t1,0xdece
bfc01050:	0109802a 	slt	s0,t0,t1
bfc01054:	24120001 	li	s2,1
bfc01058:	161204ec 	bne	s0,s2,bfc0240c <inst_error>
bfc0105c:	00000000 	nop
bfc01060:	3c083a3f 	lui	t0,0x3a3f
bfc01064:	350832d4 	ori	t0,t0,0x32d4
bfc01068:	3c0900dc 	lui	t1,0xdc
bfc0106c:	3529d8f0 	ori	t1,t1,0xd8f0
bfc01070:	0109802a 	slt	s0,t0,t1
bfc01074:	24120000 	li	s2,0
bfc01078:	161204e4 	bne	s0,s2,bfc0240c <inst_error>
bfc0107c:	00000000 	nop
bfc01080:	3c0847cf 	lui	t0,0x47cf
bfc01084:	35088c4a 	ori	t0,t0,0x8c4a
bfc01088:	3c09b8f4 	lui	t1,0xb8f4
bfc0108c:	3529edcc 	ori	t1,t1,0xedcc
bfc01090:	0109802a 	slt	s0,t0,t1
bfc01094:	24120000 	li	s2,0
bfc01098:	161204dc 	bne	s0,s2,bfc0240c <inst_error>
bfc0109c:	00000000 	nop
bfc010a0:	3c0821c8 	lui	t0,0x21c8
bfc010a4:	3508a180 	ori	t0,t0,0xa180
bfc010a8:	3c092361 	lui	t1,0x2361
bfc010ac:	35297d20 	ori	t1,t1,0x7d20
bfc010b0:	0109802a 	slt	s0,t0,t1
bfc010b4:	24120001 	li	s2,1
bfc010b8:	161204d4 	bne	s0,s2,bfc0240c <inst_error>
bfc010bc:	00000000 	nop
bfc010c0:	3c085c4f 	lui	t0,0x5c4f
bfc010c4:	350878a0 	ori	t0,t0,0x78a0
bfc010c8:	3c090554 	lui	t1,0x554
bfc010cc:	35293400 	ori	t1,t1,0x3400
bfc010d0:	0109802a 	slt	s0,t0,t1
bfc010d4:	24120000 	li	s2,0
bfc010d8:	161204cc 	bne	s0,s2,bfc0240c <inst_error>
bfc010dc:	00000000 	nop
bfc010e0:	3c0817ee 	lui	t0,0x17ee
bfc010e4:	35085920 	ori	t0,t0,0x5920
bfc010e8:	3c097506 	lui	t1,0x7506
bfc010ec:	352996d6 	ori	t1,t1,0x96d6
bfc010f0:	0109802a 	slt	s0,t0,t1
bfc010f4:	24120001 	li	s2,1
bfc010f8:	161204c4 	bne	s0,s2,bfc0240c <inst_error>
bfc010fc:	00000000 	nop
bfc01100:	3c08c599 	lui	t0,0xc599
bfc01104:	3508ecd0 	ori	t0,t0,0xecd0
bfc01108:	3c092d21 	lui	t1,0x2d21
bfc0110c:	352969a0 	ori	t1,t1,0x69a0
bfc01110:	0109802a 	slt	s0,t0,t1
bfc01114:	24120001 	li	s2,1
bfc01118:	161204bc 	bne	s0,s2,bfc0240c <inst_error>
bfc0111c:	00000000 	nop
bfc01120:	3c0850c7 	lui	t0,0x50c7
bfc01124:	350812b8 	ori	t0,t0,0x12b8
bfc01128:	3c09b893 	lui	t1,0xb893
bfc0112c:	352900b8 	ori	t1,t1,0xb8
bfc01130:	0109802a 	slt	s0,t0,t1
bfc01134:	24120000 	li	s2,0
bfc01138:	161204b4 	bne	s0,s2,bfc0240c <inst_error>
bfc0113c:	00000000 	nop
bfc01140:	3c08dd0c 	lui	t0,0xdd0c
bfc01144:	35085ad8 	ori	t0,t0,0x5ad8
bfc01148:	3c09d7f2 	lui	t1,0xd7f2
bfc0114c:	35292e80 	ori	t1,t1,0x2e80
bfc01150:	0109802a 	slt	s0,t0,t1
bfc01154:	24120000 	li	s2,0
bfc01158:	161204ac 	bne	s0,s2,bfc0240c <inst_error>
bfc0115c:	00000000 	nop
bfc01160:	3c08e5a6 	lui	t0,0xe5a6
bfc01164:	35083a00 	ori	t0,t0,0x3a00
bfc01168:	3c09b664 	lui	t1,0xb664
bfc0116c:	3529f612 	ori	t1,t1,0xf612
bfc01170:	0109802a 	slt	s0,t0,t1
bfc01174:	24120000 	li	s2,0
bfc01178:	161204a4 	bne	s0,s2,bfc0240c <inst_error>
bfc0117c:	00000000 	nop
bfc01180:	3c084f78 	lui	t0,0x4f78
bfc01184:	35082f68 	ori	t0,t0,0x2f68
bfc01188:	3c0945be 	lui	t1,0x45be
bfc0118c:	35298540 	ori	t1,t1,0x8540
bfc01190:	0109802a 	slt	s0,t0,t1
bfc01194:	24120000 	li	s2,0
bfc01198:	1612049c 	bne	s0,s2,bfc0240c <inst_error>
bfc0119c:	00000000 	nop
bfc011a0:	3c082de2 	lui	t0,0x2de2
bfc011a4:	35086ba0 	ori	t0,t0,0x6ba0
bfc011a8:	3c090bb8 	lui	t1,0xbb8
bfc011ac:	352991f4 	ori	t1,t1,0x91f4
bfc011b0:	0109802a 	slt	s0,t0,t1
bfc011b4:	24120000 	li	s2,0
bfc011b8:	16120494 	bne	s0,s2,bfc0240c <inst_error>
bfc011bc:	00000000 	nop
bfc011c0:	3c086ee6 	lui	t0,0x6ee6
bfc011c4:	35084838 	ori	t0,t0,0x4838
bfc011c8:	3c092052 	lui	t1,0x2052
bfc011cc:	3529ef70 	ori	t1,t1,0xef70
bfc011d0:	0109802a 	slt	s0,t0,t1
bfc011d4:	24120000 	li	s2,0
bfc011d8:	1612048c 	bne	s0,s2,bfc0240c <inst_error>
bfc011dc:	00000000 	nop
bfc011e0:	3c08abe8 	lui	t0,0xabe8
bfc011e4:	350859b4 	ori	t0,t0,0x59b4
bfc011e8:	3c09c611 	lui	t1,0xc611
bfc011ec:	3529cb9c 	ori	t1,t1,0xcb9c
bfc011f0:	0109802a 	slt	s0,t0,t1
bfc011f4:	24120001 	li	s2,1
bfc011f8:	16120484 	bne	s0,s2,bfc0240c <inst_error>
bfc011fc:	00000000 	nop
bfc01200:	3c08b905 	lui	t0,0xb905
bfc01204:	3508ba8d 	ori	t0,t0,0xba8d
bfc01208:	3c09bc9e 	lui	t1,0xbc9e
bfc0120c:	35298b1c 	ori	t1,t1,0x8b1c
bfc01210:	0109802a 	slt	s0,t0,t1
bfc01214:	24120001 	li	s2,1
bfc01218:	1612047c 	bne	s0,s2,bfc0240c <inst_error>
bfc0121c:	00000000 	nop
bfc01220:	3c088a96 	lui	t0,0x8a96
bfc01224:	35080b3d 	ori	t0,t0,0xb3d
bfc01228:	3c09a82b 	lui	t1,0xa82b
bfc0122c:	35293e44 	ori	t1,t1,0x3e44
bfc01230:	0109802a 	slt	s0,t0,t1
bfc01234:	24120001 	li	s2,1
bfc01238:	16120474 	bne	s0,s2,bfc0240c <inst_error>
bfc0123c:	00000000 	nop
bfc01240:	3c08e538 	lui	t0,0xe538
bfc01244:	3508d650 	ori	t0,t0,0xd650
bfc01248:	3c09875f 	lui	t1,0x875f
bfc0124c:	3529553a 	ori	t1,t1,0x553a
bfc01250:	0109802a 	slt	s0,t0,t1
bfc01254:	24120000 	li	s2,0
bfc01258:	1612046c 	bne	s0,s2,bfc0240c <inst_error>
bfc0125c:	00000000 	nop
bfc01260:	3c0860f5 	lui	t0,0x60f5
bfc01264:	35089e14 	ori	t0,t0,0x9e14
bfc01268:	3c09d5c1 	lui	t1,0xd5c1
bfc0126c:	3529b6d4 	ori	t1,t1,0xb6d4
bfc01270:	0109802a 	slt	s0,t0,t1
bfc01274:	24120000 	li	s2,0
bfc01278:	16120464 	bne	s0,s2,bfc0240c <inst_error>
bfc0127c:	00000000 	nop
bfc01280:	3c08dee2 	lui	t0,0xdee2
bfc01284:	3508c960 	ori	t0,t0,0xc960
bfc01288:	3c09875e 	lui	t1,0x875e
bfc0128c:	3529f800 	ori	t1,t1,0xf800
bfc01290:	0109802a 	slt	s0,t0,t1
bfc01294:	24120000 	li	s2,0
bfc01298:	1612045c 	bne	s0,s2,bfc0240c <inst_error>
bfc0129c:	00000000 	nop
bfc012a0:	3c08a486 	lui	t0,0xa486
bfc012a4:	35086a04 	ori	t0,t0,0x6a04
bfc012a8:	3c094ae3 	lui	t1,0x4ae3
bfc012ac:	3529d50b 	ori	t1,t1,0xd50b
bfc012b0:	0109802a 	slt	s0,t0,t1
bfc012b4:	24120001 	li	s2,1
bfc012b8:	16120454 	bne	s0,s2,bfc0240c <inst_error>
bfc012bc:	00000000 	nop
bfc012c0:	3c089ba2 	lui	t0,0x9ba2
bfc012c4:	350895a0 	ori	t0,t0,0x95a0
bfc012c8:	3c09bceb 	lui	t1,0xbceb
bfc012cc:	35299306 	ori	t1,t1,0x9306
bfc012d0:	0109802a 	slt	s0,t0,t1
bfc012d4:	24120001 	li	s2,1
bfc012d8:	1612044c 	bne	s0,s2,bfc0240c <inst_error>
bfc012dc:	00000000 	nop
bfc012e0:	3c08aaf4 	lui	t0,0xaaf4
bfc012e4:	35089150 	ori	t0,t0,0x9150
bfc012e8:	3c097783 	lui	t1,0x7783
bfc012ec:	35293534 	ori	t1,t1,0x3534
bfc012f0:	0109802a 	slt	s0,t0,t1
bfc012f4:	24120001 	li	s2,1
bfc012f8:	16120444 	bne	s0,s2,bfc0240c <inst_error>
bfc012fc:	00000000 	nop
bfc01300:	3c08398f 	lui	t0,0x398f
bfc01304:	35084578 	ori	t0,t0,0x4578
bfc01308:	3c097985 	lui	t1,0x7985
bfc0130c:	3529df63 	ori	t1,t1,0xdf63
bfc01310:	0109802a 	slt	s0,t0,t1
bfc01314:	24120001 	li	s2,1
bfc01318:	1612043c 	bne	s0,s2,bfc0240c <inst_error>
bfc0131c:	00000000 	nop
bfc01320:	3c083813 	lui	t0,0x3813
bfc01324:	350872fc 	ori	t0,t0,0x72fc
bfc01328:	3c09c2f9 	lui	t1,0xc2f9
bfc0132c:	35292990 	ori	t1,t1,0x2990
bfc01330:	0109802a 	slt	s0,t0,t1
bfc01334:	24120000 	li	s2,0
bfc01338:	16120434 	bne	s0,s2,bfc0240c <inst_error>
bfc0133c:	00000000 	nop
bfc01340:	3c0829ff 	lui	t0,0x29ff
bfc01344:	35081880 	ori	t0,t0,0x1880
bfc01348:	3c091263 	lui	t1,0x1263
bfc0134c:	35293f34 	ori	t1,t1,0x3f34
bfc01350:	0109802a 	slt	s0,t0,t1
bfc01354:	24120000 	li	s2,0
bfc01358:	1612042c 	bne	s0,s2,bfc0240c <inst_error>
bfc0135c:	00000000 	nop
bfc01360:	3c08afad 	lui	t0,0xafad
bfc01364:	3508a684 	ori	t0,t0,0xa684
bfc01368:	3c0925ed 	lui	t1,0x25ed
bfc0136c:	35290ff2 	ori	t1,t1,0xff2
bfc01370:	0109802a 	slt	s0,t0,t1
bfc01374:	24120001 	li	s2,1
bfc01378:	16120424 	bne	s0,s2,bfc0240c <inst_error>
bfc0137c:	00000000 	nop
bfc01380:	3c0813f1 	lui	t0,0x13f1
bfc01384:	3508f1e0 	ori	t0,t0,0xf1e0
bfc01388:	3c09a093 	lui	t1,0xa093
bfc0138c:	35291ebe 	ori	t1,t1,0x1ebe
bfc01390:	0109802a 	slt	s0,t0,t1
bfc01394:	24120000 	li	s2,0
bfc01398:	1612041c 	bne	s0,s2,bfc0240c <inst_error>
bfc0139c:	00000000 	nop
bfc013a0:	3c080f99 	lui	t0,0xf99
bfc013a4:	35082c56 	ori	t0,t0,0x2c56
bfc013a8:	3c09d949 	lui	t1,0xd949
bfc013ac:	35297298 	ori	t1,t1,0x7298
bfc013b0:	0109802a 	slt	s0,t0,t1
bfc013b4:	24120000 	li	s2,0
bfc013b8:	16120414 	bne	s0,s2,bfc0240c <inst_error>
bfc013bc:	00000000 	nop
bfc013c0:	3c08df8c 	lui	t0,0xdf8c
bfc013c4:	35083708 	ori	t0,t0,0x3708
bfc013c8:	3c095110 	lui	t1,0x5110
bfc013cc:	352957e4 	ori	t1,t1,0x57e4
bfc013d0:	0109802a 	slt	s0,t0,t1
bfc013d4:	24120001 	li	s2,1
bfc013d8:	1612040c 	bne	s0,s2,bfc0240c <inst_error>
bfc013dc:	00000000 	nop
bfc013e0:	3c08402c 	lui	t0,0x402c
bfc013e4:	35082c80 	ori	t0,t0,0x2c80
bfc013e8:	3c09c62e 	lui	t1,0xc62e
bfc013ec:	3529f3ee 	ori	t1,t1,0xf3ee
bfc013f0:	0109802a 	slt	s0,t0,t1
bfc013f4:	24120000 	li	s2,0
bfc013f8:	16120404 	bne	s0,s2,bfc0240c <inst_error>
bfc013fc:	00000000 	nop
bfc01400:	3c085142 	lui	t0,0x5142
bfc01404:	350847b0 	ori	t0,t0,0x47b0
bfc01408:	3c090393 	lui	t1,0x393
bfc0140c:	352921a2 	ori	t1,t1,0x21a2
bfc01410:	0109802a 	slt	s0,t0,t1
bfc01414:	24120000 	li	s2,0
bfc01418:	161203fc 	bne	s0,s2,bfc0240c <inst_error>
bfc0141c:	00000000 	nop
bfc01420:	3c084a84 	lui	t0,0x4a84
bfc01424:	3508af1c 	ori	t0,t0,0xaf1c
bfc01428:	3c09bc7f 	lui	t1,0xbc7f
bfc0142c:	3529931c 	ori	t1,t1,0x931c
bfc01430:	0109802a 	slt	s0,t0,t1
bfc01434:	24120000 	li	s2,0
bfc01438:	161203f4 	bne	s0,s2,bfc0240c <inst_error>
bfc0143c:	00000000 	nop
bfc01440:	3c084e04 	lui	t0,0x4e04
bfc01444:	3508e468 	ori	t0,t0,0xe468
bfc01448:	3c0927f2 	lui	t1,0x27f2
bfc0144c:	3529c362 	ori	t1,t1,0xc362
bfc01450:	0109802a 	slt	s0,t0,t1
bfc01454:	24120000 	li	s2,0
bfc01458:	161203ec 	bne	s0,s2,bfc0240c <inst_error>
bfc0145c:	00000000 	nop
bfc01460:	3c08c060 	lui	t0,0xc060
bfc01464:	35087a2a 	ori	t0,t0,0x7a2a
bfc01468:	3c091007 	lui	t1,0x1007
bfc0146c:	352977a6 	ori	t1,t1,0x77a6
bfc01470:	0109802a 	slt	s0,t0,t1
bfc01474:	24120001 	li	s2,1
bfc01478:	161203e4 	bne	s0,s2,bfc0240c <inst_error>
bfc0147c:	00000000 	nop
bfc01480:	3c086be8 	lui	t0,0x6be8
bfc01484:	350887b8 	ori	t0,t0,0x87b8
bfc01488:	3c092a2a 	lui	t1,0x2a2a
bfc0148c:	35291b07 	ori	t1,t1,0x1b07
bfc01490:	0109802a 	slt	s0,t0,t1
bfc01494:	24120000 	li	s2,0
bfc01498:	161203dc 	bne	s0,s2,bfc0240c <inst_error>
bfc0149c:	00000000 	nop
bfc014a0:	3c08ffc0 	lui	t0,0xffc0
bfc014a4:	3508648c 	ori	t0,t0,0x648c
bfc014a8:	3c0903ae 	lui	t1,0x3ae
bfc014ac:	35297d40 	ori	t1,t1,0x7d40
bfc014b0:	0109802a 	slt	s0,t0,t1
bfc014b4:	24120001 	li	s2,1
bfc014b8:	161203d4 	bne	s0,s2,bfc0240c <inst_error>
bfc014bc:	00000000 	nop
bfc014c0:	3c088059 	lui	t0,0x8059
bfc014c4:	3508f584 	ori	t0,t0,0xf584
bfc014c8:	3c092a55 	lui	t1,0x2a55
bfc014cc:	352991c2 	ori	t1,t1,0x91c2
bfc014d0:	0109802a 	slt	s0,t0,t1
bfc014d4:	24120001 	li	s2,1
bfc014d8:	161203cc 	bne	s0,s2,bfc0240c <inst_error>
bfc014dc:	00000000 	nop
bfc014e0:	3c08d678 	lui	t0,0xd678
bfc014e4:	35080e50 	ori	t0,t0,0xe50
bfc014e8:	3c09dd90 	lui	t1,0xdd90
bfc014ec:	3529061e 	ori	t1,t1,0x61e
bfc014f0:	0109802a 	slt	s0,t0,t1
bfc014f4:	24120001 	li	s2,1
bfc014f8:	161203c4 	bne	s0,s2,bfc0240c <inst_error>
bfc014fc:	00000000 	nop
bfc01500:	3c08c515 	lui	t0,0xc515
bfc01504:	35086998 	ori	t0,t0,0x6998
bfc01508:	3c090664 	lui	t1,0x664
bfc0150c:	35296dc8 	ori	t1,t1,0x6dc8
bfc01510:	0109802a 	slt	s0,t0,t1
bfc01514:	24120001 	li	s2,1
bfc01518:	161203bc 	bne	s0,s2,bfc0240c <inst_error>
bfc0151c:	00000000 	nop
bfc01520:	3c08d023 	lui	t0,0xd023
bfc01524:	35081c28 	ori	t0,t0,0x1c28
bfc01528:	3c090a3e 	lui	t1,0xa3e
bfc0152c:	35294be8 	ori	t1,t1,0x4be8
bfc01530:	0109802a 	slt	s0,t0,t1
bfc01534:	24120001 	li	s2,1
bfc01538:	161203b4 	bne	s0,s2,bfc0240c <inst_error>
bfc0153c:	00000000 	nop
bfc01540:	3c085c9b 	lui	t0,0x5c9b
bfc01544:	35089af5 	ori	t0,t0,0x9af5
bfc01548:	3c09879b 	lui	t1,0x879b
bfc0154c:	35295056 	ori	t1,t1,0x5056
bfc01550:	0109802a 	slt	s0,t0,t1
bfc01554:	24120000 	li	s2,0
bfc01558:	161203ac 	bne	s0,s2,bfc0240c <inst_error>
bfc0155c:	00000000 	nop
bfc01560:	3c08f7fd 	lui	t0,0xf7fd
bfc01564:	3508960e 	ori	t0,t0,0x960e
bfc01568:	3c096576 	lui	t1,0x6576
bfc0156c:	352915c0 	ori	t1,t1,0x15c0
bfc01570:	0109802a 	slt	s0,t0,t1
bfc01574:	24120001 	li	s2,1
bfc01578:	161203a4 	bne	s0,s2,bfc0240c <inst_error>
bfc0157c:	00000000 	nop
bfc01580:	3c086f4b 	lui	t0,0x6f4b
bfc01584:	3508bfa2 	ori	t0,t0,0xbfa2
bfc01588:	3c09a6ad 	lui	t1,0xa6ad
bfc0158c:	3529f7d0 	ori	t1,t1,0xf7d0
bfc01590:	0109802a 	slt	s0,t0,t1
bfc01594:	24120000 	li	s2,0
bfc01598:	1612039c 	bne	s0,s2,bfc0240c <inst_error>
bfc0159c:	00000000 	nop
bfc015a0:	3c087582 	lui	t0,0x7582
bfc015a4:	35080002 	ori	t0,t0,0x2
bfc015a8:	3c091544 	lui	t1,0x1544
bfc015ac:	35294e40 	ori	t1,t1,0x4e40
bfc015b0:	0109802a 	slt	s0,t0,t1
bfc015b4:	24120000 	li	s2,0
bfc015b8:	16120394 	bne	s0,s2,bfc0240c <inst_error>
bfc015bc:	00000000 	nop
bfc015c0:	3c08916d 	lui	t0,0x916d
bfc015c4:	35087568 	ori	t0,t0,0x7568
bfc015c8:	3c0924f6 	lui	t1,0x24f6
bfc015cc:	3529a834 	ori	t1,t1,0xa834
bfc015d0:	0109802a 	slt	s0,t0,t1
bfc015d4:	24120001 	li	s2,1
bfc015d8:	1612038c 	bne	s0,s2,bfc0240c <inst_error>
bfc015dc:	00000000 	nop
bfc015e0:	3c08a67c 	lui	t0,0xa67c
bfc015e4:	35089d00 	ori	t0,t0,0x9d00
bfc015e8:	3c09e46a 	lui	t1,0xe46a
bfc015ec:	35290e6c 	ori	t1,t1,0xe6c
bfc015f0:	0109802a 	slt	s0,t0,t1
bfc015f4:	24120001 	li	s2,1
bfc015f8:	16120384 	bne	s0,s2,bfc0240c <inst_error>
bfc015fc:	00000000 	nop
bfc01600:	3c08093d 	lui	t0,0x93d
bfc01604:	3508a360 	ori	t0,t0,0xa360
bfc01608:	3c090c64 	lui	t1,0xc64
bfc0160c:	35294f40 	ori	t1,t1,0x4f40
bfc01610:	0109802a 	slt	s0,t0,t1
bfc01614:	24120001 	li	s2,1
bfc01618:	1612037c 	bne	s0,s2,bfc0240c <inst_error>
bfc0161c:	00000000 	nop
bfc01620:	3c08612e 	lui	t0,0x612e
bfc01624:	35088bce 	ori	t0,t0,0x8bce
bfc01628:	3c099321 	lui	t1,0x9321
bfc0162c:	352936df 	ori	t1,t1,0x36df
bfc01630:	0109802a 	slt	s0,t0,t1
bfc01634:	24120000 	li	s2,0
bfc01638:	16120374 	bne	s0,s2,bfc0240c <inst_error>
bfc0163c:	00000000 	nop
bfc01640:	3c0840ab 	lui	t0,0x40ab
bfc01644:	3508109e 	ori	t0,t0,0x109e
bfc01648:	3c096e6f 	lui	t1,0x6e6f
bfc0164c:	35299e96 	ori	t1,t1,0x9e96
bfc01650:	0109802a 	slt	s0,t0,t1
bfc01654:	24120001 	li	s2,1
bfc01658:	1612036c 	bne	s0,s2,bfc0240c <inst_error>
bfc0165c:	00000000 	nop
bfc01660:	3c08b75f 	lui	t0,0xb75f
bfc01664:	3508a2a8 	ori	t0,t0,0xa2a8
bfc01668:	3c09bef9 	lui	t1,0xbef9
bfc0166c:	35295808 	ori	t1,t1,0x5808
bfc01670:	0109802a 	slt	s0,t0,t1
bfc01674:	24120001 	li	s2,1
bfc01678:	16120364 	bne	s0,s2,bfc0240c <inst_error>
bfc0167c:	00000000 	nop
bfc01680:	3c081065 	lui	t0,0x1065
bfc01684:	350856b4 	ori	t0,t0,0x56b4
bfc01688:	3c097590 	lui	t1,0x7590
bfc0168c:	35291e20 	ori	t1,t1,0x1e20
bfc01690:	0109802a 	slt	s0,t0,t1
bfc01694:	24120001 	li	s2,1
bfc01698:	1612035c 	bne	s0,s2,bfc0240c <inst_error>
bfc0169c:	00000000 	nop
bfc016a0:	3c08a424 	lui	t0,0xa424
bfc016a4:	3508fbc0 	ori	t0,t0,0xfbc0
bfc016a8:	3c09907c 	lui	t1,0x907c
bfc016ac:	35298720 	ori	t1,t1,0x8720
bfc016b0:	0109802a 	slt	s0,t0,t1
bfc016b4:	24120000 	li	s2,0
bfc016b8:	16120354 	bne	s0,s2,bfc0240c <inst_error>
bfc016bc:	00000000 	nop
bfc016c0:	3c089cc2 	lui	t0,0x9cc2
bfc016c4:	35085fb4 	ori	t0,t0,0x5fb4
bfc016c8:	3c096e6c 	lui	t1,0x6e6c
bfc016cc:	35292a80 	ori	t1,t1,0x2a80
bfc016d0:	0109802a 	slt	s0,t0,t1
bfc016d4:	24120001 	li	s2,1
bfc016d8:	1612034c 	bne	s0,s2,bfc0240c <inst_error>
bfc016dc:	00000000 	nop
bfc016e0:	3c08afaf 	lui	t0,0xafaf
bfc016e4:	3508b70a 	ori	t0,t0,0xb70a
bfc016e8:	3c09828b 	lui	t1,0x828b
bfc016ec:	35299cf1 	ori	t1,t1,0x9cf1
bfc016f0:	0109802a 	slt	s0,t0,t1
bfc016f4:	24120000 	li	s2,0
bfc016f8:	16120344 	bne	s0,s2,bfc0240c <inst_error>
bfc016fc:	00000000 	nop
bfc01700:	3c08153a 	lui	t0,0x153a
bfc01704:	35080cdc 	ori	t0,t0,0xcdc
bfc01708:	3c093686 	lui	t1,0x3686
bfc0170c:	3529a0f0 	ori	t1,t1,0xa0f0
bfc01710:	0109802a 	slt	s0,t0,t1
bfc01714:	24120001 	li	s2,1
bfc01718:	1612033c 	bne	s0,s2,bfc0240c <inst_error>
bfc0171c:	00000000 	nop
bfc01720:	3c08a1de 	lui	t0,0xa1de
bfc01724:	3508afea 	ori	t0,t0,0xafea
bfc01728:	3c0928ee 	lui	t1,0x28ee
bfc0172c:	35296b2a 	ori	t1,t1,0x6b2a
bfc01730:	0109802a 	slt	s0,t0,t1
bfc01734:	24120001 	li	s2,1
bfc01738:	16120334 	bne	s0,s2,bfc0240c <inst_error>
bfc0173c:	00000000 	nop
bfc01740:	3c08e744 	lui	t0,0xe744
bfc01744:	35088c54 	ori	t0,t0,0x8c54
bfc01748:	3c09a2ea 	lui	t1,0xa2ea
bfc0174c:	3529b4b0 	ori	t1,t1,0xb4b0
bfc01750:	0109802a 	slt	s0,t0,t1
bfc01754:	24120000 	li	s2,0
bfc01758:	1612032c 	bne	s0,s2,bfc0240c <inst_error>
bfc0175c:	00000000 	nop
bfc01760:	3c08df72 	lui	t0,0xdf72
bfc01764:	350828f0 	ori	t0,t0,0x28f0
bfc01768:	3c095da2 	lui	t1,0x5da2
bfc0176c:	3529c118 	ori	t1,t1,0xc118
bfc01770:	0109802a 	slt	s0,t0,t1
bfc01774:	24120001 	li	s2,1
bfc01778:	16120324 	bne	s0,s2,bfc0240c <inst_error>
bfc0177c:	00000000 	nop
bfc01780:	3c080667 	lui	t0,0x667
bfc01784:	350834aa 	ori	t0,t0,0x34aa
bfc01788:	3c097f8c 	lui	t1,0x7f8c
bfc0178c:	352971f8 	ori	t1,t1,0x71f8
bfc01790:	0109802a 	slt	s0,t0,t1
bfc01794:	24120001 	li	s2,1
bfc01798:	1612031c 	bne	s0,s2,bfc0240c <inst_error>
bfc0179c:	00000000 	nop
bfc017a0:	3c08b31c 	lui	t0,0xb31c
bfc017a4:	3508cc61 	ori	t0,t0,0xcc61
bfc017a8:	3c099934 	lui	t1,0x9934
bfc017ac:	35297be0 	ori	t1,t1,0x7be0
bfc017b0:	0109802a 	slt	s0,t0,t1
bfc017b4:	24120000 	li	s2,0
bfc017b8:	16120314 	bne	s0,s2,bfc0240c <inst_error>
bfc017bc:	00000000 	nop
bfc017c0:	3c085484 	lui	t0,0x5484
bfc017c4:	3508dc5f 	ori	t0,t0,0xdc5f
bfc017c8:	3c09b891 	lui	t1,0xb891
bfc017cc:	3529211c 	ori	t1,t1,0x211c
bfc017d0:	0109802a 	slt	s0,t0,t1
bfc017d4:	24120000 	li	s2,0
bfc017d8:	1612030c 	bne	s0,s2,bfc0240c <inst_error>
bfc017dc:	00000000 	nop
bfc017e0:	3c08281c 	lui	t0,0x281c
bfc017e4:	35082dc0 	ori	t0,t0,0x2dc0
bfc017e8:	3c0947b6 	lui	t1,0x47b6
bfc017ec:	35290b80 	ori	t1,t1,0xb80
bfc017f0:	0109802a 	slt	s0,t0,t1
bfc017f4:	24120001 	li	s2,1
bfc017f8:	16120304 	bne	s0,s2,bfc0240c <inst_error>
bfc017fc:	00000000 	nop
bfc01800:	3c088aec 	lui	t0,0x8aec
bfc01804:	3508940c 	ori	t0,t0,0x940c
bfc01808:	3c09f609 	lui	t1,0xf609
bfc0180c:	3529008c 	ori	t1,t1,0x8c
bfc01810:	0109802a 	slt	s0,t0,t1
bfc01814:	24120001 	li	s2,1
bfc01818:	161202fc 	bne	s0,s2,bfc0240c <inst_error>
bfc0181c:	00000000 	nop
bfc01820:	3c080a4f 	lui	t0,0xa4f
bfc01824:	35080f70 	ori	t0,t0,0xf70
bfc01828:	3c0922c1 	lui	t1,0x22c1
bfc0182c:	3529d4e0 	ori	t1,t1,0xd4e0
bfc01830:	0109802a 	slt	s0,t0,t1
bfc01834:	24120001 	li	s2,1
bfc01838:	161202f4 	bne	s0,s2,bfc0240c <inst_error>
bfc0183c:	00000000 	nop
bfc01840:	3c08b4db 	lui	t0,0xb4db
bfc01844:	35086de0 	ori	t0,t0,0x6de0
bfc01848:	3c09852f 	lui	t1,0x852f
bfc0184c:	3529e310 	ori	t1,t1,0xe310
bfc01850:	0109802a 	slt	s0,t0,t1
bfc01854:	24120000 	li	s2,0
bfc01858:	161202ec 	bne	s0,s2,bfc0240c <inst_error>
bfc0185c:	00000000 	nop
bfc01860:	3c08d271 	lui	t0,0xd271
bfc01864:	350840e4 	ori	t0,t0,0x40e4
bfc01868:	3c0934ec 	lui	t1,0x34ec
bfc0186c:	3529bff0 	ori	t1,t1,0xbff0
bfc01870:	0109802a 	slt	s0,t0,t1
bfc01874:	24120001 	li	s2,1
bfc01878:	161202e4 	bne	s0,s2,bfc0240c <inst_error>
bfc0187c:	00000000 	nop
bfc01880:	3c08dd74 	lui	t0,0xdd74
bfc01884:	3508e0b4 	ori	t0,t0,0xe0b4
bfc01888:	3c09ab67 	lui	t1,0xab67
bfc0188c:	3529cad0 	ori	t1,t1,0xcad0
bfc01890:	0109802a 	slt	s0,t0,t1
bfc01894:	24120000 	li	s2,0
bfc01898:	161202dc 	bne	s0,s2,bfc0240c <inst_error>
bfc0189c:	00000000 	nop
bfc018a0:	3c0878b9 	lui	t0,0x78b9
bfc018a4:	35083da0 	ori	t0,t0,0x3da0
bfc018a8:	3c097b51 	lui	t1,0x7b51
bfc018ac:	3529da44 	ori	t1,t1,0xda44
bfc018b0:	0109802a 	slt	s0,t0,t1
bfc018b4:	24120001 	li	s2,1
bfc018b8:	161202d4 	bne	s0,s2,bfc0240c <inst_error>
bfc018bc:	00000000 	nop
bfc018c0:	3c0899ea 	lui	t0,0x99ea
bfc018c4:	3508e868 	ori	t0,t0,0xe868
bfc018c8:	3c097e33 	lui	t1,0x7e33
bfc018cc:	3529768c 	ori	t1,t1,0x768c
bfc018d0:	0109802a 	slt	s0,t0,t1
bfc018d4:	24120001 	li	s2,1
bfc018d8:	161202cc 	bne	s0,s2,bfc0240c <inst_error>
bfc018dc:	00000000 	nop
bfc018e0:	3c0877ea 	lui	t0,0x77ea
bfc018e4:	350882d8 	ori	t0,t0,0x82d8
bfc018e8:	3c09273d 	lui	t1,0x273d
bfc018ec:	3529a080 	ori	t1,t1,0xa080
bfc018f0:	0109802a 	slt	s0,t0,t1
bfc018f4:	24120000 	li	s2,0
bfc018f8:	161202c4 	bne	s0,s2,bfc0240c <inst_error>
bfc018fc:	00000000 	nop
bfc01900:	3c085d1e 	lui	t0,0x5d1e
bfc01904:	3508b494 	ori	t0,t0,0xb494
bfc01908:	24090000 	li	t1,0
bfc0190c:	0109802a 	slt	s0,t0,t1
bfc01910:	24120000 	li	s2,0
bfc01914:	161202bd 	bne	s0,s2,bfc0240c <inst_error>
bfc01918:	00000000 	nop
bfc0191c:	3c0896c2 	lui	t0,0x96c2
bfc01920:	3508d0de 	ori	t0,t0,0xd0de
bfc01924:	24090000 	li	t1,0
bfc01928:	0109802a 	slt	s0,t0,t1
bfc0192c:	24120001 	li	s2,1
bfc01930:	161202b6 	bne	s0,s2,bfc0240c <inst_error>
bfc01934:	00000000 	nop
bfc01938:	3c081d3b 	lui	t0,0x1d3b
bfc0193c:	35081774 	ori	t0,t0,0x1774
bfc01940:	24090000 	li	t1,0
bfc01944:	0109802a 	slt	s0,t0,t1
bfc01948:	24120000 	li	s2,0
bfc0194c:	161202af 	bne	s0,s2,bfc0240c <inst_error>
bfc01950:	00000000 	nop
bfc01954:	3c087a6a 	lui	t0,0x7a6a
bfc01958:	35087630 	ori	t0,t0,0x7630
bfc0195c:	24090000 	li	t1,0
bfc01960:	0109802a 	slt	s0,t0,t1
bfc01964:	24120000 	li	s2,0
bfc01968:	161202a8 	bne	s0,s2,bfc0240c <inst_error>
bfc0196c:	00000000 	nop
bfc01970:	3c08f56d 	lui	t0,0xf56d
bfc01974:	3508dcb1 	ori	t0,t0,0xdcb1
bfc01978:	24090000 	li	t1,0
bfc0197c:	0109802a 	slt	s0,t0,t1
bfc01980:	24120001 	li	s2,1
bfc01984:	161202a1 	bne	s0,s2,bfc0240c <inst_error>
bfc01988:	00000000 	nop
bfc0198c:	3c080583 	lui	t0,0x583
bfc01990:	350860f8 	ori	t0,t0,0x60f8
bfc01994:	24090000 	li	t1,0
bfc01998:	0109802a 	slt	s0,t0,t1
bfc0199c:	24120000 	li	s2,0
bfc019a0:	1612029a 	bne	s0,s2,bfc0240c <inst_error>
bfc019a4:	00000000 	nop
bfc019a8:	3c088507 	lui	t0,0x8507
bfc019ac:	350897d8 	ori	t0,t0,0x97d8
bfc019b0:	24090000 	li	t1,0
bfc019b4:	0109802a 	slt	s0,t0,t1
bfc019b8:	24120001 	li	s2,1
bfc019bc:	16120293 	bne	s0,s2,bfc0240c <inst_error>
bfc019c0:	00000000 	nop
bfc019c4:	3c083c74 	lui	t0,0x3c74
bfc019c8:	350811bc 	ori	t0,t0,0x11bc
bfc019cc:	24090000 	li	t1,0
bfc019d0:	0109802a 	slt	s0,t0,t1
bfc019d4:	24120000 	li	s2,0
bfc019d8:	1612028c 	bne	s0,s2,bfc0240c <inst_error>
bfc019dc:	00000000 	nop
bfc019e0:	3c08b632 	lui	t0,0xb632
bfc019e4:	3508b7e6 	ori	t0,t0,0xb7e6
bfc019e8:	24090000 	li	t1,0
bfc019ec:	0109802a 	slt	s0,t0,t1
bfc019f0:	24120001 	li	s2,1
bfc019f4:	16120285 	bne	s0,s2,bfc0240c <inst_error>
bfc019f8:	00000000 	nop
bfc019fc:	3c084104 	lui	t0,0x4104
bfc01a00:	35080328 	ori	t0,t0,0x328
bfc01a04:	24090000 	li	t1,0
bfc01a08:	0109802a 	slt	s0,t0,t1
bfc01a0c:	24120000 	li	s2,0
bfc01a10:	1612027e 	bne	s0,s2,bfc0240c <inst_error>
bfc01a14:	00000000 	nop
bfc01a18:	3c08a15b 	lui	t0,0xa15b
bfc01a1c:	35088800 	ori	t0,t0,0x8800
bfc01a20:	24090000 	li	t1,0
bfc01a24:	0109802a 	slt	s0,t0,t1
bfc01a28:	24120001 	li	s2,1
bfc01a2c:	16120277 	bne	s0,s2,bfc0240c <inst_error>
bfc01a30:	00000000 	nop
bfc01a34:	3c086394 	lui	t0,0x6394
bfc01a38:	35086e22 	ori	t0,t0,0x6e22
bfc01a3c:	24090000 	li	t1,0
bfc01a40:	0109802a 	slt	s0,t0,t1
bfc01a44:	24120000 	li	s2,0
bfc01a48:	16120270 	bne	s0,s2,bfc0240c <inst_error>
bfc01a4c:	00000000 	nop
bfc01a50:	3c083cf4 	lui	t0,0x3cf4
bfc01a54:	35089300 	ori	t0,t0,0x9300
bfc01a58:	24090000 	li	t1,0
bfc01a5c:	0109802a 	slt	s0,t0,t1
bfc01a60:	24120000 	li	s2,0
bfc01a64:	16120269 	bne	s0,s2,bfc0240c <inst_error>
bfc01a68:	00000000 	nop
bfc01a6c:	3c08568a 	lui	t0,0x568a
bfc01a70:	3508b7c0 	ori	t0,t0,0xb7c0
bfc01a74:	24090000 	li	t1,0
bfc01a78:	0109802a 	slt	s0,t0,t1
bfc01a7c:	24120000 	li	s2,0
bfc01a80:	16120262 	bne	s0,s2,bfc0240c <inst_error>
bfc01a84:	00000000 	nop
bfc01a88:	3c08d839 	lui	t0,0xd839
bfc01a8c:	350837ec 	ori	t0,t0,0x37ec
bfc01a90:	24090000 	li	t1,0
bfc01a94:	0109802a 	slt	s0,t0,t1
bfc01a98:	24120001 	li	s2,1
bfc01a9c:	1612025b 	bne	s0,s2,bfc0240c <inst_error>
bfc01aa0:	00000000 	nop
bfc01aa4:	3c08f29d 	lui	t0,0xf29d
bfc01aa8:	35086b00 	ori	t0,t0,0x6b00
bfc01aac:	24090000 	li	t1,0
bfc01ab0:	0109802a 	slt	s0,t0,t1
bfc01ab4:	24120001 	li	s2,1
bfc01ab8:	16120254 	bne	s0,s2,bfc0240c <inst_error>
bfc01abc:	00000000 	nop
bfc01ac0:	3c08ce78 	lui	t0,0xce78
bfc01ac4:	350875a8 	ori	t0,t0,0x75a8
bfc01ac8:	24090000 	li	t1,0
bfc01acc:	0109802a 	slt	s0,t0,t1
bfc01ad0:	24120001 	li	s2,1
bfc01ad4:	1612024d 	bne	s0,s2,bfc0240c <inst_error>
bfc01ad8:	00000000 	nop
bfc01adc:	3c0846ef 	lui	t0,0x46ef
bfc01ae0:	35089c20 	ori	t0,t0,0x9c20
bfc01ae4:	24090000 	li	t1,0
bfc01ae8:	0109802a 	slt	s0,t0,t1
bfc01aec:	24120000 	li	s2,0
bfc01af0:	16120246 	bne	s0,s2,bfc0240c <inst_error>
bfc01af4:	00000000 	nop
bfc01af8:	3c089fcb 	lui	t0,0x9fcb
bfc01afc:	35087b9c 	ori	t0,t0,0x7b9c
bfc01b00:	24090000 	li	t1,0
bfc01b04:	0109802a 	slt	s0,t0,t1
bfc01b08:	24120001 	li	s2,1
bfc01b0c:	1612023f 	bne	s0,s2,bfc0240c <inst_error>
bfc01b10:	00000000 	nop
bfc01b14:	3c0876f8 	lui	t0,0x76f8
bfc01b18:	3508d480 	ori	t0,t0,0xd480
bfc01b1c:	24090000 	li	t1,0
bfc01b20:	0109802a 	slt	s0,t0,t1
bfc01b24:	24120000 	li	s2,0
bfc01b28:	16120238 	bne	s0,s2,bfc0240c <inst_error>
bfc01b2c:	00000000 	nop
bfc01b30:	3c08a2e3 	lui	t0,0xa2e3
bfc01b34:	35089d48 	ori	t0,t0,0x9d48
bfc01b38:	24090000 	li	t1,0
bfc01b3c:	0109802a 	slt	s0,t0,t1
bfc01b40:	24120001 	li	s2,1
bfc01b44:	16120231 	bne	s0,s2,bfc0240c <inst_error>
bfc01b48:	00000000 	nop
bfc01b4c:	3c08a07c 	lui	t0,0xa07c
bfc01b50:	3508ed74 	ori	t0,t0,0xed74
bfc01b54:	24090000 	li	t1,0
bfc01b58:	0109802a 	slt	s0,t0,t1
bfc01b5c:	24120001 	li	s2,1
bfc01b60:	1612022a 	bne	s0,s2,bfc0240c <inst_error>
bfc01b64:	00000000 	nop
bfc01b68:	3c083546 	lui	t0,0x3546
bfc01b6c:	35085808 	ori	t0,t0,0x5808
bfc01b70:	24090000 	li	t1,0
bfc01b74:	0109802a 	slt	s0,t0,t1
bfc01b78:	24120000 	li	s2,0
bfc01b7c:	16120223 	bne	s0,s2,bfc0240c <inst_error>
bfc01b80:	00000000 	nop
bfc01b84:	3c083a0e 	lui	t0,0x3a0e
bfc01b88:	3508eb32 	ori	t0,t0,0xeb32
bfc01b8c:	24090000 	li	t1,0
bfc01b90:	0109802a 	slt	s0,t0,t1
bfc01b94:	24120000 	li	s2,0
bfc01b98:	1612021c 	bne	s0,s2,bfc0240c <inst_error>
bfc01b9c:	00000000 	nop
bfc01ba0:	3c086a9b 	lui	t0,0x6a9b
bfc01ba4:	350850fc 	ori	t0,t0,0x50fc
bfc01ba8:	24090000 	li	t1,0
bfc01bac:	0109802a 	slt	s0,t0,t1
bfc01bb0:	24120000 	li	s2,0
bfc01bb4:	16120215 	bne	s0,s2,bfc0240c <inst_error>
bfc01bb8:	00000000 	nop
bfc01bbc:	3c08267a 	lui	t0,0x267a
bfc01bc0:	35081dbd 	ori	t0,t0,0x1dbd
bfc01bc4:	24090000 	li	t1,0
bfc01bc8:	0109802a 	slt	s0,t0,t1
bfc01bcc:	24120000 	li	s2,0
bfc01bd0:	1612020e 	bne	s0,s2,bfc0240c <inst_error>
bfc01bd4:	00000000 	nop
bfc01bd8:	3c08c9d7 	lui	t0,0xc9d7
bfc01bdc:	3508d05b 	ori	t0,t0,0xd05b
bfc01be0:	24090000 	li	t1,0
bfc01be4:	0109802a 	slt	s0,t0,t1
bfc01be8:	24120001 	li	s2,1
bfc01bec:	16120207 	bne	s0,s2,bfc0240c <inst_error>
bfc01bf0:	00000000 	nop
bfc01bf4:	3c085e8b 	lui	t0,0x5e8b
bfc01bf8:	3508b6a0 	ori	t0,t0,0xb6a0
bfc01bfc:	24090000 	li	t1,0
bfc01c00:	0109802a 	slt	s0,t0,t1
bfc01c04:	24120000 	li	s2,0
bfc01c08:	16120200 	bne	s0,s2,bfc0240c <inst_error>
bfc01c0c:	00000000 	nop
bfc01c10:	3c08a40f 	lui	t0,0xa40f
bfc01c14:	3508e388 	ori	t0,t0,0xe388
bfc01c18:	24090000 	li	t1,0
bfc01c1c:	0109802a 	slt	s0,t0,t1
bfc01c20:	24120001 	li	s2,1
bfc01c24:	161201f9 	bne	s0,s2,bfc0240c <inst_error>
bfc01c28:	00000000 	nop
bfc01c2c:	3c085ac0 	lui	t0,0x5ac0
bfc01c30:	3508c900 	ori	t0,t0,0xc900
bfc01c34:	24090000 	li	t1,0
bfc01c38:	0109802a 	slt	s0,t0,t1
bfc01c3c:	24120000 	li	s2,0
bfc01c40:	161201f2 	bne	s0,s2,bfc0240c <inst_error>
bfc01c44:	00000000 	nop
bfc01c48:	3c08e3f4 	lui	t0,0xe3f4
bfc01c4c:	35088848 	ori	t0,t0,0x8848
bfc01c50:	24090000 	li	t1,0
bfc01c54:	0109802a 	slt	s0,t0,t1
bfc01c58:	24120001 	li	s2,1
bfc01c5c:	161201eb 	bne	s0,s2,bfc0240c <inst_error>
bfc01c60:	00000000 	nop
bfc01c64:	3c082ce5 	lui	t0,0x2ce5
bfc01c68:	35088824 	ori	t0,t0,0x8824
bfc01c6c:	24090000 	li	t1,0
bfc01c70:	0109802a 	slt	s0,t0,t1
bfc01c74:	24120000 	li	s2,0
bfc01c78:	161201e4 	bne	s0,s2,bfc0240c <inst_error>
bfc01c7c:	00000000 	nop
bfc01c80:	3c08f7b9 	lui	t0,0xf7b9
bfc01c84:	3508f678 	ori	t0,t0,0xf678
bfc01c88:	24090000 	li	t1,0
bfc01c8c:	0109802a 	slt	s0,t0,t1
bfc01c90:	24120001 	li	s2,1
bfc01c94:	161201dd 	bne	s0,s2,bfc0240c <inst_error>
bfc01c98:	00000000 	nop
bfc01c9c:	3c080750 	lui	t0,0x750
bfc01ca0:	35086bdc 	ori	t0,t0,0x6bdc
bfc01ca4:	24090000 	li	t1,0
bfc01ca8:	0109802a 	slt	s0,t0,t1
bfc01cac:	24120000 	li	s2,0
bfc01cb0:	161201d6 	bne	s0,s2,bfc0240c <inst_error>
bfc01cb4:	00000000 	nop
bfc01cb8:	3c08c77b 	lui	t0,0xc77b
bfc01cbc:	350850d8 	ori	t0,t0,0x50d8
bfc01cc0:	24090000 	li	t1,0
bfc01cc4:	0109802a 	slt	s0,t0,t1
bfc01cc8:	24120001 	li	s2,1
bfc01ccc:	161201cf 	bne	s0,s2,bfc0240c <inst_error>
bfc01cd0:	00000000 	nop
bfc01cd4:	3c08cb16 	lui	t0,0xcb16
bfc01cd8:	35080968 	ori	t0,t0,0x968
bfc01cdc:	24090000 	li	t1,0
bfc01ce0:	0109802a 	slt	s0,t0,t1
bfc01ce4:	24120001 	li	s2,1
bfc01ce8:	161201c8 	bne	s0,s2,bfc0240c <inst_error>
bfc01cec:	00000000 	nop
bfc01cf0:	3c0838bc 	lui	t0,0x38bc
bfc01cf4:	3508c2a0 	ori	t0,t0,0xc2a0
bfc01cf8:	24090000 	li	t1,0
bfc01cfc:	0109802a 	slt	s0,t0,t1
bfc01d00:	24120000 	li	s2,0
bfc01d04:	161201c1 	bne	s0,s2,bfc0240c <inst_error>
bfc01d08:	00000000 	nop
bfc01d0c:	3c08129d 	lui	t0,0x129d
bfc01d10:	350890d0 	ori	t0,t0,0x90d0
bfc01d14:	24090000 	li	t1,0
bfc01d18:	0109802a 	slt	s0,t0,t1
bfc01d1c:	24120000 	li	s2,0
bfc01d20:	161201ba 	bne	s0,s2,bfc0240c <inst_error>
bfc01d24:	00000000 	nop
bfc01d28:	3c08065e 	lui	t0,0x65e
bfc01d2c:	350862f6 	ori	t0,t0,0x62f6
bfc01d30:	24090000 	li	t1,0
bfc01d34:	0109802a 	slt	s0,t0,t1
bfc01d38:	24120000 	li	s2,0
bfc01d3c:	161201b3 	bne	s0,s2,bfc0240c <inst_error>
bfc01d40:	00000000 	nop
bfc01d44:	3c085e78 	lui	t0,0x5e78
bfc01d48:	35088c89 	ori	t0,t0,0x8c89
bfc01d4c:	24090000 	li	t1,0
bfc01d50:	0109802a 	slt	s0,t0,t1
bfc01d54:	24120000 	li	s2,0
bfc01d58:	161201ac 	bne	s0,s2,bfc0240c <inst_error>
bfc01d5c:	00000000 	nop
bfc01d60:	3c08a352 	lui	t0,0xa352
bfc01d64:	3508188e 	ori	t0,t0,0x188e
bfc01d68:	24090000 	li	t1,0
bfc01d6c:	0109802a 	slt	s0,t0,t1
bfc01d70:	24120001 	li	s2,1
bfc01d74:	161201a5 	bne	s0,s2,bfc0240c <inst_error>
bfc01d78:	00000000 	nop
bfc01d7c:	3c08e65e 	lui	t0,0xe65e
bfc01d80:	35088524 	ori	t0,t0,0x8524
bfc01d84:	24090000 	li	t1,0
bfc01d88:	0109802a 	slt	s0,t0,t1
bfc01d8c:	24120001 	li	s2,1
bfc01d90:	1612019e 	bne	s0,s2,bfc0240c <inst_error>
bfc01d94:	00000000 	nop
bfc01d98:	3c08d0bc 	lui	t0,0xd0bc
bfc01d9c:	350831b7 	ori	t0,t0,0x31b7
bfc01da0:	24090000 	li	t1,0
bfc01da4:	0109802a 	slt	s0,t0,t1
bfc01da8:	24120001 	li	s2,1
bfc01dac:	16120197 	bne	s0,s2,bfc0240c <inst_error>
bfc01db0:	00000000 	nop
bfc01db4:	3c082f48 	lui	t0,0x2f48
bfc01db8:	35087740 	ori	t0,t0,0x7740
bfc01dbc:	24090000 	li	t1,0
bfc01dc0:	0109802a 	slt	s0,t0,t1
bfc01dc4:	24120000 	li	s2,0
bfc01dc8:	16120190 	bne	s0,s2,bfc0240c <inst_error>
bfc01dcc:	00000000 	nop
bfc01dd0:	3c088d5b 	lui	t0,0x8d5b
bfc01dd4:	3508987c 	ori	t0,t0,0x987c
bfc01dd8:	24090000 	li	t1,0
bfc01ddc:	0109802a 	slt	s0,t0,t1
bfc01de0:	24120001 	li	s2,1
bfc01de4:	16120189 	bne	s0,s2,bfc0240c <inst_error>
bfc01de8:	00000000 	nop
bfc01dec:	3c087554 	lui	t0,0x7554
bfc01df0:	35089d23 	ori	t0,t0,0x9d23
bfc01df4:	24090000 	li	t1,0
bfc01df8:	0109802a 	slt	s0,t0,t1
bfc01dfc:	24120000 	li	s2,0
bfc01e00:	16120182 	bne	s0,s2,bfc0240c <inst_error>
bfc01e04:	00000000 	nop
bfc01e08:	3c08d8a4 	lui	t0,0xd8a4
bfc01e0c:	3508d670 	ori	t0,t0,0xd670
bfc01e10:	24090000 	li	t1,0
bfc01e14:	0109802a 	slt	s0,t0,t1
bfc01e18:	24120001 	li	s2,1
bfc01e1c:	1612017b 	bne	s0,s2,bfc0240c <inst_error>
bfc01e20:	00000000 	nop
bfc01e24:	3c08a83f 	lui	t0,0xa83f
bfc01e28:	35086648 	ori	t0,t0,0x6648
bfc01e2c:	24090000 	li	t1,0
bfc01e30:	0109802a 	slt	s0,t0,t1
bfc01e34:	24120001 	li	s2,1
bfc01e38:	16120174 	bne	s0,s2,bfc0240c <inst_error>
bfc01e3c:	00000000 	nop
bfc01e40:	3c086cde 	lui	t0,0x6cde
bfc01e44:	3508b568 	ori	t0,t0,0xb568
bfc01e48:	24090000 	li	t1,0
bfc01e4c:	0109802a 	slt	s0,t0,t1
bfc01e50:	24120000 	li	s2,0
bfc01e54:	1612016d 	bne	s0,s2,bfc0240c <inst_error>
bfc01e58:	00000000 	nop
bfc01e5c:	3c08f630 	lui	t0,0xf630
bfc01e60:	35081a6b 	ori	t0,t0,0x1a6b
bfc01e64:	24090000 	li	t1,0
bfc01e68:	0109802a 	slt	s0,t0,t1
bfc01e6c:	24120001 	li	s2,1
bfc01e70:	16120166 	bne	s0,s2,bfc0240c <inst_error>
bfc01e74:	00000000 	nop
bfc01e78:	24080000 	li	t0,0
bfc01e7c:	3c09f5be 	lui	t1,0xf5be
bfc01e80:	35296ec0 	ori	t1,t1,0x6ec0
bfc01e84:	0109802a 	slt	s0,t0,t1
bfc01e88:	24120000 	li	s2,0
bfc01e8c:	1612015f 	bne	s0,s2,bfc0240c <inst_error>
bfc01e90:	00000000 	nop
bfc01e94:	24080000 	li	t0,0
bfc01e98:	3c0953d8 	lui	t1,0x53d8
bfc01e9c:	3529f59e 	ori	t1,t1,0xf59e
bfc01ea0:	0109802a 	slt	s0,t0,t1
bfc01ea4:	24120001 	li	s2,1
bfc01ea8:	16120158 	bne	s0,s2,bfc0240c <inst_error>
bfc01eac:	00000000 	nop
bfc01eb0:	24080000 	li	t0,0
bfc01eb4:	3c0952f3 	lui	t1,0x52f3
bfc01eb8:	35292126 	ori	t1,t1,0x2126
bfc01ebc:	0109802a 	slt	s0,t0,t1
bfc01ec0:	24120001 	li	s2,1
bfc01ec4:	16120151 	bne	s0,s2,bfc0240c <inst_error>
bfc01ec8:	00000000 	nop
bfc01ecc:	24080000 	li	t0,0
bfc01ed0:	3c0941f2 	lui	t1,0x41f2
bfc01ed4:	3529b97b 	ori	t1,t1,0xb97b
bfc01ed8:	0109802a 	slt	s0,t0,t1
bfc01edc:	24120001 	li	s2,1
bfc01ee0:	1612014a 	bne	s0,s2,bfc0240c <inst_error>
bfc01ee4:	00000000 	nop
bfc01ee8:	24080000 	li	t0,0
bfc01eec:	3c09683f 	lui	t1,0x683f
bfc01ef0:	35296c40 	ori	t1,t1,0x6c40
bfc01ef4:	0109802a 	slt	s0,t0,t1
bfc01ef8:	24120001 	li	s2,1
bfc01efc:	16120143 	bne	s0,s2,bfc0240c <inst_error>
bfc01f00:	00000000 	nop
bfc01f04:	24080000 	li	t0,0
bfc01f08:	3c093606 	lui	t1,0x3606
bfc01f0c:	352945fc 	ori	t1,t1,0x45fc
bfc01f10:	0109802a 	slt	s0,t0,t1
bfc01f14:	24120001 	li	s2,1
bfc01f18:	1612013c 	bne	s0,s2,bfc0240c <inst_error>
bfc01f1c:	00000000 	nop
bfc01f20:	24080000 	li	t0,0
bfc01f24:	3c09f62d 	lui	t1,0xf62d
bfc01f28:	352916b8 	ori	t1,t1,0x16b8
bfc01f2c:	0109802a 	slt	s0,t0,t1
bfc01f30:	24120000 	li	s2,0
bfc01f34:	16120135 	bne	s0,s2,bfc0240c <inst_error>
bfc01f38:	00000000 	nop
bfc01f3c:	24080000 	li	t0,0
bfc01f40:	3c096716 	lui	t1,0x6716
bfc01f44:	3529d95a 	ori	t1,t1,0xd95a
bfc01f48:	0109802a 	slt	s0,t0,t1
bfc01f4c:	24120001 	li	s2,1
bfc01f50:	1612012e 	bne	s0,s2,bfc0240c <inst_error>
bfc01f54:	00000000 	nop
bfc01f58:	24080000 	li	t0,0
bfc01f5c:	3c091cbb 	lui	t1,0x1cbb
bfc01f60:	3529e8e0 	ori	t1,t1,0xe8e0
bfc01f64:	0109802a 	slt	s0,t0,t1
bfc01f68:	24120001 	li	s2,1
bfc01f6c:	16120127 	bne	s0,s2,bfc0240c <inst_error>
bfc01f70:	00000000 	nop
bfc01f74:	24080000 	li	t0,0
bfc01f78:	3c0950af 	lui	t1,0x50af
bfc01f7c:	35297c19 	ori	t1,t1,0x7c19
bfc01f80:	0109802a 	slt	s0,t0,t1
bfc01f84:	24120001 	li	s2,1
bfc01f88:	16120120 	bne	s0,s2,bfc0240c <inst_error>
bfc01f8c:	00000000 	nop
bfc01f90:	24080000 	li	t0,0
bfc01f94:	3c09ca5f 	lui	t1,0xca5f
bfc01f98:	3529cc56 	ori	t1,t1,0xcc56
bfc01f9c:	0109802a 	slt	s0,t0,t1
bfc01fa0:	24120000 	li	s2,0
bfc01fa4:	16120119 	bne	s0,s2,bfc0240c <inst_error>
bfc01fa8:	00000000 	nop
bfc01fac:	24080000 	li	t0,0
bfc01fb0:	3c09cbc1 	lui	t1,0xcbc1
bfc01fb4:	35291c94 	ori	t1,t1,0x1c94
bfc01fb8:	0109802a 	slt	s0,t0,t1
bfc01fbc:	24120000 	li	s2,0
bfc01fc0:	16120112 	bne	s0,s2,bfc0240c <inst_error>
bfc01fc4:	00000000 	nop
bfc01fc8:	24080000 	li	t0,0
bfc01fcc:	3c09ca1d 	lui	t1,0xca1d
bfc01fd0:	35293200 	ori	t1,t1,0x3200
bfc01fd4:	0109802a 	slt	s0,t0,t1
bfc01fd8:	24120000 	li	s2,0
bfc01fdc:	1612010b 	bne	s0,s2,bfc0240c <inst_error>
bfc01fe0:	00000000 	nop
bfc01fe4:	24080000 	li	t0,0
bfc01fe8:	3c09d8f7 	lui	t1,0xd8f7
bfc01fec:	352938f4 	ori	t1,t1,0x38f4
bfc01ff0:	0109802a 	slt	s0,t0,t1
bfc01ff4:	24120000 	li	s2,0
bfc01ff8:	16120104 	bne	s0,s2,bfc0240c <inst_error>
bfc01ffc:	00000000 	nop
bfc02000:	24080000 	li	t0,0
bfc02004:	3c09e5cb 	lui	t1,0xe5cb
bfc02008:	3529fc48 	ori	t1,t1,0xfc48
bfc0200c:	0109802a 	slt	s0,t0,t1
bfc02010:	24120000 	li	s2,0
bfc02014:	161200fd 	bne	s0,s2,bfc0240c <inst_error>
bfc02018:	00000000 	nop
bfc0201c:	24080000 	li	t0,0
bfc02020:	3c098648 	lui	t1,0x8648
bfc02024:	35298790 	ori	t1,t1,0x8790
bfc02028:	0109802a 	slt	s0,t0,t1
bfc0202c:	24120000 	li	s2,0
bfc02030:	161200f6 	bne	s0,s2,bfc0240c <inst_error>
bfc02034:	00000000 	nop
bfc02038:	24080000 	li	t0,0
bfc0203c:	3c098656 	lui	t1,0x8656
bfc02040:	3529b970 	ori	t1,t1,0xb970
bfc02044:	0109802a 	slt	s0,t0,t1
bfc02048:	24120000 	li	s2,0
bfc0204c:	161200ef 	bne	s0,s2,bfc0240c <inst_error>
bfc02050:	00000000 	nop
bfc02054:	24080000 	li	t0,0
bfc02058:	3c095bfc 	lui	t1,0x5bfc
bfc0205c:	3529c9bc 	ori	t1,t1,0xc9bc
bfc02060:	0109802a 	slt	s0,t0,t1
bfc02064:	24120001 	li	s2,1
bfc02068:	161200e8 	bne	s0,s2,bfc0240c <inst_error>
bfc0206c:	00000000 	nop
bfc02070:	24080000 	li	t0,0
bfc02074:	3c09b6db 	lui	t1,0xb6db
bfc02078:	352964ea 	ori	t1,t1,0x64ea
bfc0207c:	0109802a 	slt	s0,t0,t1
bfc02080:	24120000 	li	s2,0
bfc02084:	161200e1 	bne	s0,s2,bfc0240c <inst_error>
bfc02088:	00000000 	nop
bfc0208c:	24080000 	li	t0,0
bfc02090:	3c099220 	lui	t1,0x9220
bfc02094:	352988ec 	ori	t1,t1,0x88ec
bfc02098:	0109802a 	slt	s0,t0,t1
bfc0209c:	24120000 	li	s2,0
bfc020a0:	161200da 	bne	s0,s2,bfc0240c <inst_error>
bfc020a4:	00000000 	nop
bfc020a8:	24080000 	li	t0,0
bfc020ac:	3c09c83b 	lui	t1,0xc83b
bfc020b0:	35294d00 	ori	t1,t1,0x4d00
bfc020b4:	0109802a 	slt	s0,t0,t1
bfc020b8:	24120000 	li	s2,0
bfc020bc:	161200d3 	bne	s0,s2,bfc0240c <inst_error>
bfc020c0:	00000000 	nop
bfc020c4:	24080000 	li	t0,0
bfc020c8:	3c095522 	lui	t1,0x5522
bfc020cc:	35290662 	ori	t1,t1,0x662
bfc020d0:	0109802a 	slt	s0,t0,t1
bfc020d4:	24120001 	li	s2,1
bfc020d8:	161200cc 	bne	s0,s2,bfc0240c <inst_error>
bfc020dc:	00000000 	nop
bfc020e0:	24080000 	li	t0,0
bfc020e4:	3c099d4c 	lui	t1,0x9d4c
bfc020e8:	3529d880 	ori	t1,t1,0xd880
bfc020ec:	0109802a 	slt	s0,t0,t1
bfc020f0:	24120000 	li	s2,0
bfc020f4:	161200c5 	bne	s0,s2,bfc0240c <inst_error>
bfc020f8:	00000000 	nop
bfc020fc:	24080000 	li	t0,0
bfc02100:	3c09fead 	lui	t1,0xfead
bfc02104:	3529ede4 	ori	t1,t1,0xede4
bfc02108:	0109802a 	slt	s0,t0,t1
bfc0210c:	24120000 	li	s2,0
bfc02110:	161200be 	bne	s0,s2,bfc0240c <inst_error>
bfc02114:	00000000 	nop
bfc02118:	24080000 	li	t0,0
bfc0211c:	3c095b06 	lui	t1,0x5b06
bfc02120:	352955f0 	ori	t1,t1,0x55f0
bfc02124:	0109802a 	slt	s0,t0,t1
bfc02128:	24120001 	li	s2,1
bfc0212c:	161200b7 	bne	s0,s2,bfc0240c <inst_error>
bfc02130:	00000000 	nop
bfc02134:	24080000 	li	t0,0
bfc02138:	3c096f62 	lui	t1,0x6f62
bfc0213c:	3529a25a 	ori	t1,t1,0xa25a
bfc02140:	0109802a 	slt	s0,t0,t1
bfc02144:	24120001 	li	s2,1
bfc02148:	161200b0 	bne	s0,s2,bfc0240c <inst_error>
bfc0214c:	00000000 	nop
bfc02150:	24080000 	li	t0,0
bfc02154:	3c09d670 	lui	t1,0xd670
bfc02158:	35298430 	ori	t1,t1,0x8430
bfc0215c:	0109802a 	slt	s0,t0,t1
bfc02160:	24120000 	li	s2,0
bfc02164:	161200a9 	bne	s0,s2,bfc0240c <inst_error>
bfc02168:	00000000 	nop
bfc0216c:	24080000 	li	t0,0
bfc02170:	3c0980f3 	lui	t1,0x80f3
bfc02174:	3529902f 	ori	t1,t1,0x902f
bfc02178:	0109802a 	slt	s0,t0,t1
bfc0217c:	24120000 	li	s2,0
bfc02180:	161200a2 	bne	s0,s2,bfc0240c <inst_error>
bfc02184:	00000000 	nop
bfc02188:	24080000 	li	t0,0
bfc0218c:	3c097a73 	lui	t1,0x7a73
bfc02190:	35296260 	ori	t1,t1,0x6260
bfc02194:	0109802a 	slt	s0,t0,t1
bfc02198:	24120001 	li	s2,1
bfc0219c:	1612009b 	bne	s0,s2,bfc0240c <inst_error>
bfc021a0:	00000000 	nop
bfc021a4:	24080000 	li	t0,0
bfc021a8:	3c09b430 	lui	t1,0xb430
bfc021ac:	35296670 	ori	t1,t1,0x6670
bfc021b0:	0109802a 	slt	s0,t0,t1
bfc021b4:	24120000 	li	s2,0
bfc021b8:	16120094 	bne	s0,s2,bfc0240c <inst_error>
bfc021bc:	00000000 	nop
bfc021c0:	24080000 	li	t0,0
bfc021c4:	3c097590 	lui	t1,0x7590
bfc021c8:	35292d10 	ori	t1,t1,0x2d10
bfc021cc:	0109802a 	slt	s0,t0,t1
bfc021d0:	24120001 	li	s2,1
bfc021d4:	1612008d 	bne	s0,s2,bfc0240c <inst_error>
bfc021d8:	00000000 	nop
bfc021dc:	24080000 	li	t0,0
bfc021e0:	3c0957ce 	lui	t1,0x57ce
bfc021e4:	35291300 	ori	t1,t1,0x1300
bfc021e8:	0109802a 	slt	s0,t0,t1
bfc021ec:	24120001 	li	s2,1
bfc021f0:	16120086 	bne	s0,s2,bfc0240c <inst_error>
bfc021f4:	00000000 	nop
bfc021f8:	24080000 	li	t0,0
bfc021fc:	3c098fb2 	lui	t1,0x8fb2
bfc02200:	35296858 	ori	t1,t1,0x6858
bfc02204:	0109802a 	slt	s0,t0,t1
bfc02208:	24120000 	li	s2,0
bfc0220c:	1612007f 	bne	s0,s2,bfc0240c <inst_error>
bfc02210:	00000000 	nop
bfc02214:	24080000 	li	t0,0
bfc02218:	3c094157 	lui	t1,0x4157
bfc0221c:	35291b78 	ori	t1,t1,0x1b78
bfc02220:	0109802a 	slt	s0,t0,t1
bfc02224:	24120001 	li	s2,1
bfc02228:	16120078 	bne	s0,s2,bfc0240c <inst_error>
bfc0222c:	00000000 	nop
bfc02230:	24080000 	li	t0,0
bfc02234:	3c09cd4e 	lui	t1,0xcd4e
bfc02238:	35297f83 	ori	t1,t1,0x7f83
bfc0223c:	0109802a 	slt	s0,t0,t1
bfc02240:	24120000 	li	s2,0
bfc02244:	16120071 	bne	s0,s2,bfc0240c <inst_error>
bfc02248:	00000000 	nop
bfc0224c:	24080000 	li	t0,0
bfc02250:	3c09d0ad 	lui	t1,0xd0ad
bfc02254:	3529fb3e 	ori	t1,t1,0xfb3e
bfc02258:	0109802a 	slt	s0,t0,t1
bfc0225c:	24120000 	li	s2,0
bfc02260:	1612006a 	bne	s0,s2,bfc0240c <inst_error>
bfc02264:	00000000 	nop
bfc02268:	24080000 	li	t0,0
bfc0226c:	3c094eea 	lui	t1,0x4eea
bfc02270:	3529ac70 	ori	t1,t1,0xac70
bfc02274:	0109802a 	slt	s0,t0,t1
bfc02278:	24120001 	li	s2,1
bfc0227c:	16120063 	bne	s0,s2,bfc0240c <inst_error>
bfc02280:	00000000 	nop
bfc02284:	24080000 	li	t0,0
bfc02288:	3c09e73b 	lui	t1,0xe73b
bfc0228c:	35299020 	ori	t1,t1,0x9020
bfc02290:	0109802a 	slt	s0,t0,t1
bfc02294:	24120000 	li	s2,0
bfc02298:	1612005c 	bne	s0,s2,bfc0240c <inst_error>
bfc0229c:	00000000 	nop
bfc022a0:	24080000 	li	t0,0
bfc022a4:	3c09a5e2 	lui	t1,0xa5e2
bfc022a8:	35290048 	ori	t1,t1,0x48
bfc022ac:	0109802a 	slt	s0,t0,t1
bfc022b0:	24120000 	li	s2,0
bfc022b4:	16120055 	bne	s0,s2,bfc0240c <inst_error>
bfc022b8:	00000000 	nop
bfc022bc:	24080000 	li	t0,0
bfc022c0:	3c094279 	lui	t1,0x4279
bfc022c4:	35297cc0 	ori	t1,t1,0x7cc0
bfc022c8:	0109802a 	slt	s0,t0,t1
bfc022cc:	24120001 	li	s2,1
bfc022d0:	1612004e 	bne	s0,s2,bfc0240c <inst_error>
bfc022d4:	00000000 	nop
bfc022d8:	24080000 	li	t0,0
bfc022dc:	3c09adbd 	lui	t1,0xadbd
bfc022e0:	352977cc 	ori	t1,t1,0x77cc
bfc022e4:	0109802a 	slt	s0,t0,t1
bfc022e8:	24120000 	li	s2,0
bfc022ec:	16120047 	bne	s0,s2,bfc0240c <inst_error>
bfc022f0:	00000000 	nop
bfc022f4:	24080000 	li	t0,0
bfc022f8:	3c096d99 	lui	t1,0x6d99
bfc022fc:	35291ca0 	ori	t1,t1,0x1ca0
bfc02300:	0109802a 	slt	s0,t0,t1
bfc02304:	24120001 	li	s2,1
bfc02308:	16120040 	bne	s0,s2,bfc0240c <inst_error>
bfc0230c:	00000000 	nop
bfc02310:	24080000 	li	t0,0
bfc02314:	3c095491 	lui	t1,0x5491
bfc02318:	3529c31e 	ori	t1,t1,0xc31e
bfc0231c:	0109802a 	slt	s0,t0,t1
bfc02320:	24120001 	li	s2,1
bfc02324:	16120039 	bne	s0,s2,bfc0240c <inst_error>
bfc02328:	00000000 	nop
bfc0232c:	24080000 	li	t0,0
bfc02330:	3c09b344 	lui	t1,0xb344
bfc02334:	35299120 	ori	t1,t1,0x9120
bfc02338:	0109802a 	slt	s0,t0,t1
bfc0233c:	24120000 	li	s2,0
bfc02340:	16120032 	bne	s0,s2,bfc0240c <inst_error>
bfc02344:	00000000 	nop
bfc02348:	24080000 	li	t0,0
bfc0234c:	3c09852c 	lui	t1,0x852c
bfc02350:	3529514a 	ori	t1,t1,0x514a
bfc02354:	0109802a 	slt	s0,t0,t1
bfc02358:	24120000 	li	s2,0
bfc0235c:	1612002b 	bne	s0,s2,bfc0240c <inst_error>
bfc02360:	00000000 	nop
bfc02364:	24080000 	li	t0,0
bfc02368:	3c090765 	lui	t1,0x765
bfc0236c:	352970f4 	ori	t1,t1,0x70f4
bfc02370:	0109802a 	slt	s0,t0,t1
bfc02374:	24120001 	li	s2,1
bfc02378:	16120024 	bne	s0,s2,bfc0240c <inst_error>
bfc0237c:	00000000 	nop
bfc02380:	24080000 	li	t0,0
bfc02384:	3c09ef17 	lui	t1,0xef17
bfc02388:	3529ce60 	ori	t1,t1,0xce60
bfc0238c:	0109802a 	slt	s0,t0,t1
bfc02390:	24120000 	li	s2,0
bfc02394:	1612001d 	bne	s0,s2,bfc0240c <inst_error>
bfc02398:	00000000 	nop
bfc0239c:	24080000 	li	t0,0
bfc023a0:	3c0936d4 	lui	t1,0x36d4
bfc023a4:	35293eb0 	ori	t1,t1,0x3eb0
bfc023a8:	0109802a 	slt	s0,t0,t1
bfc023ac:	24120001 	li	s2,1
bfc023b0:	16120016 	bne	s0,s2,bfc0240c <inst_error>
bfc023b4:	00000000 	nop
bfc023b8:	24080000 	li	t0,0
bfc023bc:	3c091eaa 	lui	t1,0x1eaa
bfc023c0:	3529c5e3 	ori	t1,t1,0xc5e3
bfc023c4:	0109802a 	slt	s0,t0,t1
bfc023c8:	24120001 	li	s2,1
bfc023cc:	1612000f 	bne	s0,s2,bfc0240c <inst_error>
bfc023d0:	00000000 	nop
bfc023d4:	24080000 	li	t0,0
bfc023d8:	3c09b566 	lui	t1,0xb566
bfc023dc:	3529662b 	ori	t1,t1,0x662b
bfc023e0:	0109802a 	slt	s0,t0,t1
bfc023e4:	24120000 	li	s2,0
bfc023e8:	16120008 	bne	s0,s2,bfc0240c <inst_error>
bfc023ec:	00000000 	nop
bfc023f0:	24080000 	li	t0,0
bfc023f4:	24090000 	li	t1,0
bfc023f8:	0109802a 	slt	s0,t0,t1
bfc023fc:	24120000 	li	s2,0
bfc02400:	16120002 	bne	s0,s2,bfc0240c <inst_error>
bfc02404:	00000000 	nop
bfc02408:	4a000000 	c2	0x0

bfc0240c <inst_error>:
inst_error():
bfc0240c:	0000003f 	0x3f

Disassembly of section .reginfo:

00000000 <.reginfo>:
   0:	00050300 	sll	zero,a1,0xc
	...
