
build/slti:     file format elf32-tradlittlemips
build/slti


Disassembly of section .text:

bfc00000 <main>:
bfc00000:	3c08d9d1 	lui	t0,0xd9d1
bfc00004:	350829b5 	ori	t0,t0,0x29b5
bfc00008:	24090988 	li	t1,2440
bfc0000c:	29100988 	slti	s0,t0,2440
bfc00010:	24120001 	li	s2,1
bfc00014:	16120803 	bne	s0,s2,bfc02024 <inst_error>
bfc00018:	00000000 	nop
bfc0001c:	3c08bc13 	lui	t0,0xbc13
bfc00020:	3508c90c 	ori	t0,t0,0xc90c
bfc00024:	3409a5e9 	li	t1,0xa5e9
bfc00028:	2910a5e9 	slti	s0,t0,-23063
bfc0002c:	24120001 	li	s2,1
bfc00030:	161207fc 	bne	s0,s2,bfc02024 <inst_error>
bfc00034:	00000000 	nop
bfc00038:	3c089c7c 	lui	t0,0x9c7c
bfc0003c:	35088fa6 	ori	t0,t0,0x8fa6
bfc00040:	24096db8 	li	t1,28088
bfc00044:	29106db8 	slti	s0,t0,28088
bfc00048:	24120001 	li	s2,1
bfc0004c:	161207f5 	bne	s0,s2,bfc02024 <inst_error>
bfc00050:	00000000 	nop
bfc00054:	3c08fa9c 	lui	t0,0xfa9c
bfc00058:	35088750 	ori	t0,t0,0x8750
bfc0005c:	240937fe 	li	t1,14334
bfc00060:	291037fe 	slti	s0,t0,14334
bfc00064:	24120001 	li	s2,1
bfc00068:	161207ee 	bne	s0,s2,bfc02024 <inst_error>
bfc0006c:	00000000 	nop
bfc00070:	3c085a57 	lui	t0,0x5a57
bfc00074:	350823dc 	ori	t0,t0,0x23dc
bfc00078:	24095220 	li	t1,21024
bfc0007c:	29105220 	slti	s0,t0,21024
bfc00080:	24120000 	li	s2,0
bfc00084:	161207e7 	bne	s0,s2,bfc02024 <inst_error>
bfc00088:	00000000 	nop
bfc0008c:	3c083bdd 	lui	t0,0x3bdd
bfc00090:	3508b5bc 	ori	t0,t0,0xb5bc
bfc00094:	24091444 	li	t1,5188
bfc00098:	29101444 	slti	s0,t0,5188
bfc0009c:	24120000 	li	s2,0
bfc000a0:	161207e0 	bne	s0,s2,bfc02024 <inst_error>
bfc000a4:	00000000 	nop
bfc000a8:	3c08f3dc 	lui	t0,0xf3dc
bfc000ac:	3508cb50 	ori	t0,t0,0xcb50
bfc000b0:	240933fb 	li	t1,13307
bfc000b4:	291033fb 	slti	s0,t0,13307
bfc000b8:	24120001 	li	s2,1
bfc000bc:	161207d9 	bne	s0,s2,bfc02024 <inst_error>
bfc000c0:	00000000 	nop
bfc000c4:	3c08db8e 	lui	t0,0xdb8e
bfc000c8:	35085d8c 	ori	t0,t0,0x5d8c
bfc000cc:	3409d516 	li	t1,0xd516
bfc000d0:	2910d516 	slti	s0,t0,-10986
bfc000d4:	24120001 	li	s2,1
bfc000d8:	161207d2 	bne	s0,s2,bfc02024 <inst_error>
bfc000dc:	00000000 	nop
bfc000e0:	3c081da0 	lui	t0,0x1da0
bfc000e4:	35088490 	ori	t0,t0,0x8490
bfc000e8:	24094dfc 	li	t1,19964
bfc000ec:	29104dfc 	slti	s0,t0,19964
bfc000f0:	24120000 	li	s2,0
bfc000f4:	161207cb 	bne	s0,s2,bfc02024 <inst_error>
bfc000f8:	00000000 	nop
bfc000fc:	3c088e7b 	lui	t0,0x8e7b
bfc00100:	35081468 	ori	t0,t0,0x1468
bfc00104:	3409efa2 	li	t1,0xefa2
bfc00108:	2910efa2 	slti	s0,t0,-4190
bfc0010c:	24120001 	li	s2,1
bfc00110:	161207c4 	bne	s0,s2,bfc02024 <inst_error>
bfc00114:	00000000 	nop
bfc00118:	3c08aa24 	lui	t0,0xaa24
bfc0011c:	350875a4 	ori	t0,t0,0x75a4
bfc00120:	34098422 	li	t1,0x8422
bfc00124:	29108422 	slti	s0,t0,-31710
bfc00128:	24120001 	li	s2,1
bfc0012c:	161207bd 	bne	s0,s2,bfc02024 <inst_error>
bfc00130:	00000000 	nop
bfc00134:	3c08aafd 	lui	t0,0xaafd
bfc00138:	35082bb9 	ori	t0,t0,0x2bb9
bfc0013c:	24095940 	li	t1,22848
bfc00140:	29105940 	slti	s0,t0,22848
bfc00144:	24120001 	li	s2,1
bfc00148:	161207b6 	bne	s0,s2,bfc02024 <inst_error>
bfc0014c:	00000000 	nop
bfc00150:	3c08f19c 	lui	t0,0xf19c
bfc00154:	3508cee8 	ori	t0,t0,0xcee8
bfc00158:	3409ea93 	li	t1,0xea93
bfc0015c:	2910ea93 	slti	s0,t0,-5485
bfc00160:	24120001 	li	s2,1
bfc00164:	161207af 	bne	s0,s2,bfc02024 <inst_error>
bfc00168:	00000000 	nop
bfc0016c:	3c08ca73 	lui	t0,0xca73
bfc00170:	35085fec 	ori	t0,t0,0x5fec
bfc00174:	34099d80 	li	t1,0x9d80
bfc00178:	29109d80 	slti	s0,t0,-25216
bfc0017c:	24120001 	li	s2,1
bfc00180:	161207a8 	bne	s0,s2,bfc02024 <inst_error>
bfc00184:	00000000 	nop
bfc00188:	3c08c79b 	lui	t0,0xc79b
bfc0018c:	35089e5b 	ori	t0,t0,0x9e5b
bfc00190:	34099e28 	li	t1,0x9e28
bfc00194:	29109e28 	slti	s0,t0,-25048
bfc00198:	24120001 	li	s2,1
bfc0019c:	161207a1 	bne	s0,s2,bfc02024 <inst_error>
bfc001a0:	00000000 	nop
bfc001a4:	3c089e0a 	lui	t0,0x9e0a
bfc001a8:	35088c68 	ori	t0,t0,0x8c68
bfc001ac:	240973e6 	li	t1,29670
bfc001b0:	291073e6 	slti	s0,t0,29670
bfc001b4:	24120001 	li	s2,1
bfc001b8:	1612079a 	bne	s0,s2,bfc02024 <inst_error>
bfc001bc:	00000000 	nop
bfc001c0:	3c08d72d 	lui	t0,0xd72d
bfc001c4:	350813b0 	ori	t0,t0,0x13b0
bfc001c8:	3409d2b7 	li	t1,0xd2b7
bfc001cc:	2910d2b7 	slti	s0,t0,-11593
bfc001d0:	24120001 	li	s2,1
bfc001d4:	16120793 	bne	s0,s2,bfc02024 <inst_error>
bfc001d8:	00000000 	nop
bfc001dc:	3c085d7c 	lui	t0,0x5d7c
bfc001e0:	3508a028 	ori	t0,t0,0xa028
bfc001e4:	24097db1 	li	t1,32177
bfc001e8:	29107db1 	slti	s0,t0,32177
bfc001ec:	24120000 	li	s2,0
bfc001f0:	1612078c 	bne	s0,s2,bfc02024 <inst_error>
bfc001f4:	00000000 	nop
bfc001f8:	3c089bf7 	lui	t0,0x9bf7
bfc001fc:	3508ee64 	ori	t0,t0,0xee64
bfc00200:	24092669 	li	t1,9833
bfc00204:	29102669 	slti	s0,t0,9833
bfc00208:	24120001 	li	s2,1
bfc0020c:	16120785 	bne	s0,s2,bfc02024 <inst_error>
bfc00210:	00000000 	nop
bfc00214:	3c080d42 	lui	t0,0xd42
bfc00218:	35087626 	ori	t0,t0,0x7626
bfc0021c:	24090a20 	li	t1,2592
bfc00220:	29100a20 	slti	s0,t0,2592
bfc00224:	24120000 	li	s2,0
bfc00228:	1612077e 	bne	s0,s2,bfc02024 <inst_error>
bfc0022c:	00000000 	nop
bfc00230:	3c08032f 	lui	t0,0x32f
bfc00234:	3508acb0 	ori	t0,t0,0xacb0
bfc00238:	24092824 	li	t1,10276
bfc0023c:	29102824 	slti	s0,t0,10276
bfc00240:	24120000 	li	s2,0
bfc00244:	16120777 	bne	s0,s2,bfc02024 <inst_error>
bfc00248:	00000000 	nop
bfc0024c:	3c08a4e2 	lui	t0,0xa4e2
bfc00250:	3508d4d0 	ori	t0,t0,0xd4d0
bfc00254:	3409971a 	li	t1,0x971a
bfc00258:	2910971a 	slti	s0,t0,-26854
bfc0025c:	24120001 	li	s2,1
bfc00260:	16120770 	bne	s0,s2,bfc02024 <inst_error>
bfc00264:	00000000 	nop
bfc00268:	3c08e391 	lui	t0,0xe391
bfc0026c:	350803b2 	ori	t0,t0,0x3b2
bfc00270:	34099ee8 	li	t1,0x9ee8
bfc00274:	29109ee8 	slti	s0,t0,-24856
bfc00278:	24120001 	li	s2,1
bfc0027c:	16120769 	bne	s0,s2,bfc02024 <inst_error>
bfc00280:	00000000 	nop
bfc00284:	3c08b9de 	lui	t0,0xb9de
bfc00288:	3508dbd8 	ori	t0,t0,0xdbd8
bfc0028c:	24090ff6 	li	t1,4086
bfc00290:	29100ff6 	slti	s0,t0,4086
bfc00294:	24120001 	li	s2,1
bfc00298:	16120762 	bne	s0,s2,bfc02024 <inst_error>
bfc0029c:	00000000 	nop
bfc002a0:	3c086ade 	lui	t0,0x6ade
bfc002a4:	350805c0 	ori	t0,t0,0x5c0
bfc002a8:	24095342 	li	t1,21314
bfc002ac:	29105342 	slti	s0,t0,21314
bfc002b0:	24120000 	li	s2,0
bfc002b4:	1612075b 	bne	s0,s2,bfc02024 <inst_error>
bfc002b8:	00000000 	nop
bfc002bc:	3c08f098 	lui	t0,0xf098
bfc002c0:	350802fe 	ori	t0,t0,0x2fe
bfc002c4:	24096848 	li	t1,26696
bfc002c8:	29106848 	slti	s0,t0,26696
bfc002cc:	24120001 	li	s2,1
bfc002d0:	16120754 	bne	s0,s2,bfc02024 <inst_error>
bfc002d4:	00000000 	nop
bfc002d8:	3c0869ae 	lui	t0,0x69ae
bfc002dc:	35080890 	ori	t0,t0,0x890
bfc002e0:	24093c64 	li	t1,15460
bfc002e4:	29103c64 	slti	s0,t0,15460
bfc002e8:	24120000 	li	s2,0
bfc002ec:	1612074d 	bne	s0,s2,bfc02024 <inst_error>
bfc002f0:	00000000 	nop
bfc002f4:	3c089e94 	lui	t0,0x9e94
bfc002f8:	3508a558 	ori	t0,t0,0xa558
bfc002fc:	24096346 	li	t1,25414
bfc00300:	29106346 	slti	s0,t0,25414
bfc00304:	24120001 	li	s2,1
bfc00308:	16120746 	bne	s0,s2,bfc02024 <inst_error>
bfc0030c:	00000000 	nop
bfc00310:	3c08466f 	lui	t0,0x466f
bfc00314:	35082934 	ori	t0,t0,0x2934
bfc00318:	2409008c 	li	t1,140
bfc0031c:	2910008c 	slti	s0,t0,140
bfc00320:	24120000 	li	s2,0
bfc00324:	1612073f 	bne	s0,s2,bfc02024 <inst_error>
bfc00328:	00000000 	nop
bfc0032c:	3c080e10 	lui	t0,0xe10
bfc00330:	3508b5f4 	ori	t0,t0,0xb5f4
bfc00334:	3409b612 	li	t1,0xb612
bfc00338:	2910b612 	slti	s0,t0,-18926
bfc0033c:	24120000 	li	s2,0
bfc00340:	16120738 	bne	s0,s2,bfc02024 <inst_error>
bfc00344:	00000000 	nop
bfc00348:	3c083cbd 	lui	t0,0x3cbd
bfc0034c:	3508b4d8 	ori	t0,t0,0xb4d8
bfc00350:	3409ce48 	li	t1,0xce48
bfc00354:	2910ce48 	slti	s0,t0,-12728
bfc00358:	24120000 	li	s2,0
bfc0035c:	16120731 	bne	s0,s2,bfc02024 <inst_error>
bfc00360:	00000000 	nop
bfc00364:	3c0848c1 	lui	t0,0x48c1
bfc00368:	350839e4 	ori	t0,t0,0x39e4
bfc0036c:	240971fe 	li	t1,29182
bfc00370:	291071fe 	slti	s0,t0,29182
bfc00374:	24120000 	li	s2,0
bfc00378:	1612072a 	bne	s0,s2,bfc02024 <inst_error>
bfc0037c:	00000000 	nop
bfc00380:	3c08f124 	lui	t0,0xf124
bfc00384:	350895c0 	ori	t0,t0,0x95c0
bfc00388:	3409a276 	li	t1,0xa276
bfc0038c:	2910a276 	slti	s0,t0,-23946
bfc00390:	24120001 	li	s2,1
bfc00394:	16120723 	bne	s0,s2,bfc02024 <inst_error>
bfc00398:	00000000 	nop
bfc0039c:	3c08ee77 	lui	t0,0xee77
bfc003a0:	350879f8 	ori	t0,t0,0x79f8
bfc003a4:	24090846 	li	t1,2118
bfc003a8:	29100846 	slti	s0,t0,2118
bfc003ac:	24120001 	li	s2,1
bfc003b0:	1612071c 	bne	s0,s2,bfc02024 <inst_error>
bfc003b4:	00000000 	nop
bfc003b8:	3c088251 	lui	t0,0x8251
bfc003bc:	350871d4 	ori	t0,t0,0x71d4
bfc003c0:	240931aa 	li	t1,12714
bfc003c4:	291031aa 	slti	s0,t0,12714
bfc003c8:	24120001 	li	s2,1
bfc003cc:	16120715 	bne	s0,s2,bfc02024 <inst_error>
bfc003d0:	00000000 	nop
bfc003d4:	3c088693 	lui	t0,0x8693
bfc003d8:	350819b9 	ori	t0,t0,0x19b9
bfc003dc:	3409df80 	li	t1,0xdf80
bfc003e0:	2910df80 	slti	s0,t0,-8320
bfc003e4:	24120001 	li	s2,1
bfc003e8:	1612070e 	bne	s0,s2,bfc02024 <inst_error>
bfc003ec:	00000000 	nop
bfc003f0:	3c083030 	lui	t0,0x3030
bfc003f4:	35089ba0 	ori	t0,t0,0x9ba0
bfc003f8:	3409a60f 	li	t1,0xa60f
bfc003fc:	2910a60f 	slti	s0,t0,-23025
bfc00400:	24120000 	li	s2,0
bfc00404:	16120707 	bne	s0,s2,bfc02024 <inst_error>
bfc00408:	00000000 	nop
bfc0040c:	3c08e038 	lui	t0,0xe038
bfc00410:	350883f0 	ori	t0,t0,0x83f0
bfc00414:	3409f6e8 	li	t1,0xf6e8
bfc00418:	2910f6e8 	slti	s0,t0,-2328
bfc0041c:	24120001 	li	s2,1
bfc00420:	16120700 	bne	s0,s2,bfc02024 <inst_error>
bfc00424:	00000000 	nop
bfc00428:	3c08da55 	lui	t0,0xda55
bfc0042c:	3508bac8 	ori	t0,t0,0xbac8
bfc00430:	340995da 	li	t1,0x95da
bfc00434:	291095da 	slti	s0,t0,-27174
bfc00438:	24120001 	li	s2,1
bfc0043c:	161206f9 	bne	s0,s2,bfc02024 <inst_error>
bfc00440:	00000000 	nop
bfc00444:	3c08c6b8 	lui	t0,0xc6b8
bfc00448:	35087920 	ori	t0,t0,0x7920
bfc0044c:	3409bc64 	li	t1,0xbc64
bfc00450:	2910bc64 	slti	s0,t0,-17308
bfc00454:	24120001 	li	s2,1
bfc00458:	161206f2 	bne	s0,s2,bfc02024 <inst_error>
bfc0045c:	00000000 	nop
bfc00460:	3c0807ce 	lui	t0,0x7ce
bfc00464:	35083c21 	ori	t0,t0,0x3c21
bfc00468:	3409c0d0 	li	t1,0xc0d0
bfc0046c:	2910c0d0 	slti	s0,t0,-16176
bfc00470:	24120000 	li	s2,0
bfc00474:	161206eb 	bne	s0,s2,bfc02024 <inst_error>
bfc00478:	00000000 	nop
bfc0047c:	3c08aaf9 	lui	t0,0xaaf9
bfc00480:	35081929 	ori	t0,t0,0x1929
bfc00484:	24093e1c 	li	t1,15900
bfc00488:	29103e1c 	slti	s0,t0,15900
bfc0048c:	24120001 	li	s2,1
bfc00490:	161206e4 	bne	s0,s2,bfc02024 <inst_error>
bfc00494:	00000000 	nop
bfc00498:	3c08f6fd 	lui	t0,0xf6fd
bfc0049c:	35081f6c 	ori	t0,t0,0x1f6c
bfc004a0:	24095ab3 	li	t1,23219
bfc004a4:	29105ab3 	slti	s0,t0,23219
bfc004a8:	24120001 	li	s2,1
bfc004ac:	161206dd 	bne	s0,s2,bfc02024 <inst_error>
bfc004b0:	00000000 	nop
bfc004b4:	3c0823d6 	lui	t0,0x23d6
bfc004b8:	3508311c 	ori	t0,t0,0x311c
bfc004bc:	240940ab 	li	t1,16555
bfc004c0:	291040ab 	slti	s0,t0,16555
bfc004c4:	24120000 	li	s2,0
bfc004c8:	161206d6 	bne	s0,s2,bfc02024 <inst_error>
bfc004cc:	00000000 	nop
bfc004d0:	3c082f8f 	lui	t0,0x2f8f
bfc004d4:	3508cbc4 	ori	t0,t0,0xcbc4
bfc004d8:	3409a280 	li	t1,0xa280
bfc004dc:	2910a280 	slti	s0,t0,-23936
bfc004e0:	24120000 	li	s2,0
bfc004e4:	161206cf 	bne	s0,s2,bfc02024 <inst_error>
bfc004e8:	00000000 	nop
bfc004ec:	3c08b363 	lui	t0,0xb363
bfc004f0:	3508ac00 	ori	t0,t0,0xac00
bfc004f4:	2409261e 	li	t1,9758
bfc004f8:	2910261e 	slti	s0,t0,9758
bfc004fc:	24120001 	li	s2,1
bfc00500:	161206c8 	bne	s0,s2,bfc02024 <inst_error>
bfc00504:	00000000 	nop
bfc00508:	3c08d900 	lui	t0,0xd900
bfc0050c:	3508bca1 	ori	t0,t0,0xbca1
bfc00510:	24090764 	li	t1,1892
bfc00514:	29100764 	slti	s0,t0,1892
bfc00518:	24120001 	li	s2,1
bfc0051c:	161206c1 	bne	s0,s2,bfc02024 <inst_error>
bfc00520:	00000000 	nop
bfc00524:	3c08286a 	lui	t0,0x286a
bfc00528:	350822d8 	ori	t0,t0,0x22d8
bfc0052c:	24091cbf 	li	t1,7359
bfc00530:	29101cbf 	slti	s0,t0,7359
bfc00534:	24120000 	li	s2,0
bfc00538:	161206ba 	bne	s0,s2,bfc02024 <inst_error>
bfc0053c:	00000000 	nop
bfc00540:	3c084eb4 	lui	t0,0x4eb4
bfc00544:	35086b88 	ori	t0,t0,0x6b88
bfc00548:	3409ce78 	li	t1,0xce78
bfc0054c:	2910ce78 	slti	s0,t0,-12680
bfc00550:	24120000 	li	s2,0
bfc00554:	161206b3 	bne	s0,s2,bfc02024 <inst_error>
bfc00558:	00000000 	nop
bfc0055c:	3c08c1c2 	lui	t0,0xc1c2
bfc00560:	350879a0 	ori	t0,t0,0x79a0
bfc00564:	34099f30 	li	t1,0x9f30
bfc00568:	29109f30 	slti	s0,t0,-24784
bfc0056c:	24120001 	li	s2,1
bfc00570:	161206ac 	bne	s0,s2,bfc02024 <inst_error>
bfc00574:	00000000 	nop
bfc00578:	3c08aa47 	lui	t0,0xaa47
bfc0057c:	3508d640 	ori	t0,t0,0xd640
bfc00580:	24092fea 	li	t1,12266
bfc00584:	29102fea 	slti	s0,t0,12266
bfc00588:	24120001 	li	s2,1
bfc0058c:	161206a5 	bne	s0,s2,bfc02024 <inst_error>
bfc00590:	00000000 	nop
bfc00594:	3c082df2 	lui	t0,0x2df2
bfc00598:	35081920 	ori	t0,t0,0x1920
bfc0059c:	3409d1c6 	li	t1,0xd1c6
bfc005a0:	2910d1c6 	slti	s0,t0,-11834
bfc005a4:	24120000 	li	s2,0
bfc005a8:	1612069e 	bne	s0,s2,bfc02024 <inst_error>
bfc005ac:	00000000 	nop
bfc005b0:	3c0861aa 	lui	t0,0x61aa
bfc005b4:	3508b5a0 	ori	t0,t0,0xb5a0
bfc005b8:	3409c551 	li	t1,0xc551
bfc005bc:	2910c551 	slti	s0,t0,-15023
bfc005c0:	24120000 	li	s2,0
bfc005c4:	16120697 	bne	s0,s2,bfc02024 <inst_error>
bfc005c8:	00000000 	nop
bfc005cc:	3c088961 	lui	t0,0x8961
bfc005d0:	3508e1cc 	ori	t0,t0,0xe1cc
bfc005d4:	24094270 	li	t1,17008
bfc005d8:	29104270 	slti	s0,t0,17008
bfc005dc:	24120001 	li	s2,1
bfc005e0:	16120690 	bne	s0,s2,bfc02024 <inst_error>
bfc005e4:	00000000 	nop
bfc005e8:	3c089a57 	lui	t0,0x9a57
bfc005ec:	35085ae0 	ori	t0,t0,0x5ae0
bfc005f0:	34098d5d 	li	t1,0x8d5d
bfc005f4:	29108d5d 	slti	s0,t0,-29347
bfc005f8:	24120001 	li	s2,1
bfc005fc:	16120689 	bne	s0,s2,bfc02024 <inst_error>
bfc00600:	00000000 	nop
bfc00604:	3c086267 	lui	t0,0x6267
bfc00608:	3508e6c3 	ori	t0,t0,0xe6c3
bfc0060c:	24095e60 	li	t1,24160
bfc00610:	29105e60 	slti	s0,t0,24160
bfc00614:	24120000 	li	s2,0
bfc00618:	16120682 	bne	s0,s2,bfc02024 <inst_error>
bfc0061c:	00000000 	nop
bfc00620:	3c084707 	lui	t0,0x4707
bfc00624:	3508aae0 	ori	t0,t0,0xaae0
bfc00628:	24096813 	li	t1,26643
bfc0062c:	29106813 	slti	s0,t0,26643
bfc00630:	24120000 	li	s2,0
bfc00634:	1612067b 	bne	s0,s2,bfc02024 <inst_error>
bfc00638:	00000000 	nop
bfc0063c:	3c08df33 	lui	t0,0xdf33
bfc00640:	35088b11 	ori	t0,t0,0x8b11
bfc00644:	3409cc14 	li	t1,0xcc14
bfc00648:	2910cc14 	slti	s0,t0,-13292
bfc0064c:	24120001 	li	s2,1
bfc00650:	16120674 	bne	s0,s2,bfc02024 <inst_error>
bfc00654:	00000000 	nop
bfc00658:	3c0874a3 	lui	t0,0x74a3
bfc0065c:	350803d0 	ori	t0,t0,0x3d0
bfc00660:	24092e3f 	li	t1,11839
bfc00664:	29102e3f 	slti	s0,t0,11839
bfc00668:	24120000 	li	s2,0
bfc0066c:	1612066d 	bne	s0,s2,bfc02024 <inst_error>
bfc00670:	00000000 	nop
bfc00674:	3c089657 	lui	t0,0x9657
bfc00678:	3508c972 	ori	t0,t0,0xc972
bfc0067c:	2409436e 	li	t1,17262
bfc00680:	2910436e 	slti	s0,t0,17262
bfc00684:	24120001 	li	s2,1
bfc00688:	16120666 	bne	s0,s2,bfc02024 <inst_error>
bfc0068c:	00000000 	nop
bfc00690:	3c0828fe 	lui	t0,0x28fe
bfc00694:	3508c0a0 	ori	t0,t0,0xc0a0
bfc00698:	3409b2b8 	li	t1,0xb2b8
bfc0069c:	2910b2b8 	slti	s0,t0,-19784
bfc006a0:	24120000 	li	s2,0
bfc006a4:	1612065f 	bne	s0,s2,bfc02024 <inst_error>
bfc006a8:	00000000 	nop
bfc006ac:	3c08656d 	lui	t0,0x656d
bfc006b0:	350861a8 	ori	t0,t0,0x61a8
bfc006b4:	240946cc 	li	t1,18124
bfc006b8:	291046cc 	slti	s0,t0,18124
bfc006bc:	24120000 	li	s2,0
bfc006c0:	16120658 	bne	s0,s2,bfc02024 <inst_error>
bfc006c4:	00000000 	nop
bfc006c8:	3c08c2ff 	lui	t0,0xc2ff
bfc006cc:	35081fac 	ori	t0,t0,0x1fac
bfc006d0:	3409ac10 	li	t1,0xac10
bfc006d4:	2910ac10 	slti	s0,t0,-21488
bfc006d8:	24120001 	li	s2,1
bfc006dc:	16120651 	bne	s0,s2,bfc02024 <inst_error>
bfc006e0:	00000000 	nop
bfc006e4:	3c0899d8 	lui	t0,0x99d8
bfc006e8:	3508263c 	ori	t0,t0,0x263c
bfc006ec:	3409fced 	li	t1,0xfced
bfc006f0:	2910fced 	slti	s0,t0,-787
bfc006f4:	24120001 	li	s2,1
bfc006f8:	1612064a 	bne	s0,s2,bfc02024 <inst_error>
bfc006fc:	00000000 	nop
bfc00700:	3c082689 	lui	t0,0x2689
bfc00704:	350845ee 	ori	t0,t0,0x45ee
bfc00708:	3409fea4 	li	t1,0xfea4
bfc0070c:	2910fea4 	slti	s0,t0,-348
bfc00710:	24120000 	li	s2,0
bfc00714:	16120643 	bne	s0,s2,bfc02024 <inst_error>
bfc00718:	00000000 	nop
bfc0071c:	3c085d12 	lui	t0,0x5d12
bfc00720:	35085cfa 	ori	t0,t0,0x5cfa
bfc00724:	3409d3d8 	li	t1,0xd3d8
bfc00728:	2910d3d8 	slti	s0,t0,-11304
bfc0072c:	24120000 	li	s2,0
bfc00730:	1612063c 	bne	s0,s2,bfc02024 <inst_error>
bfc00734:	00000000 	nop
bfc00738:	3c08945f 	lui	t0,0x945f
bfc0073c:	3508eee4 	ori	t0,t0,0xeee4
bfc00740:	3409cc69 	li	t1,0xcc69
bfc00744:	2910cc69 	slti	s0,t0,-13207
bfc00748:	24120001 	li	s2,1
bfc0074c:	16120635 	bne	s0,s2,bfc02024 <inst_error>
bfc00750:	00000000 	nop
bfc00754:	3c08a125 	lui	t0,0xa125
bfc00758:	3508469a 	ori	t0,t0,0x469a
bfc0075c:	3409cb56 	li	t1,0xcb56
bfc00760:	2910cb56 	slti	s0,t0,-13482
bfc00764:	24120001 	li	s2,1
bfc00768:	1612062e 	bne	s0,s2,bfc02024 <inst_error>
bfc0076c:	00000000 	nop
bfc00770:	3c085b95 	lui	t0,0x5b95
bfc00774:	350804bd 	ori	t0,t0,0x4bd
bfc00778:	24095fc0 	li	t1,24512
bfc0077c:	29105fc0 	slti	s0,t0,24512
bfc00780:	24120000 	li	s2,0
bfc00784:	16120627 	bne	s0,s2,bfc02024 <inst_error>
bfc00788:	00000000 	nop
bfc0078c:	3c088bcf 	lui	t0,0x8bcf
bfc00790:	3508f665 	ori	t0,t0,0xf665
bfc00794:	24090581 	li	t1,1409
bfc00798:	29100581 	slti	s0,t0,1409
bfc0079c:	24120001 	li	s2,1
bfc007a0:	16120620 	bne	s0,s2,bfc02024 <inst_error>
bfc007a4:	00000000 	nop
bfc007a8:	3c0854ce 	lui	t0,0x54ce
bfc007ac:	35081638 	ori	t0,t0,0x1638
bfc007b0:	34099554 	li	t1,0x9554
bfc007b4:	29109554 	slti	s0,t0,-27308
bfc007b8:	24120000 	li	s2,0
bfc007bc:	16120619 	bne	s0,s2,bfc02024 <inst_error>
bfc007c0:	00000000 	nop
bfc007c4:	3c08d379 	lui	t0,0xd379
bfc007c8:	35088b40 	ori	t0,t0,0x8b40
bfc007cc:	3409eb88 	li	t1,0xeb88
bfc007d0:	2910eb88 	slti	s0,t0,-5240
bfc007d4:	24120001 	li	s2,1
bfc007d8:	16120612 	bne	s0,s2,bfc02024 <inst_error>
bfc007dc:	00000000 	nop
bfc007e0:	3c0865bf 	lui	t0,0x65bf
bfc007e4:	35083f80 	ori	t0,t0,0x3f80
bfc007e8:	24094b00 	li	t1,19200
bfc007ec:	29104b00 	slti	s0,t0,19200
bfc007f0:	24120000 	li	s2,0
bfc007f4:	1612060b 	bne	s0,s2,bfc02024 <inst_error>
bfc007f8:	00000000 	nop
bfc007fc:	3c087d70 	lui	t0,0x7d70
bfc00800:	35081d1c 	ori	t0,t0,0x1d1c
bfc00804:	34099914 	li	t1,0x9914
bfc00808:	29109914 	slti	s0,t0,-26348
bfc0080c:	24120000 	li	s2,0
bfc00810:	16120604 	bne	s0,s2,bfc02024 <inst_error>
bfc00814:	00000000 	nop
bfc00818:	3c082db1 	lui	t0,0x2db1
bfc0081c:	3508f790 	ori	t0,t0,0xf790
bfc00820:	24097714 	li	t1,30484
bfc00824:	29107714 	slti	s0,t0,30484
bfc00828:	24120000 	li	s2,0
bfc0082c:	161205fd 	bne	s0,s2,bfc02024 <inst_error>
bfc00830:	00000000 	nop
bfc00834:	3c087b1c 	lui	t0,0x7b1c
bfc00838:	3508d680 	ori	t0,t0,0xd680
bfc0083c:	34098140 	li	t1,0x8140
bfc00840:	29108140 	slti	s0,t0,-32448
bfc00844:	24120000 	li	s2,0
bfc00848:	161205f6 	bne	s0,s2,bfc02024 <inst_error>
bfc0084c:	00000000 	nop
bfc00850:	3c08e8dd 	lui	t0,0xe8dd
bfc00854:	3508eba8 	ori	t0,t0,0xeba8
bfc00858:	3409b670 	li	t1,0xb670
bfc0085c:	2910b670 	slti	s0,t0,-18832
bfc00860:	24120001 	li	s2,1
bfc00864:	161205ef 	bne	s0,s2,bfc02024 <inst_error>
bfc00868:	00000000 	nop
bfc0086c:	3c08fca7 	lui	t0,0xfca7
bfc00870:	35083e0c 	ori	t0,t0,0x3e0c
bfc00874:	3409dd77 	li	t1,0xdd77
bfc00878:	2910dd77 	slti	s0,t0,-8841
bfc0087c:	24120001 	li	s2,1
bfc00880:	161205e8 	bne	s0,s2,bfc02024 <inst_error>
bfc00884:	00000000 	nop
bfc00888:	3c0888de 	lui	t0,0x88de
bfc0088c:	35085aca 	ori	t0,t0,0x5aca
bfc00890:	3409948c 	li	t1,0x948c
bfc00894:	2910948c 	slti	s0,t0,-27508
bfc00898:	24120001 	li	s2,1
bfc0089c:	161205e1 	bne	s0,s2,bfc02024 <inst_error>
bfc008a0:	00000000 	nop
bfc008a4:	3c083997 	lui	t0,0x3997
bfc008a8:	3508a398 	ori	t0,t0,0xa398
bfc008ac:	3409eafe 	li	t1,0xeafe
bfc008b0:	2910eafe 	slti	s0,t0,-5378
bfc008b4:	24120000 	li	s2,0
bfc008b8:	161205da 	bne	s0,s2,bfc02024 <inst_error>
bfc008bc:	00000000 	nop
bfc008c0:	3c08d38a 	lui	t0,0xd38a
bfc008c4:	3508055e 	ori	t0,t0,0x55e
bfc008c8:	240933bd 	li	t1,13245
bfc008cc:	291033bd 	slti	s0,t0,13245
bfc008d0:	24120001 	li	s2,1
bfc008d4:	161205d3 	bne	s0,s2,bfc02024 <inst_error>
bfc008d8:	00000000 	nop
bfc008dc:	3c082758 	lui	t0,0x2758
bfc008e0:	3508c952 	ori	t0,t0,0xc952
bfc008e4:	24092af0 	li	t1,10992
bfc008e8:	29102af0 	slti	s0,t0,10992
bfc008ec:	24120000 	li	s2,0
bfc008f0:	161205cc 	bne	s0,s2,bfc02024 <inst_error>
bfc008f4:	00000000 	nop
bfc008f8:	3c086669 	lui	t0,0x6669
bfc008fc:	3508f950 	ori	t0,t0,0xf950
bfc00900:	3409ee01 	li	t1,0xee01
bfc00904:	2910ee01 	slti	s0,t0,-4607
bfc00908:	24120000 	li	s2,0
bfc0090c:	161205c5 	bne	s0,s2,bfc02024 <inst_error>
bfc00910:	00000000 	nop
bfc00914:	3c08ecf1 	lui	t0,0xecf1
bfc00918:	3508f250 	ori	t0,t0,0xf250
bfc0091c:	24097b70 	li	t1,31600
bfc00920:	29107b70 	slti	s0,t0,31600
bfc00924:	24120001 	li	s2,1
bfc00928:	161205be 	bne	s0,s2,bfc02024 <inst_error>
bfc0092c:	00000000 	nop
bfc00930:	3c08c583 	lui	t0,0xc583
bfc00934:	350846ba 	ori	t0,t0,0x46ba
bfc00938:	34098e9e 	li	t1,0x8e9e
bfc0093c:	29108e9e 	slti	s0,t0,-29026
bfc00940:	24120001 	li	s2,1
bfc00944:	161205b7 	bne	s0,s2,bfc02024 <inst_error>
bfc00948:	00000000 	nop
bfc0094c:	3c080a39 	lui	t0,0xa39
bfc00950:	350853d5 	ori	t0,t0,0x53d5
bfc00954:	24096808 	li	t1,26632
bfc00958:	29106808 	slti	s0,t0,26632
bfc0095c:	24120000 	li	s2,0
bfc00960:	161205b0 	bne	s0,s2,bfc02024 <inst_error>
bfc00964:	00000000 	nop
bfc00968:	3c08dcbf 	lui	t0,0xdcbf
bfc0096c:	350875c0 	ori	t0,t0,0x75c0
bfc00970:	24090376 	li	t1,886
bfc00974:	29100376 	slti	s0,t0,886
bfc00978:	24120001 	li	s2,1
bfc0097c:	161205a9 	bne	s0,s2,bfc02024 <inst_error>
bfc00980:	00000000 	nop
bfc00984:	3c089379 	lui	t0,0x9379
bfc00988:	350889cc 	ori	t0,t0,0x89cc
bfc0098c:	3409bf74 	li	t1,0xbf74
bfc00990:	2910bf74 	slti	s0,t0,-16524
bfc00994:	24120001 	li	s2,1
bfc00998:	161205a2 	bne	s0,s2,bfc02024 <inst_error>
bfc0099c:	00000000 	nop
bfc009a0:	3c08bcf1 	lui	t0,0xbcf1
bfc009a4:	3508d9f8 	ori	t0,t0,0xd9f8
bfc009a8:	24091bad 	li	t1,7085
bfc009ac:	29101bad 	slti	s0,t0,7085
bfc009b0:	24120001 	li	s2,1
bfc009b4:	1612059b 	bne	s0,s2,bfc02024 <inst_error>
bfc009b8:	00000000 	nop
bfc009bc:	3c083249 	lui	t0,0x3249
bfc009c0:	35084814 	ori	t0,t0,0x4814
bfc009c4:	2409573d 	li	t1,22333
bfc009c8:	2910573d 	slti	s0,t0,22333
bfc009cc:	24120000 	li	s2,0
bfc009d0:	16120594 	bne	s0,s2,bfc02024 <inst_error>
bfc009d4:	00000000 	nop
bfc009d8:	3c088597 	lui	t0,0x8597
bfc009dc:	3508e19d 	ori	t0,t0,0xe19d
bfc009e0:	24090c17 	li	t1,3095
bfc009e4:	29100c17 	slti	s0,t0,3095
bfc009e8:	24120001 	li	s2,1
bfc009ec:	1612058d 	bne	s0,s2,bfc02024 <inst_error>
bfc009f0:	00000000 	nop
bfc009f4:	3c08883c 	lui	t0,0x883c
bfc009f8:	35080c54 	ori	t0,t0,0xc54
bfc009fc:	24091848 	li	t1,6216
bfc00a00:	29101848 	slti	s0,t0,6216
bfc00a04:	24120001 	li	s2,1
bfc00a08:	16120586 	bne	s0,s2,bfc02024 <inst_error>
bfc00a0c:	00000000 	nop
bfc00a10:	3c08b8d3 	lui	t0,0xb8d3
bfc00a14:	3508b526 	ori	t0,t0,0xb526
bfc00a18:	3409f036 	li	t1,0xf036
bfc00a1c:	2910f036 	slti	s0,t0,-4042
bfc00a20:	24120001 	li	s2,1
bfc00a24:	1612057f 	bne	s0,s2,bfc02024 <inst_error>
bfc00a28:	00000000 	nop
bfc00a2c:	3c08cbc4 	lui	t0,0xcbc4
bfc00a30:	3508663a 	ori	t0,t0,0x663a
bfc00a34:	24091cfe 	li	t1,7422
bfc00a38:	29101cfe 	slti	s0,t0,7422
bfc00a3c:	24120001 	li	s2,1
bfc00a40:	16120578 	bne	s0,s2,bfc02024 <inst_error>
bfc00a44:	00000000 	nop
bfc00a48:	3c084426 	lui	t0,0x4426
bfc00a4c:	350828e4 	ori	t0,t0,0x28e4
bfc00a50:	24092076 	li	t1,8310
bfc00a54:	29102076 	slti	s0,t0,8310
bfc00a58:	24120000 	li	s2,0
bfc00a5c:	16120571 	bne	s0,s2,bfc02024 <inst_error>
bfc00a60:	00000000 	nop
bfc00a64:	3c08f53e 	lui	t0,0xf53e
bfc00a68:	35088868 	ori	t0,t0,0x8868
bfc00a6c:	340985e6 	li	t1,0x85e6
bfc00a70:	291085e6 	slti	s0,t0,-31258
bfc00a74:	24120001 	li	s2,1
bfc00a78:	1612056a 	bne	s0,s2,bfc02024 <inst_error>
bfc00a7c:	00000000 	nop
bfc00a80:	3c088348 	lui	t0,0x8348
bfc00a84:	3508eb10 	ori	t0,t0,0xeb10
bfc00a88:	3409d500 	li	t1,0xd500
bfc00a8c:	2910d500 	slti	s0,t0,-11008
bfc00a90:	24120001 	li	s2,1
bfc00a94:	16120563 	bne	s0,s2,bfc02024 <inst_error>
bfc00a98:	00000000 	nop
bfc00a9c:	3c08448b 	lui	t0,0x448b
bfc00aa0:	350860e0 	ori	t0,t0,0x60e0
bfc00aa4:	24093e51 	li	t1,15953
bfc00aa8:	29103e51 	slti	s0,t0,15953
bfc00aac:	24120000 	li	s2,0
bfc00ab0:	1612055c 	bne	s0,s2,bfc02024 <inst_error>
bfc00ab4:	00000000 	nop
bfc00ab8:	3c08b3e1 	lui	t0,0xb3e1
bfc00abc:	350852a2 	ori	t0,t0,0x52a2
bfc00ac0:	2409670d 	li	t1,26381
bfc00ac4:	2910670d 	slti	s0,t0,26381
bfc00ac8:	24120001 	li	s2,1
bfc00acc:	16120555 	bne	s0,s2,bfc02024 <inst_error>
bfc00ad0:	00000000 	nop
bfc00ad4:	3c08180c 	lui	t0,0x180c
bfc00ad8:	3508cff0 	ori	t0,t0,0xcff0
bfc00adc:	3409d60d 	li	t1,0xd60d
bfc00ae0:	2910d60d 	slti	s0,t0,-10739
bfc00ae4:	24120000 	li	s2,0
bfc00ae8:	1612054e 	bne	s0,s2,bfc02024 <inst_error>
bfc00aec:	00000000 	nop
bfc00af0:	3c083f22 	lui	t0,0x3f22
bfc00af4:	3508cb44 	ori	t0,t0,0xcb44
bfc00af8:	3409d1d2 	li	t1,0xd1d2
bfc00afc:	2910d1d2 	slti	s0,t0,-11822
bfc00b00:	24120000 	li	s2,0
bfc00b04:	16120547 	bne	s0,s2,bfc02024 <inst_error>
bfc00b08:	00000000 	nop
bfc00b0c:	3c08703f 	lui	t0,0x703f
bfc00b10:	35088a72 	ori	t0,t0,0x8a72
bfc00b14:	24094948 	li	t1,18760
bfc00b18:	29104948 	slti	s0,t0,18760
bfc00b1c:	24120000 	li	s2,0
bfc00b20:	16120540 	bne	s0,s2,bfc02024 <inst_error>
bfc00b24:	00000000 	nop
bfc00b28:	3c08df85 	lui	t0,0xdf85
bfc00b2c:	3508d006 	ori	t0,t0,0xd006
bfc00b30:	240976f1 	li	t1,30449
bfc00b34:	291076f1 	slti	s0,t0,30449
bfc00b38:	24120001 	li	s2,1
bfc00b3c:	16120539 	bne	s0,s2,bfc02024 <inst_error>
bfc00b40:	00000000 	nop
bfc00b44:	3c089407 	lui	t0,0x9407
bfc00b48:	3508fc00 	ori	t0,t0,0xfc00
bfc00b4c:	2409280c 	li	t1,10252
bfc00b50:	2910280c 	slti	s0,t0,10252
bfc00b54:	24120001 	li	s2,1
bfc00b58:	16120532 	bne	s0,s2,bfc02024 <inst_error>
bfc00b5c:	00000000 	nop
bfc00b60:	3c08b4e2 	lui	t0,0xb4e2
bfc00b64:	3508a5bc 	ori	t0,t0,0xa5bc
bfc00b68:	3409c84b 	li	t1,0xc84b
bfc00b6c:	2910c84b 	slti	s0,t0,-14261
bfc00b70:	24120001 	li	s2,1
bfc00b74:	1612052b 	bne	s0,s2,bfc02024 <inst_error>
bfc00b78:	00000000 	nop
bfc00b7c:	3c08a02c 	lui	t0,0xa02c
bfc00b80:	35081aa2 	ori	t0,t0,0x1aa2
bfc00b84:	34099ecb 	li	t1,0x9ecb
bfc00b88:	29109ecb 	slti	s0,t0,-24885
bfc00b8c:	24120001 	li	s2,1
bfc00b90:	16120524 	bne	s0,s2,bfc02024 <inst_error>
bfc00b94:	00000000 	nop
bfc00b98:	3c083e83 	lui	t0,0x3e83
bfc00b9c:	3508b8a0 	ori	t0,t0,0xb8a0
bfc00ba0:	240923e6 	li	t1,9190
bfc00ba4:	291023e6 	slti	s0,t0,9190
bfc00ba8:	24120000 	li	s2,0
bfc00bac:	1612051d 	bne	s0,s2,bfc02024 <inst_error>
bfc00bb0:	00000000 	nop
bfc00bb4:	3c08c64e 	lui	t0,0xc64e
bfc00bb8:	3508ae40 	ori	t0,t0,0xae40
bfc00bbc:	34098c1c 	li	t1,0x8c1c
bfc00bc0:	29108c1c 	slti	s0,t0,-29668
bfc00bc4:	24120001 	li	s2,1
bfc00bc8:	16120516 	bne	s0,s2,bfc02024 <inst_error>
bfc00bcc:	00000000 	nop
bfc00bd0:	3c08fb0f 	lui	t0,0xfb0f
bfc00bd4:	3508c32c 	ori	t0,t0,0xc32c
bfc00bd8:	2409026f 	li	t1,623
bfc00bdc:	2910026f 	slti	s0,t0,623
bfc00be0:	24120001 	li	s2,1
bfc00be4:	1612050f 	bne	s0,s2,bfc02024 <inst_error>
bfc00be8:	00000000 	nop
bfc00bec:	3c08b8d3 	lui	t0,0xb8d3
bfc00bf0:	35083566 	ori	t0,t0,0x3566
bfc00bf4:	24096810 	li	t1,26640
bfc00bf8:	29106810 	slti	s0,t0,26640
bfc00bfc:	24120001 	li	s2,1
bfc00c00:	16120508 	bne	s0,s2,bfc02024 <inst_error>
bfc00c04:	00000000 	nop
bfc00c08:	3c080c93 	lui	t0,0xc93
bfc00c0c:	35088a60 	ori	t0,t0,0x8a60
bfc00c10:	34098e8b 	li	t1,0x8e8b
bfc00c14:	29108e8b 	slti	s0,t0,-29045
bfc00c18:	24120000 	li	s2,0
bfc00c1c:	16120501 	bne	s0,s2,bfc02024 <inst_error>
bfc00c20:	00000000 	nop
bfc00c24:	3c0837bf 	lui	t0,0x37bf
bfc00c28:	350806a0 	ori	t0,t0,0x6a0
bfc00c2c:	34099fc8 	li	t1,0x9fc8
bfc00c30:	29109fc8 	slti	s0,t0,-24632
bfc00c34:	24120000 	li	s2,0
bfc00c38:	161204fa 	bne	s0,s2,bfc02024 <inst_error>
bfc00c3c:	00000000 	nop
bfc00c40:	3c08f78c 	lui	t0,0xf78c
bfc00c44:	3508b180 	ori	t0,t0,0xb180
bfc00c48:	24096bb8 	li	t1,27576
bfc00c4c:	29106bb8 	slti	s0,t0,27576
bfc00c50:	24120001 	li	s2,1
bfc00c54:	161204f3 	bne	s0,s2,bfc02024 <inst_error>
bfc00c58:	00000000 	nop
bfc00c5c:	3c081349 	lui	t0,0x1349
bfc00c60:	35082c46 	ori	t0,t0,0x2c46
bfc00c64:	3409de4e 	li	t1,0xde4e
bfc00c68:	2910de4e 	slti	s0,t0,-8626
bfc00c6c:	24120000 	li	s2,0
bfc00c70:	161204ec 	bne	s0,s2,bfc02024 <inst_error>
bfc00c74:	00000000 	nop
bfc00c78:	3c08c7ce 	lui	t0,0xc7ce
bfc00c7c:	35088857 	ori	t0,t0,0x8857
bfc00c80:	24091efa 	li	t1,7930
bfc00c84:	29101efa 	slti	s0,t0,7930
bfc00c88:	24120001 	li	s2,1
bfc00c8c:	161204e5 	bne	s0,s2,bfc02024 <inst_error>
bfc00c90:	00000000 	nop
bfc00c94:	3c086ba7 	lui	t0,0x6ba7
bfc00c98:	35086bc0 	ori	t0,t0,0x6bc0
bfc00c9c:	240936e0 	li	t1,14048
bfc00ca0:	291036e0 	slti	s0,t0,14048
bfc00ca4:	24120000 	li	s2,0
bfc00ca8:	161204de 	bne	s0,s2,bfc02024 <inst_error>
bfc00cac:	00000000 	nop
bfc00cb0:	3c080de3 	lui	t0,0xde3
bfc00cb4:	3508c024 	ori	t0,t0,0xc024
bfc00cb8:	24092d60 	li	t1,11616
bfc00cbc:	29102d60 	slti	s0,t0,11616
bfc00cc0:	24120000 	li	s2,0
bfc00cc4:	161204d7 	bne	s0,s2,bfc02024 <inst_error>
bfc00cc8:	00000000 	nop
bfc00ccc:	3c089e3f 	lui	t0,0x9e3f
bfc00cd0:	3508ddce 	ori	t0,t0,0xddce
bfc00cd4:	34099154 	li	t1,0x9154
bfc00cd8:	29109154 	slti	s0,t0,-28332
bfc00cdc:	24120001 	li	s2,1
bfc00ce0:	161204d0 	bne	s0,s2,bfc02024 <inst_error>
bfc00ce4:	00000000 	nop
bfc00ce8:	3c08440c 	lui	t0,0x440c
bfc00cec:	3508ac96 	ori	t0,t0,0xac96
bfc00cf0:	240941a4 	li	t1,16804
bfc00cf4:	291041a4 	slti	s0,t0,16804
bfc00cf8:	24120000 	li	s2,0
bfc00cfc:	161204c9 	bne	s0,s2,bfc02024 <inst_error>
bfc00d00:	00000000 	nop
bfc00d04:	3c08d4c8 	lui	t0,0xd4c8
bfc00d08:	3508a1c8 	ori	t0,t0,0xa1c8
bfc00d0c:	240945f4 	li	t1,17908
bfc00d10:	291045f4 	slti	s0,t0,17908
bfc00d14:	24120001 	li	s2,1
bfc00d18:	161204c2 	bne	s0,s2,bfc02024 <inst_error>
bfc00d1c:	00000000 	nop
bfc00d20:	3c08351f 	lui	t0,0x351f
bfc00d24:	35080854 	ori	t0,t0,0x854
bfc00d28:	24097d08 	li	t1,32008
bfc00d2c:	29107d08 	slti	s0,t0,32008
bfc00d30:	24120000 	li	s2,0
bfc00d34:	161204bb 	bne	s0,s2,bfc02024 <inst_error>
bfc00d38:	00000000 	nop
bfc00d3c:	3c08de09 	lui	t0,0xde09
bfc00d40:	3508743c 	ori	t0,t0,0x743c
bfc00d44:	3409b30e 	li	t1,0xb30e
bfc00d48:	2910b30e 	slti	s0,t0,-19698
bfc00d4c:	24120001 	li	s2,1
bfc00d50:	161204b4 	bne	s0,s2,bfc02024 <inst_error>
bfc00d54:	00000000 	nop
bfc00d58:	3c0885c7 	lui	t0,0x85c7
bfc00d5c:	3508db36 	ori	t0,t0,0xdb36
bfc00d60:	2409028e 	li	t1,654
bfc00d64:	2910028e 	slti	s0,t0,654
bfc00d68:	24120001 	li	s2,1
bfc00d6c:	161204ad 	bne	s0,s2,bfc02024 <inst_error>
bfc00d70:	00000000 	nop
bfc00d74:	3c08018d 	lui	t0,0x18d
bfc00d78:	35088b10 	ori	t0,t0,0x8b10
bfc00d7c:	3409a290 	li	t1,0xa290
bfc00d80:	2910a290 	slti	s0,t0,-23920
bfc00d84:	24120000 	li	s2,0
bfc00d88:	161204a6 	bne	s0,s2,bfc02024 <inst_error>
bfc00d8c:	00000000 	nop
bfc00d90:	3c084f8a 	lui	t0,0x4f8a
bfc00d94:	3508bf20 	ori	t0,t0,0xbf20
bfc00d98:	3409a312 	li	t1,0xa312
bfc00d9c:	2910a312 	slti	s0,t0,-23790
bfc00da0:	24120000 	li	s2,0
bfc00da4:	1612049f 	bne	s0,s2,bfc02024 <inst_error>
bfc00da8:	00000000 	nop
bfc00dac:	3c08e83d 	lui	t0,0xe83d
bfc00db0:	3508342a 	ori	t0,t0,0x342a
bfc00db4:	3409e3bf 	li	t1,0xe3bf
bfc00db8:	2910e3bf 	slti	s0,t0,-7233
bfc00dbc:	24120001 	li	s2,1
bfc00dc0:	16120498 	bne	s0,s2,bfc02024 <inst_error>
bfc00dc4:	00000000 	nop
bfc00dc8:	3c0847d3 	lui	t0,0x47d3
bfc00dcc:	3508b94a 	ori	t0,t0,0xb94a
bfc00dd0:	3409a6c4 	li	t1,0xa6c4
bfc00dd4:	2910a6c4 	slti	s0,t0,-22844
bfc00dd8:	24120000 	li	s2,0
bfc00ddc:	16120491 	bne	s0,s2,bfc02024 <inst_error>
bfc00de0:	00000000 	nop
bfc00de4:	3c085351 	lui	t0,0x5351
bfc00de8:	35084a00 	ori	t0,t0,0x4a00
bfc00dec:	3409a7e2 	li	t1,0xa7e2
bfc00df0:	2910a7e2 	slti	s0,t0,-22558
bfc00df4:	24120000 	li	s2,0
bfc00df8:	1612048a 	bne	s0,s2,bfc02024 <inst_error>
bfc00dfc:	00000000 	nop
bfc00e00:	3c08313f 	lui	t0,0x313f
bfc00e04:	35085220 	ori	t0,t0,0x5220
bfc00e08:	24095c48 	li	t1,23624
bfc00e0c:	29105c48 	slti	s0,t0,23624
bfc00e10:	24120000 	li	s2,0
bfc00e14:	16120483 	bne	s0,s2,bfc02024 <inst_error>
bfc00e18:	00000000 	nop
bfc00e1c:	3c084b78 	lui	t0,0x4b78
bfc00e20:	3508c354 	ori	t0,t0,0xc354
bfc00e24:	340998ca 	li	t1,0x98ca
bfc00e28:	291098ca 	slti	s0,t0,-26422
bfc00e2c:	24120000 	li	s2,0
bfc00e30:	1612047c 	bne	s0,s2,bfc02024 <inst_error>
bfc00e34:	00000000 	nop
bfc00e38:	3c08ed35 	lui	t0,0xed35
bfc00e3c:	3508c6c9 	ori	t0,t0,0xc6c9
bfc00e40:	3409a9f4 	li	t1,0xa9f4
bfc00e44:	2910a9f4 	slti	s0,t0,-22028
bfc00e48:	24120001 	li	s2,1
bfc00e4c:	16120475 	bne	s0,s2,bfc02024 <inst_error>
bfc00e50:	00000000 	nop
bfc00e54:	3c082a50 	lui	t0,0x2a50
bfc00e58:	35086368 	ori	t0,t0,0x6368
bfc00e5c:	240931a6 	li	t1,12710
bfc00e60:	291031a6 	slti	s0,t0,12710
bfc00e64:	24120000 	li	s2,0
bfc00e68:	1612046e 	bne	s0,s2,bfc02024 <inst_error>
bfc00e6c:	00000000 	nop
bfc00e70:	3c0838f4 	lui	t0,0x38f4
bfc00e74:	35087f2c 	ori	t0,t0,0x7f2c
bfc00e78:	24094f04 	li	t1,20228
bfc00e7c:	29104f04 	slti	s0,t0,20228
bfc00e80:	24120000 	li	s2,0
bfc00e84:	16120467 	bne	s0,s2,bfc02024 <inst_error>
bfc00e88:	00000000 	nop
bfc00e8c:	3c08973b 	lui	t0,0x973b
bfc00e90:	35082c38 	ori	t0,t0,0x2c38
bfc00e94:	3409d5ac 	li	t1,0xd5ac
bfc00e98:	2910d5ac 	slti	s0,t0,-10836
bfc00e9c:	24120001 	li	s2,1
bfc00ea0:	16120460 	bne	s0,s2,bfc02024 <inst_error>
bfc00ea4:	00000000 	nop
bfc00ea8:	3c085b2b 	lui	t0,0x5b2b
bfc00eac:	35085b16 	ori	t0,t0,0x5b16
bfc00eb0:	24090a03 	li	t1,2563
bfc00eb4:	29100a03 	slti	s0,t0,2563
bfc00eb8:	24120000 	li	s2,0
bfc00ebc:	16120459 	bne	s0,s2,bfc02024 <inst_error>
bfc00ec0:	00000000 	nop
bfc00ec4:	3c08a146 	lui	t0,0xa146
bfc00ec8:	35086aef 	ori	t0,t0,0x6aef
bfc00ecc:	3409e1aa 	li	t1,0xe1aa
bfc00ed0:	2910e1aa 	slti	s0,t0,-7766
bfc00ed4:	24120001 	li	s2,1
bfc00ed8:	16120452 	bne	s0,s2,bfc02024 <inst_error>
bfc00edc:	00000000 	nop
bfc00ee0:	3c08ff3a 	lui	t0,0xff3a
bfc00ee4:	3508d1e6 	ori	t0,t0,0xd1e6
bfc00ee8:	3409f3fc 	li	t1,0xf3fc
bfc00eec:	2910f3fc 	slti	s0,t0,-3076
bfc00ef0:	24120001 	li	s2,1
bfc00ef4:	1612044b 	bne	s0,s2,bfc02024 <inst_error>
bfc00ef8:	00000000 	nop
bfc00efc:	3c08cf3b 	lui	t0,0xcf3b
bfc00f00:	35084e50 	ori	t0,t0,0x4e50
bfc00f04:	3409df30 	li	t1,0xdf30
bfc00f08:	2910df30 	slti	s0,t0,-8400
bfc00f0c:	24120001 	li	s2,1
bfc00f10:	16120444 	bne	s0,s2,bfc02024 <inst_error>
bfc00f14:	00000000 	nop
bfc00f18:	3c084f6a 	lui	t0,0x4f6a
bfc00f1c:	3508fec0 	ori	t0,t0,0xfec0
bfc00f20:	3409f65a 	li	t1,0xf65a
bfc00f24:	2910f65a 	slti	s0,t0,-2470
bfc00f28:	24120000 	li	s2,0
bfc00f2c:	1612043d 	bne	s0,s2,bfc02024 <inst_error>
bfc00f30:	00000000 	nop
bfc00f34:	3c087680 	lui	t0,0x7680
bfc00f38:	35087780 	ori	t0,t0,0x7780
bfc00f3c:	3409dbb0 	li	t1,0xdbb0
bfc00f40:	2910dbb0 	slti	s0,t0,-9296
bfc00f44:	24120000 	li	s2,0
bfc00f48:	16120436 	bne	s0,s2,bfc02024 <inst_error>
bfc00f4c:	00000000 	nop
bfc00f50:	3c08c2bc 	lui	t0,0xc2bc
bfc00f54:	350812c0 	ori	t0,t0,0x12c0
bfc00f58:	3409ea9c 	li	t1,0xea9c
bfc00f5c:	2910ea9c 	slti	s0,t0,-5476
bfc00f60:	24120001 	li	s2,1
bfc00f64:	1612042f 	bne	s0,s2,bfc02024 <inst_error>
bfc00f68:	00000000 	nop
bfc00f6c:	3c08a670 	lui	t0,0xa670
bfc00f70:	3508369c 	ori	t0,t0,0x369c
bfc00f74:	3409a66d 	li	t1,0xa66d
bfc00f78:	2910a66d 	slti	s0,t0,-22931
bfc00f7c:	24120001 	li	s2,1
bfc00f80:	16120428 	bne	s0,s2,bfc02024 <inst_error>
bfc00f84:	00000000 	nop
bfc00f88:	3c086e70 	lui	t0,0x6e70
bfc00f8c:	35081f70 	ori	t0,t0,0x1f70
bfc00f90:	3409d650 	li	t1,0xd650
bfc00f94:	2910d650 	slti	s0,t0,-10672
bfc00f98:	24120000 	li	s2,0
bfc00f9c:	16120421 	bne	s0,s2,bfc02024 <inst_error>
bfc00fa0:	00000000 	nop
bfc00fa4:	3c089e66 	lui	t0,0x9e66
bfc00fa8:	35089bc0 	ori	t0,t0,0x9bc0
bfc00fac:	3409ca20 	li	t1,0xca20
bfc00fb0:	2910ca20 	slti	s0,t0,-13792
bfc00fb4:	24120001 	li	s2,1
bfc00fb8:	1612041a 	bne	s0,s2,bfc02024 <inst_error>
bfc00fbc:	00000000 	nop
bfc00fc0:	3c08b88e 	lui	t0,0xb88e
bfc00fc4:	35085a50 	ori	t0,t0,0x5a50
bfc00fc8:	340983dd 	li	t1,0x83dd
bfc00fcc:	291083dd 	slti	s0,t0,-31779
bfc00fd0:	24120001 	li	s2,1
bfc00fd4:	16120413 	bne	s0,s2,bfc02024 <inst_error>
bfc00fd8:	00000000 	nop
bfc00fdc:	3c089d8a 	lui	t0,0x9d8a
bfc00fe0:	35085458 	ori	t0,t0,0x5458
bfc00fe4:	34098ebc 	li	t1,0x8ebc
bfc00fe8:	29108ebc 	slti	s0,t0,-28996
bfc00fec:	24120001 	li	s2,1
bfc00ff0:	1612040c 	bne	s0,s2,bfc02024 <inst_error>
bfc00ff4:	00000000 	nop
bfc00ff8:	3c08b376 	lui	t0,0xb376
bfc00ffc:	3508373e 	ori	t0,t0,0x373e
bfc01000:	24090178 	li	t1,376
bfc01004:	29100178 	slti	s0,t0,376
bfc01008:	24120001 	li	s2,1
bfc0100c:	16120405 	bne	s0,s2,bfc02024 <inst_error>
bfc01010:	00000000 	nop
bfc01014:	3c080c5c 	lui	t0,0xc5c
bfc01018:	35089db3 	ori	t0,t0,0x9db3
bfc0101c:	3409b61b 	li	t1,0xb61b
bfc01020:	2910b61b 	slti	s0,t0,-18917
bfc01024:	24120000 	li	s2,0
bfc01028:	161203fe 	bne	s0,s2,bfc02024 <inst_error>
bfc0102c:	00000000 	nop
bfc01030:	3c089b79 	lui	t0,0x9b79
bfc01034:	3508a3d8 	ori	t0,t0,0xa3d8
bfc01038:	24096060 	li	t1,24672
bfc0103c:	29106060 	slti	s0,t0,24672
bfc01040:	24120001 	li	s2,1
bfc01044:	161203f7 	bne	s0,s2,bfc02024 <inst_error>
bfc01048:	00000000 	nop
bfc0104c:	3c08e5cb 	lui	t0,0xe5cb
bfc01050:	350814c8 	ori	t0,t0,0x14c8
bfc01054:	3409990c 	li	t1,0x990c
bfc01058:	2910990c 	slti	s0,t0,-26356
bfc0105c:	24120001 	li	s2,1
bfc01060:	161203f0 	bne	s0,s2,bfc02024 <inst_error>
bfc01064:	00000000 	nop
bfc01068:	3c08c5ff 	lui	t0,0xc5ff
bfc0106c:	3508c83c 	ori	t0,t0,0xc83c
bfc01070:	24091f05 	li	t1,7941
bfc01074:	29101f05 	slti	s0,t0,7941
bfc01078:	24120001 	li	s2,1
bfc0107c:	161203e9 	bne	s0,s2,bfc02024 <inst_error>
bfc01080:	00000000 	nop
bfc01084:	3c08b321 	lui	t0,0xb321
bfc01088:	3508a45f 	ori	t0,t0,0xa45f
bfc0108c:	240957b2 	li	t1,22450
bfc01090:	291057b2 	slti	s0,t0,22450
bfc01094:	24120001 	li	s2,1
bfc01098:	161203e2 	bne	s0,s2,bfc02024 <inst_error>
bfc0109c:	00000000 	nop
bfc010a0:	3c08be9a 	lui	t0,0xbe9a
bfc010a4:	3508cec8 	ori	t0,t0,0xcec8
bfc010a8:	24095266 	li	t1,21094
bfc010ac:	29105266 	slti	s0,t0,21094
bfc010b0:	24120001 	li	s2,1
bfc010b4:	161203db 	bne	s0,s2,bfc02024 <inst_error>
bfc010b8:	00000000 	nop
bfc010bc:	3c0885b6 	lui	t0,0x85b6
bfc010c0:	3508bec0 	ori	t0,t0,0xbec0
bfc010c4:	24091280 	li	t1,4736
bfc010c8:	29101280 	slti	s0,t0,4736
bfc010cc:	24120001 	li	s2,1
bfc010d0:	161203d4 	bne	s0,s2,bfc02024 <inst_error>
bfc010d4:	00000000 	nop
bfc010d8:	3c081040 	lui	t0,0x1040
bfc010dc:	350887d8 	ori	t0,t0,0x87d8
bfc010e0:	3409b8cd 	li	t1,0xb8cd
bfc010e4:	2910b8cd 	slti	s0,t0,-18227
bfc010e8:	24120000 	li	s2,0
bfc010ec:	161203cd 	bne	s0,s2,bfc02024 <inst_error>
bfc010f0:	00000000 	nop
bfc010f4:	3c0847d5 	lui	t0,0x47d5
bfc010f8:	3508f3d4 	ori	t0,t0,0xf3d4
bfc010fc:	24095dda 	li	t1,24026
bfc01100:	29105dda 	slti	s0,t0,24026
bfc01104:	24120000 	li	s2,0
bfc01108:	161203c6 	bne	s0,s2,bfc02024 <inst_error>
bfc0110c:	00000000 	nop
bfc01110:	3c08e71c 	lui	t0,0xe71c
bfc01114:	3508d5f0 	ori	t0,t0,0xd5f0
bfc01118:	3409a4a6 	li	t1,0xa4a6
bfc0111c:	2910a4a6 	slti	s0,t0,-23386
bfc01120:	24120001 	li	s2,1
bfc01124:	161203bf 	bne	s0,s2,bfc02024 <inst_error>
bfc01128:	00000000 	nop
bfc0112c:	3c081e0f 	lui	t0,0x1e0f
bfc01130:	35088f82 	ori	t0,t0,0x8f82
bfc01134:	34099784 	li	t1,0x9784
bfc01138:	29109784 	slti	s0,t0,-26748
bfc0113c:	24120000 	li	s2,0
bfc01140:	161203b8 	bne	s0,s2,bfc02024 <inst_error>
bfc01144:	00000000 	nop
bfc01148:	3c081026 	lui	t0,0x1026
bfc0114c:	3508a9de 	ori	t0,t0,0xa9de
bfc01150:	240954c4 	li	t1,21700
bfc01154:	291054c4 	slti	s0,t0,21700
bfc01158:	24120000 	li	s2,0
bfc0115c:	161203b1 	bne	s0,s2,bfc02024 <inst_error>
bfc01160:	00000000 	nop
bfc01164:	3c081c3f 	lui	t0,0x1c3f
bfc01168:	3508e1ee 	ori	t0,t0,0xe1ee
bfc0116c:	240945ae 	li	t1,17838
bfc01170:	291045ae 	slti	s0,t0,17838
bfc01174:	24120000 	li	s2,0
bfc01178:	161203aa 	bne	s0,s2,bfc02024 <inst_error>
bfc0117c:	00000000 	nop
bfc01180:	3c08fcab 	lui	t0,0xfcab
bfc01184:	3508c854 	ori	t0,t0,0xc854
bfc01188:	3409e965 	li	t1,0xe965
bfc0118c:	2910e965 	slti	s0,t0,-5787
bfc01190:	24120001 	li	s2,1
bfc01194:	161203a3 	bne	s0,s2,bfc02024 <inst_error>
bfc01198:	00000000 	nop
bfc0119c:	3c0868b3 	lui	t0,0x68b3
bfc011a0:	35084bf0 	ori	t0,t0,0x4bf0
bfc011a4:	24093284 	li	t1,12932
bfc011a8:	29103284 	slti	s0,t0,12932
bfc011ac:	24120000 	li	s2,0
bfc011b0:	1612039c 	bne	s0,s2,bfc02024 <inst_error>
bfc011b4:	00000000 	nop
bfc011b8:	3c087bba 	lui	t0,0x7bba
bfc011bc:	3508498e 	ori	t0,t0,0x498e
bfc011c0:	3409cf2d 	li	t1,0xcf2d
bfc011c4:	2910cf2d 	slti	s0,t0,-12499
bfc011c8:	24120000 	li	s2,0
bfc011cc:	16120395 	bne	s0,s2,bfc02024 <inst_error>
bfc011d0:	00000000 	nop
bfc011d4:	3c08c7df 	lui	t0,0xc7df
bfc011d8:	3508176e 	ori	t0,t0,0x176e
bfc011dc:	2409607a 	li	t1,24698
bfc011e0:	2910607a 	slti	s0,t0,24698
bfc011e4:	24120001 	li	s2,1
bfc011e8:	1612038e 	bne	s0,s2,bfc02024 <inst_error>
bfc011ec:	00000000 	nop
bfc011f0:	3c088674 	lui	t0,0x8674
bfc011f4:	35087248 	ori	t0,t0,0x7248
bfc011f8:	24097d1f 	li	t1,32031
bfc011fc:	29107d1f 	slti	s0,t0,32031
bfc01200:	24120001 	li	s2,1
bfc01204:	16120387 	bne	s0,s2,bfc02024 <inst_error>
bfc01208:	00000000 	nop
bfc0120c:	3c08d549 	lui	t0,0xd549
bfc01210:	350842c0 	ori	t0,t0,0x42c0
bfc01214:	2409101b 	li	t1,4123
bfc01218:	2910101b 	slti	s0,t0,4123
bfc0121c:	24120001 	li	s2,1
bfc01220:	16120380 	bne	s0,s2,bfc02024 <inst_error>
bfc01224:	00000000 	nop
bfc01228:	3c089915 	lui	t0,0x9915
bfc0122c:	350854c4 	ori	t0,t0,0x54c4
bfc01230:	3409baad 	li	t1,0xbaad
bfc01234:	2910baad 	slti	s0,t0,-17747
bfc01238:	24120001 	li	s2,1
bfc0123c:	16120379 	bne	s0,s2,bfc02024 <inst_error>
bfc01240:	00000000 	nop
bfc01244:	3c08907f 	lui	t0,0x907f
bfc01248:	35087dc0 	ori	t0,t0,0x7dc0
bfc0124c:	3409cab4 	li	t1,0xcab4
bfc01250:	2910cab4 	slti	s0,t0,-13644
bfc01254:	24120001 	li	s2,1
bfc01258:	16120372 	bne	s0,s2,bfc02024 <inst_error>
bfc0125c:	00000000 	nop
bfc01260:	3c08a97e 	lui	t0,0xa97e
bfc01264:	350843ec 	ori	t0,t0,0x43ec
bfc01268:	24092780 	li	t1,10112
bfc0126c:	29102780 	slti	s0,t0,10112
bfc01270:	24120001 	li	s2,1
bfc01274:	1612036b 	bne	s0,s2,bfc02024 <inst_error>
bfc01278:	00000000 	nop
bfc0127c:	3c0877ad 	lui	t0,0x77ad
bfc01280:	3508839e 	ori	t0,t0,0x839e
bfc01284:	24094b1e 	li	t1,19230
bfc01288:	29104b1e 	slti	s0,t0,19230
bfc0128c:	24120000 	li	s2,0
bfc01290:	16120364 	bne	s0,s2,bfc02024 <inst_error>
bfc01294:	00000000 	nop
bfc01298:	3c081862 	lui	t0,0x1862
bfc0129c:	35086458 	ori	t0,t0,0x6458
bfc012a0:	3409c2cc 	li	t1,0xc2cc
bfc012a4:	2910c2cc 	slti	s0,t0,-15668
bfc012a8:	24120000 	li	s2,0
bfc012ac:	1612035d 	bne	s0,s2,bfc02024 <inst_error>
bfc012b0:	00000000 	nop
bfc012b4:	3c0851fe 	lui	t0,0x51fe
bfc012b8:	350855f0 	ori	t0,t0,0x55f0
bfc012bc:	24097a55 	li	t1,31317
bfc012c0:	29107a55 	slti	s0,t0,31317
bfc012c4:	24120000 	li	s2,0
bfc012c8:	16120356 	bne	s0,s2,bfc02024 <inst_error>
bfc012cc:	00000000 	nop
bfc012d0:	3c08f9b5 	lui	t0,0xf9b5
bfc012d4:	3508d7c1 	ori	t0,t0,0xd7c1
bfc012d8:	340991e8 	li	t1,0x91e8
bfc012dc:	291091e8 	slti	s0,t0,-28184
bfc012e0:	24120001 	li	s2,1
bfc012e4:	1612034f 	bne	s0,s2,bfc02024 <inst_error>
bfc012e8:	00000000 	nop
bfc012ec:	3c08c3dc 	lui	t0,0xc3dc
bfc012f0:	3508f7f1 	ori	t0,t0,0xf7f1
bfc012f4:	3409a10e 	li	t1,0xa10e
bfc012f8:	2910a10e 	slti	s0,t0,-24306
bfc012fc:	24120001 	li	s2,1
bfc01300:	16120348 	bne	s0,s2,bfc02024 <inst_error>
bfc01304:	00000000 	nop
bfc01308:	3c088a2b 	lui	t0,0x8a2b
bfc0130c:	35082010 	ori	t0,t0,0x2010
bfc01310:	3409b0ba 	li	t1,0xb0ba
bfc01314:	2910b0ba 	slti	s0,t0,-20294
bfc01318:	24120001 	li	s2,1
bfc0131c:	16120341 	bne	s0,s2,bfc02024 <inst_error>
bfc01320:	00000000 	nop
bfc01324:	3c087b29 	lui	t0,0x7b29
bfc01328:	3508e272 	ori	t0,t0,0xe272
bfc0132c:	3409c46e 	li	t1,0xc46e
bfc01330:	2910c46e 	slti	s0,t0,-15250
bfc01334:	24120000 	li	s2,0
bfc01338:	1612033a 	bne	s0,s2,bfc02024 <inst_error>
bfc0133c:	00000000 	nop
bfc01340:	3c08b2b2 	lui	t0,0xb2b2
bfc01344:	35080a1c 	ori	t0,t0,0xa1c
bfc01348:	24096910 	li	t1,26896
bfc0134c:	29106910 	slti	s0,t0,26896
bfc01350:	24120001 	li	s2,1
bfc01354:	16120333 	bne	s0,s2,bfc02024 <inst_error>
bfc01358:	00000000 	nop
bfc0135c:	3c089b04 	lui	t0,0x9b04
bfc01360:	350825c0 	ori	t0,t0,0x25c0
bfc01364:	24096100 	li	t1,24832
bfc01368:	29106100 	slti	s0,t0,24832
bfc0136c:	24120001 	li	s2,1
bfc01370:	1612032c 	bne	s0,s2,bfc02024 <inst_error>
bfc01374:	00000000 	nop
bfc01378:	3c08a8a4 	lui	t0,0xa8a4
bfc0137c:	3508fecb 	ori	t0,t0,0xfecb
bfc01380:	3409982b 	li	t1,0x982b
bfc01384:	2910982b 	slti	s0,t0,-26581
bfc01388:	24120001 	li	s2,1
bfc0138c:	16120325 	bne	s0,s2,bfc02024 <inst_error>
bfc01390:	00000000 	nop
bfc01394:	3c0813d5 	lui	t0,0x13d5
bfc01398:	3508fe08 	ori	t0,t0,0xfe08
bfc0139c:	3409bde4 	li	t1,0xbde4
bfc013a0:	2910bde4 	slti	s0,t0,-16924
bfc013a4:	24120000 	li	s2,0
bfc013a8:	1612031e 	bne	s0,s2,bfc02024 <inst_error>
bfc013ac:	00000000 	nop
bfc013b0:	3c081213 	lui	t0,0x1213
bfc013b4:	3508f626 	ori	t0,t0,0xf626
bfc013b8:	3409f19c 	li	t1,0xf19c
bfc013bc:	2910f19c 	slti	s0,t0,-3684
bfc013c0:	24120000 	li	s2,0
bfc013c4:	16120317 	bne	s0,s2,bfc02024 <inst_error>
bfc013c8:	00000000 	nop
bfc013cc:	3c08bc4d 	lui	t0,0xbc4d
bfc013d0:	3508c5ce 	ori	t0,t0,0xc5ce
bfc013d4:	3409a190 	li	t1,0xa190
bfc013d8:	2910a190 	slti	s0,t0,-24176
bfc013dc:	24120001 	li	s2,1
bfc013e0:	16120310 	bne	s0,s2,bfc02024 <inst_error>
bfc013e4:	00000000 	nop
bfc013e8:	3c080e2c 	lui	t0,0xe2c
bfc013ec:	35087a84 	ori	t0,t0,0x7a84
bfc013f0:	24092250 	li	t1,8784
bfc013f4:	29102250 	slti	s0,t0,8784
bfc013f8:	24120000 	li	s2,0
bfc013fc:	16120309 	bne	s0,s2,bfc02024 <inst_error>
bfc01400:	00000000 	nop
bfc01404:	3c088731 	lui	t0,0x8731
bfc01408:	35088000 	ori	t0,t0,0x8000
bfc0140c:	3409b048 	li	t1,0xb048
bfc01410:	2910b048 	slti	s0,t0,-20408
bfc01414:	24120001 	li	s2,1
bfc01418:	16120302 	bne	s0,s2,bfc02024 <inst_error>
bfc0141c:	00000000 	nop
bfc01420:	3c084f63 	lui	t0,0x4f63
bfc01424:	350853e3 	ori	t0,t0,0x53e3
bfc01428:	3409af0a 	li	t1,0xaf0a
bfc0142c:	2910af0a 	slti	s0,t0,-20726
bfc01430:	24120000 	li	s2,0
bfc01434:	161202fb 	bne	s0,s2,bfc02024 <inst_error>
bfc01438:	00000000 	nop
bfc0143c:	3c08f316 	lui	t0,0xf316
bfc01440:	35082eb4 	ori	t0,t0,0x2eb4
bfc01444:	340987b4 	li	t1,0x87b4
bfc01448:	291087b4 	slti	s0,t0,-30796
bfc0144c:	24120001 	li	s2,1
bfc01450:	161202f4 	bne	s0,s2,bfc02024 <inst_error>
bfc01454:	00000000 	nop
bfc01458:	3c08f73c 	lui	t0,0xf73c
bfc0145c:	35089f5c 	ori	t0,t0,0x9f5c
bfc01460:	3409bd2f 	li	t1,0xbd2f
bfc01464:	2910bd2f 	slti	s0,t0,-17105
bfc01468:	24120001 	li	s2,1
bfc0146c:	161202ed 	bne	s0,s2,bfc02024 <inst_error>
bfc01470:	00000000 	nop
bfc01474:	3c080f83 	lui	t0,0xf83
bfc01478:	3508a1e6 	ori	t0,t0,0xa1e6
bfc0147c:	34099382 	li	t1,0x9382
bfc01480:	29109382 	slti	s0,t0,-27774
bfc01484:	24120000 	li	s2,0
bfc01488:	161202e6 	bne	s0,s2,bfc02024 <inst_error>
bfc0148c:	00000000 	nop
bfc01490:	3c08b575 	lui	t0,0xb575
bfc01494:	3508b172 	ori	t0,t0,0xb172
bfc01498:	24096d26 	li	t1,27942
bfc0149c:	29106d26 	slti	s0,t0,27942
bfc014a0:	24120001 	li	s2,1
bfc014a4:	161202df 	bne	s0,s2,bfc02024 <inst_error>
bfc014a8:	00000000 	nop
bfc014ac:	3c085567 	lui	t0,0x5567
bfc014b0:	35083b4f 	ori	t0,t0,0x3b4f
bfc014b4:	3409f681 	li	t1,0xf681
bfc014b8:	2910f681 	slti	s0,t0,-2431
bfc014bc:	24120000 	li	s2,0
bfc014c0:	161202d8 	bne	s0,s2,bfc02024 <inst_error>
bfc014c4:	00000000 	nop
bfc014c8:	3c0845c3 	lui	t0,0x45c3
bfc014cc:	35082ed4 	ori	t0,t0,0x2ed4
bfc014d0:	2409136a 	li	t1,4970
bfc014d4:	2910136a 	slti	s0,t0,4970
bfc014d8:	24120000 	li	s2,0
bfc014dc:	161202d1 	bne	s0,s2,bfc02024 <inst_error>
bfc014e0:	00000000 	nop
bfc014e4:	3c08f98e 	lui	t0,0xf98e
bfc014e8:	3508d1fc 	ori	t0,t0,0xd1fc
bfc014ec:	24094f84 	li	t1,20356
bfc014f0:	29104f84 	slti	s0,t0,20356
bfc014f4:	24120001 	li	s2,1
bfc014f8:	161202ca 	bne	s0,s2,bfc02024 <inst_error>
bfc014fc:	00000000 	nop
bfc01500:	3c0800fa 	lui	t0,0xfa
bfc01504:	35085c08 	ori	t0,t0,0x5c08
bfc01508:	34098d8c 	li	t1,0x8d8c
bfc0150c:	29108d8c 	slti	s0,t0,-29300
bfc01510:	24120000 	li	s2,0
bfc01514:	161202c3 	bne	s0,s2,bfc02024 <inst_error>
bfc01518:	00000000 	nop
bfc0151c:	3c0852e2 	lui	t0,0x52e2
bfc01520:	35088a84 	ori	t0,t0,0x8a84
bfc01524:	3409de58 	li	t1,0xde58
bfc01528:	2910de58 	slti	s0,t0,-8616
bfc0152c:	24120000 	li	s2,0
bfc01530:	161202bc 	bne	s0,s2,bfc02024 <inst_error>
bfc01534:	00000000 	nop
bfc01538:	3c08efaa 	lui	t0,0xefaa
bfc0153c:	3508cac8 	ori	t0,t0,0xcac8
bfc01540:	3409e867 	li	t1,0xe867
bfc01544:	2910e867 	slti	s0,t0,-6041
bfc01548:	24120001 	li	s2,1
bfc0154c:	161202b5 	bne	s0,s2,bfc02024 <inst_error>
bfc01550:	00000000 	nop
bfc01554:	3c08c275 	lui	t0,0xc275
bfc01558:	350892b8 	ori	t0,t0,0x92b8
bfc0155c:	3409b6c4 	li	t1,0xb6c4
bfc01560:	2910b6c4 	slti	s0,t0,-18748
bfc01564:	24120001 	li	s2,1
bfc01568:	161202ae 	bne	s0,s2,bfc02024 <inst_error>
bfc0156c:	00000000 	nop
bfc01570:	3c084522 	lui	t0,0x4522
bfc01574:	35085370 	ori	t0,t0,0x5370
bfc01578:	3409f1b3 	li	t1,0xf1b3
bfc0157c:	2910f1b3 	slti	s0,t0,-3661
bfc01580:	24120000 	li	s2,0
bfc01584:	161202a7 	bne	s0,s2,bfc02024 <inst_error>
bfc01588:	00000000 	nop
bfc0158c:	3c080e41 	lui	t0,0xe41
bfc01590:	35083b53 	ori	t0,t0,0x3b53
bfc01594:	3409a0f5 	li	t1,0xa0f5
bfc01598:	2910a0f5 	slti	s0,t0,-24331
bfc0159c:	24120000 	li	s2,0
bfc015a0:	161202a0 	bne	s0,s2,bfc02024 <inst_error>
bfc015a4:	00000000 	nop
bfc015a8:	3c081b19 	lui	t0,0x1b19
bfc015ac:	3508286c 	ori	t0,t0,0x286c
bfc015b0:	24093b8d 	li	t1,15245
bfc015b4:	29103b8d 	slti	s0,t0,15245
bfc015b8:	24120000 	li	s2,0
bfc015bc:	16120299 	bne	s0,s2,bfc02024 <inst_error>
bfc015c0:	00000000 	nop
bfc015c4:	3c0827e8 	lui	t0,0x27e8
bfc015c8:	3508e268 	ori	t0,t0,0xe268
bfc015cc:	3409e1e0 	li	t1,0xe1e0
bfc015d0:	2910e1e0 	slti	s0,t0,-7712
bfc015d4:	24120000 	li	s2,0
bfc015d8:	16120292 	bne	s0,s2,bfc02024 <inst_error>
bfc015dc:	00000000 	nop
bfc015e0:	3c083792 	lui	t0,0x3792
bfc015e4:	35086548 	ori	t0,t0,0x6548
bfc015e8:	24090000 	li	t1,0
bfc015ec:	29100000 	slti	s0,t0,0
bfc015f0:	24120000 	li	s2,0
bfc015f4:	1612028b 	bne	s0,s2,bfc02024 <inst_error>
bfc015f8:	00000000 	nop
bfc015fc:	3c089a74 	lui	t0,0x9a74
bfc01600:	3508b580 	ori	t0,t0,0xb580
bfc01604:	24090000 	li	t1,0
bfc01608:	29100000 	slti	s0,t0,0
bfc0160c:	24120001 	li	s2,1
bfc01610:	16120284 	bne	s0,s2,bfc02024 <inst_error>
bfc01614:	00000000 	nop
bfc01618:	3c08b4a7 	lui	t0,0xb4a7
bfc0161c:	3508def0 	ori	t0,t0,0xdef0
bfc01620:	24090000 	li	t1,0
bfc01624:	29100000 	slti	s0,t0,0
bfc01628:	24120001 	li	s2,1
bfc0162c:	1612027d 	bne	s0,s2,bfc02024 <inst_error>
bfc01630:	00000000 	nop
bfc01634:	3c086bb7 	lui	t0,0x6bb7
bfc01638:	3508ee0d 	ori	t0,t0,0xee0d
bfc0163c:	24090000 	li	t1,0
bfc01640:	29100000 	slti	s0,t0,0
bfc01644:	24120000 	li	s2,0
bfc01648:	16120276 	bne	s0,s2,bfc02024 <inst_error>
bfc0164c:	00000000 	nop
bfc01650:	3c08d608 	lui	t0,0xd608
bfc01654:	3508b460 	ori	t0,t0,0xb460
bfc01658:	24090000 	li	t1,0
bfc0165c:	29100000 	slti	s0,t0,0
bfc01660:	24120001 	li	s2,1
bfc01664:	1612026f 	bne	s0,s2,bfc02024 <inst_error>
bfc01668:	00000000 	nop
bfc0166c:	3c08d25d 	lui	t0,0xd25d
bfc01670:	35086422 	ori	t0,t0,0x6422
bfc01674:	24090000 	li	t1,0
bfc01678:	29100000 	slti	s0,t0,0
bfc0167c:	24120001 	li	s2,1
bfc01680:	16120268 	bne	s0,s2,bfc02024 <inst_error>
bfc01684:	00000000 	nop
bfc01688:	3c08226a 	lui	t0,0x226a
bfc0168c:	3508f9c0 	ori	t0,t0,0xf9c0
bfc01690:	24090000 	li	t1,0
bfc01694:	29100000 	slti	s0,t0,0
bfc01698:	24120000 	li	s2,0
bfc0169c:	16120261 	bne	s0,s2,bfc02024 <inst_error>
bfc016a0:	00000000 	nop
bfc016a4:	3c086899 	lui	t0,0x6899
bfc016a8:	35087bdd 	ori	t0,t0,0x7bdd
bfc016ac:	24090000 	li	t1,0
bfc016b0:	29100000 	slti	s0,t0,0
bfc016b4:	24120000 	li	s2,0
bfc016b8:	1612025a 	bne	s0,s2,bfc02024 <inst_error>
bfc016bc:	00000000 	nop
bfc016c0:	3c086bc2 	lui	t0,0x6bc2
bfc016c4:	3508f560 	ori	t0,t0,0xf560
bfc016c8:	24090000 	li	t1,0
bfc016cc:	29100000 	slti	s0,t0,0
bfc016d0:	24120000 	li	s2,0
bfc016d4:	16120253 	bne	s0,s2,bfc02024 <inst_error>
bfc016d8:	00000000 	nop
bfc016dc:	3c083e9f 	lui	t0,0x3e9f
bfc016e0:	3508e5a2 	ori	t0,t0,0xe5a2
bfc016e4:	24090000 	li	t1,0
bfc016e8:	29100000 	slti	s0,t0,0
bfc016ec:	24120000 	li	s2,0
bfc016f0:	1612024c 	bne	s0,s2,bfc02024 <inst_error>
bfc016f4:	00000000 	nop
bfc016f8:	3c08cd97 	lui	t0,0xcd97
bfc016fc:	3508048e 	ori	t0,t0,0x48e
bfc01700:	24090000 	li	t1,0
bfc01704:	29100000 	slti	s0,t0,0
bfc01708:	24120001 	li	s2,1
bfc0170c:	16120245 	bne	s0,s2,bfc02024 <inst_error>
bfc01710:	00000000 	nop
bfc01714:	3c081108 	lui	t0,0x1108
bfc01718:	3508b6d4 	ori	t0,t0,0xb6d4
bfc0171c:	24090000 	li	t1,0
bfc01720:	29100000 	slti	s0,t0,0
bfc01724:	24120000 	li	s2,0
bfc01728:	1612023e 	bne	s0,s2,bfc02024 <inst_error>
bfc0172c:	00000000 	nop
bfc01730:	3c081629 	lui	t0,0x1629
bfc01734:	35083334 	ori	t0,t0,0x3334
bfc01738:	24090000 	li	t1,0
bfc0173c:	29100000 	slti	s0,t0,0
bfc01740:	24120000 	li	s2,0
bfc01744:	16120237 	bne	s0,s2,bfc02024 <inst_error>
bfc01748:	00000000 	nop
bfc0174c:	3c088640 	lui	t0,0x8640
bfc01750:	35087bb0 	ori	t0,t0,0x7bb0
bfc01754:	24090000 	li	t1,0
bfc01758:	29100000 	slti	s0,t0,0
bfc0175c:	24120001 	li	s2,1
bfc01760:	16120230 	bne	s0,s2,bfc02024 <inst_error>
bfc01764:	00000000 	nop
bfc01768:	3c088d34 	lui	t0,0x8d34
bfc0176c:	3508a030 	ori	t0,t0,0xa030
bfc01770:	24090000 	li	t1,0
bfc01774:	29100000 	slti	s0,t0,0
bfc01778:	24120001 	li	s2,1
bfc0177c:	16120229 	bne	s0,s2,bfc02024 <inst_error>
bfc01780:	00000000 	nop
bfc01784:	3c084162 	lui	t0,0x4162
bfc01788:	3508f981 	ori	t0,t0,0xf981
bfc0178c:	24090000 	li	t1,0
bfc01790:	29100000 	slti	s0,t0,0
bfc01794:	24120000 	li	s2,0
bfc01798:	16120222 	bne	s0,s2,bfc02024 <inst_error>
bfc0179c:	00000000 	nop
bfc017a0:	3c0858a6 	lui	t0,0x58a6
bfc017a4:	35089718 	ori	t0,t0,0x9718
bfc017a8:	24090000 	li	t1,0
bfc017ac:	29100000 	slti	s0,t0,0
bfc017b0:	24120000 	li	s2,0
bfc017b4:	1612021b 	bne	s0,s2,bfc02024 <inst_error>
bfc017b8:	00000000 	nop
bfc017bc:	3c08d522 	lui	t0,0xd522
bfc017c0:	3508770a 	ori	t0,t0,0x770a
bfc017c4:	24090000 	li	t1,0
bfc017c8:	29100000 	slti	s0,t0,0
bfc017cc:	24120001 	li	s2,1
bfc017d0:	16120214 	bne	s0,s2,bfc02024 <inst_error>
bfc017d4:	00000000 	nop
bfc017d8:	3c081221 	lui	t0,0x1221
bfc017dc:	3508adca 	ori	t0,t0,0xadca
bfc017e0:	24090000 	li	t1,0
bfc017e4:	29100000 	slti	s0,t0,0
bfc017e8:	24120000 	li	s2,0
bfc017ec:	1612020d 	bne	s0,s2,bfc02024 <inst_error>
bfc017f0:	00000000 	nop
bfc017f4:	3c085a15 	lui	t0,0x5a15
bfc017f8:	35089dc3 	ori	t0,t0,0x9dc3
bfc017fc:	24090000 	li	t1,0
bfc01800:	29100000 	slti	s0,t0,0
bfc01804:	24120000 	li	s2,0
bfc01808:	16120206 	bne	s0,s2,bfc02024 <inst_error>
bfc0180c:	00000000 	nop
bfc01810:	3c08e550 	lui	t0,0xe550
bfc01814:	35085b24 	ori	t0,t0,0x5b24
bfc01818:	24090000 	li	t1,0
bfc0181c:	29100000 	slti	s0,t0,0
bfc01820:	24120001 	li	s2,1
bfc01824:	161201ff 	bne	s0,s2,bfc02024 <inst_error>
bfc01828:	00000000 	nop
bfc0182c:	3c08da7b 	lui	t0,0xda7b
bfc01830:	35081d60 	ori	t0,t0,0x1d60
bfc01834:	24090000 	li	t1,0
bfc01838:	29100000 	slti	s0,t0,0
bfc0183c:	24120001 	li	s2,1
bfc01840:	161201f8 	bne	s0,s2,bfc02024 <inst_error>
bfc01844:	00000000 	nop
bfc01848:	3c08af2d 	lui	t0,0xaf2d
bfc0184c:	35081540 	ori	t0,t0,0x1540
bfc01850:	24090000 	li	t1,0
bfc01854:	29100000 	slti	s0,t0,0
bfc01858:	24120001 	li	s2,1
bfc0185c:	161201f1 	bne	s0,s2,bfc02024 <inst_error>
bfc01860:	00000000 	nop
bfc01864:	3c087945 	lui	t0,0x7945
bfc01868:	3508204a 	ori	t0,t0,0x204a
bfc0186c:	24090000 	li	t1,0
bfc01870:	29100000 	slti	s0,t0,0
bfc01874:	24120000 	li	s2,0
bfc01878:	161201ea 	bne	s0,s2,bfc02024 <inst_error>
bfc0187c:	00000000 	nop
bfc01880:	3c087fb9 	lui	t0,0x7fb9
bfc01884:	350869a0 	ori	t0,t0,0x69a0
bfc01888:	24090000 	li	t1,0
bfc0188c:	29100000 	slti	s0,t0,0
bfc01890:	24120000 	li	s2,0
bfc01894:	161201e3 	bne	s0,s2,bfc02024 <inst_error>
bfc01898:	00000000 	nop
bfc0189c:	3c088d7d 	lui	t0,0x8d7d
bfc018a0:	3508d358 	ori	t0,t0,0xd358
bfc018a4:	24090000 	li	t1,0
bfc018a8:	29100000 	slti	s0,t0,0
bfc018ac:	24120001 	li	s2,1
bfc018b0:	161201dc 	bne	s0,s2,bfc02024 <inst_error>
bfc018b4:	00000000 	nop
bfc018b8:	3c08f2b2 	lui	t0,0xf2b2
bfc018bc:	35083a40 	ori	t0,t0,0x3a40
bfc018c0:	24090000 	li	t1,0
bfc018c4:	29100000 	slti	s0,t0,0
bfc018c8:	24120001 	li	s2,1
bfc018cc:	161201d5 	bne	s0,s2,bfc02024 <inst_error>
bfc018d0:	00000000 	nop
bfc018d4:	3c0858f0 	lui	t0,0x58f0
bfc018d8:	3508f6e0 	ori	t0,t0,0xf6e0
bfc018dc:	24090000 	li	t1,0
bfc018e0:	29100000 	slti	s0,t0,0
bfc018e4:	24120000 	li	s2,0
bfc018e8:	161201ce 	bne	s0,s2,bfc02024 <inst_error>
bfc018ec:	00000000 	nop
bfc018f0:	3c0869b6 	lui	t0,0x69b6
bfc018f4:	35083e31 	ori	t0,t0,0x3e31
bfc018f8:	24090000 	li	t1,0
bfc018fc:	29100000 	slti	s0,t0,0
bfc01900:	24120000 	li	s2,0
bfc01904:	161201c7 	bne	s0,s2,bfc02024 <inst_error>
bfc01908:	00000000 	nop
bfc0190c:	3c08c919 	lui	t0,0xc919
bfc01910:	3508d37c 	ori	t0,t0,0xd37c
bfc01914:	24090000 	li	t1,0
bfc01918:	29100000 	slti	s0,t0,0
bfc0191c:	24120001 	li	s2,1
bfc01920:	161201c0 	bne	s0,s2,bfc02024 <inst_error>
bfc01924:	00000000 	nop
bfc01928:	3c08a4a9 	lui	t0,0xa4a9
bfc0192c:	3508dcb5 	ori	t0,t0,0xdcb5
bfc01930:	24090000 	li	t1,0
bfc01934:	29100000 	slti	s0,t0,0
bfc01938:	24120001 	li	s2,1
bfc0193c:	161201b9 	bne	s0,s2,bfc02024 <inst_error>
bfc01940:	00000000 	nop
bfc01944:	3c087d8b 	lui	t0,0x7d8b
bfc01948:	3508a484 	ori	t0,t0,0xa484
bfc0194c:	24090000 	li	t1,0
bfc01950:	29100000 	slti	s0,t0,0
bfc01954:	24120000 	li	s2,0
bfc01958:	161201b2 	bne	s0,s2,bfc02024 <inst_error>
bfc0195c:	00000000 	nop
bfc01960:	3c088418 	lui	t0,0x8418
bfc01964:	35084007 	ori	t0,t0,0x4007
bfc01968:	24090000 	li	t1,0
bfc0196c:	29100000 	slti	s0,t0,0
bfc01970:	24120001 	li	s2,1
bfc01974:	161201ab 	bne	s0,s2,bfc02024 <inst_error>
bfc01978:	00000000 	nop
bfc0197c:	3c084b29 	lui	t0,0x4b29
bfc01980:	3508d000 	ori	t0,t0,0xd000
bfc01984:	24090000 	li	t1,0
bfc01988:	29100000 	slti	s0,t0,0
bfc0198c:	24120000 	li	s2,0
bfc01990:	161201a4 	bne	s0,s2,bfc02024 <inst_error>
bfc01994:	00000000 	nop
bfc01998:	3c08c74c 	lui	t0,0xc74c
bfc0199c:	3508d6ea 	ori	t0,t0,0xd6ea
bfc019a0:	24090000 	li	t1,0
bfc019a4:	29100000 	slti	s0,t0,0
bfc019a8:	24120001 	li	s2,1
bfc019ac:	1612019d 	bne	s0,s2,bfc02024 <inst_error>
bfc019b0:	00000000 	nop
bfc019b4:	3c08ff0a 	lui	t0,0xff0a
bfc019b8:	35084d60 	ori	t0,t0,0x4d60
bfc019bc:	24090000 	li	t1,0
bfc019c0:	29100000 	slti	s0,t0,0
bfc019c4:	24120001 	li	s2,1
bfc019c8:	16120196 	bne	s0,s2,bfc02024 <inst_error>
bfc019cc:	00000000 	nop
bfc019d0:	3c082efa 	lui	t0,0x2efa
bfc019d4:	3508ab54 	ori	t0,t0,0xab54
bfc019d8:	24090000 	li	t1,0
bfc019dc:	29100000 	slti	s0,t0,0
bfc019e0:	24120000 	li	s2,0
bfc019e4:	1612018f 	bne	s0,s2,bfc02024 <inst_error>
bfc019e8:	00000000 	nop
bfc019ec:	3c0865d6 	lui	t0,0x65d6
bfc019f0:	3508057a 	ori	t0,t0,0x57a
bfc019f4:	24090000 	li	t1,0
bfc019f8:	29100000 	slti	s0,t0,0
bfc019fc:	24120000 	li	s2,0
bfc01a00:	16120188 	bne	s0,s2,bfc02024 <inst_error>
bfc01a04:	00000000 	nop
bfc01a08:	3c084a39 	lui	t0,0x4a39
bfc01a0c:	35081008 	ori	t0,t0,0x1008
bfc01a10:	24090000 	li	t1,0
bfc01a14:	29100000 	slti	s0,t0,0
bfc01a18:	24120000 	li	s2,0
bfc01a1c:	16120181 	bne	s0,s2,bfc02024 <inst_error>
bfc01a20:	00000000 	nop
bfc01a24:	3c0858ca 	lui	t0,0x58ca
bfc01a28:	350824f4 	ori	t0,t0,0x24f4
bfc01a2c:	24090000 	li	t1,0
bfc01a30:	29100000 	slti	s0,t0,0
bfc01a34:	24120000 	li	s2,0
bfc01a38:	1612017a 	bne	s0,s2,bfc02024 <inst_error>
bfc01a3c:	00000000 	nop
bfc01a40:	3c0808fc 	lui	t0,0x8fc
bfc01a44:	3508c510 	ori	t0,t0,0xc510
bfc01a48:	24090000 	li	t1,0
bfc01a4c:	29100000 	slti	s0,t0,0
bfc01a50:	24120000 	li	s2,0
bfc01a54:	16120173 	bne	s0,s2,bfc02024 <inst_error>
bfc01a58:	00000000 	nop
bfc01a5c:	3c084111 	lui	t0,0x4111
bfc01a60:	3508c2d0 	ori	t0,t0,0xc2d0
bfc01a64:	24090000 	li	t1,0
bfc01a68:	29100000 	slti	s0,t0,0
bfc01a6c:	24120000 	li	s2,0
bfc01a70:	1612016c 	bne	s0,s2,bfc02024 <inst_error>
bfc01a74:	00000000 	nop
bfc01a78:	3c080558 	lui	t0,0x558
bfc01a7c:	3508e878 	ori	t0,t0,0xe878
bfc01a80:	24090000 	li	t1,0
bfc01a84:	29100000 	slti	s0,t0,0
bfc01a88:	24120000 	li	s2,0
bfc01a8c:	16120165 	bne	s0,s2,bfc02024 <inst_error>
bfc01a90:	00000000 	nop
bfc01a94:	3c082f54 	lui	t0,0x2f54
bfc01a98:	3508e72c 	ori	t0,t0,0xe72c
bfc01a9c:	24090000 	li	t1,0
bfc01aa0:	29100000 	slti	s0,t0,0
bfc01aa4:	24120000 	li	s2,0
bfc01aa8:	1612015e 	bne	s0,s2,bfc02024 <inst_error>
bfc01aac:	00000000 	nop
bfc01ab0:	3c08ec4a 	lui	t0,0xec4a
bfc01ab4:	35081ea0 	ori	t0,t0,0x1ea0
bfc01ab8:	24090000 	li	t1,0
bfc01abc:	29100000 	slti	s0,t0,0
bfc01ac0:	24120001 	li	s2,1
bfc01ac4:	16120157 	bne	s0,s2,bfc02024 <inst_error>
bfc01ac8:	00000000 	nop
bfc01acc:	3c08e2a6 	lui	t0,0xe2a6
bfc01ad0:	35084e16 	ori	t0,t0,0x4e16
bfc01ad4:	24090000 	li	t1,0
bfc01ad8:	29100000 	slti	s0,t0,0
bfc01adc:	24120001 	li	s2,1
bfc01ae0:	16120150 	bne	s0,s2,bfc02024 <inst_error>
bfc01ae4:	00000000 	nop
bfc01ae8:	3c081973 	lui	t0,0x1973
bfc01aec:	3508d690 	ori	t0,t0,0xd690
bfc01af0:	24090000 	li	t1,0
bfc01af4:	29100000 	slti	s0,t0,0
bfc01af8:	24120000 	li	s2,0
bfc01afc:	16120149 	bne	s0,s2,bfc02024 <inst_error>
bfc01b00:	00000000 	nop
bfc01b04:	3c08d42c 	lui	t0,0xd42c
bfc01b08:	350843d0 	ori	t0,t0,0x43d0
bfc01b0c:	24090000 	li	t1,0
bfc01b10:	29100000 	slti	s0,t0,0
bfc01b14:	24120001 	li	s2,1
bfc01b18:	16120142 	bne	s0,s2,bfc02024 <inst_error>
bfc01b1c:	00000000 	nop
bfc01b20:	3c08fb04 	lui	t0,0xfb04
bfc01b24:	3508a4f0 	ori	t0,t0,0xa4f0
bfc01b28:	24090000 	li	t1,0
bfc01b2c:	29100000 	slti	s0,t0,0
bfc01b30:	24120001 	li	s2,1
bfc01b34:	1612013b 	bne	s0,s2,bfc02024 <inst_error>
bfc01b38:	00000000 	nop
bfc01b3c:	3c08ba63 	lui	t0,0xba63
bfc01b40:	3508960c 	ori	t0,t0,0x960c
bfc01b44:	24090000 	li	t1,0
bfc01b48:	29100000 	slti	s0,t0,0
bfc01b4c:	24120001 	li	s2,1
bfc01b50:	16120134 	bne	s0,s2,bfc02024 <inst_error>
bfc01b54:	00000000 	nop
bfc01b58:	24080000 	li	t0,0
bfc01b5c:	24097ef6 	li	t1,32502
bfc01b60:	29107ef6 	slti	s0,t0,32502
bfc01b64:	24120001 	li	s2,1
bfc01b68:	1612012e 	bne	s0,s2,bfc02024 <inst_error>
bfc01b6c:	00000000 	nop
bfc01b70:	24080000 	li	t0,0
bfc01b74:	2409338c 	li	t1,13196
bfc01b78:	2910338c 	slti	s0,t0,13196
bfc01b7c:	24120001 	li	s2,1
bfc01b80:	16120128 	bne	s0,s2,bfc02024 <inst_error>
bfc01b84:	00000000 	nop
bfc01b88:	24080000 	li	t0,0
bfc01b8c:	3409cac4 	li	t1,0xcac4
bfc01b90:	2910cac4 	slti	s0,t0,-13628
bfc01b94:	24120000 	li	s2,0
bfc01b98:	16120122 	bne	s0,s2,bfc02024 <inst_error>
bfc01b9c:	00000000 	nop
bfc01ba0:	24080000 	li	t0,0
bfc01ba4:	2409016d 	li	t1,365
bfc01ba8:	2910016d 	slti	s0,t0,365
bfc01bac:	24120001 	li	s2,1
bfc01bb0:	1612011c 	bne	s0,s2,bfc02024 <inst_error>
bfc01bb4:	00000000 	nop
bfc01bb8:	24080000 	li	t0,0
bfc01bbc:	3409a2c8 	li	t1,0xa2c8
bfc01bc0:	2910a2c8 	slti	s0,t0,-23864
bfc01bc4:	24120000 	li	s2,0
bfc01bc8:	16120116 	bne	s0,s2,bfc02024 <inst_error>
bfc01bcc:	00000000 	nop
bfc01bd0:	24080000 	li	t0,0
bfc01bd4:	24094c72 	li	t1,19570
bfc01bd8:	29104c72 	slti	s0,t0,19570
bfc01bdc:	24120001 	li	s2,1
bfc01be0:	16120110 	bne	s0,s2,bfc02024 <inst_error>
bfc01be4:	00000000 	nop
bfc01be8:	24080000 	li	t0,0
bfc01bec:	3409e24e 	li	t1,0xe24e
bfc01bf0:	2910e24e 	slti	s0,t0,-7602
bfc01bf4:	24120000 	li	s2,0
bfc01bf8:	1612010a 	bne	s0,s2,bfc02024 <inst_error>
bfc01bfc:	00000000 	nop
bfc01c00:	24080000 	li	t0,0
bfc01c04:	3409a614 	li	t1,0xa614
bfc01c08:	2910a614 	slti	s0,t0,-23020
bfc01c0c:	24120000 	li	s2,0
bfc01c10:	16120104 	bne	s0,s2,bfc02024 <inst_error>
bfc01c14:	00000000 	nop
bfc01c18:	24080000 	li	t0,0
bfc01c1c:	3409f51a 	li	t1,0xf51a
bfc01c20:	2910f51a 	slti	s0,t0,-2790
bfc01c24:	24120000 	li	s2,0
bfc01c28:	161200fe 	bne	s0,s2,bfc02024 <inst_error>
bfc01c2c:	00000000 	nop
bfc01c30:	24080000 	li	t0,0
bfc01c34:	34099130 	li	t1,0x9130
bfc01c38:	29109130 	slti	s0,t0,-28368
bfc01c3c:	24120000 	li	s2,0
bfc01c40:	161200f8 	bne	s0,s2,bfc02024 <inst_error>
bfc01c44:	00000000 	nop
bfc01c48:	24080000 	li	t0,0
bfc01c4c:	2409249a 	li	t1,9370
bfc01c50:	2910249a 	slti	s0,t0,9370
bfc01c54:	24120001 	li	s2,1
bfc01c58:	161200f2 	bne	s0,s2,bfc02024 <inst_error>
bfc01c5c:	00000000 	nop
bfc01c60:	24080000 	li	t0,0
bfc01c64:	24091a7c 	li	t1,6780
bfc01c68:	29101a7c 	slti	s0,t0,6780
bfc01c6c:	24120001 	li	s2,1
bfc01c70:	161200ec 	bne	s0,s2,bfc02024 <inst_error>
bfc01c74:	00000000 	nop
bfc01c78:	24080000 	li	t0,0
bfc01c7c:	24096a84 	li	t1,27268
bfc01c80:	29106a84 	slti	s0,t0,27268
bfc01c84:	24120001 	li	s2,1
bfc01c88:	161200e6 	bne	s0,s2,bfc02024 <inst_error>
bfc01c8c:	00000000 	nop
bfc01c90:	24080000 	li	t0,0
bfc01c94:	3409c02c 	li	t1,0xc02c
bfc01c98:	2910c02c 	slti	s0,t0,-16340
bfc01c9c:	24120000 	li	s2,0
bfc01ca0:	161200e0 	bne	s0,s2,bfc02024 <inst_error>
bfc01ca4:	00000000 	nop
bfc01ca8:	24080000 	li	t0,0
bfc01cac:	3409b71e 	li	t1,0xb71e
bfc01cb0:	2910b71e 	slti	s0,t0,-18658
bfc01cb4:	24120000 	li	s2,0
bfc01cb8:	161200da 	bne	s0,s2,bfc02024 <inst_error>
bfc01cbc:	00000000 	nop
bfc01cc0:	24080000 	li	t0,0
bfc01cc4:	24096489 	li	t1,25737
bfc01cc8:	29106489 	slti	s0,t0,25737
bfc01ccc:	24120001 	li	s2,1
bfc01cd0:	161200d4 	bne	s0,s2,bfc02024 <inst_error>
bfc01cd4:	00000000 	nop
bfc01cd8:	24080000 	li	t0,0
bfc01cdc:	3409e115 	li	t1,0xe115
bfc01ce0:	2910e115 	slti	s0,t0,-7915
bfc01ce4:	24120000 	li	s2,0
bfc01ce8:	161200ce 	bne	s0,s2,bfc02024 <inst_error>
bfc01cec:	00000000 	nop
bfc01cf0:	24080000 	li	t0,0
bfc01cf4:	24095fb3 	li	t1,24499
bfc01cf8:	29105fb3 	slti	s0,t0,24499
bfc01cfc:	24120001 	li	s2,1
bfc01d00:	161200c8 	bne	s0,s2,bfc02024 <inst_error>
bfc01d04:	00000000 	nop
bfc01d08:	24080000 	li	t0,0
bfc01d0c:	3409e7f4 	li	t1,0xe7f4
bfc01d10:	2910e7f4 	slti	s0,t0,-6156
bfc01d14:	24120000 	li	s2,0
bfc01d18:	161200c2 	bne	s0,s2,bfc02024 <inst_error>
bfc01d1c:	00000000 	nop
bfc01d20:	24080000 	li	t0,0
bfc01d24:	3409fcf5 	li	t1,0xfcf5
bfc01d28:	2910fcf5 	slti	s0,t0,-779
bfc01d2c:	24120000 	li	s2,0
bfc01d30:	161200bc 	bne	s0,s2,bfc02024 <inst_error>
bfc01d34:	00000000 	nop
bfc01d38:	24080000 	li	t0,0
bfc01d3c:	3409ded0 	li	t1,0xded0
bfc01d40:	2910ded0 	slti	s0,t0,-8496
bfc01d44:	24120000 	li	s2,0
bfc01d48:	161200b6 	bne	s0,s2,bfc02024 <inst_error>
bfc01d4c:	00000000 	nop
bfc01d50:	24080000 	li	t0,0
bfc01d54:	2409460c 	li	t1,17932
bfc01d58:	2910460c 	slti	s0,t0,17932
bfc01d5c:	24120001 	li	s2,1
bfc01d60:	161200b0 	bne	s0,s2,bfc02024 <inst_error>
bfc01d64:	00000000 	nop
bfc01d68:	24080000 	li	t0,0
bfc01d6c:	24090a44 	li	t1,2628
bfc01d70:	29100a44 	slti	s0,t0,2628
bfc01d74:	24120001 	li	s2,1
bfc01d78:	161200aa 	bne	s0,s2,bfc02024 <inst_error>
bfc01d7c:	00000000 	nop
bfc01d80:	24080000 	li	t0,0
bfc01d84:	240911b8 	li	t1,4536
bfc01d88:	291011b8 	slti	s0,t0,4536
bfc01d8c:	24120001 	li	s2,1
bfc01d90:	161200a4 	bne	s0,s2,bfc02024 <inst_error>
bfc01d94:	00000000 	nop
bfc01d98:	24080000 	li	t0,0
bfc01d9c:	3409cfa7 	li	t1,0xcfa7
bfc01da0:	2910cfa7 	slti	s0,t0,-12377
bfc01da4:	24120000 	li	s2,0
bfc01da8:	1612009e 	bne	s0,s2,bfc02024 <inst_error>
bfc01dac:	00000000 	nop
bfc01db0:	24080000 	li	t0,0
bfc01db4:	3409afbb 	li	t1,0xafbb
bfc01db8:	2910afbb 	slti	s0,t0,-20549
bfc01dbc:	24120000 	li	s2,0
bfc01dc0:	16120098 	bne	s0,s2,bfc02024 <inst_error>
bfc01dc4:	00000000 	nop
bfc01dc8:	24080000 	li	t0,0
bfc01dcc:	24093481 	li	t1,13441
bfc01dd0:	29103481 	slti	s0,t0,13441
bfc01dd4:	24120001 	li	s2,1
bfc01dd8:	16120092 	bne	s0,s2,bfc02024 <inst_error>
bfc01ddc:	00000000 	nop
bfc01de0:	24080000 	li	t0,0
bfc01de4:	24092bc8 	li	t1,11208
bfc01de8:	29102bc8 	slti	s0,t0,11208
bfc01dec:	24120001 	li	s2,1
bfc01df0:	1612008c 	bne	s0,s2,bfc02024 <inst_error>
bfc01df4:	00000000 	nop
bfc01df8:	24080000 	li	t0,0
bfc01dfc:	24094978 	li	t1,18808
bfc01e00:	29104978 	slti	s0,t0,18808
bfc01e04:	24120001 	li	s2,1
bfc01e08:	16120086 	bne	s0,s2,bfc02024 <inst_error>
bfc01e0c:	00000000 	nop
bfc01e10:	24080000 	li	t0,0
bfc01e14:	3409a3c0 	li	t1,0xa3c0
bfc01e18:	2910a3c0 	slti	s0,t0,-23616
bfc01e1c:	24120000 	li	s2,0
bfc01e20:	16120080 	bne	s0,s2,bfc02024 <inst_error>
bfc01e24:	00000000 	nop
bfc01e28:	24080000 	li	t0,0
bfc01e2c:	24090066 	li	t1,102
bfc01e30:	29100066 	slti	s0,t0,102
bfc01e34:	24120001 	li	s2,1
bfc01e38:	1612007a 	bne	s0,s2,bfc02024 <inst_error>
bfc01e3c:	00000000 	nop
bfc01e40:	24080000 	li	t0,0
bfc01e44:	34099b0c 	li	t1,0x9b0c
bfc01e48:	29109b0c 	slti	s0,t0,-25844
bfc01e4c:	24120000 	li	s2,0
bfc01e50:	16120074 	bne	s0,s2,bfc02024 <inst_error>
bfc01e54:	00000000 	nop
bfc01e58:	24080000 	li	t0,0
bfc01e5c:	340983d8 	li	t1,0x83d8
bfc01e60:	291083d8 	slti	s0,t0,-31784
bfc01e64:	24120000 	li	s2,0
bfc01e68:	1612006e 	bne	s0,s2,bfc02024 <inst_error>
bfc01e6c:	00000000 	nop
bfc01e70:	24080000 	li	t0,0
bfc01e74:	24094307 	li	t1,17159
bfc01e78:	29104307 	slti	s0,t0,17159
bfc01e7c:	24120001 	li	s2,1
bfc01e80:	16120068 	bne	s0,s2,bfc02024 <inst_error>
bfc01e84:	00000000 	nop
bfc01e88:	24080000 	li	t0,0
bfc01e8c:	24092ecd 	li	t1,11981
bfc01e90:	29102ecd 	slti	s0,t0,11981
bfc01e94:	24120001 	li	s2,1
bfc01e98:	16120062 	bne	s0,s2,bfc02024 <inst_error>
bfc01e9c:	00000000 	nop
bfc01ea0:	24080000 	li	t0,0
bfc01ea4:	3409cde2 	li	t1,0xcde2
bfc01ea8:	2910cde2 	slti	s0,t0,-12830
bfc01eac:	24120000 	li	s2,0
bfc01eb0:	1612005c 	bne	s0,s2,bfc02024 <inst_error>
bfc01eb4:	00000000 	nop
bfc01eb8:	24080000 	li	t0,0
bfc01ebc:	24093282 	li	t1,12930
bfc01ec0:	29103282 	slti	s0,t0,12930
bfc01ec4:	24120001 	li	s2,1
bfc01ec8:	16120056 	bne	s0,s2,bfc02024 <inst_error>
bfc01ecc:	00000000 	nop
bfc01ed0:	24080000 	li	t0,0
bfc01ed4:	3409c58d 	li	t1,0xc58d
bfc01ed8:	2910c58d 	slti	s0,t0,-14963
bfc01edc:	24120000 	li	s2,0
bfc01ee0:	16120050 	bne	s0,s2,bfc02024 <inst_error>
bfc01ee4:	00000000 	nop
bfc01ee8:	24080000 	li	t0,0
bfc01eec:	3409c056 	li	t1,0xc056
bfc01ef0:	2910c056 	slti	s0,t0,-16298
bfc01ef4:	24120000 	li	s2,0
bfc01ef8:	1612004a 	bne	s0,s2,bfc02024 <inst_error>
bfc01efc:	00000000 	nop
bfc01f00:	24080000 	li	t0,0
bfc01f04:	24095e50 	li	t1,24144
bfc01f08:	29105e50 	slti	s0,t0,24144
bfc01f0c:	24120001 	li	s2,1
bfc01f10:	16120044 	bne	s0,s2,bfc02024 <inst_error>
bfc01f14:	00000000 	nop
bfc01f18:	24080000 	li	t0,0
bfc01f1c:	24091f0d 	li	t1,7949
bfc01f20:	29101f0d 	slti	s0,t0,7949
bfc01f24:	24120001 	li	s2,1
bfc01f28:	1612003e 	bne	s0,s2,bfc02024 <inst_error>
bfc01f2c:	00000000 	nop
bfc01f30:	24080000 	li	t0,0
bfc01f34:	24097f00 	li	t1,32512
bfc01f38:	29107f00 	slti	s0,t0,32512
bfc01f3c:	24120001 	li	s2,1
bfc01f40:	16120038 	bne	s0,s2,bfc02024 <inst_error>
bfc01f44:	00000000 	nop
bfc01f48:	24080000 	li	t0,0
bfc01f4c:	240902d0 	li	t1,720
bfc01f50:	291002d0 	slti	s0,t0,720
bfc01f54:	24120001 	li	s2,1
bfc01f58:	16120032 	bne	s0,s2,bfc02024 <inst_error>
bfc01f5c:	00000000 	nop
bfc01f60:	24080000 	li	t0,0
bfc01f64:	3409ccea 	li	t1,0xccea
bfc01f68:	2910ccea 	slti	s0,t0,-13078
bfc01f6c:	24120000 	li	s2,0
bfc01f70:	1612002c 	bne	s0,s2,bfc02024 <inst_error>
bfc01f74:	00000000 	nop
bfc01f78:	24080000 	li	t0,0
bfc01f7c:	24093cc9 	li	t1,15561
bfc01f80:	29103cc9 	slti	s0,t0,15561
bfc01f84:	24120001 	li	s2,1
bfc01f88:	16120026 	bne	s0,s2,bfc02024 <inst_error>
bfc01f8c:	00000000 	nop
bfc01f90:	24080000 	li	t0,0
bfc01f94:	24093570 	li	t1,13680
bfc01f98:	29103570 	slti	s0,t0,13680
bfc01f9c:	24120001 	li	s2,1
bfc01fa0:	16120020 	bne	s0,s2,bfc02024 <inst_error>
bfc01fa4:	00000000 	nop
bfc01fa8:	24080000 	li	t0,0
bfc01fac:	34098550 	li	t1,0x8550
bfc01fb0:	29108550 	slti	s0,t0,-31408
bfc01fb4:	24120000 	li	s2,0
bfc01fb8:	1612001a 	bne	s0,s2,bfc02024 <inst_error>
bfc01fbc:	00000000 	nop
bfc01fc0:	24080000 	li	t0,0
bfc01fc4:	34099a91 	li	t1,0x9a91
bfc01fc8:	29109a91 	slti	s0,t0,-25967
bfc01fcc:	24120000 	li	s2,0
bfc01fd0:	16120014 	bne	s0,s2,bfc02024 <inst_error>
bfc01fd4:	00000000 	nop
bfc01fd8:	24080000 	li	t0,0
bfc01fdc:	34098096 	li	t1,0x8096
bfc01fe0:	29108096 	slti	s0,t0,-32618
bfc01fe4:	24120000 	li	s2,0
bfc01fe8:	1612000e 	bne	s0,s2,bfc02024 <inst_error>
bfc01fec:	00000000 	nop
bfc01ff0:	24080000 	li	t0,0
bfc01ff4:	3409a394 	li	t1,0xa394
bfc01ff8:	2910a394 	slti	s0,t0,-23660
bfc01ffc:	24120000 	li	s2,0
bfc02000:	16120008 	bne	s0,s2,bfc02024 <inst_error>
bfc02004:	00000000 	nop
bfc02008:	24080000 	li	t0,0
bfc0200c:	24090000 	li	t1,0
bfc02010:	29100000 	slti	s0,t0,0
bfc02014:	24120000 	li	s2,0
bfc02018:	16120002 	bne	s0,s2,bfc02024 <inst_error>
bfc0201c:	00000000 	nop
bfc02020:	4a000000 	c2	0x0

bfc02024 <inst_error>:
inst_error():
bfc02024:	0000003f 	0x3f

Disassembly of section .reginfo:

00000000 <.reginfo>:
   0:	00050300 	sll	zero,a1,0xc
	...
