
build/sltiu:     file format elf32-tradlittlemips
build/sltiu


Disassembly of section .text:

bfc00000 <main>:
bfc00000:	3c08c254 	lui	t0,0xc254
bfc00004:	3508e3d8 	ori	t0,t0,0xe3d8
bfc00008:	3409f469 	li	t1,0xf469
bfc0000c:	2d10f469 	sltiu	s0,t0,-2967
bfc00010:	24120001 	li	s2,1
bfc00014:	16120803 	bne	s0,s2,bfc02024 <inst_error>
bfc00018:	00000000 	nop
bfc0001c:	3c087a56 	lui	t0,0x7a56
bfc00020:	3508334c 	ori	t0,t0,0x334c
bfc00024:	240902f5 	li	t1,757
bfc00028:	2d1002f5 	sltiu	s0,t0,757
bfc0002c:	24120000 	li	s2,0
bfc00030:	161207fc 	bne	s0,s2,bfc02024 <inst_error>
bfc00034:	00000000 	nop
bfc00038:	3c08abcd 	lui	t0,0xabcd
bfc0003c:	35082c00 	ori	t0,t0,0x2c00
bfc00040:	3409f7c7 	li	t1,0xf7c7
bfc00044:	2d10f7c7 	sltiu	s0,t0,-2105
bfc00048:	24120001 	li	s2,1
bfc0004c:	161207f5 	bne	s0,s2,bfc02024 <inst_error>
bfc00050:	00000000 	nop
bfc00054:	3c0825c8 	lui	t0,0x25c8
bfc00058:	350835b7 	ori	t0,t0,0x35b7
bfc0005c:	24096dba 	li	t1,28090
bfc00060:	2d106dba 	sltiu	s0,t0,28090
bfc00064:	24120000 	li	s2,0
bfc00068:	161207ee 	bne	s0,s2,bfc02024 <inst_error>
bfc0006c:	00000000 	nop
bfc00070:	3c0810ea 	lui	t0,0x10ea
bfc00074:	35083bf2 	ori	t0,t0,0x3bf2
bfc00078:	24090ff4 	li	t1,4084
bfc0007c:	2d100ff4 	sltiu	s0,t0,4084
bfc00080:	24120000 	li	s2,0
bfc00084:	161207e7 	bne	s0,s2,bfc02024 <inst_error>
bfc00088:	00000000 	nop
bfc0008c:	3c08494c 	lui	t0,0x494c
bfc00090:	35082712 	ori	t0,t0,0x2712
bfc00094:	2409407a 	li	t1,16506
bfc00098:	2d10407a 	sltiu	s0,t0,16506
bfc0009c:	24120000 	li	s2,0
bfc000a0:	161207e0 	bne	s0,s2,bfc02024 <inst_error>
bfc000a4:	00000000 	nop
bfc000a8:	3c08977b 	lui	t0,0x977b
bfc000ac:	35080d34 	ori	t0,t0,0xd34
bfc000b0:	24091280 	li	t1,4736
bfc000b4:	2d101280 	sltiu	s0,t0,4736
bfc000b8:	24120000 	li	s2,0
bfc000bc:	161207d9 	bne	s0,s2,bfc02024 <inst_error>
bfc000c0:	00000000 	nop
bfc000c4:	3c08868f 	lui	t0,0x868f
bfc000c8:	35087bf9 	ori	t0,t0,0x7bf9
bfc000cc:	240915e7 	li	t1,5607
bfc000d0:	2d1015e7 	sltiu	s0,t0,5607
bfc000d4:	24120000 	li	s2,0
bfc000d8:	161207d2 	bne	s0,s2,bfc02024 <inst_error>
bfc000dc:	00000000 	nop
bfc000e0:	3c0885a7 	lui	t0,0x85a7
bfc000e4:	35088bab 	ori	t0,t0,0x8bab
bfc000e8:	24090898 	li	t1,2200
bfc000ec:	2d100898 	sltiu	s0,t0,2200
bfc000f0:	24120000 	li	s2,0
bfc000f4:	161207cb 	bne	s0,s2,bfc02024 <inst_error>
bfc000f8:	00000000 	nop
bfc000fc:	3c0867b1 	lui	t0,0x67b1
bfc00100:	35083d20 	ori	t0,t0,0x3d20
bfc00104:	240975a5 	li	t1,30117
bfc00108:	2d1075a5 	sltiu	s0,t0,30117
bfc0010c:	24120000 	li	s2,0
bfc00110:	161207c4 	bne	s0,s2,bfc02024 <inst_error>
bfc00114:	00000000 	nop
bfc00118:	3c08d982 	lui	t0,0xd982
bfc0011c:	350863b6 	ori	t0,t0,0x63b6
bfc00120:	24095642 	li	t1,22082
bfc00124:	2d105642 	sltiu	s0,t0,22082
bfc00128:	24120000 	li	s2,0
bfc0012c:	161207bd 	bne	s0,s2,bfc02024 <inst_error>
bfc00130:	00000000 	nop
bfc00134:	3c083389 	lui	t0,0x3389
bfc00138:	35089815 	ori	t0,t0,0x9815
bfc0013c:	3409b202 	li	t1,0xb202
bfc00140:	2d10b202 	sltiu	s0,t0,-19966
bfc00144:	24120001 	li	s2,1
bfc00148:	161207b6 	bne	s0,s2,bfc02024 <inst_error>
bfc0014c:	00000000 	nop
bfc00150:	3c083a88 	lui	t0,0x3a88
bfc00154:	35080fb8 	ori	t0,t0,0xfb8
bfc00158:	240918cc 	li	t1,6348
bfc0015c:	2d1018cc 	sltiu	s0,t0,6348
bfc00160:	24120000 	li	s2,0
bfc00164:	161207af 	bne	s0,s2,bfc02024 <inst_error>
bfc00168:	00000000 	nop
bfc0016c:	3c08197b 	lui	t0,0x197b
bfc00170:	35087590 	ori	t0,t0,0x7590
bfc00174:	3409c754 	li	t1,0xc754
bfc00178:	2d10c754 	sltiu	s0,t0,-14508
bfc0017c:	24120001 	li	s2,1
bfc00180:	161207a8 	bne	s0,s2,bfc02024 <inst_error>
bfc00184:	00000000 	nop
bfc00188:	3c0865a1 	lui	t0,0x65a1
bfc0018c:	3508b8c4 	ori	t0,t0,0xb8c4
bfc00190:	24097c77 	li	t1,31863
bfc00194:	2d107c77 	sltiu	s0,t0,31863
bfc00198:	24120000 	li	s2,0
bfc0019c:	161207a1 	bne	s0,s2,bfc02024 <inst_error>
bfc001a0:	00000000 	nop
bfc001a4:	3c0806fc 	lui	t0,0x6fc
bfc001a8:	35081f2e 	ori	t0,t0,0x1f2e
bfc001ac:	340991fb 	li	t1,0x91fb
bfc001b0:	2d1091fb 	sltiu	s0,t0,-28165
bfc001b4:	24120001 	li	s2,1
bfc001b8:	1612079a 	bne	s0,s2,bfc02024 <inst_error>
bfc001bc:	00000000 	nop
bfc001c0:	3c08ba93 	lui	t0,0xba93
bfc001c4:	350867b9 	ori	t0,t0,0x67b9
bfc001c8:	3409d36c 	li	t1,0xd36c
bfc001cc:	2d10d36c 	sltiu	s0,t0,-11412
bfc001d0:	24120001 	li	s2,1
bfc001d4:	16120793 	bne	s0,s2,bfc02024 <inst_error>
bfc001d8:	00000000 	nop
bfc001dc:	3c08a0cb 	lui	t0,0xa0cb
bfc001e0:	3508f154 	ori	t0,t0,0xf154
bfc001e4:	24090d0c 	li	t1,3340
bfc001e8:	2d100d0c 	sltiu	s0,t0,3340
bfc001ec:	24120000 	li	s2,0
bfc001f0:	1612078c 	bne	s0,s2,bfc02024 <inst_error>
bfc001f4:	00000000 	nop
bfc001f8:	3c084abf 	lui	t0,0x4abf
bfc001fc:	3508a210 	ori	t0,t0,0xa210
bfc00200:	2409425c 	li	t1,16988
bfc00204:	2d10425c 	sltiu	s0,t0,16988
bfc00208:	24120000 	li	s2,0
bfc0020c:	16120785 	bne	s0,s2,bfc02024 <inst_error>
bfc00210:	00000000 	nop
bfc00214:	3c08fd04 	lui	t0,0xfd04
bfc00218:	3508e6b9 	ori	t0,t0,0xe6b9
bfc0021c:	3409cd24 	li	t1,0xcd24
bfc00220:	2d10cd24 	sltiu	s0,t0,-13020
bfc00224:	24120001 	li	s2,1
bfc00228:	1612077e 	bne	s0,s2,bfc02024 <inst_error>
bfc0022c:	00000000 	nop
bfc00230:	3c084a84 	lui	t0,0x4a84
bfc00234:	3508dd80 	ori	t0,t0,0xdd80
bfc00238:	240916a8 	li	t1,5800
bfc0023c:	2d1016a8 	sltiu	s0,t0,5800
bfc00240:	24120000 	li	s2,0
bfc00244:	16120777 	bne	s0,s2,bfc02024 <inst_error>
bfc00248:	00000000 	nop
bfc0024c:	3c085ea3 	lui	t0,0x5ea3
bfc00250:	350873b0 	ori	t0,t0,0x73b0
bfc00254:	3409aca6 	li	t1,0xaca6
bfc00258:	2d10aca6 	sltiu	s0,t0,-21338
bfc0025c:	24120001 	li	s2,1
bfc00260:	16120770 	bne	s0,s2,bfc02024 <inst_error>
bfc00264:	00000000 	nop
bfc00268:	3c08b1c6 	lui	t0,0xb1c6
bfc0026c:	35081e84 	ori	t0,t0,0x1e84
bfc00270:	240972be 	li	t1,29374
bfc00274:	2d1072be 	sltiu	s0,t0,29374
bfc00278:	24120000 	li	s2,0
bfc0027c:	16120769 	bne	s0,s2,bfc02024 <inst_error>
bfc00280:	00000000 	nop
bfc00284:	3c088d8c 	lui	t0,0x8d8c
bfc00288:	350856c6 	ori	t0,t0,0x56c6
bfc0028c:	240919e0 	li	t1,6624
bfc00290:	2d1019e0 	sltiu	s0,t0,6624
bfc00294:	24120000 	li	s2,0
bfc00298:	16120762 	bne	s0,s2,bfc02024 <inst_error>
bfc0029c:	00000000 	nop
bfc002a0:	3c08d497 	lui	t0,0xd497
bfc002a4:	35082598 	ori	t0,t0,0x2598
bfc002a8:	3409f950 	li	t1,0xf950
bfc002ac:	2d10f950 	sltiu	s0,t0,-1712
bfc002b0:	24120001 	li	s2,1
bfc002b4:	1612075b 	bne	s0,s2,bfc02024 <inst_error>
bfc002b8:	00000000 	nop
bfc002bc:	3c08bd26 	lui	t0,0xbd26
bfc002c0:	3508734a 	ori	t0,t0,0x734a
bfc002c4:	3409aac0 	li	t1,0xaac0
bfc002c8:	2d10aac0 	sltiu	s0,t0,-21824
bfc002cc:	24120001 	li	s2,1
bfc002d0:	16120754 	bne	s0,s2,bfc02024 <inst_error>
bfc002d4:	00000000 	nop
bfc002d8:	3c083432 	lui	t0,0x3432
bfc002dc:	350880c0 	ori	t0,t0,0x80c0
bfc002e0:	24096c96 	li	t1,27798
bfc002e4:	2d106c96 	sltiu	s0,t0,27798
bfc002e8:	24120000 	li	s2,0
bfc002ec:	1612074d 	bne	s0,s2,bfc02024 <inst_error>
bfc002f0:	00000000 	nop
bfc002f4:	3c081ae3 	lui	t0,0x1ae3
bfc002f8:	3508ad00 	ori	t0,t0,0xad00
bfc002fc:	34098df9 	li	t1,0x8df9
bfc00300:	2d108df9 	sltiu	s0,t0,-29191
bfc00304:	24120001 	li	s2,1
bfc00308:	16120746 	bne	s0,s2,bfc02024 <inst_error>
bfc0030c:	00000000 	nop
bfc00310:	3c08d589 	lui	t0,0xd589
bfc00314:	3508aae0 	ori	t0,t0,0xaae0
bfc00318:	24096d30 	li	t1,27952
bfc0031c:	2d106d30 	sltiu	s0,t0,27952
bfc00320:	24120000 	li	s2,0
bfc00324:	1612073f 	bne	s0,s2,bfc02024 <inst_error>
bfc00328:	00000000 	nop
bfc0032c:	3c0815b8 	lui	t0,0x15b8
bfc00330:	3508c524 	ori	t0,t0,0xc524
bfc00334:	24090758 	li	t1,1880
bfc00338:	2d100758 	sltiu	s0,t0,1880
bfc0033c:	24120000 	li	s2,0
bfc00340:	16120738 	bne	s0,s2,bfc02024 <inst_error>
bfc00344:	00000000 	nop
bfc00348:	3c082986 	lui	t0,0x2986
bfc0034c:	35081ff7 	ori	t0,t0,0x1ff7
bfc00350:	240952cc 	li	t1,21196
bfc00354:	2d1052cc 	sltiu	s0,t0,21196
bfc00358:	24120000 	li	s2,0
bfc0035c:	16120731 	bne	s0,s2,bfc02024 <inst_error>
bfc00360:	00000000 	nop
bfc00364:	3c081460 	lui	t0,0x1460
bfc00368:	35083517 	ori	t0,t0,0x3517
bfc0036c:	3409d892 	li	t1,0xd892
bfc00370:	2d10d892 	sltiu	s0,t0,-10094
bfc00374:	24120001 	li	s2,1
bfc00378:	1612072a 	bne	s0,s2,bfc02024 <inst_error>
bfc0037c:	00000000 	nop
bfc00380:	3c082afe 	lui	t0,0x2afe
bfc00384:	3508b200 	ori	t0,t0,0xb200
bfc00388:	34098cf8 	li	t1,0x8cf8
bfc0038c:	2d108cf8 	sltiu	s0,t0,-29448
bfc00390:	24120001 	li	s2,1
bfc00394:	16120723 	bne	s0,s2,bfc02024 <inst_error>
bfc00398:	00000000 	nop
bfc0039c:	3c085ee4 	lui	t0,0x5ee4
bfc003a0:	35083660 	ori	t0,t0,0x3660
bfc003a4:	3409f0f2 	li	t1,0xf0f2
bfc003a8:	2d10f0f2 	sltiu	s0,t0,-3854
bfc003ac:	24120001 	li	s2,1
bfc003b0:	1612071c 	bne	s0,s2,bfc02024 <inst_error>
bfc003b4:	00000000 	nop
bfc003b8:	3c0809bc 	lui	t0,0x9bc
bfc003bc:	35088a70 	ori	t0,t0,0x8a70
bfc003c0:	3409bd3d 	li	t1,0xbd3d
bfc003c4:	2d10bd3d 	sltiu	s0,t0,-17091
bfc003c8:	24120001 	li	s2,1
bfc003cc:	16120715 	bne	s0,s2,bfc02024 <inst_error>
bfc003d0:	00000000 	nop
bfc003d4:	3c08ecf2 	lui	t0,0xecf2
bfc003d8:	35084c80 	ori	t0,t0,0x4c80
bfc003dc:	24092bf5 	li	t1,11253
bfc003e0:	2d102bf5 	sltiu	s0,t0,11253
bfc003e4:	24120000 	li	s2,0
bfc003e8:	1612070e 	bne	s0,s2,bfc02024 <inst_error>
bfc003ec:	00000000 	nop
bfc003f0:	3c086098 	lui	t0,0x6098
bfc003f4:	35087cbb 	ori	t0,t0,0x7cbb
bfc003f8:	3409fefc 	li	t1,0xfefc
bfc003fc:	2d10fefc 	sltiu	s0,t0,-260
bfc00400:	24120001 	li	s2,1
bfc00404:	16120707 	bne	s0,s2,bfc02024 <inst_error>
bfc00408:	00000000 	nop
bfc0040c:	3c08e3b9 	lui	t0,0xe3b9
bfc00410:	35081bfc 	ori	t0,t0,0x1bfc
bfc00414:	3409a768 	li	t1,0xa768
bfc00418:	2d10a768 	sltiu	s0,t0,-22680
bfc0041c:	24120001 	li	s2,1
bfc00420:	16120700 	bne	s0,s2,bfc02024 <inst_error>
bfc00424:	00000000 	nop
bfc00428:	3c087def 	lui	t0,0x7def
bfc0042c:	3508e89a 	ori	t0,t0,0xe89a
bfc00430:	2409539c 	li	t1,21404
bfc00434:	2d10539c 	sltiu	s0,t0,21404
bfc00438:	24120000 	li	s2,0
bfc0043c:	161206f9 	bne	s0,s2,bfc02024 <inst_error>
bfc00440:	00000000 	nop
bfc00444:	3c084150 	lui	t0,0x4150
bfc00448:	35084f88 	ori	t0,t0,0x4f88
bfc0044c:	3409c36a 	li	t1,0xc36a
bfc00450:	2d10c36a 	sltiu	s0,t0,-15510
bfc00454:	24120001 	li	s2,1
bfc00458:	161206f2 	bne	s0,s2,bfc02024 <inst_error>
bfc0045c:	00000000 	nop
bfc00460:	3c0882eb 	lui	t0,0x82eb
bfc00464:	35086ff4 	ori	t0,t0,0x6ff4
bfc00468:	24097c20 	li	t1,31776
bfc0046c:	2d107c20 	sltiu	s0,t0,31776
bfc00470:	24120000 	li	s2,0
bfc00474:	161206eb 	bne	s0,s2,bfc02024 <inst_error>
bfc00478:	00000000 	nop
bfc0047c:	3c085e6e 	lui	t0,0x5e6e
bfc00480:	3508d880 	ori	t0,t0,0xd880
bfc00484:	24091ce9 	li	t1,7401
bfc00488:	2d101ce9 	sltiu	s0,t0,7401
bfc0048c:	24120000 	li	s2,0
bfc00490:	161206e4 	bne	s0,s2,bfc02024 <inst_error>
bfc00494:	00000000 	nop
bfc00498:	3c08a028 	lui	t0,0xa028
bfc0049c:	35089d40 	ori	t0,t0,0x9d40
bfc004a0:	3409e7cb 	li	t1,0xe7cb
bfc004a4:	2d10e7cb 	sltiu	s0,t0,-6197
bfc004a8:	24120001 	li	s2,1
bfc004ac:	161206dd 	bne	s0,s2,bfc02024 <inst_error>
bfc004b0:	00000000 	nop
bfc004b4:	3c083832 	lui	t0,0x3832
bfc004b8:	35081117 	ori	t0,t0,0x1117
bfc004bc:	3409ed76 	li	t1,0xed76
bfc004c0:	2d10ed76 	sltiu	s0,t0,-4746
bfc004c4:	24120001 	li	s2,1
bfc004c8:	161206d6 	bne	s0,s2,bfc02024 <inst_error>
bfc004cc:	00000000 	nop
bfc004d0:	3c0812a8 	lui	t0,0x12a8
bfc004d4:	35088941 	ori	t0,t0,0x8941
bfc004d8:	24090a3c 	li	t1,2620
bfc004dc:	2d100a3c 	sltiu	s0,t0,2620
bfc004e0:	24120000 	li	s2,0
bfc004e4:	161206cf 	bne	s0,s2,bfc02024 <inst_error>
bfc004e8:	00000000 	nop
bfc004ec:	3c08ed5d 	lui	t0,0xed5d
bfc004f0:	35087100 	ori	t0,t0,0x7100
bfc004f4:	24092eb0 	li	t1,11952
bfc004f8:	2d102eb0 	sltiu	s0,t0,11952
bfc004fc:	24120000 	li	s2,0
bfc00500:	161206c8 	bne	s0,s2,bfc02024 <inst_error>
bfc00504:	00000000 	nop
bfc00508:	3c08d38b 	lui	t0,0xd38b
bfc0050c:	35089f88 	ori	t0,t0,0x9f88
bfc00510:	2409108c 	li	t1,4236
bfc00514:	2d10108c 	sltiu	s0,t0,4236
bfc00518:	24120000 	li	s2,0
bfc0051c:	161206c1 	bne	s0,s2,bfc02024 <inst_error>
bfc00520:	00000000 	nop
bfc00524:	3c08ea5f 	lui	t0,0xea5f
bfc00528:	35080780 	ori	t0,t0,0x780
bfc0052c:	34099fdf 	li	t1,0x9fdf
bfc00530:	2d109fdf 	sltiu	s0,t0,-24609
bfc00534:	24120001 	li	s2,1
bfc00538:	161206ba 	bne	s0,s2,bfc02024 <inst_error>
bfc0053c:	00000000 	nop
bfc00540:	3c08ea28 	lui	t0,0xea28
bfc00544:	3508e0c8 	ori	t0,t0,0xe0c8
bfc00548:	24095fa2 	li	t1,24482
bfc0054c:	2d105fa2 	sltiu	s0,t0,24482
bfc00550:	24120000 	li	s2,0
bfc00554:	161206b3 	bne	s0,s2,bfc02024 <inst_error>
bfc00558:	00000000 	nop
bfc0055c:	3c080ec1 	lui	t0,0xec1
bfc00560:	3508dee5 	ori	t0,t0,0xdee5
bfc00564:	240972d2 	li	t1,29394
bfc00568:	2d1072d2 	sltiu	s0,t0,29394
bfc0056c:	24120000 	li	s2,0
bfc00570:	161206ac 	bne	s0,s2,bfc02024 <inst_error>
bfc00574:	00000000 	nop
bfc00578:	3c0826b8 	lui	t0,0x26b8
bfc0057c:	3508c998 	ori	t0,t0,0xc998
bfc00580:	240973de 	li	t1,29662
bfc00584:	2d1073de 	sltiu	s0,t0,29662
bfc00588:	24120000 	li	s2,0
bfc0058c:	161206a5 	bne	s0,s2,bfc02024 <inst_error>
bfc00590:	00000000 	nop
bfc00594:	3c08bd07 	lui	t0,0xbd07
bfc00598:	35085074 	ori	t0,t0,0x5074
bfc0059c:	2409449e 	li	t1,17566
bfc005a0:	2d10449e 	sltiu	s0,t0,17566
bfc005a4:	24120000 	li	s2,0
bfc005a8:	1612069e 	bne	s0,s2,bfc02024 <inst_error>
bfc005ac:	00000000 	nop
bfc005b0:	3c089d53 	lui	t0,0x9d53
bfc005b4:	3508bafc 	ori	t0,t0,0xbafc
bfc005b8:	3409ec24 	li	t1,0xec24
bfc005bc:	2d10ec24 	sltiu	s0,t0,-5084
bfc005c0:	24120001 	li	s2,1
bfc005c4:	16120697 	bne	s0,s2,bfc02024 <inst_error>
bfc005c8:	00000000 	nop
bfc005cc:	3c087d85 	lui	t0,0x7d85
bfc005d0:	3508cdb0 	ori	t0,t0,0xcdb0
bfc005d4:	24096d7c 	li	t1,28028
bfc005d8:	2d106d7c 	sltiu	s0,t0,28028
bfc005dc:	24120000 	li	s2,0
bfc005e0:	16120690 	bne	s0,s2,bfc02024 <inst_error>
bfc005e4:	00000000 	nop
bfc005e8:	3c085d26 	lui	t0,0x5d26
bfc005ec:	35087400 	ori	t0,t0,0x7400
bfc005f0:	240936ac 	li	t1,13996
bfc005f4:	2d1036ac 	sltiu	s0,t0,13996
bfc005f8:	24120000 	li	s2,0
bfc005fc:	16120689 	bne	s0,s2,bfc02024 <inst_error>
bfc00600:	00000000 	nop
bfc00604:	3c08f3b6 	lui	t0,0xf3b6
bfc00608:	35083bc0 	ori	t0,t0,0x3bc0
bfc0060c:	3409bd1e 	li	t1,0xbd1e
bfc00610:	2d10bd1e 	sltiu	s0,t0,-17122
bfc00614:	24120001 	li	s2,1
bfc00618:	16120682 	bne	s0,s2,bfc02024 <inst_error>
bfc0061c:	00000000 	nop
bfc00620:	3c0840ed 	lui	t0,0x40ed
bfc00624:	350891e0 	ori	t0,t0,0x91e0
bfc00628:	2409099c 	li	t1,2460
bfc0062c:	2d10099c 	sltiu	s0,t0,2460
bfc00630:	24120000 	li	s2,0
bfc00634:	1612067b 	bne	s0,s2,bfc02024 <inst_error>
bfc00638:	00000000 	nop
bfc0063c:	3c085396 	lui	t0,0x5396
bfc00640:	3508f740 	ori	t0,t0,0xf740
bfc00644:	3409cbfd 	li	t1,0xcbfd
bfc00648:	2d10cbfd 	sltiu	s0,t0,-13315
bfc0064c:	24120001 	li	s2,1
bfc00650:	16120674 	bne	s0,s2,bfc02024 <inst_error>
bfc00654:	00000000 	nop
bfc00658:	3c08a86c 	lui	t0,0xa86c
bfc0065c:	35087df0 	ori	t0,t0,0x7df0
bfc00660:	3409cf01 	li	t1,0xcf01
bfc00664:	2d10cf01 	sltiu	s0,t0,-12543
bfc00668:	24120001 	li	s2,1
bfc0066c:	1612066d 	bne	s0,s2,bfc02024 <inst_error>
bfc00670:	00000000 	nop
bfc00674:	3c080041 	lui	t0,0x41
bfc00678:	35082d74 	ori	t0,t0,0x2d74
bfc0067c:	24093178 	li	t1,12664
bfc00680:	2d103178 	sltiu	s0,t0,12664
bfc00684:	24120000 	li	s2,0
bfc00688:	16120666 	bne	s0,s2,bfc02024 <inst_error>
bfc0068c:	00000000 	nop
bfc00690:	3c0886a5 	lui	t0,0x86a5
bfc00694:	3508e264 	ori	t0,t0,0xe264
bfc00698:	240952da 	li	t1,21210
bfc0069c:	2d1052da 	sltiu	s0,t0,21210
bfc006a0:	24120000 	li	s2,0
bfc006a4:	1612065f 	bne	s0,s2,bfc02024 <inst_error>
bfc006a8:	00000000 	nop
bfc006ac:	3c08ca63 	lui	t0,0xca63
bfc006b0:	3508a907 	ori	t0,t0,0xa907
bfc006b4:	24093185 	li	t1,12677
bfc006b8:	2d103185 	sltiu	s0,t0,12677
bfc006bc:	24120000 	li	s2,0
bfc006c0:	16120658 	bne	s0,s2,bfc02024 <inst_error>
bfc006c4:	00000000 	nop
bfc006c8:	3c08fa97 	lui	t0,0xfa97
bfc006cc:	3508665a 	ori	t0,t0,0x665a
bfc006d0:	240958d7 	li	t1,22743
bfc006d4:	2d1058d7 	sltiu	s0,t0,22743
bfc006d8:	24120000 	li	s2,0
bfc006dc:	16120651 	bne	s0,s2,bfc02024 <inst_error>
bfc006e0:	00000000 	nop
bfc006e4:	3c08cf4d 	lui	t0,0xcf4d
bfc006e8:	350821aa 	ori	t0,t0,0x21aa
bfc006ec:	24090edc 	li	t1,3804
bfc006f0:	2d100edc 	sltiu	s0,t0,3804
bfc006f4:	24120000 	li	s2,0
bfc006f8:	1612064a 	bne	s0,s2,bfc02024 <inst_error>
bfc006fc:	00000000 	nop
bfc00700:	3c0869c4 	lui	t0,0x69c4
bfc00704:	35085edc 	ori	t0,t0,0x5edc
bfc00708:	24096530 	li	t1,25904
bfc0070c:	2d106530 	sltiu	s0,t0,25904
bfc00710:	24120000 	li	s2,0
bfc00714:	16120643 	bne	s0,s2,bfc02024 <inst_error>
bfc00718:	00000000 	nop
bfc0071c:	3c08cd55 	lui	t0,0xcd55
bfc00720:	350812cb 	ori	t0,t0,0x12cb
bfc00724:	24093395 	li	t1,13205
bfc00728:	2d103395 	sltiu	s0,t0,13205
bfc0072c:	24120000 	li	s2,0
bfc00730:	1612063c 	bne	s0,s2,bfc02024 <inst_error>
bfc00734:	00000000 	nop
bfc00738:	3c080899 	lui	t0,0x899
bfc0073c:	3508ac00 	ori	t0,t0,0xac00
bfc00740:	3409d626 	li	t1,0xd626
bfc00744:	2d10d626 	sltiu	s0,t0,-10714
bfc00748:	24120001 	li	s2,1
bfc0074c:	16120635 	bne	s0,s2,bfc02024 <inst_error>
bfc00750:	00000000 	nop
bfc00754:	3c086d46 	lui	t0,0x6d46
bfc00758:	35088800 	ori	t0,t0,0x8800
bfc0075c:	24092410 	li	t1,9232
bfc00760:	2d102410 	sltiu	s0,t0,9232
bfc00764:	24120000 	li	s2,0
bfc00768:	1612062e 	bne	s0,s2,bfc02024 <inst_error>
bfc0076c:	00000000 	nop
bfc00770:	3c08ec85 	lui	t0,0xec85
bfc00774:	350814c0 	ori	t0,t0,0x14c0
bfc00778:	24094f4e 	li	t1,20302
bfc0077c:	2d104f4e 	sltiu	s0,t0,20302
bfc00780:	24120000 	li	s2,0
bfc00784:	16120627 	bne	s0,s2,bfc02024 <inst_error>
bfc00788:	00000000 	nop
bfc0078c:	3c0812a7 	lui	t0,0x12a7
bfc00790:	3508789a 	ori	t0,t0,0x789a
bfc00794:	3409d763 	li	t1,0xd763
bfc00798:	2d10d763 	sltiu	s0,t0,-10397
bfc0079c:	24120001 	li	s2,1
bfc007a0:	16120620 	bne	s0,s2,bfc02024 <inst_error>
bfc007a4:	00000000 	nop
bfc007a8:	3c08e523 	lui	t0,0xe523
bfc007ac:	35083112 	ori	t0,t0,0x3112
bfc007b0:	34098af6 	li	t1,0x8af6
bfc007b4:	2d108af6 	sltiu	s0,t0,-29962
bfc007b8:	24120001 	li	s2,1
bfc007bc:	16120619 	bne	s0,s2,bfc02024 <inst_error>
bfc007c0:	00000000 	nop
bfc007c4:	3c08dc81 	lui	t0,0xdc81
bfc007c8:	35080bbb 	ori	t0,t0,0xbbb
bfc007cc:	34098b90 	li	t1,0x8b90
bfc007d0:	2d108b90 	sltiu	s0,t0,-29808
bfc007d4:	24120001 	li	s2,1
bfc007d8:	16120612 	bne	s0,s2,bfc02024 <inst_error>
bfc007dc:	00000000 	nop
bfc007e0:	3c08f14e 	lui	t0,0xf14e
bfc007e4:	35089ca8 	ori	t0,t0,0x9ca8
bfc007e8:	3409c618 	li	t1,0xc618
bfc007ec:	2d10c618 	sltiu	s0,t0,-14824
bfc007f0:	24120001 	li	s2,1
bfc007f4:	1612060b 	bne	s0,s2,bfc02024 <inst_error>
bfc007f8:	00000000 	nop
bfc007fc:	3c08a967 	lui	t0,0xa967
bfc00800:	35083020 	ori	t0,t0,0x3020
bfc00804:	3409c36e 	li	t1,0xc36e
bfc00808:	2d10c36e 	sltiu	s0,t0,-15506
bfc0080c:	24120001 	li	s2,1
bfc00810:	16120604 	bne	s0,s2,bfc02024 <inst_error>
bfc00814:	00000000 	nop
bfc00818:	3c0894bd 	lui	t0,0x94bd
bfc0081c:	3508cb7b 	ori	t0,t0,0xcb7b
bfc00820:	34098724 	li	t1,0x8724
bfc00824:	2d108724 	sltiu	s0,t0,-30940
bfc00828:	24120001 	li	s2,1
bfc0082c:	161205fd 	bne	s0,s2,bfc02024 <inst_error>
bfc00830:	00000000 	nop
bfc00834:	3c08c074 	lui	t0,0xc074
bfc00838:	3508e8b0 	ori	t0,t0,0xe8b0
bfc0083c:	340995f4 	li	t1,0x95f4
bfc00840:	2d1095f4 	sltiu	s0,t0,-27148
bfc00844:	24120001 	li	s2,1
bfc00848:	161205f6 	bne	s0,s2,bfc02024 <inst_error>
bfc0084c:	00000000 	nop
bfc00850:	3c08e3da 	lui	t0,0xe3da
bfc00854:	35086090 	ori	t0,t0,0x6090
bfc00858:	240907c8 	li	t1,1992
bfc0085c:	2d1007c8 	sltiu	s0,t0,1992
bfc00860:	24120000 	li	s2,0
bfc00864:	161205ef 	bne	s0,s2,bfc02024 <inst_error>
bfc00868:	00000000 	nop
bfc0086c:	3c08ae7c 	lui	t0,0xae7c
bfc00870:	35085a80 	ori	t0,t0,0x5a80
bfc00874:	3409c114 	li	t1,0xc114
bfc00878:	2d10c114 	sltiu	s0,t0,-16108
bfc0087c:	24120001 	li	s2,1
bfc00880:	161205e8 	bne	s0,s2,bfc02024 <inst_error>
bfc00884:	00000000 	nop
bfc00888:	3c086729 	lui	t0,0x6729
bfc0088c:	350881fd 	ori	t0,t0,0x81fd
bfc00890:	3409c129 	li	t1,0xc129
bfc00894:	2d10c129 	sltiu	s0,t0,-16087
bfc00898:	24120001 	li	s2,1
bfc0089c:	161205e1 	bne	s0,s2,bfc02024 <inst_error>
bfc008a0:	00000000 	nop
bfc008a4:	3c08122f 	lui	t0,0x122f
bfc008a8:	350894e0 	ori	t0,t0,0x94e0
bfc008ac:	3409e180 	li	t1,0xe180
bfc008b0:	2d10e180 	sltiu	s0,t0,-7808
bfc008b4:	24120001 	li	s2,1
bfc008b8:	161205da 	bne	s0,s2,bfc02024 <inst_error>
bfc008bc:	00000000 	nop
bfc008c0:	3c08afab 	lui	t0,0xafab
bfc008c4:	350869cc 	ori	t0,t0,0x69cc
bfc008c8:	24090a4d 	li	t1,2637
bfc008cc:	2d100a4d 	sltiu	s0,t0,2637
bfc008d0:	24120000 	li	s2,0
bfc008d4:	161205d3 	bne	s0,s2,bfc02024 <inst_error>
bfc008d8:	00000000 	nop
bfc008dc:	3c08ef8a 	lui	t0,0xef8a
bfc008e0:	35089a2c 	ori	t0,t0,0x9a2c
bfc008e4:	34098d94 	li	t1,0x8d94
bfc008e8:	2d108d94 	sltiu	s0,t0,-29292
bfc008ec:	24120001 	li	s2,1
bfc008f0:	161205cc 	bne	s0,s2,bfc02024 <inst_error>
bfc008f4:	00000000 	nop
bfc008f8:	3c08749d 	lui	t0,0x749d
bfc008fc:	3508c4c4 	ori	t0,t0,0xc4c4
bfc00900:	3409aeb8 	li	t1,0xaeb8
bfc00904:	2d10aeb8 	sltiu	s0,t0,-20808
bfc00908:	24120001 	li	s2,1
bfc0090c:	161205c5 	bne	s0,s2,bfc02024 <inst_error>
bfc00910:	00000000 	nop
bfc00914:	3c08e256 	lui	t0,0xe256
bfc00918:	3508fe48 	ori	t0,t0,0xfe48
bfc0091c:	340984fd 	li	t1,0x84fd
bfc00920:	2d1084fd 	sltiu	s0,t0,-31491
bfc00924:	24120001 	li	s2,1
bfc00928:	161205be 	bne	s0,s2,bfc02024 <inst_error>
bfc0092c:	00000000 	nop
bfc00930:	3c08970c 	lui	t0,0x970c
bfc00934:	35086730 	ori	t0,t0,0x6730
bfc00938:	2409714a 	li	t1,29002
bfc0093c:	2d10714a 	sltiu	s0,t0,29002
bfc00940:	24120000 	li	s2,0
bfc00944:	161205b7 	bne	s0,s2,bfc02024 <inst_error>
bfc00948:	00000000 	nop
bfc0094c:	3c08b75c 	lui	t0,0xb75c
bfc00950:	3508c575 	ori	t0,t0,0xc575
bfc00954:	2409080e 	li	t1,2062
bfc00958:	2d10080e 	sltiu	s0,t0,2062
bfc0095c:	24120000 	li	s2,0
bfc00960:	161205b0 	bne	s0,s2,bfc02024 <inst_error>
bfc00964:	00000000 	nop
bfc00968:	3c089cfe 	lui	t0,0x9cfe
bfc0096c:	3508b59a 	ori	t0,t0,0xb59a
bfc00970:	2409374d 	li	t1,14157
bfc00974:	2d10374d 	sltiu	s0,t0,14157
bfc00978:	24120000 	li	s2,0
bfc0097c:	161205a9 	bne	s0,s2,bfc02024 <inst_error>
bfc00980:	00000000 	nop
bfc00984:	3c08c0db 	lui	t0,0xc0db
bfc00988:	35086a60 	ori	t0,t0,0x6a60
bfc0098c:	2409300a 	li	t1,12298
bfc00990:	2d10300a 	sltiu	s0,t0,12298
bfc00994:	24120000 	li	s2,0
bfc00998:	161205a2 	bne	s0,s2,bfc02024 <inst_error>
bfc0099c:	00000000 	nop
bfc009a0:	3c08aa73 	lui	t0,0xaa73
bfc009a4:	350891d8 	ori	t0,t0,0x91d8
bfc009a8:	3409e5a3 	li	t1,0xe5a3
bfc009ac:	2d10e5a3 	sltiu	s0,t0,-6749
bfc009b0:	24120001 	li	s2,1
bfc009b4:	1612059b 	bne	s0,s2,bfc02024 <inst_error>
bfc009b8:	00000000 	nop
bfc009bc:	3c082875 	lui	t0,0x2875
bfc009c0:	3508f9fa 	ori	t0,t0,0xf9fa
bfc009c4:	3409b3c8 	li	t1,0xb3c8
bfc009c8:	2d10b3c8 	sltiu	s0,t0,-19512
bfc009cc:	24120001 	li	s2,1
bfc009d0:	16120594 	bne	s0,s2,bfc02024 <inst_error>
bfc009d4:	00000000 	nop
bfc009d8:	3c0883d6 	lui	t0,0x83d6
bfc009dc:	35087990 	ori	t0,t0,0x7990
bfc009e0:	24096a62 	li	t1,27234
bfc009e4:	2d106a62 	sltiu	s0,t0,27234
bfc009e8:	24120000 	li	s2,0
bfc009ec:	1612058d 	bne	s0,s2,bfc02024 <inst_error>
bfc009f0:	00000000 	nop
bfc009f4:	3c083bd6 	lui	t0,0x3bd6
bfc009f8:	35087330 	ori	t0,t0,0x7330
bfc009fc:	3409859e 	li	t1,0x859e
bfc00a00:	2d10859e 	sltiu	s0,t0,-31330
bfc00a04:	24120001 	li	s2,1
bfc00a08:	16120586 	bne	s0,s2,bfc02024 <inst_error>
bfc00a0c:	00000000 	nop
bfc00a10:	3c08cbe8 	lui	t0,0xcbe8
bfc00a14:	35086d55 	ori	t0,t0,0x6d55
bfc00a18:	3409e6bb 	li	t1,0xe6bb
bfc00a1c:	2d10e6bb 	sltiu	s0,t0,-6469
bfc00a20:	24120001 	li	s2,1
bfc00a24:	1612057f 	bne	s0,s2,bfc02024 <inst_error>
bfc00a28:	00000000 	nop
bfc00a2c:	3c08277a 	lui	t0,0x277a
bfc00a30:	350862c6 	ori	t0,t0,0x62c6
bfc00a34:	24095c96 	li	t1,23702
bfc00a38:	2d105c96 	sltiu	s0,t0,23702
bfc00a3c:	24120000 	li	s2,0
bfc00a40:	16120578 	bne	s0,s2,bfc02024 <inst_error>
bfc00a44:	00000000 	nop
bfc00a48:	3c08ef53 	lui	t0,0xef53
bfc00a4c:	3508abd8 	ori	t0,t0,0xabd8
bfc00a50:	34099a7a 	li	t1,0x9a7a
bfc00a54:	2d109a7a 	sltiu	s0,t0,-25990
bfc00a58:	24120001 	li	s2,1
bfc00a5c:	16120571 	bne	s0,s2,bfc02024 <inst_error>
bfc00a60:	00000000 	nop
bfc00a64:	3c086505 	lui	t0,0x6505
bfc00a68:	3508daa5 	ori	t0,t0,0xdaa5
bfc00a6c:	24090c60 	li	t1,3168
bfc00a70:	2d100c60 	sltiu	s0,t0,3168
bfc00a74:	24120000 	li	s2,0
bfc00a78:	1612056a 	bne	s0,s2,bfc02024 <inst_error>
bfc00a7c:	00000000 	nop
bfc00a80:	3c08bd42 	lui	t0,0xbd42
bfc00a84:	35086d20 	ori	t0,t0,0x6d20
bfc00a88:	24091326 	li	t1,4902
bfc00a8c:	2d101326 	sltiu	s0,t0,4902
bfc00a90:	24120000 	li	s2,0
bfc00a94:	16120563 	bne	s0,s2,bfc02024 <inst_error>
bfc00a98:	00000000 	nop
bfc00a9c:	3c08d5c1 	lui	t0,0xd5c1
bfc00aa0:	350810da 	ori	t0,t0,0x10da
bfc00aa4:	24091f8c 	li	t1,8076
bfc00aa8:	2d101f8c 	sltiu	s0,t0,8076
bfc00aac:	24120000 	li	s2,0
bfc00ab0:	1612055c 	bne	s0,s2,bfc02024 <inst_error>
bfc00ab4:	00000000 	nop
bfc00ab8:	3c08d5e4 	lui	t0,0xd5e4
bfc00abc:	35088c59 	ori	t0,t0,0x8c59
bfc00ac0:	2409740f 	li	t1,29711
bfc00ac4:	2d10740f 	sltiu	s0,t0,29711
bfc00ac8:	24120000 	li	s2,0
bfc00acc:	16120555 	bne	s0,s2,bfc02024 <inst_error>
bfc00ad0:	00000000 	nop
bfc00ad4:	3c08cce8 	lui	t0,0xcce8
bfc00ad8:	35087935 	ori	t0,t0,0x7935
bfc00adc:	3409c5ea 	li	t1,0xc5ea
bfc00ae0:	2d10c5ea 	sltiu	s0,t0,-14870
bfc00ae4:	24120001 	li	s2,1
bfc00ae8:	1612054e 	bne	s0,s2,bfc02024 <inst_error>
bfc00aec:	00000000 	nop
bfc00af0:	3c08d96a 	lui	t0,0xd96a
bfc00af4:	3508f938 	ori	t0,t0,0xf938
bfc00af8:	24096e84 	li	t1,28292
bfc00afc:	2d106e84 	sltiu	s0,t0,28292
bfc00b00:	24120000 	li	s2,0
bfc00b04:	16120547 	bne	s0,s2,bfc02024 <inst_error>
bfc00b08:	00000000 	nop
bfc00b0c:	3c08470c 	lui	t0,0x470c
bfc00b10:	35087090 	ori	t0,t0,0x7090
bfc00b14:	24093f94 	li	t1,16276
bfc00b18:	2d103f94 	sltiu	s0,t0,16276
bfc00b1c:	24120000 	li	s2,0
bfc00b20:	16120540 	bne	s0,s2,bfc02024 <inst_error>
bfc00b24:	00000000 	nop
bfc00b28:	3c08419b 	lui	t0,0x419b
bfc00b2c:	3508a854 	ori	t0,t0,0xa854
bfc00b30:	240962cd 	li	t1,25293
bfc00b34:	2d1062cd 	sltiu	s0,t0,25293
bfc00b38:	24120000 	li	s2,0
bfc00b3c:	16120539 	bne	s0,s2,bfc02024 <inst_error>
bfc00b40:	00000000 	nop
bfc00b44:	3c089171 	lui	t0,0x9171
bfc00b48:	35088eb8 	ori	t0,t0,0x8eb8
bfc00b4c:	3409aa36 	li	t1,0xaa36
bfc00b50:	2d10aa36 	sltiu	s0,t0,-21962
bfc00b54:	24120001 	li	s2,1
bfc00b58:	16120532 	bne	s0,s2,bfc02024 <inst_error>
bfc00b5c:	00000000 	nop
bfc00b60:	3c0877d8 	lui	t0,0x77d8
bfc00b64:	35086579 	ori	t0,t0,0x6579
bfc00b68:	34098a68 	li	t1,0x8a68
bfc00b6c:	2d108a68 	sltiu	s0,t0,-30104
bfc00b70:	24120001 	li	s2,1
bfc00b74:	1612052b 	bne	s0,s2,bfc02024 <inst_error>
bfc00b78:	00000000 	nop
bfc00b7c:	3c08c7d7 	lui	t0,0xc7d7
bfc00b80:	3508a240 	ori	t0,t0,0xa240
bfc00b84:	24090cdc 	li	t1,3292
bfc00b88:	2d100cdc 	sltiu	s0,t0,3292
bfc00b8c:	24120000 	li	s2,0
bfc00b90:	16120524 	bne	s0,s2,bfc02024 <inst_error>
bfc00b94:	00000000 	nop
bfc00b98:	3c08fcef 	lui	t0,0xfcef
bfc00b9c:	3508c780 	ori	t0,t0,0xc780
bfc00ba0:	24091066 	li	t1,4198
bfc00ba4:	2d101066 	sltiu	s0,t0,4198
bfc00ba8:	24120000 	li	s2,0
bfc00bac:	1612051d 	bne	s0,s2,bfc02024 <inst_error>
bfc00bb0:	00000000 	nop
bfc00bb4:	3c08e6b0 	lui	t0,0xe6b0
bfc00bb8:	35086500 	ori	t0,t0,0x6500
bfc00bbc:	240959b9 	li	t1,22969
bfc00bc0:	2d1059b9 	sltiu	s0,t0,22969
bfc00bc4:	24120000 	li	s2,0
bfc00bc8:	16120516 	bne	s0,s2,bfc02024 <inst_error>
bfc00bcc:	00000000 	nop
bfc00bd0:	3c08faa0 	lui	t0,0xfaa0
bfc00bd4:	35087474 	ori	t0,t0,0x7474
bfc00bd8:	24097db4 	li	t1,32180
bfc00bdc:	2d107db4 	sltiu	s0,t0,32180
bfc00be0:	24120000 	li	s2,0
bfc00be4:	1612050f 	bne	s0,s2,bfc02024 <inst_error>
bfc00be8:	00000000 	nop
bfc00bec:	3c08a064 	lui	t0,0xa064
bfc00bf0:	3508bb00 	ori	t0,t0,0xbb00
bfc00bf4:	240927b4 	li	t1,10164
bfc00bf8:	2d1027b4 	sltiu	s0,t0,10164
bfc00bfc:	24120000 	li	s2,0
bfc00c00:	16120508 	bne	s0,s2,bfc02024 <inst_error>
bfc00c04:	00000000 	nop
bfc00c08:	3c086b99 	lui	t0,0x6b99
bfc00c0c:	35087b2c 	ori	t0,t0,0x7b2c
bfc00c10:	34099345 	li	t1,0x9345
bfc00c14:	2d109345 	sltiu	s0,t0,-27835
bfc00c18:	24120001 	li	s2,1
bfc00c1c:	16120501 	bne	s0,s2,bfc02024 <inst_error>
bfc00c20:	00000000 	nop
bfc00c24:	3c088311 	lui	t0,0x8311
bfc00c28:	3508c8ee 	ori	t0,t0,0xc8ee
bfc00c2c:	24095818 	li	t1,22552
bfc00c30:	2d105818 	sltiu	s0,t0,22552
bfc00c34:	24120000 	li	s2,0
bfc00c38:	161204fa 	bne	s0,s2,bfc02024 <inst_error>
bfc00c3c:	00000000 	nop
bfc00c40:	3c085ea6 	lui	t0,0x5ea6
bfc00c44:	3508acac 	ori	t0,t0,0xacac
bfc00c48:	3409915f 	li	t1,0x915f
bfc00c4c:	2d10915f 	sltiu	s0,t0,-28321
bfc00c50:	24120001 	li	s2,1
bfc00c54:	161204f3 	bne	s0,s2,bfc02024 <inst_error>
bfc00c58:	00000000 	nop
bfc00c5c:	3c084dea 	lui	t0,0x4dea
bfc00c60:	35088f80 	ori	t0,t0,0x8f80
bfc00c64:	3409e233 	li	t1,0xe233
bfc00c68:	2d10e233 	sltiu	s0,t0,-7629
bfc00c6c:	24120001 	li	s2,1
bfc00c70:	161204ec 	bne	s0,s2,bfc02024 <inst_error>
bfc00c74:	00000000 	nop
bfc00c78:	3c080e02 	lui	t0,0xe02
bfc00c7c:	3508f997 	ori	t0,t0,0xf997
bfc00c80:	24091c1f 	li	t1,7199
bfc00c84:	2d101c1f 	sltiu	s0,t0,7199
bfc00c88:	24120000 	li	s2,0
bfc00c8c:	161204e5 	bne	s0,s2,bfc02024 <inst_error>
bfc00c90:	00000000 	nop
bfc00c94:	3c083149 	lui	t0,0x3149
bfc00c98:	35087cc4 	ori	t0,t0,0x7cc4
bfc00c9c:	240941e2 	li	t1,16866
bfc00ca0:	2d1041e2 	sltiu	s0,t0,16866
bfc00ca4:	24120000 	li	s2,0
bfc00ca8:	161204de 	bne	s0,s2,bfc02024 <inst_error>
bfc00cac:	00000000 	nop
bfc00cb0:	3c0822de 	lui	t0,0x22de
bfc00cb4:	350823b6 	ori	t0,t0,0x23b6
bfc00cb8:	24094f20 	li	t1,20256
bfc00cbc:	2d104f20 	sltiu	s0,t0,20256
bfc00cc0:	24120000 	li	s2,0
bfc00cc4:	161204d7 	bne	s0,s2,bfc02024 <inst_error>
bfc00cc8:	00000000 	nop
bfc00ccc:	3c081934 	lui	t0,0x1934
bfc00cd0:	35081260 	ori	t0,t0,0x1260
bfc00cd4:	24090352 	li	t1,850
bfc00cd8:	2d100352 	sltiu	s0,t0,850
bfc00cdc:	24120000 	li	s2,0
bfc00ce0:	161204d0 	bne	s0,s2,bfc02024 <inst_error>
bfc00ce4:	00000000 	nop
bfc00ce8:	3c08bae3 	lui	t0,0xbae3
bfc00cec:	35085040 	ori	t0,t0,0x5040
bfc00cf0:	24092407 	li	t1,9223
bfc00cf4:	2d102407 	sltiu	s0,t0,9223
bfc00cf8:	24120000 	li	s2,0
bfc00cfc:	161204c9 	bne	s0,s2,bfc02024 <inst_error>
bfc00d00:	00000000 	nop
bfc00d04:	3c08736e 	lui	t0,0x736e
bfc00d08:	3508af44 	ori	t0,t0,0xaf44
bfc00d0c:	3409fb36 	li	t1,0xfb36
bfc00d10:	2d10fb36 	sltiu	s0,t0,-1226
bfc00d14:	24120001 	li	s2,1
bfc00d18:	161204c2 	bne	s0,s2,bfc02024 <inst_error>
bfc00d1c:	00000000 	nop
bfc00d20:	3c080e86 	lui	t0,0xe86
bfc00d24:	35083bab 	ori	t0,t0,0x3bab
bfc00d28:	3409b779 	li	t1,0xb779
bfc00d2c:	2d10b779 	sltiu	s0,t0,-18567
bfc00d30:	24120001 	li	s2,1
bfc00d34:	161204bb 	bne	s0,s2,bfc02024 <inst_error>
bfc00d38:	00000000 	nop
bfc00d3c:	3c083efa 	lui	t0,0x3efa
bfc00d40:	3508a7a6 	ori	t0,t0,0xa7a6
bfc00d44:	3409d92d 	li	t1,0xd92d
bfc00d48:	2d10d92d 	sltiu	s0,t0,-9939
bfc00d4c:	24120001 	li	s2,1
bfc00d50:	161204b4 	bne	s0,s2,bfc02024 <inst_error>
bfc00d54:	00000000 	nop
bfc00d58:	3c08aa07 	lui	t0,0xaa07
bfc00d5c:	35086f00 	ori	t0,t0,0x6f00
bfc00d60:	3409ea1a 	li	t1,0xea1a
bfc00d64:	2d10ea1a 	sltiu	s0,t0,-5606
bfc00d68:	24120001 	li	s2,1
bfc00d6c:	161204ad 	bne	s0,s2,bfc02024 <inst_error>
bfc00d70:	00000000 	nop
bfc00d74:	3c08c5d0 	lui	t0,0xc5d0
bfc00d78:	3508dd88 	ori	t0,t0,0xdd88
bfc00d7c:	3409c7ec 	li	t1,0xc7ec
bfc00d80:	2d10c7ec 	sltiu	s0,t0,-14356
bfc00d84:	24120001 	li	s2,1
bfc00d88:	161204a6 	bne	s0,s2,bfc02024 <inst_error>
bfc00d8c:	00000000 	nop
bfc00d90:	3c08edd0 	lui	t0,0xedd0
bfc00d94:	3508687b 	ori	t0,t0,0x687b
bfc00d98:	24093f54 	li	t1,16212
bfc00d9c:	2d103f54 	sltiu	s0,t0,16212
bfc00da0:	24120000 	li	s2,0
bfc00da4:	1612049f 	bne	s0,s2,bfc02024 <inst_error>
bfc00da8:	00000000 	nop
bfc00dac:	3c087b0e 	lui	t0,0x7b0e
bfc00db0:	3508659c 	ori	t0,t0,0x659c
bfc00db4:	24095e34 	li	t1,24116
bfc00db8:	2d105e34 	sltiu	s0,t0,24116
bfc00dbc:	24120000 	li	s2,0
bfc00dc0:	16120498 	bne	s0,s2,bfc02024 <inst_error>
bfc00dc4:	00000000 	nop
bfc00dc8:	3c089194 	lui	t0,0x9194
bfc00dcc:	35083cee 	ori	t0,t0,0x3cee
bfc00dd0:	3409c600 	li	t1,0xc600
bfc00dd4:	2d10c600 	sltiu	s0,t0,-14848
bfc00dd8:	24120001 	li	s2,1
bfc00ddc:	16120491 	bne	s0,s2,bfc02024 <inst_error>
bfc00de0:	00000000 	nop
bfc00de4:	3c082947 	lui	t0,0x2947
bfc00de8:	350813b8 	ori	t0,t0,0x13b8
bfc00dec:	3409b802 	li	t1,0xb802
bfc00df0:	2d10b802 	sltiu	s0,t0,-18430
bfc00df4:	24120001 	li	s2,1
bfc00df8:	1612048a 	bne	s0,s2,bfc02024 <inst_error>
bfc00dfc:	00000000 	nop
bfc00e00:	3c08a3d9 	lui	t0,0xa3d9
bfc00e04:	35085ee0 	ori	t0,t0,0x5ee0
bfc00e08:	3409ef7c 	li	t1,0xef7c
bfc00e0c:	2d10ef7c 	sltiu	s0,t0,-4228
bfc00e10:	24120001 	li	s2,1
bfc00e14:	16120483 	bne	s0,s2,bfc02024 <inst_error>
bfc00e18:	00000000 	nop
bfc00e1c:	3c0869d2 	lui	t0,0x69d2
bfc00e20:	3508bd20 	ori	t0,t0,0xbd20
bfc00e24:	34099188 	li	t1,0x9188
bfc00e28:	2d109188 	sltiu	s0,t0,-28280
bfc00e2c:	24120001 	li	s2,1
bfc00e30:	1612047c 	bne	s0,s2,bfc02024 <inst_error>
bfc00e34:	00000000 	nop
bfc00e38:	3c086f48 	lui	t0,0x6f48
bfc00e3c:	35082088 	ori	t0,t0,0x2088
bfc00e40:	3409c9ce 	li	t1,0xc9ce
bfc00e44:	2d10c9ce 	sltiu	s0,t0,-13874
bfc00e48:	24120001 	li	s2,1
bfc00e4c:	16120475 	bne	s0,s2,bfc02024 <inst_error>
bfc00e50:	00000000 	nop
bfc00e54:	3c089dcf 	lui	t0,0x9dcf
bfc00e58:	3508c840 	ori	t0,t0,0xc840
bfc00e5c:	24097978 	li	t1,31096
bfc00e60:	2d107978 	sltiu	s0,t0,31096
bfc00e64:	24120000 	li	s2,0
bfc00e68:	1612046e 	bne	s0,s2,bfc02024 <inst_error>
bfc00e6c:	00000000 	nop
bfc00e70:	3c085a77 	lui	t0,0x5a77
bfc00e74:	3508cae0 	ori	t0,t0,0xcae0
bfc00e78:	24093af8 	li	t1,15096
bfc00e7c:	2d103af8 	sltiu	s0,t0,15096
bfc00e80:	24120000 	li	s2,0
bfc00e84:	16120467 	bne	s0,s2,bfc02024 <inst_error>
bfc00e88:	00000000 	nop
bfc00e8c:	3c088dbf 	lui	t0,0x8dbf
bfc00e90:	3508a5c0 	ori	t0,t0,0xa5c0
bfc00e94:	3409d029 	li	t1,0xd029
bfc00e98:	2d10d029 	sltiu	s0,t0,-12247
bfc00e9c:	24120001 	li	s2,1
bfc00ea0:	16120460 	bne	s0,s2,bfc02024 <inst_error>
bfc00ea4:	00000000 	nop
bfc00ea8:	3c08b38a 	lui	t0,0xb38a
bfc00eac:	3508cbe0 	ori	t0,t0,0xcbe0
bfc00eb0:	24096530 	li	t1,25904
bfc00eb4:	2d106530 	sltiu	s0,t0,25904
bfc00eb8:	24120000 	li	s2,0
bfc00ebc:	16120459 	bne	s0,s2,bfc02024 <inst_error>
bfc00ec0:	00000000 	nop
bfc00ec4:	3c08de66 	lui	t0,0xde66
bfc00ec8:	350873f0 	ori	t0,t0,0x73f0
bfc00ecc:	240941de 	li	t1,16862
bfc00ed0:	2d1041de 	sltiu	s0,t0,16862
bfc00ed4:	24120000 	li	s2,0
bfc00ed8:	16120452 	bne	s0,s2,bfc02024 <inst_error>
bfc00edc:	00000000 	nop
bfc00ee0:	3c08a352 	lui	t0,0xa352
bfc00ee4:	35080110 	ori	t0,t0,0x110
bfc00ee8:	3409bb9c 	li	t1,0xbb9c
bfc00eec:	2d10bb9c 	sltiu	s0,t0,-17508
bfc00ef0:	24120001 	li	s2,1
bfc00ef4:	1612044b 	bne	s0,s2,bfc02024 <inst_error>
bfc00ef8:	00000000 	nop
bfc00efc:	3c0839a3 	lui	t0,0x39a3
bfc00f00:	3508ed60 	ori	t0,t0,0xed60
bfc00f04:	3409b1f0 	li	t1,0xb1f0
bfc00f08:	2d10b1f0 	sltiu	s0,t0,-19984
bfc00f0c:	24120001 	li	s2,1
bfc00f10:	16120444 	bne	s0,s2,bfc02024 <inst_error>
bfc00f14:	00000000 	nop
bfc00f18:	3c088438 	lui	t0,0x8438
bfc00f1c:	35085a48 	ori	t0,t0,0x5a48
bfc00f20:	240976f2 	li	t1,30450
bfc00f24:	2d1076f2 	sltiu	s0,t0,30450
bfc00f28:	24120000 	li	s2,0
bfc00f2c:	1612043d 	bne	s0,s2,bfc02024 <inst_error>
bfc00f30:	00000000 	nop
bfc00f34:	3c0867b1 	lui	t0,0x67b1
bfc00f38:	3508b642 	ori	t0,t0,0xb642
bfc00f3c:	24092168 	li	t1,8552
bfc00f40:	2d102168 	sltiu	s0,t0,8552
bfc00f44:	24120000 	li	s2,0
bfc00f48:	16120436 	bne	s0,s2,bfc02024 <inst_error>
bfc00f4c:	00000000 	nop
bfc00f50:	3c083f18 	lui	t0,0x3f18
bfc00f54:	350896ae 	ori	t0,t0,0x96ae
bfc00f58:	3409c9ce 	li	t1,0xc9ce
bfc00f5c:	2d10c9ce 	sltiu	s0,t0,-13874
bfc00f60:	24120001 	li	s2,1
bfc00f64:	1612042f 	bne	s0,s2,bfc02024 <inst_error>
bfc00f68:	00000000 	nop
bfc00f6c:	3c08c720 	lui	t0,0xc720
bfc00f70:	35086c26 	ori	t0,t0,0x6c26
bfc00f74:	24090e88 	li	t1,3720
bfc00f78:	2d100e88 	sltiu	s0,t0,3720
bfc00f7c:	24120000 	li	s2,0
bfc00f80:	16120428 	bne	s0,s2,bfc02024 <inst_error>
bfc00f84:	00000000 	nop
bfc00f88:	3c081d42 	lui	t0,0x1d42
bfc00f8c:	3508f6c4 	ori	t0,t0,0xf6c4
bfc00f90:	3409bab6 	li	t1,0xbab6
bfc00f94:	2d10bab6 	sltiu	s0,t0,-17738
bfc00f98:	24120001 	li	s2,1
bfc00f9c:	16120421 	bne	s0,s2,bfc02024 <inst_error>
bfc00fa0:	00000000 	nop
bfc00fa4:	3c0860d2 	lui	t0,0x60d2
bfc00fa8:	3508b080 	ori	t0,t0,0xb080
bfc00fac:	240928c7 	li	t1,10439
bfc00fb0:	2d1028c7 	sltiu	s0,t0,10439
bfc00fb4:	24120000 	li	s2,0
bfc00fb8:	1612041a 	bne	s0,s2,bfc02024 <inst_error>
bfc00fbc:	00000000 	nop
bfc00fc0:	3c080f66 	lui	t0,0xf66
bfc00fc4:	350872d4 	ori	t0,t0,0x72d4
bfc00fc8:	3409ecd4 	li	t1,0xecd4
bfc00fcc:	2d10ecd4 	sltiu	s0,t0,-4908
bfc00fd0:	24120001 	li	s2,1
bfc00fd4:	16120413 	bne	s0,s2,bfc02024 <inst_error>
bfc00fd8:	00000000 	nop
bfc00fdc:	3c083992 	lui	t0,0x3992
bfc00fe0:	35084098 	ori	t0,t0,0x4098
bfc00fe4:	3409c018 	li	t1,0xc018
bfc00fe8:	2d10c018 	sltiu	s0,t0,-16360
bfc00fec:	24120001 	li	s2,1
bfc00ff0:	1612040c 	bne	s0,s2,bfc02024 <inst_error>
bfc00ff4:	00000000 	nop
bfc00ff8:	3c08bafc 	lui	t0,0xbafc
bfc00ffc:	350822ea 	ori	t0,t0,0x22ea
bfc01000:	3409d300 	li	t1,0xd300
bfc01004:	2d10d300 	sltiu	s0,t0,-11520
bfc01008:	24120001 	li	s2,1
bfc0100c:	16120405 	bne	s0,s2,bfc02024 <inst_error>
bfc01010:	00000000 	nop
bfc01014:	3c081f6f 	lui	t0,0x1f6f
bfc01018:	3508d4e4 	ori	t0,t0,0xd4e4
bfc0101c:	24092168 	li	t1,8552
bfc01020:	2d102168 	sltiu	s0,t0,8552
bfc01024:	24120000 	li	s2,0
bfc01028:	161203fe 	bne	s0,s2,bfc02024 <inst_error>
bfc0102c:	00000000 	nop
bfc01030:	3c08ff27 	lui	t0,0xff27
bfc01034:	35085c54 	ori	t0,t0,0x5c54
bfc01038:	24097680 	li	t1,30336
bfc0103c:	2d107680 	sltiu	s0,t0,30336
bfc01040:	24120000 	li	s2,0
bfc01044:	161203f7 	bne	s0,s2,bfc02024 <inst_error>
bfc01048:	00000000 	nop
bfc0104c:	3c08beec 	lui	t0,0xbeec
bfc01050:	3508d49a 	ori	t0,t0,0xd49a
bfc01054:	24097c1e 	li	t1,31774
bfc01058:	2d107c1e 	sltiu	s0,t0,31774
bfc0105c:	24120000 	li	s2,0
bfc01060:	161203f0 	bne	s0,s2,bfc02024 <inst_error>
bfc01064:	00000000 	nop
bfc01068:	3c081fdc 	lui	t0,0x1fdc
bfc0106c:	350848da 	ori	t0,t0,0x48da
bfc01070:	340982d8 	li	t1,0x82d8
bfc01074:	2d1082d8 	sltiu	s0,t0,-32040
bfc01078:	24120001 	li	s2,1
bfc0107c:	161203e9 	bne	s0,s2,bfc02024 <inst_error>
bfc01080:	00000000 	nop
bfc01084:	3c08d9bf 	lui	t0,0xd9bf
bfc01088:	3508b444 	ori	t0,t0,0xb444
bfc0108c:	24094cfa 	li	t1,19706
bfc01090:	2d104cfa 	sltiu	s0,t0,19706
bfc01094:	24120000 	li	s2,0
bfc01098:	161203e2 	bne	s0,s2,bfc02024 <inst_error>
bfc0109c:	00000000 	nop
bfc010a0:	3c08bfcf 	lui	t0,0xbfcf
bfc010a4:	350886d4 	ori	t0,t0,0x86d4
bfc010a8:	3409f1ac 	li	t1,0xf1ac
bfc010ac:	2d10f1ac 	sltiu	s0,t0,-3668
bfc010b0:	24120001 	li	s2,1
bfc010b4:	161203db 	bne	s0,s2,bfc02024 <inst_error>
bfc010b8:	00000000 	nop
bfc010bc:	3c088a88 	lui	t0,0x8a88
bfc010c0:	35080440 	ori	t0,t0,0x440
bfc010c4:	240918ca 	li	t1,6346
bfc010c8:	2d1018ca 	sltiu	s0,t0,6346
bfc010cc:	24120000 	li	s2,0
bfc010d0:	161203d4 	bne	s0,s2,bfc02024 <inst_error>
bfc010d4:	00000000 	nop
bfc010d8:	3c085171 	lui	t0,0x5171
bfc010dc:	350832d0 	ori	t0,t0,0x32d0
bfc010e0:	2409205f 	li	t1,8287
bfc010e4:	2d10205f 	sltiu	s0,t0,8287
bfc010e8:	24120000 	li	s2,0
bfc010ec:	161203cd 	bne	s0,s2,bfc02024 <inst_error>
bfc010f0:	00000000 	nop
bfc010f4:	3c082555 	lui	t0,0x2555
bfc010f8:	35084980 	ori	t0,t0,0x4980
bfc010fc:	34098565 	li	t1,0x8565
bfc01100:	2d108565 	sltiu	s0,t0,-31387
bfc01104:	24120001 	li	s2,1
bfc01108:	161203c6 	bne	s0,s2,bfc02024 <inst_error>
bfc0110c:	00000000 	nop
bfc01110:	3c085c76 	lui	t0,0x5c76
bfc01114:	35088b80 	ori	t0,t0,0x8b80
bfc01118:	34099c24 	li	t1,0x9c24
bfc0111c:	2d109c24 	sltiu	s0,t0,-25564
bfc01120:	24120001 	li	s2,1
bfc01124:	161203bf 	bne	s0,s2,bfc02024 <inst_error>
bfc01128:	00000000 	nop
bfc0112c:	3c08a5e0 	lui	t0,0xa5e0
bfc01130:	3508ee9c 	ori	t0,t0,0xee9c
bfc01134:	3409d6c8 	li	t1,0xd6c8
bfc01138:	2d10d6c8 	sltiu	s0,t0,-10552
bfc0113c:	24120001 	li	s2,1
bfc01140:	161203b8 	bne	s0,s2,bfc02024 <inst_error>
bfc01144:	00000000 	nop
bfc01148:	3c0899a7 	lui	t0,0x99a7
bfc0114c:	35089a82 	ori	t0,t0,0x9a82
bfc01150:	24095378 	li	t1,21368
bfc01154:	2d105378 	sltiu	s0,t0,21368
bfc01158:	24120000 	li	s2,0
bfc0115c:	161203b1 	bne	s0,s2,bfc02024 <inst_error>
bfc01160:	00000000 	nop
bfc01164:	3c08e0f1 	lui	t0,0xe0f1
bfc01168:	35084238 	ori	t0,t0,0x4238
bfc0116c:	340980b5 	li	t1,0x80b5
bfc01170:	2d1080b5 	sltiu	s0,t0,-32587
bfc01174:	24120001 	li	s2,1
bfc01178:	161203aa 	bne	s0,s2,bfc02024 <inst_error>
bfc0117c:	00000000 	nop
bfc01180:	3c0848cb 	lui	t0,0x48cb
bfc01184:	35088610 	ori	t0,t0,0x8610
bfc01188:	240913d8 	li	t1,5080
bfc0118c:	2d1013d8 	sltiu	s0,t0,5080
bfc01190:	24120000 	li	s2,0
bfc01194:	161203a3 	bne	s0,s2,bfc02024 <inst_error>
bfc01198:	00000000 	nop
bfc0119c:	3c08caf0 	lui	t0,0xcaf0
bfc011a0:	3508c374 	ori	t0,t0,0xc374
bfc011a4:	24092c75 	li	t1,11381
bfc011a8:	2d102c75 	sltiu	s0,t0,11381
bfc011ac:	24120000 	li	s2,0
bfc011b0:	1612039c 	bne	s0,s2,bfc02024 <inst_error>
bfc011b4:	00000000 	nop
bfc011b8:	3c089b94 	lui	t0,0x9b94
bfc011bc:	3508e694 	ori	t0,t0,0xe694
bfc011c0:	34099b36 	li	t1,0x9b36
bfc011c4:	2d109b36 	sltiu	s0,t0,-25802
bfc011c8:	24120001 	li	s2,1
bfc011cc:	16120395 	bne	s0,s2,bfc02024 <inst_error>
bfc011d0:	00000000 	nop
bfc011d4:	3c08aad1 	lui	t0,0xaad1
bfc011d8:	3508ada4 	ori	t0,t0,0xada4
bfc011dc:	2409752a 	li	t1,29994
bfc011e0:	2d10752a 	sltiu	s0,t0,29994
bfc011e4:	24120000 	li	s2,0
bfc011e8:	1612038e 	bne	s0,s2,bfc02024 <inst_error>
bfc011ec:	00000000 	nop
bfc011f0:	3c08b5ab 	lui	t0,0xb5ab
bfc011f4:	3508cbf4 	ori	t0,t0,0xcbf4
bfc011f8:	24096693 	li	t1,26259
bfc011fc:	2d106693 	sltiu	s0,t0,26259
bfc01200:	24120000 	li	s2,0
bfc01204:	16120387 	bne	s0,s2,bfc02024 <inst_error>
bfc01208:	00000000 	nop
bfc0120c:	3c08ae3d 	lui	t0,0xae3d
bfc01210:	3508f620 	ori	t0,t0,0xf620
bfc01214:	3409aa36 	li	t1,0xaa36
bfc01218:	2d10aa36 	sltiu	s0,t0,-21962
bfc0121c:	24120001 	li	s2,1
bfc01220:	16120380 	bne	s0,s2,bfc02024 <inst_error>
bfc01224:	00000000 	nop
bfc01228:	3c0876ac 	lui	t0,0x76ac
bfc0122c:	3508762c 	ori	t0,t0,0x762c
bfc01230:	3409e100 	li	t1,0xe100
bfc01234:	2d10e100 	sltiu	s0,t0,-7936
bfc01238:	24120001 	li	s2,1
bfc0123c:	16120379 	bne	s0,s2,bfc02024 <inst_error>
bfc01240:	00000000 	nop
bfc01244:	3c08c2c2 	lui	t0,0xc2c2
bfc01248:	35083308 	ori	t0,t0,0x3308
bfc0124c:	240936a0 	li	t1,13984
bfc01250:	2d1036a0 	sltiu	s0,t0,13984
bfc01254:	24120000 	li	s2,0
bfc01258:	16120372 	bne	s0,s2,bfc02024 <inst_error>
bfc0125c:	00000000 	nop
bfc01260:	3c088c04 	lui	t0,0x8c04
bfc01264:	3508ec50 	ori	t0,t0,0xec50
bfc01268:	24097e44 	li	t1,32324
bfc0126c:	2d107e44 	sltiu	s0,t0,32324
bfc01270:	24120000 	li	s2,0
bfc01274:	1612036b 	bne	s0,s2,bfc02024 <inst_error>
bfc01278:	00000000 	nop
bfc0127c:	3c085922 	lui	t0,0x5922
bfc01280:	35080200 	ori	t0,t0,0x200
bfc01284:	3409bab0 	li	t1,0xbab0
bfc01288:	2d10bab0 	sltiu	s0,t0,-17744
bfc0128c:	24120001 	li	s2,1
bfc01290:	16120364 	bne	s0,s2,bfc02024 <inst_error>
bfc01294:	00000000 	nop
bfc01298:	3c08b954 	lui	t0,0xb954
bfc0129c:	3508b083 	ori	t0,t0,0xb083
bfc012a0:	24092760 	li	t1,10080
bfc012a4:	2d102760 	sltiu	s0,t0,10080
bfc012a8:	24120000 	li	s2,0
bfc012ac:	1612035d 	bne	s0,s2,bfc02024 <inst_error>
bfc012b0:	00000000 	nop
bfc012b4:	3c08945f 	lui	t0,0x945f
bfc012b8:	3508fd60 	ori	t0,t0,0xfd60
bfc012bc:	24096f87 	li	t1,28551
bfc012c0:	2d106f87 	sltiu	s0,t0,28551
bfc012c4:	24120000 	li	s2,0
bfc012c8:	16120356 	bne	s0,s2,bfc02024 <inst_error>
bfc012cc:	00000000 	nop
bfc012d0:	3c084bb5 	lui	t0,0x4bb5
bfc012d4:	3508630c 	ori	t0,t0,0x630c
bfc012d8:	240919a8 	li	t1,6568
bfc012dc:	2d1019a8 	sltiu	s0,t0,6568
bfc012e0:	24120000 	li	s2,0
bfc012e4:	1612034f 	bne	s0,s2,bfc02024 <inst_error>
bfc012e8:	00000000 	nop
bfc012ec:	3c084594 	lui	t0,0x4594
bfc012f0:	350825f4 	ori	t0,t0,0x25f4
bfc012f4:	3409b028 	li	t1,0xb028
bfc012f8:	2d10b028 	sltiu	s0,t0,-20440
bfc012fc:	24120001 	li	s2,1
bfc01300:	16120348 	bne	s0,s2,bfc02024 <inst_error>
bfc01304:	00000000 	nop
bfc01308:	3c084a58 	lui	t0,0x4a58
bfc0130c:	35084c00 	ori	t0,t0,0x4c00
bfc01310:	24090dcc 	li	t1,3532
bfc01314:	2d100dcc 	sltiu	s0,t0,3532
bfc01318:	24120000 	li	s2,0
bfc0131c:	16120341 	bne	s0,s2,bfc02024 <inst_error>
bfc01320:	00000000 	nop
bfc01324:	3c0894b5 	lui	t0,0x94b5
bfc01328:	35084308 	ori	t0,t0,0x4308
bfc0132c:	3409ee2a 	li	t1,0xee2a
bfc01330:	2d10ee2a 	sltiu	s0,t0,-4566
bfc01334:	24120001 	li	s2,1
bfc01338:	1612033a 	bne	s0,s2,bfc02024 <inst_error>
bfc0133c:	00000000 	nop
bfc01340:	3c084687 	lui	t0,0x4687
bfc01344:	3508236c 	ori	t0,t0,0x236c
bfc01348:	24093fa4 	li	t1,16292
bfc0134c:	2d103fa4 	sltiu	s0,t0,16292
bfc01350:	24120000 	li	s2,0
bfc01354:	16120333 	bne	s0,s2,bfc02024 <inst_error>
bfc01358:	00000000 	nop
bfc0135c:	3c081ee5 	lui	t0,0x1ee5
bfc01360:	3508c220 	ori	t0,t0,0xc220
bfc01364:	24091945 	li	t1,6469
bfc01368:	2d101945 	sltiu	s0,t0,6469
bfc0136c:	24120000 	li	s2,0
bfc01370:	1612032c 	bne	s0,s2,bfc02024 <inst_error>
bfc01374:	00000000 	nop
bfc01378:	3c084df1 	lui	t0,0x4df1
bfc0137c:	3508c530 	ori	t0,t0,0xc530
bfc01380:	24095c00 	li	t1,23552
bfc01384:	2d105c00 	sltiu	s0,t0,23552
bfc01388:	24120000 	li	s2,0
bfc0138c:	16120325 	bne	s0,s2,bfc02024 <inst_error>
bfc01390:	00000000 	nop
bfc01394:	3c08ec98 	lui	t0,0xec98
bfc01398:	35082c3e 	ori	t0,t0,0x2c3e
bfc0139c:	3409a4a0 	li	t1,0xa4a0
bfc013a0:	2d10a4a0 	sltiu	s0,t0,-23392
bfc013a4:	24120001 	li	s2,1
bfc013a8:	1612031e 	bne	s0,s2,bfc02024 <inst_error>
bfc013ac:	00000000 	nop
bfc013b0:	3c08a49e 	lui	t0,0xa49e
bfc013b4:	35083620 	ori	t0,t0,0x3620
bfc013b8:	3409de96 	li	t1,0xde96
bfc013bc:	2d10de96 	sltiu	s0,t0,-8554
bfc013c0:	24120001 	li	s2,1
bfc013c4:	16120317 	bne	s0,s2,bfc02024 <inst_error>
bfc013c8:	00000000 	nop
bfc013cc:	3c08a8d7 	lui	t0,0xa8d7
bfc013d0:	35086ac0 	ori	t0,t0,0x6ac0
bfc013d4:	3409c736 	li	t1,0xc736
bfc013d8:	2d10c736 	sltiu	s0,t0,-14538
bfc013dc:	24120001 	li	s2,1
bfc013e0:	16120310 	bne	s0,s2,bfc02024 <inst_error>
bfc013e4:	00000000 	nop
bfc013e8:	3c08a36d 	lui	t0,0xa36d
bfc013ec:	350833dc 	ori	t0,t0,0x33dc
bfc013f0:	240965dc 	li	t1,26076
bfc013f4:	2d1065dc 	sltiu	s0,t0,26076
bfc013f8:	24120000 	li	s2,0
bfc013fc:	16120309 	bne	s0,s2,bfc02024 <inst_error>
bfc01400:	00000000 	nop
bfc01404:	3c089cea 	lui	t0,0x9cea
bfc01408:	35088ff4 	ori	t0,t0,0x8ff4
bfc0140c:	3409f8d4 	li	t1,0xf8d4
bfc01410:	2d10f8d4 	sltiu	s0,t0,-1836
bfc01414:	24120001 	li	s2,1
bfc01418:	16120302 	bne	s0,s2,bfc02024 <inst_error>
bfc0141c:	00000000 	nop
bfc01420:	3c0822c1 	lui	t0,0x22c1
bfc01424:	3508d98a 	ori	t0,t0,0xd98a
bfc01428:	24097210 	li	t1,29200
bfc0142c:	2d107210 	sltiu	s0,t0,29200
bfc01430:	24120000 	li	s2,0
bfc01434:	161202fb 	bne	s0,s2,bfc02024 <inst_error>
bfc01438:	00000000 	nop
bfc0143c:	3c0841b0 	lui	t0,0x41b0
bfc01440:	3508979c 	ori	t0,t0,0x979c
bfc01444:	3409a8d7 	li	t1,0xa8d7
bfc01448:	2d10a8d7 	sltiu	s0,t0,-22313
bfc0144c:	24120001 	li	s2,1
bfc01450:	161202f4 	bne	s0,s2,bfc02024 <inst_error>
bfc01454:	00000000 	nop
bfc01458:	3c089dc9 	lui	t0,0x9dc9
bfc0145c:	35083b4f 	ori	t0,t0,0x3b4f
bfc01460:	3409a4a0 	li	t1,0xa4a0
bfc01464:	2d10a4a0 	sltiu	s0,t0,-23392
bfc01468:	24120001 	li	s2,1
bfc0146c:	161202ed 	bne	s0,s2,bfc02024 <inst_error>
bfc01470:	00000000 	nop
bfc01474:	3c0878de 	lui	t0,0x78de
bfc01478:	350888d2 	ori	t0,t0,0x88d2
bfc0147c:	24092880 	li	t1,10368
bfc01480:	2d102880 	sltiu	s0,t0,10368
bfc01484:	24120000 	li	s2,0
bfc01488:	161202e6 	bne	s0,s2,bfc02024 <inst_error>
bfc0148c:	00000000 	nop
bfc01490:	3c0813f6 	lui	t0,0x13f6
bfc01494:	3508e998 	ori	t0,t0,0xe998
bfc01498:	2409008b 	li	t1,139
bfc0149c:	2d10008b 	sltiu	s0,t0,139
bfc014a0:	24120000 	li	s2,0
bfc014a4:	161202df 	bne	s0,s2,bfc02024 <inst_error>
bfc014a8:	00000000 	nop
bfc014ac:	3c08b7c0 	lui	t0,0xb7c0
bfc014b0:	35087400 	ori	t0,t0,0x7400
bfc014b4:	24092644 	li	t1,9796
bfc014b8:	2d102644 	sltiu	s0,t0,9796
bfc014bc:	24120000 	li	s2,0
bfc014c0:	161202d8 	bne	s0,s2,bfc02024 <inst_error>
bfc014c4:	00000000 	nop
bfc014c8:	3c0842f1 	lui	t0,0x42f1
bfc014cc:	350888fe 	ori	t0,t0,0x88fe
bfc014d0:	34099314 	li	t1,0x9314
bfc014d4:	2d109314 	sltiu	s0,t0,-27884
bfc014d8:	24120001 	li	s2,1
bfc014dc:	161202d1 	bne	s0,s2,bfc02024 <inst_error>
bfc014e0:	00000000 	nop
bfc014e4:	3c0893ac 	lui	t0,0x93ac
bfc014e8:	35083400 	ori	t0,t0,0x3400
bfc014ec:	24095d13 	li	t1,23827
bfc014f0:	2d105d13 	sltiu	s0,t0,23827
bfc014f4:	24120000 	li	s2,0
bfc014f8:	161202ca 	bne	s0,s2,bfc02024 <inst_error>
bfc014fc:	00000000 	nop
bfc01500:	3c083a97 	lui	t0,0x3a97
bfc01504:	35080198 	ori	t0,t0,0x198
bfc01508:	3409e401 	li	t1,0xe401
bfc0150c:	2d10e401 	sltiu	s0,t0,-7167
bfc01510:	24120001 	li	s2,1
bfc01514:	161202c3 	bne	s0,s2,bfc02024 <inst_error>
bfc01518:	00000000 	nop
bfc0151c:	3c082a1b 	lui	t0,0x2a1b
bfc01520:	35080bb4 	ori	t0,t0,0xbb4
bfc01524:	340998d0 	li	t1,0x98d0
bfc01528:	2d1098d0 	sltiu	s0,t0,-26416
bfc0152c:	24120001 	li	s2,1
bfc01530:	161202bc 	bne	s0,s2,bfc02024 <inst_error>
bfc01534:	00000000 	nop
bfc01538:	3c08d0b4 	lui	t0,0xd0b4
bfc0153c:	3508acf0 	ori	t0,t0,0xacf0
bfc01540:	3409d491 	li	t1,0xd491
bfc01544:	2d10d491 	sltiu	s0,t0,-11119
bfc01548:	24120001 	li	s2,1
bfc0154c:	161202b5 	bne	s0,s2,bfc02024 <inst_error>
bfc01550:	00000000 	nop
bfc01554:	3c08e0d2 	lui	t0,0xe0d2
bfc01558:	3508b5fa 	ori	t0,t0,0xb5fa
bfc0155c:	3409b1b6 	li	t1,0xb1b6
bfc01560:	2d10b1b6 	sltiu	s0,t0,-20042
bfc01564:	24120001 	li	s2,1
bfc01568:	161202ae 	bne	s0,s2,bfc02024 <inst_error>
bfc0156c:	00000000 	nop
bfc01570:	3c08533c 	lui	t0,0x533c
bfc01574:	35087880 	ori	t0,t0,0x7880
bfc01578:	34098e63 	li	t1,0x8e63
bfc0157c:	2d108e63 	sltiu	s0,t0,-29085
bfc01580:	24120001 	li	s2,1
bfc01584:	161202a7 	bne	s0,s2,bfc02024 <inst_error>
bfc01588:	00000000 	nop
bfc0158c:	3c080251 	lui	t0,0x251
bfc01590:	3508adc0 	ori	t0,t0,0xadc0
bfc01594:	3409d3d8 	li	t1,0xd3d8
bfc01598:	2d10d3d8 	sltiu	s0,t0,-11304
bfc0159c:	24120001 	li	s2,1
bfc015a0:	161202a0 	bne	s0,s2,bfc02024 <inst_error>
bfc015a4:	00000000 	nop
bfc015a8:	3c082d20 	lui	t0,0x2d20
bfc015ac:	350885dc 	ori	t0,t0,0x85dc
bfc015b0:	34098640 	li	t1,0x8640
bfc015b4:	2d108640 	sltiu	s0,t0,-31168
bfc015b8:	24120001 	li	s2,1
bfc015bc:	16120299 	bne	s0,s2,bfc02024 <inst_error>
bfc015c0:	00000000 	nop
bfc015c4:	3c083f67 	lui	t0,0x3f67
bfc015c8:	350830a0 	ori	t0,t0,0x30a0
bfc015cc:	2409008f 	li	t1,143
bfc015d0:	2d10008f 	sltiu	s0,t0,143
bfc015d4:	24120000 	li	s2,0
bfc015d8:	16120292 	bne	s0,s2,bfc02024 <inst_error>
bfc015dc:	00000000 	nop
bfc015e0:	3c085a88 	lui	t0,0x5a88
bfc015e4:	35087b40 	ori	t0,t0,0x7b40
bfc015e8:	24090000 	li	t1,0
bfc015ec:	2d100000 	sltiu	s0,t0,0
bfc015f0:	24120000 	li	s2,0
bfc015f4:	1612028b 	bne	s0,s2,bfc02024 <inst_error>
bfc015f8:	00000000 	nop
bfc015fc:	3c0877f6 	lui	t0,0x77f6
bfc01600:	3508f704 	ori	t0,t0,0xf704
bfc01604:	24090000 	li	t1,0
bfc01608:	2d100000 	sltiu	s0,t0,0
bfc0160c:	24120000 	li	s2,0
bfc01610:	16120284 	bne	s0,s2,bfc02024 <inst_error>
bfc01614:	00000000 	nop
bfc01618:	3c081706 	lui	t0,0x1706
bfc0161c:	35085b00 	ori	t0,t0,0x5b00
bfc01620:	24090000 	li	t1,0
bfc01624:	2d100000 	sltiu	s0,t0,0
bfc01628:	24120000 	li	s2,0
bfc0162c:	1612027d 	bne	s0,s2,bfc02024 <inst_error>
bfc01630:	00000000 	nop
bfc01634:	3c0840e6 	lui	t0,0x40e6
bfc01638:	350844f8 	ori	t0,t0,0x44f8
bfc0163c:	24090000 	li	t1,0
bfc01640:	2d100000 	sltiu	s0,t0,0
bfc01644:	24120000 	li	s2,0
bfc01648:	16120276 	bne	s0,s2,bfc02024 <inst_error>
bfc0164c:	00000000 	nop
bfc01650:	3c08051f 	lui	t0,0x51f
bfc01654:	35080300 	ori	t0,t0,0x300
bfc01658:	24090000 	li	t1,0
bfc0165c:	2d100000 	sltiu	s0,t0,0
bfc01660:	24120000 	li	s2,0
bfc01664:	1612026f 	bne	s0,s2,bfc02024 <inst_error>
bfc01668:	00000000 	nop
bfc0166c:	3c082182 	lui	t0,0x2182
bfc01670:	35082ca0 	ori	t0,t0,0x2ca0
bfc01674:	24090000 	li	t1,0
bfc01678:	2d100000 	sltiu	s0,t0,0
bfc0167c:	24120000 	li	s2,0
bfc01680:	16120268 	bne	s0,s2,bfc02024 <inst_error>
bfc01684:	00000000 	nop
bfc01688:	3c0810be 	lui	t0,0x10be
bfc0168c:	35085096 	ori	t0,t0,0x5096
bfc01690:	24090000 	li	t1,0
bfc01694:	2d100000 	sltiu	s0,t0,0
bfc01698:	24120000 	li	s2,0
bfc0169c:	16120261 	bne	s0,s2,bfc02024 <inst_error>
bfc016a0:	00000000 	nop
bfc016a4:	3c08e044 	lui	t0,0xe044
bfc016a8:	3508c598 	ori	t0,t0,0xc598
bfc016ac:	24090000 	li	t1,0
bfc016b0:	2d100000 	sltiu	s0,t0,0
bfc016b4:	24120000 	li	s2,0
bfc016b8:	1612025a 	bne	s0,s2,bfc02024 <inst_error>
bfc016bc:	00000000 	nop
bfc016c0:	3c08502f 	lui	t0,0x502f
bfc016c4:	35083ef8 	ori	t0,t0,0x3ef8
bfc016c8:	24090000 	li	t1,0
bfc016cc:	2d100000 	sltiu	s0,t0,0
bfc016d0:	24120000 	li	s2,0
bfc016d4:	16120253 	bne	s0,s2,bfc02024 <inst_error>
bfc016d8:	00000000 	nop
bfc016dc:	3c08ff47 	lui	t0,0xff47
bfc016e0:	3508ef40 	ori	t0,t0,0xef40
bfc016e4:	24090000 	li	t1,0
bfc016e8:	2d100000 	sltiu	s0,t0,0
bfc016ec:	24120000 	li	s2,0
bfc016f0:	1612024c 	bne	s0,s2,bfc02024 <inst_error>
bfc016f4:	00000000 	nop
bfc016f8:	3c0866ce 	lui	t0,0x66ce
bfc016fc:	35087cbe 	ori	t0,t0,0x7cbe
bfc01700:	24090000 	li	t1,0
bfc01704:	2d100000 	sltiu	s0,t0,0
bfc01708:	24120000 	li	s2,0
bfc0170c:	16120245 	bne	s0,s2,bfc02024 <inst_error>
bfc01710:	00000000 	nop
bfc01714:	3c082937 	lui	t0,0x2937
bfc01718:	35082a28 	ori	t0,t0,0x2a28
bfc0171c:	24090000 	li	t1,0
bfc01720:	2d100000 	sltiu	s0,t0,0
bfc01724:	24120000 	li	s2,0
bfc01728:	1612023e 	bne	s0,s2,bfc02024 <inst_error>
bfc0172c:	00000000 	nop
bfc01730:	3c08845c 	lui	t0,0x845c
bfc01734:	3508e200 	ori	t0,t0,0xe200
bfc01738:	24090000 	li	t1,0
bfc0173c:	2d100000 	sltiu	s0,t0,0
bfc01740:	24120000 	li	s2,0
bfc01744:	16120237 	bne	s0,s2,bfc02024 <inst_error>
bfc01748:	00000000 	nop
bfc0174c:	3c081632 	lui	t0,0x1632
bfc01750:	35081ee0 	ori	t0,t0,0x1ee0
bfc01754:	24090000 	li	t1,0
bfc01758:	2d100000 	sltiu	s0,t0,0
bfc0175c:	24120000 	li	s2,0
bfc01760:	16120230 	bne	s0,s2,bfc02024 <inst_error>
bfc01764:	00000000 	nop
bfc01768:	3c084565 	lui	t0,0x4565
bfc0176c:	350840c0 	ori	t0,t0,0x40c0
bfc01770:	24090000 	li	t1,0
bfc01774:	2d100000 	sltiu	s0,t0,0
bfc01778:	24120000 	li	s2,0
bfc0177c:	16120229 	bne	s0,s2,bfc02024 <inst_error>
bfc01780:	00000000 	nop
bfc01784:	3c089b07 	lui	t0,0x9b07
bfc01788:	350805f0 	ori	t0,t0,0x5f0
bfc0178c:	24090000 	li	t1,0
bfc01790:	2d100000 	sltiu	s0,t0,0
bfc01794:	24120000 	li	s2,0
bfc01798:	16120222 	bne	s0,s2,bfc02024 <inst_error>
bfc0179c:	00000000 	nop
bfc017a0:	3c0895e2 	lui	t0,0x95e2
bfc017a4:	35080950 	ori	t0,t0,0x950
bfc017a8:	24090000 	li	t1,0
bfc017ac:	2d100000 	sltiu	s0,t0,0
bfc017b0:	24120000 	li	s2,0
bfc017b4:	1612021b 	bne	s0,s2,bfc02024 <inst_error>
bfc017b8:	00000000 	nop
bfc017bc:	3c080831 	lui	t0,0x831
bfc017c0:	35082224 	ori	t0,t0,0x2224
bfc017c4:	24090000 	li	t1,0
bfc017c8:	2d100000 	sltiu	s0,t0,0
bfc017cc:	24120000 	li	s2,0
bfc017d0:	16120214 	bne	s0,s2,bfc02024 <inst_error>
bfc017d4:	00000000 	nop
bfc017d8:	3c080313 	lui	t0,0x313
bfc017dc:	35088460 	ori	t0,t0,0x8460
bfc017e0:	24090000 	li	t1,0
bfc017e4:	2d100000 	sltiu	s0,t0,0
bfc017e8:	24120000 	li	s2,0
bfc017ec:	1612020d 	bne	s0,s2,bfc02024 <inst_error>
bfc017f0:	00000000 	nop
bfc017f4:	3c083978 	lui	t0,0x3978
bfc017f8:	3508fdde 	ori	t0,t0,0xfdde
bfc017fc:	24090000 	li	t1,0
bfc01800:	2d100000 	sltiu	s0,t0,0
bfc01804:	24120000 	li	s2,0
bfc01808:	16120206 	bne	s0,s2,bfc02024 <inst_error>
bfc0180c:	00000000 	nop
bfc01810:	3c08fad1 	lui	t0,0xfad1
bfc01814:	3508e400 	ori	t0,t0,0xe400
bfc01818:	24090000 	li	t1,0
bfc0181c:	2d100000 	sltiu	s0,t0,0
bfc01820:	24120000 	li	s2,0
bfc01824:	161201ff 	bne	s0,s2,bfc02024 <inst_error>
bfc01828:	00000000 	nop
bfc0182c:	3c08514e 	lui	t0,0x514e
bfc01830:	3508de20 	ori	t0,t0,0xde20
bfc01834:	24090000 	li	t1,0
bfc01838:	2d100000 	sltiu	s0,t0,0
bfc0183c:	24120000 	li	s2,0
bfc01840:	161201f8 	bne	s0,s2,bfc02024 <inst_error>
bfc01844:	00000000 	nop
bfc01848:	3c088889 	lui	t0,0x8889
bfc0184c:	3508e66f 	ori	t0,t0,0xe66f
bfc01850:	24090000 	li	t1,0
bfc01854:	2d100000 	sltiu	s0,t0,0
bfc01858:	24120000 	li	s2,0
bfc0185c:	161201f1 	bne	s0,s2,bfc02024 <inst_error>
bfc01860:	00000000 	nop
bfc01864:	3c083ac1 	lui	t0,0x3ac1
bfc01868:	3508a4fc 	ori	t0,t0,0xa4fc
bfc0186c:	24090000 	li	t1,0
bfc01870:	2d100000 	sltiu	s0,t0,0
bfc01874:	24120000 	li	s2,0
bfc01878:	161201ea 	bne	s0,s2,bfc02024 <inst_error>
bfc0187c:	00000000 	nop
bfc01880:	3c083ed2 	lui	t0,0x3ed2
bfc01884:	3508ea5f 	ori	t0,t0,0xea5f
bfc01888:	24090000 	li	t1,0
bfc0188c:	2d100000 	sltiu	s0,t0,0
bfc01890:	24120000 	li	s2,0
bfc01894:	161201e3 	bne	s0,s2,bfc02024 <inst_error>
bfc01898:	00000000 	nop
bfc0189c:	3c088063 	lui	t0,0x8063
bfc018a0:	35083134 	ori	t0,t0,0x3134
bfc018a4:	24090000 	li	t1,0
bfc018a8:	2d100000 	sltiu	s0,t0,0
bfc018ac:	24120000 	li	s2,0
bfc018b0:	161201dc 	bne	s0,s2,bfc02024 <inst_error>
bfc018b4:	00000000 	nop
bfc018b8:	3c086ba5 	lui	t0,0x6ba5
bfc018bc:	3508c2bb 	ori	t0,t0,0xc2bb
bfc018c0:	24090000 	li	t1,0
bfc018c4:	2d100000 	sltiu	s0,t0,0
bfc018c8:	24120000 	li	s2,0
bfc018cc:	161201d5 	bne	s0,s2,bfc02024 <inst_error>
bfc018d0:	00000000 	nop
bfc018d4:	3c086fa0 	lui	t0,0x6fa0
bfc018d8:	3508b5c0 	ori	t0,t0,0xb5c0
bfc018dc:	24090000 	li	t1,0
bfc018e0:	2d100000 	sltiu	s0,t0,0
bfc018e4:	24120000 	li	s2,0
bfc018e8:	161201ce 	bne	s0,s2,bfc02024 <inst_error>
bfc018ec:	00000000 	nop
bfc018f0:	3c08d2aa 	lui	t0,0xd2aa
bfc018f4:	3508a7be 	ori	t0,t0,0xa7be
bfc018f8:	24090000 	li	t1,0
bfc018fc:	2d100000 	sltiu	s0,t0,0
bfc01900:	24120000 	li	s2,0
bfc01904:	161201c7 	bne	s0,s2,bfc02024 <inst_error>
bfc01908:	00000000 	nop
bfc0190c:	3c08e48a 	lui	t0,0xe48a
bfc01910:	35084b08 	ori	t0,t0,0x4b08
bfc01914:	24090000 	li	t1,0
bfc01918:	2d100000 	sltiu	s0,t0,0
bfc0191c:	24120000 	li	s2,0
bfc01920:	161201c0 	bne	s0,s2,bfc02024 <inst_error>
bfc01924:	00000000 	nop
bfc01928:	3c086fb2 	lui	t0,0x6fb2
bfc0192c:	35082958 	ori	t0,t0,0x2958
bfc01930:	24090000 	li	t1,0
bfc01934:	2d100000 	sltiu	s0,t0,0
bfc01938:	24120000 	li	s2,0
bfc0193c:	161201b9 	bne	s0,s2,bfc02024 <inst_error>
bfc01940:	00000000 	nop
bfc01944:	3c08154e 	lui	t0,0x154e
bfc01948:	35086134 	ori	t0,t0,0x6134
bfc0194c:	24090000 	li	t1,0
bfc01950:	2d100000 	sltiu	s0,t0,0
bfc01954:	24120000 	li	s2,0
bfc01958:	161201b2 	bne	s0,s2,bfc02024 <inst_error>
bfc0195c:	00000000 	nop
bfc01960:	3c089cf2 	lui	t0,0x9cf2
bfc01964:	35083035 	ori	t0,t0,0x3035
bfc01968:	24090000 	li	t1,0
bfc0196c:	2d100000 	sltiu	s0,t0,0
bfc01970:	24120000 	li	s2,0
bfc01974:	161201ab 	bne	s0,s2,bfc02024 <inst_error>
bfc01978:	00000000 	nop
bfc0197c:	3c085fe5 	lui	t0,0x5fe5
bfc01980:	3508308c 	ori	t0,t0,0x308c
bfc01984:	24090000 	li	t1,0
bfc01988:	2d100000 	sltiu	s0,t0,0
bfc0198c:	24120000 	li	s2,0
bfc01990:	161201a4 	bne	s0,s2,bfc02024 <inst_error>
bfc01994:	00000000 	nop
bfc01998:	3c08afc0 	lui	t0,0xafc0
bfc0199c:	3508d82c 	ori	t0,t0,0xd82c
bfc019a0:	24090000 	li	t1,0
bfc019a4:	2d100000 	sltiu	s0,t0,0
bfc019a8:	24120000 	li	s2,0
bfc019ac:	1612019d 	bne	s0,s2,bfc02024 <inst_error>
bfc019b0:	00000000 	nop
bfc019b4:	3c082472 	lui	t0,0x2472
bfc019b8:	3508d528 	ori	t0,t0,0xd528
bfc019bc:	24090000 	li	t1,0
bfc019c0:	2d100000 	sltiu	s0,t0,0
bfc019c4:	24120000 	li	s2,0
bfc019c8:	16120196 	bne	s0,s2,bfc02024 <inst_error>
bfc019cc:	00000000 	nop
bfc019d0:	3c082819 	lui	t0,0x2819
bfc019d4:	35086e0f 	ori	t0,t0,0x6e0f
bfc019d8:	24090000 	li	t1,0
bfc019dc:	2d100000 	sltiu	s0,t0,0
bfc019e0:	24120000 	li	s2,0
bfc019e4:	1612018f 	bne	s0,s2,bfc02024 <inst_error>
bfc019e8:	00000000 	nop
bfc019ec:	3c088c5a 	lui	t0,0x8c5a
bfc019f0:	3508d5f4 	ori	t0,t0,0xd5f4
bfc019f4:	24090000 	li	t1,0
bfc019f8:	2d100000 	sltiu	s0,t0,0
bfc019fc:	24120000 	li	s2,0
bfc01a00:	16120188 	bne	s0,s2,bfc02024 <inst_error>
bfc01a04:	00000000 	nop
bfc01a08:	3c08579e 	lui	t0,0x579e
bfc01a0c:	3508b980 	ori	t0,t0,0xb980
bfc01a10:	24090000 	li	t1,0
bfc01a14:	2d100000 	sltiu	s0,t0,0
bfc01a18:	24120000 	li	s2,0
bfc01a1c:	16120181 	bne	s0,s2,bfc02024 <inst_error>
bfc01a20:	00000000 	nop
bfc01a24:	3c08f521 	lui	t0,0xf521
bfc01a28:	35080f00 	ori	t0,t0,0xf00
bfc01a2c:	24090000 	li	t1,0
bfc01a30:	2d100000 	sltiu	s0,t0,0
bfc01a34:	24120000 	li	s2,0
bfc01a38:	1612017a 	bne	s0,s2,bfc02024 <inst_error>
bfc01a3c:	00000000 	nop
bfc01a40:	3c0893aa 	lui	t0,0x93aa
bfc01a44:	35087fc5 	ori	t0,t0,0x7fc5
bfc01a48:	24090000 	li	t1,0
bfc01a4c:	2d100000 	sltiu	s0,t0,0
bfc01a50:	24120000 	li	s2,0
bfc01a54:	16120173 	bne	s0,s2,bfc02024 <inst_error>
bfc01a58:	00000000 	nop
bfc01a5c:	3c081bab 	lui	t0,0x1bab
bfc01a60:	35084b60 	ori	t0,t0,0x4b60
bfc01a64:	24090000 	li	t1,0
bfc01a68:	2d100000 	sltiu	s0,t0,0
bfc01a6c:	24120000 	li	s2,0
bfc01a70:	1612016c 	bne	s0,s2,bfc02024 <inst_error>
bfc01a74:	00000000 	nop
bfc01a78:	3c08e581 	lui	t0,0xe581
bfc01a7c:	35087240 	ori	t0,t0,0x7240
bfc01a80:	24090000 	li	t1,0
bfc01a84:	2d100000 	sltiu	s0,t0,0
bfc01a88:	24120000 	li	s2,0
bfc01a8c:	16120165 	bne	s0,s2,bfc02024 <inst_error>
bfc01a90:	00000000 	nop
bfc01a94:	3c08cc59 	lui	t0,0xcc59
bfc01a98:	3508904c 	ori	t0,t0,0x904c
bfc01a9c:	24090000 	li	t1,0
bfc01aa0:	2d100000 	sltiu	s0,t0,0
bfc01aa4:	24120000 	li	s2,0
bfc01aa8:	1612015e 	bne	s0,s2,bfc02024 <inst_error>
bfc01aac:	00000000 	nop
bfc01ab0:	3c08398b 	lui	t0,0x398b
bfc01ab4:	3508d619 	ori	t0,t0,0xd619
bfc01ab8:	24090000 	li	t1,0
bfc01abc:	2d100000 	sltiu	s0,t0,0
bfc01ac0:	24120000 	li	s2,0
bfc01ac4:	16120157 	bne	s0,s2,bfc02024 <inst_error>
bfc01ac8:	00000000 	nop
bfc01acc:	3c0867b8 	lui	t0,0x67b8
bfc01ad0:	35089b28 	ori	t0,t0,0x9b28
bfc01ad4:	24090000 	li	t1,0
bfc01ad8:	2d100000 	sltiu	s0,t0,0
bfc01adc:	24120000 	li	s2,0
bfc01ae0:	16120150 	bne	s0,s2,bfc02024 <inst_error>
bfc01ae4:	00000000 	nop
bfc01ae8:	3c08efd8 	lui	t0,0xefd8
bfc01aec:	35080fc4 	ori	t0,t0,0xfc4
bfc01af0:	24090000 	li	t1,0
bfc01af4:	2d100000 	sltiu	s0,t0,0
bfc01af8:	24120000 	li	s2,0
bfc01afc:	16120149 	bne	s0,s2,bfc02024 <inst_error>
bfc01b00:	00000000 	nop
bfc01b04:	3c0855d2 	lui	t0,0x55d2
bfc01b08:	3508d016 	ori	t0,t0,0xd016
bfc01b0c:	24090000 	li	t1,0
bfc01b10:	2d100000 	sltiu	s0,t0,0
bfc01b14:	24120000 	li	s2,0
bfc01b18:	16120142 	bne	s0,s2,bfc02024 <inst_error>
bfc01b1c:	00000000 	nop
bfc01b20:	3c089609 	lui	t0,0x9609
bfc01b24:	35089350 	ori	t0,t0,0x9350
bfc01b28:	24090000 	li	t1,0
bfc01b2c:	2d100000 	sltiu	s0,t0,0
bfc01b30:	24120000 	li	s2,0
bfc01b34:	1612013b 	bne	s0,s2,bfc02024 <inst_error>
bfc01b38:	00000000 	nop
bfc01b3c:	3c08719d 	lui	t0,0x719d
bfc01b40:	350844a8 	ori	t0,t0,0x44a8
bfc01b44:	24090000 	li	t1,0
bfc01b48:	2d100000 	sltiu	s0,t0,0
bfc01b4c:	24120000 	li	s2,0
bfc01b50:	16120134 	bne	s0,s2,bfc02024 <inst_error>
bfc01b54:	00000000 	nop
bfc01b58:	24080000 	li	t0,0
bfc01b5c:	3409b625 	li	t1,0xb625
bfc01b60:	2d10b625 	sltiu	s0,t0,-18907
bfc01b64:	24120001 	li	s2,1
bfc01b68:	1612012e 	bne	s0,s2,bfc02024 <inst_error>
bfc01b6c:	00000000 	nop
bfc01b70:	24080000 	li	t0,0
bfc01b74:	3409d72e 	li	t1,0xd72e
bfc01b78:	2d10d72e 	sltiu	s0,t0,-10450
bfc01b7c:	24120001 	li	s2,1
bfc01b80:	16120128 	bne	s0,s2,bfc02024 <inst_error>
bfc01b84:	00000000 	nop
bfc01b88:	24080000 	li	t0,0
bfc01b8c:	24095e36 	li	t1,24118
bfc01b90:	2d105e36 	sltiu	s0,t0,24118
bfc01b94:	24120001 	li	s2,1
bfc01b98:	16120122 	bne	s0,s2,bfc02024 <inst_error>
bfc01b9c:	00000000 	nop
bfc01ba0:	24080000 	li	t0,0
bfc01ba4:	34099e40 	li	t1,0x9e40
bfc01ba8:	2d109e40 	sltiu	s0,t0,-25024
bfc01bac:	24120001 	li	s2,1
bfc01bb0:	1612011c 	bne	s0,s2,bfc02024 <inst_error>
bfc01bb4:	00000000 	nop
bfc01bb8:	24080000 	li	t0,0
bfc01bbc:	24096d08 	li	t1,27912
bfc01bc0:	2d106d08 	sltiu	s0,t0,27912
bfc01bc4:	24120001 	li	s2,1
bfc01bc8:	16120116 	bne	s0,s2,bfc02024 <inst_error>
bfc01bcc:	00000000 	nop
bfc01bd0:	24080000 	li	t0,0
bfc01bd4:	3409c6c4 	li	t1,0xc6c4
bfc01bd8:	2d10c6c4 	sltiu	s0,t0,-14652
bfc01bdc:	24120001 	li	s2,1
bfc01be0:	16120110 	bne	s0,s2,bfc02024 <inst_error>
bfc01be4:	00000000 	nop
bfc01be8:	24080000 	li	t0,0
bfc01bec:	24092f0d 	li	t1,12045
bfc01bf0:	2d102f0d 	sltiu	s0,t0,12045
bfc01bf4:	24120001 	li	s2,1
bfc01bf8:	1612010a 	bne	s0,s2,bfc02024 <inst_error>
bfc01bfc:	00000000 	nop
bfc01c00:	24080000 	li	t0,0
bfc01c04:	3409e460 	li	t1,0xe460
bfc01c08:	2d10e460 	sltiu	s0,t0,-7072
bfc01c0c:	24120001 	li	s2,1
bfc01c10:	16120104 	bne	s0,s2,bfc02024 <inst_error>
bfc01c14:	00000000 	nop
bfc01c18:	24080000 	li	t0,0
bfc01c1c:	340999de 	li	t1,0x99de
bfc01c20:	2d1099de 	sltiu	s0,t0,-26146
bfc01c24:	24120001 	li	s2,1
bfc01c28:	161200fe 	bne	s0,s2,bfc02024 <inst_error>
bfc01c2c:	00000000 	nop
bfc01c30:	24080000 	li	t0,0
bfc01c34:	3409a798 	li	t1,0xa798
bfc01c38:	2d10a798 	sltiu	s0,t0,-22632
bfc01c3c:	24120001 	li	s2,1
bfc01c40:	161200f8 	bne	s0,s2,bfc02024 <inst_error>
bfc01c44:	00000000 	nop
bfc01c48:	24080000 	li	t0,0
bfc01c4c:	3409da38 	li	t1,0xda38
bfc01c50:	2d10da38 	sltiu	s0,t0,-9672
bfc01c54:	24120001 	li	s2,1
bfc01c58:	161200f2 	bne	s0,s2,bfc02024 <inst_error>
bfc01c5c:	00000000 	nop
bfc01c60:	24080000 	li	t0,0
bfc01c64:	3409e6b4 	li	t1,0xe6b4
bfc01c68:	2d10e6b4 	sltiu	s0,t0,-6476
bfc01c6c:	24120001 	li	s2,1
bfc01c70:	161200ec 	bne	s0,s2,bfc02024 <inst_error>
bfc01c74:	00000000 	nop
bfc01c78:	24080000 	li	t0,0
bfc01c7c:	24091bdf 	li	t1,7135
bfc01c80:	2d101bdf 	sltiu	s0,t0,7135
bfc01c84:	24120001 	li	s2,1
bfc01c88:	161200e6 	bne	s0,s2,bfc02024 <inst_error>
bfc01c8c:	00000000 	nop
bfc01c90:	24080000 	li	t0,0
bfc01c94:	24093cc8 	li	t1,15560
bfc01c98:	2d103cc8 	sltiu	s0,t0,15560
bfc01c9c:	24120001 	li	s2,1
bfc01ca0:	161200e0 	bne	s0,s2,bfc02024 <inst_error>
bfc01ca4:	00000000 	nop
bfc01ca8:	24080000 	li	t0,0
bfc01cac:	2409771c 	li	t1,30492
bfc01cb0:	2d10771c 	sltiu	s0,t0,30492
bfc01cb4:	24120001 	li	s2,1
bfc01cb8:	161200da 	bne	s0,s2,bfc02024 <inst_error>
bfc01cbc:	00000000 	nop
bfc01cc0:	24080000 	li	t0,0
bfc01cc4:	3409e4d6 	li	t1,0xe4d6
bfc01cc8:	2d10e4d6 	sltiu	s0,t0,-6954
bfc01ccc:	24120001 	li	s2,1
bfc01cd0:	161200d4 	bne	s0,s2,bfc02024 <inst_error>
bfc01cd4:	00000000 	nop
bfc01cd8:	24080000 	li	t0,0
bfc01cdc:	24092100 	li	t1,8448
bfc01ce0:	2d102100 	sltiu	s0,t0,8448
bfc01ce4:	24120001 	li	s2,1
bfc01ce8:	161200ce 	bne	s0,s2,bfc02024 <inst_error>
bfc01cec:	00000000 	nop
bfc01cf0:	24080000 	li	t0,0
bfc01cf4:	3409d725 	li	t1,0xd725
bfc01cf8:	2d10d725 	sltiu	s0,t0,-10459
bfc01cfc:	24120001 	li	s2,1
bfc01d00:	161200c8 	bne	s0,s2,bfc02024 <inst_error>
bfc01d04:	00000000 	nop
bfc01d08:	24080000 	li	t0,0
bfc01d0c:	24095d3a 	li	t1,23866
bfc01d10:	2d105d3a 	sltiu	s0,t0,23866
bfc01d14:	24120001 	li	s2,1
bfc01d18:	161200c2 	bne	s0,s2,bfc02024 <inst_error>
bfc01d1c:	00000000 	nop
bfc01d20:	24080000 	li	t0,0
bfc01d24:	3409cc47 	li	t1,0xcc47
bfc01d28:	2d10cc47 	sltiu	s0,t0,-13241
bfc01d2c:	24120001 	li	s2,1
bfc01d30:	161200bc 	bne	s0,s2,bfc02024 <inst_error>
bfc01d34:	00000000 	nop
bfc01d38:	24080000 	li	t0,0
bfc01d3c:	24093eb8 	li	t1,16056
bfc01d40:	2d103eb8 	sltiu	s0,t0,16056
bfc01d44:	24120001 	li	s2,1
bfc01d48:	161200b6 	bne	s0,s2,bfc02024 <inst_error>
bfc01d4c:	00000000 	nop
bfc01d50:	24080000 	li	t0,0
bfc01d54:	240944ec 	li	t1,17644
bfc01d58:	2d1044ec 	sltiu	s0,t0,17644
bfc01d5c:	24120001 	li	s2,1
bfc01d60:	161200b0 	bne	s0,s2,bfc02024 <inst_error>
bfc01d64:	00000000 	nop
bfc01d68:	24080000 	li	t0,0
bfc01d6c:	3409bde0 	li	t1,0xbde0
bfc01d70:	2d10bde0 	sltiu	s0,t0,-16928
bfc01d74:	24120001 	li	s2,1
bfc01d78:	161200aa 	bne	s0,s2,bfc02024 <inst_error>
bfc01d7c:	00000000 	nop
bfc01d80:	24080000 	li	t0,0
bfc01d84:	3409a4b1 	li	t1,0xa4b1
bfc01d88:	2d10a4b1 	sltiu	s0,t0,-23375
bfc01d8c:	24120001 	li	s2,1
bfc01d90:	161200a4 	bne	s0,s2,bfc02024 <inst_error>
bfc01d94:	00000000 	nop
bfc01d98:	24080000 	li	t0,0
bfc01d9c:	3409cbae 	li	t1,0xcbae
bfc01da0:	2d10cbae 	sltiu	s0,t0,-13394
bfc01da4:	24120001 	li	s2,1
bfc01da8:	1612009e 	bne	s0,s2,bfc02024 <inst_error>
bfc01dac:	00000000 	nop
bfc01db0:	24080000 	li	t0,0
bfc01db4:	24091c44 	li	t1,7236
bfc01db8:	2d101c44 	sltiu	s0,t0,7236
bfc01dbc:	24120001 	li	s2,1
bfc01dc0:	16120098 	bne	s0,s2,bfc02024 <inst_error>
bfc01dc4:	00000000 	nop
bfc01dc8:	24080000 	li	t0,0
bfc01dcc:	3409ae1d 	li	t1,0xae1d
bfc01dd0:	2d10ae1d 	sltiu	s0,t0,-20963
bfc01dd4:	24120001 	li	s2,1
bfc01dd8:	16120092 	bne	s0,s2,bfc02024 <inst_error>
bfc01ddc:	00000000 	nop
bfc01de0:	24080000 	li	t0,0
bfc01de4:	3409f028 	li	t1,0xf028
bfc01de8:	2d10f028 	sltiu	s0,t0,-4056
bfc01dec:	24120001 	li	s2,1
bfc01df0:	1612008c 	bne	s0,s2,bfc02024 <inst_error>
bfc01df4:	00000000 	nop
bfc01df8:	24080000 	li	t0,0
bfc01dfc:	3409f520 	li	t1,0xf520
bfc01e00:	2d10f520 	sltiu	s0,t0,-2784
bfc01e04:	24120001 	li	s2,1
bfc01e08:	16120086 	bne	s0,s2,bfc02024 <inst_error>
bfc01e0c:	00000000 	nop
bfc01e10:	24080000 	li	t0,0
bfc01e14:	3409ab2f 	li	t1,0xab2f
bfc01e18:	2d10ab2f 	sltiu	s0,t0,-21713
bfc01e1c:	24120001 	li	s2,1
bfc01e20:	16120080 	bne	s0,s2,bfc02024 <inst_error>
bfc01e24:	00000000 	nop
bfc01e28:	24080000 	li	t0,0
bfc01e2c:	3409e612 	li	t1,0xe612
bfc01e30:	2d10e612 	sltiu	s0,t0,-6638
bfc01e34:	24120001 	li	s2,1
bfc01e38:	1612007a 	bne	s0,s2,bfc02024 <inst_error>
bfc01e3c:	00000000 	nop
bfc01e40:	24080000 	li	t0,0
bfc01e44:	24093665 	li	t1,13925
bfc01e48:	2d103665 	sltiu	s0,t0,13925
bfc01e4c:	24120001 	li	s2,1
bfc01e50:	16120074 	bne	s0,s2,bfc02024 <inst_error>
bfc01e54:	00000000 	nop
bfc01e58:	24080000 	li	t0,0
bfc01e5c:	240918ec 	li	t1,6380
bfc01e60:	2d1018ec 	sltiu	s0,t0,6380
bfc01e64:	24120001 	li	s2,1
bfc01e68:	1612006e 	bne	s0,s2,bfc02024 <inst_error>
bfc01e6c:	00000000 	nop
bfc01e70:	24080000 	li	t0,0
bfc01e74:	3409c23a 	li	t1,0xc23a
bfc01e78:	2d10c23a 	sltiu	s0,t0,-15814
bfc01e7c:	24120001 	li	s2,1
bfc01e80:	16120068 	bne	s0,s2,bfc02024 <inst_error>
bfc01e84:	00000000 	nop
bfc01e88:	24080000 	li	t0,0
bfc01e8c:	24092345 	li	t1,9029
bfc01e90:	2d102345 	sltiu	s0,t0,9029
bfc01e94:	24120001 	li	s2,1
bfc01e98:	16120062 	bne	s0,s2,bfc02024 <inst_error>
bfc01e9c:	00000000 	nop
bfc01ea0:	24080000 	li	t0,0
bfc01ea4:	2409031d 	li	t1,797
bfc01ea8:	2d10031d 	sltiu	s0,t0,797
bfc01eac:	24120001 	li	s2,1
bfc01eb0:	1612005c 	bne	s0,s2,bfc02024 <inst_error>
bfc01eb4:	00000000 	nop
bfc01eb8:	24080000 	li	t0,0
bfc01ebc:	3409a3d0 	li	t1,0xa3d0
bfc01ec0:	2d10a3d0 	sltiu	s0,t0,-23600
bfc01ec4:	24120001 	li	s2,1
bfc01ec8:	16120056 	bne	s0,s2,bfc02024 <inst_error>
bfc01ecc:	00000000 	nop
bfc01ed0:	24080000 	li	t0,0
bfc01ed4:	24092c47 	li	t1,11335
bfc01ed8:	2d102c47 	sltiu	s0,t0,11335
bfc01edc:	24120001 	li	s2,1
bfc01ee0:	16120050 	bne	s0,s2,bfc02024 <inst_error>
bfc01ee4:	00000000 	nop
bfc01ee8:	24080000 	li	t0,0
bfc01eec:	24092d66 	li	t1,11622
bfc01ef0:	2d102d66 	sltiu	s0,t0,11622
bfc01ef4:	24120001 	li	s2,1
bfc01ef8:	1612004a 	bne	s0,s2,bfc02024 <inst_error>
bfc01efc:	00000000 	nop
bfc01f00:	24080000 	li	t0,0
bfc01f04:	34098ca7 	li	t1,0x8ca7
bfc01f08:	2d108ca7 	sltiu	s0,t0,-29529
bfc01f0c:	24120001 	li	s2,1
bfc01f10:	16120044 	bne	s0,s2,bfc02024 <inst_error>
bfc01f14:	00000000 	nop
bfc01f18:	24080000 	li	t0,0
bfc01f1c:	24095d13 	li	t1,23827
bfc01f20:	2d105d13 	sltiu	s0,t0,23827
bfc01f24:	24120001 	li	s2,1
bfc01f28:	1612003e 	bne	s0,s2,bfc02024 <inst_error>
bfc01f2c:	00000000 	nop
bfc01f30:	24080000 	li	t0,0
bfc01f34:	3409b8b8 	li	t1,0xb8b8
bfc01f38:	2d10b8b8 	sltiu	s0,t0,-18248
bfc01f3c:	24120001 	li	s2,1
bfc01f40:	16120038 	bne	s0,s2,bfc02024 <inst_error>
bfc01f44:	00000000 	nop
bfc01f48:	24080000 	li	t0,0
bfc01f4c:	3409ba66 	li	t1,0xba66
bfc01f50:	2d10ba66 	sltiu	s0,t0,-17818
bfc01f54:	24120001 	li	s2,1
bfc01f58:	16120032 	bne	s0,s2,bfc02024 <inst_error>
bfc01f5c:	00000000 	nop
bfc01f60:	24080000 	li	t0,0
bfc01f64:	24097960 	li	t1,31072
bfc01f68:	2d107960 	sltiu	s0,t0,31072
bfc01f6c:	24120001 	li	s2,1
bfc01f70:	1612002c 	bne	s0,s2,bfc02024 <inst_error>
bfc01f74:	00000000 	nop
bfc01f78:	24080000 	li	t0,0
bfc01f7c:	240912f0 	li	t1,4848
bfc01f80:	2d1012f0 	sltiu	s0,t0,4848
bfc01f84:	24120001 	li	s2,1
bfc01f88:	16120026 	bne	s0,s2,bfc02024 <inst_error>
bfc01f8c:	00000000 	nop
bfc01f90:	24080000 	li	t0,0
bfc01f94:	3409859f 	li	t1,0x859f
bfc01f98:	2d10859f 	sltiu	s0,t0,-31329
bfc01f9c:	24120001 	li	s2,1
bfc01fa0:	16120020 	bne	s0,s2,bfc02024 <inst_error>
bfc01fa4:	00000000 	nop
bfc01fa8:	24080000 	li	t0,0
bfc01fac:	3409ed76 	li	t1,0xed76
bfc01fb0:	2d10ed76 	sltiu	s0,t0,-4746
bfc01fb4:	24120001 	li	s2,1
bfc01fb8:	1612001a 	bne	s0,s2,bfc02024 <inst_error>
bfc01fbc:	00000000 	nop
bfc01fc0:	24080000 	li	t0,0
bfc01fc4:	24092594 	li	t1,9620
bfc01fc8:	2d102594 	sltiu	s0,t0,9620
bfc01fcc:	24120001 	li	s2,1
bfc01fd0:	16120014 	bne	s0,s2,bfc02024 <inst_error>
bfc01fd4:	00000000 	nop
bfc01fd8:	24080000 	li	t0,0
bfc01fdc:	240970df 	li	t1,28895
bfc01fe0:	2d1070df 	sltiu	s0,t0,28895
bfc01fe4:	24120001 	li	s2,1
bfc01fe8:	1612000e 	bne	s0,s2,bfc02024 <inst_error>
bfc01fec:	00000000 	nop
bfc01ff0:	24080000 	li	t0,0
bfc01ff4:	3409c3b8 	li	t1,0xc3b8
bfc01ff8:	2d10c3b8 	sltiu	s0,t0,-15432
bfc01ffc:	24120001 	li	s2,1
bfc02000:	16120008 	bne	s0,s2,bfc02024 <inst_error>
bfc02004:	00000000 	nop
bfc02008:	24080000 	li	t0,0
bfc0200c:	24090000 	li	t1,0
bfc02010:	2d100000 	sltiu	s0,t0,0
bfc02014:	24120000 	li	s2,0
bfc02018:	16120002 	bne	s0,s2,bfc02024 <inst_error>
bfc0201c:	00000000 	nop
bfc02020:	4a000000 	c2	0x0

bfc02024 <inst_error>:
inst_error():
bfc02024:	0000003f 	0x3f

Disassembly of section .reginfo:

00000000 <.reginfo>:
   0:	00050300 	sll	zero,a1,0xc
	...
