
build/sltu:     file format elf32-tradlittlemips
build/sltu


Disassembly of section .text:

bfc00000 <main>:
bfc00000:	3c08158f 	lui	t0,0x158f
bfc00004:	35082b29 	ori	t0,t0,0x2b29
bfc00008:	3c09421c 	lui	t1,0x421c
bfc0000c:	35290a42 	ori	t1,t1,0xa42
bfc00010:	0109802b 	sltu	s0,t0,t1
bfc00014:	24120001 	li	s2,1
bfc00018:	161208fc 	bne	s0,s2,bfc0240c <inst_error>
bfc0001c:	00000000 	nop
bfc00020:	3c086034 	lui	t0,0x6034
bfc00024:	35083bf8 	ori	t0,t0,0x3bf8
bfc00028:	3c09dd17 	lui	t1,0xdd17
bfc0002c:	3529b30a 	ori	t1,t1,0xb30a
bfc00030:	0109802b 	sltu	s0,t0,t1
bfc00034:	24120001 	li	s2,1
bfc00038:	161208f4 	bne	s0,s2,bfc0240c <inst_error>
bfc0003c:	00000000 	nop
bfc00040:	3c082d5c 	lui	t0,0x2d5c
bfc00044:	35083180 	ori	t0,t0,0x3180
bfc00048:	3c0914df 	lui	t1,0x14df
bfc0004c:	35294718 	ori	t1,t1,0x4718
bfc00050:	0109802b 	sltu	s0,t0,t1
bfc00054:	24120000 	li	s2,0
bfc00058:	161208ec 	bne	s0,s2,bfc0240c <inst_error>
bfc0005c:	00000000 	nop
bfc00060:	3c087560 	lui	t0,0x7560
bfc00064:	3508fb80 	ori	t0,t0,0xfb80
bfc00068:	3c092a98 	lui	t1,0x2a98
bfc0006c:	352914b9 	ori	t1,t1,0x14b9
bfc00070:	0109802b 	sltu	s0,t0,t1
bfc00074:	24120000 	li	s2,0
bfc00078:	161208e4 	bne	s0,s2,bfc0240c <inst_error>
bfc0007c:	00000000 	nop
bfc00080:	3c08ca60 	lui	t0,0xca60
bfc00084:	35086900 	ori	t0,t0,0x6900
bfc00088:	3c099416 	lui	t1,0x9416
bfc0008c:	35294d3a 	ori	t1,t1,0x4d3a
bfc00090:	0109802b 	sltu	s0,t0,t1
bfc00094:	24120000 	li	s2,0
bfc00098:	161208dc 	bne	s0,s2,bfc0240c <inst_error>
bfc0009c:	00000000 	nop
bfc000a0:	3c08df4e 	lui	t0,0xdf4e
bfc000a4:	35082bc0 	ori	t0,t0,0x2bc0
bfc000a8:	3c0937bd 	lui	t1,0x37bd
bfc000ac:	35295259 	ori	t1,t1,0x5259
bfc000b0:	0109802b 	sltu	s0,t0,t1
bfc000b4:	24120000 	li	s2,0
bfc000b8:	161208d4 	bne	s0,s2,bfc0240c <inst_error>
bfc000bc:	00000000 	nop
bfc000c0:	3c08d671 	lui	t0,0xd671
bfc000c4:	3508d650 	ori	t0,t0,0xd650
bfc000c8:	3c09f9a4 	lui	t1,0xf9a4
bfc000cc:	35299f10 	ori	t1,t1,0x9f10
bfc000d0:	0109802b 	sltu	s0,t0,t1
bfc000d4:	24120001 	li	s2,1
bfc000d8:	161208cc 	bne	s0,s2,bfc0240c <inst_error>
bfc000dc:	00000000 	nop
bfc000e0:	3c089e63 	lui	t0,0x9e63
bfc000e4:	350841e0 	ori	t0,t0,0x41e0
bfc000e8:	3c0961c7 	lui	t1,0x61c7
bfc000ec:	35290130 	ori	t1,t1,0x130
bfc000f0:	0109802b 	sltu	s0,t0,t1
bfc000f4:	24120000 	li	s2,0
bfc000f8:	161208c4 	bne	s0,s2,bfc0240c <inst_error>
bfc000fc:	00000000 	nop
bfc00100:	3c087e12 	lui	t0,0x7e12
bfc00104:	3508e4af 	ori	t0,t0,0xe4af
bfc00108:	3c09a7fa 	lui	t1,0xa7fa
bfc0010c:	35299200 	ori	t1,t1,0x9200
bfc00110:	0109802b 	sltu	s0,t0,t1
bfc00114:	24120001 	li	s2,1
bfc00118:	161208bc 	bne	s0,s2,bfc0240c <inst_error>
bfc0011c:	00000000 	nop
bfc00120:	3c0824d2 	lui	t0,0x24d2
bfc00124:	35080908 	ori	t0,t0,0x908
bfc00128:	3c09e7ff 	lui	t1,0xe7ff
bfc0012c:	35299120 	ori	t1,t1,0x9120
bfc00130:	0109802b 	sltu	s0,t0,t1
bfc00134:	24120001 	li	s2,1
bfc00138:	161208b4 	bne	s0,s2,bfc0240c <inst_error>
bfc0013c:	00000000 	nop
bfc00140:	3c08f49d 	lui	t0,0xf49d
bfc00144:	35085fa6 	ori	t0,t0,0x5fa6
bfc00148:	3c09a79b 	lui	t1,0xa79b
bfc0014c:	35292c2e 	ori	t1,t1,0x2c2e
bfc00150:	0109802b 	sltu	s0,t0,t1
bfc00154:	24120000 	li	s2,0
bfc00158:	161208ac 	bne	s0,s2,bfc0240c <inst_error>
bfc0015c:	00000000 	nop
bfc00160:	3c088ffc 	lui	t0,0x8ffc
bfc00164:	35089a40 	ori	t0,t0,0x9a40
bfc00168:	3c0927aa 	lui	t1,0x27aa
bfc0016c:	352967e8 	ori	t1,t1,0x67e8
bfc00170:	0109802b 	sltu	s0,t0,t1
bfc00174:	24120000 	li	s2,0
bfc00178:	161208a4 	bne	s0,s2,bfc0240c <inst_error>
bfc0017c:	00000000 	nop
bfc00180:	3c0860cc 	lui	t0,0x60cc
bfc00184:	35083a3f 	ori	t0,t0,0x3a3f
bfc00188:	3c0978df 	lui	t1,0x78df
bfc0018c:	3529cfb0 	ori	t1,t1,0xcfb0
bfc00190:	0109802b 	sltu	s0,t0,t1
bfc00194:	24120001 	li	s2,1
bfc00198:	1612089c 	bne	s0,s2,bfc0240c <inst_error>
bfc0019c:	00000000 	nop
bfc001a0:	3c087be6 	lui	t0,0x7be6
bfc001a4:	3508e8b0 	ori	t0,t0,0xe8b0
bfc001a8:	3c099cf3 	lui	t1,0x9cf3
bfc001ac:	352969ea 	ori	t1,t1,0x69ea
bfc001b0:	0109802b 	sltu	s0,t0,t1
bfc001b4:	24120001 	li	s2,1
bfc001b8:	16120894 	bne	s0,s2,bfc0240c <inst_error>
bfc001bc:	00000000 	nop
bfc001c0:	3c08586b 	lui	t0,0x586b
bfc001c4:	35084150 	ori	t0,t0,0x4150
bfc001c8:	3c09cab4 	lui	t1,0xcab4
bfc001cc:	3529808a 	ori	t1,t1,0x808a
bfc001d0:	0109802b 	sltu	s0,t0,t1
bfc001d4:	24120001 	li	s2,1
bfc001d8:	1612088c 	bne	s0,s2,bfc0240c <inst_error>
bfc001dc:	00000000 	nop
bfc001e0:	3c083467 	lui	t0,0x3467
bfc001e4:	3508ec80 	ori	t0,t0,0xec80
bfc001e8:	3c09fb77 	lui	t1,0xfb77
bfc001ec:	35291004 	ori	t1,t1,0x1004
bfc001f0:	0109802b 	sltu	s0,t0,t1
bfc001f4:	24120001 	li	s2,1
bfc001f8:	16120884 	bne	s0,s2,bfc0240c <inst_error>
bfc001fc:	00000000 	nop
bfc00200:	3c08eb27 	lui	t0,0xeb27
bfc00204:	35085cc0 	ori	t0,t0,0x5cc0
bfc00208:	3c090b03 	lui	t1,0xb03
bfc0020c:	352905a0 	ori	t1,t1,0x5a0
bfc00210:	0109802b 	sltu	s0,t0,t1
bfc00214:	24120000 	li	s2,0
bfc00218:	1612087c 	bne	s0,s2,bfc0240c <inst_error>
bfc0021c:	00000000 	nop
bfc00220:	3c08637e 	lui	t0,0x637e
bfc00224:	35085f66 	ori	t0,t0,0x5f66
bfc00228:	3c09aab1 	lui	t1,0xaab1
bfc0022c:	3529eab2 	ori	t1,t1,0xeab2
bfc00230:	0109802b 	sltu	s0,t0,t1
bfc00234:	24120001 	li	s2,1
bfc00238:	16120874 	bne	s0,s2,bfc0240c <inst_error>
bfc0023c:	00000000 	nop
bfc00240:	3c0867cc 	lui	t0,0x67cc
bfc00244:	3508c850 	ori	t0,t0,0xc850
bfc00248:	3c092d3b 	lui	t1,0x2d3b
bfc0024c:	35292b94 	ori	t1,t1,0x2b94
bfc00250:	0109802b 	sltu	s0,t0,t1
bfc00254:	24120000 	li	s2,0
bfc00258:	1612086c 	bne	s0,s2,bfc0240c <inst_error>
bfc0025c:	00000000 	nop
bfc00260:	3c08c64e 	lui	t0,0xc64e
bfc00264:	350846e7 	ori	t0,t0,0x46e7
bfc00268:	3c092d46 	lui	t1,0x2d46
bfc0026c:	352956d0 	ori	t1,t1,0x56d0
bfc00270:	0109802b 	sltu	s0,t0,t1
bfc00274:	24120000 	li	s2,0
bfc00278:	16120864 	bne	s0,s2,bfc0240c <inst_error>
bfc0027c:	00000000 	nop
bfc00280:	3c08df61 	lui	t0,0xdf61
bfc00284:	35088000 	ori	t0,t0,0x8000
bfc00288:	3c09fb0d 	lui	t1,0xfb0d
bfc0028c:	35290c40 	ori	t1,t1,0xc40
bfc00290:	0109802b 	sltu	s0,t0,t1
bfc00294:	24120001 	li	s2,1
bfc00298:	1612085c 	bne	s0,s2,bfc0240c <inst_error>
bfc0029c:	00000000 	nop
bfc002a0:	3c08a1d1 	lui	t0,0xa1d1
bfc002a4:	3508f0e4 	ori	t0,t0,0xf0e4
bfc002a8:	3c099e1d 	lui	t1,0x9e1d
bfc002ac:	35294924 	ori	t1,t1,0x4924
bfc002b0:	0109802b 	sltu	s0,t0,t1
bfc002b4:	24120000 	li	s2,0
bfc002b8:	16120854 	bne	s0,s2,bfc0240c <inst_error>
bfc002bc:	00000000 	nop
bfc002c0:	3c08e13c 	lui	t0,0xe13c
bfc002c4:	350893cc 	ori	t0,t0,0x93cc
bfc002c8:	3c098928 	lui	t1,0x8928
bfc002cc:	3529c13c 	ori	t1,t1,0xc13c
bfc002d0:	0109802b 	sltu	s0,t0,t1
bfc002d4:	24120000 	li	s2,0
bfc002d8:	1612084c 	bne	s0,s2,bfc0240c <inst_error>
bfc002dc:	00000000 	nop
bfc002e0:	3c08e4da 	lui	t0,0xe4da
bfc002e4:	3508b380 	ori	t0,t0,0xb380
bfc002e8:	3c094111 	lui	t1,0x4111
bfc002ec:	3529657c 	ori	t1,t1,0x657c
bfc002f0:	0109802b 	sltu	s0,t0,t1
bfc002f4:	24120000 	li	s2,0
bfc002f8:	16120844 	bne	s0,s2,bfc0240c <inst_error>
bfc002fc:	00000000 	nop
bfc00300:	3c082fc7 	lui	t0,0x2fc7
bfc00304:	35081578 	ori	t0,t0,0x1578
bfc00308:	3c096e07 	lui	t1,0x6e07
bfc0030c:	352988ac 	ori	t1,t1,0x88ac
bfc00310:	0109802b 	sltu	s0,t0,t1
bfc00314:	24120001 	li	s2,1
bfc00318:	1612083c 	bne	s0,s2,bfc0240c <inst_error>
bfc0031c:	00000000 	nop
bfc00320:	3c08dabf 	lui	t0,0xdabf
bfc00324:	35083fc0 	ori	t0,t0,0x3fc0
bfc00328:	3c09d5a6 	lui	t1,0xd5a6
bfc0032c:	3529cf9c 	ori	t1,t1,0xcf9c
bfc00330:	0109802b 	sltu	s0,t0,t1
bfc00334:	24120000 	li	s2,0
bfc00338:	16120834 	bne	s0,s2,bfc0240c <inst_error>
bfc0033c:	00000000 	nop
bfc00340:	3c08d5d3 	lui	t0,0xd5d3
bfc00344:	3508b71e 	ori	t0,t0,0xb71e
bfc00348:	3c09350b 	lui	t1,0x350b
bfc0034c:	352950d6 	ori	t1,t1,0x50d6
bfc00350:	0109802b 	sltu	s0,t0,t1
bfc00354:	24120000 	li	s2,0
bfc00358:	1612082c 	bne	s0,s2,bfc0240c <inst_error>
bfc0035c:	00000000 	nop
bfc00360:	3c084d05 	lui	t0,0x4d05
bfc00364:	3508b42b 	ori	t0,t0,0xb42b
bfc00368:	3c096074 	lui	t1,0x6074
bfc0036c:	3529d740 	ori	t1,t1,0xd740
bfc00370:	0109802b 	sltu	s0,t0,t1
bfc00374:	24120001 	li	s2,1
bfc00378:	16120824 	bne	s0,s2,bfc0240c <inst_error>
bfc0037c:	00000000 	nop
bfc00380:	3c08dae2 	lui	t0,0xdae2
bfc00384:	35088800 	ori	t0,t0,0x8800
bfc00388:	3c09f336 	lui	t1,0xf336
bfc0038c:	35292c68 	ori	t1,t1,0x2c68
bfc00390:	0109802b 	sltu	s0,t0,t1
bfc00394:	24120001 	li	s2,1
bfc00398:	1612081c 	bne	s0,s2,bfc0240c <inst_error>
bfc0039c:	00000000 	nop
bfc003a0:	3c088797 	lui	t0,0x8797
bfc003a4:	3508789a 	ori	t0,t0,0x789a
bfc003a8:	3c09c87c 	lui	t1,0xc87c
bfc003ac:	35291e28 	ori	t1,t1,0x1e28
bfc003b0:	0109802b 	sltu	s0,t0,t1
bfc003b4:	24120001 	li	s2,1
bfc003b8:	16120814 	bne	s0,s2,bfc0240c <inst_error>
bfc003bc:	00000000 	nop
bfc003c0:	3c080eb3 	lui	t0,0xeb3
bfc003c4:	3508e608 	ori	t0,t0,0xe608
bfc003c8:	3c09462a 	lui	t1,0x462a
bfc003cc:	352944d4 	ori	t1,t1,0x44d4
bfc003d0:	0109802b 	sltu	s0,t0,t1
bfc003d4:	24120001 	li	s2,1
bfc003d8:	1612080c 	bne	s0,s2,bfc0240c <inst_error>
bfc003dc:	00000000 	nop
bfc003e0:	3c08b7b5 	lui	t0,0xb7b5
bfc003e4:	3508fb30 	ori	t0,t0,0xfb30
bfc003e8:	3c0962c8 	lui	t1,0x62c8
bfc003ec:	35293598 	ori	t1,t1,0x3598
bfc003f0:	0109802b 	sltu	s0,t0,t1
bfc003f4:	24120000 	li	s2,0
bfc003f8:	16120804 	bne	s0,s2,bfc0240c <inst_error>
bfc003fc:	00000000 	nop
bfc00400:	3c086a37 	lui	t0,0x6a37
bfc00404:	35082f40 	ori	t0,t0,0x2f40
bfc00408:	3c097243 	lui	t1,0x7243
bfc0040c:	3529db20 	ori	t1,t1,0xdb20
bfc00410:	0109802b 	sltu	s0,t0,t1
bfc00414:	24120001 	li	s2,1
bfc00418:	161207fc 	bne	s0,s2,bfc0240c <inst_error>
bfc0041c:	00000000 	nop
bfc00420:	3c08defe 	lui	t0,0xdefe
bfc00424:	35089c90 	ori	t0,t0,0x9c90
bfc00428:	3c09b2f1 	lui	t1,0xb2f1
bfc0042c:	35299278 	ori	t1,t1,0x9278
bfc00430:	0109802b 	sltu	s0,t0,t1
bfc00434:	24120000 	li	s2,0
bfc00438:	161207f4 	bne	s0,s2,bfc0240c <inst_error>
bfc0043c:	00000000 	nop
bfc00440:	3c088ad5 	lui	t0,0x8ad5
bfc00444:	3508dfa8 	ori	t0,t0,0xdfa8
bfc00448:	3c0955da 	lui	t1,0x55da
bfc0044c:	35294740 	ori	t1,t1,0x4740
bfc00450:	0109802b 	sltu	s0,t0,t1
bfc00454:	24120000 	li	s2,0
bfc00458:	161207ec 	bne	s0,s2,bfc0240c <inst_error>
bfc0045c:	00000000 	nop
bfc00460:	3c08bba4 	lui	t0,0xbba4
bfc00464:	35085882 	ori	t0,t0,0x5882
bfc00468:	3c0933be 	lui	t1,0x33be
bfc0046c:	35292558 	ori	t1,t1,0x2558
bfc00470:	0109802b 	sltu	s0,t0,t1
bfc00474:	24120000 	li	s2,0
bfc00478:	161207e4 	bne	s0,s2,bfc0240c <inst_error>
bfc0047c:	00000000 	nop
bfc00480:	3c08e164 	lui	t0,0xe164
bfc00484:	35086e90 	ori	t0,t0,0x6e90
bfc00488:	3c09c82a 	lui	t1,0xc82a
bfc0048c:	35291fb0 	ori	t1,t1,0x1fb0
bfc00490:	0109802b 	sltu	s0,t0,t1
bfc00494:	24120000 	li	s2,0
bfc00498:	161207dc 	bne	s0,s2,bfc0240c <inst_error>
bfc0049c:	00000000 	nop
bfc004a0:	3c0828b2 	lui	t0,0x28b2
bfc004a4:	3508da80 	ori	t0,t0,0xda80
bfc004a8:	3c093c7c 	lui	t1,0x3c7c
bfc004ac:	3529306a 	ori	t1,t1,0x306a
bfc004b0:	0109802b 	sltu	s0,t0,t1
bfc004b4:	24120001 	li	s2,1
bfc004b8:	161207d4 	bne	s0,s2,bfc0240c <inst_error>
bfc004bc:	00000000 	nop
bfc004c0:	3c08199c 	lui	t0,0x199c
bfc004c4:	350816ef 	ori	t0,t0,0x16ef
bfc004c8:	3c0976be 	lui	t1,0x76be
bfc004cc:	35299aa0 	ori	t1,t1,0x9aa0
bfc004d0:	0109802b 	sltu	s0,t0,t1
bfc004d4:	24120001 	li	s2,1
bfc004d8:	161207cc 	bne	s0,s2,bfc0240c <inst_error>
bfc004dc:	00000000 	nop
bfc004e0:	3c08a66d 	lui	t0,0xa66d
bfc004e4:	350873fc 	ori	t0,t0,0x73fc
bfc004e8:	3c09be2e 	lui	t1,0xbe2e
bfc004ec:	35293f4c 	ori	t1,t1,0x3f4c
bfc004f0:	0109802b 	sltu	s0,t0,t1
bfc004f4:	24120001 	li	s2,1
bfc004f8:	161207c4 	bne	s0,s2,bfc0240c <inst_error>
bfc004fc:	00000000 	nop
bfc00500:	3c08806e 	lui	t0,0x806e
bfc00504:	350875e0 	ori	t0,t0,0x75e0
bfc00508:	3c09be9d 	lui	t1,0xbe9d
bfc0050c:	3529131f 	ori	t1,t1,0x131f
bfc00510:	0109802b 	sltu	s0,t0,t1
bfc00514:	24120001 	li	s2,1
bfc00518:	161207bc 	bne	s0,s2,bfc0240c <inst_error>
bfc0051c:	00000000 	nop
bfc00520:	3c08cca7 	lui	t0,0xcca7
bfc00524:	350850ac 	ori	t0,t0,0x50ac
bfc00528:	3c095fa5 	lui	t1,0x5fa5
bfc0052c:	3529bcf0 	ori	t1,t1,0xbcf0
bfc00530:	0109802b 	sltu	s0,t0,t1
bfc00534:	24120000 	li	s2,0
bfc00538:	161207b4 	bne	s0,s2,bfc0240c <inst_error>
bfc0053c:	00000000 	nop
bfc00540:	3c08e85c 	lui	t0,0xe85c
bfc00544:	35089d6c 	ori	t0,t0,0x9d6c
bfc00548:	3c091d84 	lui	t1,0x1d84
bfc0054c:	3529150c 	ori	t1,t1,0x150c
bfc00550:	0109802b 	sltu	s0,t0,t1
bfc00554:	24120000 	li	s2,0
bfc00558:	161207ac 	bne	s0,s2,bfc0240c <inst_error>
bfc0055c:	00000000 	nop
bfc00560:	3c081ee4 	lui	t0,0x1ee4
bfc00564:	35084d08 	ori	t0,t0,0x4d08
bfc00568:	3c09b304 	lui	t1,0xb304
bfc0056c:	3529b390 	ori	t1,t1,0xb390
bfc00570:	0109802b 	sltu	s0,t0,t1
bfc00574:	24120001 	li	s2,1
bfc00578:	161207a4 	bne	s0,s2,bfc0240c <inst_error>
bfc0057c:	00000000 	nop
bfc00580:	3c08129a 	lui	t0,0x129a
bfc00584:	3508349f 	ori	t0,t0,0x349f
bfc00588:	3c0975ef 	lui	t1,0x75ef
bfc0058c:	35294ad2 	ori	t1,t1,0x4ad2
bfc00590:	0109802b 	sltu	s0,t0,t1
bfc00594:	24120001 	li	s2,1
bfc00598:	1612079c 	bne	s0,s2,bfc0240c <inst_error>
bfc0059c:	00000000 	nop
bfc005a0:	3c086ab8 	lui	t0,0x6ab8
bfc005a4:	35084278 	ori	t0,t0,0x4278
bfc005a8:	3c09d122 	lui	t1,0xd122
bfc005ac:	3529cbac 	ori	t1,t1,0xcbac
bfc005b0:	0109802b 	sltu	s0,t0,t1
bfc005b4:	24120001 	li	s2,1
bfc005b8:	16120794 	bne	s0,s2,bfc0240c <inst_error>
bfc005bc:	00000000 	nop
bfc005c0:	3c08fdeb 	lui	t0,0xfdeb
bfc005c4:	3508066c 	ori	t0,t0,0x66c
bfc005c8:	3c09ce3c 	lui	t1,0xce3c
bfc005cc:	35298df0 	ori	t1,t1,0x8df0
bfc005d0:	0109802b 	sltu	s0,t0,t1
bfc005d4:	24120000 	li	s2,0
bfc005d8:	1612078c 	bne	s0,s2,bfc0240c <inst_error>
bfc005dc:	00000000 	nop
bfc005e0:	3c089808 	lui	t0,0x9808
bfc005e4:	3508a230 	ori	t0,t0,0xa230
bfc005e8:	3c099fe4 	lui	t1,0x9fe4
bfc005ec:	35291574 	ori	t1,t1,0x1574
bfc005f0:	0109802b 	sltu	s0,t0,t1
bfc005f4:	24120001 	li	s2,1
bfc005f8:	16120784 	bne	s0,s2,bfc0240c <inst_error>
bfc005fc:	00000000 	nop
bfc00600:	3c082648 	lui	t0,0x2648
bfc00604:	3508526c 	ori	t0,t0,0x526c
bfc00608:	3c090c86 	lui	t1,0xc86
bfc0060c:	3529441c 	ori	t1,t1,0x441c
bfc00610:	0109802b 	sltu	s0,t0,t1
bfc00614:	24120000 	li	s2,0
bfc00618:	1612077c 	bne	s0,s2,bfc0240c <inst_error>
bfc0061c:	00000000 	nop
bfc00620:	3c08db72 	lui	t0,0xdb72
bfc00624:	35089341 	ori	t0,t0,0x9341
bfc00628:	3c091994 	lui	t1,0x1994
bfc0062c:	3529083c 	ori	t1,t1,0x83c
bfc00630:	0109802b 	sltu	s0,t0,t1
bfc00634:	24120000 	li	s2,0
bfc00638:	16120774 	bne	s0,s2,bfc0240c <inst_error>
bfc0063c:	00000000 	nop
bfc00640:	3c08665c 	lui	t0,0x665c
bfc00644:	35082481 	ori	t0,t0,0x2481
bfc00648:	3c094bc9 	lui	t1,0x4bc9
bfc0064c:	3529ddaf 	ori	t1,t1,0xddaf
bfc00650:	0109802b 	sltu	s0,t0,t1
bfc00654:	24120000 	li	s2,0
bfc00658:	1612076c 	bne	s0,s2,bfc0240c <inst_error>
bfc0065c:	00000000 	nop
bfc00660:	3c080d79 	lui	t0,0xd79
bfc00664:	3508720c 	ori	t0,t0,0x720c
bfc00668:	3c09060c 	lui	t1,0x60c
bfc0066c:	35291f50 	ori	t1,t1,0x1f50
bfc00670:	0109802b 	sltu	s0,t0,t1
bfc00674:	24120000 	li	s2,0
bfc00678:	16120764 	bne	s0,s2,bfc0240c <inst_error>
bfc0067c:	00000000 	nop
bfc00680:	3c085ce5 	lui	t0,0x5ce5
bfc00684:	350889dc 	ori	t0,t0,0x89dc
bfc00688:	3c093cce 	lui	t1,0x3cce
bfc0068c:	35297f52 	ori	t1,t1,0x7f52
bfc00690:	0109802b 	sltu	s0,t0,t1
bfc00694:	24120000 	li	s2,0
bfc00698:	1612075c 	bne	s0,s2,bfc0240c <inst_error>
bfc0069c:	00000000 	nop
bfc006a0:	3c0819f5 	lui	t0,0x19f5
bfc006a4:	35086db8 	ori	t0,t0,0x6db8
bfc006a8:	3c09cdd0 	lui	t1,0xcdd0
bfc006ac:	35299064 	ori	t1,t1,0x9064
bfc006b0:	0109802b 	sltu	s0,t0,t1
bfc006b4:	24120001 	li	s2,1
bfc006b8:	16120754 	bne	s0,s2,bfc0240c <inst_error>
bfc006bc:	00000000 	nop
bfc006c0:	3c0848d0 	lui	t0,0x48d0
bfc006c4:	3508c3d8 	ori	t0,t0,0xc3d8
bfc006c8:	3c09c2c2 	lui	t1,0xc2c2
bfc006cc:	3529a4ab 	ori	t1,t1,0xa4ab
bfc006d0:	0109802b 	sltu	s0,t0,t1
bfc006d4:	24120001 	li	s2,1
bfc006d8:	1612074c 	bne	s0,s2,bfc0240c <inst_error>
bfc006dc:	00000000 	nop
bfc006e0:	3c0847d4 	lui	t0,0x47d4
bfc006e4:	3508befc 	ori	t0,t0,0xbefc
bfc006e8:	3c09f8ba 	lui	t1,0xf8ba
bfc006ec:	352905c8 	ori	t1,t1,0x5c8
bfc006f0:	0109802b 	sltu	s0,t0,t1
bfc006f4:	24120001 	li	s2,1
bfc006f8:	16120744 	bne	s0,s2,bfc0240c <inst_error>
bfc006fc:	00000000 	nop
bfc00700:	3c080496 	lui	t0,0x496
bfc00704:	35080c70 	ori	t0,t0,0xc70
bfc00708:	3c094f26 	lui	t1,0x4f26
bfc0070c:	35297b9d 	ori	t1,t1,0x7b9d
bfc00710:	0109802b 	sltu	s0,t0,t1
bfc00714:	24120001 	li	s2,1
bfc00718:	1612073c 	bne	s0,s2,bfc0240c <inst_error>
bfc0071c:	00000000 	nop
bfc00720:	3c084292 	lui	t0,0x4292
bfc00724:	3508fddd 	ori	t0,t0,0xfddd
bfc00728:	3c097a51 	lui	t1,0x7a51
bfc0072c:	35294ca0 	ori	t1,t1,0x4ca0
bfc00730:	0109802b 	sltu	s0,t0,t1
bfc00734:	24120001 	li	s2,1
bfc00738:	16120734 	bne	s0,s2,bfc0240c <inst_error>
bfc0073c:	00000000 	nop
bfc00740:	3c084447 	lui	t0,0x4447
bfc00744:	3508223a 	ori	t0,t0,0x223a
bfc00748:	3c098322 	lui	t1,0x8322
bfc0074c:	352993d2 	ori	t1,t1,0x93d2
bfc00750:	0109802b 	sltu	s0,t0,t1
bfc00754:	24120001 	li	s2,1
bfc00758:	1612072c 	bne	s0,s2,bfc0240c <inst_error>
bfc0075c:	00000000 	nop
bfc00760:	3c086609 	lui	t0,0x6609
bfc00764:	3508acf8 	ori	t0,t0,0xacf8
bfc00768:	3c0932a1 	lui	t1,0x32a1
bfc0076c:	35299df5 	ori	t1,t1,0x9df5
bfc00770:	0109802b 	sltu	s0,t0,t1
bfc00774:	24120000 	li	s2,0
bfc00778:	16120724 	bne	s0,s2,bfc0240c <inst_error>
bfc0077c:	00000000 	nop
bfc00780:	3c08ec16 	lui	t0,0xec16
bfc00784:	3508fb64 	ori	t0,t0,0xfb64
bfc00788:	3c09c949 	lui	t1,0xc949
bfc0078c:	35290954 	ori	t1,t1,0x954
bfc00790:	0109802b 	sltu	s0,t0,t1
bfc00794:	24120000 	li	s2,0
bfc00798:	1612071c 	bne	s0,s2,bfc0240c <inst_error>
bfc0079c:	00000000 	nop
bfc007a0:	3c087e63 	lui	t0,0x7e63
bfc007a4:	3508be30 	ori	t0,t0,0xbe30
bfc007a8:	3c0941c9 	lui	t1,0x41c9
bfc007ac:	35294e36 	ori	t1,t1,0x4e36
bfc007b0:	0109802b 	sltu	s0,t0,t1
bfc007b4:	24120000 	li	s2,0
bfc007b8:	16120714 	bne	s0,s2,bfc0240c <inst_error>
bfc007bc:	00000000 	nop
bfc007c0:	3c08e377 	lui	t0,0xe377
bfc007c4:	35089a7b 	ori	t0,t0,0x9a7b
bfc007c8:	3c099807 	lui	t1,0x9807
bfc007cc:	3529199a 	ori	t1,t1,0x199a
bfc007d0:	0109802b 	sltu	s0,t0,t1
bfc007d4:	24120000 	li	s2,0
bfc007d8:	1612070c 	bne	s0,s2,bfc0240c <inst_error>
bfc007dc:	00000000 	nop
bfc007e0:	3c086510 	lui	t0,0x6510
bfc007e4:	35089b22 	ori	t0,t0,0x9b22
bfc007e8:	3c09ea4d 	lui	t1,0xea4d
bfc007ec:	35291eb0 	ori	t1,t1,0x1eb0
bfc007f0:	0109802b 	sltu	s0,t0,t1
bfc007f4:	24120001 	li	s2,1
bfc007f8:	16120704 	bne	s0,s2,bfc0240c <inst_error>
bfc007fc:	00000000 	nop
bfc00800:	3c08af59 	lui	t0,0xaf59
bfc00804:	3508d3e0 	ori	t0,t0,0xd3e0
bfc00808:	3c091048 	lui	t1,0x1048
bfc0080c:	35294714 	ori	t1,t1,0x4714
bfc00810:	0109802b 	sltu	s0,t0,t1
bfc00814:	24120000 	li	s2,0
bfc00818:	161206fc 	bne	s0,s2,bfc0240c <inst_error>
bfc0081c:	00000000 	nop
bfc00820:	3c08646b 	lui	t0,0x646b
bfc00824:	3508f2f5 	ori	t0,t0,0xf2f5
bfc00828:	3c093f7d 	lui	t1,0x3f7d
bfc0082c:	352997d4 	ori	t1,t1,0x97d4
bfc00830:	0109802b 	sltu	s0,t0,t1
bfc00834:	24120000 	li	s2,0
bfc00838:	161206f4 	bne	s0,s2,bfc0240c <inst_error>
bfc0083c:	00000000 	nop
bfc00840:	3c081547 	lui	t0,0x1547
bfc00844:	35082c00 	ori	t0,t0,0x2c00
bfc00848:	3c095aba 	lui	t1,0x5aba
bfc0084c:	352976f0 	ori	t1,t1,0x76f0
bfc00850:	0109802b 	sltu	s0,t0,t1
bfc00854:	24120001 	li	s2,1
bfc00858:	161206ec 	bne	s0,s2,bfc0240c <inst_error>
bfc0085c:	00000000 	nop
bfc00860:	3c08b0c4 	lui	t0,0xb0c4
bfc00864:	3508d85c 	ori	t0,t0,0xd85c
bfc00868:	3c0966d1 	lui	t1,0x66d1
bfc0086c:	35296d40 	ori	t1,t1,0x6d40
bfc00870:	0109802b 	sltu	s0,t0,t1
bfc00874:	24120000 	li	s2,0
bfc00878:	161206e4 	bne	s0,s2,bfc0240c <inst_error>
bfc0087c:	00000000 	nop
bfc00880:	3c085042 	lui	t0,0x5042
bfc00884:	35081a14 	ori	t0,t0,0x1a14
bfc00888:	3c095114 	lui	t1,0x5114
bfc0088c:	35291000 	ori	t1,t1,0x1000
bfc00890:	0109802b 	sltu	s0,t0,t1
bfc00894:	24120001 	li	s2,1
bfc00898:	161206dc 	bne	s0,s2,bfc0240c <inst_error>
bfc0089c:	00000000 	nop
bfc008a0:	3c08e2e6 	lui	t0,0xe2e6
bfc008a4:	3508cb65 	ori	t0,t0,0xcb65
bfc008a8:	3c098c81 	lui	t1,0x8c81
bfc008ac:	3529768e 	ori	t1,t1,0x768e
bfc008b0:	0109802b 	sltu	s0,t0,t1
bfc008b4:	24120000 	li	s2,0
bfc008b8:	161206d4 	bne	s0,s2,bfc0240c <inst_error>
bfc008bc:	00000000 	nop
bfc008c0:	3c084f79 	lui	t0,0x4f79
bfc008c4:	350837a1 	ori	t0,t0,0x37a1
bfc008c8:	3c090467 	lui	t1,0x467
bfc008cc:	35296200 	ori	t1,t1,0x6200
bfc008d0:	0109802b 	sltu	s0,t0,t1
bfc008d4:	24120000 	li	s2,0
bfc008d8:	161206cc 	bne	s0,s2,bfc0240c <inst_error>
bfc008dc:	00000000 	nop
bfc008e0:	3c086e52 	lui	t0,0x6e52
bfc008e4:	3508adf6 	ori	t0,t0,0xadf6
bfc008e8:	3c09dd07 	lui	t1,0xdd07
bfc008ec:	3529efd3 	ori	t1,t1,0xefd3
bfc008f0:	0109802b 	sltu	s0,t0,t1
bfc008f4:	24120001 	li	s2,1
bfc008f8:	161206c4 	bne	s0,s2,bfc0240c <inst_error>
bfc008fc:	00000000 	nop
bfc00900:	3c08f161 	lui	t0,0xf161
bfc00904:	350864c0 	ori	t0,t0,0x64c0
bfc00908:	3c098e69 	lui	t1,0x8e69
bfc0090c:	35299b30 	ori	t1,t1,0x9b30
bfc00910:	0109802b 	sltu	s0,t0,t1
bfc00914:	24120000 	li	s2,0
bfc00918:	161206bc 	bne	s0,s2,bfc0240c <inst_error>
bfc0091c:	00000000 	nop
bfc00920:	3c084097 	lui	t0,0x4097
bfc00924:	35080e5f 	ori	t0,t0,0xe5f
bfc00928:	3c099499 	lui	t1,0x9499
bfc0092c:	35297457 	ori	t1,t1,0x7457
bfc00930:	0109802b 	sltu	s0,t0,t1
bfc00934:	24120001 	li	s2,1
bfc00938:	161206b4 	bne	s0,s2,bfc0240c <inst_error>
bfc0093c:	00000000 	nop
bfc00940:	3c087ec1 	lui	t0,0x7ec1
bfc00944:	3508a6f8 	ori	t0,t0,0xa6f8
bfc00948:	3c09c9f9 	lui	t1,0xc9f9
bfc0094c:	352992f4 	ori	t1,t1,0x92f4
bfc00950:	0109802b 	sltu	s0,t0,t1
bfc00954:	24120001 	li	s2,1
bfc00958:	161206ac 	bne	s0,s2,bfc0240c <inst_error>
bfc0095c:	00000000 	nop
bfc00960:	3c0873cb 	lui	t0,0x73cb
bfc00964:	3508e59d 	ori	t0,t0,0xe59d
bfc00968:	3c099d6e 	lui	t1,0x9d6e
bfc0096c:	3529b340 	ori	t1,t1,0xb340
bfc00970:	0109802b 	sltu	s0,t0,t1
bfc00974:	24120001 	li	s2,1
bfc00978:	161206a4 	bne	s0,s2,bfc0240c <inst_error>
bfc0097c:	00000000 	nop
bfc00980:	3c08ea86 	lui	t0,0xea86
bfc00984:	350811d8 	ori	t0,t0,0x11d8
bfc00988:	3c093b39 	lui	t1,0x3b39
bfc0098c:	352959e0 	ori	t1,t1,0x59e0
bfc00990:	0109802b 	sltu	s0,t0,t1
bfc00994:	24120000 	li	s2,0
bfc00998:	1612069c 	bne	s0,s2,bfc0240c <inst_error>
bfc0099c:	00000000 	nop
bfc009a0:	3c08b39b 	lui	t0,0xb39b
bfc009a4:	350806a0 	ori	t0,t0,0x6a0
bfc009a8:	3c09f071 	lui	t1,0xf071
bfc009ac:	352977bb 	ori	t1,t1,0x77bb
bfc009b0:	0109802b 	sltu	s0,t0,t1
bfc009b4:	24120001 	li	s2,1
bfc009b8:	16120694 	bne	s0,s2,bfc0240c <inst_error>
bfc009bc:	00000000 	nop
bfc009c0:	3c086509 	lui	t0,0x6509
bfc009c4:	35083c68 	ori	t0,t0,0x3c68
bfc009c8:	3c094814 	lui	t1,0x4814
bfc009cc:	3529318c 	ori	t1,t1,0x318c
bfc009d0:	0109802b 	sltu	s0,t0,t1
bfc009d4:	24120000 	li	s2,0
bfc009d8:	1612068c 	bne	s0,s2,bfc0240c <inst_error>
bfc009dc:	00000000 	nop
bfc009e0:	3c08d6ab 	lui	t0,0xd6ab
bfc009e4:	35089100 	ori	t0,t0,0x9100
bfc009e8:	3c09f078 	lui	t1,0xf078
bfc009ec:	35299a60 	ori	t1,t1,0x9a60
bfc009f0:	0109802b 	sltu	s0,t0,t1
bfc009f4:	24120001 	li	s2,1
bfc009f8:	16120684 	bne	s0,s2,bfc0240c <inst_error>
bfc009fc:	00000000 	nop
bfc00a00:	3c087b96 	lui	t0,0x7b96
bfc00a04:	3508aa28 	ori	t0,t0,0xaa28
bfc00a08:	3c09bbba 	lui	t1,0xbbba
bfc00a0c:	3529bca0 	ori	t1,t1,0xbca0
bfc00a10:	0109802b 	sltu	s0,t0,t1
bfc00a14:	24120001 	li	s2,1
bfc00a18:	1612067c 	bne	s0,s2,bfc0240c <inst_error>
bfc00a1c:	00000000 	nop
bfc00a20:	3c0877af 	lui	t0,0x77af
bfc00a24:	3508e110 	ori	t0,t0,0xe110
bfc00a28:	3c0933a2 	lui	t1,0x33a2
bfc00a2c:	35292745 	ori	t1,t1,0x2745
bfc00a30:	0109802b 	sltu	s0,t0,t1
bfc00a34:	24120000 	li	s2,0
bfc00a38:	16120674 	bne	s0,s2,bfc0240c <inst_error>
bfc00a3c:	00000000 	nop
bfc00a40:	3c08208b 	lui	t0,0x208b
bfc00a44:	350881f2 	ori	t0,t0,0x81f2
bfc00a48:	3c093561 	lui	t1,0x3561
bfc00a4c:	35299d76 	ori	t1,t1,0x9d76
bfc00a50:	0109802b 	sltu	s0,t0,t1
bfc00a54:	24120001 	li	s2,1
bfc00a58:	1612066c 	bne	s0,s2,bfc0240c <inst_error>
bfc00a5c:	00000000 	nop
bfc00a60:	3c08ead6 	lui	t0,0xead6
bfc00a64:	35088300 	ori	t0,t0,0x8300
bfc00a68:	3c091816 	lui	t1,0x1816
bfc00a6c:	352953b8 	ori	t1,t1,0x53b8
bfc00a70:	0109802b 	sltu	s0,t0,t1
bfc00a74:	24120000 	li	s2,0
bfc00a78:	16120664 	bne	s0,s2,bfc0240c <inst_error>
bfc00a7c:	00000000 	nop
bfc00a80:	3c08bf82 	lui	t0,0xbf82
bfc00a84:	35081bf8 	ori	t0,t0,0x1bf8
bfc00a88:	3c09dc76 	lui	t1,0xdc76
bfc00a8c:	3529614e 	ori	t1,t1,0x614e
bfc00a90:	0109802b 	sltu	s0,t0,t1
bfc00a94:	24120001 	li	s2,1
bfc00a98:	1612065c 	bne	s0,s2,bfc0240c <inst_error>
bfc00a9c:	00000000 	nop
bfc00aa0:	3c08a52a 	lui	t0,0xa52a
bfc00aa4:	35088900 	ori	t0,t0,0x8900
bfc00aa8:	3c09065f 	lui	t1,0x65f
bfc00aac:	3529c4ce 	ori	t1,t1,0xc4ce
bfc00ab0:	0109802b 	sltu	s0,t0,t1
bfc00ab4:	24120000 	li	s2,0
bfc00ab8:	16120654 	bne	s0,s2,bfc0240c <inst_error>
bfc00abc:	00000000 	nop
bfc00ac0:	3c089d76 	lui	t0,0x9d76
bfc00ac4:	3508e6c0 	ori	t0,t0,0xe6c0
bfc00ac8:	3c093d05 	lui	t1,0x3d05
bfc00acc:	35292180 	ori	t1,t1,0x2180
bfc00ad0:	0109802b 	sltu	s0,t0,t1
bfc00ad4:	24120000 	li	s2,0
bfc00ad8:	1612064c 	bne	s0,s2,bfc0240c <inst_error>
bfc00adc:	00000000 	nop
bfc00ae0:	3c08cb15 	lui	t0,0xcb15
bfc00ae4:	3508ab60 	ori	t0,t0,0xab60
bfc00ae8:	3c0904eb 	lui	t1,0x4eb
bfc00aec:	35291920 	ori	t1,t1,0x1920
bfc00af0:	0109802b 	sltu	s0,t0,t1
bfc00af4:	24120000 	li	s2,0
bfc00af8:	16120644 	bne	s0,s2,bfc0240c <inst_error>
bfc00afc:	00000000 	nop
bfc00b00:	3c086879 	lui	t0,0x6879
bfc00b04:	3508217e 	ori	t0,t0,0x217e
bfc00b08:	3c099024 	lui	t1,0x9024
bfc00b0c:	35297a50 	ori	t1,t1,0x7a50
bfc00b10:	0109802b 	sltu	s0,t0,t1
bfc00b14:	24120001 	li	s2,1
bfc00b18:	1612063c 	bne	s0,s2,bfc0240c <inst_error>
bfc00b1c:	00000000 	nop
bfc00b20:	3c08a356 	lui	t0,0xa356
bfc00b24:	3508f200 	ori	t0,t0,0xf200
bfc00b28:	3c090820 	lui	t1,0x820
bfc00b2c:	3529db10 	ori	t1,t1,0xdb10
bfc00b30:	0109802b 	sltu	s0,t0,t1
bfc00b34:	24120000 	li	s2,0
bfc00b38:	16120634 	bne	s0,s2,bfc0240c <inst_error>
bfc00b3c:	00000000 	nop
bfc00b40:	3c08693d 	lui	t0,0x693d
bfc00b44:	350832fc 	ori	t0,t0,0x32fc
bfc00b48:	3c093126 	lui	t1,0x3126
bfc00b4c:	3529c90d 	ori	t1,t1,0xc90d
bfc00b50:	0109802b 	sltu	s0,t0,t1
bfc00b54:	24120000 	li	s2,0
bfc00b58:	1612062c 	bne	s0,s2,bfc0240c <inst_error>
bfc00b5c:	00000000 	nop
bfc00b60:	3c08876a 	lui	t0,0x876a
bfc00b64:	350847c0 	ori	t0,t0,0x47c0
bfc00b68:	3c09788a 	lui	t1,0x788a
bfc00b6c:	352931cb 	ori	t1,t1,0x31cb
bfc00b70:	0109802b 	sltu	s0,t0,t1
bfc00b74:	24120000 	li	s2,0
bfc00b78:	16120624 	bne	s0,s2,bfc0240c <inst_error>
bfc00b7c:	00000000 	nop
bfc00b80:	3c08cad2 	lui	t0,0xcad2
bfc00b84:	3508dc6d 	ori	t0,t0,0xdc6d
bfc00b88:	3c09674f 	lui	t1,0x674f
bfc00b8c:	3529d43a 	ori	t1,t1,0xd43a
bfc00b90:	0109802b 	sltu	s0,t0,t1
bfc00b94:	24120000 	li	s2,0
bfc00b98:	1612061c 	bne	s0,s2,bfc0240c <inst_error>
bfc00b9c:	00000000 	nop
bfc00ba0:	3c088028 	lui	t0,0x8028
bfc00ba4:	3508f3f0 	ori	t0,t0,0xf3f0
bfc00ba8:	3c09be92 	lui	t1,0xbe92
bfc00bac:	35297870 	ori	t1,t1,0x7870
bfc00bb0:	0109802b 	sltu	s0,t0,t1
bfc00bb4:	24120001 	li	s2,1
bfc00bb8:	16120614 	bne	s0,s2,bfc0240c <inst_error>
bfc00bbc:	00000000 	nop
bfc00bc0:	3c08db98 	lui	t0,0xdb98
bfc00bc4:	35082660 	ori	t0,t0,0x2660
bfc00bc8:	3c0955af 	lui	t1,0x55af
bfc00bcc:	35296136 	ori	t1,t1,0x6136
bfc00bd0:	0109802b 	sltu	s0,t0,t1
bfc00bd4:	24120000 	li	s2,0
bfc00bd8:	1612060c 	bne	s0,s2,bfc0240c <inst_error>
bfc00bdc:	00000000 	nop
bfc00be0:	3c088378 	lui	t0,0x8378
bfc00be4:	3508f1a9 	ori	t0,t0,0xf1a9
bfc00be8:	3c0942e0 	lui	t1,0x42e0
bfc00bec:	35290b48 	ori	t1,t1,0xb48
bfc00bf0:	0109802b 	sltu	s0,t0,t1
bfc00bf4:	24120000 	li	s2,0
bfc00bf8:	16120604 	bne	s0,s2,bfc0240c <inst_error>
bfc00bfc:	00000000 	nop
bfc00c00:	3c0836d9 	lui	t0,0x36d9
bfc00c04:	3508ec05 	ori	t0,t0,0xec05
bfc00c08:	3c091296 	lui	t1,0x1296
bfc00c0c:	352974c6 	ori	t1,t1,0x74c6
bfc00c10:	0109802b 	sltu	s0,t0,t1
bfc00c14:	24120000 	li	s2,0
bfc00c18:	161205fc 	bne	s0,s2,bfc0240c <inst_error>
bfc00c1c:	00000000 	nop
bfc00c20:	3c08d44f 	lui	t0,0xd44f
bfc00c24:	3508c694 	ori	t0,t0,0xc694
bfc00c28:	3c0914bb 	lui	t1,0x14bb
bfc00c2c:	35299f40 	ori	t1,t1,0x9f40
bfc00c30:	0109802b 	sltu	s0,t0,t1
bfc00c34:	24120000 	li	s2,0
bfc00c38:	161205f4 	bne	s0,s2,bfc0240c <inst_error>
bfc00c3c:	00000000 	nop
bfc00c40:	3c08dda5 	lui	t0,0xdda5
bfc00c44:	350878d8 	ori	t0,t0,0x78d8
bfc00c48:	3c094c9e 	lui	t1,0x4c9e
bfc00c4c:	35292340 	ori	t1,t1,0x2340
bfc00c50:	0109802b 	sltu	s0,t0,t1
bfc00c54:	24120000 	li	s2,0
bfc00c58:	161205ec 	bne	s0,s2,bfc0240c <inst_error>
bfc00c5c:	00000000 	nop
bfc00c60:	3c08b360 	lui	t0,0xb360
bfc00c64:	3508ef10 	ori	t0,t0,0xef10
bfc00c68:	3c09ee7b 	lui	t1,0xee7b
bfc00c6c:	3529afcc 	ori	t1,t1,0xafcc
bfc00c70:	0109802b 	sltu	s0,t0,t1
bfc00c74:	24120001 	li	s2,1
bfc00c78:	161205e4 	bne	s0,s2,bfc0240c <inst_error>
bfc00c7c:	00000000 	nop
bfc00c80:	3c08ce2d 	lui	t0,0xce2d
bfc00c84:	35087fba 	ori	t0,t0,0x7fba
bfc00c88:	3c0958e2 	lui	t1,0x58e2
bfc00c8c:	3529d7e3 	ori	t1,t1,0xd7e3
bfc00c90:	0109802b 	sltu	s0,t0,t1
bfc00c94:	24120000 	li	s2,0
bfc00c98:	161205dc 	bne	s0,s2,bfc0240c <inst_error>
bfc00c9c:	00000000 	nop
bfc00ca0:	3c083c8a 	lui	t0,0x3c8a
bfc00ca4:	35087f80 	ori	t0,t0,0x7f80
bfc00ca8:	3c090d32 	lui	t1,0xd32
bfc00cac:	35295cc0 	ori	t1,t1,0x5cc0
bfc00cb0:	0109802b 	sltu	s0,t0,t1
bfc00cb4:	24120000 	li	s2,0
bfc00cb8:	161205d4 	bne	s0,s2,bfc0240c <inst_error>
bfc00cbc:	00000000 	nop
bfc00cc0:	3c0833fd 	lui	t0,0x33fd
bfc00cc4:	35089e80 	ori	t0,t0,0x9e80
bfc00cc8:	3c092923 	lui	t1,0x2923
bfc00ccc:	35291300 	ori	t1,t1,0x1300
bfc00cd0:	0109802b 	sltu	s0,t0,t1
bfc00cd4:	24120000 	li	s2,0
bfc00cd8:	161205cc 	bne	s0,s2,bfc0240c <inst_error>
bfc00cdc:	00000000 	nop
bfc00ce0:	3c08e55b 	lui	t0,0xe55b
bfc00ce4:	35082fe4 	ori	t0,t0,0x2fe4
bfc00ce8:	3c092601 	lui	t1,0x2601
bfc00cec:	3529575f 	ori	t1,t1,0x575f
bfc00cf0:	0109802b 	sltu	s0,t0,t1
bfc00cf4:	24120000 	li	s2,0
bfc00cf8:	161205c4 	bne	s0,s2,bfc0240c <inst_error>
bfc00cfc:	00000000 	nop
bfc00d00:	3c084fc1 	lui	t0,0x4fc1
bfc00d04:	3508b6c0 	ori	t0,t0,0xb6c0
bfc00d08:	3c092950 	lui	t1,0x2950
bfc00d0c:	35297db6 	ori	t1,t1,0x7db6
bfc00d10:	0109802b 	sltu	s0,t0,t1
bfc00d14:	24120000 	li	s2,0
bfc00d18:	161205bc 	bne	s0,s2,bfc0240c <inst_error>
bfc00d1c:	00000000 	nop
bfc00d20:	3c08fb6a 	lui	t0,0xfb6a
bfc00d24:	35083f1c 	ori	t0,t0,0x3f1c
bfc00d28:	3c09af11 	lui	t1,0xaf11
bfc00d2c:	35297150 	ori	t1,t1,0x7150
bfc00d30:	0109802b 	sltu	s0,t0,t1
bfc00d34:	24120000 	li	s2,0
bfc00d38:	161205b4 	bne	s0,s2,bfc0240c <inst_error>
bfc00d3c:	00000000 	nop
bfc00d40:	3c08becd 	lui	t0,0xbecd
bfc00d44:	350881c0 	ori	t0,t0,0x81c0
bfc00d48:	3c0917c4 	lui	t1,0x17c4
bfc00d4c:	35299cc0 	ori	t1,t1,0x9cc0
bfc00d50:	0109802b 	sltu	s0,t0,t1
bfc00d54:	24120000 	li	s2,0
bfc00d58:	161205ac 	bne	s0,s2,bfc0240c <inst_error>
bfc00d5c:	00000000 	nop
bfc00d60:	3c08fea3 	lui	t0,0xfea3
bfc00d64:	3508fd88 	ori	t0,t0,0xfd88
bfc00d68:	3c097fc8 	lui	t1,0x7fc8
bfc00d6c:	3529cbc0 	ori	t1,t1,0xcbc0
bfc00d70:	0109802b 	sltu	s0,t0,t1
bfc00d74:	24120000 	li	s2,0
bfc00d78:	161205a4 	bne	s0,s2,bfc0240c <inst_error>
bfc00d7c:	00000000 	nop
bfc00d80:	3c08025e 	lui	t0,0x25e
bfc00d84:	350881c0 	ori	t0,t0,0x81c0
bfc00d88:	3c093fb2 	lui	t1,0x3fb2
bfc00d8c:	35294e80 	ori	t1,t1,0x4e80
bfc00d90:	0109802b 	sltu	s0,t0,t1
bfc00d94:	24120001 	li	s2,1
bfc00d98:	1612059c 	bne	s0,s2,bfc0240c <inst_error>
bfc00d9c:	00000000 	nop
bfc00da0:	3c08f150 	lui	t0,0xf150
bfc00da4:	35086600 	ori	t0,t0,0x6600
bfc00da8:	3c09b07d 	lui	t1,0xb07d
bfc00dac:	3529acb6 	ori	t1,t1,0xacb6
bfc00db0:	0109802b 	sltu	s0,t0,t1
bfc00db4:	24120000 	li	s2,0
bfc00db8:	16120594 	bne	s0,s2,bfc0240c <inst_error>
bfc00dbc:	00000000 	nop
bfc00dc0:	3c089328 	lui	t0,0x9328
bfc00dc4:	35088bc0 	ori	t0,t0,0x8bc0
bfc00dc8:	3c09eb6e 	lui	t1,0xeb6e
bfc00dcc:	3529ff0e 	ori	t1,t1,0xff0e
bfc00dd0:	0109802b 	sltu	s0,t0,t1
bfc00dd4:	24120001 	li	s2,1
bfc00dd8:	1612058c 	bne	s0,s2,bfc0240c <inst_error>
bfc00ddc:	00000000 	nop
bfc00de0:	3c083a57 	lui	t0,0x3a57
bfc00de4:	3508cd20 	ori	t0,t0,0xcd20
bfc00de8:	3c098961 	lui	t1,0x8961
bfc00dec:	35296d40 	ori	t1,t1,0x6d40
bfc00df0:	0109802b 	sltu	s0,t0,t1
bfc00df4:	24120001 	li	s2,1
bfc00df8:	16120584 	bne	s0,s2,bfc0240c <inst_error>
bfc00dfc:	00000000 	nop
bfc00e00:	3c08076b 	lui	t0,0x76b
bfc00e04:	35088c44 	ori	t0,t0,0x8c44
bfc00e08:	3c097759 	lui	t1,0x7759
bfc00e0c:	3529de58 	ori	t1,t1,0xde58
bfc00e10:	0109802b 	sltu	s0,t0,t1
bfc00e14:	24120001 	li	s2,1
bfc00e18:	1612057c 	bne	s0,s2,bfc0240c <inst_error>
bfc00e1c:	00000000 	nop
bfc00e20:	3c089233 	lui	t0,0x9233
bfc00e24:	35087a66 	ori	t0,t0,0x7a66
bfc00e28:	3c098c11 	lui	t1,0x8c11
bfc00e2c:	35297ce4 	ori	t1,t1,0x7ce4
bfc00e30:	0109802b 	sltu	s0,t0,t1
bfc00e34:	24120000 	li	s2,0
bfc00e38:	16120574 	bne	s0,s2,bfc0240c <inst_error>
bfc00e3c:	00000000 	nop
bfc00e40:	3c08947b 	lui	t0,0x947b
bfc00e44:	35084a90 	ori	t0,t0,0x4a90
bfc00e48:	3c09566d 	lui	t1,0x566d
bfc00e4c:	352927b8 	ori	t1,t1,0x27b8
bfc00e50:	0109802b 	sltu	s0,t0,t1
bfc00e54:	24120000 	li	s2,0
bfc00e58:	1612056c 	bne	s0,s2,bfc0240c <inst_error>
bfc00e5c:	00000000 	nop
bfc00e60:	3c08237a 	lui	t0,0x237a
bfc00e64:	3508e908 	ori	t0,t0,0xe908
bfc00e68:	3c0900a7 	lui	t1,0xa7
bfc00e6c:	3529d162 	ori	t1,t1,0xd162
bfc00e70:	0109802b 	sltu	s0,t0,t1
bfc00e74:	24120000 	li	s2,0
bfc00e78:	16120564 	bne	s0,s2,bfc0240c <inst_error>
bfc00e7c:	00000000 	nop
bfc00e80:	3c086800 	lui	t0,0x6800
bfc00e84:	35088182 	ori	t0,t0,0x8182
bfc00e88:	3c095b20 	lui	t1,0x5b20
bfc00e8c:	35291f98 	ori	t1,t1,0x1f98
bfc00e90:	0109802b 	sltu	s0,t0,t1
bfc00e94:	24120000 	li	s2,0
bfc00e98:	1612055c 	bne	s0,s2,bfc0240c <inst_error>
bfc00e9c:	00000000 	nop
bfc00ea0:	3c089a2c 	lui	t0,0x9a2c
bfc00ea4:	35080998 	ori	t0,t0,0x998
bfc00ea8:	3c093a80 	lui	t1,0x3a80
bfc00eac:	35294898 	ori	t1,t1,0x4898
bfc00eb0:	0109802b 	sltu	s0,t0,t1
bfc00eb4:	24120000 	li	s2,0
bfc00eb8:	16120554 	bne	s0,s2,bfc0240c <inst_error>
bfc00ebc:	00000000 	nop
bfc00ec0:	3c082139 	lui	t0,0x2139
bfc00ec4:	35083334 	ori	t0,t0,0x3334
bfc00ec8:	3c09042d 	lui	t1,0x42d
bfc00ecc:	3529594c 	ori	t1,t1,0x594c
bfc00ed0:	0109802b 	sltu	s0,t0,t1
bfc00ed4:	24120000 	li	s2,0
bfc00ed8:	1612054c 	bne	s0,s2,bfc0240c <inst_error>
bfc00edc:	00000000 	nop
bfc00ee0:	3c083120 	lui	t0,0x3120
bfc00ee4:	35088762 	ori	t0,t0,0x8762
bfc00ee8:	3c09f913 	lui	t1,0xf913
bfc00eec:	35298678 	ori	t1,t1,0x8678
bfc00ef0:	0109802b 	sltu	s0,t0,t1
bfc00ef4:	24120001 	li	s2,1
bfc00ef8:	16120544 	bne	s0,s2,bfc0240c <inst_error>
bfc00efc:	00000000 	nop
bfc00f00:	3c0841bb 	lui	t0,0x41bb
bfc00f04:	35083000 	ori	t0,t0,0x3000
bfc00f08:	3c09f03d 	lui	t1,0xf03d
bfc00f0c:	352955e1 	ori	t1,t1,0x55e1
bfc00f10:	0109802b 	sltu	s0,t0,t1
bfc00f14:	24120001 	li	s2,1
bfc00f18:	1612053c 	bne	s0,s2,bfc0240c <inst_error>
bfc00f1c:	00000000 	nop
bfc00f20:	3c0863b3 	lui	t0,0x63b3
bfc00f24:	35089e32 	ori	t0,t0,0x9e32
bfc00f28:	3c09660b 	lui	t1,0x660b
bfc00f2c:	35298d99 	ori	t1,t1,0x8d99
bfc00f30:	0109802b 	sltu	s0,t0,t1
bfc00f34:	24120001 	li	s2,1
bfc00f38:	16120534 	bne	s0,s2,bfc0240c <inst_error>
bfc00f3c:	00000000 	nop
bfc00f40:	3c089fb0 	lui	t0,0x9fb0
bfc00f44:	35088c21 	ori	t0,t0,0x8c21
bfc00f48:	3c095dc6 	lui	t1,0x5dc6
bfc00f4c:	352911f0 	ori	t1,t1,0x11f0
bfc00f50:	0109802b 	sltu	s0,t0,t1
bfc00f54:	24120000 	li	s2,0
bfc00f58:	1612052c 	bne	s0,s2,bfc0240c <inst_error>
bfc00f5c:	00000000 	nop
bfc00f60:	3c08c13a 	lui	t0,0xc13a
bfc00f64:	350831f0 	ori	t0,t0,0x31f0
bfc00f68:	3c09b8b5 	lui	t1,0xb8b5
bfc00f6c:	3529325a 	ori	t1,t1,0x325a
bfc00f70:	0109802b 	sltu	s0,t0,t1
bfc00f74:	24120000 	li	s2,0
bfc00f78:	16120524 	bne	s0,s2,bfc0240c <inst_error>
bfc00f7c:	00000000 	nop
bfc00f80:	3c0827e4 	lui	t0,0x27e4
bfc00f84:	3508a93e 	ori	t0,t0,0xa93e
bfc00f88:	3c099a3d 	lui	t1,0x9a3d
bfc00f8c:	35295f02 	ori	t1,t1,0x5f02
bfc00f90:	0109802b 	sltu	s0,t0,t1
bfc00f94:	24120001 	li	s2,1
bfc00f98:	1612051c 	bne	s0,s2,bfc0240c <inst_error>
bfc00f9c:	00000000 	nop
bfc00fa0:	3c084119 	lui	t0,0x4119
bfc00fa4:	35083ba0 	ori	t0,t0,0x3ba0
bfc00fa8:	3c097181 	lui	t1,0x7181
bfc00fac:	352969f0 	ori	t1,t1,0x69f0
bfc00fb0:	0109802b 	sltu	s0,t0,t1
bfc00fb4:	24120001 	li	s2,1
bfc00fb8:	16120514 	bne	s0,s2,bfc0240c <inst_error>
bfc00fbc:	00000000 	nop
bfc00fc0:	3c0824d4 	lui	t0,0x24d4
bfc00fc4:	35084f40 	ori	t0,t0,0x4f40
bfc00fc8:	3c09aac2 	lui	t1,0xaac2
bfc00fcc:	35296990 	ori	t1,t1,0x6990
bfc00fd0:	0109802b 	sltu	s0,t0,t1
bfc00fd4:	24120001 	li	s2,1
bfc00fd8:	1612050c 	bne	s0,s2,bfc0240c <inst_error>
bfc00fdc:	00000000 	nop
bfc00fe0:	3c086020 	lui	t0,0x6020
bfc00fe4:	350850b8 	ori	t0,t0,0x50b8
bfc00fe8:	3c097ad0 	lui	t1,0x7ad0
bfc00fec:	35291608 	ori	t1,t1,0x1608
bfc00ff0:	0109802b 	sltu	s0,t0,t1
bfc00ff4:	24120001 	li	s2,1
bfc00ff8:	16120504 	bne	s0,s2,bfc0240c <inst_error>
bfc00ffc:	00000000 	nop
bfc01000:	3c082182 	lui	t0,0x2182
bfc01004:	35081644 	ori	t0,t0,0x1644
bfc01008:	3c09bf63 	lui	t1,0xbf63
bfc0100c:	35293f70 	ori	t1,t1,0x3f70
bfc01010:	0109802b 	sltu	s0,t0,t1
bfc01014:	24120001 	li	s2,1
bfc01018:	161204fc 	bne	s0,s2,bfc0240c <inst_error>
bfc0101c:	00000000 	nop
bfc01020:	3c081832 	lui	t0,0x1832
bfc01024:	350868bf 	ori	t0,t0,0x68bf
bfc01028:	3c09da0f 	lui	t1,0xda0f
bfc0102c:	3529ad1c 	ori	t1,t1,0xad1c
bfc01030:	0109802b 	sltu	s0,t0,t1
bfc01034:	24120001 	li	s2,1
bfc01038:	161204f4 	bne	s0,s2,bfc0240c <inst_error>
bfc0103c:	00000000 	nop
bfc01040:	3c0897af 	lui	t0,0x97af
bfc01044:	35084180 	ori	t0,t0,0x4180
bfc01048:	3c09b77b 	lui	t1,0xb77b
bfc0104c:	352951da 	ori	t1,t1,0x51da
bfc01050:	0109802b 	sltu	s0,t0,t1
bfc01054:	24120001 	li	s2,1
bfc01058:	161204ec 	bne	s0,s2,bfc0240c <inst_error>
bfc0105c:	00000000 	nop
bfc01060:	3c087239 	lui	t0,0x7239
bfc01064:	3508a4fb 	ori	t0,t0,0xa4fb
bfc01068:	3c0904f0 	lui	t1,0x4f0
bfc0106c:	352926da 	ori	t1,t1,0x26da
bfc01070:	0109802b 	sltu	s0,t0,t1
bfc01074:	24120000 	li	s2,0
bfc01078:	161204e4 	bne	s0,s2,bfc0240c <inst_error>
bfc0107c:	00000000 	nop
bfc01080:	3c084113 	lui	t0,0x4113
bfc01084:	3508f292 	ori	t0,t0,0xf292
bfc01088:	3c091716 	lui	t1,0x1716
bfc0108c:	35298180 	ori	t1,t1,0x8180
bfc01090:	0109802b 	sltu	s0,t0,t1
bfc01094:	24120000 	li	s2,0
bfc01098:	161204dc 	bne	s0,s2,bfc0240c <inst_error>
bfc0109c:	00000000 	nop
bfc010a0:	3c08ec1f 	lui	t0,0xec1f
bfc010a4:	35082d5a 	ori	t0,t0,0x2d5a
bfc010a8:	3c091f2b 	lui	t1,0x1f2b
bfc010ac:	35298827 	ori	t1,t1,0x8827
bfc010b0:	0109802b 	sltu	s0,t0,t1
bfc010b4:	24120000 	li	s2,0
bfc010b8:	161204d4 	bne	s0,s2,bfc0240c <inst_error>
bfc010bc:	00000000 	nop
bfc010c0:	3c089136 	lui	t0,0x9136
bfc010c4:	35087184 	ori	t0,t0,0x7184
bfc010c8:	3c09ecb5 	lui	t1,0xecb5
bfc010cc:	3529c188 	ori	t1,t1,0xc188
bfc010d0:	0109802b 	sltu	s0,t0,t1
bfc010d4:	24120001 	li	s2,1
bfc010d8:	161204cc 	bne	s0,s2,bfc0240c <inst_error>
bfc010dc:	00000000 	nop
bfc010e0:	3c08d193 	lui	t0,0xd193
bfc010e4:	3508dcf8 	ori	t0,t0,0xdcf8
bfc010e8:	3c095295 	lui	t1,0x5295
bfc010ec:	35294f2c 	ori	t1,t1,0x4f2c
bfc010f0:	0109802b 	sltu	s0,t0,t1
bfc010f4:	24120000 	li	s2,0
bfc010f8:	161204c4 	bne	s0,s2,bfc0240c <inst_error>
bfc010fc:	00000000 	nop
bfc01100:	3c08d5fc 	lui	t0,0xd5fc
bfc01104:	3508aa70 	ori	t0,t0,0xaa70
bfc01108:	3c09230c 	lui	t1,0x230c
bfc0110c:	3529e6d8 	ori	t1,t1,0xe6d8
bfc01110:	0109802b 	sltu	s0,t0,t1
bfc01114:	24120000 	li	s2,0
bfc01118:	161204bc 	bne	s0,s2,bfc0240c <inst_error>
bfc0111c:	00000000 	nop
bfc01120:	3c083d55 	lui	t0,0x3d55
bfc01124:	350842e0 	ori	t0,t0,0x42e0
bfc01128:	3c094db4 	lui	t1,0x4db4
bfc0112c:	3529a06c 	ori	t1,t1,0xa06c
bfc01130:	0109802b 	sltu	s0,t0,t1
bfc01134:	24120001 	li	s2,1
bfc01138:	161204b4 	bne	s0,s2,bfc0240c <inst_error>
bfc0113c:	00000000 	nop
bfc01140:	3c08c48a 	lui	t0,0xc48a
bfc01144:	35088384 	ori	t0,t0,0x8384
bfc01148:	3c0927bb 	lui	t1,0x27bb
bfc0114c:	35291400 	ori	t1,t1,0x1400
bfc01150:	0109802b 	sltu	s0,t0,t1
bfc01154:	24120000 	li	s2,0
bfc01158:	161204ac 	bne	s0,s2,bfc0240c <inst_error>
bfc0115c:	00000000 	nop
bfc01160:	3c08699a 	lui	t0,0x699a
bfc01164:	35080fbe 	ori	t0,t0,0xfbe
bfc01168:	3c09c9db 	lui	t1,0xc9db
bfc0116c:	3529064f 	ori	t1,t1,0x64f
bfc01170:	0109802b 	sltu	s0,t0,t1
bfc01174:	24120001 	li	s2,1
bfc01178:	161204a4 	bne	s0,s2,bfc0240c <inst_error>
bfc0117c:	00000000 	nop
bfc01180:	3c084de2 	lui	t0,0x4de2
bfc01184:	35085b05 	ori	t0,t0,0x5b05
bfc01188:	3c09b49a 	lui	t1,0xb49a
bfc0118c:	35298509 	ori	t1,t1,0x8509
bfc01190:	0109802b 	sltu	s0,t0,t1
bfc01194:	24120001 	li	s2,1
bfc01198:	1612049c 	bne	s0,s2,bfc0240c <inst_error>
bfc0119c:	00000000 	nop
bfc011a0:	3c084473 	lui	t0,0x4473
bfc011a4:	3508e1bb 	ori	t0,t0,0xe1bb
bfc011a8:	3c09dd31 	lui	t1,0xdd31
bfc011ac:	35299dcf 	ori	t1,t1,0x9dcf
bfc011b0:	0109802b 	sltu	s0,t0,t1
bfc011b4:	24120001 	li	s2,1
bfc011b8:	16120494 	bne	s0,s2,bfc0240c <inst_error>
bfc011bc:	00000000 	nop
bfc011c0:	3c0805ad 	lui	t0,0x5ad
bfc011c4:	35082174 	ori	t0,t0,0x2174
bfc011c8:	3c09f14d 	lui	t1,0xf14d
bfc011cc:	3529ce78 	ori	t1,t1,0xce78
bfc011d0:	0109802b 	sltu	s0,t0,t1
bfc011d4:	24120001 	li	s2,1
bfc011d8:	1612048c 	bne	s0,s2,bfc0240c <inst_error>
bfc011dc:	00000000 	nop
bfc011e0:	3c08e1bb 	lui	t0,0xe1bb
bfc011e4:	3508fc33 	ori	t0,t0,0xfc33
bfc011e8:	3c092f20 	lui	t1,0x2f20
bfc011ec:	352986a0 	ori	t1,t1,0x86a0
bfc011f0:	0109802b 	sltu	s0,t0,t1
bfc011f4:	24120000 	li	s2,0
bfc011f8:	16120484 	bne	s0,s2,bfc0240c <inst_error>
bfc011fc:	00000000 	nop
bfc01200:	3c084fe2 	lui	t0,0x4fe2
bfc01204:	350814d0 	ori	t0,t0,0x14d0
bfc01208:	3c092265 	lui	t1,0x2265
bfc0120c:	3529b254 	ori	t1,t1,0xb254
bfc01210:	0109802b 	sltu	s0,t0,t1
bfc01214:	24120000 	li	s2,0
bfc01218:	1612047c 	bne	s0,s2,bfc0240c <inst_error>
bfc0121c:	00000000 	nop
bfc01220:	3c08cea0 	lui	t0,0xcea0
bfc01224:	350856ac 	ori	t0,t0,0x56ac
bfc01228:	3c0913f6 	lui	t1,0x13f6
bfc0122c:	3529c0c0 	ori	t1,t1,0xc0c0
bfc01230:	0109802b 	sltu	s0,t0,t1
bfc01234:	24120000 	li	s2,0
bfc01238:	16120474 	bne	s0,s2,bfc0240c <inst_error>
bfc0123c:	00000000 	nop
bfc01240:	3c08d545 	lui	t0,0xd545
bfc01244:	3508aa5e 	ori	t0,t0,0xaa5e
bfc01248:	3c095eb4 	lui	t1,0x5eb4
bfc0124c:	3529fc1a 	ori	t1,t1,0xfc1a
bfc01250:	0109802b 	sltu	s0,t0,t1
bfc01254:	24120000 	li	s2,0
bfc01258:	1612046c 	bne	s0,s2,bfc0240c <inst_error>
bfc0125c:	00000000 	nop
bfc01260:	3c08b80f 	lui	t0,0xb80f
bfc01264:	35080f3a 	ori	t0,t0,0xf3a
bfc01268:	3c095af2 	lui	t1,0x5af2
bfc0126c:	352942ba 	ori	t1,t1,0x42ba
bfc01270:	0109802b 	sltu	s0,t0,t1
bfc01274:	24120000 	li	s2,0
bfc01278:	16120464 	bne	s0,s2,bfc0240c <inst_error>
bfc0127c:	00000000 	nop
bfc01280:	3c08076f 	lui	t0,0x76f
bfc01284:	3508c4db 	ori	t0,t0,0xc4db
bfc01288:	3c094fc5 	lui	t1,0x4fc5
bfc0128c:	35299e2a 	ori	t1,t1,0x9e2a
bfc01290:	0109802b 	sltu	s0,t0,t1
bfc01294:	24120001 	li	s2,1
bfc01298:	1612045c 	bne	s0,s2,bfc0240c <inst_error>
bfc0129c:	00000000 	nop
bfc012a0:	3c086271 	lui	t0,0x6271
bfc012a4:	3508cbac 	ori	t0,t0,0xcbac
bfc012a8:	3c09e940 	lui	t1,0xe940
bfc012ac:	35296d5e 	ori	t1,t1,0x6d5e
bfc012b0:	0109802b 	sltu	s0,t0,t1
bfc012b4:	24120001 	li	s2,1
bfc012b8:	16120454 	bne	s0,s2,bfc0240c <inst_error>
bfc012bc:	00000000 	nop
bfc012c0:	3c08d733 	lui	t0,0xd733
bfc012c4:	35081578 	ori	t0,t0,0x1578
bfc012c8:	3c099d39 	lui	t1,0x9d39
bfc012cc:	3529d4f0 	ori	t1,t1,0xd4f0
bfc012d0:	0109802b 	sltu	s0,t0,t1
bfc012d4:	24120000 	li	s2,0
bfc012d8:	1612044c 	bne	s0,s2,bfc0240c <inst_error>
bfc012dc:	00000000 	nop
bfc012e0:	3c086689 	lui	t0,0x6689
bfc012e4:	3508f1e8 	ori	t0,t0,0xf1e8
bfc012e8:	3c098305 	lui	t1,0x8305
bfc012ec:	352949ec 	ori	t1,t1,0x49ec
bfc012f0:	0109802b 	sltu	s0,t0,t1
bfc012f4:	24120001 	li	s2,1
bfc012f8:	16120444 	bne	s0,s2,bfc0240c <inst_error>
bfc012fc:	00000000 	nop
bfc01300:	3c08dd0d 	lui	t0,0xdd0d
bfc01304:	3508b690 	ori	t0,t0,0xb690
bfc01308:	3c09a412 	lui	t1,0xa412
bfc0130c:	35292620 	ori	t1,t1,0x2620
bfc01310:	0109802b 	sltu	s0,t0,t1
bfc01314:	24120000 	li	s2,0
bfc01318:	1612043c 	bne	s0,s2,bfc0240c <inst_error>
bfc0131c:	00000000 	nop
bfc01320:	3c08ebe8 	lui	t0,0xebe8
bfc01324:	35083100 	ori	t0,t0,0x3100
bfc01328:	3c0948d9 	lui	t1,0x48d9
bfc0132c:	3529c13d 	ori	t1,t1,0xc13d
bfc01330:	0109802b 	sltu	s0,t0,t1
bfc01334:	24120000 	li	s2,0
bfc01338:	16120434 	bne	s0,s2,bfc0240c <inst_error>
bfc0133c:	00000000 	nop
bfc01340:	3c0822a6 	lui	t0,0x22a6
bfc01344:	35086280 	ori	t0,t0,0x6280
bfc01348:	3c09c05e 	lui	t1,0xc05e
bfc0134c:	35298e00 	ori	t1,t1,0x8e00
bfc01350:	0109802b 	sltu	s0,t0,t1
bfc01354:	24120001 	li	s2,1
bfc01358:	1612042c 	bne	s0,s2,bfc0240c <inst_error>
bfc0135c:	00000000 	nop
bfc01360:	3c089138 	lui	t0,0x9138
bfc01364:	3508d8e8 	ori	t0,t0,0xd8e8
bfc01368:	3c09109f 	lui	t1,0x109f
bfc0136c:	352946c2 	ori	t1,t1,0x46c2
bfc01370:	0109802b 	sltu	s0,t0,t1
bfc01374:	24120000 	li	s2,0
bfc01378:	16120424 	bne	s0,s2,bfc0240c <inst_error>
bfc0137c:	00000000 	nop
bfc01380:	3c08f8fd 	lui	t0,0xf8fd
bfc01384:	3508433f 	ori	t0,t0,0x433f
bfc01388:	3c09bc08 	lui	t1,0xbc08
bfc0138c:	3529c128 	ori	t1,t1,0xc128
bfc01390:	0109802b 	sltu	s0,t0,t1
bfc01394:	24120000 	li	s2,0
bfc01398:	1612041c 	bne	s0,s2,bfc0240c <inst_error>
bfc0139c:	00000000 	nop
bfc013a0:	3c0806f4 	lui	t0,0x6f4
bfc013a4:	350881f0 	ori	t0,t0,0x81f0
bfc013a8:	3c098ccd 	lui	t1,0x8ccd
bfc013ac:	3529d828 	ori	t1,t1,0xd828
bfc013b0:	0109802b 	sltu	s0,t0,t1
bfc013b4:	24120001 	li	s2,1
bfc013b8:	16120414 	bne	s0,s2,bfc0240c <inst_error>
bfc013bc:	00000000 	nop
bfc013c0:	3c0821d5 	lui	t0,0x21d5
bfc013c4:	3508ea2f 	ori	t0,t0,0xea2f
bfc013c8:	3c099688 	lui	t1,0x9688
bfc013cc:	35298da5 	ori	t1,t1,0x8da5
bfc013d0:	0109802b 	sltu	s0,t0,t1
bfc013d4:	24120001 	li	s2,1
bfc013d8:	1612040c 	bne	s0,s2,bfc0240c <inst_error>
bfc013dc:	00000000 	nop
bfc013e0:	3c080fa1 	lui	t0,0xfa1
bfc013e4:	3508f028 	ori	t0,t0,0xf028
bfc013e8:	3c094d8b 	lui	t1,0x4d8b
bfc013ec:	35294912 	ori	t1,t1,0x4912
bfc013f0:	0109802b 	sltu	s0,t0,t1
bfc013f4:	24120001 	li	s2,1
bfc013f8:	16120404 	bne	s0,s2,bfc0240c <inst_error>
bfc013fc:	00000000 	nop
bfc01400:	3c08f72d 	lui	t0,0xf72d
bfc01404:	35087340 	ori	t0,t0,0x7340
bfc01408:	3c0983f4 	lui	t1,0x83f4
bfc0140c:	3529b638 	ori	t1,t1,0xb638
bfc01410:	0109802b 	sltu	s0,t0,t1
bfc01414:	24120000 	li	s2,0
bfc01418:	161203fc 	bne	s0,s2,bfc0240c <inst_error>
bfc0141c:	00000000 	nop
bfc01420:	3c083dde 	lui	t0,0x3dde
bfc01424:	35081600 	ori	t0,t0,0x1600
bfc01428:	3c09b8b2 	lui	t1,0xb8b2
bfc0142c:	3529ca58 	ori	t1,t1,0xca58
bfc01430:	0109802b 	sltu	s0,t0,t1
bfc01434:	24120001 	li	s2,1
bfc01438:	161203f4 	bne	s0,s2,bfc0240c <inst_error>
bfc0143c:	00000000 	nop
bfc01440:	3c08b38e 	lui	t0,0xb38e
bfc01444:	3508d2fc 	ori	t0,t0,0xd2fc
bfc01448:	3c097c49 	lui	t1,0x7c49
bfc0144c:	35293240 	ori	t1,t1,0x3240
bfc01450:	0109802b 	sltu	s0,t0,t1
bfc01454:	24120000 	li	s2,0
bfc01458:	161203ec 	bne	s0,s2,bfc0240c <inst_error>
bfc0145c:	00000000 	nop
bfc01460:	3c088483 	lui	t0,0x8483
bfc01464:	35084e0c 	ori	t0,t0,0x4e0c
bfc01468:	3c09ef63 	lui	t1,0xef63
bfc0146c:	35296abb 	ori	t1,t1,0x6abb
bfc01470:	0109802b 	sltu	s0,t0,t1
bfc01474:	24120001 	li	s2,1
bfc01478:	161203e4 	bne	s0,s2,bfc0240c <inst_error>
bfc0147c:	00000000 	nop
bfc01480:	3c0883e4 	lui	t0,0x83e4
bfc01484:	3508a882 	ori	t0,t0,0xa882
bfc01488:	3c09d49d 	lui	t1,0xd49d
bfc0148c:	35290fa0 	ori	t1,t1,0xfa0
bfc01490:	0109802b 	sltu	s0,t0,t1
bfc01494:	24120001 	li	s2,1
bfc01498:	161203dc 	bne	s0,s2,bfc0240c <inst_error>
bfc0149c:	00000000 	nop
bfc014a0:	3c0810ed 	lui	t0,0x10ed
bfc014a4:	35087a38 	ori	t0,t0,0x7a38
bfc014a8:	3c093fbe 	lui	t1,0x3fbe
bfc014ac:	3529aaca 	ori	t1,t1,0xaaca
bfc014b0:	0109802b 	sltu	s0,t0,t1
bfc014b4:	24120001 	li	s2,1
bfc014b8:	161203d4 	bne	s0,s2,bfc0240c <inst_error>
bfc014bc:	00000000 	nop
bfc014c0:	3c08cca8 	lui	t0,0xcca8
bfc014c4:	3508a845 	ori	t0,t0,0xa845
bfc014c8:	3c09acca 	lui	t1,0xacca
bfc014cc:	3529b9b0 	ori	t1,t1,0xb9b0
bfc014d0:	0109802b 	sltu	s0,t0,t1
bfc014d4:	24120000 	li	s2,0
bfc014d8:	161203cc 	bne	s0,s2,bfc0240c <inst_error>
bfc014dc:	00000000 	nop
bfc014e0:	3c0824d5 	lui	t0,0x24d5
bfc014e4:	3508a3c0 	ori	t0,t0,0xa3c0
bfc014e8:	3c09a6fa 	lui	t1,0xa6fa
bfc014ec:	35297dda 	ori	t1,t1,0x7dda
bfc014f0:	0109802b 	sltu	s0,t0,t1
bfc014f4:	24120001 	li	s2,1
bfc014f8:	161203c4 	bne	s0,s2,bfc0240c <inst_error>
bfc014fc:	00000000 	nop
bfc01500:	3c08c43a 	lui	t0,0xc43a
bfc01504:	35088720 	ori	t0,t0,0x8720
bfc01508:	3c098696 	lui	t1,0x8696
bfc0150c:	3529ca72 	ori	t1,t1,0xca72
bfc01510:	0109802b 	sltu	s0,t0,t1
bfc01514:	24120000 	li	s2,0
bfc01518:	161203bc 	bne	s0,s2,bfc0240c <inst_error>
bfc0151c:	00000000 	nop
bfc01520:	3c086a31 	lui	t0,0x6a31
bfc01524:	35085010 	ori	t0,t0,0x5010
bfc01528:	3c09fd19 	lui	t1,0xfd19
bfc0152c:	3529f586 	ori	t1,t1,0xf586
bfc01530:	0109802b 	sltu	s0,t0,t1
bfc01534:	24120001 	li	s2,1
bfc01538:	161203b4 	bne	s0,s2,bfc0240c <inst_error>
bfc0153c:	00000000 	nop
bfc01540:	3c08cc63 	lui	t0,0xcc63
bfc01544:	3508ca94 	ori	t0,t0,0xca94
bfc01548:	3c094339 	lui	t1,0x4339
bfc0154c:	352941dc 	ori	t1,t1,0x41dc
bfc01550:	0109802b 	sltu	s0,t0,t1
bfc01554:	24120000 	li	s2,0
bfc01558:	161203ac 	bne	s0,s2,bfc0240c <inst_error>
bfc0155c:	00000000 	nop
bfc01560:	3c084d11 	lui	t0,0x4d11
bfc01564:	3508dae4 	ori	t0,t0,0xdae4
bfc01568:	3c09b128 	lui	t1,0xb128
bfc0156c:	352928ba 	ori	t1,t1,0x28ba
bfc01570:	0109802b 	sltu	s0,t0,t1
bfc01574:	24120001 	li	s2,1
bfc01578:	161203a4 	bne	s0,s2,bfc0240c <inst_error>
bfc0157c:	00000000 	nop
bfc01580:	3c088ffd 	lui	t0,0x8ffd
bfc01584:	350830c0 	ori	t0,t0,0x30c0
bfc01588:	3c09c474 	lui	t1,0xc474
bfc0158c:	3529bbc0 	ori	t1,t1,0xbbc0
bfc01590:	0109802b 	sltu	s0,t0,t1
bfc01594:	24120001 	li	s2,1
bfc01598:	1612039c 	bne	s0,s2,bfc0240c <inst_error>
bfc0159c:	00000000 	nop
bfc015a0:	3c08ec9c 	lui	t0,0xec9c
bfc015a4:	3508b980 	ori	t0,t0,0xb980
bfc015a8:	3c0922de 	lui	t1,0x22de
bfc015ac:	3529ebc4 	ori	t1,t1,0xebc4
bfc015b0:	0109802b 	sltu	s0,t0,t1
bfc015b4:	24120000 	li	s2,0
bfc015b8:	16120394 	bne	s0,s2,bfc0240c <inst_error>
bfc015bc:	00000000 	nop
bfc015c0:	3c0879ba 	lui	t0,0x79ba
bfc015c4:	3508fd62 	ori	t0,t0,0xfd62
bfc015c8:	3c09b8ba 	lui	t1,0xb8ba
bfc015cc:	3529e6f0 	ori	t1,t1,0xe6f0
bfc015d0:	0109802b 	sltu	s0,t0,t1
bfc015d4:	24120001 	li	s2,1
bfc015d8:	1612038c 	bne	s0,s2,bfc0240c <inst_error>
bfc015dc:	00000000 	nop
bfc015e0:	3c0867b5 	lui	t0,0x67b5
bfc015e4:	35089000 	ori	t0,t0,0x9000
bfc015e8:	3c097637 	lui	t1,0x7637
bfc015ec:	3529afba 	ori	t1,t1,0xafba
bfc015f0:	0109802b 	sltu	s0,t0,t1
bfc015f4:	24120001 	li	s2,1
bfc015f8:	16120384 	bne	s0,s2,bfc0240c <inst_error>
bfc015fc:	00000000 	nop
bfc01600:	3c086cd2 	lui	t0,0x6cd2
bfc01604:	35084e2e 	ori	t0,t0,0x4e2e
bfc01608:	3c09245c 	lui	t1,0x245c
bfc0160c:	35294d43 	ori	t1,t1,0x4d43
bfc01610:	0109802b 	sltu	s0,t0,t1
bfc01614:	24120000 	li	s2,0
bfc01618:	1612037c 	bne	s0,s2,bfc0240c <inst_error>
bfc0161c:	00000000 	nop
bfc01620:	3c085d61 	lui	t0,0x5d61
bfc01624:	350844dc 	ori	t0,t0,0x44dc
bfc01628:	3c09b58b 	lui	t1,0xb58b
bfc0162c:	3529778f 	ori	t1,t1,0x778f
bfc01630:	0109802b 	sltu	s0,t0,t1
bfc01634:	24120001 	li	s2,1
bfc01638:	16120374 	bne	s0,s2,bfc0240c <inst_error>
bfc0163c:	00000000 	nop
bfc01640:	3c08014c 	lui	t0,0x14c
bfc01644:	3508f4cc 	ori	t0,t0,0xf4cc
bfc01648:	3c097fbe 	lui	t1,0x7fbe
bfc0164c:	35297340 	ori	t1,t1,0x7340
bfc01650:	0109802b 	sltu	s0,t0,t1
bfc01654:	24120001 	li	s2,1
bfc01658:	1612036c 	bne	s0,s2,bfc0240c <inst_error>
bfc0165c:	00000000 	nop
bfc01660:	3c08a7df 	lui	t0,0xa7df
bfc01664:	3508c844 	ori	t0,t0,0xc844
bfc01668:	3c09c15b 	lui	t1,0xc15b
bfc0166c:	35291558 	ori	t1,t1,0x1558
bfc01670:	0109802b 	sltu	s0,t0,t1
bfc01674:	24120001 	li	s2,1
bfc01678:	16120364 	bne	s0,s2,bfc0240c <inst_error>
bfc0167c:	00000000 	nop
bfc01680:	3c082cbe 	lui	t0,0x2cbe
bfc01684:	3508e9b7 	ori	t0,t0,0xe9b7
bfc01688:	3c09ee71 	lui	t1,0xee71
bfc0168c:	3529c4d0 	ori	t1,t1,0xc4d0
bfc01690:	0109802b 	sltu	s0,t0,t1
bfc01694:	24120001 	li	s2,1
bfc01698:	1612035c 	bne	s0,s2,bfc0240c <inst_error>
bfc0169c:	00000000 	nop
bfc016a0:	3c081a22 	lui	t0,0x1a22
bfc016a4:	3508f920 	ori	t0,t0,0xf920
bfc016a8:	3c092f91 	lui	t1,0x2f91
bfc016ac:	35290898 	ori	t1,t1,0x898
bfc016b0:	0109802b 	sltu	s0,t0,t1
bfc016b4:	24120001 	li	s2,1
bfc016b8:	16120354 	bne	s0,s2,bfc0240c <inst_error>
bfc016bc:	00000000 	nop
bfc016c0:	3c08bc90 	lui	t0,0xbc90
bfc016c4:	3508e272 	ori	t0,t0,0xe272
bfc016c8:	3c09213c 	lui	t1,0x213c
bfc016cc:	3529d464 	ori	t1,t1,0xd464
bfc016d0:	0109802b 	sltu	s0,t0,t1
bfc016d4:	24120000 	li	s2,0
bfc016d8:	1612034c 	bne	s0,s2,bfc0240c <inst_error>
bfc016dc:	00000000 	nop
bfc016e0:	3c082543 	lui	t0,0x2543
bfc016e4:	3508d804 	ori	t0,t0,0xd804
bfc016e8:	3c09b230 	lui	t1,0xb230
bfc016ec:	3529d4b2 	ori	t1,t1,0xd4b2
bfc016f0:	0109802b 	sltu	s0,t0,t1
bfc016f4:	24120001 	li	s2,1
bfc016f8:	16120344 	bne	s0,s2,bfc0240c <inst_error>
bfc016fc:	00000000 	nop
bfc01700:	3c08e553 	lui	t0,0xe553
bfc01704:	350818f0 	ori	t0,t0,0x18f0
bfc01708:	3c09758f 	lui	t1,0x758f
bfc0170c:	352961b0 	ori	t1,t1,0x61b0
bfc01710:	0109802b 	sltu	s0,t0,t1
bfc01714:	24120000 	li	s2,0
bfc01718:	1612033c 	bne	s0,s2,bfc0240c <inst_error>
bfc0171c:	00000000 	nop
bfc01720:	3c0806d0 	lui	t0,0x6d0
bfc01724:	3508d250 	ori	t0,t0,0xd250
bfc01728:	3c09f1c7 	lui	t1,0xf1c7
bfc0172c:	3529d6d0 	ori	t1,t1,0xd6d0
bfc01730:	0109802b 	sltu	s0,t0,t1
bfc01734:	24120001 	li	s2,1
bfc01738:	16120334 	bne	s0,s2,bfc0240c <inst_error>
bfc0173c:	00000000 	nop
bfc01740:	3c08dd41 	lui	t0,0xdd41
bfc01744:	3508b686 	ori	t0,t0,0xb686
bfc01748:	3c09b8f9 	lui	t1,0xb8f9
bfc0174c:	35294d58 	ori	t1,t1,0x4d58
bfc01750:	0109802b 	sltu	s0,t0,t1
bfc01754:	24120000 	li	s2,0
bfc01758:	1612032c 	bne	s0,s2,bfc0240c <inst_error>
bfc0175c:	00000000 	nop
bfc01760:	3c08edb1 	lui	t0,0xedb1
bfc01764:	3508f591 	ori	t0,t0,0xf591
bfc01768:	3c09f67a 	lui	t1,0xf67a
bfc0176c:	3529c84c 	ori	t1,t1,0xc84c
bfc01770:	0109802b 	sltu	s0,t0,t1
bfc01774:	24120001 	li	s2,1
bfc01778:	16120324 	bne	s0,s2,bfc0240c <inst_error>
bfc0177c:	00000000 	nop
bfc01780:	3c084404 	lui	t0,0x4404
bfc01784:	3508df16 	ori	t0,t0,0xdf16
bfc01788:	3c09e91a 	lui	t1,0xe91a
bfc0178c:	3529e4f0 	ori	t1,t1,0xe4f0
bfc01790:	0109802b 	sltu	s0,t0,t1
bfc01794:	24120001 	li	s2,1
bfc01798:	1612031c 	bne	s0,s2,bfc0240c <inst_error>
bfc0179c:	00000000 	nop
bfc017a0:	3c082556 	lui	t0,0x2556
bfc017a4:	35085ee0 	ori	t0,t0,0x5ee0
bfc017a8:	3c09a612 	lui	t1,0xa612
bfc017ac:	35291330 	ori	t1,t1,0x1330
bfc017b0:	0109802b 	sltu	s0,t0,t1
bfc017b4:	24120001 	li	s2,1
bfc017b8:	16120314 	bne	s0,s2,bfc0240c <inst_error>
bfc017bc:	00000000 	nop
bfc017c0:	3c086d7e 	lui	t0,0x6d7e
bfc017c4:	35081370 	ori	t0,t0,0x1370
bfc017c8:	3c09c7e3 	lui	t1,0xc7e3
bfc017cc:	35292139 	ori	t1,t1,0x2139
bfc017d0:	0109802b 	sltu	s0,t0,t1
bfc017d4:	24120001 	li	s2,1
bfc017d8:	1612030c 	bne	s0,s2,bfc0240c <inst_error>
bfc017dc:	00000000 	nop
bfc017e0:	3c083dc9 	lui	t0,0x3dc9
bfc017e4:	35088258 	ori	t0,t0,0x8258
bfc017e8:	3c098b93 	lui	t1,0x8b93
bfc017ec:	3529ffc0 	ori	t1,t1,0xffc0
bfc017f0:	0109802b 	sltu	s0,t0,t1
bfc017f4:	24120001 	li	s2,1
bfc017f8:	16120304 	bne	s0,s2,bfc0240c <inst_error>
bfc017fc:	00000000 	nop
bfc01800:	3c080c8d 	lui	t0,0xc8d
bfc01804:	3508c160 	ori	t0,t0,0xc160
bfc01808:	3c09647a 	lui	t1,0x647a
bfc0180c:	35293b40 	ori	t1,t1,0x3b40
bfc01810:	0109802b 	sltu	s0,t0,t1
bfc01814:	24120001 	li	s2,1
bfc01818:	161202fc 	bne	s0,s2,bfc0240c <inst_error>
bfc0181c:	00000000 	nop
bfc01820:	3c083267 	lui	t0,0x3267
bfc01824:	3508ed10 	ori	t0,t0,0xed10
bfc01828:	3c09900e 	lui	t1,0x900e
bfc0182c:	352904e0 	ori	t1,t1,0x4e0
bfc01830:	0109802b 	sltu	s0,t0,t1
bfc01834:	24120001 	li	s2,1
bfc01838:	161202f4 	bne	s0,s2,bfc0240c <inst_error>
bfc0183c:	00000000 	nop
bfc01840:	3c08eb56 	lui	t0,0xeb56
bfc01844:	3508b226 	ori	t0,t0,0xb226
bfc01848:	3c09be63 	lui	t1,0xbe63
bfc0184c:	3529007a 	ori	t1,t1,0x7a
bfc01850:	0109802b 	sltu	s0,t0,t1
bfc01854:	24120000 	li	s2,0
bfc01858:	161202ec 	bne	s0,s2,bfc0240c <inst_error>
bfc0185c:	00000000 	nop
bfc01860:	3c08131e 	lui	t0,0x131e
bfc01864:	3508e630 	ori	t0,t0,0xe630
bfc01868:	3c09362f 	lui	t1,0x362f
bfc0186c:	352965ba 	ori	t1,t1,0x65ba
bfc01870:	0109802b 	sltu	s0,t0,t1
bfc01874:	24120001 	li	s2,1
bfc01878:	161202e4 	bne	s0,s2,bfc0240c <inst_error>
bfc0187c:	00000000 	nop
bfc01880:	3c082688 	lui	t0,0x2688
bfc01884:	350831c5 	ori	t0,t0,0x31c5
bfc01888:	3c09d9c4 	lui	t1,0xd9c4
bfc0188c:	3529ac3c 	ori	t1,t1,0xac3c
bfc01890:	0109802b 	sltu	s0,t0,t1
bfc01894:	24120001 	li	s2,1
bfc01898:	161202dc 	bne	s0,s2,bfc0240c <inst_error>
bfc0189c:	00000000 	nop
bfc018a0:	3c08751c 	lui	t0,0x751c
bfc018a4:	350800fc 	ori	t0,t0,0xfc
bfc018a8:	3c09ee70 	lui	t1,0xee70
bfc018ac:	35292f68 	ori	t1,t1,0x2f68
bfc018b0:	0109802b 	sltu	s0,t0,t1
bfc018b4:	24120001 	li	s2,1
bfc018b8:	161202d4 	bne	s0,s2,bfc0240c <inst_error>
bfc018bc:	00000000 	nop
bfc018c0:	3c084b98 	lui	t0,0x4b98
bfc018c4:	350804dc 	ori	t0,t0,0x4dc
bfc018c8:	3c09ef7c 	lui	t1,0xef7c
bfc018cc:	3529a5b8 	ori	t1,t1,0xa5b8
bfc018d0:	0109802b 	sltu	s0,t0,t1
bfc018d4:	24120001 	li	s2,1
bfc018d8:	161202cc 	bne	s0,s2,bfc0240c <inst_error>
bfc018dc:	00000000 	nop
bfc018e0:	3c082339 	lui	t0,0x2339
bfc018e4:	350860b8 	ori	t0,t0,0x60b8
bfc018e8:	3c09adf8 	lui	t1,0xadf8
bfc018ec:	3529f658 	ori	t1,t1,0xf658
bfc018f0:	0109802b 	sltu	s0,t0,t1
bfc018f4:	24120001 	li	s2,1
bfc018f8:	161202c4 	bne	s0,s2,bfc0240c <inst_error>
bfc018fc:	00000000 	nop
bfc01900:	3c0880bc 	lui	t0,0x80bc
bfc01904:	3508c7a2 	ori	t0,t0,0xc7a2
bfc01908:	24090000 	li	t1,0
bfc0190c:	0109802b 	sltu	s0,t0,t1
bfc01910:	24120000 	li	s2,0
bfc01914:	161202bd 	bne	s0,s2,bfc0240c <inst_error>
bfc01918:	00000000 	nop
bfc0191c:	3c084512 	lui	t0,0x4512
bfc01920:	3508c5b4 	ori	t0,t0,0xc5b4
bfc01924:	24090000 	li	t1,0
bfc01928:	0109802b 	sltu	s0,t0,t1
bfc0192c:	24120000 	li	s2,0
bfc01930:	161202b6 	bne	s0,s2,bfc0240c <inst_error>
bfc01934:	00000000 	nop
bfc01938:	3c08690e 	lui	t0,0x690e
bfc0193c:	3508ca38 	ori	t0,t0,0xca38
bfc01940:	24090000 	li	t1,0
bfc01944:	0109802b 	sltu	s0,t0,t1
bfc01948:	24120000 	li	s2,0
bfc0194c:	161202af 	bne	s0,s2,bfc0240c <inst_error>
bfc01950:	00000000 	nop
bfc01954:	3c08cae0 	lui	t0,0xcae0
bfc01958:	350883a5 	ori	t0,t0,0x83a5
bfc0195c:	24090000 	li	t1,0
bfc01960:	0109802b 	sltu	s0,t0,t1
bfc01964:	24120000 	li	s2,0
bfc01968:	161202a8 	bne	s0,s2,bfc0240c <inst_error>
bfc0196c:	00000000 	nop
bfc01970:	3c086db9 	lui	t0,0x6db9
bfc01974:	35082ba5 	ori	t0,t0,0x2ba5
bfc01978:	24090000 	li	t1,0
bfc0197c:	0109802b 	sltu	s0,t0,t1
bfc01980:	24120000 	li	s2,0
bfc01984:	161202a1 	bne	s0,s2,bfc0240c <inst_error>
bfc01988:	00000000 	nop
bfc0198c:	3c08c5a8 	lui	t0,0xc5a8
bfc01990:	350894c9 	ori	t0,t0,0x94c9
bfc01994:	24090000 	li	t1,0
bfc01998:	0109802b 	sltu	s0,t0,t1
bfc0199c:	24120000 	li	s2,0
bfc019a0:	1612029a 	bne	s0,s2,bfc0240c <inst_error>
bfc019a4:	00000000 	nop
bfc019a8:	3c081dac 	lui	t0,0x1dac
bfc019ac:	35088320 	ori	t0,t0,0x8320
bfc019b0:	24090000 	li	t1,0
bfc019b4:	0109802b 	sltu	s0,t0,t1
bfc019b8:	24120000 	li	s2,0
bfc019bc:	16120293 	bne	s0,s2,bfc0240c <inst_error>
bfc019c0:	00000000 	nop
bfc019c4:	3c08fe7e 	lui	t0,0xfe7e
bfc019c8:	35088fd4 	ori	t0,t0,0x8fd4
bfc019cc:	24090000 	li	t1,0
bfc019d0:	0109802b 	sltu	s0,t0,t1
bfc019d4:	24120000 	li	s2,0
bfc019d8:	1612028c 	bne	s0,s2,bfc0240c <inst_error>
bfc019dc:	00000000 	nop
bfc019e0:	3c08f5b2 	lui	t0,0xf5b2
bfc019e4:	35081a40 	ori	t0,t0,0x1a40
bfc019e8:	24090000 	li	t1,0
bfc019ec:	0109802b 	sltu	s0,t0,t1
bfc019f0:	24120000 	li	s2,0
bfc019f4:	16120285 	bne	s0,s2,bfc0240c <inst_error>
bfc019f8:	00000000 	nop
bfc019fc:	3c0899a2 	lui	t0,0x99a2
bfc01a00:	3508b300 	ori	t0,t0,0xb300
bfc01a04:	24090000 	li	t1,0
bfc01a08:	0109802b 	sltu	s0,t0,t1
bfc01a0c:	24120000 	li	s2,0
bfc01a10:	1612027e 	bne	s0,s2,bfc0240c <inst_error>
bfc01a14:	00000000 	nop
bfc01a18:	3c0880c0 	lui	t0,0x80c0
bfc01a1c:	3508dbfc 	ori	t0,t0,0xdbfc
bfc01a20:	24090000 	li	t1,0
bfc01a24:	0109802b 	sltu	s0,t0,t1
bfc01a28:	24120000 	li	s2,0
bfc01a2c:	16120277 	bne	s0,s2,bfc0240c <inst_error>
bfc01a30:	00000000 	nop
bfc01a34:	3c082a60 	lui	t0,0x2a60
bfc01a38:	3508735a 	ori	t0,t0,0x735a
bfc01a3c:	24090000 	li	t1,0
bfc01a40:	0109802b 	sltu	s0,t0,t1
bfc01a44:	24120000 	li	s2,0
bfc01a48:	16120270 	bne	s0,s2,bfc0240c <inst_error>
bfc01a4c:	00000000 	nop
bfc01a50:	3c08d2ad 	lui	t0,0xd2ad
bfc01a54:	35088810 	ori	t0,t0,0x8810
bfc01a58:	24090000 	li	t1,0
bfc01a5c:	0109802b 	sltu	s0,t0,t1
bfc01a60:	24120000 	li	s2,0
bfc01a64:	16120269 	bne	s0,s2,bfc0240c <inst_error>
bfc01a68:	00000000 	nop
bfc01a6c:	3c08d6f6 	lui	t0,0xd6f6
bfc01a70:	350857a0 	ori	t0,t0,0x57a0
bfc01a74:	24090000 	li	t1,0
bfc01a78:	0109802b 	sltu	s0,t0,t1
bfc01a7c:	24120000 	li	s2,0
bfc01a80:	16120262 	bne	s0,s2,bfc0240c <inst_error>
bfc01a84:	00000000 	nop
bfc01a88:	3c0880b5 	lui	t0,0x80b5
bfc01a8c:	3508dc22 	ori	t0,t0,0xdc22
bfc01a90:	24090000 	li	t1,0
bfc01a94:	0109802b 	sltu	s0,t0,t1
bfc01a98:	24120000 	li	s2,0
bfc01a9c:	1612025b 	bne	s0,s2,bfc0240c <inst_error>
bfc01aa0:	00000000 	nop
bfc01aa4:	3c08e9f9 	lui	t0,0xe9f9
bfc01aa8:	35088f48 	ori	t0,t0,0x8f48
bfc01aac:	24090000 	li	t1,0
bfc01ab0:	0109802b 	sltu	s0,t0,t1
bfc01ab4:	24120000 	li	s2,0
bfc01ab8:	16120254 	bne	s0,s2,bfc0240c <inst_error>
bfc01abc:	00000000 	nop
bfc01ac0:	3c08b15c 	lui	t0,0xb15c
bfc01ac4:	3508f710 	ori	t0,t0,0xf710
bfc01ac8:	24090000 	li	t1,0
bfc01acc:	0109802b 	sltu	s0,t0,t1
bfc01ad0:	24120000 	li	s2,0
bfc01ad4:	1612024d 	bne	s0,s2,bfc0240c <inst_error>
bfc01ad8:	00000000 	nop
bfc01adc:	3c0809b4 	lui	t0,0x9b4
bfc01ae0:	35081b80 	ori	t0,t0,0x1b80
bfc01ae4:	24090000 	li	t1,0
bfc01ae8:	0109802b 	sltu	s0,t0,t1
bfc01aec:	24120000 	li	s2,0
bfc01af0:	16120246 	bne	s0,s2,bfc0240c <inst_error>
bfc01af4:	00000000 	nop
bfc01af8:	3c081ad7 	lui	t0,0x1ad7
bfc01afc:	3508ed46 	ori	t0,t0,0xed46
bfc01b00:	24090000 	li	t1,0
bfc01b04:	0109802b 	sltu	s0,t0,t1
bfc01b08:	24120000 	li	s2,0
bfc01b0c:	1612023f 	bne	s0,s2,bfc0240c <inst_error>
bfc01b10:	00000000 	nop
bfc01b14:	3c0853b1 	lui	t0,0x53b1
bfc01b18:	35085ae8 	ori	t0,t0,0x5ae8
bfc01b1c:	24090000 	li	t1,0
bfc01b20:	0109802b 	sltu	s0,t0,t1
bfc01b24:	24120000 	li	s2,0
bfc01b28:	16120238 	bne	s0,s2,bfc0240c <inst_error>
bfc01b2c:	00000000 	nop
bfc01b30:	3c0830c6 	lui	t0,0x30c6
bfc01b34:	3508b680 	ori	t0,t0,0xb680
bfc01b38:	24090000 	li	t1,0
bfc01b3c:	0109802b 	sltu	s0,t0,t1
bfc01b40:	24120000 	li	s2,0
bfc01b44:	16120231 	bne	s0,s2,bfc0240c <inst_error>
bfc01b48:	00000000 	nop
bfc01b4c:	3c08e74d 	lui	t0,0xe74d
bfc01b50:	350839c2 	ori	t0,t0,0x39c2
bfc01b54:	24090000 	li	t1,0
bfc01b58:	0109802b 	sltu	s0,t0,t1
bfc01b5c:	24120000 	li	s2,0
bfc01b60:	1612022a 	bne	s0,s2,bfc0240c <inst_error>
bfc01b64:	00000000 	nop
bfc01b68:	3c08ee4a 	lui	t0,0xee4a
bfc01b6c:	35082198 	ori	t0,t0,0x2198
bfc01b70:	24090000 	li	t1,0
bfc01b74:	0109802b 	sltu	s0,t0,t1
bfc01b78:	24120000 	li	s2,0
bfc01b7c:	16120223 	bne	s0,s2,bfc0240c <inst_error>
bfc01b80:	00000000 	nop
bfc01b84:	3c082a4c 	lui	t0,0x2a4c
bfc01b88:	35081f00 	ori	t0,t0,0x1f00
bfc01b8c:	24090000 	li	t1,0
bfc01b90:	0109802b 	sltu	s0,t0,t1
bfc01b94:	24120000 	li	s2,0
bfc01b98:	1612021c 	bne	s0,s2,bfc0240c <inst_error>
bfc01b9c:	00000000 	nop
bfc01ba0:	3c08a08d 	lui	t0,0xa08d
bfc01ba4:	35080546 	ori	t0,t0,0x546
bfc01ba8:	24090000 	li	t1,0
bfc01bac:	0109802b 	sltu	s0,t0,t1
bfc01bb0:	24120000 	li	s2,0
bfc01bb4:	16120215 	bne	s0,s2,bfc0240c <inst_error>
bfc01bb8:	00000000 	nop
bfc01bbc:	3c0894cd 	lui	t0,0x94cd
bfc01bc0:	35080c00 	ori	t0,t0,0xc00
bfc01bc4:	24090000 	li	t1,0
bfc01bc8:	0109802b 	sltu	s0,t0,t1
bfc01bcc:	24120000 	li	s2,0
bfc01bd0:	1612020e 	bne	s0,s2,bfc0240c <inst_error>
bfc01bd4:	00000000 	nop
bfc01bd8:	3c08d1d2 	lui	t0,0xd1d2
bfc01bdc:	35082a40 	ori	t0,t0,0x2a40
bfc01be0:	24090000 	li	t1,0
bfc01be4:	0109802b 	sltu	s0,t0,t1
bfc01be8:	24120000 	li	s2,0
bfc01bec:	16120207 	bne	s0,s2,bfc0240c <inst_error>
bfc01bf0:	00000000 	nop
bfc01bf4:	3c088002 	lui	t0,0x8002
bfc01bf8:	35085000 	ori	t0,t0,0x5000
bfc01bfc:	24090000 	li	t1,0
bfc01c00:	0109802b 	sltu	s0,t0,t1
bfc01c04:	24120000 	li	s2,0
bfc01c08:	16120200 	bne	s0,s2,bfc0240c <inst_error>
bfc01c0c:	00000000 	nop
bfc01c10:	3c0811ce 	lui	t0,0x11ce
bfc01c14:	35081c00 	ori	t0,t0,0x1c00
bfc01c18:	24090000 	li	t1,0
bfc01c1c:	0109802b 	sltu	s0,t0,t1
bfc01c20:	24120000 	li	s2,0
bfc01c24:	161201f9 	bne	s0,s2,bfc0240c <inst_error>
bfc01c28:	00000000 	nop
bfc01c2c:	3c086f25 	lui	t0,0x6f25
bfc01c30:	35085bec 	ori	t0,t0,0x5bec
bfc01c34:	24090000 	li	t1,0
bfc01c38:	0109802b 	sltu	s0,t0,t1
bfc01c3c:	24120000 	li	s2,0
bfc01c40:	161201f2 	bne	s0,s2,bfc0240c <inst_error>
bfc01c44:	00000000 	nop
bfc01c48:	3c08ae35 	lui	t0,0xae35
bfc01c4c:	3508b410 	ori	t0,t0,0xb410
bfc01c50:	24090000 	li	t1,0
bfc01c54:	0109802b 	sltu	s0,t0,t1
bfc01c58:	24120000 	li	s2,0
bfc01c5c:	161201eb 	bne	s0,s2,bfc0240c <inst_error>
bfc01c60:	00000000 	nop
bfc01c64:	3c08c432 	lui	t0,0xc432
bfc01c68:	3508266a 	ori	t0,t0,0x266a
bfc01c6c:	24090000 	li	t1,0
bfc01c70:	0109802b 	sltu	s0,t0,t1
bfc01c74:	24120000 	li	s2,0
bfc01c78:	161201e4 	bne	s0,s2,bfc0240c <inst_error>
bfc01c7c:	00000000 	nop
bfc01c80:	3c08943f 	lui	t0,0x943f
bfc01c84:	35085b66 	ori	t0,t0,0x5b66
bfc01c88:	24090000 	li	t1,0
bfc01c8c:	0109802b 	sltu	s0,t0,t1
bfc01c90:	24120000 	li	s2,0
bfc01c94:	161201dd 	bne	s0,s2,bfc0240c <inst_error>
bfc01c98:	00000000 	nop
bfc01c9c:	3c089428 	lui	t0,0x9428
bfc01ca0:	35082250 	ori	t0,t0,0x2250
bfc01ca4:	24090000 	li	t1,0
bfc01ca8:	0109802b 	sltu	s0,t0,t1
bfc01cac:	24120000 	li	s2,0
bfc01cb0:	161201d6 	bne	s0,s2,bfc0240c <inst_error>
bfc01cb4:	00000000 	nop
bfc01cb8:	3c085c06 	lui	t0,0x5c06
bfc01cbc:	3508de3f 	ori	t0,t0,0xde3f
bfc01cc0:	24090000 	li	t1,0
bfc01cc4:	0109802b 	sltu	s0,t0,t1
bfc01cc8:	24120000 	li	s2,0
bfc01ccc:	161201cf 	bne	s0,s2,bfc0240c <inst_error>
bfc01cd0:	00000000 	nop
bfc01cd4:	3c08524c 	lui	t0,0x524c
bfc01cd8:	3508c000 	ori	t0,t0,0xc000
bfc01cdc:	24090000 	li	t1,0
bfc01ce0:	0109802b 	sltu	s0,t0,t1
bfc01ce4:	24120000 	li	s2,0
bfc01ce8:	161201c8 	bne	s0,s2,bfc0240c <inst_error>
bfc01cec:	00000000 	nop
bfc01cf0:	3c0824f2 	lui	t0,0x24f2
bfc01cf4:	35087490 	ori	t0,t0,0x7490
bfc01cf8:	24090000 	li	t1,0
bfc01cfc:	0109802b 	sltu	s0,t0,t1
bfc01d00:	24120000 	li	s2,0
bfc01d04:	161201c1 	bne	s0,s2,bfc0240c <inst_error>
bfc01d08:	00000000 	nop
bfc01d0c:	3c08f725 	lui	t0,0xf725
bfc01d10:	3508ddc0 	ori	t0,t0,0xddc0
bfc01d14:	24090000 	li	t1,0
bfc01d18:	0109802b 	sltu	s0,t0,t1
bfc01d1c:	24120000 	li	s2,0
bfc01d20:	161201ba 	bne	s0,s2,bfc0240c <inst_error>
bfc01d24:	00000000 	nop
bfc01d28:	3c08dfcb 	lui	t0,0xdfcb
bfc01d2c:	3508b9d8 	ori	t0,t0,0xb9d8
bfc01d30:	24090000 	li	t1,0
bfc01d34:	0109802b 	sltu	s0,t0,t1
bfc01d38:	24120000 	li	s2,0
bfc01d3c:	161201b3 	bne	s0,s2,bfc0240c <inst_error>
bfc01d40:	00000000 	nop
bfc01d44:	3c08c832 	lui	t0,0xc832
bfc01d48:	350888d4 	ori	t0,t0,0x88d4
bfc01d4c:	24090000 	li	t1,0
bfc01d50:	0109802b 	sltu	s0,t0,t1
bfc01d54:	24120000 	li	s2,0
bfc01d58:	161201ac 	bne	s0,s2,bfc0240c <inst_error>
bfc01d5c:	00000000 	nop
bfc01d60:	3c08fe76 	lui	t0,0xfe76
bfc01d64:	3508d830 	ori	t0,t0,0xd830
bfc01d68:	24090000 	li	t1,0
bfc01d6c:	0109802b 	sltu	s0,t0,t1
bfc01d70:	24120000 	li	s2,0
bfc01d74:	161201a5 	bne	s0,s2,bfc0240c <inst_error>
bfc01d78:	00000000 	nop
bfc01d7c:	3c08630e 	lui	t0,0x630e
bfc01d80:	3508bd84 	ori	t0,t0,0xbd84
bfc01d84:	24090000 	li	t1,0
bfc01d88:	0109802b 	sltu	s0,t0,t1
bfc01d8c:	24120000 	li	s2,0
bfc01d90:	1612019e 	bne	s0,s2,bfc0240c <inst_error>
bfc01d94:	00000000 	nop
bfc01d98:	3c0803dc 	lui	t0,0x3dc
bfc01d9c:	3508b908 	ori	t0,t0,0xb908
bfc01da0:	24090000 	li	t1,0
bfc01da4:	0109802b 	sltu	s0,t0,t1
bfc01da8:	24120000 	li	s2,0
bfc01dac:	16120197 	bne	s0,s2,bfc0240c <inst_error>
bfc01db0:	00000000 	nop
bfc01db4:	3c088a50 	lui	t0,0x8a50
bfc01db8:	35080d38 	ori	t0,t0,0xd38
bfc01dbc:	24090000 	li	t1,0
bfc01dc0:	0109802b 	sltu	s0,t0,t1
bfc01dc4:	24120000 	li	s2,0
bfc01dc8:	16120190 	bne	s0,s2,bfc0240c <inst_error>
bfc01dcc:	00000000 	nop
bfc01dd0:	3c088448 	lui	t0,0x8448
bfc01dd4:	350866e0 	ori	t0,t0,0x66e0
bfc01dd8:	24090000 	li	t1,0
bfc01ddc:	0109802b 	sltu	s0,t0,t1
bfc01de0:	24120000 	li	s2,0
bfc01de4:	16120189 	bne	s0,s2,bfc0240c <inst_error>
bfc01de8:	00000000 	nop
bfc01dec:	3c08ddf2 	lui	t0,0xddf2
bfc01df0:	35086488 	ori	t0,t0,0x6488
bfc01df4:	24090000 	li	t1,0
bfc01df8:	0109802b 	sltu	s0,t0,t1
bfc01dfc:	24120000 	li	s2,0
bfc01e00:	16120182 	bne	s0,s2,bfc0240c <inst_error>
bfc01e04:	00000000 	nop
bfc01e08:	3c086bf4 	lui	t0,0x6bf4
bfc01e0c:	35088ff0 	ori	t0,t0,0x8ff0
bfc01e10:	24090000 	li	t1,0
bfc01e14:	0109802b 	sltu	s0,t0,t1
bfc01e18:	24120000 	li	s2,0
bfc01e1c:	1612017b 	bne	s0,s2,bfc0240c <inst_error>
bfc01e20:	00000000 	nop
bfc01e24:	3c08f6ac 	lui	t0,0xf6ac
bfc01e28:	35080fac 	ori	t0,t0,0xfac
bfc01e2c:	24090000 	li	t1,0
bfc01e30:	0109802b 	sltu	s0,t0,t1
bfc01e34:	24120000 	li	s2,0
bfc01e38:	16120174 	bne	s0,s2,bfc0240c <inst_error>
bfc01e3c:	00000000 	nop
bfc01e40:	3c08c94a 	lui	t0,0xc94a
bfc01e44:	3508b2e8 	ori	t0,t0,0xb2e8
bfc01e48:	24090000 	li	t1,0
bfc01e4c:	0109802b 	sltu	s0,t0,t1
bfc01e50:	24120000 	li	s2,0
bfc01e54:	1612016d 	bne	s0,s2,bfc0240c <inst_error>
bfc01e58:	00000000 	nop
bfc01e5c:	3c0855ca 	lui	t0,0x55ca
bfc01e60:	3508aca0 	ori	t0,t0,0xaca0
bfc01e64:	24090000 	li	t1,0
bfc01e68:	0109802b 	sltu	s0,t0,t1
bfc01e6c:	24120000 	li	s2,0
bfc01e70:	16120166 	bne	s0,s2,bfc0240c <inst_error>
bfc01e74:	00000000 	nop
bfc01e78:	24080000 	li	t0,0
bfc01e7c:	3c09d2fb 	lui	t1,0xd2fb
bfc01e80:	35291bfc 	ori	t1,t1,0x1bfc
bfc01e84:	0109802b 	sltu	s0,t0,t1
bfc01e88:	24120001 	li	s2,1
bfc01e8c:	1612015f 	bne	s0,s2,bfc0240c <inst_error>
bfc01e90:	00000000 	nop
bfc01e94:	24080000 	li	t0,0
bfc01e98:	3c09851e 	lui	t1,0x851e
bfc01e9c:	352906f7 	ori	t1,t1,0x6f7
bfc01ea0:	0109802b 	sltu	s0,t0,t1
bfc01ea4:	24120001 	li	s2,1
bfc01ea8:	16120158 	bne	s0,s2,bfc0240c <inst_error>
bfc01eac:	00000000 	nop
bfc01eb0:	24080000 	li	t0,0
bfc01eb4:	3c092922 	lui	t1,0x2922
bfc01eb8:	352977f0 	ori	t1,t1,0x77f0
bfc01ebc:	0109802b 	sltu	s0,t0,t1
bfc01ec0:	24120001 	li	s2,1
bfc01ec4:	16120151 	bne	s0,s2,bfc0240c <inst_error>
bfc01ec8:	00000000 	nop
bfc01ecc:	24080000 	li	t0,0
bfc01ed0:	3c09a979 	lui	t1,0xa979
bfc01ed4:	3529b406 	ori	t1,t1,0xb406
bfc01ed8:	0109802b 	sltu	s0,t0,t1
bfc01edc:	24120001 	li	s2,1
bfc01ee0:	1612014a 	bne	s0,s2,bfc0240c <inst_error>
bfc01ee4:	00000000 	nop
bfc01ee8:	24080000 	li	t0,0
bfc01eec:	3c093bca 	lui	t1,0x3bca
bfc01ef0:	3529f627 	ori	t1,t1,0xf627
bfc01ef4:	0109802b 	sltu	s0,t0,t1
bfc01ef8:	24120001 	li	s2,1
bfc01efc:	16120143 	bne	s0,s2,bfc0240c <inst_error>
bfc01f00:	00000000 	nop
bfc01f04:	24080000 	li	t0,0
bfc01f08:	3c095174 	lui	t1,0x5174
bfc01f0c:	3529d9c0 	ori	t1,t1,0xd9c0
bfc01f10:	0109802b 	sltu	s0,t0,t1
bfc01f14:	24120001 	li	s2,1
bfc01f18:	1612013c 	bne	s0,s2,bfc0240c <inst_error>
bfc01f1c:	00000000 	nop
bfc01f20:	24080000 	li	t0,0
bfc01f24:	3c09c501 	lui	t1,0xc501
bfc01f28:	352907a4 	ori	t1,t1,0x7a4
bfc01f2c:	0109802b 	sltu	s0,t0,t1
bfc01f30:	24120001 	li	s2,1
bfc01f34:	16120135 	bne	s0,s2,bfc0240c <inst_error>
bfc01f38:	00000000 	nop
bfc01f3c:	24080000 	li	t0,0
bfc01f40:	3c09e381 	lui	t1,0xe381
bfc01f44:	3529126c 	ori	t1,t1,0x126c
bfc01f48:	0109802b 	sltu	s0,t0,t1
bfc01f4c:	24120001 	li	s2,1
bfc01f50:	1612012e 	bne	s0,s2,bfc0240c <inst_error>
bfc01f54:	00000000 	nop
bfc01f58:	24080000 	li	t0,0
bfc01f5c:	3c09f547 	lui	t1,0xf547
bfc01f60:	3529978a 	ori	t1,t1,0x978a
bfc01f64:	0109802b 	sltu	s0,t0,t1
bfc01f68:	24120001 	li	s2,1
bfc01f6c:	16120127 	bne	s0,s2,bfc0240c <inst_error>
bfc01f70:	00000000 	nop
bfc01f74:	24080000 	li	t0,0
bfc01f78:	3c09fd40 	lui	t1,0xfd40
bfc01f7c:	35290d52 	ori	t1,t1,0xd52
bfc01f80:	0109802b 	sltu	s0,t0,t1
bfc01f84:	24120001 	li	s2,1
bfc01f88:	16120120 	bne	s0,s2,bfc0240c <inst_error>
bfc01f8c:	00000000 	nop
bfc01f90:	24080000 	li	t0,0
bfc01f94:	3c0928a8 	lui	t1,0x28a8
bfc01f98:	35292746 	ori	t1,t1,0x2746
bfc01f9c:	0109802b 	sltu	s0,t0,t1
bfc01fa0:	24120001 	li	s2,1
bfc01fa4:	16120119 	bne	s0,s2,bfc0240c <inst_error>
bfc01fa8:	00000000 	nop
bfc01fac:	24080000 	li	t0,0
bfc01fb0:	3c090b7c 	lui	t1,0xb7c
bfc01fb4:	3529c1c0 	ori	t1,t1,0xc1c0
bfc01fb8:	0109802b 	sltu	s0,t0,t1
bfc01fbc:	24120001 	li	s2,1
bfc01fc0:	16120112 	bne	s0,s2,bfc0240c <inst_error>
bfc01fc4:	00000000 	nop
bfc01fc8:	24080000 	li	t0,0
bfc01fcc:	3c09ffdd 	lui	t1,0xffdd
bfc01fd0:	3529b9c6 	ori	t1,t1,0xb9c6
bfc01fd4:	0109802b 	sltu	s0,t0,t1
bfc01fd8:	24120001 	li	s2,1
bfc01fdc:	1612010b 	bne	s0,s2,bfc0240c <inst_error>
bfc01fe0:	00000000 	nop
bfc01fe4:	24080000 	li	t0,0
bfc01fe8:	3c091046 	lui	t1,0x1046
bfc01fec:	35291858 	ori	t1,t1,0x1858
bfc01ff0:	0109802b 	sltu	s0,t0,t1
bfc01ff4:	24120001 	li	s2,1
bfc01ff8:	16120104 	bne	s0,s2,bfc0240c <inst_error>
bfc01ffc:	00000000 	nop
bfc02000:	24080000 	li	t0,0
bfc02004:	3c0958ef 	lui	t1,0x58ef
bfc02008:	35298349 	ori	t1,t1,0x8349
bfc0200c:	0109802b 	sltu	s0,t0,t1
bfc02010:	24120001 	li	s2,1
bfc02014:	161200fd 	bne	s0,s2,bfc0240c <inst_error>
bfc02018:	00000000 	nop
bfc0201c:	24080000 	li	t0,0
bfc02020:	3c0911be 	lui	t1,0x11be
bfc02024:	3529fc7c 	ori	t1,t1,0xfc7c
bfc02028:	0109802b 	sltu	s0,t0,t1
bfc0202c:	24120001 	li	s2,1
bfc02030:	161200f6 	bne	s0,s2,bfc0240c <inst_error>
bfc02034:	00000000 	nop
bfc02038:	24080000 	li	t0,0
bfc0203c:	3c099b36 	lui	t1,0x9b36
bfc02040:	35290690 	ori	t1,t1,0x690
bfc02044:	0109802b 	sltu	s0,t0,t1
bfc02048:	24120001 	li	s2,1
bfc0204c:	161200ef 	bne	s0,s2,bfc0240c <inst_error>
bfc02050:	00000000 	nop
bfc02054:	24080000 	li	t0,0
bfc02058:	3c090b68 	lui	t1,0xb68
bfc0205c:	3529d018 	ori	t1,t1,0xd018
bfc02060:	0109802b 	sltu	s0,t0,t1
bfc02064:	24120001 	li	s2,1
bfc02068:	161200e8 	bne	s0,s2,bfc0240c <inst_error>
bfc0206c:	00000000 	nop
bfc02070:	24080000 	li	t0,0
bfc02074:	3c09800c 	lui	t1,0x800c
bfc02078:	3529a9de 	ori	t1,t1,0xa9de
bfc0207c:	0109802b 	sltu	s0,t0,t1
bfc02080:	24120001 	li	s2,1
bfc02084:	161200e1 	bne	s0,s2,bfc0240c <inst_error>
bfc02088:	00000000 	nop
bfc0208c:	24080000 	li	t0,0
bfc02090:	3c09346e 	lui	t1,0x346e
bfc02094:	3529b190 	ori	t1,t1,0xb190
bfc02098:	0109802b 	sltu	s0,t0,t1
bfc0209c:	24120001 	li	s2,1
bfc020a0:	161200da 	bne	s0,s2,bfc0240c <inst_error>
bfc020a4:	00000000 	nop
bfc020a8:	24080000 	li	t0,0
bfc020ac:	3c0930ff 	lui	t1,0x30ff
bfc020b0:	3529e000 	ori	t1,t1,0xe000
bfc020b4:	0109802b 	sltu	s0,t0,t1
bfc020b8:	24120001 	li	s2,1
bfc020bc:	161200d3 	bne	s0,s2,bfc0240c <inst_error>
bfc020c0:	00000000 	nop
bfc020c4:	24080000 	li	t0,0
bfc020c8:	3c0999c7 	lui	t1,0x99c7
bfc020cc:	352991ec 	ori	t1,t1,0x91ec
bfc020d0:	0109802b 	sltu	s0,t0,t1
bfc020d4:	24120001 	li	s2,1
bfc020d8:	161200cc 	bne	s0,s2,bfc0240c <inst_error>
bfc020dc:	00000000 	nop
bfc020e0:	24080000 	li	t0,0
bfc020e4:	3c095aec 	lui	t1,0x5aec
bfc020e8:	35291334 	ori	t1,t1,0x1334
bfc020ec:	0109802b 	sltu	s0,t0,t1
bfc020f0:	24120001 	li	s2,1
bfc020f4:	161200c5 	bne	s0,s2,bfc0240c <inst_error>
bfc020f8:	00000000 	nop
bfc020fc:	24080000 	li	t0,0
bfc02100:	3c096c34 	lui	t1,0x6c34
bfc02104:	35297ff2 	ori	t1,t1,0x7ff2
bfc02108:	0109802b 	sltu	s0,t0,t1
bfc0210c:	24120001 	li	s2,1
bfc02110:	161200be 	bne	s0,s2,bfc0240c <inst_error>
bfc02114:	00000000 	nop
bfc02118:	24080000 	li	t0,0
bfc0211c:	3c0964f2 	lui	t1,0x64f2
bfc02120:	352918fc 	ori	t1,t1,0x18fc
bfc02124:	0109802b 	sltu	s0,t0,t1
bfc02128:	24120001 	li	s2,1
bfc0212c:	161200b7 	bne	s0,s2,bfc0240c <inst_error>
bfc02130:	00000000 	nop
bfc02134:	24080000 	li	t0,0
bfc02138:	3c09fbe3 	lui	t1,0xfbe3
bfc0213c:	35291c68 	ori	t1,t1,0x1c68
bfc02140:	0109802b 	sltu	s0,t0,t1
bfc02144:	24120001 	li	s2,1
bfc02148:	161200b0 	bne	s0,s2,bfc0240c <inst_error>
bfc0214c:	00000000 	nop
bfc02150:	24080000 	li	t0,0
bfc02154:	3c09fafd 	lui	t1,0xfafd
bfc02158:	352990d4 	ori	t1,t1,0x90d4
bfc0215c:	0109802b 	sltu	s0,t0,t1
bfc02160:	24120001 	li	s2,1
bfc02164:	161200a9 	bne	s0,s2,bfc0240c <inst_error>
bfc02168:	00000000 	nop
bfc0216c:	24080000 	li	t0,0
bfc02170:	3c093892 	lui	t1,0x3892
bfc02174:	3529b520 	ori	t1,t1,0xb520
bfc02178:	0109802b 	sltu	s0,t0,t1
bfc0217c:	24120001 	li	s2,1
bfc02180:	161200a2 	bne	s0,s2,bfc0240c <inst_error>
bfc02184:	00000000 	nop
bfc02188:	24080000 	li	t0,0
bfc0218c:	3c090b75 	lui	t1,0xb75
bfc02190:	35297ee4 	ori	t1,t1,0x7ee4
bfc02194:	0109802b 	sltu	s0,t0,t1
bfc02198:	24120001 	li	s2,1
bfc0219c:	1612009b 	bne	s0,s2,bfc0240c <inst_error>
bfc021a0:	00000000 	nop
bfc021a4:	24080000 	li	t0,0
bfc021a8:	3c090e1e 	lui	t1,0xe1e
bfc021ac:	35295029 	ori	t1,t1,0x5029
bfc021b0:	0109802b 	sltu	s0,t0,t1
bfc021b4:	24120001 	li	s2,1
bfc021b8:	16120094 	bne	s0,s2,bfc0240c <inst_error>
bfc021bc:	00000000 	nop
bfc021c0:	24080000 	li	t0,0
bfc021c4:	3c0934b9 	lui	t1,0x34b9
bfc021c8:	35294fdc 	ori	t1,t1,0x4fdc
bfc021cc:	0109802b 	sltu	s0,t0,t1
bfc021d0:	24120001 	li	s2,1
bfc021d4:	1612008d 	bne	s0,s2,bfc0240c <inst_error>
bfc021d8:	00000000 	nop
bfc021dc:	24080000 	li	t0,0
bfc021e0:	3c09b68d 	lui	t1,0xb68d
bfc021e4:	35299ab6 	ori	t1,t1,0x9ab6
bfc021e8:	0109802b 	sltu	s0,t0,t1
bfc021ec:	24120001 	li	s2,1
bfc021f0:	16120086 	bne	s0,s2,bfc0240c <inst_error>
bfc021f4:	00000000 	nop
bfc021f8:	24080000 	li	t0,0
bfc021fc:	3c09d8a2 	lui	t1,0xd8a2
bfc02200:	3529e3ce 	ori	t1,t1,0xe3ce
bfc02204:	0109802b 	sltu	s0,t0,t1
bfc02208:	24120001 	li	s2,1
bfc0220c:	1612007f 	bne	s0,s2,bfc0240c <inst_error>
bfc02210:	00000000 	nop
bfc02214:	24080000 	li	t0,0
bfc02218:	3c099049 	lui	t1,0x9049
bfc0221c:	35292a8e 	ori	t1,t1,0x2a8e
bfc02220:	0109802b 	sltu	s0,t0,t1
bfc02224:	24120001 	li	s2,1
bfc02228:	16120078 	bne	s0,s2,bfc0240c <inst_error>
bfc0222c:	00000000 	nop
bfc02230:	24080000 	li	t0,0
bfc02234:	3c09e220 	lui	t1,0xe220
bfc02238:	3529eeda 	ori	t1,t1,0xeeda
bfc0223c:	0109802b 	sltu	s0,t0,t1
bfc02240:	24120001 	li	s2,1
bfc02244:	16120071 	bne	s0,s2,bfc0240c <inst_error>
bfc02248:	00000000 	nop
bfc0224c:	24080000 	li	t0,0
bfc02250:	3c090b31 	lui	t1,0xb31
bfc02254:	352933a0 	ori	t1,t1,0x33a0
bfc02258:	0109802b 	sltu	s0,t0,t1
bfc0225c:	24120001 	li	s2,1
bfc02260:	1612006a 	bne	s0,s2,bfc0240c <inst_error>
bfc02264:	00000000 	nop
bfc02268:	24080000 	li	t0,0
bfc0226c:	3c09b71b 	lui	t1,0xb71b
bfc02270:	3529c7ce 	ori	t1,t1,0xc7ce
bfc02274:	0109802b 	sltu	s0,t0,t1
bfc02278:	24120001 	li	s2,1
bfc0227c:	16120063 	bne	s0,s2,bfc0240c <inst_error>
bfc02280:	00000000 	nop
bfc02284:	24080000 	li	t0,0
bfc02288:	3c092aa7 	lui	t1,0x2aa7
bfc0228c:	352946a6 	ori	t1,t1,0x46a6
bfc02290:	0109802b 	sltu	s0,t0,t1
bfc02294:	24120001 	li	s2,1
bfc02298:	1612005c 	bne	s0,s2,bfc0240c <inst_error>
bfc0229c:	00000000 	nop
bfc022a0:	24080000 	li	t0,0
bfc022a4:	3c094543 	lui	t1,0x4543
bfc022a8:	35298a68 	ori	t1,t1,0x8a68
bfc022ac:	0109802b 	sltu	s0,t0,t1
bfc022b0:	24120001 	li	s2,1
bfc022b4:	16120055 	bne	s0,s2,bfc0240c <inst_error>
bfc022b8:	00000000 	nop
bfc022bc:	24080000 	li	t0,0
bfc022c0:	3c09c76a 	lui	t1,0xc76a
bfc022c4:	35295250 	ori	t1,t1,0x5250
bfc022c8:	0109802b 	sltu	s0,t0,t1
bfc022cc:	24120001 	li	s2,1
bfc022d0:	1612004e 	bne	s0,s2,bfc0240c <inst_error>
bfc022d4:	00000000 	nop
bfc022d8:	24080000 	li	t0,0
bfc022dc:	3c0939ab 	lui	t1,0x39ab
bfc022e0:	35290100 	ori	t1,t1,0x100
bfc022e4:	0109802b 	sltu	s0,t0,t1
bfc022e8:	24120001 	li	s2,1
bfc022ec:	16120047 	bne	s0,s2,bfc0240c <inst_error>
bfc022f0:	00000000 	nop
bfc022f4:	24080000 	li	t0,0
bfc022f8:	3c0952ef 	lui	t1,0x52ef
bfc022fc:	35294485 	ori	t1,t1,0x4485
bfc02300:	0109802b 	sltu	s0,t0,t1
bfc02304:	24120001 	li	s2,1
bfc02308:	16120040 	bne	s0,s2,bfc0240c <inst_error>
bfc0230c:	00000000 	nop
bfc02310:	24080000 	li	t0,0
bfc02314:	3c09ad19 	lui	t1,0xad19
bfc02318:	3529dd1c 	ori	t1,t1,0xdd1c
bfc0231c:	0109802b 	sltu	s0,t0,t1
bfc02320:	24120001 	li	s2,1
bfc02324:	16120039 	bne	s0,s2,bfc0240c <inst_error>
bfc02328:	00000000 	nop
bfc0232c:	24080000 	li	t0,0
bfc02330:	3c09dc03 	lui	t1,0xdc03
bfc02334:	3529b4c0 	ori	t1,t1,0xb4c0
bfc02338:	0109802b 	sltu	s0,t0,t1
bfc0233c:	24120001 	li	s2,1
bfc02340:	16120032 	bne	s0,s2,bfc0240c <inst_error>
bfc02344:	00000000 	nop
bfc02348:	24080000 	li	t0,0
bfc0234c:	3c092fa8 	lui	t1,0x2fa8
bfc02350:	3529986c 	ori	t1,t1,0x986c
bfc02354:	0109802b 	sltu	s0,t0,t1
bfc02358:	24120001 	li	s2,1
bfc0235c:	1612002b 	bne	s0,s2,bfc0240c <inst_error>
bfc02360:	00000000 	nop
bfc02364:	24080000 	li	t0,0
bfc02368:	3c09ed08 	lui	t1,0xed08
bfc0236c:	3529ea47 	ori	t1,t1,0xea47
bfc02370:	0109802b 	sltu	s0,t0,t1
bfc02374:	24120001 	li	s2,1
bfc02378:	16120024 	bne	s0,s2,bfc0240c <inst_error>
bfc0237c:	00000000 	nop
bfc02380:	24080000 	li	t0,0
bfc02384:	3c093063 	lui	t1,0x3063
bfc02388:	352992cc 	ori	t1,t1,0x92cc
bfc0238c:	0109802b 	sltu	s0,t0,t1
bfc02390:	24120001 	li	s2,1
bfc02394:	1612001d 	bne	s0,s2,bfc0240c <inst_error>
bfc02398:	00000000 	nop
bfc0239c:	24080000 	li	t0,0
bfc023a0:	3c09ba46 	lui	t1,0xba46
bfc023a4:	3529c85d 	ori	t1,t1,0xc85d
bfc023a8:	0109802b 	sltu	s0,t0,t1
bfc023ac:	24120001 	li	s2,1
bfc023b0:	16120016 	bne	s0,s2,bfc0240c <inst_error>
bfc023b4:	00000000 	nop
bfc023b8:	24080000 	li	t0,0
bfc023bc:	3c09059e 	lui	t1,0x59e
bfc023c0:	35292da8 	ori	t1,t1,0x2da8
bfc023c4:	0109802b 	sltu	s0,t0,t1
bfc023c8:	24120001 	li	s2,1
bfc023cc:	1612000f 	bne	s0,s2,bfc0240c <inst_error>
bfc023d0:	00000000 	nop
bfc023d4:	24080000 	li	t0,0
bfc023d8:	3c0932f2 	lui	t1,0x32f2
bfc023dc:	35297784 	ori	t1,t1,0x7784
bfc023e0:	0109802b 	sltu	s0,t0,t1
bfc023e4:	24120001 	li	s2,1
bfc023e8:	16120008 	bne	s0,s2,bfc0240c <inst_error>
bfc023ec:	00000000 	nop
bfc023f0:	24080000 	li	t0,0
bfc023f4:	24090000 	li	t1,0
bfc023f8:	0109802b 	sltu	s0,t0,t1
bfc023fc:	24120000 	li	s2,0
bfc02400:	16120002 	bne	s0,s2,bfc0240c <inst_error>
bfc02404:	00000000 	nop
bfc02408:	4a000000 	c2	0x0

bfc0240c <inst_error>:
inst_error():
bfc0240c:	0000003f 	0x3f

Disassembly of section .reginfo:

00000000 <.reginfo>:
   0:	00050300 	sll	zero,a1,0xc
	...
