
build/sra:     file format elf32-tradlittlemips
build/sra


Disassembly of section .text:

bfc00000 <main>:
bfc00000:	3c087e00 	lui	t0,0x7e00
bfc00004:	350883f0 	ori	t0,t0,0x83f0
bfc00008:	24090009 	li	t1,9
bfc0000c:	00088243 	sra	s0,t0,0x9
bfc00010:	3c12003f 	lui	s2,0x3f
bfc00014:	36520041 	ori	s2,s2,0x41
bfc00018:	16120884 	bne	s0,s2,bfc0222c <inst_error>
bfc0001c:	00000000 	nop
bfc00020:	3c0813e6 	lui	t0,0x13e6
bfc00024:	350880c0 	ori	t0,t0,0x80c0
bfc00028:	24090018 	li	t1,24
bfc0002c:	00088603 	sra	s0,t0,0x18
bfc00030:	24120013 	li	s2,19
bfc00034:	1612087d 	bne	s0,s2,bfc0222c <inst_error>
bfc00038:	00000000 	nop
bfc0003c:	3c086d73 	lui	t0,0x6d73
bfc00040:	350888ec 	ori	t0,t0,0x88ec
bfc00044:	24090010 	li	t1,16
bfc00048:	00088403 	sra	s0,t0,0x10
bfc0004c:	24126d73 	li	s2,28019
bfc00050:	16120876 	bne	s0,s2,bfc0222c <inst_error>
bfc00054:	00000000 	nop
bfc00058:	3c08c04e 	lui	t0,0xc04e
bfc0005c:	3508fccc 	ori	t0,t0,0xfccc
bfc00060:	24090010 	li	t1,16
bfc00064:	00088403 	sra	s0,t0,0x10
bfc00068:	2412c04e 	li	s2,-16306
bfc0006c:	1612086f 	bne	s0,s2,bfc0222c <inst_error>
bfc00070:	00000000 	nop
bfc00074:	3c08d6c6 	lui	t0,0xd6c6
bfc00078:	35087200 	ori	t0,t0,0x7200
bfc0007c:	24090014 	li	t1,20
bfc00080:	00088503 	sra	s0,t0,0x14
bfc00084:	2412fd6c 	li	s2,-660
bfc00088:	16120868 	bne	s0,s2,bfc0222c <inst_error>
bfc0008c:	00000000 	nop
bfc00090:	3c08366e 	lui	t0,0x366e
bfc00094:	3508a0fe 	ori	t0,t0,0xa0fe
bfc00098:	2409001e 	li	t1,30
bfc0009c:	00088783 	sra	s0,t0,0x1e
bfc000a0:	24120000 	li	s2,0
bfc000a4:	16120861 	bne	s0,s2,bfc0222c <inst_error>
bfc000a8:	00000000 	nop
bfc000ac:	3c084a34 	lui	t0,0x4a34
bfc000b0:	350837c0 	ori	t0,t0,0x37c0
bfc000b4:	24090007 	li	t1,7
bfc000b8:	000881c3 	sra	s0,t0,0x7
bfc000bc:	3c120094 	lui	s2,0x94
bfc000c0:	3652686f 	ori	s2,s2,0x686f
bfc000c4:	16120859 	bne	s0,s2,bfc0222c <inst_error>
bfc000c8:	00000000 	nop
bfc000cc:	3c08355d 	lui	t0,0x355d
bfc000d0:	350825a0 	ori	t0,t0,0x25a0
bfc000d4:	24090013 	li	t1,19
bfc000d8:	000884c3 	sra	s0,t0,0x13
bfc000dc:	241206ab 	li	s2,1707
bfc000e0:	16120852 	bne	s0,s2,bfc0222c <inst_error>
bfc000e4:	00000000 	nop
bfc000e8:	3c0839ad 	lui	t0,0x39ad
bfc000ec:	3508f6d1 	ori	t0,t0,0xf6d1
bfc000f0:	24090008 	li	t1,8
bfc000f4:	00088203 	sra	s0,t0,0x8
bfc000f8:	3c120039 	lui	s2,0x39
bfc000fc:	3652adf6 	ori	s2,s2,0xadf6
bfc00100:	1612084a 	bne	s0,s2,bfc0222c <inst_error>
bfc00104:	00000000 	nop
bfc00108:	3c08c094 	lui	t0,0xc094
bfc0010c:	35089780 	ori	t0,t0,0x9780
bfc00110:	24090013 	li	t1,19
bfc00114:	000884c3 	sra	s0,t0,0x13
bfc00118:	2412f812 	li	s2,-2030
bfc0011c:	16120843 	bne	s0,s2,bfc0222c <inst_error>
bfc00120:	00000000 	nop
bfc00124:	3c08f09e 	lui	t0,0xf09e
bfc00128:	3508a1a0 	ori	t0,t0,0xa1a0
bfc0012c:	2409001d 	li	t1,29
bfc00130:	00088743 	sra	s0,t0,0x1d
bfc00134:	2412ffff 	li	s2,-1
bfc00138:	1612083c 	bne	s0,s2,bfc0222c <inst_error>
bfc0013c:	00000000 	nop
bfc00140:	3c08fa6d 	lui	t0,0xfa6d
bfc00144:	35082b80 	ori	t0,t0,0x2b80
bfc00148:	2409001b 	li	t1,27
bfc0014c:	000886c3 	sra	s0,t0,0x1b
bfc00150:	2412ffff 	li	s2,-1
bfc00154:	16120835 	bne	s0,s2,bfc0222c <inst_error>
bfc00158:	00000000 	nop
bfc0015c:	3c0815bf 	lui	t0,0x15bf
bfc00160:	3508aa14 	ori	t0,t0,0xaa14
bfc00164:	2409001d 	li	t1,29
bfc00168:	00088743 	sra	s0,t0,0x1d
bfc0016c:	24120000 	li	s2,0
bfc00170:	1612082e 	bne	s0,s2,bfc0222c <inst_error>
bfc00174:	00000000 	nop
bfc00178:	3c08f832 	lui	t0,0xf832
bfc0017c:	350842c0 	ori	t0,t0,0x42c0
bfc00180:	2409001c 	li	t1,28
bfc00184:	00088703 	sra	s0,t0,0x1c
bfc00188:	2412ffff 	li	s2,-1
bfc0018c:	16120827 	bne	s0,s2,bfc0222c <inst_error>
bfc00190:	00000000 	nop
bfc00194:	3c082eb7 	lui	t0,0x2eb7
bfc00198:	3508de00 	ori	t0,t0,0xde00
bfc0019c:	2409001f 	li	t1,31
bfc001a0:	000887c3 	sra	s0,t0,0x1f
bfc001a4:	24120000 	li	s2,0
bfc001a8:	16120820 	bne	s0,s2,bfc0222c <inst_error>
bfc001ac:	00000000 	nop
bfc001b0:	3c082009 	lui	t0,0x2009
bfc001b4:	350832e0 	ori	t0,t0,0x32e0
bfc001b8:	2409000d 	li	t1,13
bfc001bc:	00088343 	sra	s0,t0,0xd
bfc001c0:	3c120001 	lui	s2,0x1
bfc001c4:	36520049 	ori	s2,s2,0x49
bfc001c8:	16120818 	bne	s0,s2,bfc0222c <inst_error>
bfc001cc:	00000000 	nop
bfc001d0:	3c086b5f 	lui	t0,0x6b5f
bfc001d4:	3508efd3 	ori	t0,t0,0xefd3
bfc001d8:	24090009 	li	t1,9
bfc001dc:	00088243 	sra	s0,t0,0x9
bfc001e0:	3c120035 	lui	s2,0x35
bfc001e4:	3652aff7 	ori	s2,s2,0xaff7
bfc001e8:	16120810 	bne	s0,s2,bfc0222c <inst_error>
bfc001ec:	00000000 	nop
bfc001f0:	3c088c58 	lui	t0,0x8c58
bfc001f4:	35083f58 	ori	t0,t0,0x3f58
bfc001f8:	2409000c 	li	t1,12
bfc001fc:	00088303 	sra	s0,t0,0xc
bfc00200:	3c12fff8 	lui	s2,0xfff8
bfc00204:	3652c583 	ori	s2,s2,0xc583
bfc00208:	16120808 	bne	s0,s2,bfc0222c <inst_error>
bfc0020c:	00000000 	nop
bfc00210:	3c08f7bf 	lui	t0,0xf7bf
bfc00214:	35086ad0 	ori	t0,t0,0x6ad0
bfc00218:	2409001d 	li	t1,29
bfc0021c:	00088743 	sra	s0,t0,0x1d
bfc00220:	2412ffff 	li	s2,-1
bfc00224:	16120801 	bne	s0,s2,bfc0222c <inst_error>
bfc00228:	00000000 	nop
bfc0022c:	3c083fca 	lui	t0,0x3fca
bfc00230:	35081f9e 	ori	t0,t0,0x1f9e
bfc00234:	24090002 	li	t1,2
bfc00238:	00088083 	sra	s0,t0,0x2
bfc0023c:	3c120ff2 	lui	s2,0xff2
bfc00240:	365287e7 	ori	s2,s2,0x87e7
bfc00244:	161207f9 	bne	s0,s2,bfc0222c <inst_error>
bfc00248:	00000000 	nop
bfc0024c:	3c086734 	lui	t0,0x6734
bfc00250:	3508f624 	ori	t0,t0,0xf624
bfc00254:	24090010 	li	t1,16
bfc00258:	00088403 	sra	s0,t0,0x10
bfc0025c:	24126734 	li	s2,26420
bfc00260:	161207f2 	bne	s0,s2,bfc0222c <inst_error>
bfc00264:	00000000 	nop
bfc00268:	3c08c948 	lui	t0,0xc948
bfc0026c:	3508d0f5 	ori	t0,t0,0xd0f5
bfc00270:	24090010 	li	t1,16
bfc00274:	00088403 	sra	s0,t0,0x10
bfc00278:	2412c948 	li	s2,-14008
bfc0027c:	161207eb 	bne	s0,s2,bfc0222c <inst_error>
bfc00280:	00000000 	nop
bfc00284:	3c08281c 	lui	t0,0x281c
bfc00288:	35088725 	ori	t0,t0,0x8725
bfc0028c:	24090011 	li	t1,17
bfc00290:	00088443 	sra	s0,t0,0x11
bfc00294:	2412140e 	li	s2,5134
bfc00298:	161207e4 	bne	s0,s2,bfc0222c <inst_error>
bfc0029c:	00000000 	nop
bfc002a0:	3c08c99f 	lui	t0,0xc99f
bfc002a4:	3508ac26 	ori	t0,t0,0xac26
bfc002a8:	24090017 	li	t1,23
bfc002ac:	000885c3 	sra	s0,t0,0x17
bfc002b0:	2412ff93 	li	s2,-109
bfc002b4:	161207dd 	bne	s0,s2,bfc0222c <inst_error>
bfc002b8:	00000000 	nop
bfc002bc:	3c083a4b 	lui	t0,0x3a4b
bfc002c0:	35083d1e 	ori	t0,t0,0x3d1e
bfc002c4:	24090000 	li	t1,0
bfc002c8:	00088003 	sra	s0,t0,0x0
bfc002cc:	3c123a4b 	lui	s2,0x3a4b
bfc002d0:	36523d1e 	ori	s2,s2,0x3d1e
bfc002d4:	161207d5 	bne	s0,s2,bfc0222c <inst_error>
bfc002d8:	00000000 	nop
bfc002dc:	3c0884da 	lui	t0,0x84da
bfc002e0:	35086ec0 	ori	t0,t0,0x6ec0
bfc002e4:	24090004 	li	t1,4
bfc002e8:	00088103 	sra	s0,t0,0x4
bfc002ec:	3c12f84d 	lui	s2,0xf84d
bfc002f0:	3652a6ec 	ori	s2,s2,0xa6ec
bfc002f4:	161207cd 	bne	s0,s2,bfc0222c <inst_error>
bfc002f8:	00000000 	nop
bfc002fc:	3c0824c0 	lui	t0,0x24c0
bfc00300:	35084ab8 	ori	t0,t0,0x4ab8
bfc00304:	24090016 	li	t1,22
bfc00308:	00088583 	sra	s0,t0,0x16
bfc0030c:	24120093 	li	s2,147
bfc00310:	161207c6 	bne	s0,s2,bfc0222c <inst_error>
bfc00314:	00000000 	nop
bfc00318:	3c0806e7 	lui	t0,0x6e7
bfc0031c:	35085c47 	ori	t0,t0,0x5c47
bfc00320:	24090013 	li	t1,19
bfc00324:	000884c3 	sra	s0,t0,0x13
bfc00328:	241200dc 	li	s2,220
bfc0032c:	161207bf 	bne	s0,s2,bfc0222c <inst_error>
bfc00330:	00000000 	nop
bfc00334:	3c089815 	lui	t0,0x9815
bfc00338:	3508a4b4 	ori	t0,t0,0xa4b4
bfc0033c:	24090012 	li	t1,18
bfc00340:	00088483 	sra	s0,t0,0x12
bfc00344:	2412e605 	li	s2,-6651
bfc00348:	161207b8 	bne	s0,s2,bfc0222c <inst_error>
bfc0034c:	00000000 	nop
bfc00350:	3c08d5fa 	lui	t0,0xd5fa
bfc00354:	35081c22 	ori	t0,t0,0x1c22
bfc00358:	2409000f 	li	t1,15
bfc0035c:	000883c3 	sra	s0,t0,0xf
bfc00360:	2412abf4 	li	s2,-21516
bfc00364:	161207b1 	bne	s0,s2,bfc0222c <inst_error>
bfc00368:	00000000 	nop
bfc0036c:	3c081f8b 	lui	t0,0x1f8b
bfc00370:	35082568 	ori	t0,t0,0x2568
bfc00374:	24090013 	li	t1,19
bfc00378:	000884c3 	sra	s0,t0,0x13
bfc0037c:	241203f1 	li	s2,1009
bfc00380:	161207aa 	bne	s0,s2,bfc0222c <inst_error>
bfc00384:	00000000 	nop
bfc00388:	3c08ee56 	lui	t0,0xee56
bfc0038c:	35083feb 	ori	t0,t0,0x3feb
bfc00390:	24090009 	li	t1,9
bfc00394:	00088243 	sra	s0,t0,0x9
bfc00398:	3c12fff7 	lui	s2,0xfff7
bfc0039c:	36522b1f 	ori	s2,s2,0x2b1f
bfc003a0:	161207a2 	bne	s0,s2,bfc0222c <inst_error>
bfc003a4:	00000000 	nop
bfc003a8:	3c08c801 	lui	t0,0xc801
bfc003ac:	3508a880 	ori	t0,t0,0xa880
bfc003b0:	24090006 	li	t1,6
bfc003b4:	00088183 	sra	s0,t0,0x6
bfc003b8:	3c12ff20 	lui	s2,0xff20
bfc003bc:	365206a2 	ori	s2,s2,0x6a2
bfc003c0:	1612079a 	bne	s0,s2,bfc0222c <inst_error>
bfc003c4:	00000000 	nop
bfc003c8:	3c081c3c 	lui	t0,0x1c3c
bfc003cc:	35083198 	ori	t0,t0,0x3198
bfc003d0:	2409000b 	li	t1,11
bfc003d4:	000882c3 	sra	s0,t0,0xb
bfc003d8:	3c120003 	lui	s2,0x3
bfc003dc:	36528786 	ori	s2,s2,0x8786
bfc003e0:	16120792 	bne	s0,s2,bfc0222c <inst_error>
bfc003e4:	00000000 	nop
bfc003e8:	3c08e278 	lui	t0,0xe278
bfc003ec:	3508af58 	ori	t0,t0,0xaf58
bfc003f0:	2409000c 	li	t1,12
bfc003f4:	00088303 	sra	s0,t0,0xc
bfc003f8:	3c12fffe 	lui	s2,0xfffe
bfc003fc:	3652278a 	ori	s2,s2,0x278a
bfc00400:	1612078a 	bne	s0,s2,bfc0222c <inst_error>
bfc00404:	00000000 	nop
bfc00408:	3c082e3d 	lui	t0,0x2e3d
bfc0040c:	3508827c 	ori	t0,t0,0x827c
bfc00410:	2409001a 	li	t1,26
bfc00414:	00088683 	sra	s0,t0,0x1a
bfc00418:	2412000b 	li	s2,11
bfc0041c:	16120783 	bne	s0,s2,bfc0222c <inst_error>
bfc00420:	00000000 	nop
bfc00424:	3c087209 	lui	t0,0x7209
bfc00428:	3508a862 	ori	t0,t0,0xa862
bfc0042c:	24090004 	li	t1,4
bfc00430:	00088103 	sra	s0,t0,0x4
bfc00434:	3c120720 	lui	s2,0x720
bfc00438:	36529a86 	ori	s2,s2,0x9a86
bfc0043c:	1612077b 	bne	s0,s2,bfc0222c <inst_error>
bfc00440:	00000000 	nop
bfc00444:	3c0810c3 	lui	t0,0x10c3
bfc00448:	35086533 	ori	t0,t0,0x6533
bfc0044c:	24090000 	li	t1,0
bfc00450:	00088003 	sra	s0,t0,0x0
bfc00454:	3c1210c3 	lui	s2,0x10c3
bfc00458:	36526533 	ori	s2,s2,0x6533
bfc0045c:	16120773 	bne	s0,s2,bfc0222c <inst_error>
bfc00460:	00000000 	nop
bfc00464:	3c08c9cb 	lui	t0,0xc9cb
bfc00468:	3508745e 	ori	t0,t0,0x745e
bfc0046c:	2409001f 	li	t1,31
bfc00470:	000887c3 	sra	s0,t0,0x1f
bfc00474:	2412ffff 	li	s2,-1
bfc00478:	1612076c 	bne	s0,s2,bfc0222c <inst_error>
bfc0047c:	00000000 	nop
bfc00480:	3c0822c6 	lui	t0,0x22c6
bfc00484:	35084374 	ori	t0,t0,0x4374
bfc00488:	24090009 	li	t1,9
bfc0048c:	00088243 	sra	s0,t0,0x9
bfc00490:	3c120011 	lui	s2,0x11
bfc00494:	36526321 	ori	s2,s2,0x6321
bfc00498:	16120764 	bne	s0,s2,bfc0222c <inst_error>
bfc0049c:	00000000 	nop
bfc004a0:	3c08d051 	lui	t0,0xd051
bfc004a4:	3508e8fc 	ori	t0,t0,0xe8fc
bfc004a8:	24090019 	li	t1,25
bfc004ac:	00088643 	sra	s0,t0,0x19
bfc004b0:	2412ffe8 	li	s2,-24
bfc004b4:	1612075d 	bne	s0,s2,bfc0222c <inst_error>
bfc004b8:	00000000 	nop
bfc004bc:	3c080382 	lui	t0,0x382
bfc004c0:	3508ebe0 	ori	t0,t0,0xebe0
bfc004c4:	2409001e 	li	t1,30
bfc004c8:	00088783 	sra	s0,t0,0x1e
bfc004cc:	24120000 	li	s2,0
bfc004d0:	16120756 	bne	s0,s2,bfc0222c <inst_error>
bfc004d4:	00000000 	nop
bfc004d8:	3c08390b 	lui	t0,0x390b
bfc004dc:	35085258 	ori	t0,t0,0x5258
bfc004e0:	24090002 	li	t1,2
bfc004e4:	00088083 	sra	s0,t0,0x2
bfc004e8:	3c120e42 	lui	s2,0xe42
bfc004ec:	3652d496 	ori	s2,s2,0xd496
bfc004f0:	1612074e 	bne	s0,s2,bfc0222c <inst_error>
bfc004f4:	00000000 	nop
bfc004f8:	3c087330 	lui	t0,0x7330
bfc004fc:	350864c0 	ori	t0,t0,0x64c0
bfc00500:	24090000 	li	t1,0
bfc00504:	00088003 	sra	s0,t0,0x0
bfc00508:	3c127330 	lui	s2,0x7330
bfc0050c:	365264c0 	ori	s2,s2,0x64c0
bfc00510:	16120746 	bne	s0,s2,bfc0222c <inst_error>
bfc00514:	00000000 	nop
bfc00518:	3c080674 	lui	t0,0x674
bfc0051c:	35084d47 	ori	t0,t0,0x4d47
bfc00520:	24090018 	li	t1,24
bfc00524:	00088603 	sra	s0,t0,0x18
bfc00528:	24120006 	li	s2,6
bfc0052c:	1612073f 	bne	s0,s2,bfc0222c <inst_error>
bfc00530:	00000000 	nop
bfc00534:	3c085b1a 	lui	t0,0x5b1a
bfc00538:	35086a5c 	ori	t0,t0,0x6a5c
bfc0053c:	2409001c 	li	t1,28
bfc00540:	00088703 	sra	s0,t0,0x1c
bfc00544:	24120005 	li	s2,5
bfc00548:	16120738 	bne	s0,s2,bfc0222c <inst_error>
bfc0054c:	00000000 	nop
bfc00550:	3c08e5d1 	lui	t0,0xe5d1
bfc00554:	3508ea6a 	ori	t0,t0,0xea6a
bfc00558:	24090011 	li	t1,17
bfc0055c:	00088443 	sra	s0,t0,0x11
bfc00560:	2412f2e8 	li	s2,-3352
bfc00564:	16120731 	bne	s0,s2,bfc0222c <inst_error>
bfc00568:	00000000 	nop
bfc0056c:	3c086539 	lui	t0,0x6539
bfc00570:	3508dbe2 	ori	t0,t0,0xdbe2
bfc00574:	24090016 	li	t1,22
bfc00578:	00088583 	sra	s0,t0,0x16
bfc0057c:	24120194 	li	s2,404
bfc00580:	1612072a 	bne	s0,s2,bfc0222c <inst_error>
bfc00584:	00000000 	nop
bfc00588:	3c08ef69 	lui	t0,0xef69
bfc0058c:	35083934 	ori	t0,t0,0x3934
bfc00590:	2409001d 	li	t1,29
bfc00594:	00088743 	sra	s0,t0,0x1d
bfc00598:	2412ffff 	li	s2,-1
bfc0059c:	16120723 	bne	s0,s2,bfc0222c <inst_error>
bfc005a0:	00000000 	nop
bfc005a4:	3c080fbe 	lui	t0,0xfbe
bfc005a8:	3508e4fa 	ori	t0,t0,0xe4fa
bfc005ac:	24090010 	li	t1,16
bfc005b0:	00088403 	sra	s0,t0,0x10
bfc005b4:	24120fbe 	li	s2,4030
bfc005b8:	1612071c 	bne	s0,s2,bfc0222c <inst_error>
bfc005bc:	00000000 	nop
bfc005c0:	3c08a930 	lui	t0,0xa930
bfc005c4:	3508dc54 	ori	t0,t0,0xdc54
bfc005c8:	2409000c 	li	t1,12
bfc005cc:	00088303 	sra	s0,t0,0xc
bfc005d0:	3c12fffa 	lui	s2,0xfffa
bfc005d4:	3652930d 	ori	s2,s2,0x930d
bfc005d8:	16120714 	bne	s0,s2,bfc0222c <inst_error>
bfc005dc:	00000000 	nop
bfc005e0:	3c0880a7 	lui	t0,0x80a7
bfc005e4:	35083726 	ori	t0,t0,0x3726
bfc005e8:	2409001c 	li	t1,28
bfc005ec:	00088703 	sra	s0,t0,0x1c
bfc005f0:	2412fff8 	li	s2,-8
bfc005f4:	1612070d 	bne	s0,s2,bfc0222c <inst_error>
bfc005f8:	00000000 	nop
bfc005fc:	3c08c5af 	lui	t0,0xc5af
bfc00600:	3508631a 	ori	t0,t0,0x631a
bfc00604:	24090009 	li	t1,9
bfc00608:	00088243 	sra	s0,t0,0x9
bfc0060c:	3c12ffe2 	lui	s2,0xffe2
bfc00610:	3652d7b1 	ori	s2,s2,0xd7b1
bfc00614:	16120705 	bne	s0,s2,bfc0222c <inst_error>
bfc00618:	00000000 	nop
bfc0061c:	3c08fce7 	lui	t0,0xfce7
bfc00620:	3508e4a0 	ori	t0,t0,0xe4a0
bfc00624:	2409000e 	li	t1,14
bfc00628:	00088383 	sra	s0,t0,0xe
bfc0062c:	2412f39f 	li	s2,-3169
bfc00630:	161206fe 	bne	s0,s2,bfc0222c <inst_error>
bfc00634:	00000000 	nop
bfc00638:	3c085a56 	lui	t0,0x5a56
bfc0063c:	3508e180 	ori	t0,t0,0xe180
bfc00640:	2409001a 	li	t1,26
bfc00644:	00088683 	sra	s0,t0,0x1a
bfc00648:	24120016 	li	s2,22
bfc0064c:	161206f7 	bne	s0,s2,bfc0222c <inst_error>
bfc00650:	00000000 	nop
bfc00654:	3c082547 	lui	t0,0x2547
bfc00658:	35084b80 	ori	t0,t0,0x4b80
bfc0065c:	24090018 	li	t1,24
bfc00660:	00088603 	sra	s0,t0,0x18
bfc00664:	24120025 	li	s2,37
bfc00668:	161206f0 	bne	s0,s2,bfc0222c <inst_error>
bfc0066c:	00000000 	nop
bfc00670:	3c086ace 	lui	t0,0x6ace
bfc00674:	3508e13c 	ori	t0,t0,0xe13c
bfc00678:	24090017 	li	t1,23
bfc0067c:	000885c3 	sra	s0,t0,0x17
bfc00680:	241200d5 	li	s2,213
bfc00684:	161206e9 	bne	s0,s2,bfc0222c <inst_error>
bfc00688:	00000000 	nop
bfc0068c:	3c08ca24 	lui	t0,0xca24
bfc00690:	3508dec8 	ori	t0,t0,0xdec8
bfc00694:	24090013 	li	t1,19
bfc00698:	000884c3 	sra	s0,t0,0x13
bfc0069c:	2412f944 	li	s2,-1724
bfc006a0:	161206e2 	bne	s0,s2,bfc0222c <inst_error>
bfc006a4:	00000000 	nop
bfc006a8:	3c081441 	lui	t0,0x1441
bfc006ac:	3508f330 	ori	t0,t0,0xf330
bfc006b0:	2409001f 	li	t1,31
bfc006b4:	000887c3 	sra	s0,t0,0x1f
bfc006b8:	24120000 	li	s2,0
bfc006bc:	161206db 	bne	s0,s2,bfc0222c <inst_error>
bfc006c0:	00000000 	nop
bfc006c4:	3c083d2d 	lui	t0,0x3d2d
bfc006c8:	350805c0 	ori	t0,t0,0x5c0
bfc006cc:	24090017 	li	t1,23
bfc006d0:	000885c3 	sra	s0,t0,0x17
bfc006d4:	2412007a 	li	s2,122
bfc006d8:	161206d4 	bne	s0,s2,bfc0222c <inst_error>
bfc006dc:	00000000 	nop
bfc006e0:	3c087863 	lui	t0,0x7863
bfc006e4:	3508a294 	ori	t0,t0,0xa294
bfc006e8:	24090005 	li	t1,5
bfc006ec:	00088143 	sra	s0,t0,0x5
bfc006f0:	3c1203c3 	lui	s2,0x3c3
bfc006f4:	36521d14 	ori	s2,s2,0x1d14
bfc006f8:	161206cc 	bne	s0,s2,bfc0222c <inst_error>
bfc006fc:	00000000 	nop
bfc00700:	3c080531 	lui	t0,0x531
bfc00704:	3508fa20 	ori	t0,t0,0xfa20
bfc00708:	2409001a 	li	t1,26
bfc0070c:	00088683 	sra	s0,t0,0x1a
bfc00710:	24120001 	li	s2,1
bfc00714:	161206c5 	bne	s0,s2,bfc0222c <inst_error>
bfc00718:	00000000 	nop
bfc0071c:	3c08d49f 	lui	t0,0xd49f
bfc00720:	3508fd00 	ori	t0,t0,0xfd00
bfc00724:	2409000e 	li	t1,14
bfc00728:	00088383 	sra	s0,t0,0xe
bfc0072c:	3c12ffff 	lui	s2,0xffff
bfc00730:	3652527f 	ori	s2,s2,0x527f
bfc00734:	161206bd 	bne	s0,s2,bfc0222c <inst_error>
bfc00738:	00000000 	nop
bfc0073c:	3c08dab9 	lui	t0,0xdab9
bfc00740:	3508a7a0 	ori	t0,t0,0xa7a0
bfc00744:	2409001b 	li	t1,27
bfc00748:	000886c3 	sra	s0,t0,0x1b
bfc0074c:	2412fffb 	li	s2,-5
bfc00750:	161206b6 	bne	s0,s2,bfc0222c <inst_error>
bfc00754:	00000000 	nop
bfc00758:	3c088939 	lui	t0,0x8939
bfc0075c:	3508e0cc 	ori	t0,t0,0xe0cc
bfc00760:	24090009 	li	t1,9
bfc00764:	00088243 	sra	s0,t0,0x9
bfc00768:	3c12ffc4 	lui	s2,0xffc4
bfc0076c:	36529cf0 	ori	s2,s2,0x9cf0
bfc00770:	161206ae 	bne	s0,s2,bfc0222c <inst_error>
bfc00774:	00000000 	nop
bfc00778:	3c0823ab 	lui	t0,0x23ab
bfc0077c:	3508857e 	ori	t0,t0,0x857e
bfc00780:	2409001c 	li	t1,28
bfc00784:	00088703 	sra	s0,t0,0x1c
bfc00788:	24120002 	li	s2,2
bfc0078c:	161206a7 	bne	s0,s2,bfc0222c <inst_error>
bfc00790:	00000000 	nop
bfc00794:	3c08c5ab 	lui	t0,0xc5ab
bfc00798:	35084f94 	ori	t0,t0,0x4f94
bfc0079c:	24090000 	li	t1,0
bfc007a0:	00088003 	sra	s0,t0,0x0
bfc007a4:	3c12c5ab 	lui	s2,0xc5ab
bfc007a8:	36524f94 	ori	s2,s2,0x4f94
bfc007ac:	1612069f 	bne	s0,s2,bfc0222c <inst_error>
bfc007b0:	00000000 	nop
bfc007b4:	3c086d01 	lui	t0,0x6d01
bfc007b8:	35080c88 	ori	t0,t0,0xc88
bfc007bc:	24090000 	li	t1,0
bfc007c0:	00088003 	sra	s0,t0,0x0
bfc007c4:	3c126d01 	lui	s2,0x6d01
bfc007c8:	36520c88 	ori	s2,s2,0xc88
bfc007cc:	16120697 	bne	s0,s2,bfc0222c <inst_error>
bfc007d0:	00000000 	nop
bfc007d4:	3c08d068 	lui	t0,0xd068
bfc007d8:	3508f062 	ori	t0,t0,0xf062
bfc007dc:	2409000f 	li	t1,15
bfc007e0:	000883c3 	sra	s0,t0,0xf
bfc007e4:	2412a0d1 	li	s2,-24367
bfc007e8:	16120690 	bne	s0,s2,bfc0222c <inst_error>
bfc007ec:	00000000 	nop
bfc007f0:	3c08effb 	lui	t0,0xeffb
bfc007f4:	3508be00 	ori	t0,t0,0xbe00
bfc007f8:	2409000b 	li	t1,11
bfc007fc:	000882c3 	sra	s0,t0,0xb
bfc00800:	3c12fffd 	lui	s2,0xfffd
bfc00804:	3652ff77 	ori	s2,s2,0xff77
bfc00808:	16120688 	bne	s0,s2,bfc0222c <inst_error>
bfc0080c:	00000000 	nop
bfc00810:	3c082c8e 	lui	t0,0x2c8e
bfc00814:	350876d0 	ori	t0,t0,0x76d0
bfc00818:	24090013 	li	t1,19
bfc0081c:	000884c3 	sra	s0,t0,0x13
bfc00820:	24120591 	li	s2,1425
bfc00824:	16120681 	bne	s0,s2,bfc0222c <inst_error>
bfc00828:	00000000 	nop
bfc0082c:	3c08dfb2 	lui	t0,0xdfb2
bfc00830:	35082182 	ori	t0,t0,0x2182
bfc00834:	2409001d 	li	t1,29
bfc00838:	00088743 	sra	s0,t0,0x1d
bfc0083c:	2412fffe 	li	s2,-2
bfc00840:	1612067a 	bne	s0,s2,bfc0222c <inst_error>
bfc00844:	00000000 	nop
bfc00848:	3c0897cd 	lui	t0,0x97cd
bfc0084c:	3508c52e 	ori	t0,t0,0xc52e
bfc00850:	24090009 	li	t1,9
bfc00854:	00088243 	sra	s0,t0,0x9
bfc00858:	3c12ffcb 	lui	s2,0xffcb
bfc0085c:	3652e6e2 	ori	s2,s2,0xe6e2
bfc00860:	16120672 	bne	s0,s2,bfc0222c <inst_error>
bfc00864:	00000000 	nop
bfc00868:	3c081f58 	lui	t0,0x1f58
bfc0086c:	35086fc0 	ori	t0,t0,0x6fc0
bfc00870:	24090012 	li	t1,18
bfc00874:	00088483 	sra	s0,t0,0x12
bfc00878:	241207d6 	li	s2,2006
bfc0087c:	1612066b 	bne	s0,s2,bfc0222c <inst_error>
bfc00880:	00000000 	nop
bfc00884:	3c08fd66 	lui	t0,0xfd66
bfc00888:	3508c7c8 	ori	t0,t0,0xc7c8
bfc0088c:	2409000b 	li	t1,11
bfc00890:	000882c3 	sra	s0,t0,0xb
bfc00894:	2412acd8 	li	s2,-21288
bfc00898:	16120664 	bne	s0,s2,bfc0222c <inst_error>
bfc0089c:	00000000 	nop
bfc008a0:	3c084224 	lui	t0,0x4224
bfc008a4:	350826f6 	ori	t0,t0,0x26f6
bfc008a8:	2409000d 	li	t1,13
bfc008ac:	00088343 	sra	s0,t0,0xd
bfc008b0:	3c120002 	lui	s2,0x2
bfc008b4:	36521121 	ori	s2,s2,0x1121
bfc008b8:	1612065c 	bne	s0,s2,bfc0222c <inst_error>
bfc008bc:	00000000 	nop
bfc008c0:	3c081429 	lui	t0,0x1429
bfc008c4:	35082ac0 	ori	t0,t0,0x2ac0
bfc008c8:	24090013 	li	t1,19
bfc008cc:	000884c3 	sra	s0,t0,0x13
bfc008d0:	24120285 	li	s2,645
bfc008d4:	16120655 	bne	s0,s2,bfc0222c <inst_error>
bfc008d8:	00000000 	nop
bfc008dc:	3c0863c2 	lui	t0,0x63c2
bfc008e0:	3508ffce 	ori	t0,t0,0xffce
bfc008e4:	2409001f 	li	t1,31
bfc008e8:	000887c3 	sra	s0,t0,0x1f
bfc008ec:	24120000 	li	s2,0
bfc008f0:	1612064e 	bne	s0,s2,bfc0222c <inst_error>
bfc008f4:	00000000 	nop
bfc008f8:	3c08ffe1 	lui	t0,0xffe1
bfc008fc:	3508ebb8 	ori	t0,t0,0xebb8
bfc00900:	24090003 	li	t1,3
bfc00904:	000880c3 	sra	s0,t0,0x3
bfc00908:	3c12fffc 	lui	s2,0xfffc
bfc0090c:	36523d77 	ori	s2,s2,0x3d77
bfc00910:	16120646 	bne	s0,s2,bfc0222c <inst_error>
bfc00914:	00000000 	nop
bfc00918:	3c08036b 	lui	t0,0x36b
bfc0091c:	35084a60 	ori	t0,t0,0x4a60
bfc00920:	2409001e 	li	t1,30
bfc00924:	00088783 	sra	s0,t0,0x1e
bfc00928:	24120000 	li	s2,0
bfc0092c:	1612063f 	bne	s0,s2,bfc0222c <inst_error>
bfc00930:	00000000 	nop
bfc00934:	3c08b33d 	lui	t0,0xb33d
bfc00938:	35084790 	ori	t0,t0,0x4790
bfc0093c:	24090001 	li	t1,1
bfc00940:	00088043 	sra	s0,t0,0x1
bfc00944:	3c12d99e 	lui	s2,0xd99e
bfc00948:	3652a3c8 	ori	s2,s2,0xa3c8
bfc0094c:	16120637 	bne	s0,s2,bfc0222c <inst_error>
bfc00950:	00000000 	nop
bfc00954:	3c0871b0 	lui	t0,0x71b0
bfc00958:	35081020 	ori	t0,t0,0x1020
bfc0095c:	24090000 	li	t1,0
bfc00960:	00088003 	sra	s0,t0,0x0
bfc00964:	3c1271b0 	lui	s2,0x71b0
bfc00968:	36521020 	ori	s2,s2,0x1020
bfc0096c:	1612062f 	bne	s0,s2,bfc0222c <inst_error>
bfc00970:	00000000 	nop
bfc00974:	3c08b413 	lui	t0,0xb413
bfc00978:	3508127c 	ori	t0,t0,0x127c
bfc0097c:	24090007 	li	t1,7
bfc00980:	000881c3 	sra	s0,t0,0x7
bfc00984:	3c12ff68 	lui	s2,0xff68
bfc00988:	36522624 	ori	s2,s2,0x2624
bfc0098c:	16120627 	bne	s0,s2,bfc0222c <inst_error>
bfc00990:	00000000 	nop
bfc00994:	3c083faf 	lui	t0,0x3faf
bfc00998:	35084b6c 	ori	t0,t0,0x4b6c
bfc0099c:	24090000 	li	t1,0
bfc009a0:	00088003 	sra	s0,t0,0x0
bfc009a4:	3c123faf 	lui	s2,0x3faf
bfc009a8:	36524b6c 	ori	s2,s2,0x4b6c
bfc009ac:	1612061f 	bne	s0,s2,bfc0222c <inst_error>
bfc009b0:	00000000 	nop
bfc009b4:	3c08ebcc 	lui	t0,0xebcc
bfc009b8:	350828c0 	ori	t0,t0,0x28c0
bfc009bc:	2409000e 	li	t1,14
bfc009c0:	00088383 	sra	s0,t0,0xe
bfc009c4:	2412af30 	li	s2,-20688
bfc009c8:	16120618 	bne	s0,s2,bfc0222c <inst_error>
bfc009cc:	00000000 	nop
bfc009d0:	3c089381 	lui	t0,0x9381
bfc009d4:	35081ad8 	ori	t0,t0,0x1ad8
bfc009d8:	2409001e 	li	t1,30
bfc009dc:	00088783 	sra	s0,t0,0x1e
bfc009e0:	2412fffe 	li	s2,-2
bfc009e4:	16120611 	bne	s0,s2,bfc0222c <inst_error>
bfc009e8:	00000000 	nop
bfc009ec:	3c0887f9 	lui	t0,0x87f9
bfc009f0:	35089a85 	ori	t0,t0,0x9a85
bfc009f4:	24090016 	li	t1,22
bfc009f8:	00088583 	sra	s0,t0,0x16
bfc009fc:	2412fe1f 	li	s2,-481
bfc00a00:	1612060a 	bne	s0,s2,bfc0222c <inst_error>
bfc00a04:	00000000 	nop
bfc00a08:	3c080fca 	lui	t0,0xfca
bfc00a0c:	3508cc20 	ori	t0,t0,0xcc20
bfc00a10:	2409001c 	li	t1,28
bfc00a14:	00088703 	sra	s0,t0,0x1c
bfc00a18:	24120000 	li	s2,0
bfc00a1c:	16120603 	bne	s0,s2,bfc0222c <inst_error>
bfc00a20:	00000000 	nop
bfc00a24:	3c0815eb 	lui	t0,0x15eb
bfc00a28:	3508957c 	ori	t0,t0,0x957c
bfc00a2c:	24090012 	li	t1,18
bfc00a30:	00088483 	sra	s0,t0,0x12
bfc00a34:	2412057a 	li	s2,1402
bfc00a38:	161205fc 	bne	s0,s2,bfc0222c <inst_error>
bfc00a3c:	00000000 	nop
bfc00a40:	3c082c08 	lui	t0,0x2c08
bfc00a44:	3508d9d4 	ori	t0,t0,0xd9d4
bfc00a48:	24090011 	li	t1,17
bfc00a4c:	00088443 	sra	s0,t0,0x11
bfc00a50:	24121604 	li	s2,5636
bfc00a54:	161205f5 	bne	s0,s2,bfc0222c <inst_error>
bfc00a58:	00000000 	nop
bfc00a5c:	3c08c0f9 	lui	t0,0xc0f9
bfc00a60:	35089191 	ori	t0,t0,0x9191
bfc00a64:	24090012 	li	t1,18
bfc00a68:	00088483 	sra	s0,t0,0x12
bfc00a6c:	2412f03e 	li	s2,-4034
bfc00a70:	161205ee 	bne	s0,s2,bfc0222c <inst_error>
bfc00a74:	00000000 	nop
bfc00a78:	3c08b873 	lui	t0,0xb873
bfc00a7c:	350834be 	ori	t0,t0,0x34be
bfc00a80:	2409001a 	li	t1,26
bfc00a84:	00088683 	sra	s0,t0,0x1a
bfc00a88:	2412ffee 	li	s2,-18
bfc00a8c:	161205e7 	bne	s0,s2,bfc0222c <inst_error>
bfc00a90:	00000000 	nop
bfc00a94:	3c0804fd 	lui	t0,0x4fd
bfc00a98:	3508bd49 	ori	t0,t0,0xbd49
bfc00a9c:	24090013 	li	t1,19
bfc00aa0:	000884c3 	sra	s0,t0,0x13
bfc00aa4:	2412009f 	li	s2,159
bfc00aa8:	161205e0 	bne	s0,s2,bfc0222c <inst_error>
bfc00aac:	00000000 	nop
bfc00ab0:	3c08fd73 	lui	t0,0xfd73
bfc00ab4:	35085780 	ori	t0,t0,0x5780
bfc00ab8:	24090019 	li	t1,25
bfc00abc:	00088643 	sra	s0,t0,0x19
bfc00ac0:	2412fffe 	li	s2,-2
bfc00ac4:	161205d9 	bne	s0,s2,bfc0222c <inst_error>
bfc00ac8:	00000000 	nop
bfc00acc:	3c088578 	lui	t0,0x8578
bfc00ad0:	350856b0 	ori	t0,t0,0x56b0
bfc00ad4:	24090012 	li	t1,18
bfc00ad8:	00088483 	sra	s0,t0,0x12
bfc00adc:	2412e15e 	li	s2,-7842
bfc00ae0:	161205d2 	bne	s0,s2,bfc0222c <inst_error>
bfc00ae4:	00000000 	nop
bfc00ae8:	3c089da2 	lui	t0,0x9da2
bfc00aec:	3508db20 	ori	t0,t0,0xdb20
bfc00af0:	24090018 	li	t1,24
bfc00af4:	00088603 	sra	s0,t0,0x18
bfc00af8:	2412ff9d 	li	s2,-99
bfc00afc:	161205cb 	bne	s0,s2,bfc0222c <inst_error>
bfc00b00:	00000000 	nop
bfc00b04:	3c0802e6 	lui	t0,0x2e6
bfc00b08:	3508d93d 	ori	t0,t0,0xd93d
bfc00b0c:	24090008 	li	t1,8
bfc00b10:	00088203 	sra	s0,t0,0x8
bfc00b14:	3c120002 	lui	s2,0x2
bfc00b18:	3652e6d9 	ori	s2,s2,0xe6d9
bfc00b1c:	161205c3 	bne	s0,s2,bfc0222c <inst_error>
bfc00b20:	00000000 	nop
bfc00b24:	3c080f53 	lui	t0,0xf53
bfc00b28:	3508e81e 	ori	t0,t0,0xe81e
bfc00b2c:	24090004 	li	t1,4
bfc00b30:	00088103 	sra	s0,t0,0x4
bfc00b34:	3c1200f5 	lui	s2,0xf5
bfc00b38:	36523e81 	ori	s2,s2,0x3e81
bfc00b3c:	161205bb 	bne	s0,s2,bfc0222c <inst_error>
bfc00b40:	00000000 	nop
bfc00b44:	3c0801a5 	lui	t0,0x1a5
bfc00b48:	35089436 	ori	t0,t0,0x9436
bfc00b4c:	24090005 	li	t1,5
bfc00b50:	00088143 	sra	s0,t0,0x5
bfc00b54:	3c12000d 	lui	s2,0xd
bfc00b58:	36522ca1 	ori	s2,s2,0x2ca1
bfc00b5c:	161205b3 	bne	s0,s2,bfc0222c <inst_error>
bfc00b60:	00000000 	nop
bfc00b64:	3c085408 	lui	t0,0x5408
bfc00b68:	35081744 	ori	t0,t0,0x1744
bfc00b6c:	24090008 	li	t1,8
bfc00b70:	00088203 	sra	s0,t0,0x8
bfc00b74:	3c120054 	lui	s2,0x54
bfc00b78:	36520817 	ori	s2,s2,0x817
bfc00b7c:	161205ab 	bne	s0,s2,bfc0222c <inst_error>
bfc00b80:	00000000 	nop
bfc00b84:	3c082964 	lui	t0,0x2964
bfc00b88:	35080370 	ori	t0,t0,0x370
bfc00b8c:	2409001e 	li	t1,30
bfc00b90:	00088783 	sra	s0,t0,0x1e
bfc00b94:	24120000 	li	s2,0
bfc00b98:	161205a4 	bne	s0,s2,bfc0222c <inst_error>
bfc00b9c:	00000000 	nop
bfc00ba0:	3c084e27 	lui	t0,0x4e27
bfc00ba4:	35080890 	ori	t0,t0,0x890
bfc00ba8:	24090013 	li	t1,19
bfc00bac:	000884c3 	sra	s0,t0,0x13
bfc00bb0:	241209c4 	li	s2,2500
bfc00bb4:	1612059d 	bne	s0,s2,bfc0222c <inst_error>
bfc00bb8:	00000000 	nop
bfc00bbc:	3c084ead 	lui	t0,0x4ead
bfc00bc0:	35084240 	ori	t0,t0,0x4240
bfc00bc4:	2409001f 	li	t1,31
bfc00bc8:	000887c3 	sra	s0,t0,0x1f
bfc00bcc:	24120000 	li	s2,0
bfc00bd0:	16120596 	bne	s0,s2,bfc0222c <inst_error>
bfc00bd4:	00000000 	nop
bfc00bd8:	3c08dca9 	lui	t0,0xdca9
bfc00bdc:	35081de8 	ori	t0,t0,0x1de8
bfc00be0:	24090013 	li	t1,19
bfc00be4:	000884c3 	sra	s0,t0,0x13
bfc00be8:	2412fb95 	li	s2,-1131
bfc00bec:	1612058f 	bne	s0,s2,bfc0222c <inst_error>
bfc00bf0:	00000000 	nop
bfc00bf4:	3c087c09 	lui	t0,0x7c09
bfc00bf8:	3508aac0 	ori	t0,t0,0xaac0
bfc00bfc:	24090006 	li	t1,6
bfc00c00:	00088183 	sra	s0,t0,0x6
bfc00c04:	3c1201f0 	lui	s2,0x1f0
bfc00c08:	365226ab 	ori	s2,s2,0x26ab
bfc00c0c:	16120587 	bne	s0,s2,bfc0222c <inst_error>
bfc00c10:	00000000 	nop
bfc00c14:	3c084890 	lui	t0,0x4890
bfc00c18:	35080c05 	ori	t0,t0,0xc05
bfc00c1c:	24090014 	li	t1,20
bfc00c20:	00088503 	sra	s0,t0,0x14
bfc00c24:	24120489 	li	s2,1161
bfc00c28:	16120580 	bne	s0,s2,bfc0222c <inst_error>
bfc00c2c:	00000000 	nop
bfc00c30:	3c082cbe 	lui	t0,0x2cbe
bfc00c34:	3508bf40 	ori	t0,t0,0xbf40
bfc00c38:	24090013 	li	t1,19
bfc00c3c:	000884c3 	sra	s0,t0,0x13
bfc00c40:	24120597 	li	s2,1431
bfc00c44:	16120579 	bne	s0,s2,bfc0222c <inst_error>
bfc00c48:	00000000 	nop
bfc00c4c:	3c08f42d 	lui	t0,0xf42d
bfc00c50:	3508a13f 	ori	t0,t0,0xa13f
bfc00c54:	2409001e 	li	t1,30
bfc00c58:	00088783 	sra	s0,t0,0x1e
bfc00c5c:	2412ffff 	li	s2,-1
bfc00c60:	16120572 	bne	s0,s2,bfc0222c <inst_error>
bfc00c64:	00000000 	nop
bfc00c68:	3c08d99c 	lui	t0,0xd99c
bfc00c6c:	35084f6f 	ori	t0,t0,0x4f6f
bfc00c70:	24090018 	li	t1,24
bfc00c74:	00088603 	sra	s0,t0,0x18
bfc00c78:	2412ffd9 	li	s2,-39
bfc00c7c:	1612056b 	bne	s0,s2,bfc0222c <inst_error>
bfc00c80:	00000000 	nop
bfc00c84:	3c080afa 	lui	t0,0xafa
bfc00c88:	3508ed86 	ori	t0,t0,0xed86
bfc00c8c:	24090016 	li	t1,22
bfc00c90:	00088583 	sra	s0,t0,0x16
bfc00c94:	2412002b 	li	s2,43
bfc00c98:	16120564 	bne	s0,s2,bfc0222c <inst_error>
bfc00c9c:	00000000 	nop
bfc00ca0:	3c08091c 	lui	t0,0x91c
bfc00ca4:	35083d00 	ori	t0,t0,0x3d00
bfc00ca8:	2409000c 	li	t1,12
bfc00cac:	00088303 	sra	s0,t0,0xc
bfc00cb0:	341291c3 	li	s2,0x91c3
bfc00cb4:	1612055d 	bne	s0,s2,bfc0222c <inst_error>
bfc00cb8:	00000000 	nop
bfc00cbc:	3c0866d8 	lui	t0,0x66d8
bfc00cc0:	3508faa6 	ori	t0,t0,0xfaa6
bfc00cc4:	24090010 	li	t1,16
bfc00cc8:	00088403 	sra	s0,t0,0x10
bfc00ccc:	241266d8 	li	s2,26328
bfc00cd0:	16120556 	bne	s0,s2,bfc0222c <inst_error>
bfc00cd4:	00000000 	nop
bfc00cd8:	3c0831f3 	lui	t0,0x31f3
bfc00cdc:	35081054 	ori	t0,t0,0x1054
bfc00ce0:	2409000d 	li	t1,13
bfc00ce4:	00088343 	sra	s0,t0,0xd
bfc00ce8:	3c120001 	lui	s2,0x1
bfc00cec:	36528f98 	ori	s2,s2,0x8f98
bfc00cf0:	1612054e 	bne	s0,s2,bfc0222c <inst_error>
bfc00cf4:	00000000 	nop
bfc00cf8:	3c0813a3 	lui	t0,0x13a3
bfc00cfc:	35080cee 	ori	t0,t0,0xcee
bfc00d00:	24090015 	li	t1,21
bfc00d04:	00088543 	sra	s0,t0,0x15
bfc00d08:	2412009d 	li	s2,157
bfc00d0c:	16120547 	bne	s0,s2,bfc0222c <inst_error>
bfc00d10:	00000000 	nop
bfc00d14:	3c08eede 	lui	t0,0xeede
bfc00d18:	3508b7f0 	ori	t0,t0,0xb7f0
bfc00d1c:	2409000c 	li	t1,12
bfc00d20:	00088303 	sra	s0,t0,0xc
bfc00d24:	3c12fffe 	lui	s2,0xfffe
bfc00d28:	3652edeb 	ori	s2,s2,0xedeb
bfc00d2c:	1612053f 	bne	s0,s2,bfc0222c <inst_error>
bfc00d30:	00000000 	nop
bfc00d34:	3c08d51e 	lui	t0,0xd51e
bfc00d38:	35088860 	ori	t0,t0,0x8860
bfc00d3c:	2409001e 	li	t1,30
bfc00d40:	00088783 	sra	s0,t0,0x1e
bfc00d44:	2412ffff 	li	s2,-1
bfc00d48:	16120538 	bne	s0,s2,bfc0222c <inst_error>
bfc00d4c:	00000000 	nop
bfc00d50:	3c08e8e3 	lui	t0,0xe8e3
bfc00d54:	35080aa8 	ori	t0,t0,0xaa8
bfc00d58:	24090007 	li	t1,7
bfc00d5c:	000881c3 	sra	s0,t0,0x7
bfc00d60:	3c12ffd1 	lui	s2,0xffd1
bfc00d64:	3652c615 	ori	s2,s2,0xc615
bfc00d68:	16120530 	bne	s0,s2,bfc0222c <inst_error>
bfc00d6c:	00000000 	nop
bfc00d70:	3c08c36c 	lui	t0,0xc36c
bfc00d74:	3508ae78 	ori	t0,t0,0xae78
bfc00d78:	24090016 	li	t1,22
bfc00d7c:	00088583 	sra	s0,t0,0x16
bfc00d80:	2412ff0d 	li	s2,-243
bfc00d84:	16120529 	bne	s0,s2,bfc0222c <inst_error>
bfc00d88:	00000000 	nop
bfc00d8c:	3c08a866 	lui	t0,0xa866
bfc00d90:	35087186 	ori	t0,t0,0x7186
bfc00d94:	24090013 	li	t1,19
bfc00d98:	000884c3 	sra	s0,t0,0x13
bfc00d9c:	2412f50c 	li	s2,-2804
bfc00da0:	16120522 	bne	s0,s2,bfc0222c <inst_error>
bfc00da4:	00000000 	nop
bfc00da8:	3c087c24 	lui	t0,0x7c24
bfc00dac:	3508aab0 	ori	t0,t0,0xaab0
bfc00db0:	24090004 	li	t1,4
bfc00db4:	00088103 	sra	s0,t0,0x4
bfc00db8:	3c1207c2 	lui	s2,0x7c2
bfc00dbc:	36524aab 	ori	s2,s2,0x4aab
bfc00dc0:	1612051a 	bne	s0,s2,bfc0222c <inst_error>
bfc00dc4:	00000000 	nop
bfc00dc8:	3c08eaa7 	lui	t0,0xeaa7
bfc00dcc:	3508dfa3 	ori	t0,t0,0xdfa3
bfc00dd0:	24090013 	li	t1,19
bfc00dd4:	000884c3 	sra	s0,t0,0x13
bfc00dd8:	2412fd54 	li	s2,-684
bfc00ddc:	16120513 	bne	s0,s2,bfc0222c <inst_error>
bfc00de0:	00000000 	nop
bfc00de4:	3c088c97 	lui	t0,0x8c97
bfc00de8:	3508c385 	ori	t0,t0,0xc385
bfc00dec:	24090002 	li	t1,2
bfc00df0:	00088083 	sra	s0,t0,0x2
bfc00df4:	3c12e325 	lui	s2,0xe325
bfc00df8:	3652f0e1 	ori	s2,s2,0xf0e1
bfc00dfc:	1612050b 	bne	s0,s2,bfc0222c <inst_error>
bfc00e00:	00000000 	nop
bfc00e04:	3c08744e 	lui	t0,0x744e
bfc00e08:	3508be18 	ori	t0,t0,0xbe18
bfc00e0c:	2409001c 	li	t1,28
bfc00e10:	00088703 	sra	s0,t0,0x1c
bfc00e14:	24120007 	li	s2,7
bfc00e18:	16120504 	bne	s0,s2,bfc0222c <inst_error>
bfc00e1c:	00000000 	nop
bfc00e20:	3c08bc9f 	lui	t0,0xbc9f
bfc00e24:	35082d58 	ori	t0,t0,0x2d58
bfc00e28:	24090018 	li	t1,24
bfc00e2c:	00088603 	sra	s0,t0,0x18
bfc00e30:	2412ffbc 	li	s2,-68
bfc00e34:	161204fd 	bne	s0,s2,bfc0222c <inst_error>
bfc00e38:	00000000 	nop
bfc00e3c:	3c087d25 	lui	t0,0x7d25
bfc00e40:	3508b068 	ori	t0,t0,0xb068
bfc00e44:	24090009 	li	t1,9
bfc00e48:	00088243 	sra	s0,t0,0x9
bfc00e4c:	3c12003e 	lui	s2,0x3e
bfc00e50:	365292d8 	ori	s2,s2,0x92d8
bfc00e54:	161204f5 	bne	s0,s2,bfc0222c <inst_error>
bfc00e58:	00000000 	nop
bfc00e5c:	3c08aa4a 	lui	t0,0xaa4a
bfc00e60:	35081e58 	ori	t0,t0,0x1e58
bfc00e64:	2409001d 	li	t1,29
bfc00e68:	00088743 	sra	s0,t0,0x1d
bfc00e6c:	2412fffd 	li	s2,-3
bfc00e70:	161204ee 	bne	s0,s2,bfc0222c <inst_error>
bfc00e74:	00000000 	nop
bfc00e78:	3c082c99 	lui	t0,0x2c99
bfc00e7c:	35082d2c 	ori	t0,t0,0x2d2c
bfc00e80:	24090004 	li	t1,4
bfc00e84:	00088103 	sra	s0,t0,0x4
bfc00e88:	3c1202c9 	lui	s2,0x2c9
bfc00e8c:	365292d2 	ori	s2,s2,0x92d2
bfc00e90:	161204e6 	bne	s0,s2,bfc0222c <inst_error>
bfc00e94:	00000000 	nop
bfc00e98:	3c083093 	lui	t0,0x3093
bfc00e9c:	3508c6fc 	ori	t0,t0,0xc6fc
bfc00ea0:	2409000a 	li	t1,10
bfc00ea4:	00088283 	sra	s0,t0,0xa
bfc00ea8:	3c12000c 	lui	s2,0xc
bfc00eac:	365224f1 	ori	s2,s2,0x24f1
bfc00eb0:	161204de 	bne	s0,s2,bfc0222c <inst_error>
bfc00eb4:	00000000 	nop
bfc00eb8:	3c088020 	lui	t0,0x8020
bfc00ebc:	3508a899 	ori	t0,t0,0xa899
bfc00ec0:	24090005 	li	t1,5
bfc00ec4:	00088143 	sra	s0,t0,0x5
bfc00ec8:	3c12fc01 	lui	s2,0xfc01
bfc00ecc:	36520544 	ori	s2,s2,0x544
bfc00ed0:	161204d6 	bne	s0,s2,bfc0222c <inst_error>
bfc00ed4:	00000000 	nop
bfc00ed8:	3c084e84 	lui	t0,0x4e84
bfc00edc:	3508e3f8 	ori	t0,t0,0xe3f8
bfc00ee0:	24090019 	li	t1,25
bfc00ee4:	00088643 	sra	s0,t0,0x19
bfc00ee8:	24120027 	li	s2,39
bfc00eec:	161204cf 	bne	s0,s2,bfc0222c <inst_error>
bfc00ef0:	00000000 	nop
bfc00ef4:	3c084137 	lui	t0,0x4137
bfc00ef8:	3508c9dc 	ori	t0,t0,0xc9dc
bfc00efc:	24090016 	li	t1,22
bfc00f00:	00088583 	sra	s0,t0,0x16
bfc00f04:	24120104 	li	s2,260
bfc00f08:	161204c8 	bne	s0,s2,bfc0222c <inst_error>
bfc00f0c:	00000000 	nop
bfc00f10:	3c089671 	lui	t0,0x9671
bfc00f14:	3508cf7d 	ori	t0,t0,0xcf7d
bfc00f18:	24090019 	li	t1,25
bfc00f1c:	00088643 	sra	s0,t0,0x19
bfc00f20:	2412ffcb 	li	s2,-53
bfc00f24:	161204c1 	bne	s0,s2,bfc0222c <inst_error>
bfc00f28:	00000000 	nop
bfc00f2c:	3c08df2c 	lui	t0,0xdf2c
bfc00f30:	3508ed02 	ori	t0,t0,0xed02
bfc00f34:	24090006 	li	t1,6
bfc00f38:	00088183 	sra	s0,t0,0x6
bfc00f3c:	3c12ff7c 	lui	s2,0xff7c
bfc00f40:	3652b3b4 	ori	s2,s2,0xb3b4
bfc00f44:	161204b9 	bne	s0,s2,bfc0222c <inst_error>
bfc00f48:	00000000 	nop
bfc00f4c:	3c0814bc 	lui	t0,0x14bc
bfc00f50:	3508f49a 	ori	t0,t0,0xf49a
bfc00f54:	24090003 	li	t1,3
bfc00f58:	000880c3 	sra	s0,t0,0x3
bfc00f5c:	3c120297 	lui	s2,0x297
bfc00f60:	36529e93 	ori	s2,s2,0x9e93
bfc00f64:	161204b1 	bne	s0,s2,bfc0222c <inst_error>
bfc00f68:	00000000 	nop
bfc00f6c:	3c08fd22 	lui	t0,0xfd22
bfc00f70:	35081ecb 	ori	t0,t0,0x1ecb
bfc00f74:	24090004 	li	t1,4
bfc00f78:	00088103 	sra	s0,t0,0x4
bfc00f7c:	3c12ffd2 	lui	s2,0xffd2
bfc00f80:	365221ec 	ori	s2,s2,0x21ec
bfc00f84:	161204a9 	bne	s0,s2,bfc0222c <inst_error>
bfc00f88:	00000000 	nop
bfc00f8c:	3c08a3e4 	lui	t0,0xa3e4
bfc00f90:	35085cfc 	ori	t0,t0,0x5cfc
bfc00f94:	24090001 	li	t1,1
bfc00f98:	00088043 	sra	s0,t0,0x1
bfc00f9c:	3c12d1f2 	lui	s2,0xd1f2
bfc00fa0:	36522e7e 	ori	s2,s2,0x2e7e
bfc00fa4:	161204a1 	bne	s0,s2,bfc0222c <inst_error>
bfc00fa8:	00000000 	nop
bfc00fac:	3c088e0f 	lui	t0,0x8e0f
bfc00fb0:	35081880 	ori	t0,t0,0x1880
bfc00fb4:	24090016 	li	t1,22
bfc00fb8:	00088583 	sra	s0,t0,0x16
bfc00fbc:	2412fe38 	li	s2,-456
bfc00fc0:	1612049a 	bne	s0,s2,bfc0222c <inst_error>
bfc00fc4:	00000000 	nop
bfc00fc8:	3c08587d 	lui	t0,0x587d
bfc00fcc:	350838e8 	ori	t0,t0,0x38e8
bfc00fd0:	24090014 	li	t1,20
bfc00fd4:	00088503 	sra	s0,t0,0x14
bfc00fd8:	24120587 	li	s2,1415
bfc00fdc:	16120493 	bne	s0,s2,bfc0222c <inst_error>
bfc00fe0:	00000000 	nop
bfc00fe4:	3c08d7b1 	lui	t0,0xd7b1
bfc00fe8:	3508ed92 	ori	t0,t0,0xed92
bfc00fec:	24090004 	li	t1,4
bfc00ff0:	00088103 	sra	s0,t0,0x4
bfc00ff4:	3c12fd7b 	lui	s2,0xfd7b
bfc00ff8:	36521ed9 	ori	s2,s2,0x1ed9
bfc00ffc:	1612048b 	bne	s0,s2,bfc0222c <inst_error>
bfc01000:	00000000 	nop
bfc01004:	3c08ab4b 	lui	t0,0xab4b
bfc01008:	35085c70 	ori	t0,t0,0x5c70
bfc0100c:	2409001f 	li	t1,31
bfc01010:	000887c3 	sra	s0,t0,0x1f
bfc01014:	2412ffff 	li	s2,-1
bfc01018:	16120484 	bne	s0,s2,bfc0222c <inst_error>
bfc0101c:	00000000 	nop
bfc01020:	3c0804d6 	lui	t0,0x4d6
bfc01024:	3508db90 	ori	t0,t0,0xdb90
bfc01028:	24090002 	li	t1,2
bfc0102c:	00088083 	sra	s0,t0,0x2
bfc01030:	3c120135 	lui	s2,0x135
bfc01034:	3652b6e4 	ori	s2,s2,0xb6e4
bfc01038:	1612047c 	bne	s0,s2,bfc0222c <inst_error>
bfc0103c:	00000000 	nop
bfc01040:	3c086833 	lui	t0,0x6833
bfc01044:	350861dc 	ori	t0,t0,0x61dc
bfc01048:	24090010 	li	t1,16
bfc0104c:	00088403 	sra	s0,t0,0x10
bfc01050:	24126833 	li	s2,26675
bfc01054:	16120475 	bne	s0,s2,bfc0222c <inst_error>
bfc01058:	00000000 	nop
bfc0105c:	3c088c65 	lui	t0,0x8c65
bfc01060:	3508a380 	ori	t0,t0,0xa380
bfc01064:	24090001 	li	t1,1
bfc01068:	00088043 	sra	s0,t0,0x1
bfc0106c:	3c12c632 	lui	s2,0xc632
bfc01070:	3652d1c0 	ori	s2,s2,0xd1c0
bfc01074:	1612046d 	bne	s0,s2,bfc0222c <inst_error>
bfc01078:	00000000 	nop
bfc0107c:	3c084e8d 	lui	t0,0x4e8d
bfc01080:	3508bfa8 	ori	t0,t0,0xbfa8
bfc01084:	24090012 	li	t1,18
bfc01088:	00088483 	sra	s0,t0,0x12
bfc0108c:	241213a3 	li	s2,5027
bfc01090:	16120466 	bne	s0,s2,bfc0222c <inst_error>
bfc01094:	00000000 	nop
bfc01098:	3c085509 	lui	t0,0x5509
bfc0109c:	35080962 	ori	t0,t0,0x962
bfc010a0:	24090003 	li	t1,3
bfc010a4:	000880c3 	sra	s0,t0,0x3
bfc010a8:	3c120aa1 	lui	s2,0xaa1
bfc010ac:	3652212c 	ori	s2,s2,0x212c
bfc010b0:	1612045e 	bne	s0,s2,bfc0222c <inst_error>
bfc010b4:	00000000 	nop
bfc010b8:	3c089bf8 	lui	t0,0x9bf8
bfc010bc:	3508d806 	ori	t0,t0,0xd806
bfc010c0:	24090014 	li	t1,20
bfc010c4:	00088503 	sra	s0,t0,0x14
bfc010c8:	2412f9bf 	li	s2,-1601
bfc010cc:	16120457 	bne	s0,s2,bfc0222c <inst_error>
bfc010d0:	00000000 	nop
bfc010d4:	3c08d93c 	lui	t0,0xd93c
bfc010d8:	35085146 	ori	t0,t0,0x5146
bfc010dc:	24090018 	li	t1,24
bfc010e0:	00088603 	sra	s0,t0,0x18
bfc010e4:	2412ffd9 	li	s2,-39
bfc010e8:	16120450 	bne	s0,s2,bfc0222c <inst_error>
bfc010ec:	00000000 	nop
bfc010f0:	3c08468d 	lui	t0,0x468d
bfc010f4:	35081289 	ori	t0,t0,0x1289
bfc010f8:	24090000 	li	t1,0
bfc010fc:	00088003 	sra	s0,t0,0x0
bfc01100:	3c12468d 	lui	s2,0x468d
bfc01104:	36521289 	ori	s2,s2,0x1289
bfc01108:	16120448 	bne	s0,s2,bfc0222c <inst_error>
bfc0110c:	00000000 	nop
bfc01110:	3c08b999 	lui	t0,0xb999
bfc01114:	35085520 	ori	t0,t0,0x5520
bfc01118:	24090002 	li	t1,2
bfc0111c:	00088083 	sra	s0,t0,0x2
bfc01120:	3c12ee66 	lui	s2,0xee66
bfc01124:	36525548 	ori	s2,s2,0x5548
bfc01128:	16120440 	bne	s0,s2,bfc0222c <inst_error>
bfc0112c:	00000000 	nop
bfc01130:	3c082437 	lui	t0,0x2437
bfc01134:	3508c860 	ori	t0,t0,0xc860
bfc01138:	2409001c 	li	t1,28
bfc0113c:	00088703 	sra	s0,t0,0x1c
bfc01140:	24120002 	li	s2,2
bfc01144:	16120439 	bne	s0,s2,bfc0222c <inst_error>
bfc01148:	00000000 	nop
bfc0114c:	3c089413 	lui	t0,0x9413
bfc01150:	3508ab40 	ori	t0,t0,0xab40
bfc01154:	24090012 	li	t1,18
bfc01158:	00088483 	sra	s0,t0,0x12
bfc0115c:	2412e504 	li	s2,-6908
bfc01160:	16120432 	bne	s0,s2,bfc0222c <inst_error>
bfc01164:	00000000 	nop
bfc01168:	3c083790 	lui	t0,0x3790
bfc0116c:	350839b2 	ori	t0,t0,0x39b2
bfc01170:	24090003 	li	t1,3
bfc01174:	000880c3 	sra	s0,t0,0x3
bfc01178:	3c1206f2 	lui	s2,0x6f2
bfc0117c:	36520736 	ori	s2,s2,0x736
bfc01180:	1612042a 	bne	s0,s2,bfc0222c <inst_error>
bfc01184:	00000000 	nop
bfc01188:	3c08eac3 	lui	t0,0xeac3
bfc0118c:	35084a48 	ori	t0,t0,0x4a48
bfc01190:	24090002 	li	t1,2
bfc01194:	00088083 	sra	s0,t0,0x2
bfc01198:	3c12fab0 	lui	s2,0xfab0
bfc0119c:	3652d292 	ori	s2,s2,0xd292
bfc011a0:	16120422 	bne	s0,s2,bfc0222c <inst_error>
bfc011a4:	00000000 	nop
bfc011a8:	3c08c7c4 	lui	t0,0xc7c4
bfc011ac:	350848cb 	ori	t0,t0,0x48cb
bfc011b0:	24090013 	li	t1,19
bfc011b4:	000884c3 	sra	s0,t0,0x13
bfc011b8:	2412f8f8 	li	s2,-1800
bfc011bc:	1612041b 	bne	s0,s2,bfc0222c <inst_error>
bfc011c0:	00000000 	nop
bfc011c4:	3c087eaa 	lui	t0,0x7eaa
bfc011c8:	35083b78 	ori	t0,t0,0x3b78
bfc011cc:	24090014 	li	t1,20
bfc011d0:	00088503 	sra	s0,t0,0x14
bfc011d4:	241207ea 	li	s2,2026
bfc011d8:	16120414 	bne	s0,s2,bfc0222c <inst_error>
bfc011dc:	00000000 	nop
bfc011e0:	3c0872e2 	lui	t0,0x72e2
bfc011e4:	35081540 	ori	t0,t0,0x1540
bfc011e8:	24090017 	li	t1,23
bfc011ec:	000885c3 	sra	s0,t0,0x17
bfc011f0:	241200e5 	li	s2,229
bfc011f4:	1612040d 	bne	s0,s2,bfc0222c <inst_error>
bfc011f8:	00000000 	nop
bfc011fc:	3c08d10c 	lui	t0,0xd10c
bfc01200:	350810e8 	ori	t0,t0,0x10e8
bfc01204:	2409000e 	li	t1,14
bfc01208:	00088383 	sra	s0,t0,0xe
bfc0120c:	3c12ffff 	lui	s2,0xffff
bfc01210:	36524430 	ori	s2,s2,0x4430
bfc01214:	16120405 	bne	s0,s2,bfc0222c <inst_error>
bfc01218:	00000000 	nop
bfc0121c:	3c081040 	lui	t0,0x1040
bfc01220:	3508d67e 	ori	t0,t0,0xd67e
bfc01224:	2409000d 	li	t1,13
bfc01228:	00088343 	sra	s0,t0,0xd
bfc0122c:	34128206 	li	s2,0x8206
bfc01230:	161203fe 	bne	s0,s2,bfc0222c <inst_error>
bfc01234:	00000000 	nop
bfc01238:	3c089b41 	lui	t0,0x9b41
bfc0123c:	35082802 	ori	t0,t0,0x2802
bfc01240:	24090016 	li	t1,22
bfc01244:	00088583 	sra	s0,t0,0x16
bfc01248:	2412fe6d 	li	s2,-403
bfc0124c:	161203f7 	bne	s0,s2,bfc0222c <inst_error>
bfc01250:	00000000 	nop
bfc01254:	3c08c927 	lui	t0,0xc927
bfc01258:	35082049 	ori	t0,t0,0x2049
bfc0125c:	24090005 	li	t1,5
bfc01260:	00088143 	sra	s0,t0,0x5
bfc01264:	3c12fe49 	lui	s2,0xfe49
bfc01268:	36523902 	ori	s2,s2,0x3902
bfc0126c:	161203ef 	bne	s0,s2,bfc0222c <inst_error>
bfc01270:	00000000 	nop
bfc01274:	3c0838af 	lui	t0,0x38af
bfc01278:	350837fe 	ori	t0,t0,0x37fe
bfc0127c:	2409001d 	li	t1,29
bfc01280:	00088743 	sra	s0,t0,0x1d
bfc01284:	24120001 	li	s2,1
bfc01288:	161203e8 	bne	s0,s2,bfc0222c <inst_error>
bfc0128c:	00000000 	nop
bfc01290:	3c0877ed 	lui	t0,0x77ed
bfc01294:	3508f5c0 	ori	t0,t0,0xf5c0
bfc01298:	24090000 	li	t1,0
bfc0129c:	00088003 	sra	s0,t0,0x0
bfc012a0:	3c1277ed 	lui	s2,0x77ed
bfc012a4:	3652f5c0 	ori	s2,s2,0xf5c0
bfc012a8:	161203e0 	bne	s0,s2,bfc0222c <inst_error>
bfc012ac:	00000000 	nop
bfc012b0:	3c08fe0d 	lui	t0,0xfe0d
bfc012b4:	3508bb31 	ori	t0,t0,0xbb31
bfc012b8:	2409001c 	li	t1,28
bfc012bc:	00088703 	sra	s0,t0,0x1c
bfc012c0:	2412ffff 	li	s2,-1
bfc012c4:	161203d9 	bne	s0,s2,bfc0222c <inst_error>
bfc012c8:	00000000 	nop
bfc012cc:	3c089416 	lui	t0,0x9416
bfc012d0:	35086944 	ori	t0,t0,0x6944
bfc012d4:	24090002 	li	t1,2
bfc012d8:	00088083 	sra	s0,t0,0x2
bfc012dc:	3c12e505 	lui	s2,0xe505
bfc012e0:	36529a51 	ori	s2,s2,0x9a51
bfc012e4:	161203d1 	bne	s0,s2,bfc0222c <inst_error>
bfc012e8:	00000000 	nop
bfc012ec:	3c084950 	lui	t0,0x4950
bfc012f0:	35088bfc 	ori	t0,t0,0x8bfc
bfc012f4:	24090014 	li	t1,20
bfc012f8:	00088503 	sra	s0,t0,0x14
bfc012fc:	24120495 	li	s2,1173
bfc01300:	161203ca 	bne	s0,s2,bfc0222c <inst_error>
bfc01304:	00000000 	nop
bfc01308:	3c08f42d 	lui	t0,0xf42d
bfc0130c:	35086ea6 	ori	t0,t0,0x6ea6
bfc01310:	2409000d 	li	t1,13
bfc01314:	00088343 	sra	s0,t0,0xd
bfc01318:	2412a16b 	li	s2,-24213
bfc0131c:	161203c3 	bne	s0,s2,bfc0222c <inst_error>
bfc01320:	00000000 	nop
bfc01324:	3c081510 	lui	t0,0x1510
bfc01328:	3508d958 	ori	t0,t0,0xd958
bfc0132c:	2409000c 	li	t1,12
bfc01330:	00088303 	sra	s0,t0,0xc
bfc01334:	3c120001 	lui	s2,0x1
bfc01338:	3652510d 	ori	s2,s2,0x510d
bfc0133c:	161203bb 	bne	s0,s2,bfc0222c <inst_error>
bfc01340:	00000000 	nop
bfc01344:	3c087375 	lui	t0,0x7375
bfc01348:	3508c5e2 	ori	t0,t0,0xc5e2
bfc0134c:	24090016 	li	t1,22
bfc01350:	00088583 	sra	s0,t0,0x16
bfc01354:	241201cd 	li	s2,461
bfc01358:	161203b4 	bne	s0,s2,bfc0222c <inst_error>
bfc0135c:	00000000 	nop
bfc01360:	3c08301c 	lui	t0,0x301c
bfc01364:	35089560 	ori	t0,t0,0x9560
bfc01368:	24090013 	li	t1,19
bfc0136c:	000884c3 	sra	s0,t0,0x13
bfc01370:	24120603 	li	s2,1539
bfc01374:	161203ad 	bne	s0,s2,bfc0222c <inst_error>
bfc01378:	00000000 	nop
bfc0137c:	3c08c014 	lui	t0,0xc014
bfc01380:	35081235 	ori	t0,t0,0x1235
bfc01384:	24090016 	li	t1,22
bfc01388:	00088583 	sra	s0,t0,0x16
bfc0138c:	2412ff00 	li	s2,-256
bfc01390:	161203a6 	bne	s0,s2,bfc0222c <inst_error>
bfc01394:	00000000 	nop
bfc01398:	3c0872b9 	lui	t0,0x72b9
bfc0139c:	35084fa0 	ori	t0,t0,0x4fa0
bfc013a0:	24090007 	li	t1,7
bfc013a4:	000881c3 	sra	s0,t0,0x7
bfc013a8:	3c1200e5 	lui	s2,0xe5
bfc013ac:	3652729f 	ori	s2,s2,0x729f
bfc013b0:	1612039e 	bne	s0,s2,bfc0222c <inst_error>
bfc013b4:	00000000 	nop
bfc013b8:	3c08948c 	lui	t0,0x948c
bfc013bc:	3508b9d0 	ori	t0,t0,0xb9d0
bfc013c0:	24090000 	li	t1,0
bfc013c4:	00088003 	sra	s0,t0,0x0
bfc013c8:	3c12948c 	lui	s2,0x948c
bfc013cc:	3652b9d0 	ori	s2,s2,0xb9d0
bfc013d0:	16120396 	bne	s0,s2,bfc0222c <inst_error>
bfc013d4:	00000000 	nop
bfc013d8:	3c082f11 	lui	t0,0x2f11
bfc013dc:	3508074b 	ori	t0,t0,0x74b
bfc013e0:	2409000a 	li	t1,10
bfc013e4:	00088283 	sra	s0,t0,0xa
bfc013e8:	3c12000b 	lui	s2,0xb
bfc013ec:	3652c441 	ori	s2,s2,0xc441
bfc013f0:	1612038e 	bne	s0,s2,bfc0222c <inst_error>
bfc013f4:	00000000 	nop
bfc013f8:	3c08f5df 	lui	t0,0xf5df
bfc013fc:	35083680 	ori	t0,t0,0x3680
bfc01400:	24090004 	li	t1,4
bfc01404:	00088103 	sra	s0,t0,0x4
bfc01408:	3c12ff5d 	lui	s2,0xff5d
bfc0140c:	3652f368 	ori	s2,s2,0xf368
bfc01410:	16120386 	bne	s0,s2,bfc0222c <inst_error>
bfc01414:	00000000 	nop
bfc01418:	3c0822b8 	lui	t0,0x22b8
bfc0141c:	350811c0 	ori	t0,t0,0x11c0
bfc01420:	2409000e 	li	t1,14
bfc01424:	00088383 	sra	s0,t0,0xe
bfc01428:	34128ae0 	li	s2,0x8ae0
bfc0142c:	1612037f 	bne	s0,s2,bfc0222c <inst_error>
bfc01430:	00000000 	nop
bfc01434:	3c085147 	lui	t0,0x5147
bfc01438:	35083348 	ori	t0,t0,0x3348
bfc0143c:	24090004 	li	t1,4
bfc01440:	00088103 	sra	s0,t0,0x4
bfc01444:	3c120514 	lui	s2,0x514
bfc01448:	36527334 	ori	s2,s2,0x7334
bfc0144c:	16120377 	bne	s0,s2,bfc0222c <inst_error>
bfc01450:	00000000 	nop
bfc01454:	3c08d4e9 	lui	t0,0xd4e9
bfc01458:	35085968 	ori	t0,t0,0x5968
bfc0145c:	2409001b 	li	t1,27
bfc01460:	000886c3 	sra	s0,t0,0x1b
bfc01464:	2412fffa 	li	s2,-6
bfc01468:	16120370 	bne	s0,s2,bfc0222c <inst_error>
bfc0146c:	00000000 	nop
bfc01470:	3c08873e 	lui	t0,0x873e
bfc01474:	35087a20 	ori	t0,t0,0x7a20
bfc01478:	2409000c 	li	t1,12
bfc0147c:	00088303 	sra	s0,t0,0xc
bfc01480:	3c12fff8 	lui	s2,0xfff8
bfc01484:	365273e7 	ori	s2,s2,0x73e7
bfc01488:	16120368 	bne	s0,s2,bfc0222c <inst_error>
bfc0148c:	00000000 	nop
bfc01490:	3c08ea39 	lui	t0,0xea39
bfc01494:	35089857 	ori	t0,t0,0x9857
bfc01498:	2409001b 	li	t1,27
bfc0149c:	000886c3 	sra	s0,t0,0x1b
bfc014a0:	2412fffd 	li	s2,-3
bfc014a4:	16120361 	bne	s0,s2,bfc0222c <inst_error>
bfc014a8:	00000000 	nop
bfc014ac:	3c08d9a4 	lui	t0,0xd9a4
bfc014b0:	35085830 	ori	t0,t0,0x5830
bfc014b4:	2409000d 	li	t1,13
bfc014b8:	00088343 	sra	s0,t0,0xd
bfc014bc:	3c12fffe 	lui	s2,0xfffe
bfc014c0:	3652cd22 	ori	s2,s2,0xcd22
bfc014c4:	16120359 	bne	s0,s2,bfc0222c <inst_error>
bfc014c8:	00000000 	nop
bfc014cc:	3c085888 	lui	t0,0x5888
bfc014d0:	35082860 	ori	t0,t0,0x2860
bfc014d4:	2409000e 	li	t1,14
bfc014d8:	00088383 	sra	s0,t0,0xe
bfc014dc:	3c120001 	lui	s2,0x1
bfc014e0:	36526220 	ori	s2,s2,0x6220
bfc014e4:	16120351 	bne	s0,s2,bfc0222c <inst_error>
bfc014e8:	00000000 	nop
bfc014ec:	3c08b528 	lui	t0,0xb528
bfc014f0:	350828fc 	ori	t0,t0,0x28fc
bfc014f4:	24090000 	li	t1,0
bfc014f8:	00088003 	sra	s0,t0,0x0
bfc014fc:	3c12b528 	lui	s2,0xb528
bfc01500:	365228fc 	ori	s2,s2,0x28fc
bfc01504:	16120349 	bne	s0,s2,bfc0222c <inst_error>
bfc01508:	00000000 	nop
bfc0150c:	3c0834a1 	lui	t0,0x34a1
bfc01510:	3508f968 	ori	t0,t0,0xf968
bfc01514:	2409000b 	li	t1,11
bfc01518:	000882c3 	sra	s0,t0,0xb
bfc0151c:	3c120006 	lui	s2,0x6
bfc01520:	3652943f 	ori	s2,s2,0x943f
bfc01524:	16120341 	bne	s0,s2,bfc0222c <inst_error>
bfc01528:	00000000 	nop
bfc0152c:	3c0863c5 	lui	t0,0x63c5
bfc01530:	35086270 	ori	t0,t0,0x6270
bfc01534:	24090008 	li	t1,8
bfc01538:	00088203 	sra	s0,t0,0x8
bfc0153c:	3c120063 	lui	s2,0x63
bfc01540:	3652c562 	ori	s2,s2,0xc562
bfc01544:	16120339 	bne	s0,s2,bfc0222c <inst_error>
bfc01548:	00000000 	nop
bfc0154c:	3c08d2f1 	lui	t0,0xd2f1
bfc01550:	3508c210 	ori	t0,t0,0xc210
bfc01554:	24090015 	li	t1,21
bfc01558:	00088543 	sra	s0,t0,0x15
bfc0155c:	2412fe97 	li	s2,-361
bfc01560:	16120332 	bne	s0,s2,bfc0222c <inst_error>
bfc01564:	00000000 	nop
bfc01568:	3c0811cc 	lui	t0,0x11cc
bfc0156c:	3508723e 	ori	t0,t0,0x723e
bfc01570:	24090017 	li	t1,23
bfc01574:	000885c3 	sra	s0,t0,0x17
bfc01578:	24120023 	li	s2,35
bfc0157c:	1612032b 	bne	s0,s2,bfc0222c <inst_error>
bfc01580:	00000000 	nop
bfc01584:	3c088b41 	lui	t0,0x8b41
bfc01588:	3508e080 	ori	t0,t0,0xe080
bfc0158c:	24090010 	li	t1,16
bfc01590:	00088403 	sra	s0,t0,0x10
bfc01594:	24128b41 	li	s2,-29887
bfc01598:	16120324 	bne	s0,s2,bfc0222c <inst_error>
bfc0159c:	00000000 	nop
bfc015a0:	3c08ebcc 	lui	t0,0xebcc
bfc015a4:	35084aac 	ori	t0,t0,0x4aac
bfc015a8:	24090011 	li	t1,17
bfc015ac:	00088443 	sra	s0,t0,0x11
bfc015b0:	2412f5e6 	li	s2,-2586
bfc015b4:	1612031d 	bne	s0,s2,bfc0222c <inst_error>
bfc015b8:	00000000 	nop
bfc015bc:	3c08bb1a 	lui	t0,0xbb1a
bfc015c0:	350819e4 	ori	t0,t0,0x19e4
bfc015c4:	24090014 	li	t1,20
bfc015c8:	00088503 	sra	s0,t0,0x14
bfc015cc:	2412fbb1 	li	s2,-1103
bfc015d0:	16120316 	bne	s0,s2,bfc0222c <inst_error>
bfc015d4:	00000000 	nop
bfc015d8:	3c089844 	lui	t0,0x9844
bfc015dc:	350861f4 	ori	t0,t0,0x61f4
bfc015e0:	24090017 	li	t1,23
bfc015e4:	000885c3 	sra	s0,t0,0x17
bfc015e8:	2412ff30 	li	s2,-208
bfc015ec:	1612030f 	bne	s0,s2,bfc0222c <inst_error>
bfc015f0:	00000000 	nop
bfc015f4:	3c087357 	lui	t0,0x7357
bfc015f8:	35088e4a 	ori	t0,t0,0x8e4a
bfc015fc:	2409000e 	li	t1,14
bfc01600:	00088383 	sra	s0,t0,0xe
bfc01604:	3c120001 	lui	s2,0x1
bfc01608:	3652cd5e 	ori	s2,s2,0xcd5e
bfc0160c:	16120307 	bne	s0,s2,bfc0222c <inst_error>
bfc01610:	00000000 	nop
bfc01614:	3c084cf5 	lui	t0,0x4cf5
bfc01618:	3508e100 	ori	t0,t0,0xe100
bfc0161c:	24090015 	li	t1,21
bfc01620:	00088543 	sra	s0,t0,0x15
bfc01624:	24120267 	li	s2,615
bfc01628:	16120300 	bne	s0,s2,bfc0222c <inst_error>
bfc0162c:	00000000 	nop
bfc01630:	3c086174 	lui	t0,0x6174
bfc01634:	3508641c 	ori	t0,t0,0x641c
bfc01638:	2409000f 	li	t1,15
bfc0163c:	000883c3 	sra	s0,t0,0xf
bfc01640:	3412c2e8 	li	s2,0xc2e8
bfc01644:	161202f9 	bne	s0,s2,bfc0222c <inst_error>
bfc01648:	00000000 	nop
bfc0164c:	3c0848fc 	lui	t0,0x48fc
bfc01650:	35083f43 	ori	t0,t0,0x3f43
bfc01654:	2409001f 	li	t1,31
bfc01658:	000887c3 	sra	s0,t0,0x1f
bfc0165c:	24120000 	li	s2,0
bfc01660:	161202f2 	bne	s0,s2,bfc0222c <inst_error>
bfc01664:	00000000 	nop
bfc01668:	3c0833d9 	lui	t0,0x33d9
bfc0166c:	3508efd5 	ori	t0,t0,0xefd5
bfc01670:	24090006 	li	t1,6
bfc01674:	00088183 	sra	s0,t0,0x6
bfc01678:	3c1200cf 	lui	s2,0xcf
bfc0167c:	365267bf 	ori	s2,s2,0x67bf
bfc01680:	161202ea 	bne	s0,s2,bfc0222c <inst_error>
bfc01684:	00000000 	nop
bfc01688:	3c08a5e5 	lui	t0,0xa5e5
bfc0168c:	350817b0 	ori	t0,t0,0x17b0
bfc01690:	24090008 	li	t1,8
bfc01694:	00088203 	sra	s0,t0,0x8
bfc01698:	3c12ffa5 	lui	s2,0xffa5
bfc0169c:	3652e517 	ori	s2,s2,0xe517
bfc016a0:	161202e2 	bne	s0,s2,bfc0222c <inst_error>
bfc016a4:	00000000 	nop
bfc016a8:	3c08f685 	lui	t0,0xf685
bfc016ac:	3508afc2 	ori	t0,t0,0xafc2
bfc016b0:	24090000 	li	t1,0
bfc016b4:	00088003 	sra	s0,t0,0x0
bfc016b8:	3c12f685 	lui	s2,0xf685
bfc016bc:	3652afc2 	ori	s2,s2,0xafc2
bfc016c0:	161202da 	bne	s0,s2,bfc0222c <inst_error>
bfc016c4:	00000000 	nop
bfc016c8:	3c086bee 	lui	t0,0x6bee
bfc016cc:	35082237 	ori	t0,t0,0x2237
bfc016d0:	24090010 	li	t1,16
bfc016d4:	00088403 	sra	s0,t0,0x10
bfc016d8:	24126bee 	li	s2,27630
bfc016dc:	161202d3 	bne	s0,s2,bfc0222c <inst_error>
bfc016e0:	00000000 	nop
bfc016e4:	3c0888b3 	lui	t0,0x88b3
bfc016e8:	3508bac8 	ori	t0,t0,0xbac8
bfc016ec:	24090001 	li	t1,1
bfc016f0:	00088043 	sra	s0,t0,0x1
bfc016f4:	3c12c459 	lui	s2,0xc459
bfc016f8:	3652dd64 	ori	s2,s2,0xdd64
bfc016fc:	161202cb 	bne	s0,s2,bfc0222c <inst_error>
bfc01700:	00000000 	nop
bfc01704:	3c08b3bf 	lui	t0,0xb3bf
bfc01708:	35087ef8 	ori	t0,t0,0x7ef8
bfc0170c:	2409001c 	li	t1,28
bfc01710:	00088703 	sra	s0,t0,0x1c
bfc01714:	2412fffb 	li	s2,-5
bfc01718:	161202c4 	bne	s0,s2,bfc0222c <inst_error>
bfc0171c:	00000000 	nop
bfc01720:	3c087f79 	lui	t0,0x7f79
bfc01724:	35087f19 	ori	t0,t0,0x7f19
bfc01728:	24090000 	li	t1,0
bfc0172c:	00088003 	sra	s0,t0,0x0
bfc01730:	3c127f79 	lui	s2,0x7f79
bfc01734:	36527f19 	ori	s2,s2,0x7f19
bfc01738:	161202bc 	bne	s0,s2,bfc0222c <inst_error>
bfc0173c:	00000000 	nop
bfc01740:	3c088f7b 	lui	t0,0x8f7b
bfc01744:	3508a555 	ori	t0,t0,0xa555
bfc01748:	24090000 	li	t1,0
bfc0174c:	00088003 	sra	s0,t0,0x0
bfc01750:	3c128f7b 	lui	s2,0x8f7b
bfc01754:	3652a555 	ori	s2,s2,0xa555
bfc01758:	161202b4 	bne	s0,s2,bfc0222c <inst_error>
bfc0175c:	00000000 	nop
bfc01760:	3c080dcd 	lui	t0,0xdcd
bfc01764:	35088d14 	ori	t0,t0,0x8d14
bfc01768:	24090000 	li	t1,0
bfc0176c:	00088003 	sra	s0,t0,0x0
bfc01770:	3c120dcd 	lui	s2,0xdcd
bfc01774:	36528d14 	ori	s2,s2,0x8d14
bfc01778:	161202ac 	bne	s0,s2,bfc0222c <inst_error>
bfc0177c:	00000000 	nop
bfc01780:	3c083509 	lui	t0,0x3509
bfc01784:	350845f2 	ori	t0,t0,0x45f2
bfc01788:	24090000 	li	t1,0
bfc0178c:	00088003 	sra	s0,t0,0x0
bfc01790:	3c123509 	lui	s2,0x3509
bfc01794:	365245f2 	ori	s2,s2,0x45f2
bfc01798:	161202a4 	bne	s0,s2,bfc0222c <inst_error>
bfc0179c:	00000000 	nop
bfc017a0:	3c0877a2 	lui	t0,0x77a2
bfc017a4:	3508fba0 	ori	t0,t0,0xfba0
bfc017a8:	24090000 	li	t1,0
bfc017ac:	00088003 	sra	s0,t0,0x0
bfc017b0:	3c1277a2 	lui	s2,0x77a2
bfc017b4:	3652fba0 	ori	s2,s2,0xfba0
bfc017b8:	1612029c 	bne	s0,s2,bfc0222c <inst_error>
bfc017bc:	00000000 	nop
bfc017c0:	3c08beea 	lui	t0,0xbeea
bfc017c4:	3508c5b0 	ori	t0,t0,0xc5b0
bfc017c8:	24090000 	li	t1,0
bfc017cc:	00088003 	sra	s0,t0,0x0
bfc017d0:	3c12beea 	lui	s2,0xbeea
bfc017d4:	3652c5b0 	ori	s2,s2,0xc5b0
bfc017d8:	16120294 	bne	s0,s2,bfc0222c <inst_error>
bfc017dc:	00000000 	nop
bfc017e0:	3c088915 	lui	t0,0x8915
bfc017e4:	35087300 	ori	t0,t0,0x7300
bfc017e8:	24090000 	li	t1,0
bfc017ec:	00088003 	sra	s0,t0,0x0
bfc017f0:	3c128915 	lui	s2,0x8915
bfc017f4:	36527300 	ori	s2,s2,0x7300
bfc017f8:	1612028c 	bne	s0,s2,bfc0222c <inst_error>
bfc017fc:	00000000 	nop
bfc01800:	3c08ab98 	lui	t0,0xab98
bfc01804:	35080008 	ori	t0,t0,0x8
bfc01808:	24090000 	li	t1,0
bfc0180c:	00088003 	sra	s0,t0,0x0
bfc01810:	3c12ab98 	lui	s2,0xab98
bfc01814:	36520008 	ori	s2,s2,0x8
bfc01818:	16120284 	bne	s0,s2,bfc0222c <inst_error>
bfc0181c:	00000000 	nop
bfc01820:	3c08b096 	lui	t0,0xb096
bfc01824:	35088cc0 	ori	t0,t0,0x8cc0
bfc01828:	24090000 	li	t1,0
bfc0182c:	00088003 	sra	s0,t0,0x0
bfc01830:	3c12b096 	lui	s2,0xb096
bfc01834:	36528cc0 	ori	s2,s2,0x8cc0
bfc01838:	1612027c 	bne	s0,s2,bfc0222c <inst_error>
bfc0183c:	00000000 	nop
bfc01840:	3c082ba7 	lui	t0,0x2ba7
bfc01844:	350883e0 	ori	t0,t0,0x83e0
bfc01848:	24090000 	li	t1,0
bfc0184c:	00088003 	sra	s0,t0,0x0
bfc01850:	3c122ba7 	lui	s2,0x2ba7
bfc01854:	365283e0 	ori	s2,s2,0x83e0
bfc01858:	16120274 	bne	s0,s2,bfc0222c <inst_error>
bfc0185c:	00000000 	nop
bfc01860:	3c089547 	lui	t0,0x9547
bfc01864:	35082840 	ori	t0,t0,0x2840
bfc01868:	24090000 	li	t1,0
bfc0186c:	00088003 	sra	s0,t0,0x0
bfc01870:	3c129547 	lui	s2,0x9547
bfc01874:	36522840 	ori	s2,s2,0x2840
bfc01878:	1612026c 	bne	s0,s2,bfc0222c <inst_error>
bfc0187c:	00000000 	nop
bfc01880:	3c0854a4 	lui	t0,0x54a4
bfc01884:	35082cc4 	ori	t0,t0,0x2cc4
bfc01888:	24090000 	li	t1,0
bfc0188c:	00088003 	sra	s0,t0,0x0
bfc01890:	3c1254a4 	lui	s2,0x54a4
bfc01894:	36522cc4 	ori	s2,s2,0x2cc4
bfc01898:	16120264 	bne	s0,s2,bfc0222c <inst_error>
bfc0189c:	00000000 	nop
bfc018a0:	3c08e1b0 	lui	t0,0xe1b0
bfc018a4:	3508264c 	ori	t0,t0,0x264c
bfc018a8:	24090000 	li	t1,0
bfc018ac:	00088003 	sra	s0,t0,0x0
bfc018b0:	3c12e1b0 	lui	s2,0xe1b0
bfc018b4:	3652264c 	ori	s2,s2,0x264c
bfc018b8:	1612025c 	bne	s0,s2,bfc0222c <inst_error>
bfc018bc:	00000000 	nop
bfc018c0:	3c08efa5 	lui	t0,0xefa5
bfc018c4:	35082996 	ori	t0,t0,0x2996
bfc018c8:	24090000 	li	t1,0
bfc018cc:	00088003 	sra	s0,t0,0x0
bfc018d0:	3c12efa5 	lui	s2,0xefa5
bfc018d4:	36522996 	ori	s2,s2,0x2996
bfc018d8:	16120254 	bne	s0,s2,bfc0222c <inst_error>
bfc018dc:	00000000 	nop
bfc018e0:	3c081405 	lui	t0,0x1405
bfc018e4:	35082d21 	ori	t0,t0,0x2d21
bfc018e8:	24090000 	li	t1,0
bfc018ec:	00088003 	sra	s0,t0,0x0
bfc018f0:	3c121405 	lui	s2,0x1405
bfc018f4:	36522d21 	ori	s2,s2,0x2d21
bfc018f8:	1612024c 	bne	s0,s2,bfc0222c <inst_error>
bfc018fc:	00000000 	nop
bfc01900:	3c086258 	lui	t0,0x6258
bfc01904:	35089080 	ori	t0,t0,0x9080
bfc01908:	24090000 	li	t1,0
bfc0190c:	00088003 	sra	s0,t0,0x0
bfc01910:	3c126258 	lui	s2,0x6258
bfc01914:	36529080 	ori	s2,s2,0x9080
bfc01918:	16120244 	bne	s0,s2,bfc0222c <inst_error>
bfc0191c:	00000000 	nop
bfc01920:	3c089079 	lui	t0,0x9079
bfc01924:	35086b7a 	ori	t0,t0,0x6b7a
bfc01928:	24090000 	li	t1,0
bfc0192c:	00088003 	sra	s0,t0,0x0
bfc01930:	3c129079 	lui	s2,0x9079
bfc01934:	36526b7a 	ori	s2,s2,0x6b7a
bfc01938:	1612023c 	bne	s0,s2,bfc0222c <inst_error>
bfc0193c:	00000000 	nop
bfc01940:	3c083ef6 	lui	t0,0x3ef6
bfc01944:	3508da6a 	ori	t0,t0,0xda6a
bfc01948:	24090000 	li	t1,0
bfc0194c:	00088003 	sra	s0,t0,0x0
bfc01950:	3c123ef6 	lui	s2,0x3ef6
bfc01954:	3652da6a 	ori	s2,s2,0xda6a
bfc01958:	16120234 	bne	s0,s2,bfc0222c <inst_error>
bfc0195c:	00000000 	nop
bfc01960:	3c08f341 	lui	t0,0xf341
bfc01964:	35080560 	ori	t0,t0,0x560
bfc01968:	24090000 	li	t1,0
bfc0196c:	00088003 	sra	s0,t0,0x0
bfc01970:	3c12f341 	lui	s2,0xf341
bfc01974:	36520560 	ori	s2,s2,0x560
bfc01978:	1612022c 	bne	s0,s2,bfc0222c <inst_error>
bfc0197c:	00000000 	nop
bfc01980:	3c0803e7 	lui	t0,0x3e7
bfc01984:	35084280 	ori	t0,t0,0x4280
bfc01988:	24090000 	li	t1,0
bfc0198c:	00088003 	sra	s0,t0,0x0
bfc01990:	3c1203e7 	lui	s2,0x3e7
bfc01994:	36524280 	ori	s2,s2,0x4280
bfc01998:	16120224 	bne	s0,s2,bfc0222c <inst_error>
bfc0199c:	00000000 	nop
bfc019a0:	3c081aab 	lui	t0,0x1aab
bfc019a4:	35085a5c 	ori	t0,t0,0x5a5c
bfc019a8:	24090000 	li	t1,0
bfc019ac:	00088003 	sra	s0,t0,0x0
bfc019b0:	3c121aab 	lui	s2,0x1aab
bfc019b4:	36525a5c 	ori	s2,s2,0x5a5c
bfc019b8:	1612021c 	bne	s0,s2,bfc0222c <inst_error>
bfc019bc:	00000000 	nop
bfc019c0:	3c08a6a1 	lui	t0,0xa6a1
bfc019c4:	35080fe4 	ori	t0,t0,0xfe4
bfc019c8:	24090000 	li	t1,0
bfc019cc:	00088003 	sra	s0,t0,0x0
bfc019d0:	3c12a6a1 	lui	s2,0xa6a1
bfc019d4:	36520fe4 	ori	s2,s2,0xfe4
bfc019d8:	16120214 	bne	s0,s2,bfc0222c <inst_error>
bfc019dc:	00000000 	nop
bfc019e0:	3c08cac0 	lui	t0,0xcac0
bfc019e4:	3508c1b9 	ori	t0,t0,0xc1b9
bfc019e8:	24090000 	li	t1,0
bfc019ec:	00088003 	sra	s0,t0,0x0
bfc019f0:	3c12cac0 	lui	s2,0xcac0
bfc019f4:	3652c1b9 	ori	s2,s2,0xc1b9
bfc019f8:	1612020c 	bne	s0,s2,bfc0222c <inst_error>
bfc019fc:	00000000 	nop
bfc01a00:	3c082335 	lui	t0,0x2335
bfc01a04:	35082364 	ori	t0,t0,0x2364
bfc01a08:	24090000 	li	t1,0
bfc01a0c:	00088003 	sra	s0,t0,0x0
bfc01a10:	3c122335 	lui	s2,0x2335
bfc01a14:	36522364 	ori	s2,s2,0x2364
bfc01a18:	16120204 	bne	s0,s2,bfc0222c <inst_error>
bfc01a1c:	00000000 	nop
bfc01a20:	3c088d88 	lui	t0,0x8d88
bfc01a24:	350829da 	ori	t0,t0,0x29da
bfc01a28:	24090000 	li	t1,0
bfc01a2c:	00088003 	sra	s0,t0,0x0
bfc01a30:	3c128d88 	lui	s2,0x8d88
bfc01a34:	365229da 	ori	s2,s2,0x29da
bfc01a38:	161201fc 	bne	s0,s2,bfc0222c <inst_error>
bfc01a3c:	00000000 	nop
bfc01a40:	3c08db2c 	lui	t0,0xdb2c
bfc01a44:	3508ad42 	ori	t0,t0,0xad42
bfc01a48:	24090000 	li	t1,0
bfc01a4c:	00088003 	sra	s0,t0,0x0
bfc01a50:	3c12db2c 	lui	s2,0xdb2c
bfc01a54:	3652ad42 	ori	s2,s2,0xad42
bfc01a58:	161201f4 	bne	s0,s2,bfc0222c <inst_error>
bfc01a5c:	00000000 	nop
bfc01a60:	3c080701 	lui	t0,0x701
bfc01a64:	3508f144 	ori	t0,t0,0xf144
bfc01a68:	24090000 	li	t1,0
bfc01a6c:	00088003 	sra	s0,t0,0x0
bfc01a70:	3c120701 	lui	s2,0x701
bfc01a74:	3652f144 	ori	s2,s2,0xf144
bfc01a78:	161201ec 	bne	s0,s2,bfc0222c <inst_error>
bfc01a7c:	00000000 	nop
bfc01a80:	3c081805 	lui	t0,0x1805
bfc01a84:	350825ad 	ori	t0,t0,0x25ad
bfc01a88:	24090000 	li	t1,0
bfc01a8c:	00088003 	sra	s0,t0,0x0
bfc01a90:	3c121805 	lui	s2,0x1805
bfc01a94:	365225ad 	ori	s2,s2,0x25ad
bfc01a98:	161201e4 	bne	s0,s2,bfc0222c <inst_error>
bfc01a9c:	00000000 	nop
bfc01aa0:	3c08e3c4 	lui	t0,0xe3c4
bfc01aa4:	35084b80 	ori	t0,t0,0x4b80
bfc01aa8:	24090000 	li	t1,0
bfc01aac:	00088003 	sra	s0,t0,0x0
bfc01ab0:	3c12e3c4 	lui	s2,0xe3c4
bfc01ab4:	36524b80 	ori	s2,s2,0x4b80
bfc01ab8:	161201dc 	bne	s0,s2,bfc0222c <inst_error>
bfc01abc:	00000000 	nop
bfc01ac0:	3c08724d 	lui	t0,0x724d
bfc01ac4:	3508b8ee 	ori	t0,t0,0xb8ee
bfc01ac8:	24090000 	li	t1,0
bfc01acc:	00088003 	sra	s0,t0,0x0
bfc01ad0:	3c12724d 	lui	s2,0x724d
bfc01ad4:	3652b8ee 	ori	s2,s2,0xb8ee
bfc01ad8:	161201d4 	bne	s0,s2,bfc0222c <inst_error>
bfc01adc:	00000000 	nop
bfc01ae0:	3c08ba2e 	lui	t0,0xba2e
bfc01ae4:	35085d40 	ori	t0,t0,0x5d40
bfc01ae8:	24090000 	li	t1,0
bfc01aec:	00088003 	sra	s0,t0,0x0
bfc01af0:	3c12ba2e 	lui	s2,0xba2e
bfc01af4:	36525d40 	ori	s2,s2,0x5d40
bfc01af8:	161201cc 	bne	s0,s2,bfc0222c <inst_error>
bfc01afc:	00000000 	nop
bfc01b00:	3c083da9 	lui	t0,0x3da9
bfc01b04:	3508eb4f 	ori	t0,t0,0xeb4f
bfc01b08:	24090000 	li	t1,0
bfc01b0c:	00088003 	sra	s0,t0,0x0
bfc01b10:	3c123da9 	lui	s2,0x3da9
bfc01b14:	3652eb4f 	ori	s2,s2,0xeb4f
bfc01b18:	161201c4 	bne	s0,s2,bfc0222c <inst_error>
bfc01b1c:	00000000 	nop
bfc01b20:	3c08b764 	lui	t0,0xb764
bfc01b24:	3508ab20 	ori	t0,t0,0xab20
bfc01b28:	24090000 	li	t1,0
bfc01b2c:	00088003 	sra	s0,t0,0x0
bfc01b30:	3c12b764 	lui	s2,0xb764
bfc01b34:	3652ab20 	ori	s2,s2,0xab20
bfc01b38:	161201bc 	bne	s0,s2,bfc0222c <inst_error>
bfc01b3c:	00000000 	nop
bfc01b40:	3c08ee4d 	lui	t0,0xee4d
bfc01b44:	35088700 	ori	t0,t0,0x8700
bfc01b48:	24090000 	li	t1,0
bfc01b4c:	00088003 	sra	s0,t0,0x0
bfc01b50:	3c12ee4d 	lui	s2,0xee4d
bfc01b54:	36528700 	ori	s2,s2,0x8700
bfc01b58:	161201b4 	bne	s0,s2,bfc0222c <inst_error>
bfc01b5c:	00000000 	nop
bfc01b60:	3c080643 	lui	t0,0x643
bfc01b64:	35081180 	ori	t0,t0,0x1180
bfc01b68:	24090000 	li	t1,0
bfc01b6c:	00088003 	sra	s0,t0,0x0
bfc01b70:	3c120643 	lui	s2,0x643
bfc01b74:	36521180 	ori	s2,s2,0x1180
bfc01b78:	161201ac 	bne	s0,s2,bfc0222c <inst_error>
bfc01b7c:	00000000 	nop
bfc01b80:	3c080edd 	lui	t0,0xedd
bfc01b84:	35087200 	ori	t0,t0,0x7200
bfc01b88:	24090000 	li	t1,0
bfc01b8c:	00088003 	sra	s0,t0,0x0
bfc01b90:	3c120edd 	lui	s2,0xedd
bfc01b94:	36527200 	ori	s2,s2,0x7200
bfc01b98:	161201a4 	bne	s0,s2,bfc0222c <inst_error>
bfc01b9c:	00000000 	nop
bfc01ba0:	3c088ecf 	lui	t0,0x8ecf
bfc01ba4:	350853b8 	ori	t0,t0,0x53b8
bfc01ba8:	24090000 	li	t1,0
bfc01bac:	00088003 	sra	s0,t0,0x0
bfc01bb0:	3c128ecf 	lui	s2,0x8ecf
bfc01bb4:	365253b8 	ori	s2,s2,0x53b8
bfc01bb8:	1612019c 	bne	s0,s2,bfc0222c <inst_error>
bfc01bbc:	00000000 	nop
bfc01bc0:	3c08b39f 	lui	t0,0xb39f
bfc01bc4:	35085d08 	ori	t0,t0,0x5d08
bfc01bc8:	24090000 	li	t1,0
bfc01bcc:	00088003 	sra	s0,t0,0x0
bfc01bd0:	3c12b39f 	lui	s2,0xb39f
bfc01bd4:	36525d08 	ori	s2,s2,0x5d08
bfc01bd8:	16120194 	bne	s0,s2,bfc0222c <inst_error>
bfc01bdc:	00000000 	nop
bfc01be0:	3c084268 	lui	t0,0x4268
bfc01be4:	35083c3c 	ori	t0,t0,0x3c3c
bfc01be8:	24090000 	li	t1,0
bfc01bec:	00088003 	sra	s0,t0,0x0
bfc01bf0:	3c124268 	lui	s2,0x4268
bfc01bf4:	36523c3c 	ori	s2,s2,0x3c3c
bfc01bf8:	1612018c 	bne	s0,s2,bfc0222c <inst_error>
bfc01bfc:	00000000 	nop
bfc01c00:	3c0828f4 	lui	t0,0x28f4
bfc01c04:	3508fc04 	ori	t0,t0,0xfc04
bfc01c08:	24090000 	li	t1,0
bfc01c0c:	00088003 	sra	s0,t0,0x0
bfc01c10:	3c1228f4 	lui	s2,0x28f4
bfc01c14:	3652fc04 	ori	s2,s2,0xfc04
bfc01c18:	16120184 	bne	s0,s2,bfc0222c <inst_error>
bfc01c1c:	00000000 	nop
bfc01c20:	3c080366 	lui	t0,0x366
bfc01c24:	350830dc 	ori	t0,t0,0x30dc
bfc01c28:	24090000 	li	t1,0
bfc01c2c:	00088003 	sra	s0,t0,0x0
bfc01c30:	3c120366 	lui	s2,0x366
bfc01c34:	365230dc 	ori	s2,s2,0x30dc
bfc01c38:	1612017c 	bne	s0,s2,bfc0222c <inst_error>
bfc01c3c:	00000000 	nop
bfc01c40:	3c08d542 	lui	t0,0xd542
bfc01c44:	3508e318 	ori	t0,t0,0xe318
bfc01c48:	24090000 	li	t1,0
bfc01c4c:	00088003 	sra	s0,t0,0x0
bfc01c50:	3c12d542 	lui	s2,0xd542
bfc01c54:	3652e318 	ori	s2,s2,0xe318
bfc01c58:	16120174 	bne	s0,s2,bfc0222c <inst_error>
bfc01c5c:	00000000 	nop
bfc01c60:	3c085b85 	lui	t0,0x5b85
bfc01c64:	35086f12 	ori	t0,t0,0x6f12
bfc01c68:	24090000 	li	t1,0
bfc01c6c:	00088003 	sra	s0,t0,0x0
bfc01c70:	3c125b85 	lui	s2,0x5b85
bfc01c74:	36526f12 	ori	s2,s2,0x6f12
bfc01c78:	1612016c 	bne	s0,s2,bfc0222c <inst_error>
bfc01c7c:	00000000 	nop
bfc01c80:	3c083bac 	lui	t0,0x3bac
bfc01c84:	35087080 	ori	t0,t0,0x7080
bfc01c88:	24090000 	li	t1,0
bfc01c8c:	00088003 	sra	s0,t0,0x0
bfc01c90:	3c123bac 	lui	s2,0x3bac
bfc01c94:	36527080 	ori	s2,s2,0x7080
bfc01c98:	16120164 	bne	s0,s2,bfc0222c <inst_error>
bfc01c9c:	00000000 	nop
bfc01ca0:	3c08bf82 	lui	t0,0xbf82
bfc01ca4:	35083f9e 	ori	t0,t0,0x3f9e
bfc01ca8:	24090000 	li	t1,0
bfc01cac:	00088003 	sra	s0,t0,0x0
bfc01cb0:	3c12bf82 	lui	s2,0xbf82
bfc01cb4:	36523f9e 	ori	s2,s2,0x3f9e
bfc01cb8:	1612015c 	bne	s0,s2,bfc0222c <inst_error>
bfc01cbc:	00000000 	nop
bfc01cc0:	3c08a242 	lui	t0,0xa242
bfc01cc4:	3508b070 	ori	t0,t0,0xb070
bfc01cc8:	24090000 	li	t1,0
bfc01ccc:	00088003 	sra	s0,t0,0x0
bfc01cd0:	3c12a242 	lui	s2,0xa242
bfc01cd4:	3652b070 	ori	s2,s2,0xb070
bfc01cd8:	16120154 	bne	s0,s2,bfc0222c <inst_error>
bfc01cdc:	00000000 	nop
bfc01ce0:	3c08dbe2 	lui	t0,0xdbe2
bfc01ce4:	3508e930 	ori	t0,t0,0xe930
bfc01ce8:	24090000 	li	t1,0
bfc01cec:	00088003 	sra	s0,t0,0x0
bfc01cf0:	3c12dbe2 	lui	s2,0xdbe2
bfc01cf4:	3652e930 	ori	s2,s2,0xe930
bfc01cf8:	1612014c 	bne	s0,s2,bfc0222c <inst_error>
bfc01cfc:	00000000 	nop
bfc01d00:	3c0812d3 	lui	t0,0x12d3
bfc01d04:	3508cfcc 	ori	t0,t0,0xcfcc
bfc01d08:	24090000 	li	t1,0
bfc01d0c:	00088003 	sra	s0,t0,0x0
bfc01d10:	3c1212d3 	lui	s2,0x12d3
bfc01d14:	3652cfcc 	ori	s2,s2,0xcfcc
bfc01d18:	16120144 	bne	s0,s2,bfc0222c <inst_error>
bfc01d1c:	00000000 	nop
bfc01d20:	3c080ea3 	lui	t0,0xea3
bfc01d24:	3508ee6a 	ori	t0,t0,0xee6a
bfc01d28:	24090000 	li	t1,0
bfc01d2c:	00088003 	sra	s0,t0,0x0
bfc01d30:	3c120ea3 	lui	s2,0xea3
bfc01d34:	3652ee6a 	ori	s2,s2,0xee6a
bfc01d38:	1612013c 	bne	s0,s2,bfc0222c <inst_error>
bfc01d3c:	00000000 	nop
bfc01d40:	3c087666 	lui	t0,0x7666
bfc01d44:	35088ec8 	ori	t0,t0,0x8ec8
bfc01d48:	24090000 	li	t1,0
bfc01d4c:	00088003 	sra	s0,t0,0x0
bfc01d50:	3c127666 	lui	s2,0x7666
bfc01d54:	36528ec8 	ori	s2,s2,0x8ec8
bfc01d58:	16120134 	bne	s0,s2,bfc0222c <inst_error>
bfc01d5c:	00000000 	nop
bfc01d60:	24080000 	li	t0,0
bfc01d64:	2409001f 	li	t1,31
bfc01d68:	000887c3 	sra	s0,t0,0x1f
bfc01d6c:	24120000 	li	s2,0
bfc01d70:	1612012e 	bne	s0,s2,bfc0222c <inst_error>
bfc01d74:	00000000 	nop
bfc01d78:	24080000 	li	t0,0
bfc01d7c:	24090005 	li	t1,5
bfc01d80:	00088143 	sra	s0,t0,0x5
bfc01d84:	24120000 	li	s2,0
bfc01d88:	16120128 	bne	s0,s2,bfc0222c <inst_error>
bfc01d8c:	00000000 	nop
bfc01d90:	24080000 	li	t0,0
bfc01d94:	24090005 	li	t1,5
bfc01d98:	00088143 	sra	s0,t0,0x5
bfc01d9c:	24120000 	li	s2,0
bfc01da0:	16120122 	bne	s0,s2,bfc0222c <inst_error>
bfc01da4:	00000000 	nop
bfc01da8:	24080000 	li	t0,0
bfc01dac:	2409000f 	li	t1,15
bfc01db0:	000883c3 	sra	s0,t0,0xf
bfc01db4:	24120000 	li	s2,0
bfc01db8:	1612011c 	bne	s0,s2,bfc0222c <inst_error>
bfc01dbc:	00000000 	nop
bfc01dc0:	24080000 	li	t0,0
bfc01dc4:	24090003 	li	t1,3
bfc01dc8:	000880c3 	sra	s0,t0,0x3
bfc01dcc:	24120000 	li	s2,0
bfc01dd0:	16120116 	bne	s0,s2,bfc0222c <inst_error>
bfc01dd4:	00000000 	nop
bfc01dd8:	24080000 	li	t0,0
bfc01ddc:	2409001e 	li	t1,30
bfc01de0:	00088783 	sra	s0,t0,0x1e
bfc01de4:	24120000 	li	s2,0
bfc01de8:	16120110 	bne	s0,s2,bfc0222c <inst_error>
bfc01dec:	00000000 	nop
bfc01df0:	24080000 	li	t0,0
bfc01df4:	24090012 	li	t1,18
bfc01df8:	00088483 	sra	s0,t0,0x12
bfc01dfc:	24120000 	li	s2,0
bfc01e00:	1612010a 	bne	s0,s2,bfc0222c <inst_error>
bfc01e04:	00000000 	nop
bfc01e08:	24080000 	li	t0,0
bfc01e0c:	24090018 	li	t1,24
bfc01e10:	00088603 	sra	s0,t0,0x18
bfc01e14:	24120000 	li	s2,0
bfc01e18:	16120104 	bne	s0,s2,bfc0222c <inst_error>
bfc01e1c:	00000000 	nop
bfc01e20:	24080000 	li	t0,0
bfc01e24:	2409000b 	li	t1,11
bfc01e28:	000882c3 	sra	s0,t0,0xb
bfc01e2c:	24120000 	li	s2,0
bfc01e30:	161200fe 	bne	s0,s2,bfc0222c <inst_error>
bfc01e34:	00000000 	nop
bfc01e38:	24080000 	li	t0,0
bfc01e3c:	2409000e 	li	t1,14
bfc01e40:	00088383 	sra	s0,t0,0xe
bfc01e44:	24120000 	li	s2,0
bfc01e48:	161200f8 	bne	s0,s2,bfc0222c <inst_error>
bfc01e4c:	00000000 	nop
bfc01e50:	24080000 	li	t0,0
bfc01e54:	2409000e 	li	t1,14
bfc01e58:	00088383 	sra	s0,t0,0xe
bfc01e5c:	24120000 	li	s2,0
bfc01e60:	161200f2 	bne	s0,s2,bfc0222c <inst_error>
bfc01e64:	00000000 	nop
bfc01e68:	24080000 	li	t0,0
bfc01e6c:	2409000b 	li	t1,11
bfc01e70:	000882c3 	sra	s0,t0,0xb
bfc01e74:	24120000 	li	s2,0
bfc01e78:	161200ec 	bne	s0,s2,bfc0222c <inst_error>
bfc01e7c:	00000000 	nop
bfc01e80:	24080000 	li	t0,0
bfc01e84:	24090008 	li	t1,8
bfc01e88:	00088203 	sra	s0,t0,0x8
bfc01e8c:	24120000 	li	s2,0
bfc01e90:	161200e6 	bne	s0,s2,bfc0222c <inst_error>
bfc01e94:	00000000 	nop
bfc01e98:	24080000 	li	t0,0
bfc01e9c:	2409001d 	li	t1,29
bfc01ea0:	00088743 	sra	s0,t0,0x1d
bfc01ea4:	24120000 	li	s2,0
bfc01ea8:	161200e0 	bne	s0,s2,bfc0222c <inst_error>
bfc01eac:	00000000 	nop
bfc01eb0:	24080000 	li	t0,0
bfc01eb4:	24090017 	li	t1,23
bfc01eb8:	000885c3 	sra	s0,t0,0x17
bfc01ebc:	24120000 	li	s2,0
bfc01ec0:	161200da 	bne	s0,s2,bfc0222c <inst_error>
bfc01ec4:	00000000 	nop
bfc01ec8:	24080000 	li	t0,0
bfc01ecc:	24090016 	li	t1,22
bfc01ed0:	00088583 	sra	s0,t0,0x16
bfc01ed4:	24120000 	li	s2,0
bfc01ed8:	161200d4 	bne	s0,s2,bfc0222c <inst_error>
bfc01edc:	00000000 	nop
bfc01ee0:	24080000 	li	t0,0
bfc01ee4:	24090014 	li	t1,20
bfc01ee8:	00088503 	sra	s0,t0,0x14
bfc01eec:	24120000 	li	s2,0
bfc01ef0:	161200ce 	bne	s0,s2,bfc0222c <inst_error>
bfc01ef4:	00000000 	nop
bfc01ef8:	24080000 	li	t0,0
bfc01efc:	2409000c 	li	t1,12
bfc01f00:	00088303 	sra	s0,t0,0xc
bfc01f04:	24120000 	li	s2,0
bfc01f08:	161200c8 	bne	s0,s2,bfc0222c <inst_error>
bfc01f0c:	00000000 	nop
bfc01f10:	24080000 	li	t0,0
bfc01f14:	2409000e 	li	t1,14
bfc01f18:	00088383 	sra	s0,t0,0xe
bfc01f1c:	24120000 	li	s2,0
bfc01f20:	161200c2 	bne	s0,s2,bfc0222c <inst_error>
bfc01f24:	00000000 	nop
bfc01f28:	24080000 	li	t0,0
bfc01f2c:	2409000e 	li	t1,14
bfc01f30:	00088383 	sra	s0,t0,0xe
bfc01f34:	24120000 	li	s2,0
bfc01f38:	161200bc 	bne	s0,s2,bfc0222c <inst_error>
bfc01f3c:	00000000 	nop
bfc01f40:	24080000 	li	t0,0
bfc01f44:	24090003 	li	t1,3
bfc01f48:	000880c3 	sra	s0,t0,0x3
bfc01f4c:	24120000 	li	s2,0
bfc01f50:	161200b6 	bne	s0,s2,bfc0222c <inst_error>
bfc01f54:	00000000 	nop
bfc01f58:	24080000 	li	t0,0
bfc01f5c:	24090007 	li	t1,7
bfc01f60:	000881c3 	sra	s0,t0,0x7
bfc01f64:	24120000 	li	s2,0
bfc01f68:	161200b0 	bne	s0,s2,bfc0222c <inst_error>
bfc01f6c:	00000000 	nop
bfc01f70:	24080000 	li	t0,0
bfc01f74:	2409001a 	li	t1,26
bfc01f78:	00088683 	sra	s0,t0,0x1a
bfc01f7c:	24120000 	li	s2,0
bfc01f80:	161200aa 	bne	s0,s2,bfc0222c <inst_error>
bfc01f84:	00000000 	nop
bfc01f88:	24080000 	li	t0,0
bfc01f8c:	2409001f 	li	t1,31
bfc01f90:	000887c3 	sra	s0,t0,0x1f
bfc01f94:	24120000 	li	s2,0
bfc01f98:	161200a4 	bne	s0,s2,bfc0222c <inst_error>
bfc01f9c:	00000000 	nop
bfc01fa0:	24080000 	li	t0,0
bfc01fa4:	24090013 	li	t1,19
bfc01fa8:	000884c3 	sra	s0,t0,0x13
bfc01fac:	24120000 	li	s2,0
bfc01fb0:	1612009e 	bne	s0,s2,bfc0222c <inst_error>
bfc01fb4:	00000000 	nop
bfc01fb8:	24080000 	li	t0,0
bfc01fbc:	24090016 	li	t1,22
bfc01fc0:	00088583 	sra	s0,t0,0x16
bfc01fc4:	24120000 	li	s2,0
bfc01fc8:	16120098 	bne	s0,s2,bfc0222c <inst_error>
bfc01fcc:	00000000 	nop
bfc01fd0:	24080000 	li	t0,0
bfc01fd4:	2409000f 	li	t1,15
bfc01fd8:	000883c3 	sra	s0,t0,0xf
bfc01fdc:	24120000 	li	s2,0
bfc01fe0:	16120092 	bne	s0,s2,bfc0222c <inst_error>
bfc01fe4:	00000000 	nop
bfc01fe8:	24080000 	li	t0,0
bfc01fec:	24090016 	li	t1,22
bfc01ff0:	00088583 	sra	s0,t0,0x16
bfc01ff4:	24120000 	li	s2,0
bfc01ff8:	1612008c 	bne	s0,s2,bfc0222c <inst_error>
bfc01ffc:	00000000 	nop
bfc02000:	24080000 	li	t0,0
bfc02004:	24090007 	li	t1,7
bfc02008:	000881c3 	sra	s0,t0,0x7
bfc0200c:	24120000 	li	s2,0
bfc02010:	16120086 	bne	s0,s2,bfc0222c <inst_error>
bfc02014:	00000000 	nop
bfc02018:	24080000 	li	t0,0
bfc0201c:	2409001a 	li	t1,26
bfc02020:	00088683 	sra	s0,t0,0x1a
bfc02024:	24120000 	li	s2,0
bfc02028:	16120080 	bne	s0,s2,bfc0222c <inst_error>
bfc0202c:	00000000 	nop
bfc02030:	24080000 	li	t0,0
bfc02034:	2409000a 	li	t1,10
bfc02038:	00088283 	sra	s0,t0,0xa
bfc0203c:	24120000 	li	s2,0
bfc02040:	1612007a 	bne	s0,s2,bfc0222c <inst_error>
bfc02044:	00000000 	nop
bfc02048:	24080000 	li	t0,0
bfc0204c:	2409001e 	li	t1,30
bfc02050:	00088783 	sra	s0,t0,0x1e
bfc02054:	24120000 	li	s2,0
bfc02058:	16120074 	bne	s0,s2,bfc0222c <inst_error>
bfc0205c:	00000000 	nop
bfc02060:	24080000 	li	t0,0
bfc02064:	2409001f 	li	t1,31
bfc02068:	000887c3 	sra	s0,t0,0x1f
bfc0206c:	24120000 	li	s2,0
bfc02070:	1612006e 	bne	s0,s2,bfc0222c <inst_error>
bfc02074:	00000000 	nop
bfc02078:	24080000 	li	t0,0
bfc0207c:	24090016 	li	t1,22
bfc02080:	00088583 	sra	s0,t0,0x16
bfc02084:	24120000 	li	s2,0
bfc02088:	16120068 	bne	s0,s2,bfc0222c <inst_error>
bfc0208c:	00000000 	nop
bfc02090:	24080000 	li	t0,0
bfc02094:	24090005 	li	t1,5
bfc02098:	00088143 	sra	s0,t0,0x5
bfc0209c:	24120000 	li	s2,0
bfc020a0:	16120062 	bne	s0,s2,bfc0222c <inst_error>
bfc020a4:	00000000 	nop
bfc020a8:	24080000 	li	t0,0
bfc020ac:	2409001d 	li	t1,29
bfc020b0:	00088743 	sra	s0,t0,0x1d
bfc020b4:	24120000 	li	s2,0
bfc020b8:	1612005c 	bne	s0,s2,bfc0222c <inst_error>
bfc020bc:	00000000 	nop
bfc020c0:	24080000 	li	t0,0
bfc020c4:	24090001 	li	t1,1
bfc020c8:	00088043 	sra	s0,t0,0x1
bfc020cc:	24120000 	li	s2,0
bfc020d0:	16120056 	bne	s0,s2,bfc0222c <inst_error>
bfc020d4:	00000000 	nop
bfc020d8:	24080000 	li	t0,0
bfc020dc:	24090018 	li	t1,24
bfc020e0:	00088603 	sra	s0,t0,0x18
bfc020e4:	24120000 	li	s2,0
bfc020e8:	16120050 	bne	s0,s2,bfc0222c <inst_error>
bfc020ec:	00000000 	nop
bfc020f0:	24080000 	li	t0,0
bfc020f4:	24090006 	li	t1,6
bfc020f8:	00088183 	sra	s0,t0,0x6
bfc020fc:	24120000 	li	s2,0
bfc02100:	1612004a 	bne	s0,s2,bfc0222c <inst_error>
bfc02104:	00000000 	nop
bfc02108:	24080000 	li	t0,0
bfc0210c:	2409000e 	li	t1,14
bfc02110:	00088383 	sra	s0,t0,0xe
bfc02114:	24120000 	li	s2,0
bfc02118:	16120044 	bne	s0,s2,bfc0222c <inst_error>
bfc0211c:	00000000 	nop
bfc02120:	24080000 	li	t0,0
bfc02124:	2409001e 	li	t1,30
bfc02128:	00088783 	sra	s0,t0,0x1e
bfc0212c:	24120000 	li	s2,0
bfc02130:	1612003e 	bne	s0,s2,bfc0222c <inst_error>
bfc02134:	00000000 	nop
bfc02138:	24080000 	li	t0,0
bfc0213c:	24090017 	li	t1,23
bfc02140:	000885c3 	sra	s0,t0,0x17
bfc02144:	24120000 	li	s2,0
bfc02148:	16120038 	bne	s0,s2,bfc0222c <inst_error>
bfc0214c:	00000000 	nop
bfc02150:	24080000 	li	t0,0
bfc02154:	24090011 	li	t1,17
bfc02158:	00088443 	sra	s0,t0,0x11
bfc0215c:	24120000 	li	s2,0
bfc02160:	16120032 	bne	s0,s2,bfc0222c <inst_error>
bfc02164:	00000000 	nop
bfc02168:	24080000 	li	t0,0
bfc0216c:	24090002 	li	t1,2
bfc02170:	00088083 	sra	s0,t0,0x2
bfc02174:	24120000 	li	s2,0
bfc02178:	1612002c 	bne	s0,s2,bfc0222c <inst_error>
bfc0217c:	00000000 	nop
bfc02180:	24080000 	li	t0,0
bfc02184:	2409000f 	li	t1,15
bfc02188:	000883c3 	sra	s0,t0,0xf
bfc0218c:	24120000 	li	s2,0
bfc02190:	16120026 	bne	s0,s2,bfc0222c <inst_error>
bfc02194:	00000000 	nop
bfc02198:	24080000 	li	t0,0
bfc0219c:	24090015 	li	t1,21
bfc021a0:	00088543 	sra	s0,t0,0x15
bfc021a4:	24120000 	li	s2,0
bfc021a8:	16120020 	bne	s0,s2,bfc0222c <inst_error>
bfc021ac:	00000000 	nop
bfc021b0:	24080000 	li	t0,0
bfc021b4:	2409001a 	li	t1,26
bfc021b8:	00088683 	sra	s0,t0,0x1a
bfc021bc:	24120000 	li	s2,0
bfc021c0:	1612001a 	bne	s0,s2,bfc0222c <inst_error>
bfc021c4:	00000000 	nop
bfc021c8:	24080000 	li	t0,0
bfc021cc:	24090001 	li	t1,1
bfc021d0:	00088043 	sra	s0,t0,0x1
bfc021d4:	24120000 	li	s2,0
bfc021d8:	16120014 	bne	s0,s2,bfc0222c <inst_error>
bfc021dc:	00000000 	nop
bfc021e0:	24080000 	li	t0,0
bfc021e4:	24090009 	li	t1,9
bfc021e8:	00088243 	sra	s0,t0,0x9
bfc021ec:	24120000 	li	s2,0
bfc021f0:	1612000e 	bne	s0,s2,bfc0222c <inst_error>
bfc021f4:	00000000 	nop
bfc021f8:	24080000 	li	t0,0
bfc021fc:	24090016 	li	t1,22
bfc02200:	00088583 	sra	s0,t0,0x16
bfc02204:	24120000 	li	s2,0
bfc02208:	16120008 	bne	s0,s2,bfc0222c <inst_error>
bfc0220c:	00000000 	nop
bfc02210:	24080000 	li	t0,0
bfc02214:	24090000 	li	t1,0
bfc02218:	00088003 	sra	s0,t0,0x0
bfc0221c:	24120000 	li	s2,0
bfc02220:	16120002 	bne	s0,s2,bfc0222c <inst_error>
bfc02224:	00000000 	nop
bfc02228:	4a000000 	c2	0x0

bfc0222c <inst_error>:
inst_error():
bfc0222c:	0000003f 	0x3f

Disassembly of section .reginfo:

00000000 <.reginfo>:
   0:	00050300 	sll	zero,a1,0xc
	...
