
build/srl:     file format elf32-tradlittlemips
build/srl


Disassembly of section .text:

bfc00000 <main>:
bfc00000:	3c088e8f 	lui	t0,0x8e8f
bfc00004:	3508fce0 	ori	t0,t0,0xfce0
bfc00008:	24090002 	li	t1,2
bfc0000c:	00088082 	srl	s0,t0,0x2
bfc00010:	3c1223a3 	lui	s2,0x23a3
bfc00014:	3652ff38 	ori	s2,s2,0xff38
bfc00018:	16120891 	bne	s0,s2,bfc02260 <inst_error>
bfc0001c:	00000000 	nop
bfc00020:	3c084929 	lui	t0,0x4929
bfc00024:	35081230 	ori	t0,t0,0x1230
bfc00028:	2409000f 	li	t1,15
bfc0002c:	000883c2 	srl	s0,t0,0xf
bfc00030:	34129252 	li	s2,0x9252
bfc00034:	1612088a 	bne	s0,s2,bfc02260 <inst_error>
bfc00038:	00000000 	nop
bfc0003c:	3c0825da 	lui	t0,0x25da
bfc00040:	350868a0 	ori	t0,t0,0x68a0
bfc00044:	24090004 	li	t1,4
bfc00048:	00088102 	srl	s0,t0,0x4
bfc0004c:	3c12025d 	lui	s2,0x25d
bfc00050:	3652a68a 	ori	s2,s2,0xa68a
bfc00054:	16120882 	bne	s0,s2,bfc02260 <inst_error>
bfc00058:	00000000 	nop
bfc0005c:	3c08ecac 	lui	t0,0xecac
bfc00060:	3508f656 	ori	t0,t0,0xf656
bfc00064:	2409000e 	li	t1,14
bfc00068:	00088382 	srl	s0,t0,0xe
bfc0006c:	3c120003 	lui	s2,0x3
bfc00070:	3652b2b3 	ori	s2,s2,0xb2b3
bfc00074:	1612087a 	bne	s0,s2,bfc02260 <inst_error>
bfc00078:	00000000 	nop
bfc0007c:	3c08e7bf 	lui	t0,0xe7bf
bfc00080:	3508c848 	ori	t0,t0,0xc848
bfc00084:	2409001f 	li	t1,31
bfc00088:	000887c2 	srl	s0,t0,0x1f
bfc0008c:	24120001 	li	s2,1
bfc00090:	16120873 	bne	s0,s2,bfc02260 <inst_error>
bfc00094:	00000000 	nop
bfc00098:	3c080011 	lui	t0,0x11
bfc0009c:	35085809 	ori	t0,t0,0x5809
bfc000a0:	2409001f 	li	t1,31
bfc000a4:	000887c2 	srl	s0,t0,0x1f
bfc000a8:	24120000 	li	s2,0
bfc000ac:	1612086c 	bne	s0,s2,bfc02260 <inst_error>
bfc000b0:	00000000 	nop
bfc000b4:	3c087a88 	lui	t0,0x7a88
bfc000b8:	35086604 	ori	t0,t0,0x6604
bfc000bc:	24090019 	li	t1,25
bfc000c0:	00088642 	srl	s0,t0,0x19
bfc000c4:	2412003d 	li	s2,61
bfc000c8:	16120865 	bne	s0,s2,bfc02260 <inst_error>
bfc000cc:	00000000 	nop
bfc000d0:	3c087fe7 	lui	t0,0x7fe7
bfc000d4:	3508a7de 	ori	t0,t0,0xa7de
bfc000d8:	2409000f 	li	t1,15
bfc000dc:	000883c2 	srl	s0,t0,0xf
bfc000e0:	3412ffcf 	li	s2,0xffcf
bfc000e4:	1612085e 	bne	s0,s2,bfc02260 <inst_error>
bfc000e8:	00000000 	nop
bfc000ec:	3c0876c2 	lui	t0,0x76c2
bfc000f0:	35089838 	ori	t0,t0,0x9838
bfc000f4:	24090005 	li	t1,5
bfc000f8:	00088142 	srl	s0,t0,0x5
bfc000fc:	3c1203b6 	lui	s2,0x3b6
bfc00100:	365214c1 	ori	s2,s2,0x14c1
bfc00104:	16120856 	bne	s0,s2,bfc02260 <inst_error>
bfc00108:	00000000 	nop
bfc0010c:	3c08a93f 	lui	t0,0xa93f
bfc00110:	35085944 	ori	t0,t0,0x5944
bfc00114:	24090011 	li	t1,17
bfc00118:	00088442 	srl	s0,t0,0x11
bfc0011c:	2412549f 	li	s2,21663
bfc00120:	1612084f 	bne	s0,s2,bfc02260 <inst_error>
bfc00124:	00000000 	nop
bfc00128:	3c085ec1 	lui	t0,0x5ec1
bfc0012c:	3508c900 	ori	t0,t0,0xc900
bfc00130:	2409001f 	li	t1,31
bfc00134:	000887c2 	srl	s0,t0,0x1f
bfc00138:	24120000 	li	s2,0
bfc0013c:	16120848 	bne	s0,s2,bfc02260 <inst_error>
bfc00140:	00000000 	nop
bfc00144:	3c086098 	lui	t0,0x6098
bfc00148:	3508e740 	ori	t0,t0,0xe740
bfc0014c:	24090006 	li	t1,6
bfc00150:	00088182 	srl	s0,t0,0x6
bfc00154:	3c120182 	lui	s2,0x182
bfc00158:	3652639d 	ori	s2,s2,0x639d
bfc0015c:	16120840 	bne	s0,s2,bfc02260 <inst_error>
bfc00160:	00000000 	nop
bfc00164:	3c089181 	lui	t0,0x9181
bfc00168:	35086b68 	ori	t0,t0,0x6b68
bfc0016c:	24090019 	li	t1,25
bfc00170:	00088642 	srl	s0,t0,0x19
bfc00174:	24120048 	li	s2,72
bfc00178:	16120839 	bne	s0,s2,bfc02260 <inst_error>
bfc0017c:	00000000 	nop
bfc00180:	3c089bca 	lui	t0,0x9bca
bfc00184:	35083384 	ori	t0,t0,0x3384
bfc00188:	24090013 	li	t1,19
bfc0018c:	000884c2 	srl	s0,t0,0x13
bfc00190:	24121379 	li	s2,4985
bfc00194:	16120832 	bne	s0,s2,bfc02260 <inst_error>
bfc00198:	00000000 	nop
bfc0019c:	3c08c389 	lui	t0,0xc389
bfc001a0:	35085628 	ori	t0,t0,0x5628
bfc001a4:	2409000e 	li	t1,14
bfc001a8:	00088382 	srl	s0,t0,0xe
bfc001ac:	3c120003 	lui	s2,0x3
bfc001b0:	36520e25 	ori	s2,s2,0xe25
bfc001b4:	1612082a 	bne	s0,s2,bfc02260 <inst_error>
bfc001b8:	00000000 	nop
bfc001bc:	3c088fe9 	lui	t0,0x8fe9
bfc001c0:	35089e00 	ori	t0,t0,0x9e00
bfc001c4:	24090003 	li	t1,3
bfc001c8:	000880c2 	srl	s0,t0,0x3
bfc001cc:	3c1211fd 	lui	s2,0x11fd
bfc001d0:	365233c0 	ori	s2,s2,0x33c0
bfc001d4:	16120822 	bne	s0,s2,bfc02260 <inst_error>
bfc001d8:	00000000 	nop
bfc001dc:	3c08cae3 	lui	t0,0xcae3
bfc001e0:	35088c68 	ori	t0,t0,0x8c68
bfc001e4:	2409000f 	li	t1,15
bfc001e8:	000883c2 	srl	s0,t0,0xf
bfc001ec:	3c120001 	lui	s2,0x1
bfc001f0:	365295c7 	ori	s2,s2,0x95c7
bfc001f4:	1612081a 	bne	s0,s2,bfc02260 <inst_error>
bfc001f8:	00000000 	nop
bfc001fc:	3c08e2c8 	lui	t0,0xe2c8
bfc00200:	350828e8 	ori	t0,t0,0x28e8
bfc00204:	2409000b 	li	t1,11
bfc00208:	000882c2 	srl	s0,t0,0xb
bfc0020c:	3c12001c 	lui	s2,0x1c
bfc00210:	36525905 	ori	s2,s2,0x5905
bfc00214:	16120812 	bne	s0,s2,bfc02260 <inst_error>
bfc00218:	00000000 	nop
bfc0021c:	3c084b95 	lui	t0,0x4b95
bfc00220:	3508ed24 	ori	t0,t0,0xed24
bfc00224:	24090004 	li	t1,4
bfc00228:	00088102 	srl	s0,t0,0x4
bfc0022c:	3c1204b9 	lui	s2,0x4b9
bfc00230:	36525ed2 	ori	s2,s2,0x5ed2
bfc00234:	1612080a 	bne	s0,s2,bfc02260 <inst_error>
bfc00238:	00000000 	nop
bfc0023c:	3c083047 	lui	t0,0x3047
bfc00240:	3508310f 	ori	t0,t0,0x310f
bfc00244:	2409000d 	li	t1,13
bfc00248:	00088342 	srl	s0,t0,0xd
bfc0024c:	3c120001 	lui	s2,0x1
bfc00250:	36528239 	ori	s2,s2,0x8239
bfc00254:	16120802 	bne	s0,s2,bfc02260 <inst_error>
bfc00258:	00000000 	nop
bfc0025c:	3c086ef2 	lui	t0,0x6ef2
bfc00260:	35086b90 	ori	t0,t0,0x6b90
bfc00264:	24090000 	li	t1,0
bfc00268:	00088002 	srl	s0,t0,0x0
bfc0026c:	3c126ef2 	lui	s2,0x6ef2
bfc00270:	36526b90 	ori	s2,s2,0x6b90
bfc00274:	161207fa 	bne	s0,s2,bfc02260 <inst_error>
bfc00278:	00000000 	nop
bfc0027c:	3c0815f0 	lui	t0,0x15f0
bfc00280:	3508f288 	ori	t0,t0,0xf288
bfc00284:	2409000a 	li	t1,10
bfc00288:	00088282 	srl	s0,t0,0xa
bfc0028c:	3c120005 	lui	s2,0x5
bfc00290:	36527c3c 	ori	s2,s2,0x7c3c
bfc00294:	161207f2 	bne	s0,s2,bfc02260 <inst_error>
bfc00298:	00000000 	nop
bfc0029c:	3c082c6d 	lui	t0,0x2c6d
bfc002a0:	350899c8 	ori	t0,t0,0x99c8
bfc002a4:	2409000b 	li	t1,11
bfc002a8:	000882c2 	srl	s0,t0,0xb
bfc002ac:	3c120005 	lui	s2,0x5
bfc002b0:	36528db3 	ori	s2,s2,0x8db3
bfc002b4:	161207ea 	bne	s0,s2,bfc02260 <inst_error>
bfc002b8:	00000000 	nop
bfc002bc:	3c08438e 	lui	t0,0x438e
bfc002c0:	3508e8fa 	ori	t0,t0,0xe8fa
bfc002c4:	24090017 	li	t1,23
bfc002c8:	000885c2 	srl	s0,t0,0x17
bfc002cc:	24120087 	li	s2,135
bfc002d0:	161207e3 	bne	s0,s2,bfc02260 <inst_error>
bfc002d4:	00000000 	nop
bfc002d8:	3c08eff6 	lui	t0,0xeff6
bfc002dc:	35088344 	ori	t0,t0,0x8344
bfc002e0:	24090001 	li	t1,1
bfc002e4:	00088042 	srl	s0,t0,0x1
bfc002e8:	3c1277fb 	lui	s2,0x77fb
bfc002ec:	365241a2 	ori	s2,s2,0x41a2
bfc002f0:	161207db 	bne	s0,s2,bfc02260 <inst_error>
bfc002f4:	00000000 	nop
bfc002f8:	3c080d15 	lui	t0,0xd15
bfc002fc:	350842d0 	ori	t0,t0,0x42d0
bfc00300:	24090001 	li	t1,1
bfc00304:	00088042 	srl	s0,t0,0x1
bfc00308:	3c12068a 	lui	s2,0x68a
bfc0030c:	3652a168 	ori	s2,s2,0xa168
bfc00310:	161207d3 	bne	s0,s2,bfc02260 <inst_error>
bfc00314:	00000000 	nop
bfc00318:	3c08e809 	lui	t0,0xe809
bfc0031c:	35085d20 	ori	t0,t0,0x5d20
bfc00320:	2409000d 	li	t1,13
bfc00324:	00088342 	srl	s0,t0,0xd
bfc00328:	3c120007 	lui	s2,0x7
bfc0032c:	3652404a 	ori	s2,s2,0x404a
bfc00330:	161207cb 	bne	s0,s2,bfc02260 <inst_error>
bfc00334:	00000000 	nop
bfc00338:	3c08afdd 	lui	t0,0xafdd
bfc0033c:	35082416 	ori	t0,t0,0x2416
bfc00340:	24090003 	li	t1,3
bfc00344:	000880c2 	srl	s0,t0,0x3
bfc00348:	3c1215fb 	lui	s2,0x15fb
bfc0034c:	3652a482 	ori	s2,s2,0xa482
bfc00350:	161207c3 	bne	s0,s2,bfc02260 <inst_error>
bfc00354:	00000000 	nop
bfc00358:	3c083d6b 	lui	t0,0x3d6b
bfc0035c:	3508dbfc 	ori	t0,t0,0xdbfc
bfc00360:	24090017 	li	t1,23
bfc00364:	000885c2 	srl	s0,t0,0x17
bfc00368:	2412007a 	li	s2,122
bfc0036c:	161207bc 	bne	s0,s2,bfc02260 <inst_error>
bfc00370:	00000000 	nop
bfc00374:	3c0831be 	lui	t0,0x31be
bfc00378:	35083200 	ori	t0,t0,0x3200
bfc0037c:	24090012 	li	t1,18
bfc00380:	00088482 	srl	s0,t0,0x12
bfc00384:	24120c6f 	li	s2,3183
bfc00388:	161207b5 	bne	s0,s2,bfc02260 <inst_error>
bfc0038c:	00000000 	nop
bfc00390:	3c089687 	lui	t0,0x9687
bfc00394:	35082aa0 	ori	t0,t0,0x2aa0
bfc00398:	24090017 	li	t1,23
bfc0039c:	000885c2 	srl	s0,t0,0x17
bfc003a0:	2412012d 	li	s2,301
bfc003a4:	161207ae 	bne	s0,s2,bfc02260 <inst_error>
bfc003a8:	00000000 	nop
bfc003ac:	3c08dccd 	lui	t0,0xdccd
bfc003b0:	35085e68 	ori	t0,t0,0x5e68
bfc003b4:	24090013 	li	t1,19
bfc003b8:	000884c2 	srl	s0,t0,0x13
bfc003bc:	24121b99 	li	s2,7065
bfc003c0:	161207a7 	bne	s0,s2,bfc02260 <inst_error>
bfc003c4:	00000000 	nop
bfc003c8:	3c088c8c 	lui	t0,0x8c8c
bfc003cc:	350832ca 	ori	t0,t0,0x32ca
bfc003d0:	24090013 	li	t1,19
bfc003d4:	000884c2 	srl	s0,t0,0x13
bfc003d8:	24121191 	li	s2,4497
bfc003dc:	161207a0 	bne	s0,s2,bfc02260 <inst_error>
bfc003e0:	00000000 	nop
bfc003e4:	3c083ab9 	lui	t0,0x3ab9
bfc003e8:	3508a2d6 	ori	t0,t0,0xa2d6
bfc003ec:	24090013 	li	t1,19
bfc003f0:	000884c2 	srl	s0,t0,0x13
bfc003f4:	24120757 	li	s2,1879
bfc003f8:	16120799 	bne	s0,s2,bfc02260 <inst_error>
bfc003fc:	00000000 	nop
bfc00400:	3c086277 	lui	t0,0x6277
bfc00404:	3508fc92 	ori	t0,t0,0xfc92
bfc00408:	24090008 	li	t1,8
bfc0040c:	00088202 	srl	s0,t0,0x8
bfc00410:	3c120062 	lui	s2,0x62
bfc00414:	365277fc 	ori	s2,s2,0x77fc
bfc00418:	16120791 	bne	s0,s2,bfc02260 <inst_error>
bfc0041c:	00000000 	nop
bfc00420:	3c0829b4 	lui	t0,0x29b4
bfc00424:	35083f27 	ori	t0,t0,0x3f27
bfc00428:	2409001a 	li	t1,26
bfc0042c:	00088682 	srl	s0,t0,0x1a
bfc00430:	2412000a 	li	s2,10
bfc00434:	1612078a 	bne	s0,s2,bfc02260 <inst_error>
bfc00438:	00000000 	nop
bfc0043c:	3c08a1c2 	lui	t0,0xa1c2
bfc00440:	3508d700 	ori	t0,t0,0xd700
bfc00444:	2409001f 	li	t1,31
bfc00448:	000887c2 	srl	s0,t0,0x1f
bfc0044c:	24120001 	li	s2,1
bfc00450:	16120783 	bne	s0,s2,bfc02260 <inst_error>
bfc00454:	00000000 	nop
bfc00458:	3c08284f 	lui	t0,0x284f
bfc0045c:	3508ab97 	ori	t0,t0,0xab97
bfc00460:	24090011 	li	t1,17
bfc00464:	00088442 	srl	s0,t0,0x11
bfc00468:	24121427 	li	s2,5159
bfc0046c:	1612077c 	bne	s0,s2,bfc02260 <inst_error>
bfc00470:	00000000 	nop
bfc00474:	3c0813dc 	lui	t0,0x13dc
bfc00478:	35083d58 	ori	t0,t0,0x3d58
bfc0047c:	24090015 	li	t1,21
bfc00480:	00088542 	srl	s0,t0,0x15
bfc00484:	2412009e 	li	s2,158
bfc00488:	16120775 	bne	s0,s2,bfc02260 <inst_error>
bfc0048c:	00000000 	nop
bfc00490:	3c08feec 	lui	t0,0xfeec
bfc00494:	35088f70 	ori	t0,t0,0x8f70
bfc00498:	24090007 	li	t1,7
bfc0049c:	000881c2 	srl	s0,t0,0x7
bfc004a0:	3c1201fd 	lui	s2,0x1fd
bfc004a4:	3652d91e 	ori	s2,s2,0xd91e
bfc004a8:	1612076d 	bne	s0,s2,bfc02260 <inst_error>
bfc004ac:	00000000 	nop
bfc004b0:	3c08be67 	lui	t0,0xbe67
bfc004b4:	35086615 	ori	t0,t0,0x6615
bfc004b8:	2409001b 	li	t1,27
bfc004bc:	000886c2 	srl	s0,t0,0x1b
bfc004c0:	24120017 	li	s2,23
bfc004c4:	16120766 	bne	s0,s2,bfc02260 <inst_error>
bfc004c8:	00000000 	nop
bfc004cc:	3c08eb19 	lui	t0,0xeb19
bfc004d0:	3508335a 	ori	t0,t0,0x335a
bfc004d4:	24090014 	li	t1,20
bfc004d8:	00088502 	srl	s0,t0,0x14
bfc004dc:	24120eb1 	li	s2,3761
bfc004e0:	1612075f 	bne	s0,s2,bfc02260 <inst_error>
bfc004e4:	00000000 	nop
bfc004e8:	3c08cc5b 	lui	t0,0xcc5b
bfc004ec:	3508cb06 	ori	t0,t0,0xcb06
bfc004f0:	24090008 	li	t1,8
bfc004f4:	00088202 	srl	s0,t0,0x8
bfc004f8:	3c1200cc 	lui	s2,0xcc
bfc004fc:	36525bcb 	ori	s2,s2,0x5bcb
bfc00500:	16120757 	bne	s0,s2,bfc02260 <inst_error>
bfc00504:	00000000 	nop
bfc00508:	3c08d390 	lui	t0,0xd390
bfc0050c:	3508a600 	ori	t0,t0,0xa600
bfc00510:	24090019 	li	t1,25
bfc00514:	00088642 	srl	s0,t0,0x19
bfc00518:	24120069 	li	s2,105
bfc0051c:	16120750 	bne	s0,s2,bfc02260 <inst_error>
bfc00520:	00000000 	nop
bfc00524:	3c08155f 	lui	t0,0x155f
bfc00528:	35088f7c 	ori	t0,t0,0x8f7c
bfc0052c:	24090015 	li	t1,21
bfc00530:	00088542 	srl	s0,t0,0x15
bfc00534:	241200aa 	li	s2,170
bfc00538:	16120749 	bne	s0,s2,bfc02260 <inst_error>
bfc0053c:	00000000 	nop
bfc00540:	3c083be8 	lui	t0,0x3be8
bfc00544:	35081cbb 	ori	t0,t0,0x1cbb
bfc00548:	24090011 	li	t1,17
bfc0054c:	00088442 	srl	s0,t0,0x11
bfc00550:	24121df4 	li	s2,7668
bfc00554:	16120742 	bne	s0,s2,bfc02260 <inst_error>
bfc00558:	00000000 	nop
bfc0055c:	3c083f32 	lui	t0,0x3f32
bfc00560:	35087950 	ori	t0,t0,0x7950
bfc00564:	2409000d 	li	t1,13
bfc00568:	00088342 	srl	s0,t0,0xd
bfc0056c:	3c120001 	lui	s2,0x1
bfc00570:	3652f993 	ori	s2,s2,0xf993
bfc00574:	1612073a 	bne	s0,s2,bfc02260 <inst_error>
bfc00578:	00000000 	nop
bfc0057c:	3c08523d 	lui	t0,0x523d
bfc00580:	350893ea 	ori	t0,t0,0x93ea
bfc00584:	2409001d 	li	t1,29
bfc00588:	00088742 	srl	s0,t0,0x1d
bfc0058c:	24120002 	li	s2,2
bfc00590:	16120733 	bne	s0,s2,bfc02260 <inst_error>
bfc00594:	00000000 	nop
bfc00598:	3c08029f 	lui	t0,0x29f
bfc0059c:	3508d640 	ori	t0,t0,0xd640
bfc005a0:	2409000a 	li	t1,10
bfc005a4:	00088282 	srl	s0,t0,0xa
bfc005a8:	3412a7f5 	li	s2,0xa7f5
bfc005ac:	1612072c 	bne	s0,s2,bfc02260 <inst_error>
bfc005b0:	00000000 	nop
bfc005b4:	3c08966f 	lui	t0,0x966f
bfc005b8:	3508a4dc 	ori	t0,t0,0xa4dc
bfc005bc:	24090009 	li	t1,9
bfc005c0:	00088242 	srl	s0,t0,0x9
bfc005c4:	3c12004b 	lui	s2,0x4b
bfc005c8:	365237d2 	ori	s2,s2,0x37d2
bfc005cc:	16120724 	bne	s0,s2,bfc02260 <inst_error>
bfc005d0:	00000000 	nop
bfc005d4:	3c086d7c 	lui	t0,0x6d7c
bfc005d8:	35088c68 	ori	t0,t0,0x8c68
bfc005dc:	2409001c 	li	t1,28
bfc005e0:	00088702 	srl	s0,t0,0x1c
bfc005e4:	24120006 	li	s2,6
bfc005e8:	1612071d 	bne	s0,s2,bfc02260 <inst_error>
bfc005ec:	00000000 	nop
bfc005f0:	3c084938 	lui	t0,0x4938
bfc005f4:	35088980 	ori	t0,t0,0x8980
bfc005f8:	24090007 	li	t1,7
bfc005fc:	000881c2 	srl	s0,t0,0x7
bfc00600:	3c120092 	lui	s2,0x92
bfc00604:	36527113 	ori	s2,s2,0x7113
bfc00608:	16120715 	bne	s0,s2,bfc02260 <inst_error>
bfc0060c:	00000000 	nop
bfc00610:	3c08d95e 	lui	t0,0xd95e
bfc00614:	35080458 	ori	t0,t0,0x458
bfc00618:	24090004 	li	t1,4
bfc0061c:	00088102 	srl	s0,t0,0x4
bfc00620:	3c120d95 	lui	s2,0xd95
bfc00624:	3652e045 	ori	s2,s2,0xe045
bfc00628:	1612070d 	bne	s0,s2,bfc02260 <inst_error>
bfc0062c:	00000000 	nop
bfc00630:	3c08fe52 	lui	t0,0xfe52
bfc00634:	350859f1 	ori	t0,t0,0x59f1
bfc00638:	24090017 	li	t1,23
bfc0063c:	000885c2 	srl	s0,t0,0x17
bfc00640:	241201fc 	li	s2,508
bfc00644:	16120706 	bne	s0,s2,bfc02260 <inst_error>
bfc00648:	00000000 	nop
bfc0064c:	3c08adff 	lui	t0,0xadff
bfc00650:	350820c0 	ori	t0,t0,0x20c0
bfc00654:	24090000 	li	t1,0
bfc00658:	00088002 	srl	s0,t0,0x0
bfc0065c:	3c12adff 	lui	s2,0xadff
bfc00660:	365220c0 	ori	s2,s2,0x20c0
bfc00664:	161206fe 	bne	s0,s2,bfc02260 <inst_error>
bfc00668:	00000000 	nop
bfc0066c:	3c08ad4a 	lui	t0,0xad4a
bfc00670:	35088872 	ori	t0,t0,0x8872
bfc00674:	24090002 	li	t1,2
bfc00678:	00088082 	srl	s0,t0,0x2
bfc0067c:	3c122b52 	lui	s2,0x2b52
bfc00680:	3652a21c 	ori	s2,s2,0xa21c
bfc00684:	161206f6 	bne	s0,s2,bfc02260 <inst_error>
bfc00688:	00000000 	nop
bfc0068c:	3c08ac74 	lui	t0,0xac74
bfc00690:	35087dce 	ori	t0,t0,0x7dce
bfc00694:	24090001 	li	t1,1
bfc00698:	00088042 	srl	s0,t0,0x1
bfc0069c:	3c12563a 	lui	s2,0x563a
bfc006a0:	36523ee7 	ori	s2,s2,0x3ee7
bfc006a4:	161206ee 	bne	s0,s2,bfc02260 <inst_error>
bfc006a8:	00000000 	nop
bfc006ac:	3c0845cf 	lui	t0,0x45cf
bfc006b0:	35082481 	ori	t0,t0,0x2481
bfc006b4:	2409000f 	li	t1,15
bfc006b8:	000883c2 	srl	s0,t0,0xf
bfc006bc:	34128b9e 	li	s2,0x8b9e
bfc006c0:	161206e7 	bne	s0,s2,bfc02260 <inst_error>
bfc006c4:	00000000 	nop
bfc006c8:	3c08d220 	lui	t0,0xd220
bfc006cc:	3508e6d8 	ori	t0,t0,0xe6d8
bfc006d0:	2409000c 	li	t1,12
bfc006d4:	00088302 	srl	s0,t0,0xc
bfc006d8:	3c12000d 	lui	s2,0xd
bfc006dc:	3652220e 	ori	s2,s2,0x220e
bfc006e0:	161206df 	bne	s0,s2,bfc02260 <inst_error>
bfc006e4:	00000000 	nop
bfc006e8:	3c08fc07 	lui	t0,0xfc07
bfc006ec:	35083b24 	ori	t0,t0,0x3b24
bfc006f0:	24090001 	li	t1,1
bfc006f4:	00088042 	srl	s0,t0,0x1
bfc006f8:	3c127e03 	lui	s2,0x7e03
bfc006fc:	36529d92 	ori	s2,s2,0x9d92
bfc00700:	161206d7 	bne	s0,s2,bfc02260 <inst_error>
bfc00704:	00000000 	nop
bfc00708:	3c089e49 	lui	t0,0x9e49
bfc0070c:	35083883 	ori	t0,t0,0x3883
bfc00710:	24090000 	li	t1,0
bfc00714:	00088002 	srl	s0,t0,0x0
bfc00718:	3c129e49 	lui	s2,0x9e49
bfc0071c:	36523883 	ori	s2,s2,0x3883
bfc00720:	161206cf 	bne	s0,s2,bfc02260 <inst_error>
bfc00724:	00000000 	nop
bfc00728:	3c088d02 	lui	t0,0x8d02
bfc0072c:	35088cd0 	ori	t0,t0,0x8cd0
bfc00730:	2409000a 	li	t1,10
bfc00734:	00088282 	srl	s0,t0,0xa
bfc00738:	3c120023 	lui	s2,0x23
bfc0073c:	365240a3 	ori	s2,s2,0x40a3
bfc00740:	161206c7 	bne	s0,s2,bfc02260 <inst_error>
bfc00744:	00000000 	nop
bfc00748:	3c0866ff 	lui	t0,0x66ff
bfc0074c:	35086a59 	ori	t0,t0,0x6a59
bfc00750:	24090017 	li	t1,23
bfc00754:	000885c2 	srl	s0,t0,0x17
bfc00758:	241200cd 	li	s2,205
bfc0075c:	161206c0 	bne	s0,s2,bfc02260 <inst_error>
bfc00760:	00000000 	nop
bfc00764:	3c08ffc9 	lui	t0,0xffc9
bfc00768:	3508bfa4 	ori	t0,t0,0xbfa4
bfc0076c:	2409001c 	li	t1,28
bfc00770:	00088702 	srl	s0,t0,0x1c
bfc00774:	2412000f 	li	s2,15
bfc00778:	161206b9 	bne	s0,s2,bfc02260 <inst_error>
bfc0077c:	00000000 	nop
bfc00780:	3c08b7cc 	lui	t0,0xb7cc
bfc00784:	35082258 	ori	t0,t0,0x2258
bfc00788:	2409000c 	li	t1,12
bfc0078c:	00088302 	srl	s0,t0,0xc
bfc00790:	3c12000b 	lui	s2,0xb
bfc00794:	36527cc2 	ori	s2,s2,0x7cc2
bfc00798:	161206b1 	bne	s0,s2,bfc02260 <inst_error>
bfc0079c:	00000000 	nop
bfc007a0:	3c086b31 	lui	t0,0x6b31
bfc007a4:	35088f8c 	ori	t0,t0,0x8f8c
bfc007a8:	24090018 	li	t1,24
bfc007ac:	00088602 	srl	s0,t0,0x18
bfc007b0:	2412006b 	li	s2,107
bfc007b4:	161206aa 	bne	s0,s2,bfc02260 <inst_error>
bfc007b8:	00000000 	nop
bfc007bc:	3c08ca80 	lui	t0,0xca80
bfc007c0:	35086bd4 	ori	t0,t0,0x6bd4
bfc007c4:	24090000 	li	t1,0
bfc007c8:	00088002 	srl	s0,t0,0x0
bfc007cc:	3c12ca80 	lui	s2,0xca80
bfc007d0:	36526bd4 	ori	s2,s2,0x6bd4
bfc007d4:	161206a2 	bne	s0,s2,bfc02260 <inst_error>
bfc007d8:	00000000 	nop
bfc007dc:	3c08df80 	lui	t0,0xdf80
bfc007e0:	3508ebb0 	ori	t0,t0,0xebb0
bfc007e4:	2409001f 	li	t1,31
bfc007e8:	000887c2 	srl	s0,t0,0x1f
bfc007ec:	24120001 	li	s2,1
bfc007f0:	1612069b 	bne	s0,s2,bfc02260 <inst_error>
bfc007f4:	00000000 	nop
bfc007f8:	3c0815de 	lui	t0,0x15de
bfc007fc:	350826d8 	ori	t0,t0,0x26d8
bfc00800:	24090012 	li	t1,18
bfc00804:	00088482 	srl	s0,t0,0x12
bfc00808:	24120577 	li	s2,1399
bfc0080c:	16120694 	bne	s0,s2,bfc02260 <inst_error>
bfc00810:	00000000 	nop
bfc00814:	3c08b120 	lui	t0,0xb120
bfc00818:	35084d16 	ori	t0,t0,0x4d16
bfc0081c:	2409001b 	li	t1,27
bfc00820:	000886c2 	srl	s0,t0,0x1b
bfc00824:	24120016 	li	s2,22
bfc00828:	1612068d 	bne	s0,s2,bfc02260 <inst_error>
bfc0082c:	00000000 	nop
bfc00830:	3c0829aa 	lui	t0,0x29aa
bfc00834:	35083074 	ori	t0,t0,0x3074
bfc00838:	2409000f 	li	t1,15
bfc0083c:	000883c2 	srl	s0,t0,0xf
bfc00840:	24125354 	li	s2,21332
bfc00844:	16120686 	bne	s0,s2,bfc02260 <inst_error>
bfc00848:	00000000 	nop
bfc0084c:	3c088cfd 	lui	t0,0x8cfd
bfc00850:	35089d90 	ori	t0,t0,0x9d90
bfc00854:	24090003 	li	t1,3
bfc00858:	000880c2 	srl	s0,t0,0x3
bfc0085c:	3c12119f 	lui	s2,0x119f
bfc00860:	3652b3b2 	ori	s2,s2,0xb3b2
bfc00864:	1612067e 	bne	s0,s2,bfc02260 <inst_error>
bfc00868:	00000000 	nop
bfc0086c:	3c0892fe 	lui	t0,0x92fe
bfc00870:	350881b8 	ori	t0,t0,0x81b8
bfc00874:	24090015 	li	t1,21
bfc00878:	00088542 	srl	s0,t0,0x15
bfc0087c:	24120497 	li	s2,1175
bfc00880:	16120677 	bne	s0,s2,bfc02260 <inst_error>
bfc00884:	00000000 	nop
bfc00888:	3c08351f 	lui	t0,0x351f
bfc0088c:	350810b4 	ori	t0,t0,0x10b4
bfc00890:	2409001c 	li	t1,28
bfc00894:	00088702 	srl	s0,t0,0x1c
bfc00898:	24120003 	li	s2,3
bfc0089c:	16120670 	bne	s0,s2,bfc02260 <inst_error>
bfc008a0:	00000000 	nop
bfc008a4:	3c08c0d3 	lui	t0,0xc0d3
bfc008a8:	350871af 	ori	t0,t0,0x71af
bfc008ac:	24090006 	li	t1,6
bfc008b0:	00088182 	srl	s0,t0,0x6
bfc008b4:	3c120303 	lui	s2,0x303
bfc008b8:	36524dc6 	ori	s2,s2,0x4dc6
bfc008bc:	16120668 	bne	s0,s2,bfc02260 <inst_error>
bfc008c0:	00000000 	nop
bfc008c4:	3c081f72 	lui	t0,0x1f72
bfc008c8:	3508d53c 	ori	t0,t0,0xd53c
bfc008cc:	24090009 	li	t1,9
bfc008d0:	00088242 	srl	s0,t0,0x9
bfc008d4:	3c12000f 	lui	s2,0xf
bfc008d8:	3652b96a 	ori	s2,s2,0xb96a
bfc008dc:	16120660 	bne	s0,s2,bfc02260 <inst_error>
bfc008e0:	00000000 	nop
bfc008e4:	3c085afe 	lui	t0,0x5afe
bfc008e8:	35089f52 	ori	t0,t0,0x9f52
bfc008ec:	24090004 	li	t1,4
bfc008f0:	00088102 	srl	s0,t0,0x4
bfc008f4:	3c1205af 	lui	s2,0x5af
bfc008f8:	3652e9f5 	ori	s2,s2,0xe9f5
bfc008fc:	16120658 	bne	s0,s2,bfc02260 <inst_error>
bfc00900:	00000000 	nop
bfc00904:	3c08c500 	lui	t0,0xc500
bfc00908:	35087654 	ori	t0,t0,0x7654
bfc0090c:	2409001c 	li	t1,28
bfc00910:	00088702 	srl	s0,t0,0x1c
bfc00914:	2412000c 	li	s2,12
bfc00918:	16120651 	bne	s0,s2,bfc02260 <inst_error>
bfc0091c:	00000000 	nop
bfc00920:	3c08df34 	lui	t0,0xdf34
bfc00924:	3508c906 	ori	t0,t0,0xc906
bfc00928:	24090005 	li	t1,5
bfc0092c:	00088142 	srl	s0,t0,0x5
bfc00930:	3c1206f9 	lui	s2,0x6f9
bfc00934:	3652a648 	ori	s2,s2,0xa648
bfc00938:	16120649 	bne	s0,s2,bfc02260 <inst_error>
bfc0093c:	00000000 	nop
bfc00940:	3c081ba6 	lui	t0,0x1ba6
bfc00944:	350893e2 	ori	t0,t0,0x93e2
bfc00948:	24090002 	li	t1,2
bfc0094c:	00088082 	srl	s0,t0,0x2
bfc00950:	3c1206e9 	lui	s2,0x6e9
bfc00954:	3652a4f8 	ori	s2,s2,0xa4f8
bfc00958:	16120641 	bne	s0,s2,bfc02260 <inst_error>
bfc0095c:	00000000 	nop
bfc00960:	3c08bb47 	lui	t0,0xbb47
bfc00964:	350823a4 	ori	t0,t0,0x23a4
bfc00968:	2409000a 	li	t1,10
bfc0096c:	00088282 	srl	s0,t0,0xa
bfc00970:	3c12002e 	lui	s2,0x2e
bfc00974:	3652d1c8 	ori	s2,s2,0xd1c8
bfc00978:	16120639 	bne	s0,s2,bfc02260 <inst_error>
bfc0097c:	00000000 	nop
bfc00980:	3c081912 	lui	t0,0x1912
bfc00984:	3508074c 	ori	t0,t0,0x74c
bfc00988:	2409001a 	li	t1,26
bfc0098c:	00088682 	srl	s0,t0,0x1a
bfc00990:	24120006 	li	s2,6
bfc00994:	16120632 	bne	s0,s2,bfc02260 <inst_error>
bfc00998:	00000000 	nop
bfc0099c:	3c08a441 	lui	t0,0xa441
bfc009a0:	3508c500 	ori	t0,t0,0xc500
bfc009a4:	24090013 	li	t1,19
bfc009a8:	000884c2 	srl	s0,t0,0x13
bfc009ac:	24121488 	li	s2,5256
bfc009b0:	1612062b 	bne	s0,s2,bfc02260 <inst_error>
bfc009b4:	00000000 	nop
bfc009b8:	3c089417 	lui	t0,0x9417
bfc009bc:	35081c81 	ori	t0,t0,0x1c81
bfc009c0:	2409001e 	li	t1,30
bfc009c4:	00088782 	srl	s0,t0,0x1e
bfc009c8:	24120002 	li	s2,2
bfc009cc:	16120624 	bne	s0,s2,bfc02260 <inst_error>
bfc009d0:	00000000 	nop
bfc009d4:	3c089183 	lui	t0,0x9183
bfc009d8:	3508d7ce 	ori	t0,t0,0xd7ce
bfc009dc:	24090018 	li	t1,24
bfc009e0:	00088602 	srl	s0,t0,0x18
bfc009e4:	24120091 	li	s2,145
bfc009e8:	1612061d 	bne	s0,s2,bfc02260 <inst_error>
bfc009ec:	00000000 	nop
bfc009f0:	3c08129c 	lui	t0,0x129c
bfc009f4:	35088a70 	ori	t0,t0,0x8a70
bfc009f8:	24090016 	li	t1,22
bfc009fc:	00088582 	srl	s0,t0,0x16
bfc00a00:	2412004a 	li	s2,74
bfc00a04:	16120616 	bne	s0,s2,bfc02260 <inst_error>
bfc00a08:	00000000 	nop
bfc00a0c:	3c08bf41 	lui	t0,0xbf41
bfc00a10:	350818f0 	ori	t0,t0,0x18f0
bfc00a14:	24090016 	li	t1,22
bfc00a18:	00088582 	srl	s0,t0,0x16
bfc00a1c:	241202fd 	li	s2,765
bfc00a20:	1612060f 	bne	s0,s2,bfc02260 <inst_error>
bfc00a24:	00000000 	nop
bfc00a28:	3c088486 	lui	t0,0x8486
bfc00a2c:	35080eec 	ori	t0,t0,0xeec
bfc00a30:	2409000d 	li	t1,13
bfc00a34:	00088342 	srl	s0,t0,0xd
bfc00a38:	3c120004 	lui	s2,0x4
bfc00a3c:	36522430 	ori	s2,s2,0x2430
bfc00a40:	16120607 	bne	s0,s2,bfc02260 <inst_error>
bfc00a44:	00000000 	nop
bfc00a48:	3c089517 	lui	t0,0x9517
bfc00a4c:	35083198 	ori	t0,t0,0x3198
bfc00a50:	2409000b 	li	t1,11
bfc00a54:	000882c2 	srl	s0,t0,0xb
bfc00a58:	3c120012 	lui	s2,0x12
bfc00a5c:	3652a2e6 	ori	s2,s2,0xa2e6
bfc00a60:	161205ff 	bne	s0,s2,bfc02260 <inst_error>
bfc00a64:	00000000 	nop
bfc00a68:	3c08e1d7 	lui	t0,0xe1d7
bfc00a6c:	35083a20 	ori	t0,t0,0x3a20
bfc00a70:	2409000b 	li	t1,11
bfc00a74:	000882c2 	srl	s0,t0,0xb
bfc00a78:	3c12001c 	lui	s2,0x1c
bfc00a7c:	36523ae7 	ori	s2,s2,0x3ae7
bfc00a80:	161205f7 	bne	s0,s2,bfc02260 <inst_error>
bfc00a84:	00000000 	nop
bfc00a88:	3c082473 	lui	t0,0x2473
bfc00a8c:	350858ec 	ori	t0,t0,0x58ec
bfc00a90:	2409000b 	li	t1,11
bfc00a94:	000882c2 	srl	s0,t0,0xb
bfc00a98:	3c120004 	lui	s2,0x4
bfc00a9c:	36528e6b 	ori	s2,s2,0x8e6b
bfc00aa0:	161205ef 	bne	s0,s2,bfc02260 <inst_error>
bfc00aa4:	00000000 	nop
bfc00aa8:	3c0873c5 	lui	t0,0x73c5
bfc00aac:	35082105 	ori	t0,t0,0x2105
bfc00ab0:	24090014 	li	t1,20
bfc00ab4:	00088502 	srl	s0,t0,0x14
bfc00ab8:	2412073c 	li	s2,1852
bfc00abc:	161205e8 	bne	s0,s2,bfc02260 <inst_error>
bfc00ac0:	00000000 	nop
bfc00ac4:	3c08d905 	lui	t0,0xd905
bfc00ac8:	3508fa84 	ori	t0,t0,0xfa84
bfc00acc:	2409000f 	li	t1,15
bfc00ad0:	000883c2 	srl	s0,t0,0xf
bfc00ad4:	3c120001 	lui	s2,0x1
bfc00ad8:	3652b20b 	ori	s2,s2,0xb20b
bfc00adc:	161205e0 	bne	s0,s2,bfc02260 <inst_error>
bfc00ae0:	00000000 	nop
bfc00ae4:	3c08e783 	lui	t0,0xe783
bfc00ae8:	350814d8 	ori	t0,t0,0x14d8
bfc00aec:	24090011 	li	t1,17
bfc00af0:	00088442 	srl	s0,t0,0x11
bfc00af4:	241273c1 	li	s2,29633
bfc00af8:	161205d9 	bne	s0,s2,bfc02260 <inst_error>
bfc00afc:	00000000 	nop
bfc00b00:	3c085585 	lui	t0,0x5585
bfc00b04:	35081990 	ori	t0,t0,0x1990
bfc00b08:	2409001c 	li	t1,28
bfc00b0c:	00088702 	srl	s0,t0,0x1c
bfc00b10:	24120005 	li	s2,5
bfc00b14:	161205d2 	bne	s0,s2,bfc02260 <inst_error>
bfc00b18:	00000000 	nop
bfc00b1c:	3c083bac 	lui	t0,0x3bac
bfc00b20:	35080f11 	ori	t0,t0,0xf11
bfc00b24:	24090007 	li	t1,7
bfc00b28:	000881c2 	srl	s0,t0,0x7
bfc00b2c:	3c120077 	lui	s2,0x77
bfc00b30:	3652581e 	ori	s2,s2,0x581e
bfc00b34:	161205ca 	bne	s0,s2,bfc02260 <inst_error>
bfc00b38:	00000000 	nop
bfc00b3c:	3c08568d 	lui	t0,0x568d
bfc00b40:	3508eaa8 	ori	t0,t0,0xeaa8
bfc00b44:	24090017 	li	t1,23
bfc00b48:	000885c2 	srl	s0,t0,0x17
bfc00b4c:	241200ad 	li	s2,173
bfc00b50:	161205c3 	bne	s0,s2,bfc02260 <inst_error>
bfc00b54:	00000000 	nop
bfc00b58:	3c087f3c 	lui	t0,0x7f3c
bfc00b5c:	3508f4a0 	ori	t0,t0,0xf4a0
bfc00b60:	2409000c 	li	t1,12
bfc00b64:	00088302 	srl	s0,t0,0xc
bfc00b68:	3c120007 	lui	s2,0x7
bfc00b6c:	3652f3cf 	ori	s2,s2,0xf3cf
bfc00b70:	161205bb 	bne	s0,s2,bfc02260 <inst_error>
bfc00b74:	00000000 	nop
bfc00b78:	3c08db04 	lui	t0,0xdb04
bfc00b7c:	350821e6 	ori	t0,t0,0x21e6
bfc00b80:	24090009 	li	t1,9
bfc00b84:	00088242 	srl	s0,t0,0x9
bfc00b88:	3c12006d 	lui	s2,0x6d
bfc00b8c:	36528210 	ori	s2,s2,0x8210
bfc00b90:	161205b3 	bne	s0,s2,bfc02260 <inst_error>
bfc00b94:	00000000 	nop
bfc00b98:	3c083bdb 	lui	t0,0x3bdb
bfc00b9c:	350898c0 	ori	t0,t0,0x98c0
bfc00ba0:	24090008 	li	t1,8
bfc00ba4:	00088202 	srl	s0,t0,0x8
bfc00ba8:	3c12003b 	lui	s2,0x3b
bfc00bac:	3652db98 	ori	s2,s2,0xdb98
bfc00bb0:	161205ab 	bne	s0,s2,bfc02260 <inst_error>
bfc00bb4:	00000000 	nop
bfc00bb8:	3c085475 	lui	t0,0x5475
bfc00bbc:	3508f578 	ori	t0,t0,0xf578
bfc00bc0:	24090010 	li	t1,16
bfc00bc4:	00088402 	srl	s0,t0,0x10
bfc00bc8:	24125475 	li	s2,21621
bfc00bcc:	161205a4 	bne	s0,s2,bfc02260 <inst_error>
bfc00bd0:	00000000 	nop
bfc00bd4:	3c086908 	lui	t0,0x6908
bfc00bd8:	3508094a 	ori	t0,t0,0x94a
bfc00bdc:	24090003 	li	t1,3
bfc00be0:	000880c2 	srl	s0,t0,0x3
bfc00be4:	3c120d21 	lui	s2,0xd21
bfc00be8:	36520129 	ori	s2,s2,0x129
bfc00bec:	1612059c 	bne	s0,s2,bfc02260 <inst_error>
bfc00bf0:	00000000 	nop
bfc00bf4:	3c08ded0 	lui	t0,0xded0
bfc00bf8:	3508771c 	ori	t0,t0,0x771c
bfc00bfc:	2409001f 	li	t1,31
bfc00c00:	000887c2 	srl	s0,t0,0x1f
bfc00c04:	24120001 	li	s2,1
bfc00c08:	16120595 	bne	s0,s2,bfc02260 <inst_error>
bfc00c0c:	00000000 	nop
bfc00c10:	3c0810be 	lui	t0,0x10be
bfc00c14:	35089685 	ori	t0,t0,0x9685
bfc00c18:	24090003 	li	t1,3
bfc00c1c:	000880c2 	srl	s0,t0,0x3
bfc00c20:	3c120217 	lui	s2,0x217
bfc00c24:	3652d2d0 	ori	s2,s2,0xd2d0
bfc00c28:	1612058d 	bne	s0,s2,bfc02260 <inst_error>
bfc00c2c:	00000000 	nop
bfc00c30:	3c08ba0e 	lui	t0,0xba0e
bfc00c34:	350847fa 	ori	t0,t0,0x47fa
bfc00c38:	2409000f 	li	t1,15
bfc00c3c:	000883c2 	srl	s0,t0,0xf
bfc00c40:	3c120001 	lui	s2,0x1
bfc00c44:	3652741c 	ori	s2,s2,0x741c
bfc00c48:	16120585 	bne	s0,s2,bfc02260 <inst_error>
bfc00c4c:	00000000 	nop
bfc00c50:	3c085a8b 	lui	t0,0x5a8b
bfc00c54:	3508fd48 	ori	t0,t0,0xfd48
bfc00c58:	2409000f 	li	t1,15
bfc00c5c:	000883c2 	srl	s0,t0,0xf
bfc00c60:	3412b517 	li	s2,0xb517
bfc00c64:	1612057e 	bne	s0,s2,bfc02260 <inst_error>
bfc00c68:	00000000 	nop
bfc00c6c:	3c08a2b8 	lui	t0,0xa2b8
bfc00c70:	3508964e 	ori	t0,t0,0x964e
bfc00c74:	2409001e 	li	t1,30
bfc00c78:	00088782 	srl	s0,t0,0x1e
bfc00c7c:	24120002 	li	s2,2
bfc00c80:	16120577 	bne	s0,s2,bfc02260 <inst_error>
bfc00c84:	00000000 	nop
bfc00c88:	3c08c1c8 	lui	t0,0xc1c8
bfc00c8c:	350816c0 	ori	t0,t0,0x16c0
bfc00c90:	2409001e 	li	t1,30
bfc00c94:	00088782 	srl	s0,t0,0x1e
bfc00c98:	24120003 	li	s2,3
bfc00c9c:	16120570 	bne	s0,s2,bfc02260 <inst_error>
bfc00ca0:	00000000 	nop
bfc00ca4:	3c08d035 	lui	t0,0xd035
bfc00ca8:	3508e940 	ori	t0,t0,0xe940
bfc00cac:	24090006 	li	t1,6
bfc00cb0:	00088182 	srl	s0,t0,0x6
bfc00cb4:	3c120340 	lui	s2,0x340
bfc00cb8:	3652d7a5 	ori	s2,s2,0xd7a5
bfc00cbc:	16120568 	bne	s0,s2,bfc02260 <inst_error>
bfc00cc0:	00000000 	nop
bfc00cc4:	3c0842df 	lui	t0,0x42df
bfc00cc8:	350891ac 	ori	t0,t0,0x91ac
bfc00ccc:	2409000c 	li	t1,12
bfc00cd0:	00088302 	srl	s0,t0,0xc
bfc00cd4:	3c120004 	lui	s2,0x4
bfc00cd8:	36522df9 	ori	s2,s2,0x2df9
bfc00cdc:	16120560 	bne	s0,s2,bfc02260 <inst_error>
bfc00ce0:	00000000 	nop
bfc00ce4:	3c08fedd 	lui	t0,0xfedd
bfc00ce8:	3508d2dc 	ori	t0,t0,0xd2dc
bfc00cec:	2409001d 	li	t1,29
bfc00cf0:	00088742 	srl	s0,t0,0x1d
bfc00cf4:	24120007 	li	s2,7
bfc00cf8:	16120559 	bne	s0,s2,bfc02260 <inst_error>
bfc00cfc:	00000000 	nop
bfc00d00:	3c084771 	lui	t0,0x4771
bfc00d04:	35082ac2 	ori	t0,t0,0x2ac2
bfc00d08:	24090016 	li	t1,22
bfc00d0c:	00088582 	srl	s0,t0,0x16
bfc00d10:	2412011d 	li	s2,285
bfc00d14:	16120552 	bne	s0,s2,bfc02260 <inst_error>
bfc00d18:	00000000 	nop
bfc00d1c:	3c08736c 	lui	t0,0x736c
bfc00d20:	3508ddf8 	ori	t0,t0,0xddf8
bfc00d24:	24090001 	li	t1,1
bfc00d28:	00088042 	srl	s0,t0,0x1
bfc00d2c:	3c1239b6 	lui	s2,0x39b6
bfc00d30:	36526efc 	ori	s2,s2,0x6efc
bfc00d34:	1612054a 	bne	s0,s2,bfc02260 <inst_error>
bfc00d38:	00000000 	nop
bfc00d3c:	3c089f86 	lui	t0,0x9f86
bfc00d40:	3508657e 	ori	t0,t0,0x657e
bfc00d44:	24090014 	li	t1,20
bfc00d48:	00088502 	srl	s0,t0,0x14
bfc00d4c:	241209f8 	li	s2,2552
bfc00d50:	16120543 	bne	s0,s2,bfc02260 <inst_error>
bfc00d54:	00000000 	nop
bfc00d58:	3c088b3e 	lui	t0,0x8b3e
bfc00d5c:	35086480 	ori	t0,t0,0x6480
bfc00d60:	2409001b 	li	t1,27
bfc00d64:	000886c2 	srl	s0,t0,0x1b
bfc00d68:	24120011 	li	s2,17
bfc00d6c:	1612053c 	bne	s0,s2,bfc02260 <inst_error>
bfc00d70:	00000000 	nop
bfc00d74:	3c080d5a 	lui	t0,0xd5a
bfc00d78:	3508849c 	ori	t0,t0,0x849c
bfc00d7c:	24090015 	li	t1,21
bfc00d80:	00088542 	srl	s0,t0,0x15
bfc00d84:	2412006a 	li	s2,106
bfc00d88:	16120535 	bne	s0,s2,bfc02260 <inst_error>
bfc00d8c:	00000000 	nop
bfc00d90:	3c0849b8 	lui	t0,0x49b8
bfc00d94:	35080128 	ori	t0,t0,0x128
bfc00d98:	24090009 	li	t1,9
bfc00d9c:	00088242 	srl	s0,t0,0x9
bfc00da0:	3c120024 	lui	s2,0x24
bfc00da4:	3652dc00 	ori	s2,s2,0xdc00
bfc00da8:	1612052d 	bne	s0,s2,bfc02260 <inst_error>
bfc00dac:	00000000 	nop
bfc00db0:	3c08bbbb 	lui	t0,0xbbbb
bfc00db4:	3508f940 	ori	t0,t0,0xf940
bfc00db8:	24090004 	li	t1,4
bfc00dbc:	00088102 	srl	s0,t0,0x4
bfc00dc0:	3c120bbb 	lui	s2,0xbbb
bfc00dc4:	3652bf94 	ori	s2,s2,0xbf94
bfc00dc8:	16120525 	bne	s0,s2,bfc02260 <inst_error>
bfc00dcc:	00000000 	nop
bfc00dd0:	3c082ef1 	lui	t0,0x2ef1
bfc00dd4:	35080c70 	ori	t0,t0,0xc70
bfc00dd8:	2409001f 	li	t1,31
bfc00ddc:	000887c2 	srl	s0,t0,0x1f
bfc00de0:	24120000 	li	s2,0
bfc00de4:	1612051e 	bne	s0,s2,bfc02260 <inst_error>
bfc00de8:	00000000 	nop
bfc00dec:	3c082600 	lui	t0,0x2600
bfc00df0:	35088fee 	ori	t0,t0,0x8fee
bfc00df4:	24090000 	li	t1,0
bfc00df8:	00088002 	srl	s0,t0,0x0
bfc00dfc:	3c122600 	lui	s2,0x2600
bfc00e00:	36528fee 	ori	s2,s2,0x8fee
bfc00e04:	16120516 	bne	s0,s2,bfc02260 <inst_error>
bfc00e08:	00000000 	nop
bfc00e0c:	3c0868fa 	lui	t0,0x68fa
bfc00e10:	3508f2e6 	ori	t0,t0,0xf2e6
bfc00e14:	24090012 	li	t1,18
bfc00e18:	00088482 	srl	s0,t0,0x12
bfc00e1c:	24121a3e 	li	s2,6718
bfc00e20:	1612050f 	bne	s0,s2,bfc02260 <inst_error>
bfc00e24:	00000000 	nop
bfc00e28:	3c08b08f 	lui	t0,0xb08f
bfc00e2c:	3508704f 	ori	t0,t0,0x704f
bfc00e30:	24090003 	li	t1,3
bfc00e34:	000880c2 	srl	s0,t0,0x3
bfc00e38:	3c121611 	lui	s2,0x1611
bfc00e3c:	3652ee09 	ori	s2,s2,0xee09
bfc00e40:	16120507 	bne	s0,s2,bfc02260 <inst_error>
bfc00e44:	00000000 	nop
bfc00e48:	3c08679f 	lui	t0,0x679f
bfc00e4c:	35087248 	ori	t0,t0,0x7248
bfc00e50:	2409000e 	li	t1,14
bfc00e54:	00088382 	srl	s0,t0,0xe
bfc00e58:	3c120001 	lui	s2,0x1
bfc00e5c:	36529e7d 	ori	s2,s2,0x9e7d
bfc00e60:	161204ff 	bne	s0,s2,bfc02260 <inst_error>
bfc00e64:	00000000 	nop
bfc00e68:	3c08345c 	lui	t0,0x345c
bfc00e6c:	3508d56a 	ori	t0,t0,0xd56a
bfc00e70:	2409000d 	li	t1,13
bfc00e74:	00088342 	srl	s0,t0,0xd
bfc00e78:	3c120001 	lui	s2,0x1
bfc00e7c:	3652a2e6 	ori	s2,s2,0xa2e6
bfc00e80:	161204f7 	bne	s0,s2,bfc02260 <inst_error>
bfc00e84:	00000000 	nop
bfc00e88:	3c082394 	lui	t0,0x2394
bfc00e8c:	3508e93c 	ori	t0,t0,0xe93c
bfc00e90:	2409000b 	li	t1,11
bfc00e94:	000882c2 	srl	s0,t0,0xb
bfc00e98:	3c120004 	lui	s2,0x4
bfc00e9c:	3652729d 	ori	s2,s2,0x729d
bfc00ea0:	161204ef 	bne	s0,s2,bfc02260 <inst_error>
bfc00ea4:	00000000 	nop
bfc00ea8:	3c08dd1e 	lui	t0,0xdd1e
bfc00eac:	350822b0 	ori	t0,t0,0x22b0
bfc00eb0:	24090003 	li	t1,3
bfc00eb4:	000880c2 	srl	s0,t0,0x3
bfc00eb8:	3c121ba3 	lui	s2,0x1ba3
bfc00ebc:	3652c456 	ori	s2,s2,0xc456
bfc00ec0:	161204e7 	bne	s0,s2,bfc02260 <inst_error>
bfc00ec4:	00000000 	nop
bfc00ec8:	3c0893dd 	lui	t0,0x93dd
bfc00ecc:	350833eb 	ori	t0,t0,0x33eb
bfc00ed0:	24090002 	li	t1,2
bfc00ed4:	00088082 	srl	s0,t0,0x2
bfc00ed8:	3c1224f7 	lui	s2,0x24f7
bfc00edc:	36524cfa 	ori	s2,s2,0x4cfa
bfc00ee0:	161204df 	bne	s0,s2,bfc02260 <inst_error>
bfc00ee4:	00000000 	nop
bfc00ee8:	3c085a72 	lui	t0,0x5a72
bfc00eec:	3508cb08 	ori	t0,t0,0xcb08
bfc00ef0:	24090018 	li	t1,24
bfc00ef4:	00088602 	srl	s0,t0,0x18
bfc00ef8:	2412005a 	li	s2,90
bfc00efc:	161204d8 	bne	s0,s2,bfc02260 <inst_error>
bfc00f00:	00000000 	nop
bfc00f04:	3c08da4e 	lui	t0,0xda4e
bfc00f08:	35084434 	ori	t0,t0,0x4434
bfc00f0c:	2409001c 	li	t1,28
bfc00f10:	00088702 	srl	s0,t0,0x1c
bfc00f14:	2412000d 	li	s2,13
bfc00f18:	161204d1 	bne	s0,s2,bfc02260 <inst_error>
bfc00f1c:	00000000 	nop
bfc00f20:	3c080cd9 	lui	t0,0xcd9
bfc00f24:	350852a0 	ori	t0,t0,0x52a0
bfc00f28:	24090002 	li	t1,2
bfc00f2c:	00088082 	srl	s0,t0,0x2
bfc00f30:	3c120336 	lui	s2,0x336
bfc00f34:	365254a8 	ori	s2,s2,0x54a8
bfc00f38:	161204c9 	bne	s0,s2,bfc02260 <inst_error>
bfc00f3c:	00000000 	nop
bfc00f40:	3c087da4 	lui	t0,0x7da4
bfc00f44:	3508fba4 	ori	t0,t0,0xfba4
bfc00f48:	24090008 	li	t1,8
bfc00f4c:	00088202 	srl	s0,t0,0x8
bfc00f50:	3c12007d 	lui	s2,0x7d
bfc00f54:	3652a4fb 	ori	s2,s2,0xa4fb
bfc00f58:	161204c1 	bne	s0,s2,bfc02260 <inst_error>
bfc00f5c:	00000000 	nop
bfc00f60:	3c0817d1 	lui	t0,0x17d1
bfc00f64:	35084b64 	ori	t0,t0,0x4b64
bfc00f68:	24090013 	li	t1,19
bfc00f6c:	000884c2 	srl	s0,t0,0x13
bfc00f70:	241202fa 	li	s2,762
bfc00f74:	161204ba 	bne	s0,s2,bfc02260 <inst_error>
bfc00f78:	00000000 	nop
bfc00f7c:	3c083dea 	lui	t0,0x3dea
bfc00f80:	3508e382 	ori	t0,t0,0xe382
bfc00f84:	24090003 	li	t1,3
bfc00f88:	000880c2 	srl	s0,t0,0x3
bfc00f8c:	3c1207bd 	lui	s2,0x7bd
bfc00f90:	36525c70 	ori	s2,s2,0x5c70
bfc00f94:	161204b2 	bne	s0,s2,bfc02260 <inst_error>
bfc00f98:	00000000 	nop
bfc00f9c:	3c085db9 	lui	t0,0x5db9
bfc00fa0:	35081e00 	ori	t0,t0,0x1e00
bfc00fa4:	24090006 	li	t1,6
bfc00fa8:	00088182 	srl	s0,t0,0x6
bfc00fac:	3c120176 	lui	s2,0x176
bfc00fb0:	3652e478 	ori	s2,s2,0xe478
bfc00fb4:	161204aa 	bne	s0,s2,bfc02260 <inst_error>
bfc00fb8:	00000000 	nop
bfc00fbc:	3c08a13b 	lui	t0,0xa13b
bfc00fc0:	35085140 	ori	t0,t0,0x5140
bfc00fc4:	24090018 	li	t1,24
bfc00fc8:	00088602 	srl	s0,t0,0x18
bfc00fcc:	241200a1 	li	s2,161
bfc00fd0:	161204a3 	bne	s0,s2,bfc02260 <inst_error>
bfc00fd4:	00000000 	nop
bfc00fd8:	3c084b12 	lui	t0,0x4b12
bfc00fdc:	35085b37 	ori	t0,t0,0x5b37
bfc00fe0:	24090005 	li	t1,5
bfc00fe4:	00088142 	srl	s0,t0,0x5
bfc00fe8:	3c120258 	lui	s2,0x258
bfc00fec:	365292d9 	ori	s2,s2,0x92d9
bfc00ff0:	1612049b 	bne	s0,s2,bfc02260 <inst_error>
bfc00ff4:	00000000 	nop
bfc00ff8:	3c082821 	lui	t0,0x2821
bfc00ffc:	3508de00 	ori	t0,t0,0xde00
bfc01000:	24090010 	li	t1,16
bfc01004:	00088402 	srl	s0,t0,0x10
bfc01008:	24122821 	li	s2,10273
bfc0100c:	16120494 	bne	s0,s2,bfc02260 <inst_error>
bfc01010:	00000000 	nop
bfc01014:	3c08a1e1 	lui	t0,0xa1e1
bfc01018:	35080762 	ori	t0,t0,0x762
bfc0101c:	24090013 	li	t1,19
bfc01020:	000884c2 	srl	s0,t0,0x13
bfc01024:	2412143c 	li	s2,5180
bfc01028:	1612048d 	bne	s0,s2,bfc02260 <inst_error>
bfc0102c:	00000000 	nop
bfc01030:	3c08bd6e 	lui	t0,0xbd6e
bfc01034:	3508a4d8 	ori	t0,t0,0xa4d8
bfc01038:	2409001b 	li	t1,27
bfc0103c:	000886c2 	srl	s0,t0,0x1b
bfc01040:	24120017 	li	s2,23
bfc01044:	16120486 	bne	s0,s2,bfc02260 <inst_error>
bfc01048:	00000000 	nop
bfc0104c:	3c081751 	lui	t0,0x1751
bfc01050:	3508c2f2 	ori	t0,t0,0xc2f2
bfc01054:	24090013 	li	t1,19
bfc01058:	000884c2 	srl	s0,t0,0x13
bfc0105c:	241202ea 	li	s2,746
bfc01060:	1612047f 	bne	s0,s2,bfc02260 <inst_error>
bfc01064:	00000000 	nop
bfc01068:	3c085746 	lui	t0,0x5746
bfc0106c:	3508f770 	ori	t0,t0,0xf770
bfc01070:	24090011 	li	t1,17
bfc01074:	00088442 	srl	s0,t0,0x11
bfc01078:	24122ba3 	li	s2,11171
bfc0107c:	16120478 	bne	s0,s2,bfc02260 <inst_error>
bfc01080:	00000000 	nop
bfc01084:	3c0818f4 	lui	t0,0x18f4
bfc01088:	35087ec0 	ori	t0,t0,0x7ec0
bfc0108c:	2409000a 	li	t1,10
bfc01090:	00088282 	srl	s0,t0,0xa
bfc01094:	3c120006 	lui	s2,0x6
bfc01098:	36523d1f 	ori	s2,s2,0x3d1f
bfc0109c:	16120470 	bne	s0,s2,bfc02260 <inst_error>
bfc010a0:	00000000 	nop
bfc010a4:	3c081837 	lui	t0,0x1837
bfc010a8:	35087db1 	ori	t0,t0,0x7db1
bfc010ac:	24090013 	li	t1,19
bfc010b0:	000884c2 	srl	s0,t0,0x13
bfc010b4:	24120306 	li	s2,774
bfc010b8:	16120469 	bne	s0,s2,bfc02260 <inst_error>
bfc010bc:	00000000 	nop
bfc010c0:	3c089612 	lui	t0,0x9612
bfc010c4:	3508ed20 	ori	t0,t0,0xed20
bfc010c8:	24090017 	li	t1,23
bfc010cc:	000885c2 	srl	s0,t0,0x17
bfc010d0:	2412012c 	li	s2,300
bfc010d4:	16120462 	bne	s0,s2,bfc02260 <inst_error>
bfc010d8:	00000000 	nop
bfc010dc:	3c083ff8 	lui	t0,0x3ff8
bfc010e0:	350833c1 	ori	t0,t0,0x33c1
bfc010e4:	24090002 	li	t1,2
bfc010e8:	00088082 	srl	s0,t0,0x2
bfc010ec:	3c120ffe 	lui	s2,0xffe
bfc010f0:	36520cf0 	ori	s2,s2,0xcf0
bfc010f4:	1612045a 	bne	s0,s2,bfc02260 <inst_error>
bfc010f8:	00000000 	nop
bfc010fc:	3c0890de 	lui	t0,0x90de
bfc01100:	35083f60 	ori	t0,t0,0x3f60
bfc01104:	24090003 	li	t1,3
bfc01108:	000880c2 	srl	s0,t0,0x3
bfc0110c:	3c12121b 	lui	s2,0x121b
bfc01110:	3652c7ec 	ori	s2,s2,0xc7ec
bfc01114:	16120452 	bne	s0,s2,bfc02260 <inst_error>
bfc01118:	00000000 	nop
bfc0111c:	3c080fcd 	lui	t0,0xfcd
bfc01120:	3508ca28 	ori	t0,t0,0xca28
bfc01124:	24090003 	li	t1,3
bfc01128:	000880c2 	srl	s0,t0,0x3
bfc0112c:	3c1201f9 	lui	s2,0x1f9
bfc01130:	3652b945 	ori	s2,s2,0xb945
bfc01134:	1612044a 	bne	s0,s2,bfc02260 <inst_error>
bfc01138:	00000000 	nop
bfc0113c:	3c08d42d 	lui	t0,0xd42d
bfc01140:	350871c0 	ori	t0,t0,0x71c0
bfc01144:	24090017 	li	t1,23
bfc01148:	000885c2 	srl	s0,t0,0x17
bfc0114c:	241201a8 	li	s2,424
bfc01150:	16120443 	bne	s0,s2,bfc02260 <inst_error>
bfc01154:	00000000 	nop
bfc01158:	3c085de1 	lui	t0,0x5de1
bfc0115c:	35083940 	ori	t0,t0,0x3940
bfc01160:	2409000a 	li	t1,10
bfc01164:	00088282 	srl	s0,t0,0xa
bfc01168:	3c120017 	lui	s2,0x17
bfc0116c:	3652784e 	ori	s2,s2,0x784e
bfc01170:	1612043b 	bne	s0,s2,bfc02260 <inst_error>
bfc01174:	00000000 	nop
bfc01178:	3c08f6a0 	lui	t0,0xf6a0
bfc0117c:	3508da2a 	ori	t0,t0,0xda2a
bfc01180:	24090016 	li	t1,22
bfc01184:	00088582 	srl	s0,t0,0x16
bfc01188:	241203da 	li	s2,986
bfc0118c:	16120434 	bne	s0,s2,bfc02260 <inst_error>
bfc01190:	00000000 	nop
bfc01194:	3c089960 	lui	t0,0x9960
bfc01198:	3508cb98 	ori	t0,t0,0xcb98
bfc0119c:	24090012 	li	t1,18
bfc011a0:	00088482 	srl	s0,t0,0x12
bfc011a4:	24122658 	li	s2,9816
bfc011a8:	1612042d 	bne	s0,s2,bfc02260 <inst_error>
bfc011ac:	00000000 	nop
bfc011b0:	3c0848c7 	lui	t0,0x48c7
bfc011b4:	35080640 	ori	t0,t0,0x640
bfc011b8:	24090013 	li	t1,19
bfc011bc:	000884c2 	srl	s0,t0,0x13
bfc011c0:	24120918 	li	s2,2328
bfc011c4:	16120426 	bne	s0,s2,bfc02260 <inst_error>
bfc011c8:	00000000 	nop
bfc011cc:	3c086ade 	lui	t0,0x6ade
bfc011d0:	35083a10 	ori	t0,t0,0x3a10
bfc011d4:	24090018 	li	t1,24
bfc011d8:	00088602 	srl	s0,t0,0x18
bfc011dc:	2412006a 	li	s2,106
bfc011e0:	1612041f 	bne	s0,s2,bfc02260 <inst_error>
bfc011e4:	00000000 	nop
bfc011e8:	3c08a818 	lui	t0,0xa818
bfc011ec:	3508867c 	ori	t0,t0,0x867c
bfc011f0:	2409001f 	li	t1,31
bfc011f4:	000887c2 	srl	s0,t0,0x1f
bfc011f8:	24120001 	li	s2,1
bfc011fc:	16120418 	bne	s0,s2,bfc02260 <inst_error>
bfc01200:	00000000 	nop
bfc01204:	3c082174 	lui	t0,0x2174
bfc01208:	35082cc4 	ori	t0,t0,0x2cc4
bfc0120c:	24090011 	li	t1,17
bfc01210:	00088442 	srl	s0,t0,0x11
bfc01214:	241210ba 	li	s2,4282
bfc01218:	16120411 	bne	s0,s2,bfc02260 <inst_error>
bfc0121c:	00000000 	nop
bfc01220:	3c08a991 	lui	t0,0xa991
bfc01224:	3508afba 	ori	t0,t0,0xafba
bfc01228:	2409001e 	li	t1,30
bfc0122c:	00088782 	srl	s0,t0,0x1e
bfc01230:	24120002 	li	s2,2
bfc01234:	1612040a 	bne	s0,s2,bfc02260 <inst_error>
bfc01238:	00000000 	nop
bfc0123c:	3c081044 	lui	t0,0x1044
bfc01240:	3508822e 	ori	t0,t0,0x822e
bfc01244:	2409001f 	li	t1,31
bfc01248:	000887c2 	srl	s0,t0,0x1f
bfc0124c:	24120000 	li	s2,0
bfc01250:	16120403 	bne	s0,s2,bfc02260 <inst_error>
bfc01254:	00000000 	nop
bfc01258:	3c08594e 	lui	t0,0x594e
bfc0125c:	3508b0c9 	ori	t0,t0,0xb0c9
bfc01260:	2409000c 	li	t1,12
bfc01264:	00088302 	srl	s0,t0,0xc
bfc01268:	3c120005 	lui	s2,0x5
bfc0126c:	365294eb 	ori	s2,s2,0x94eb
bfc01270:	161203fb 	bne	s0,s2,bfc02260 <inst_error>
bfc01274:	00000000 	nop
bfc01278:	3c08cab8 	lui	t0,0xcab8
bfc0127c:	350845e0 	ori	t0,t0,0x45e0
bfc01280:	2409001a 	li	t1,26
bfc01284:	00088682 	srl	s0,t0,0x1a
bfc01288:	24120032 	li	s2,50
bfc0128c:	161203f4 	bne	s0,s2,bfc02260 <inst_error>
bfc01290:	00000000 	nop
bfc01294:	3c08b885 	lui	t0,0xb885
bfc01298:	3508f1b0 	ori	t0,t0,0xf1b0
bfc0129c:	24090019 	li	t1,25
bfc012a0:	00088642 	srl	s0,t0,0x19
bfc012a4:	2412005c 	li	s2,92
bfc012a8:	161203ed 	bne	s0,s2,bfc02260 <inst_error>
bfc012ac:	00000000 	nop
bfc012b0:	3c08bb4d 	lui	t0,0xbb4d
bfc012b4:	3508a25e 	ori	t0,t0,0xa25e
bfc012b8:	2409001c 	li	t1,28
bfc012bc:	00088702 	srl	s0,t0,0x1c
bfc012c0:	2412000b 	li	s2,11
bfc012c4:	161203e6 	bne	s0,s2,bfc02260 <inst_error>
bfc012c8:	00000000 	nop
bfc012cc:	3c089913 	lui	t0,0x9913
bfc012d0:	3508d5a8 	ori	t0,t0,0xd5a8
bfc012d4:	24090001 	li	t1,1
bfc012d8:	00088042 	srl	s0,t0,0x1
bfc012dc:	3c124c89 	lui	s2,0x4c89
bfc012e0:	3652ead4 	ori	s2,s2,0xead4
bfc012e4:	161203de 	bne	s0,s2,bfc02260 <inst_error>
bfc012e8:	00000000 	nop
bfc012ec:	3c08deb2 	lui	t0,0xdeb2
bfc012f0:	3508a9ac 	ori	t0,t0,0xa9ac
bfc012f4:	2409000b 	li	t1,11
bfc012f8:	000882c2 	srl	s0,t0,0xb
bfc012fc:	3c12001b 	lui	s2,0x1b
bfc01300:	3652d655 	ori	s2,s2,0xd655
bfc01304:	161203d6 	bne	s0,s2,bfc02260 <inst_error>
bfc01308:	00000000 	nop
bfc0130c:	3c080cec 	lui	t0,0xcec
bfc01310:	3508eeef 	ori	t0,t0,0xeeef
bfc01314:	24090007 	li	t1,7
bfc01318:	000881c2 	srl	s0,t0,0x7
bfc0131c:	3c120019 	lui	s2,0x19
bfc01320:	3652d9dd 	ori	s2,s2,0xd9dd
bfc01324:	161203ce 	bne	s0,s2,bfc02260 <inst_error>
bfc01328:	00000000 	nop
bfc0132c:	3c08c689 	lui	t0,0xc689
bfc01330:	3508d515 	ori	t0,t0,0xd515
bfc01334:	24090014 	li	t1,20
bfc01338:	00088502 	srl	s0,t0,0x14
bfc0133c:	24120c68 	li	s2,3176
bfc01340:	161203c7 	bne	s0,s2,bfc02260 <inst_error>
bfc01344:	00000000 	nop
bfc01348:	3c085322 	lui	t0,0x5322
bfc0134c:	3508069a 	ori	t0,t0,0x69a
bfc01350:	24090000 	li	t1,0
bfc01354:	00088002 	srl	s0,t0,0x0
bfc01358:	3c125322 	lui	s2,0x5322
bfc0135c:	3652069a 	ori	s2,s2,0x69a
bfc01360:	161203bf 	bne	s0,s2,bfc02260 <inst_error>
bfc01364:	00000000 	nop
bfc01368:	3c08c011 	lui	t0,0xc011
bfc0136c:	350853e0 	ori	t0,t0,0x53e0
bfc01370:	24090008 	li	t1,8
bfc01374:	00088202 	srl	s0,t0,0x8
bfc01378:	3c1200c0 	lui	s2,0xc0
bfc0137c:	36521153 	ori	s2,s2,0x1153
bfc01380:	161203b7 	bne	s0,s2,bfc02260 <inst_error>
bfc01384:	00000000 	nop
bfc01388:	3c088ad5 	lui	t0,0x8ad5
bfc0138c:	350831ce 	ori	t0,t0,0x31ce
bfc01390:	2409001e 	li	t1,30
bfc01394:	00088782 	srl	s0,t0,0x1e
bfc01398:	24120002 	li	s2,2
bfc0139c:	161203b0 	bne	s0,s2,bfc02260 <inst_error>
bfc013a0:	00000000 	nop
bfc013a4:	3c087cbe 	lui	t0,0x7cbe
bfc013a8:	35087e40 	ori	t0,t0,0x7e40
bfc013ac:	2409001c 	li	t1,28
bfc013b0:	00088702 	srl	s0,t0,0x1c
bfc013b4:	24120007 	li	s2,7
bfc013b8:	161203a9 	bne	s0,s2,bfc02260 <inst_error>
bfc013bc:	00000000 	nop
bfc013c0:	3c08248c 	lui	t0,0x248c
bfc013c4:	3508ac4c 	ori	t0,t0,0xac4c
bfc013c8:	2409001b 	li	t1,27
bfc013cc:	000886c2 	srl	s0,t0,0x1b
bfc013d0:	24120004 	li	s2,4
bfc013d4:	161203a2 	bne	s0,s2,bfc02260 <inst_error>
bfc013d8:	00000000 	nop
bfc013dc:	3c08193c 	lui	t0,0x193c
bfc013e0:	35089e68 	ori	t0,t0,0x9e68
bfc013e4:	24090009 	li	t1,9
bfc013e8:	00088242 	srl	s0,t0,0x9
bfc013ec:	3c12000c 	lui	s2,0xc
bfc013f0:	36529e4f 	ori	s2,s2,0x9e4f
bfc013f4:	1612039a 	bne	s0,s2,bfc02260 <inst_error>
bfc013f8:	00000000 	nop
bfc013fc:	3c0896fc 	lui	t0,0x96fc
bfc01400:	3508b75e 	ori	t0,t0,0xb75e
bfc01404:	24090016 	li	t1,22
bfc01408:	00088582 	srl	s0,t0,0x16
bfc0140c:	2412025b 	li	s2,603
bfc01410:	16120393 	bne	s0,s2,bfc02260 <inst_error>
bfc01414:	00000000 	nop
bfc01418:	3c087c66 	lui	t0,0x7c66
bfc0141c:	3508d8a8 	ori	t0,t0,0xd8a8
bfc01420:	24090017 	li	t1,23
bfc01424:	000885c2 	srl	s0,t0,0x17
bfc01428:	241200f8 	li	s2,248
bfc0142c:	1612038c 	bne	s0,s2,bfc02260 <inst_error>
bfc01430:	00000000 	nop
bfc01434:	3c0897c6 	lui	t0,0x97c6
bfc01438:	35088582 	ori	t0,t0,0x8582
bfc0143c:	24090013 	li	t1,19
bfc01440:	000884c2 	srl	s0,t0,0x13
bfc01444:	241212f8 	li	s2,4856
bfc01448:	16120385 	bne	s0,s2,bfc02260 <inst_error>
bfc0144c:	00000000 	nop
bfc01450:	3c0867e9 	lui	t0,0x67e9
bfc01454:	3508d088 	ori	t0,t0,0xd088
bfc01458:	24090016 	li	t1,22
bfc0145c:	00088582 	srl	s0,t0,0x16
bfc01460:	2412019f 	li	s2,415
bfc01464:	1612037e 	bne	s0,s2,bfc02260 <inst_error>
bfc01468:	00000000 	nop
bfc0146c:	3c08ac7c 	lui	t0,0xac7c
bfc01470:	3508a5f0 	ori	t0,t0,0xa5f0
bfc01474:	24090017 	li	t1,23
bfc01478:	000885c2 	srl	s0,t0,0x17
bfc0147c:	24120158 	li	s2,344
bfc01480:	16120377 	bne	s0,s2,bfc02260 <inst_error>
bfc01484:	00000000 	nop
bfc01488:	3c0836ea 	lui	t0,0x36ea
bfc0148c:	350827a0 	ori	t0,t0,0x27a0
bfc01490:	24090018 	li	t1,24
bfc01494:	00088602 	srl	s0,t0,0x18
bfc01498:	24120036 	li	s2,54
bfc0149c:	16120370 	bne	s0,s2,bfc02260 <inst_error>
bfc014a0:	00000000 	nop
bfc014a4:	3c088edc 	lui	t0,0x8edc
bfc014a8:	35088558 	ori	t0,t0,0x8558
bfc014ac:	2409001c 	li	t1,28
bfc014b0:	00088702 	srl	s0,t0,0x1c
bfc014b4:	24120008 	li	s2,8
bfc014b8:	16120369 	bne	s0,s2,bfc02260 <inst_error>
bfc014bc:	00000000 	nop
bfc014c0:	3c08c817 	lui	t0,0xc817
bfc014c4:	350862b0 	ori	t0,t0,0x62b0
bfc014c8:	24090012 	li	t1,18
bfc014cc:	00088482 	srl	s0,t0,0x12
bfc014d0:	24123205 	li	s2,12805
bfc014d4:	16120362 	bne	s0,s2,bfc02260 <inst_error>
bfc014d8:	00000000 	nop
bfc014dc:	3c080764 	lui	t0,0x764
bfc014e0:	35083feb 	ori	t0,t0,0x3feb
bfc014e4:	24090002 	li	t1,2
bfc014e8:	00088082 	srl	s0,t0,0x2
bfc014ec:	3c1201d9 	lui	s2,0x1d9
bfc014f0:	36520ffa 	ori	s2,s2,0xffa
bfc014f4:	1612035a 	bne	s0,s2,bfc02260 <inst_error>
bfc014f8:	00000000 	nop
bfc014fc:	3c0803cb 	lui	t0,0x3cb
bfc01500:	35085a9a 	ori	t0,t0,0x5a9a
bfc01504:	24090019 	li	t1,25
bfc01508:	00088642 	srl	s0,t0,0x19
bfc0150c:	24120001 	li	s2,1
bfc01510:	16120353 	bne	s0,s2,bfc02260 <inst_error>
bfc01514:	00000000 	nop
bfc01518:	3c085f6e 	lui	t0,0x5f6e
bfc0151c:	35089b04 	ori	t0,t0,0x9b04
bfc01520:	2409000e 	li	t1,14
bfc01524:	00088382 	srl	s0,t0,0xe
bfc01528:	3c120001 	lui	s2,0x1
bfc0152c:	36527dba 	ori	s2,s2,0x7dba
bfc01530:	1612034b 	bne	s0,s2,bfc02260 <inst_error>
bfc01534:	00000000 	nop
bfc01538:	3c08f938 	lui	t0,0xf938
bfc0153c:	35081ef8 	ori	t0,t0,0x1ef8
bfc01540:	2409000d 	li	t1,13
bfc01544:	00088342 	srl	s0,t0,0xd
bfc01548:	3c120007 	lui	s2,0x7
bfc0154c:	3652c9c0 	ori	s2,s2,0xc9c0
bfc01550:	16120343 	bne	s0,s2,bfc02260 <inst_error>
bfc01554:	00000000 	nop
bfc01558:	3c089f2a 	lui	t0,0x9f2a
bfc0155c:	3508e4bd 	ori	t0,t0,0xe4bd
bfc01560:	2409000a 	li	t1,10
bfc01564:	00088282 	srl	s0,t0,0xa
bfc01568:	3c120027 	lui	s2,0x27
bfc0156c:	3652cab9 	ori	s2,s2,0xcab9
bfc01570:	1612033b 	bne	s0,s2,bfc02260 <inst_error>
bfc01574:	00000000 	nop
bfc01578:	3c08fccd 	lui	t0,0xfccd
bfc0157c:	35086510 	ori	t0,t0,0x6510
bfc01580:	24090003 	li	t1,3
bfc01584:	000880c2 	srl	s0,t0,0x3
bfc01588:	3c121f99 	lui	s2,0x1f99
bfc0158c:	3652aca2 	ori	s2,s2,0xaca2
bfc01590:	16120333 	bne	s0,s2,bfc02260 <inst_error>
bfc01594:	00000000 	nop
bfc01598:	3c08f4d0 	lui	t0,0xf4d0
bfc0159c:	350822a3 	ori	t0,t0,0x22a3
bfc015a0:	2409001d 	li	t1,29
bfc015a4:	00088742 	srl	s0,t0,0x1d
bfc015a8:	24120007 	li	s2,7
bfc015ac:	1612032c 	bne	s0,s2,bfc02260 <inst_error>
bfc015b0:	00000000 	nop
bfc015b4:	3c08d01e 	lui	t0,0xd01e
bfc015b8:	35081628 	ori	t0,t0,0x1628
bfc015bc:	24090000 	li	t1,0
bfc015c0:	00088002 	srl	s0,t0,0x0
bfc015c4:	3c12d01e 	lui	s2,0xd01e
bfc015c8:	36521628 	ori	s2,s2,0x1628
bfc015cc:	16120324 	bne	s0,s2,bfc02260 <inst_error>
bfc015d0:	00000000 	nop
bfc015d4:	3c0850d2 	lui	t0,0x50d2
bfc015d8:	3508eb64 	ori	t0,t0,0xeb64
bfc015dc:	24090017 	li	t1,23
bfc015e0:	000885c2 	srl	s0,t0,0x17
bfc015e4:	241200a1 	li	s2,161
bfc015e8:	1612031d 	bne	s0,s2,bfc02260 <inst_error>
bfc015ec:	00000000 	nop
bfc015f0:	3c08f7fe 	lui	t0,0xf7fe
bfc015f4:	35081380 	ori	t0,t0,0x1380
bfc015f8:	2409000a 	li	t1,10
bfc015fc:	00088282 	srl	s0,t0,0xa
bfc01600:	3c12003d 	lui	s2,0x3d
bfc01604:	3652ff84 	ori	s2,s2,0xff84
bfc01608:	16120315 	bne	s0,s2,bfc02260 <inst_error>
bfc0160c:	00000000 	nop
bfc01610:	3c083f20 	lui	t0,0x3f20
bfc01614:	35088b00 	ori	t0,t0,0x8b00
bfc01618:	2409001d 	li	t1,29
bfc0161c:	00088742 	srl	s0,t0,0x1d
bfc01620:	24120001 	li	s2,1
bfc01624:	1612030e 	bne	s0,s2,bfc02260 <inst_error>
bfc01628:	00000000 	nop
bfc0162c:	3c08b050 	lui	t0,0xb050
bfc01630:	3508fbc4 	ori	t0,t0,0xfbc4
bfc01634:	24090005 	li	t1,5
bfc01638:	00088142 	srl	s0,t0,0x5
bfc0163c:	3c120582 	lui	s2,0x582
bfc01640:	365287de 	ori	s2,s2,0x87de
bfc01644:	16120306 	bne	s0,s2,bfc02260 <inst_error>
bfc01648:	00000000 	nop
bfc0164c:	3c08d7cf 	lui	t0,0xd7cf
bfc01650:	35089260 	ori	t0,t0,0x9260
bfc01654:	24090018 	li	t1,24
bfc01658:	00088602 	srl	s0,t0,0x18
bfc0165c:	241200d7 	li	s2,215
bfc01660:	161202ff 	bne	s0,s2,bfc02260 <inst_error>
bfc01664:	00000000 	nop
bfc01668:	3c08c9f5 	lui	t0,0xc9f5
bfc0166c:	3508e6f8 	ori	t0,t0,0xe6f8
bfc01670:	2409000d 	li	t1,13
bfc01674:	00088342 	srl	s0,t0,0xd
bfc01678:	3c120006 	lui	s2,0x6
bfc0167c:	36524faf 	ori	s2,s2,0x4faf
bfc01680:	161202f7 	bne	s0,s2,bfc02260 <inst_error>
bfc01684:	00000000 	nop
bfc01688:	3c0813c1 	lui	t0,0x13c1
bfc0168c:	35083f3c 	ori	t0,t0,0x3f3c
bfc01690:	24090014 	li	t1,20
bfc01694:	00088502 	srl	s0,t0,0x14
bfc01698:	2412013c 	li	s2,316
bfc0169c:	161202f0 	bne	s0,s2,bfc02260 <inst_error>
bfc016a0:	00000000 	nop
bfc016a4:	3c085609 	lui	t0,0x5609
bfc016a8:	3508a2fa 	ori	t0,t0,0xa2fa
bfc016ac:	24090005 	li	t1,5
bfc016b0:	00088142 	srl	s0,t0,0x5
bfc016b4:	3c1202b0 	lui	s2,0x2b0
bfc016b8:	36524d17 	ori	s2,s2,0x4d17
bfc016bc:	161202e8 	bne	s0,s2,bfc02260 <inst_error>
bfc016c0:	00000000 	nop
bfc016c4:	3c0882b7 	lui	t0,0x82b7
bfc016c8:	3508b880 	ori	t0,t0,0xb880
bfc016cc:	24090002 	li	t1,2
bfc016d0:	00088082 	srl	s0,t0,0x2
bfc016d4:	3c1220ad 	lui	s2,0x20ad
bfc016d8:	3652ee20 	ori	s2,s2,0xee20
bfc016dc:	161202e0 	bne	s0,s2,bfc02260 <inst_error>
bfc016e0:	00000000 	nop
bfc016e4:	3c0810e0 	lui	t0,0x10e0
bfc016e8:	35081b20 	ori	t0,t0,0x1b20
bfc016ec:	24090019 	li	t1,25
bfc016f0:	00088642 	srl	s0,t0,0x19
bfc016f4:	24120008 	li	s2,8
bfc016f8:	161202d9 	bne	s0,s2,bfc02260 <inst_error>
bfc016fc:	00000000 	nop
bfc01700:	3c0854c7 	lui	t0,0x54c7
bfc01704:	35084415 	ori	t0,t0,0x4415
bfc01708:	24090012 	li	t1,18
bfc0170c:	00088482 	srl	s0,t0,0x12
bfc01710:	24121531 	li	s2,5425
bfc01714:	161202d2 	bne	s0,s2,bfc02260 <inst_error>
bfc01718:	00000000 	nop
bfc0171c:	3c084bcc 	lui	t0,0x4bcc
bfc01720:	3508116e 	ori	t0,t0,0x116e
bfc01724:	2409000f 	li	t1,15
bfc01728:	000883c2 	srl	s0,t0,0xf
bfc0172c:	34129798 	li	s2,0x9798
bfc01730:	161202cb 	bne	s0,s2,bfc02260 <inst_error>
bfc01734:	00000000 	nop
bfc01738:	3c08644c 	lui	t0,0x644c
bfc0173c:	35083ef8 	ori	t0,t0,0x3ef8
bfc01740:	24090016 	li	t1,22
bfc01744:	00088582 	srl	s0,t0,0x16
bfc01748:	24120191 	li	s2,401
bfc0174c:	161202c4 	bne	s0,s2,bfc02260 <inst_error>
bfc01750:	00000000 	nop
bfc01754:	3c0848d1 	lui	t0,0x48d1
bfc01758:	35088780 	ori	t0,t0,0x8780
bfc0175c:	24090000 	li	t1,0
bfc01760:	00088002 	srl	s0,t0,0x0
bfc01764:	3c1248d1 	lui	s2,0x48d1
bfc01768:	36528780 	ori	s2,s2,0x8780
bfc0176c:	161202bc 	bne	s0,s2,bfc02260 <inst_error>
bfc01770:	00000000 	nop
bfc01774:	3c08b4bf 	lui	t0,0xb4bf
bfc01778:	350857b8 	ori	t0,t0,0x57b8
bfc0177c:	24090000 	li	t1,0
bfc01780:	00088002 	srl	s0,t0,0x0
bfc01784:	3c12b4bf 	lui	s2,0xb4bf
bfc01788:	365257b8 	ori	s2,s2,0x57b8
bfc0178c:	161202b4 	bne	s0,s2,bfc02260 <inst_error>
bfc01790:	00000000 	nop
bfc01794:	3c087100 	lui	t0,0x7100
bfc01798:	35080c2b 	ori	t0,t0,0xc2b
bfc0179c:	24090000 	li	t1,0
bfc017a0:	00088002 	srl	s0,t0,0x0
bfc017a4:	3c127100 	lui	s2,0x7100
bfc017a8:	36520c2b 	ori	s2,s2,0xc2b
bfc017ac:	161202ac 	bne	s0,s2,bfc02260 <inst_error>
bfc017b0:	00000000 	nop
bfc017b4:	3c08ccae 	lui	t0,0xccae
bfc017b8:	3508bba5 	ori	t0,t0,0xbba5
bfc017bc:	24090000 	li	t1,0
bfc017c0:	00088002 	srl	s0,t0,0x0
bfc017c4:	3c12ccae 	lui	s2,0xccae
bfc017c8:	3652bba5 	ori	s2,s2,0xbba5
bfc017cc:	161202a4 	bne	s0,s2,bfc02260 <inst_error>
bfc017d0:	00000000 	nop
bfc017d4:	3c0835d5 	lui	t0,0x35d5
bfc017d8:	3508c040 	ori	t0,t0,0xc040
bfc017dc:	24090000 	li	t1,0
bfc017e0:	00088002 	srl	s0,t0,0x0
bfc017e4:	3c1235d5 	lui	s2,0x35d5
bfc017e8:	3652c040 	ori	s2,s2,0xc040
bfc017ec:	1612029c 	bne	s0,s2,bfc02260 <inst_error>
bfc017f0:	00000000 	nop
bfc017f4:	3c08bbaf 	lui	t0,0xbbaf
bfc017f8:	3508be33 	ori	t0,t0,0xbe33
bfc017fc:	24090000 	li	t1,0
bfc01800:	00088002 	srl	s0,t0,0x0
bfc01804:	3c12bbaf 	lui	s2,0xbbaf
bfc01808:	3652be33 	ori	s2,s2,0xbe33
bfc0180c:	16120294 	bne	s0,s2,bfc02260 <inst_error>
bfc01810:	00000000 	nop
bfc01814:	3c083098 	lui	t0,0x3098
bfc01818:	3508b297 	ori	t0,t0,0xb297
bfc0181c:	24090000 	li	t1,0
bfc01820:	00088002 	srl	s0,t0,0x0
bfc01824:	3c123098 	lui	s2,0x3098
bfc01828:	3652b297 	ori	s2,s2,0xb297
bfc0182c:	1612028c 	bne	s0,s2,bfc02260 <inst_error>
bfc01830:	00000000 	nop
bfc01834:	3c088404 	lui	t0,0x8404
bfc01838:	350818eb 	ori	t0,t0,0x18eb
bfc0183c:	24090000 	li	t1,0
bfc01840:	00088002 	srl	s0,t0,0x0
bfc01844:	3c128404 	lui	s2,0x8404
bfc01848:	365218eb 	ori	s2,s2,0x18eb
bfc0184c:	16120284 	bne	s0,s2,bfc02260 <inst_error>
bfc01850:	00000000 	nop
bfc01854:	3c089889 	lui	t0,0x9889
bfc01858:	3508fdd0 	ori	t0,t0,0xfdd0
bfc0185c:	24090000 	li	t1,0
bfc01860:	00088002 	srl	s0,t0,0x0
bfc01864:	3c129889 	lui	s2,0x9889
bfc01868:	3652fdd0 	ori	s2,s2,0xfdd0
bfc0186c:	1612027c 	bne	s0,s2,bfc02260 <inst_error>
bfc01870:	00000000 	nop
bfc01874:	3c08eb66 	lui	t0,0xeb66
bfc01878:	35082556 	ori	t0,t0,0x2556
bfc0187c:	24090000 	li	t1,0
bfc01880:	00088002 	srl	s0,t0,0x0
bfc01884:	3c12eb66 	lui	s2,0xeb66
bfc01888:	36522556 	ori	s2,s2,0x2556
bfc0188c:	16120274 	bne	s0,s2,bfc02260 <inst_error>
bfc01890:	00000000 	nop
bfc01894:	3c08d92d 	lui	t0,0xd92d
bfc01898:	3508d10e 	ori	t0,t0,0xd10e
bfc0189c:	24090000 	li	t1,0
bfc018a0:	00088002 	srl	s0,t0,0x0
bfc018a4:	3c12d92d 	lui	s2,0xd92d
bfc018a8:	3652d10e 	ori	s2,s2,0xd10e
bfc018ac:	1612026c 	bne	s0,s2,bfc02260 <inst_error>
bfc018b0:	00000000 	nop
bfc018b4:	3c08eb62 	lui	t0,0xeb62
bfc018b8:	350840b4 	ori	t0,t0,0x40b4
bfc018bc:	24090000 	li	t1,0
bfc018c0:	00088002 	srl	s0,t0,0x0
bfc018c4:	3c12eb62 	lui	s2,0xeb62
bfc018c8:	365240b4 	ori	s2,s2,0x40b4
bfc018cc:	16120264 	bne	s0,s2,bfc02260 <inst_error>
bfc018d0:	00000000 	nop
bfc018d4:	3c087936 	lui	t0,0x7936
bfc018d8:	35088c54 	ori	t0,t0,0x8c54
bfc018dc:	24090000 	li	t1,0
bfc018e0:	00088002 	srl	s0,t0,0x0
bfc018e4:	3c127936 	lui	s2,0x7936
bfc018e8:	36528c54 	ori	s2,s2,0x8c54
bfc018ec:	1612025c 	bne	s0,s2,bfc02260 <inst_error>
bfc018f0:	00000000 	nop
bfc018f4:	3c08fdaa 	lui	t0,0xfdaa
bfc018f8:	35088940 	ori	t0,t0,0x8940
bfc018fc:	24090000 	li	t1,0
bfc01900:	00088002 	srl	s0,t0,0x0
bfc01904:	3c12fdaa 	lui	s2,0xfdaa
bfc01908:	36528940 	ori	s2,s2,0x8940
bfc0190c:	16120254 	bne	s0,s2,bfc02260 <inst_error>
bfc01910:	00000000 	nop
bfc01914:	3c08f3e9 	lui	t0,0xf3e9
bfc01918:	35089110 	ori	t0,t0,0x9110
bfc0191c:	24090000 	li	t1,0
bfc01920:	00088002 	srl	s0,t0,0x0
bfc01924:	3c12f3e9 	lui	s2,0xf3e9
bfc01928:	36529110 	ori	s2,s2,0x9110
bfc0192c:	1612024c 	bne	s0,s2,bfc02260 <inst_error>
bfc01930:	00000000 	nop
bfc01934:	3c080526 	lui	t0,0x526
bfc01938:	35080ce8 	ori	t0,t0,0xce8
bfc0193c:	24090000 	li	t1,0
bfc01940:	00088002 	srl	s0,t0,0x0
bfc01944:	3c120526 	lui	s2,0x526
bfc01948:	36520ce8 	ori	s2,s2,0xce8
bfc0194c:	16120244 	bne	s0,s2,bfc02260 <inst_error>
bfc01950:	00000000 	nop
bfc01954:	3c089d3f 	lui	t0,0x9d3f
bfc01958:	35087cee 	ori	t0,t0,0x7cee
bfc0195c:	24090000 	li	t1,0
bfc01960:	00088002 	srl	s0,t0,0x0
bfc01964:	3c129d3f 	lui	s2,0x9d3f
bfc01968:	36527cee 	ori	s2,s2,0x7cee
bfc0196c:	1612023c 	bne	s0,s2,bfc02260 <inst_error>
bfc01970:	00000000 	nop
bfc01974:	3c08ae5f 	lui	t0,0xae5f
bfc01978:	3508b658 	ori	t0,t0,0xb658
bfc0197c:	24090000 	li	t1,0
bfc01980:	00088002 	srl	s0,t0,0x0
bfc01984:	3c12ae5f 	lui	s2,0xae5f
bfc01988:	3652b658 	ori	s2,s2,0xb658
bfc0198c:	16120234 	bne	s0,s2,bfc02260 <inst_error>
bfc01990:	00000000 	nop
bfc01994:	3c083166 	lui	t0,0x3166
bfc01998:	350838e8 	ori	t0,t0,0x38e8
bfc0199c:	24090000 	li	t1,0
bfc019a0:	00088002 	srl	s0,t0,0x0
bfc019a4:	3c123166 	lui	s2,0x3166
bfc019a8:	365238e8 	ori	s2,s2,0x38e8
bfc019ac:	1612022c 	bne	s0,s2,bfc02260 <inst_error>
bfc019b0:	00000000 	nop
bfc019b4:	3c085251 	lui	t0,0x5251
bfc019b8:	3508b1e0 	ori	t0,t0,0xb1e0
bfc019bc:	24090000 	li	t1,0
bfc019c0:	00088002 	srl	s0,t0,0x0
bfc019c4:	3c125251 	lui	s2,0x5251
bfc019c8:	3652b1e0 	ori	s2,s2,0xb1e0
bfc019cc:	16120224 	bne	s0,s2,bfc02260 <inst_error>
bfc019d0:	00000000 	nop
bfc019d4:	3c08a1ca 	lui	t0,0xa1ca
bfc019d8:	350869a0 	ori	t0,t0,0x69a0
bfc019dc:	24090000 	li	t1,0
bfc019e0:	00088002 	srl	s0,t0,0x0
bfc019e4:	3c12a1ca 	lui	s2,0xa1ca
bfc019e8:	365269a0 	ori	s2,s2,0x69a0
bfc019ec:	1612021c 	bne	s0,s2,bfc02260 <inst_error>
bfc019f0:	00000000 	nop
bfc019f4:	3c080208 	lui	t0,0x208
bfc019f8:	35086f98 	ori	t0,t0,0x6f98
bfc019fc:	24090000 	li	t1,0
bfc01a00:	00088002 	srl	s0,t0,0x0
bfc01a04:	3c120208 	lui	s2,0x208
bfc01a08:	36526f98 	ori	s2,s2,0x6f98
bfc01a0c:	16120214 	bne	s0,s2,bfc02260 <inst_error>
bfc01a10:	00000000 	nop
bfc01a14:	3c08266e 	lui	t0,0x266e
bfc01a18:	3508f6d8 	ori	t0,t0,0xf6d8
bfc01a1c:	24090000 	li	t1,0
bfc01a20:	00088002 	srl	s0,t0,0x0
bfc01a24:	3c12266e 	lui	s2,0x266e
bfc01a28:	3652f6d8 	ori	s2,s2,0xf6d8
bfc01a2c:	1612020c 	bne	s0,s2,bfc02260 <inst_error>
bfc01a30:	00000000 	nop
bfc01a34:	3c08f57b 	lui	t0,0xf57b
bfc01a38:	3508d214 	ori	t0,t0,0xd214
bfc01a3c:	24090000 	li	t1,0
bfc01a40:	00088002 	srl	s0,t0,0x0
bfc01a44:	3c12f57b 	lui	s2,0xf57b
bfc01a48:	3652d214 	ori	s2,s2,0xd214
bfc01a4c:	16120204 	bne	s0,s2,bfc02260 <inst_error>
bfc01a50:	00000000 	nop
bfc01a54:	3c08ddce 	lui	t0,0xddce
bfc01a58:	35085bbc 	ori	t0,t0,0x5bbc
bfc01a5c:	24090000 	li	t1,0
bfc01a60:	00088002 	srl	s0,t0,0x0
bfc01a64:	3c12ddce 	lui	s2,0xddce
bfc01a68:	36525bbc 	ori	s2,s2,0x5bbc
bfc01a6c:	161201fc 	bne	s0,s2,bfc02260 <inst_error>
bfc01a70:	00000000 	nop
bfc01a74:	3c086f27 	lui	t0,0x6f27
bfc01a78:	35086284 	ori	t0,t0,0x6284
bfc01a7c:	24090000 	li	t1,0
bfc01a80:	00088002 	srl	s0,t0,0x0
bfc01a84:	3c126f27 	lui	s2,0x6f27
bfc01a88:	36526284 	ori	s2,s2,0x6284
bfc01a8c:	161201f4 	bne	s0,s2,bfc02260 <inst_error>
bfc01a90:	00000000 	nop
bfc01a94:	3c0859c0 	lui	t0,0x59c0
bfc01a98:	35084a2c 	ori	t0,t0,0x4a2c
bfc01a9c:	24090000 	li	t1,0
bfc01aa0:	00088002 	srl	s0,t0,0x0
bfc01aa4:	3c1259c0 	lui	s2,0x59c0
bfc01aa8:	36524a2c 	ori	s2,s2,0x4a2c
bfc01aac:	161201ec 	bne	s0,s2,bfc02260 <inst_error>
bfc01ab0:	00000000 	nop
bfc01ab4:	3c08aa2f 	lui	t0,0xaa2f
bfc01ab8:	35080e2a 	ori	t0,t0,0xe2a
bfc01abc:	24090000 	li	t1,0
bfc01ac0:	00088002 	srl	s0,t0,0x0
bfc01ac4:	3c12aa2f 	lui	s2,0xaa2f
bfc01ac8:	36520e2a 	ori	s2,s2,0xe2a
bfc01acc:	161201e4 	bne	s0,s2,bfc02260 <inst_error>
bfc01ad0:	00000000 	nop
bfc01ad4:	3c08ee78 	lui	t0,0xee78
bfc01ad8:	35083ae8 	ori	t0,t0,0x3ae8
bfc01adc:	24090000 	li	t1,0
bfc01ae0:	00088002 	srl	s0,t0,0x0
bfc01ae4:	3c12ee78 	lui	s2,0xee78
bfc01ae8:	36523ae8 	ori	s2,s2,0x3ae8
bfc01aec:	161201dc 	bne	s0,s2,bfc02260 <inst_error>
bfc01af0:	00000000 	nop
bfc01af4:	3c083e22 	lui	t0,0x3e22
bfc01af8:	350875b4 	ori	t0,t0,0x75b4
bfc01afc:	24090000 	li	t1,0
bfc01b00:	00088002 	srl	s0,t0,0x0
bfc01b04:	3c123e22 	lui	s2,0x3e22
bfc01b08:	365275b4 	ori	s2,s2,0x75b4
bfc01b0c:	161201d4 	bne	s0,s2,bfc02260 <inst_error>
bfc01b10:	00000000 	nop
bfc01b14:	3c08553a 	lui	t0,0x553a
bfc01b18:	3508dec3 	ori	t0,t0,0xdec3
bfc01b1c:	24090000 	li	t1,0
bfc01b20:	00088002 	srl	s0,t0,0x0
bfc01b24:	3c12553a 	lui	s2,0x553a
bfc01b28:	3652dec3 	ori	s2,s2,0xdec3
bfc01b2c:	161201cc 	bne	s0,s2,bfc02260 <inst_error>
bfc01b30:	00000000 	nop
bfc01b34:	3c088189 	lui	t0,0x8189
bfc01b38:	3508671d 	ori	t0,t0,0x671d
bfc01b3c:	24090000 	li	t1,0
bfc01b40:	00088002 	srl	s0,t0,0x0
bfc01b44:	3c128189 	lui	s2,0x8189
bfc01b48:	3652671d 	ori	s2,s2,0x671d
bfc01b4c:	161201c4 	bne	s0,s2,bfc02260 <inst_error>
bfc01b50:	00000000 	nop
bfc01b54:	3c08cab1 	lui	t0,0xcab1
bfc01b58:	35082b0e 	ori	t0,t0,0x2b0e
bfc01b5c:	24090000 	li	t1,0
bfc01b60:	00088002 	srl	s0,t0,0x0
bfc01b64:	3c12cab1 	lui	s2,0xcab1
bfc01b68:	36522b0e 	ori	s2,s2,0x2b0e
bfc01b6c:	161201bc 	bne	s0,s2,bfc02260 <inst_error>
bfc01b70:	00000000 	nop
bfc01b74:	3c08d591 	lui	t0,0xd591
bfc01b78:	35086d44 	ori	t0,t0,0x6d44
bfc01b7c:	24090000 	li	t1,0
bfc01b80:	00088002 	srl	s0,t0,0x0
bfc01b84:	3c12d591 	lui	s2,0xd591
bfc01b88:	36526d44 	ori	s2,s2,0x6d44
bfc01b8c:	161201b4 	bne	s0,s2,bfc02260 <inst_error>
bfc01b90:	00000000 	nop
bfc01b94:	3c0829d5 	lui	t0,0x29d5
bfc01b98:	350842b4 	ori	t0,t0,0x42b4
bfc01b9c:	24090000 	li	t1,0
bfc01ba0:	00088002 	srl	s0,t0,0x0
bfc01ba4:	3c1229d5 	lui	s2,0x29d5
bfc01ba8:	365242b4 	ori	s2,s2,0x42b4
bfc01bac:	161201ac 	bne	s0,s2,bfc02260 <inst_error>
bfc01bb0:	00000000 	nop
bfc01bb4:	3c086273 	lui	t0,0x6273
bfc01bb8:	35088600 	ori	t0,t0,0x8600
bfc01bbc:	24090000 	li	t1,0
bfc01bc0:	00088002 	srl	s0,t0,0x0
bfc01bc4:	3c126273 	lui	s2,0x6273
bfc01bc8:	36528600 	ori	s2,s2,0x8600
bfc01bcc:	161201a4 	bne	s0,s2,bfc02260 <inst_error>
bfc01bd0:	00000000 	nop
bfc01bd4:	3c08ce75 	lui	t0,0xce75
bfc01bd8:	35083aa8 	ori	t0,t0,0x3aa8
bfc01bdc:	24090000 	li	t1,0
bfc01be0:	00088002 	srl	s0,t0,0x0
bfc01be4:	3c12ce75 	lui	s2,0xce75
bfc01be8:	36523aa8 	ori	s2,s2,0x3aa8
bfc01bec:	1612019c 	bne	s0,s2,bfc02260 <inst_error>
bfc01bf0:	00000000 	nop
bfc01bf4:	3c08b145 	lui	t0,0xb145
bfc01bf8:	3508be00 	ori	t0,t0,0xbe00
bfc01bfc:	24090000 	li	t1,0
bfc01c00:	00088002 	srl	s0,t0,0x0
bfc01c04:	3c12b145 	lui	s2,0xb145
bfc01c08:	3652be00 	ori	s2,s2,0xbe00
bfc01c0c:	16120194 	bne	s0,s2,bfc02260 <inst_error>
bfc01c10:	00000000 	nop
bfc01c14:	3c08b56d 	lui	t0,0xb56d
bfc01c18:	35089f5e 	ori	t0,t0,0x9f5e
bfc01c1c:	24090000 	li	t1,0
bfc01c20:	00088002 	srl	s0,t0,0x0
bfc01c24:	3c12b56d 	lui	s2,0xb56d
bfc01c28:	36529f5e 	ori	s2,s2,0x9f5e
bfc01c2c:	1612018c 	bne	s0,s2,bfc02260 <inst_error>
bfc01c30:	00000000 	nop
bfc01c34:	3c08880f 	lui	t0,0x880f
bfc01c38:	35080d04 	ori	t0,t0,0xd04
bfc01c3c:	24090000 	li	t1,0
bfc01c40:	00088002 	srl	s0,t0,0x0
bfc01c44:	3c12880f 	lui	s2,0x880f
bfc01c48:	36520d04 	ori	s2,s2,0xd04
bfc01c4c:	16120184 	bne	s0,s2,bfc02260 <inst_error>
bfc01c50:	00000000 	nop
bfc01c54:	3c088a4d 	lui	t0,0x8a4d
bfc01c58:	35086fa0 	ori	t0,t0,0x6fa0
bfc01c5c:	24090000 	li	t1,0
bfc01c60:	00088002 	srl	s0,t0,0x0
bfc01c64:	3c128a4d 	lui	s2,0x8a4d
bfc01c68:	36526fa0 	ori	s2,s2,0x6fa0
bfc01c6c:	1612017c 	bne	s0,s2,bfc02260 <inst_error>
bfc01c70:	00000000 	nop
bfc01c74:	3c08217a 	lui	t0,0x217a
bfc01c78:	3508a622 	ori	t0,t0,0xa622
bfc01c7c:	24090000 	li	t1,0
bfc01c80:	00088002 	srl	s0,t0,0x0
bfc01c84:	3c12217a 	lui	s2,0x217a
bfc01c88:	3652a622 	ori	s2,s2,0xa622
bfc01c8c:	16120174 	bne	s0,s2,bfc02260 <inst_error>
bfc01c90:	00000000 	nop
bfc01c94:	3c08a80f 	lui	t0,0xa80f
bfc01c98:	3508a30b 	ori	t0,t0,0xa30b
bfc01c9c:	24090000 	li	t1,0
bfc01ca0:	00088002 	srl	s0,t0,0x0
bfc01ca4:	3c12a80f 	lui	s2,0xa80f
bfc01ca8:	3652a30b 	ori	s2,s2,0xa30b
bfc01cac:	1612016c 	bne	s0,s2,bfc02260 <inst_error>
bfc01cb0:	00000000 	nop
bfc01cb4:	3c083eb6 	lui	t0,0x3eb6
bfc01cb8:	350836b0 	ori	t0,t0,0x36b0
bfc01cbc:	24090000 	li	t1,0
bfc01cc0:	00088002 	srl	s0,t0,0x0
bfc01cc4:	3c123eb6 	lui	s2,0x3eb6
bfc01cc8:	365236b0 	ori	s2,s2,0x36b0
bfc01ccc:	16120164 	bne	s0,s2,bfc02260 <inst_error>
bfc01cd0:	00000000 	nop
bfc01cd4:	3c08ed86 	lui	t0,0xed86
bfc01cd8:	3508d00a 	ori	t0,t0,0xd00a
bfc01cdc:	24090000 	li	t1,0
bfc01ce0:	00088002 	srl	s0,t0,0x0
bfc01ce4:	3c12ed86 	lui	s2,0xed86
bfc01ce8:	3652d00a 	ori	s2,s2,0xd00a
bfc01cec:	1612015c 	bne	s0,s2,bfc02260 <inst_error>
bfc01cf0:	00000000 	nop
bfc01cf4:	3c08df73 	lui	t0,0xdf73
bfc01cf8:	350834a0 	ori	t0,t0,0x34a0
bfc01cfc:	24090000 	li	t1,0
bfc01d00:	00088002 	srl	s0,t0,0x0
bfc01d04:	3c12df73 	lui	s2,0xdf73
bfc01d08:	365234a0 	ori	s2,s2,0x34a0
bfc01d0c:	16120154 	bne	s0,s2,bfc02260 <inst_error>
bfc01d10:	00000000 	nop
bfc01d14:	3c0803e1 	lui	t0,0x3e1
bfc01d18:	3508477c 	ori	t0,t0,0x477c
bfc01d1c:	24090000 	li	t1,0
bfc01d20:	00088002 	srl	s0,t0,0x0
bfc01d24:	3c1203e1 	lui	s2,0x3e1
bfc01d28:	3652477c 	ori	s2,s2,0x477c
bfc01d2c:	1612014c 	bne	s0,s2,bfc02260 <inst_error>
bfc01d30:	00000000 	nop
bfc01d34:	3c08fd67 	lui	t0,0xfd67
bfc01d38:	3508f422 	ori	t0,t0,0xf422
bfc01d3c:	24090000 	li	t1,0
bfc01d40:	00088002 	srl	s0,t0,0x0
bfc01d44:	3c12fd67 	lui	s2,0xfd67
bfc01d48:	3652f422 	ori	s2,s2,0xf422
bfc01d4c:	16120144 	bne	s0,s2,bfc02260 <inst_error>
bfc01d50:	00000000 	nop
bfc01d54:	3c0838b1 	lui	t0,0x38b1
bfc01d58:	3508ac50 	ori	t0,t0,0xac50
bfc01d5c:	24090000 	li	t1,0
bfc01d60:	00088002 	srl	s0,t0,0x0
bfc01d64:	3c1238b1 	lui	s2,0x38b1
bfc01d68:	3652ac50 	ori	s2,s2,0xac50
bfc01d6c:	1612013c 	bne	s0,s2,bfc02260 <inst_error>
bfc01d70:	00000000 	nop
bfc01d74:	3c081acb 	lui	t0,0x1acb
bfc01d78:	35085040 	ori	t0,t0,0x5040
bfc01d7c:	24090000 	li	t1,0
bfc01d80:	00088002 	srl	s0,t0,0x0
bfc01d84:	3c121acb 	lui	s2,0x1acb
bfc01d88:	36525040 	ori	s2,s2,0x5040
bfc01d8c:	16120134 	bne	s0,s2,bfc02260 <inst_error>
bfc01d90:	00000000 	nop
bfc01d94:	24080000 	li	t0,0
bfc01d98:	24090009 	li	t1,9
bfc01d9c:	00088242 	srl	s0,t0,0x9
bfc01da0:	24120000 	li	s2,0
bfc01da4:	1612012e 	bne	s0,s2,bfc02260 <inst_error>
bfc01da8:	00000000 	nop
bfc01dac:	24080000 	li	t0,0
bfc01db0:	2409000c 	li	t1,12
bfc01db4:	00088302 	srl	s0,t0,0xc
bfc01db8:	24120000 	li	s2,0
bfc01dbc:	16120128 	bne	s0,s2,bfc02260 <inst_error>
bfc01dc0:	00000000 	nop
bfc01dc4:	24080000 	li	t0,0
bfc01dc8:	24090003 	li	t1,3
bfc01dcc:	000880c2 	srl	s0,t0,0x3
bfc01dd0:	24120000 	li	s2,0
bfc01dd4:	16120122 	bne	s0,s2,bfc02260 <inst_error>
bfc01dd8:	00000000 	nop
bfc01ddc:	24080000 	li	t0,0
bfc01de0:	2409000c 	li	t1,12
bfc01de4:	00088302 	srl	s0,t0,0xc
bfc01de8:	24120000 	li	s2,0
bfc01dec:	1612011c 	bne	s0,s2,bfc02260 <inst_error>
bfc01df0:	00000000 	nop
bfc01df4:	24080000 	li	t0,0
bfc01df8:	24090010 	li	t1,16
bfc01dfc:	00088402 	srl	s0,t0,0x10
bfc01e00:	24120000 	li	s2,0
bfc01e04:	16120116 	bne	s0,s2,bfc02260 <inst_error>
bfc01e08:	00000000 	nop
bfc01e0c:	24080000 	li	t0,0
bfc01e10:	2409000f 	li	t1,15
bfc01e14:	000883c2 	srl	s0,t0,0xf
bfc01e18:	24120000 	li	s2,0
bfc01e1c:	16120110 	bne	s0,s2,bfc02260 <inst_error>
bfc01e20:	00000000 	nop
bfc01e24:	24080000 	li	t0,0
bfc01e28:	24090016 	li	t1,22
bfc01e2c:	00088582 	srl	s0,t0,0x16
bfc01e30:	24120000 	li	s2,0
bfc01e34:	1612010a 	bne	s0,s2,bfc02260 <inst_error>
bfc01e38:	00000000 	nop
bfc01e3c:	24080000 	li	t0,0
bfc01e40:	24090006 	li	t1,6
bfc01e44:	00088182 	srl	s0,t0,0x6
bfc01e48:	24120000 	li	s2,0
bfc01e4c:	16120104 	bne	s0,s2,bfc02260 <inst_error>
bfc01e50:	00000000 	nop
bfc01e54:	24080000 	li	t0,0
bfc01e58:	24090013 	li	t1,19
bfc01e5c:	000884c2 	srl	s0,t0,0x13
bfc01e60:	24120000 	li	s2,0
bfc01e64:	161200fe 	bne	s0,s2,bfc02260 <inst_error>
bfc01e68:	00000000 	nop
bfc01e6c:	24080000 	li	t0,0
bfc01e70:	24090017 	li	t1,23
bfc01e74:	000885c2 	srl	s0,t0,0x17
bfc01e78:	24120000 	li	s2,0
bfc01e7c:	161200f8 	bne	s0,s2,bfc02260 <inst_error>
bfc01e80:	00000000 	nop
bfc01e84:	24080000 	li	t0,0
bfc01e88:	24090010 	li	t1,16
bfc01e8c:	00088402 	srl	s0,t0,0x10
bfc01e90:	24120000 	li	s2,0
bfc01e94:	161200f2 	bne	s0,s2,bfc02260 <inst_error>
bfc01e98:	00000000 	nop
bfc01e9c:	24080000 	li	t0,0
bfc01ea0:	2409000d 	li	t1,13
bfc01ea4:	00088342 	srl	s0,t0,0xd
bfc01ea8:	24120000 	li	s2,0
bfc01eac:	161200ec 	bne	s0,s2,bfc02260 <inst_error>
bfc01eb0:	00000000 	nop
bfc01eb4:	24080000 	li	t0,0
bfc01eb8:	24090017 	li	t1,23
bfc01ebc:	000885c2 	srl	s0,t0,0x17
bfc01ec0:	24120000 	li	s2,0
bfc01ec4:	161200e6 	bne	s0,s2,bfc02260 <inst_error>
bfc01ec8:	00000000 	nop
bfc01ecc:	24080000 	li	t0,0
bfc01ed0:	2409000f 	li	t1,15
bfc01ed4:	000883c2 	srl	s0,t0,0xf
bfc01ed8:	24120000 	li	s2,0
bfc01edc:	161200e0 	bne	s0,s2,bfc02260 <inst_error>
bfc01ee0:	00000000 	nop
bfc01ee4:	24080000 	li	t0,0
bfc01ee8:	24090011 	li	t1,17
bfc01eec:	00088442 	srl	s0,t0,0x11
bfc01ef0:	24120000 	li	s2,0
bfc01ef4:	161200da 	bne	s0,s2,bfc02260 <inst_error>
bfc01ef8:	00000000 	nop
bfc01efc:	24080000 	li	t0,0
bfc01f00:	2409000d 	li	t1,13
bfc01f04:	00088342 	srl	s0,t0,0xd
bfc01f08:	24120000 	li	s2,0
bfc01f0c:	161200d4 	bne	s0,s2,bfc02260 <inst_error>
bfc01f10:	00000000 	nop
bfc01f14:	24080000 	li	t0,0
bfc01f18:	24090019 	li	t1,25
bfc01f1c:	00088642 	srl	s0,t0,0x19
bfc01f20:	24120000 	li	s2,0
bfc01f24:	161200ce 	bne	s0,s2,bfc02260 <inst_error>
bfc01f28:	00000000 	nop
bfc01f2c:	24080000 	li	t0,0
bfc01f30:	2409000b 	li	t1,11
bfc01f34:	000882c2 	srl	s0,t0,0xb
bfc01f38:	24120000 	li	s2,0
bfc01f3c:	161200c8 	bne	s0,s2,bfc02260 <inst_error>
bfc01f40:	00000000 	nop
bfc01f44:	24080000 	li	t0,0
bfc01f48:	24090008 	li	t1,8
bfc01f4c:	00088202 	srl	s0,t0,0x8
bfc01f50:	24120000 	li	s2,0
bfc01f54:	161200c2 	bne	s0,s2,bfc02260 <inst_error>
bfc01f58:	00000000 	nop
bfc01f5c:	24080000 	li	t0,0
bfc01f60:	2409000c 	li	t1,12
bfc01f64:	00088302 	srl	s0,t0,0xc
bfc01f68:	24120000 	li	s2,0
bfc01f6c:	161200bc 	bne	s0,s2,bfc02260 <inst_error>
bfc01f70:	00000000 	nop
bfc01f74:	24080000 	li	t0,0
bfc01f78:	24090013 	li	t1,19
bfc01f7c:	000884c2 	srl	s0,t0,0x13
bfc01f80:	24120000 	li	s2,0
bfc01f84:	161200b6 	bne	s0,s2,bfc02260 <inst_error>
bfc01f88:	00000000 	nop
bfc01f8c:	24080000 	li	t0,0
bfc01f90:	24090002 	li	t1,2
bfc01f94:	00088082 	srl	s0,t0,0x2
bfc01f98:	24120000 	li	s2,0
bfc01f9c:	161200b0 	bne	s0,s2,bfc02260 <inst_error>
bfc01fa0:	00000000 	nop
bfc01fa4:	24080000 	li	t0,0
bfc01fa8:	24090014 	li	t1,20
bfc01fac:	00088502 	srl	s0,t0,0x14
bfc01fb0:	24120000 	li	s2,0
bfc01fb4:	161200aa 	bne	s0,s2,bfc02260 <inst_error>
bfc01fb8:	00000000 	nop
bfc01fbc:	24080000 	li	t0,0
bfc01fc0:	24090007 	li	t1,7
bfc01fc4:	000881c2 	srl	s0,t0,0x7
bfc01fc8:	24120000 	li	s2,0
bfc01fcc:	161200a4 	bne	s0,s2,bfc02260 <inst_error>
bfc01fd0:	00000000 	nop
bfc01fd4:	24080000 	li	t0,0
bfc01fd8:	24090010 	li	t1,16
bfc01fdc:	00088402 	srl	s0,t0,0x10
bfc01fe0:	24120000 	li	s2,0
bfc01fe4:	1612009e 	bne	s0,s2,bfc02260 <inst_error>
bfc01fe8:	00000000 	nop
bfc01fec:	24080000 	li	t0,0
bfc01ff0:	2409000a 	li	t1,10
bfc01ff4:	00088282 	srl	s0,t0,0xa
bfc01ff8:	24120000 	li	s2,0
bfc01ffc:	16120098 	bne	s0,s2,bfc02260 <inst_error>
bfc02000:	00000000 	nop
bfc02004:	24080000 	li	t0,0
bfc02008:	2409000f 	li	t1,15
bfc0200c:	000883c2 	srl	s0,t0,0xf
bfc02010:	24120000 	li	s2,0
bfc02014:	16120092 	bne	s0,s2,bfc02260 <inst_error>
bfc02018:	00000000 	nop
bfc0201c:	24080000 	li	t0,0
bfc02020:	24090018 	li	t1,24
bfc02024:	00088602 	srl	s0,t0,0x18
bfc02028:	24120000 	li	s2,0
bfc0202c:	1612008c 	bne	s0,s2,bfc02260 <inst_error>
bfc02030:	00000000 	nop
bfc02034:	24080000 	li	t0,0
bfc02038:	24090009 	li	t1,9
bfc0203c:	00088242 	srl	s0,t0,0x9
bfc02040:	24120000 	li	s2,0
bfc02044:	16120086 	bne	s0,s2,bfc02260 <inst_error>
bfc02048:	00000000 	nop
bfc0204c:	24080000 	li	t0,0
bfc02050:	2409000a 	li	t1,10
bfc02054:	00088282 	srl	s0,t0,0xa
bfc02058:	24120000 	li	s2,0
bfc0205c:	16120080 	bne	s0,s2,bfc02260 <inst_error>
bfc02060:	00000000 	nop
bfc02064:	24080000 	li	t0,0
bfc02068:	24090017 	li	t1,23
bfc0206c:	000885c2 	srl	s0,t0,0x17
bfc02070:	24120000 	li	s2,0
bfc02074:	1612007a 	bne	s0,s2,bfc02260 <inst_error>
bfc02078:	00000000 	nop
bfc0207c:	24080000 	li	t0,0
bfc02080:	2409001c 	li	t1,28
bfc02084:	00088702 	srl	s0,t0,0x1c
bfc02088:	24120000 	li	s2,0
bfc0208c:	16120074 	bne	s0,s2,bfc02260 <inst_error>
bfc02090:	00000000 	nop
bfc02094:	24080000 	li	t0,0
bfc02098:	24090010 	li	t1,16
bfc0209c:	00088402 	srl	s0,t0,0x10
bfc020a0:	24120000 	li	s2,0
bfc020a4:	1612006e 	bne	s0,s2,bfc02260 <inst_error>
bfc020a8:	00000000 	nop
bfc020ac:	24080000 	li	t0,0
bfc020b0:	24090000 	li	t1,0
bfc020b4:	00088002 	srl	s0,t0,0x0
bfc020b8:	24120000 	li	s2,0
bfc020bc:	16120068 	bne	s0,s2,bfc02260 <inst_error>
bfc020c0:	00000000 	nop
bfc020c4:	24080000 	li	t0,0
bfc020c8:	2409001f 	li	t1,31
bfc020cc:	000887c2 	srl	s0,t0,0x1f
bfc020d0:	24120000 	li	s2,0
bfc020d4:	16120062 	bne	s0,s2,bfc02260 <inst_error>
bfc020d8:	00000000 	nop
bfc020dc:	24080000 	li	t0,0
bfc020e0:	24090013 	li	t1,19
bfc020e4:	000884c2 	srl	s0,t0,0x13
bfc020e8:	24120000 	li	s2,0
bfc020ec:	1612005c 	bne	s0,s2,bfc02260 <inst_error>
bfc020f0:	00000000 	nop
bfc020f4:	24080000 	li	t0,0
bfc020f8:	24090013 	li	t1,19
bfc020fc:	000884c2 	srl	s0,t0,0x13
bfc02100:	24120000 	li	s2,0
bfc02104:	16120056 	bne	s0,s2,bfc02260 <inst_error>
bfc02108:	00000000 	nop
bfc0210c:	24080000 	li	t0,0
bfc02110:	24090016 	li	t1,22
bfc02114:	00088582 	srl	s0,t0,0x16
bfc02118:	24120000 	li	s2,0
bfc0211c:	16120050 	bne	s0,s2,bfc02260 <inst_error>
bfc02120:	00000000 	nop
bfc02124:	24080000 	li	t0,0
bfc02128:	24090004 	li	t1,4
bfc0212c:	00088102 	srl	s0,t0,0x4
bfc02130:	24120000 	li	s2,0
bfc02134:	1612004a 	bne	s0,s2,bfc02260 <inst_error>
bfc02138:	00000000 	nop
bfc0213c:	24080000 	li	t0,0
bfc02140:	24090018 	li	t1,24
bfc02144:	00088602 	srl	s0,t0,0x18
bfc02148:	24120000 	li	s2,0
bfc0214c:	16120044 	bne	s0,s2,bfc02260 <inst_error>
bfc02150:	00000000 	nop
bfc02154:	24080000 	li	t0,0
bfc02158:	24090002 	li	t1,2
bfc0215c:	00088082 	srl	s0,t0,0x2
bfc02160:	24120000 	li	s2,0
bfc02164:	1612003e 	bne	s0,s2,bfc02260 <inst_error>
bfc02168:	00000000 	nop
bfc0216c:	24080000 	li	t0,0
bfc02170:	2409001d 	li	t1,29
bfc02174:	00088742 	srl	s0,t0,0x1d
bfc02178:	24120000 	li	s2,0
bfc0217c:	16120038 	bne	s0,s2,bfc02260 <inst_error>
bfc02180:	00000000 	nop
bfc02184:	24080000 	li	t0,0
bfc02188:	24090010 	li	t1,16
bfc0218c:	00088402 	srl	s0,t0,0x10
bfc02190:	24120000 	li	s2,0
bfc02194:	16120032 	bne	s0,s2,bfc02260 <inst_error>
bfc02198:	00000000 	nop
bfc0219c:	24080000 	li	t0,0
bfc021a0:	24090010 	li	t1,16
bfc021a4:	00088402 	srl	s0,t0,0x10
bfc021a8:	24120000 	li	s2,0
bfc021ac:	1612002c 	bne	s0,s2,bfc02260 <inst_error>
bfc021b0:	00000000 	nop
bfc021b4:	24080000 	li	t0,0
bfc021b8:	24090018 	li	t1,24
bfc021bc:	00088602 	srl	s0,t0,0x18
bfc021c0:	24120000 	li	s2,0
bfc021c4:	16120026 	bne	s0,s2,bfc02260 <inst_error>
bfc021c8:	00000000 	nop
bfc021cc:	24080000 	li	t0,0
bfc021d0:	24090009 	li	t1,9
bfc021d4:	00088242 	srl	s0,t0,0x9
bfc021d8:	24120000 	li	s2,0
bfc021dc:	16120020 	bne	s0,s2,bfc02260 <inst_error>
bfc021e0:	00000000 	nop
bfc021e4:	24080000 	li	t0,0
bfc021e8:	2409001a 	li	t1,26
bfc021ec:	00088682 	srl	s0,t0,0x1a
bfc021f0:	24120000 	li	s2,0
bfc021f4:	1612001a 	bne	s0,s2,bfc02260 <inst_error>
bfc021f8:	00000000 	nop
bfc021fc:	24080000 	li	t0,0
bfc02200:	2409001c 	li	t1,28
bfc02204:	00088702 	srl	s0,t0,0x1c
bfc02208:	24120000 	li	s2,0
bfc0220c:	16120014 	bne	s0,s2,bfc02260 <inst_error>
bfc02210:	00000000 	nop
bfc02214:	24080000 	li	t0,0
bfc02218:	24090018 	li	t1,24
bfc0221c:	00088602 	srl	s0,t0,0x18
bfc02220:	24120000 	li	s2,0
bfc02224:	1612000e 	bne	s0,s2,bfc02260 <inst_error>
bfc02228:	00000000 	nop
bfc0222c:	24080000 	li	t0,0
bfc02230:	24090004 	li	t1,4
bfc02234:	00088102 	srl	s0,t0,0x4
bfc02238:	24120000 	li	s2,0
bfc0223c:	16120008 	bne	s0,s2,bfc02260 <inst_error>
bfc02240:	00000000 	nop
bfc02244:	24080000 	li	t0,0
bfc02248:	24090000 	li	t1,0
bfc0224c:	00088002 	srl	s0,t0,0x0
bfc02250:	24120000 	li	s2,0
bfc02254:	16120002 	bne	s0,s2,bfc02260 <inst_error>
bfc02258:	00000000 	nop
bfc0225c:	4a000000 	c2	0x0

bfc02260 <inst_error>:
inst_error():
bfc02260:	0000003f 	0x3f

Disassembly of section .reginfo:

00000000 <.reginfo>:
   0:	00050300 	sll	zero,a1,0xc
	...
