
build/srlv:     file format elf32-tradlittlemips
build/srlv


Disassembly of section .text:

bfc00000 <main>:
bfc00000:	3c081f8f 	lui	t0,0x1f8f
bfc00004:	35086000 	ori	t0,t0,0x6000
bfc00008:	2409001c 	li	t1,28
bfc0000c:	01288006 	srlv	s0,t0,t1
bfc00010:	24120001 	li	s2,1
bfc00014:	16120896 	bne	s0,s2,bfc02270 <inst_error>
bfc00018:	00000000 	nop
bfc0001c:	3c08e51f 	lui	t0,0xe51f
bfc00020:	35086e9c 	ori	t0,t0,0x6e9c
bfc00024:	24090002 	li	t1,2
bfc00028:	01288006 	srlv	s0,t0,t1
bfc0002c:	3c123947 	lui	s2,0x3947
bfc00030:	3652dba7 	ori	s2,s2,0xdba7
bfc00034:	1612088e 	bne	s0,s2,bfc02270 <inst_error>
bfc00038:	00000000 	nop
bfc0003c:	3c08055d 	lui	t0,0x55d
bfc00040:	3508f7e0 	ori	t0,t0,0xf7e0
bfc00044:	24090008 	li	t1,8
bfc00048:	01288006 	srlv	s0,t0,t1
bfc0004c:	3c120005 	lui	s2,0x5
bfc00050:	36525df7 	ori	s2,s2,0x5df7
bfc00054:	16120886 	bne	s0,s2,bfc02270 <inst_error>
bfc00058:	00000000 	nop
bfc0005c:	3c08a821 	lui	t0,0xa821
bfc00060:	3508b3e6 	ori	t0,t0,0xb3e6
bfc00064:	24090019 	li	t1,25
bfc00068:	01288006 	srlv	s0,t0,t1
bfc0006c:	24120054 	li	s2,84
bfc00070:	1612087f 	bne	s0,s2,bfc02270 <inst_error>
bfc00074:	00000000 	nop
bfc00078:	3c08f333 	lui	t0,0xf333
bfc0007c:	35080c74 	ori	t0,t0,0xc74
bfc00080:	2409000a 	li	t1,10
bfc00084:	01288006 	srlv	s0,t0,t1
bfc00088:	3c12003c 	lui	s2,0x3c
bfc0008c:	3652ccc3 	ori	s2,s2,0xccc3
bfc00090:	16120877 	bne	s0,s2,bfc02270 <inst_error>
bfc00094:	00000000 	nop
bfc00098:	3c08096b 	lui	t0,0x96b
bfc0009c:	35085f00 	ori	t0,t0,0x5f00
bfc000a0:	2409001f 	li	t1,31
bfc000a4:	01288006 	srlv	s0,t0,t1
bfc000a8:	24120000 	li	s2,0
bfc000ac:	16120870 	bne	s0,s2,bfc02270 <inst_error>
bfc000b0:	00000000 	nop
bfc000b4:	3c0816f2 	lui	t0,0x16f2
bfc000b8:	3508bd5e 	ori	t0,t0,0xbd5e
bfc000bc:	2409001b 	li	t1,27
bfc000c0:	01288006 	srlv	s0,t0,t1
bfc000c4:	24120002 	li	s2,2
bfc000c8:	16120869 	bne	s0,s2,bfc02270 <inst_error>
bfc000cc:	00000000 	nop
bfc000d0:	3c08938a 	lui	t0,0x938a
bfc000d4:	35084c80 	ori	t0,t0,0x4c80
bfc000d8:	2409001f 	li	t1,31
bfc000dc:	01288006 	srlv	s0,t0,t1
bfc000e0:	24120001 	li	s2,1
bfc000e4:	16120862 	bne	s0,s2,bfc02270 <inst_error>
bfc000e8:	00000000 	nop
bfc000ec:	3c084995 	lui	t0,0x4995
bfc000f0:	350878b8 	ori	t0,t0,0x78b8
bfc000f4:	2409001c 	li	t1,28
bfc000f8:	01288006 	srlv	s0,t0,t1
bfc000fc:	24120004 	li	s2,4
bfc00100:	1612085b 	bne	s0,s2,bfc02270 <inst_error>
bfc00104:	00000000 	nop
bfc00108:	3c08e917 	lui	t0,0xe917
bfc0010c:	35084919 	ori	t0,t0,0x4919
bfc00110:	24090019 	li	t1,25
bfc00114:	01288006 	srlv	s0,t0,t1
bfc00118:	24120074 	li	s2,116
bfc0011c:	16120854 	bne	s0,s2,bfc02270 <inst_error>
bfc00120:	00000000 	nop
bfc00124:	3c087150 	lui	t0,0x7150
bfc00128:	35081460 	ori	t0,t0,0x1460
bfc0012c:	24090013 	li	t1,19
bfc00130:	01288006 	srlv	s0,t0,t1
bfc00134:	24120e2a 	li	s2,3626
bfc00138:	1612084d 	bne	s0,s2,bfc02270 <inst_error>
bfc0013c:	00000000 	nop
bfc00140:	3c0866c7 	lui	t0,0x66c7
bfc00144:	35089be0 	ori	t0,t0,0x9be0
bfc00148:	24090014 	li	t1,20
bfc0014c:	01288006 	srlv	s0,t0,t1
bfc00150:	2412066c 	li	s2,1644
bfc00154:	16120846 	bne	s0,s2,bfc02270 <inst_error>
bfc00158:	00000000 	nop
bfc0015c:	3c086e7e 	lui	t0,0x6e7e
bfc00160:	35080c6c 	ori	t0,t0,0xc6c
bfc00164:	24090014 	li	t1,20
bfc00168:	01288006 	srlv	s0,t0,t1
bfc0016c:	241206e7 	li	s2,1767
bfc00170:	1612083f 	bne	s0,s2,bfc02270 <inst_error>
bfc00174:	00000000 	nop
bfc00178:	3c085ce2 	lui	t0,0x5ce2
bfc0017c:	350863d8 	ori	t0,t0,0x63d8
bfc00180:	2409000c 	li	t1,12
bfc00184:	01288006 	srlv	s0,t0,t1
bfc00188:	3c120005 	lui	s2,0x5
bfc0018c:	3652ce26 	ori	s2,s2,0xce26
bfc00190:	16120837 	bne	s0,s2,bfc02270 <inst_error>
bfc00194:	00000000 	nop
bfc00198:	3c086bfa 	lui	t0,0x6bfa
bfc0019c:	35082f04 	ori	t0,t0,0x2f04
bfc001a0:	2409000f 	li	t1,15
bfc001a4:	01288006 	srlv	s0,t0,t1
bfc001a8:	3412d7f4 	li	s2,0xd7f4
bfc001ac:	16120830 	bne	s0,s2,bfc02270 <inst_error>
bfc001b0:	00000000 	nop
bfc001b4:	3c082db6 	lui	t0,0x2db6
bfc001b8:	35087010 	ori	t0,t0,0x7010
bfc001bc:	24090004 	li	t1,4
bfc001c0:	01288006 	srlv	s0,t0,t1
bfc001c4:	3c1202db 	lui	s2,0x2db
bfc001c8:	36526701 	ori	s2,s2,0x6701
bfc001cc:	16120828 	bne	s0,s2,bfc02270 <inst_error>
bfc001d0:	00000000 	nop
bfc001d4:	3c08b54e 	lui	t0,0xb54e
bfc001d8:	35083520 	ori	t0,t0,0x3520
bfc001dc:	24090003 	li	t1,3
bfc001e0:	01288006 	srlv	s0,t0,t1
bfc001e4:	3c1216a9 	lui	s2,0x16a9
bfc001e8:	3652c6a4 	ori	s2,s2,0xc6a4
bfc001ec:	16120820 	bne	s0,s2,bfc02270 <inst_error>
bfc001f0:	00000000 	nop
bfc001f4:	3c0807a2 	lui	t0,0x7a2
bfc001f8:	35080228 	ori	t0,t0,0x228
bfc001fc:	2409000b 	li	t1,11
bfc00200:	01288006 	srlv	s0,t0,t1
bfc00204:	3412f440 	li	s2,0xf440
bfc00208:	16120819 	bne	s0,s2,bfc02270 <inst_error>
bfc0020c:	00000000 	nop
bfc00210:	3c0825a6 	lui	t0,0x25a6
bfc00214:	3508cca8 	ori	t0,t0,0xcca8
bfc00218:	2409000a 	li	t1,10
bfc0021c:	01288006 	srlv	s0,t0,t1
bfc00220:	3c120009 	lui	s2,0x9
bfc00224:	365269b3 	ori	s2,s2,0x69b3
bfc00228:	16120811 	bne	s0,s2,bfc02270 <inst_error>
bfc0022c:	00000000 	nop
bfc00230:	3c0867ed 	lui	t0,0x67ed
bfc00234:	35087379 	ori	t0,t0,0x7379
bfc00238:	2409001e 	li	t1,30
bfc0023c:	01288006 	srlv	s0,t0,t1
bfc00240:	24120001 	li	s2,1
bfc00244:	1612080a 	bne	s0,s2,bfc02270 <inst_error>
bfc00248:	00000000 	nop
bfc0024c:	3c08df65 	lui	t0,0xdf65
bfc00250:	35084d10 	ori	t0,t0,0x4d10
bfc00254:	2409001a 	li	t1,26
bfc00258:	01288006 	srlv	s0,t0,t1
bfc0025c:	24120037 	li	s2,55
bfc00260:	16120803 	bne	s0,s2,bfc02270 <inst_error>
bfc00264:	00000000 	nop
bfc00268:	3c084246 	lui	t0,0x4246
bfc0026c:	350841f0 	ori	t0,t0,0x41f0
bfc00270:	24090017 	li	t1,23
bfc00274:	01288006 	srlv	s0,t0,t1
bfc00278:	24120084 	li	s2,132
bfc0027c:	161207fc 	bne	s0,s2,bfc02270 <inst_error>
bfc00280:	00000000 	nop
bfc00284:	3c0855fd 	lui	t0,0x55fd
bfc00288:	35087a24 	ori	t0,t0,0x7a24
bfc0028c:	2409001e 	li	t1,30
bfc00290:	01288006 	srlv	s0,t0,t1
bfc00294:	24120001 	li	s2,1
bfc00298:	161207f5 	bne	s0,s2,bfc02270 <inst_error>
bfc0029c:	00000000 	nop
bfc002a0:	3c085f2a 	lui	t0,0x5f2a
bfc002a4:	350828a0 	ori	t0,t0,0x28a0
bfc002a8:	24090000 	li	t1,0
bfc002ac:	01288006 	srlv	s0,t0,t1
bfc002b0:	3c125f2a 	lui	s2,0x5f2a
bfc002b4:	365228a0 	ori	s2,s2,0x28a0
bfc002b8:	161207ed 	bne	s0,s2,bfc02270 <inst_error>
bfc002bc:	00000000 	nop
bfc002c0:	3c087941 	lui	t0,0x7941
bfc002c4:	35082088 	ori	t0,t0,0x2088
bfc002c8:	24090012 	li	t1,18
bfc002cc:	01288006 	srlv	s0,t0,t1
bfc002d0:	24121e50 	li	s2,7760
bfc002d4:	161207e6 	bne	s0,s2,bfc02270 <inst_error>
bfc002d8:	00000000 	nop
bfc002dc:	3c08887a 	lui	t0,0x887a
bfc002e0:	3508b014 	ori	t0,t0,0xb014
bfc002e4:	24090009 	li	t1,9
bfc002e8:	01288006 	srlv	s0,t0,t1
bfc002ec:	3c120044 	lui	s2,0x44
bfc002f0:	36523d58 	ori	s2,s2,0x3d58
bfc002f4:	161207de 	bne	s0,s2,bfc02270 <inst_error>
bfc002f8:	00000000 	nop
bfc002fc:	3c084751 	lui	t0,0x4751
bfc00300:	35085b10 	ori	t0,t0,0x5b10
bfc00304:	24090002 	li	t1,2
bfc00308:	01288006 	srlv	s0,t0,t1
bfc0030c:	3c1211d4 	lui	s2,0x11d4
bfc00310:	365256c4 	ori	s2,s2,0x56c4
bfc00314:	161207d6 	bne	s0,s2,bfc02270 <inst_error>
bfc00318:	00000000 	nop
bfc0031c:	3c08e2f3 	lui	t0,0xe2f3
bfc00320:	3508d9e0 	ori	t0,t0,0xd9e0
bfc00324:	2409001e 	li	t1,30
bfc00328:	01288006 	srlv	s0,t0,t1
bfc0032c:	24120003 	li	s2,3
bfc00330:	161207cf 	bne	s0,s2,bfc02270 <inst_error>
bfc00334:	00000000 	nop
bfc00338:	3c084a5e 	lui	t0,0x4a5e
bfc0033c:	35082b80 	ori	t0,t0,0x2b80
bfc00340:	2409000c 	li	t1,12
bfc00344:	01288006 	srlv	s0,t0,t1
bfc00348:	3c120004 	lui	s2,0x4
bfc0034c:	3652a5e2 	ori	s2,s2,0xa5e2
bfc00350:	161207c7 	bne	s0,s2,bfc02270 <inst_error>
bfc00354:	00000000 	nop
bfc00358:	3c08d144 	lui	t0,0xd144
bfc0035c:	35080a30 	ori	t0,t0,0xa30
bfc00360:	2409001f 	li	t1,31
bfc00364:	01288006 	srlv	s0,t0,t1
bfc00368:	24120001 	li	s2,1
bfc0036c:	161207c0 	bne	s0,s2,bfc02270 <inst_error>
bfc00370:	00000000 	nop
bfc00374:	3c0864f6 	lui	t0,0x64f6
bfc00378:	35089af4 	ori	t0,t0,0x9af4
bfc0037c:	24090001 	li	t1,1
bfc00380:	01288006 	srlv	s0,t0,t1
bfc00384:	3c12327b 	lui	s2,0x327b
bfc00388:	36524d7a 	ori	s2,s2,0x4d7a
bfc0038c:	161207b8 	bne	s0,s2,bfc02270 <inst_error>
bfc00390:	00000000 	nop
bfc00394:	3c0824c1 	lui	t0,0x24c1
bfc00398:	350818a4 	ori	t0,t0,0x18a4
bfc0039c:	2409000e 	li	t1,14
bfc003a0:	01288006 	srlv	s0,t0,t1
bfc003a4:	34129304 	li	s2,0x9304
bfc003a8:	161207b1 	bne	s0,s2,bfc02270 <inst_error>
bfc003ac:	00000000 	nop
bfc003b0:	3c08b01b 	lui	t0,0xb01b
bfc003b4:	350825a0 	ori	t0,t0,0x25a0
bfc003b8:	24090006 	li	t1,6
bfc003bc:	01288006 	srlv	s0,t0,t1
bfc003c0:	3c1202c0 	lui	s2,0x2c0
bfc003c4:	36526c96 	ori	s2,s2,0x6c96
bfc003c8:	161207a9 	bne	s0,s2,bfc02270 <inst_error>
bfc003cc:	00000000 	nop
bfc003d0:	3c087693 	lui	t0,0x7693
bfc003d4:	3508cb08 	ori	t0,t0,0xcb08
bfc003d8:	24090009 	li	t1,9
bfc003dc:	01288006 	srlv	s0,t0,t1
bfc003e0:	3c12003b 	lui	s2,0x3b
bfc003e4:	365249e5 	ori	s2,s2,0x49e5
bfc003e8:	161207a1 	bne	s0,s2,bfc02270 <inst_error>
bfc003ec:	00000000 	nop
bfc003f0:	3c08c6a5 	lui	t0,0xc6a5
bfc003f4:	3508b020 	ori	t0,t0,0xb020
bfc003f8:	24090011 	li	t1,17
bfc003fc:	01288006 	srlv	s0,t0,t1
bfc00400:	24126352 	li	s2,25426
bfc00404:	1612079a 	bne	s0,s2,bfc02270 <inst_error>
bfc00408:	00000000 	nop
bfc0040c:	3c087b9a 	lui	t0,0x7b9a
bfc00410:	35087cdc 	ori	t0,t0,0x7cdc
bfc00414:	2409000e 	li	t1,14
bfc00418:	01288006 	srlv	s0,t0,t1
bfc0041c:	3c120001 	lui	s2,0x1
bfc00420:	3652ee69 	ori	s2,s2,0xee69
bfc00424:	16120792 	bne	s0,s2,bfc02270 <inst_error>
bfc00428:	00000000 	nop
bfc0042c:	3c088319 	lui	t0,0x8319
bfc00430:	35086db0 	ori	t0,t0,0x6db0
bfc00434:	24090018 	li	t1,24
bfc00438:	01288006 	srlv	s0,t0,t1
bfc0043c:	24120083 	li	s2,131
bfc00440:	1612078b 	bne	s0,s2,bfc02270 <inst_error>
bfc00444:	00000000 	nop
bfc00448:	3c08e334 	lui	t0,0xe334
bfc0044c:	35081f60 	ori	t0,t0,0x1f60
bfc00450:	24090009 	li	t1,9
bfc00454:	01288006 	srlv	s0,t0,t1
bfc00458:	3c120071 	lui	s2,0x71
bfc0045c:	36529a0f 	ori	s2,s2,0x9a0f
bfc00460:	16120783 	bne	s0,s2,bfc02270 <inst_error>
bfc00464:	00000000 	nop
bfc00468:	3c0835a4 	lui	t0,0x35a4
bfc0046c:	3508a0c0 	ori	t0,t0,0xa0c0
bfc00470:	24090012 	li	t1,18
bfc00474:	01288006 	srlv	s0,t0,t1
bfc00478:	24120d69 	li	s2,3433
bfc0047c:	1612077c 	bne	s0,s2,bfc02270 <inst_error>
bfc00480:	00000000 	nop
bfc00484:	3c0884ba 	lui	t0,0x84ba
bfc00488:	3508afc0 	ori	t0,t0,0xafc0
bfc0048c:	24090004 	li	t1,4
bfc00490:	01288006 	srlv	s0,t0,t1
bfc00494:	3c12084b 	lui	s2,0x84b
bfc00498:	3652aafc 	ori	s2,s2,0xaafc
bfc0049c:	16120774 	bne	s0,s2,bfc02270 <inst_error>
bfc004a0:	00000000 	nop
bfc004a4:	3c08f153 	lui	t0,0xf153
bfc004a8:	35080f7a 	ori	t0,t0,0xf7a
bfc004ac:	24090002 	li	t1,2
bfc004b0:	01288006 	srlv	s0,t0,t1
bfc004b4:	3c123c54 	lui	s2,0x3c54
bfc004b8:	3652c3de 	ori	s2,s2,0xc3de
bfc004bc:	1612076c 	bne	s0,s2,bfc02270 <inst_error>
bfc004c0:	00000000 	nop
bfc004c4:	3c08522a 	lui	t0,0x522a
bfc004c8:	35089acd 	ori	t0,t0,0x9acd
bfc004cc:	24090012 	li	t1,18
bfc004d0:	01288006 	srlv	s0,t0,t1
bfc004d4:	2412148a 	li	s2,5258
bfc004d8:	16120765 	bne	s0,s2,bfc02270 <inst_error>
bfc004dc:	00000000 	nop
bfc004e0:	3c08a89e 	lui	t0,0xa89e
bfc004e4:	3508c680 	ori	t0,t0,0xc680
bfc004e8:	24090010 	li	t1,16
bfc004ec:	01288006 	srlv	s0,t0,t1
bfc004f0:	3412a89e 	li	s2,0xa89e
bfc004f4:	1612075e 	bne	s0,s2,bfc02270 <inst_error>
bfc004f8:	00000000 	nop
bfc004fc:	3c089190 	lui	t0,0x9190
bfc00500:	350844bc 	ori	t0,t0,0x44bc
bfc00504:	2409000d 	li	t1,13
bfc00508:	01288006 	srlv	s0,t0,t1
bfc0050c:	3c120004 	lui	s2,0x4
bfc00510:	36528c82 	ori	s2,s2,0x8c82
bfc00514:	16120756 	bne	s0,s2,bfc02270 <inst_error>
bfc00518:	00000000 	nop
bfc0051c:	3c08baae 	lui	t0,0xbaae
bfc00520:	3508d4e0 	ori	t0,t0,0xd4e0
bfc00524:	24090010 	li	t1,16
bfc00528:	01288006 	srlv	s0,t0,t1
bfc0052c:	3412baae 	li	s2,0xbaae
bfc00530:	1612074f 	bne	s0,s2,bfc02270 <inst_error>
bfc00534:	00000000 	nop
bfc00538:	3c083842 	lui	t0,0x3842
bfc0053c:	35083890 	ori	t0,t0,0x3890
bfc00540:	2409000d 	li	t1,13
bfc00544:	01288006 	srlv	s0,t0,t1
bfc00548:	3c120001 	lui	s2,0x1
bfc0054c:	3652c211 	ori	s2,s2,0xc211
bfc00550:	16120747 	bne	s0,s2,bfc02270 <inst_error>
bfc00554:	00000000 	nop
bfc00558:	3c082632 	lui	t0,0x2632
bfc0055c:	350898cc 	ori	t0,t0,0x98cc
bfc00560:	24090007 	li	t1,7
bfc00564:	01288006 	srlv	s0,t0,t1
bfc00568:	3c12004c 	lui	s2,0x4c
bfc0056c:	36526531 	ori	s2,s2,0x6531
bfc00570:	1612073f 	bne	s0,s2,bfc02270 <inst_error>
bfc00574:	00000000 	nop
bfc00578:	3c08d312 	lui	t0,0xd312
bfc0057c:	35086c36 	ori	t0,t0,0x6c36
bfc00580:	2409001a 	li	t1,26
bfc00584:	01288006 	srlv	s0,t0,t1
bfc00588:	24120034 	li	s2,52
bfc0058c:	16120738 	bne	s0,s2,bfc02270 <inst_error>
bfc00590:	00000000 	nop
bfc00594:	3c08c2a7 	lui	t0,0xc2a7
bfc00598:	3508f09f 	ori	t0,t0,0xf09f
bfc0059c:	24090012 	li	t1,18
bfc005a0:	01288006 	srlv	s0,t0,t1
bfc005a4:	241230a9 	li	s2,12457
bfc005a8:	16120731 	bne	s0,s2,bfc02270 <inst_error>
bfc005ac:	00000000 	nop
bfc005b0:	3c08c339 	lui	t0,0xc339
bfc005b4:	350887ee 	ori	t0,t0,0x87ee
bfc005b8:	24090009 	li	t1,9
bfc005bc:	01288006 	srlv	s0,t0,t1
bfc005c0:	3c120061 	lui	s2,0x61
bfc005c4:	36529cc3 	ori	s2,s2,0x9cc3
bfc005c8:	16120729 	bne	s0,s2,bfc02270 <inst_error>
bfc005cc:	00000000 	nop
bfc005d0:	3c0885fc 	lui	t0,0x85fc
bfc005d4:	3508fad8 	ori	t0,t0,0xfad8
bfc005d8:	2409000a 	li	t1,10
bfc005dc:	01288006 	srlv	s0,t0,t1
bfc005e0:	3c120021 	lui	s2,0x21
bfc005e4:	36527f3e 	ori	s2,s2,0x7f3e
bfc005e8:	16120721 	bne	s0,s2,bfc02270 <inst_error>
bfc005ec:	00000000 	nop
bfc005f0:	3c08a57b 	lui	t0,0xa57b
bfc005f4:	35088d38 	ori	t0,t0,0x8d38
bfc005f8:	24090004 	li	t1,4
bfc005fc:	01288006 	srlv	s0,t0,t1
bfc00600:	3c120a57 	lui	s2,0xa57
bfc00604:	3652b8d3 	ori	s2,s2,0xb8d3
bfc00608:	16120719 	bne	s0,s2,bfc02270 <inst_error>
bfc0060c:	00000000 	nop
bfc00610:	3c089f19 	lui	t0,0x9f19
bfc00614:	3508c898 	ori	t0,t0,0xc898
bfc00618:	2409001e 	li	t1,30
bfc0061c:	01288006 	srlv	s0,t0,t1
bfc00620:	24120002 	li	s2,2
bfc00624:	16120712 	bne	s0,s2,bfc02270 <inst_error>
bfc00628:	00000000 	nop
bfc0062c:	3c080cf6 	lui	t0,0xcf6
bfc00630:	3508bc10 	ori	t0,t0,0xbc10
bfc00634:	2409000a 	li	t1,10
bfc00638:	01288006 	srlv	s0,t0,t1
bfc0063c:	3c120003 	lui	s2,0x3
bfc00640:	36523daf 	ori	s2,s2,0x3daf
bfc00644:	1612070a 	bne	s0,s2,bfc02270 <inst_error>
bfc00648:	00000000 	nop
bfc0064c:	3c082be7 	lui	t0,0x2be7
bfc00650:	3508fe80 	ori	t0,t0,0xfe80
bfc00654:	24090019 	li	t1,25
bfc00658:	01288006 	srlv	s0,t0,t1
bfc0065c:	24120015 	li	s2,21
bfc00660:	16120703 	bne	s0,s2,bfc02270 <inst_error>
bfc00664:	00000000 	nop
bfc00668:	3c08b4a4 	lui	t0,0xb4a4
bfc0066c:	3508fb88 	ori	t0,t0,0xfb88
bfc00670:	24090011 	li	t1,17
bfc00674:	01288006 	srlv	s0,t0,t1
bfc00678:	24125a52 	li	s2,23122
bfc0067c:	161206fc 	bne	s0,s2,bfc02270 <inst_error>
bfc00680:	00000000 	nop
bfc00684:	3c0830aa 	lui	t0,0x30aa
bfc00688:	35086216 	ori	t0,t0,0x6216
bfc0068c:	2409000c 	li	t1,12
bfc00690:	01288006 	srlv	s0,t0,t1
bfc00694:	3c120003 	lui	s2,0x3
bfc00698:	36520aa6 	ori	s2,s2,0xaa6
bfc0069c:	161206f4 	bne	s0,s2,bfc02270 <inst_error>
bfc006a0:	00000000 	nop
bfc006a4:	3c086048 	lui	t0,0x6048
bfc006a8:	35089db0 	ori	t0,t0,0x9db0
bfc006ac:	2409000b 	li	t1,11
bfc006b0:	01288006 	srlv	s0,t0,t1
bfc006b4:	3c12000c 	lui	s2,0xc
bfc006b8:	36520913 	ori	s2,s2,0x913
bfc006bc:	161206ec 	bne	s0,s2,bfc02270 <inst_error>
bfc006c0:	00000000 	nop
bfc006c4:	3c08c0b1 	lui	t0,0xc0b1
bfc006c8:	35085ac0 	ori	t0,t0,0x5ac0
bfc006cc:	24090003 	li	t1,3
bfc006d0:	01288006 	srlv	s0,t0,t1
bfc006d4:	3c121816 	lui	s2,0x1816
bfc006d8:	36522b58 	ori	s2,s2,0x2b58
bfc006dc:	161206e4 	bne	s0,s2,bfc02270 <inst_error>
bfc006e0:	00000000 	nop
bfc006e4:	3c08016d 	lui	t0,0x16d
bfc006e8:	35089715 	ori	t0,t0,0x9715
bfc006ec:	24090002 	li	t1,2
bfc006f0:	01288006 	srlv	s0,t0,t1
bfc006f4:	3c12005b 	lui	s2,0x5b
bfc006f8:	365265c5 	ori	s2,s2,0x65c5
bfc006fc:	161206dc 	bne	s0,s2,bfc02270 <inst_error>
bfc00700:	00000000 	nop
bfc00704:	3c0887c7 	lui	t0,0x87c7
bfc00708:	3508157f 	ori	t0,t0,0x157f
bfc0070c:	2409001e 	li	t1,30
bfc00710:	01288006 	srlv	s0,t0,t1
bfc00714:	24120002 	li	s2,2
bfc00718:	161206d5 	bne	s0,s2,bfc02270 <inst_error>
bfc0071c:	00000000 	nop
bfc00720:	3c080ff3 	lui	t0,0xff3
bfc00724:	3508aac0 	ori	t0,t0,0xaac0
bfc00728:	24090012 	li	t1,18
bfc0072c:	01288006 	srlv	s0,t0,t1
bfc00730:	241203fc 	li	s2,1020
bfc00734:	161206ce 	bne	s0,s2,bfc02270 <inst_error>
bfc00738:	00000000 	nop
bfc0073c:	3c0806c1 	lui	t0,0x6c1
bfc00740:	35085102 	ori	t0,t0,0x5102
bfc00744:	2409000d 	li	t1,13
bfc00748:	01288006 	srlv	s0,t0,t1
bfc0074c:	2412360a 	li	s2,13834
bfc00750:	161206c7 	bne	s0,s2,bfc02270 <inst_error>
bfc00754:	00000000 	nop
bfc00758:	3c08a2f4 	lui	t0,0xa2f4
bfc0075c:	35088fe0 	ori	t0,t0,0x8fe0
bfc00760:	24090002 	li	t1,2
bfc00764:	01288006 	srlv	s0,t0,t1
bfc00768:	3c1228bd 	lui	s2,0x28bd
bfc0076c:	365223f8 	ori	s2,s2,0x23f8
bfc00770:	161206bf 	bne	s0,s2,bfc02270 <inst_error>
bfc00774:	00000000 	nop
bfc00778:	3c08f2dd 	lui	t0,0xf2dd
bfc0077c:	35084f47 	ori	t0,t0,0x4f47
bfc00780:	24090004 	li	t1,4
bfc00784:	01288006 	srlv	s0,t0,t1
bfc00788:	3c120f2d 	lui	s2,0xf2d
bfc0078c:	3652d4f4 	ori	s2,s2,0xd4f4
bfc00790:	161206b7 	bne	s0,s2,bfc02270 <inst_error>
bfc00794:	00000000 	nop
bfc00798:	3c088fee 	lui	t0,0x8fee
bfc0079c:	35082638 	ori	t0,t0,0x2638
bfc007a0:	2409001f 	li	t1,31
bfc007a4:	01288006 	srlv	s0,t0,t1
bfc007a8:	24120001 	li	s2,1
bfc007ac:	161206b0 	bne	s0,s2,bfc02270 <inst_error>
bfc007b0:	00000000 	nop
bfc007b4:	3c085410 	lui	t0,0x5410
bfc007b8:	350814ea 	ori	t0,t0,0x14ea
bfc007bc:	24090014 	li	t1,20
bfc007c0:	01288006 	srlv	s0,t0,t1
bfc007c4:	24120541 	li	s2,1345
bfc007c8:	161206a9 	bne	s0,s2,bfc02270 <inst_error>
bfc007cc:	00000000 	nop
bfc007d0:	3c08ae85 	lui	t0,0xae85
bfc007d4:	35084050 	ori	t0,t0,0x4050
bfc007d8:	2409000f 	li	t1,15
bfc007dc:	01288006 	srlv	s0,t0,t1
bfc007e0:	3c120001 	lui	s2,0x1
bfc007e4:	36525d0a 	ori	s2,s2,0x5d0a
bfc007e8:	161206a1 	bne	s0,s2,bfc02270 <inst_error>
bfc007ec:	00000000 	nop
bfc007f0:	3c087c29 	lui	t0,0x7c29
bfc007f4:	35082be8 	ori	t0,t0,0x2be8
bfc007f8:	24090015 	li	t1,21
bfc007fc:	01288006 	srlv	s0,t0,t1
bfc00800:	241203e1 	li	s2,993
bfc00804:	1612069a 	bne	s0,s2,bfc02270 <inst_error>
bfc00808:	00000000 	nop
bfc0080c:	3c08a032 	lui	t0,0xa032
bfc00810:	35085283 	ori	t0,t0,0x5283
bfc00814:	24090003 	li	t1,3
bfc00818:	01288006 	srlv	s0,t0,t1
bfc0081c:	3c121406 	lui	s2,0x1406
bfc00820:	36524a50 	ori	s2,s2,0x4a50
bfc00824:	16120692 	bne	s0,s2,bfc02270 <inst_error>
bfc00828:	00000000 	nop
bfc0082c:	3c08f6c4 	lui	t0,0xf6c4
bfc00830:	35089bde 	ori	t0,t0,0x9bde
bfc00834:	24090003 	li	t1,3
bfc00838:	01288006 	srlv	s0,t0,t1
bfc0083c:	3c121ed8 	lui	s2,0x1ed8
bfc00840:	3652937b 	ori	s2,s2,0x937b
bfc00844:	1612068a 	bne	s0,s2,bfc02270 <inst_error>
bfc00848:	00000000 	nop
bfc0084c:	3c08c906 	lui	t0,0xc906
bfc00850:	35082ff0 	ori	t0,t0,0x2ff0
bfc00854:	24090002 	li	t1,2
bfc00858:	01288006 	srlv	s0,t0,t1
bfc0085c:	3c123241 	lui	s2,0x3241
bfc00860:	36528bfc 	ori	s2,s2,0x8bfc
bfc00864:	16120682 	bne	s0,s2,bfc02270 <inst_error>
bfc00868:	00000000 	nop
bfc0086c:	3c08e04c 	lui	t0,0xe04c
bfc00870:	3508ed40 	ori	t0,t0,0xed40
bfc00874:	24090008 	li	t1,8
bfc00878:	01288006 	srlv	s0,t0,t1
bfc0087c:	3c1200e0 	lui	s2,0xe0
bfc00880:	36524ced 	ori	s2,s2,0x4ced
bfc00884:	1612067a 	bne	s0,s2,bfc02270 <inst_error>
bfc00888:	00000000 	nop
bfc0088c:	3c08bb52 	lui	t0,0xbb52
bfc00890:	35085a80 	ori	t0,t0,0x5a80
bfc00894:	2409000f 	li	t1,15
bfc00898:	01288006 	srlv	s0,t0,t1
bfc0089c:	3c120001 	lui	s2,0x1
bfc008a0:	365276a4 	ori	s2,s2,0x76a4
bfc008a4:	16120672 	bne	s0,s2,bfc02270 <inst_error>
bfc008a8:	00000000 	nop
bfc008ac:	3c080e70 	lui	t0,0xe70
bfc008b0:	3508556c 	ori	t0,t0,0x556c
bfc008b4:	2409000d 	li	t1,13
bfc008b8:	01288006 	srlv	s0,t0,t1
bfc008bc:	24127382 	li	s2,29570
bfc008c0:	1612066b 	bne	s0,s2,bfc02270 <inst_error>
bfc008c4:	00000000 	nop
bfc008c8:	3c0809bf 	lui	t0,0x9bf
bfc008cc:	35085078 	ori	t0,t0,0x5078
bfc008d0:	24090002 	li	t1,2
bfc008d4:	01288006 	srlv	s0,t0,t1
bfc008d8:	3c12026f 	lui	s2,0x26f
bfc008dc:	3652d41e 	ori	s2,s2,0xd41e
bfc008e0:	16120663 	bne	s0,s2,bfc02270 <inst_error>
bfc008e4:	00000000 	nop
bfc008e8:	3c089236 	lui	t0,0x9236
bfc008ec:	35085f82 	ori	t0,t0,0x5f82
bfc008f0:	2409000c 	li	t1,12
bfc008f4:	01288006 	srlv	s0,t0,t1
bfc008f8:	3c120009 	lui	s2,0x9
bfc008fc:	36522365 	ori	s2,s2,0x2365
bfc00900:	1612065b 	bne	s0,s2,bfc02270 <inst_error>
bfc00904:	00000000 	nop
bfc00908:	3c081286 	lui	t0,0x1286
bfc0090c:	35083378 	ori	t0,t0,0x3378
bfc00910:	24090017 	li	t1,23
bfc00914:	01288006 	srlv	s0,t0,t1
bfc00918:	24120025 	li	s2,37
bfc0091c:	16120654 	bne	s0,s2,bfc02270 <inst_error>
bfc00920:	00000000 	nop
bfc00924:	3c08746a 	lui	t0,0x746a
bfc00928:	35083080 	ori	t0,t0,0x3080
bfc0092c:	24090013 	li	t1,19
bfc00930:	01288006 	srlv	s0,t0,t1
bfc00934:	24120e8d 	li	s2,3725
bfc00938:	1612064d 	bne	s0,s2,bfc02270 <inst_error>
bfc0093c:	00000000 	nop
bfc00940:	3c086348 	lui	t0,0x6348
bfc00944:	350867c7 	ori	t0,t0,0x67c7
bfc00948:	24090011 	li	t1,17
bfc0094c:	01288006 	srlv	s0,t0,t1
bfc00950:	241231a4 	li	s2,12708
bfc00954:	16120646 	bne	s0,s2,bfc02270 <inst_error>
bfc00958:	00000000 	nop
bfc0095c:	3c08abfd 	lui	t0,0xabfd
bfc00960:	35081800 	ori	t0,t0,0x1800
bfc00964:	24090008 	li	t1,8
bfc00968:	01288006 	srlv	s0,t0,t1
bfc0096c:	3c1200ab 	lui	s2,0xab
bfc00970:	3652fd18 	ori	s2,s2,0xfd18
bfc00974:	1612063e 	bne	s0,s2,bfc02270 <inst_error>
bfc00978:	00000000 	nop
bfc0097c:	3c08e06b 	lui	t0,0xe06b
bfc00980:	3508e5a4 	ori	t0,t0,0xe5a4
bfc00984:	24090016 	li	t1,22
bfc00988:	01288006 	srlv	s0,t0,t1
bfc0098c:	24120381 	li	s2,897
bfc00990:	16120637 	bne	s0,s2,bfc02270 <inst_error>
bfc00994:	00000000 	nop
bfc00998:	3c08c237 	lui	t0,0xc237
bfc0099c:	3508bfc1 	ori	t0,t0,0xbfc1
bfc009a0:	2409000b 	li	t1,11
bfc009a4:	01288006 	srlv	s0,t0,t1
bfc009a8:	3c120018 	lui	s2,0x18
bfc009ac:	365246f7 	ori	s2,s2,0x46f7
bfc009b0:	1612062f 	bne	s0,s2,bfc02270 <inst_error>
bfc009b4:	00000000 	nop
bfc009b8:	3c08a003 	lui	t0,0xa003
bfc009bc:	35080450 	ori	t0,t0,0x450
bfc009c0:	24090014 	li	t1,20
bfc009c4:	01288006 	srlv	s0,t0,t1
bfc009c8:	24120a00 	li	s2,2560
bfc009cc:	16120628 	bne	s0,s2,bfc02270 <inst_error>
bfc009d0:	00000000 	nop
bfc009d4:	3c084098 	lui	t0,0x4098
bfc009d8:	350811b8 	ori	t0,t0,0x11b8
bfc009dc:	24090004 	li	t1,4
bfc009e0:	01288006 	srlv	s0,t0,t1
bfc009e4:	3c120409 	lui	s2,0x409
bfc009e8:	3652811b 	ori	s2,s2,0x811b
bfc009ec:	16120620 	bne	s0,s2,bfc02270 <inst_error>
bfc009f0:	00000000 	nop
bfc009f4:	3c089805 	lui	t0,0x9805
bfc009f8:	3508da2c 	ori	t0,t0,0xda2c
bfc009fc:	24090002 	li	t1,2
bfc00a00:	01288006 	srlv	s0,t0,t1
bfc00a04:	3c122601 	lui	s2,0x2601
bfc00a08:	3652768b 	ori	s2,s2,0x768b
bfc00a0c:	16120618 	bne	s0,s2,bfc02270 <inst_error>
bfc00a10:	00000000 	nop
bfc00a14:	3c082af7 	lui	t0,0x2af7
bfc00a18:	35082a3a 	ori	t0,t0,0x2a3a
bfc00a1c:	24090016 	li	t1,22
bfc00a20:	01288006 	srlv	s0,t0,t1
bfc00a24:	241200ab 	li	s2,171
bfc00a28:	16120611 	bne	s0,s2,bfc02270 <inst_error>
bfc00a2c:	00000000 	nop
bfc00a30:	3c08b94e 	lui	t0,0xb94e
bfc00a34:	35086930 	ori	t0,t0,0x6930
bfc00a38:	24090003 	li	t1,3
bfc00a3c:	01288006 	srlv	s0,t0,t1
bfc00a40:	3c121729 	lui	s2,0x1729
bfc00a44:	3652cd26 	ori	s2,s2,0xcd26
bfc00a48:	16120609 	bne	s0,s2,bfc02270 <inst_error>
bfc00a4c:	00000000 	nop
bfc00a50:	3c08fd25 	lui	t0,0xfd25
bfc00a54:	3508cf55 	ori	t0,t0,0xcf55
bfc00a58:	2409000e 	li	t1,14
bfc00a5c:	01288006 	srlv	s0,t0,t1
bfc00a60:	3c120003 	lui	s2,0x3
bfc00a64:	3652f497 	ori	s2,s2,0xf497
bfc00a68:	16120601 	bne	s0,s2,bfc02270 <inst_error>
bfc00a6c:	00000000 	nop
bfc00a70:	3c08f455 	lui	t0,0xf455
bfc00a74:	3508b93e 	ori	t0,t0,0xb93e
bfc00a78:	2409001e 	li	t1,30
bfc00a7c:	01288006 	srlv	s0,t0,t1
bfc00a80:	24120003 	li	s2,3
bfc00a84:	161205fa 	bne	s0,s2,bfc02270 <inst_error>
bfc00a88:	00000000 	nop
bfc00a8c:	3c08dba4 	lui	t0,0xdba4
bfc00a90:	3508a0c8 	ori	t0,t0,0xa0c8
bfc00a94:	24090011 	li	t1,17
bfc00a98:	01288006 	srlv	s0,t0,t1
bfc00a9c:	24126dd2 	li	s2,28114
bfc00aa0:	161205f3 	bne	s0,s2,bfc02270 <inst_error>
bfc00aa4:	00000000 	nop
bfc00aa8:	3c082ad0 	lui	t0,0x2ad0
bfc00aac:	350803d0 	ori	t0,t0,0x3d0
bfc00ab0:	2409000c 	li	t1,12
bfc00ab4:	01288006 	srlv	s0,t0,t1
bfc00ab8:	3c120002 	lui	s2,0x2
bfc00abc:	3652ad00 	ori	s2,s2,0xad00
bfc00ac0:	161205eb 	bne	s0,s2,bfc02270 <inst_error>
bfc00ac4:	00000000 	nop
bfc00ac8:	3c085db2 	lui	t0,0x5db2
bfc00acc:	35085ec6 	ori	t0,t0,0x5ec6
bfc00ad0:	24090004 	li	t1,4
bfc00ad4:	01288006 	srlv	s0,t0,t1
bfc00ad8:	3c1205db 	lui	s2,0x5db
bfc00adc:	365225ec 	ori	s2,s2,0x25ec
bfc00ae0:	161205e3 	bne	s0,s2,bfc02270 <inst_error>
bfc00ae4:	00000000 	nop
bfc00ae8:	3c084572 	lui	t0,0x4572
bfc00aec:	3508e7b6 	ori	t0,t0,0xe7b6
bfc00af0:	24090014 	li	t1,20
bfc00af4:	01288006 	srlv	s0,t0,t1
bfc00af8:	24120457 	li	s2,1111
bfc00afc:	161205dc 	bne	s0,s2,bfc02270 <inst_error>
bfc00b00:	00000000 	nop
bfc00b04:	3c0896c6 	lui	t0,0x96c6
bfc00b08:	35085acc 	ori	t0,t0,0x5acc
bfc00b0c:	24090005 	li	t1,5
bfc00b10:	01288006 	srlv	s0,t0,t1
bfc00b14:	3c1204b6 	lui	s2,0x4b6
bfc00b18:	365232d6 	ori	s2,s2,0x32d6
bfc00b1c:	161205d4 	bne	s0,s2,bfc02270 <inst_error>
bfc00b20:	00000000 	nop
bfc00b24:	3c08cfc3 	lui	t0,0xcfc3
bfc00b28:	35084b9e 	ori	t0,t0,0x4b9e
bfc00b2c:	24090011 	li	t1,17
bfc00b30:	01288006 	srlv	s0,t0,t1
bfc00b34:	241267e1 	li	s2,26593
bfc00b38:	161205cd 	bne	s0,s2,bfc02270 <inst_error>
bfc00b3c:	00000000 	nop
bfc00b40:	3c08f1ab 	lui	t0,0xf1ab
bfc00b44:	35085334 	ori	t0,t0,0x5334
bfc00b48:	2409001b 	li	t1,27
bfc00b4c:	01288006 	srlv	s0,t0,t1
bfc00b50:	2412001e 	li	s2,30
bfc00b54:	161205c6 	bne	s0,s2,bfc02270 <inst_error>
bfc00b58:	00000000 	nop
bfc00b5c:	3c088a12 	lui	t0,0x8a12
bfc00b60:	35085f54 	ori	t0,t0,0x5f54
bfc00b64:	24090018 	li	t1,24
bfc00b68:	01288006 	srlv	s0,t0,t1
bfc00b6c:	2412008a 	li	s2,138
bfc00b70:	161205bf 	bne	s0,s2,bfc02270 <inst_error>
bfc00b74:	00000000 	nop
bfc00b78:	3c086152 	lui	t0,0x6152
bfc00b7c:	350884b0 	ori	t0,t0,0x84b0
bfc00b80:	24090012 	li	t1,18
bfc00b84:	01288006 	srlv	s0,t0,t1
bfc00b88:	24121854 	li	s2,6228
bfc00b8c:	161205b8 	bne	s0,s2,bfc02270 <inst_error>
bfc00b90:	00000000 	nop
bfc00b94:	3c0855ab 	lui	t0,0x55ab
bfc00b98:	35087c98 	ori	t0,t0,0x7c98
bfc00b9c:	24090003 	li	t1,3
bfc00ba0:	01288006 	srlv	s0,t0,t1
bfc00ba4:	3c120ab5 	lui	s2,0xab5
bfc00ba8:	36526f93 	ori	s2,s2,0x6f93
bfc00bac:	161205b0 	bne	s0,s2,bfc02270 <inst_error>
bfc00bb0:	00000000 	nop
bfc00bb4:	3c08fe71 	lui	t0,0xfe71
bfc00bb8:	3508e5f3 	ori	t0,t0,0xe5f3
bfc00bbc:	2409001f 	li	t1,31
bfc00bc0:	01288006 	srlv	s0,t0,t1
bfc00bc4:	24120001 	li	s2,1
bfc00bc8:	161205a9 	bne	s0,s2,bfc02270 <inst_error>
bfc00bcc:	00000000 	nop
bfc00bd0:	3c08748c 	lui	t0,0x748c
bfc00bd4:	3508edd0 	ori	t0,t0,0xedd0
bfc00bd8:	24090003 	li	t1,3
bfc00bdc:	01288006 	srlv	s0,t0,t1
bfc00be0:	3c120e91 	lui	s2,0xe91
bfc00be4:	36529dba 	ori	s2,s2,0x9dba
bfc00be8:	161205a1 	bne	s0,s2,bfc02270 <inst_error>
bfc00bec:	00000000 	nop
bfc00bf0:	3c08600c 	lui	t0,0x600c
bfc00bf4:	350897bc 	ori	t0,t0,0x97bc
bfc00bf8:	24090011 	li	t1,17
bfc00bfc:	01288006 	srlv	s0,t0,t1
bfc00c00:	24123006 	li	s2,12294
bfc00c04:	1612059a 	bne	s0,s2,bfc02270 <inst_error>
bfc00c08:	00000000 	nop
bfc00c0c:	3c08bab6 	lui	t0,0xbab6
bfc00c10:	35082778 	ori	t0,t0,0x2778
bfc00c14:	2409001f 	li	t1,31
bfc00c18:	01288006 	srlv	s0,t0,t1
bfc00c1c:	24120001 	li	s2,1
bfc00c20:	16120593 	bne	s0,s2,bfc02270 <inst_error>
bfc00c24:	00000000 	nop
bfc00c28:	3c085dcb 	lui	t0,0x5dcb
bfc00c2c:	35087600 	ori	t0,t0,0x7600
bfc00c30:	24090006 	li	t1,6
bfc00c34:	01288006 	srlv	s0,t0,t1
bfc00c38:	3c120177 	lui	s2,0x177
bfc00c3c:	36522dd8 	ori	s2,s2,0x2dd8
bfc00c40:	1612058b 	bne	s0,s2,bfc02270 <inst_error>
bfc00c44:	00000000 	nop
bfc00c48:	3c088aa1 	lui	t0,0x8aa1
bfc00c4c:	3508b8c8 	ori	t0,t0,0xb8c8
bfc00c50:	2409001d 	li	t1,29
bfc00c54:	01288006 	srlv	s0,t0,t1
bfc00c58:	24120004 	li	s2,4
bfc00c5c:	16120584 	bne	s0,s2,bfc02270 <inst_error>
bfc00c60:	00000000 	nop
bfc00c64:	3c08a628 	lui	t0,0xa628
bfc00c68:	35080968 	ori	t0,t0,0x968
bfc00c6c:	24090001 	li	t1,1
bfc00c70:	01288006 	srlv	s0,t0,t1
bfc00c74:	3c125314 	lui	s2,0x5314
bfc00c78:	365204b4 	ori	s2,s2,0x4b4
bfc00c7c:	1612057c 	bne	s0,s2,bfc02270 <inst_error>
bfc00c80:	00000000 	nop
bfc00c84:	3c08e8ed 	lui	t0,0xe8ed
bfc00c88:	3508a6f4 	ori	t0,t0,0xa6f4
bfc00c8c:	2409001f 	li	t1,31
bfc00c90:	01288006 	srlv	s0,t0,t1
bfc00c94:	24120001 	li	s2,1
bfc00c98:	16120575 	bne	s0,s2,bfc02270 <inst_error>
bfc00c9c:	00000000 	nop
bfc00ca0:	3c08d386 	lui	t0,0xd386
bfc00ca4:	35089a00 	ori	t0,t0,0x9a00
bfc00ca8:	24090000 	li	t1,0
bfc00cac:	01288006 	srlv	s0,t0,t1
bfc00cb0:	3c12d386 	lui	s2,0xd386
bfc00cb4:	36529a00 	ori	s2,s2,0x9a00
bfc00cb8:	1612056d 	bne	s0,s2,bfc02270 <inst_error>
bfc00cbc:	00000000 	nop
bfc00cc0:	3c08e44e 	lui	t0,0xe44e
bfc00cc4:	350834d3 	ori	t0,t0,0x34d3
bfc00cc8:	2409000a 	li	t1,10
bfc00ccc:	01288006 	srlv	s0,t0,t1
bfc00cd0:	3c120039 	lui	s2,0x39
bfc00cd4:	3652138d 	ori	s2,s2,0x138d
bfc00cd8:	16120565 	bne	s0,s2,bfc02270 <inst_error>
bfc00cdc:	00000000 	nop
bfc00ce0:	3c0855b5 	lui	t0,0x55b5
bfc00ce4:	3508f76c 	ori	t0,t0,0xf76c
bfc00ce8:	24090009 	li	t1,9
bfc00cec:	01288006 	srlv	s0,t0,t1
bfc00cf0:	3c12002a 	lui	s2,0x2a
bfc00cf4:	3652dafb 	ori	s2,s2,0xdafb
bfc00cf8:	1612055d 	bne	s0,s2,bfc02270 <inst_error>
bfc00cfc:	00000000 	nop
bfc00d00:	3c08b359 	lui	t0,0xb359
bfc00d04:	3508c3f0 	ori	t0,t0,0xc3f0
bfc00d08:	24090015 	li	t1,21
bfc00d0c:	01288006 	srlv	s0,t0,t1
bfc00d10:	2412059a 	li	s2,1434
bfc00d14:	16120556 	bne	s0,s2,bfc02270 <inst_error>
bfc00d18:	00000000 	nop
bfc00d1c:	3c0885dd 	lui	t0,0x85dd
bfc00d20:	3508b640 	ori	t0,t0,0xb640
bfc00d24:	2409001b 	li	t1,27
bfc00d28:	01288006 	srlv	s0,t0,t1
bfc00d2c:	24120010 	li	s2,16
bfc00d30:	1612054f 	bne	s0,s2,bfc02270 <inst_error>
bfc00d34:	00000000 	nop
bfc00d38:	3c083c3d 	lui	t0,0x3c3d
bfc00d3c:	35081cc0 	ori	t0,t0,0x1cc0
bfc00d40:	24090014 	li	t1,20
bfc00d44:	01288006 	srlv	s0,t0,t1
bfc00d48:	241203c3 	li	s2,963
bfc00d4c:	16120548 	bne	s0,s2,bfc02270 <inst_error>
bfc00d50:	00000000 	nop
bfc00d54:	3c08bea3 	lui	t0,0xbea3
bfc00d58:	3508711f 	ori	t0,t0,0x711f
bfc00d5c:	24090008 	li	t1,8
bfc00d60:	01288006 	srlv	s0,t0,t1
bfc00d64:	3c1200be 	lui	s2,0xbe
bfc00d68:	3652a371 	ori	s2,s2,0xa371
bfc00d6c:	16120540 	bne	s0,s2,bfc02270 <inst_error>
bfc00d70:	00000000 	nop
bfc00d74:	3c083f98 	lui	t0,0x3f98
bfc00d78:	3508ee78 	ori	t0,t0,0xee78
bfc00d7c:	24090018 	li	t1,24
bfc00d80:	01288006 	srlv	s0,t0,t1
bfc00d84:	2412003f 	li	s2,63
bfc00d88:	16120539 	bne	s0,s2,bfc02270 <inst_error>
bfc00d8c:	00000000 	nop
bfc00d90:	3c0861f7 	lui	t0,0x61f7
bfc00d94:	350801f0 	ori	t0,t0,0x1f0
bfc00d98:	2409000b 	li	t1,11
bfc00d9c:	01288006 	srlv	s0,t0,t1
bfc00da0:	3c12000c 	lui	s2,0xc
bfc00da4:	36523ee0 	ori	s2,s2,0x3ee0
bfc00da8:	16120531 	bne	s0,s2,bfc02270 <inst_error>
bfc00dac:	00000000 	nop
bfc00db0:	3c08a440 	lui	t0,0xa440
bfc00db4:	3508f500 	ori	t0,t0,0xf500
bfc00db8:	24090007 	li	t1,7
bfc00dbc:	01288006 	srlv	s0,t0,t1
bfc00dc0:	3c120148 	lui	s2,0x148
bfc00dc4:	365281ea 	ori	s2,s2,0x81ea
bfc00dc8:	16120529 	bne	s0,s2,bfc02270 <inst_error>
bfc00dcc:	00000000 	nop
bfc00dd0:	3c08ea38 	lui	t0,0xea38
bfc00dd4:	3508ab40 	ori	t0,t0,0xab40
bfc00dd8:	24090012 	li	t1,18
bfc00ddc:	01288006 	srlv	s0,t0,t1
bfc00de0:	24123a8e 	li	s2,14990
bfc00de4:	16120522 	bne	s0,s2,bfc02270 <inst_error>
bfc00de8:	00000000 	nop
bfc00dec:	3c08698a 	lui	t0,0x698a
bfc00df0:	3508156c 	ori	t0,t0,0x156c
bfc00df4:	2409000f 	li	t1,15
bfc00df8:	01288006 	srlv	s0,t0,t1
bfc00dfc:	3412d314 	li	s2,0xd314
bfc00e00:	1612051b 	bne	s0,s2,bfc02270 <inst_error>
bfc00e04:	00000000 	nop
bfc00e08:	3c08c435 	lui	t0,0xc435
bfc00e0c:	3508e2b8 	ori	t0,t0,0xe2b8
bfc00e10:	24090019 	li	t1,25
bfc00e14:	01288006 	srlv	s0,t0,t1
bfc00e18:	24120062 	li	s2,98
bfc00e1c:	16120514 	bne	s0,s2,bfc02270 <inst_error>
bfc00e20:	00000000 	nop
bfc00e24:	3c08baa8 	lui	t0,0xbaa8
bfc00e28:	3508fdc0 	ori	t0,t0,0xfdc0
bfc00e2c:	24090011 	li	t1,17
bfc00e30:	01288006 	srlv	s0,t0,t1
bfc00e34:	24125d54 	li	s2,23892
bfc00e38:	1612050d 	bne	s0,s2,bfc02270 <inst_error>
bfc00e3c:	00000000 	nop
bfc00e40:	3c08af38 	lui	t0,0xaf38
bfc00e44:	3508bc06 	ori	t0,t0,0xbc06
bfc00e48:	24090003 	li	t1,3
bfc00e4c:	01288006 	srlv	s0,t0,t1
bfc00e50:	3c1215e7 	lui	s2,0x15e7
bfc00e54:	36521780 	ori	s2,s2,0x1780
bfc00e58:	16120505 	bne	s0,s2,bfc02270 <inst_error>
bfc00e5c:	00000000 	nop
bfc00e60:	3c084f07 	lui	t0,0x4f07
bfc00e64:	350805e0 	ori	t0,t0,0x5e0
bfc00e68:	2409001d 	li	t1,29
bfc00e6c:	01288006 	srlv	s0,t0,t1
bfc00e70:	24120002 	li	s2,2
bfc00e74:	161204fe 	bne	s0,s2,bfc02270 <inst_error>
bfc00e78:	00000000 	nop
bfc00e7c:	3c085199 	lui	t0,0x5199
bfc00e80:	35080430 	ori	t0,t0,0x430
bfc00e84:	24090005 	li	t1,5
bfc00e88:	01288006 	srlv	s0,t0,t1
bfc00e8c:	3c12028c 	lui	s2,0x28c
bfc00e90:	3652c821 	ori	s2,s2,0xc821
bfc00e94:	161204f6 	bne	s0,s2,bfc02270 <inst_error>
bfc00e98:	00000000 	nop
bfc00e9c:	3c08b6d2 	lui	t0,0xb6d2
bfc00ea0:	350830b8 	ori	t0,t0,0x30b8
bfc00ea4:	24090013 	li	t1,19
bfc00ea8:	01288006 	srlv	s0,t0,t1
bfc00eac:	241216da 	li	s2,5850
bfc00eb0:	161204ef 	bne	s0,s2,bfc02270 <inst_error>
bfc00eb4:	00000000 	nop
bfc00eb8:	3c08c32b 	lui	t0,0xc32b
bfc00ebc:	35081338 	ori	t0,t0,0x1338
bfc00ec0:	24090014 	li	t1,20
bfc00ec4:	01288006 	srlv	s0,t0,t1
bfc00ec8:	24120c32 	li	s2,3122
bfc00ecc:	161204e8 	bne	s0,s2,bfc02270 <inst_error>
bfc00ed0:	00000000 	nop
bfc00ed4:	3c0856f0 	lui	t0,0x56f0
bfc00ed8:	35089ca0 	ori	t0,t0,0x9ca0
bfc00edc:	24090009 	li	t1,9
bfc00ee0:	01288006 	srlv	s0,t0,t1
bfc00ee4:	3c12002b 	lui	s2,0x2b
bfc00ee8:	3652784e 	ori	s2,s2,0x784e
bfc00eec:	161204e0 	bne	s0,s2,bfc02270 <inst_error>
bfc00ef0:	00000000 	nop
bfc00ef4:	3c0820d5 	lui	t0,0x20d5
bfc00ef8:	35085384 	ori	t0,t0,0x5384
bfc00efc:	2409000e 	li	t1,14
bfc00f00:	01288006 	srlv	s0,t0,t1
bfc00f04:	34128355 	li	s2,0x8355
bfc00f08:	161204d9 	bne	s0,s2,bfc02270 <inst_error>
bfc00f0c:	00000000 	nop
bfc00f10:	3c08ee44 	lui	t0,0xee44
bfc00f14:	35081e24 	ori	t0,t0,0x1e24
bfc00f18:	2409000d 	li	t1,13
bfc00f1c:	01288006 	srlv	s0,t0,t1
bfc00f20:	3c120007 	lui	s2,0x7
bfc00f24:	36527220 	ori	s2,s2,0x7220
bfc00f28:	161204d1 	bne	s0,s2,bfc02270 <inst_error>
bfc00f2c:	00000000 	nop
bfc00f30:	3c089391 	lui	t0,0x9391
bfc00f34:	35087f27 	ori	t0,t0,0x7f27
bfc00f38:	24090000 	li	t1,0
bfc00f3c:	01288006 	srlv	s0,t0,t1
bfc00f40:	3c129391 	lui	s2,0x9391
bfc00f44:	36527f27 	ori	s2,s2,0x7f27
bfc00f48:	161204c9 	bne	s0,s2,bfc02270 <inst_error>
bfc00f4c:	00000000 	nop
bfc00f50:	3c08d392 	lui	t0,0xd392
bfc00f54:	3508f564 	ori	t0,t0,0xf564
bfc00f58:	24090002 	li	t1,2
bfc00f5c:	01288006 	srlv	s0,t0,t1
bfc00f60:	3c1234e4 	lui	s2,0x34e4
bfc00f64:	3652bd59 	ori	s2,s2,0xbd59
bfc00f68:	161204c1 	bne	s0,s2,bfc02270 <inst_error>
bfc00f6c:	00000000 	nop
bfc00f70:	3c0861fd 	lui	t0,0x61fd
bfc00f74:	350823fc 	ori	t0,t0,0x23fc
bfc00f78:	24090019 	li	t1,25
bfc00f7c:	01288006 	srlv	s0,t0,t1
bfc00f80:	24120030 	li	s2,48
bfc00f84:	161204ba 	bne	s0,s2,bfc02270 <inst_error>
bfc00f88:	00000000 	nop
bfc00f8c:	3c083810 	lui	t0,0x3810
bfc00f90:	3508ee98 	ori	t0,t0,0xee98
bfc00f94:	24090018 	li	t1,24
bfc00f98:	01288006 	srlv	s0,t0,t1
bfc00f9c:	24120038 	li	s2,56
bfc00fa0:	161204b3 	bne	s0,s2,bfc02270 <inst_error>
bfc00fa4:	00000000 	nop
bfc00fa8:	3c08450f 	lui	t0,0x450f
bfc00fac:	3508c4d0 	ori	t0,t0,0xc4d0
bfc00fb0:	2409000f 	li	t1,15
bfc00fb4:	01288006 	srlv	s0,t0,t1
bfc00fb8:	34128a1f 	li	s2,0x8a1f
bfc00fbc:	161204ac 	bne	s0,s2,bfc02270 <inst_error>
bfc00fc0:	00000000 	nop
bfc00fc4:	3c086c59 	lui	t0,0x6c59
bfc00fc8:	3508a85e 	ori	t0,t0,0xa85e
bfc00fcc:	2409001b 	li	t1,27
bfc00fd0:	01288006 	srlv	s0,t0,t1
bfc00fd4:	2412000d 	li	s2,13
bfc00fd8:	161204a5 	bne	s0,s2,bfc02270 <inst_error>
bfc00fdc:	00000000 	nop
bfc00fe0:	3c0898c9 	lui	t0,0x98c9
bfc00fe4:	35086979 	ori	t0,t0,0x6979
bfc00fe8:	24090007 	li	t1,7
bfc00fec:	01288006 	srlv	s0,t0,t1
bfc00ff0:	3c120131 	lui	s2,0x131
bfc00ff4:	365292d2 	ori	s2,s2,0x92d2
bfc00ff8:	1612049d 	bne	s0,s2,bfc02270 <inst_error>
bfc00ffc:	00000000 	nop
bfc01000:	3c089289 	lui	t0,0x9289
bfc01004:	3508a95e 	ori	t0,t0,0xa95e
bfc01008:	2409000f 	li	t1,15
bfc0100c:	01288006 	srlv	s0,t0,t1
bfc01010:	3c120001 	lui	s2,0x1
bfc01014:	36522513 	ori	s2,s2,0x2513
bfc01018:	16120495 	bne	s0,s2,bfc02270 <inst_error>
bfc0101c:	00000000 	nop
bfc01020:	3c087d27 	lui	t0,0x7d27
bfc01024:	35081631 	ori	t0,t0,0x1631
bfc01028:	24090010 	li	t1,16
bfc0102c:	01288006 	srlv	s0,t0,t1
bfc01030:	24127d27 	li	s2,32039
bfc01034:	1612048e 	bne	s0,s2,bfc02270 <inst_error>
bfc01038:	00000000 	nop
bfc0103c:	3c08a7dc 	lui	t0,0xa7dc
bfc01040:	3508f7a0 	ori	t0,t0,0xf7a0
bfc01044:	2409000d 	li	t1,13
bfc01048:	01288006 	srlv	s0,t0,t1
bfc0104c:	3c120005 	lui	s2,0x5
bfc01050:	36523ee7 	ori	s2,s2,0x3ee7
bfc01054:	16120486 	bne	s0,s2,bfc02270 <inst_error>
bfc01058:	00000000 	nop
bfc0105c:	3c08eb76 	lui	t0,0xeb76
bfc01060:	35084460 	ori	t0,t0,0x4460
bfc01064:	24090000 	li	t1,0
bfc01068:	01288006 	srlv	s0,t0,t1
bfc0106c:	3c12eb76 	lui	s2,0xeb76
bfc01070:	36524460 	ori	s2,s2,0x4460
bfc01074:	1612047e 	bne	s0,s2,bfc02270 <inst_error>
bfc01078:	00000000 	nop
bfc0107c:	3c081ee8 	lui	t0,0x1ee8
bfc01080:	3508e1f0 	ori	t0,t0,0xe1f0
bfc01084:	24090017 	li	t1,23
bfc01088:	01288006 	srlv	s0,t0,t1
bfc0108c:	2412003d 	li	s2,61
bfc01090:	16120477 	bne	s0,s2,bfc02270 <inst_error>
bfc01094:	00000000 	nop
bfc01098:	3c0802fc 	lui	t0,0x2fc
bfc0109c:	3508437c 	ori	t0,t0,0x437c
bfc010a0:	2409001a 	li	t1,26
bfc010a4:	01288006 	srlv	s0,t0,t1
bfc010a8:	24120000 	li	s2,0
bfc010ac:	16120470 	bne	s0,s2,bfc02270 <inst_error>
bfc010b0:	00000000 	nop
bfc010b4:	3c08d38b 	lui	t0,0xd38b
bfc010b8:	350824a0 	ori	t0,t0,0x24a0
bfc010bc:	24090013 	li	t1,19
bfc010c0:	01288006 	srlv	s0,t0,t1
bfc010c4:	24121a71 	li	s2,6769
bfc010c8:	16120469 	bne	s0,s2,bfc02270 <inst_error>
bfc010cc:	00000000 	nop
bfc010d0:	3c0836fb 	lui	t0,0x36fb
bfc010d4:	35084114 	ori	t0,t0,0x4114
bfc010d8:	24090013 	li	t1,19
bfc010dc:	01288006 	srlv	s0,t0,t1
bfc010e0:	241206df 	li	s2,1759
bfc010e4:	16120462 	bne	s0,s2,bfc02270 <inst_error>
bfc010e8:	00000000 	nop
bfc010ec:	3c08d468 	lui	t0,0xd468
bfc010f0:	35083c56 	ori	t0,t0,0x3c56
bfc010f4:	24090005 	li	t1,5
bfc010f8:	01288006 	srlv	s0,t0,t1
bfc010fc:	3c1206a3 	lui	s2,0x6a3
bfc01100:	365241e2 	ori	s2,s2,0x41e2
bfc01104:	1612045a 	bne	s0,s2,bfc02270 <inst_error>
bfc01108:	00000000 	nop
bfc0110c:	3c08befb 	lui	t0,0xbefb
bfc01110:	350803e3 	ori	t0,t0,0x3e3
bfc01114:	24090000 	li	t1,0
bfc01118:	01288006 	srlv	s0,t0,t1
bfc0111c:	3c12befb 	lui	s2,0xbefb
bfc01120:	365203e3 	ori	s2,s2,0x3e3
bfc01124:	16120452 	bne	s0,s2,bfc02270 <inst_error>
bfc01128:	00000000 	nop
bfc0112c:	3c0869c5 	lui	t0,0x69c5
bfc01130:	3508aef0 	ori	t0,t0,0xaef0
bfc01134:	24090009 	li	t1,9
bfc01138:	01288006 	srlv	s0,t0,t1
bfc0113c:	3c120034 	lui	s2,0x34
bfc01140:	3652e2d7 	ori	s2,s2,0xe2d7
bfc01144:	1612044a 	bne	s0,s2,bfc02270 <inst_error>
bfc01148:	00000000 	nop
bfc0114c:	3c08e2c2 	lui	t0,0xe2c2
bfc01150:	35089658 	ori	t0,t0,0x9658
bfc01154:	2409001a 	li	t1,26
bfc01158:	01288006 	srlv	s0,t0,t1
bfc0115c:	24120038 	li	s2,56
bfc01160:	16120443 	bne	s0,s2,bfc02270 <inst_error>
bfc01164:	00000000 	nop
bfc01168:	3c08eb30 	lui	t0,0xeb30
bfc0116c:	35083400 	ori	t0,t0,0x3400
bfc01170:	24090015 	li	t1,21
bfc01174:	01288006 	srlv	s0,t0,t1
bfc01178:	24120759 	li	s2,1881
bfc0117c:	1612043c 	bne	s0,s2,bfc02270 <inst_error>
bfc01180:	00000000 	nop
bfc01184:	3c0872cb 	lui	t0,0x72cb
bfc01188:	35081bf0 	ori	t0,t0,0x1bf0
bfc0118c:	24090015 	li	t1,21
bfc01190:	01288006 	srlv	s0,t0,t1
bfc01194:	24120396 	li	s2,918
bfc01198:	16120435 	bne	s0,s2,bfc02270 <inst_error>
bfc0119c:	00000000 	nop
bfc011a0:	3c08bdff 	lui	t0,0xbdff
bfc011a4:	35081488 	ori	t0,t0,0x1488
bfc011a8:	24090016 	li	t1,22
bfc011ac:	01288006 	srlv	s0,t0,t1
bfc011b0:	241202f7 	li	s2,759
bfc011b4:	1612042e 	bne	s0,s2,bfc02270 <inst_error>
bfc011b8:	00000000 	nop
bfc011bc:	3c08d1e8 	lui	t0,0xd1e8
bfc011c0:	3508c6d0 	ori	t0,t0,0xc6d0
bfc011c4:	2409000f 	li	t1,15
bfc011c8:	01288006 	srlv	s0,t0,t1
bfc011cc:	3c120001 	lui	s2,0x1
bfc011d0:	3652a3d1 	ori	s2,s2,0xa3d1
bfc011d4:	16120426 	bne	s0,s2,bfc02270 <inst_error>
bfc011d8:	00000000 	nop
bfc011dc:	3c081649 	lui	t0,0x1649
bfc011e0:	350809a0 	ori	t0,t0,0x9a0
bfc011e4:	24090003 	li	t1,3
bfc011e8:	01288006 	srlv	s0,t0,t1
bfc011ec:	3c1202c9 	lui	s2,0x2c9
bfc011f0:	36522134 	ori	s2,s2,0x2134
bfc011f4:	1612041e 	bne	s0,s2,bfc02270 <inst_error>
bfc011f8:	00000000 	nop
bfc011fc:	3c08d735 	lui	t0,0xd735
bfc01200:	3508d3e8 	ori	t0,t0,0xd3e8
bfc01204:	24090012 	li	t1,18
bfc01208:	01288006 	srlv	s0,t0,t1
bfc0120c:	241235cd 	li	s2,13773
bfc01210:	16120417 	bne	s0,s2,bfc02270 <inst_error>
bfc01214:	00000000 	nop
bfc01218:	3c080509 	lui	t0,0x509
bfc0121c:	35085050 	ori	t0,t0,0x5050
bfc01220:	24090005 	li	t1,5
bfc01224:	01288006 	srlv	s0,t0,t1
bfc01228:	3c120028 	lui	s2,0x28
bfc0122c:	36524a82 	ori	s2,s2,0x4a82
bfc01230:	1612040f 	bne	s0,s2,bfc02270 <inst_error>
bfc01234:	00000000 	nop
bfc01238:	3c08d08f 	lui	t0,0xd08f
bfc0123c:	35081360 	ori	t0,t0,0x1360
bfc01240:	24090000 	li	t1,0
bfc01244:	01288006 	srlv	s0,t0,t1
bfc01248:	3c12d08f 	lui	s2,0xd08f
bfc0124c:	36521360 	ori	s2,s2,0x1360
bfc01250:	16120407 	bne	s0,s2,bfc02270 <inst_error>
bfc01254:	00000000 	nop
bfc01258:	3c08d123 	lui	t0,0xd123
bfc0125c:	35089010 	ori	t0,t0,0x9010
bfc01260:	24090012 	li	t1,18
bfc01264:	01288006 	srlv	s0,t0,t1
bfc01268:	24123448 	li	s2,13384
bfc0126c:	16120400 	bne	s0,s2,bfc02270 <inst_error>
bfc01270:	00000000 	nop
bfc01274:	3c080a60 	lui	t0,0xa60
bfc01278:	350829d0 	ori	t0,t0,0x29d0
bfc0127c:	24090012 	li	t1,18
bfc01280:	01288006 	srlv	s0,t0,t1
bfc01284:	24120298 	li	s2,664
bfc01288:	161203f9 	bne	s0,s2,bfc02270 <inst_error>
bfc0128c:	00000000 	nop
bfc01290:	3c08ea33 	lui	t0,0xea33
bfc01294:	350867e0 	ori	t0,t0,0x67e0
bfc01298:	2409001a 	li	t1,26
bfc0129c:	01288006 	srlv	s0,t0,t1
bfc012a0:	2412003a 	li	s2,58
bfc012a4:	161203f2 	bne	s0,s2,bfc02270 <inst_error>
bfc012a8:	00000000 	nop
bfc012ac:	3c083d0f 	lui	t0,0x3d0f
bfc012b0:	3508bdf8 	ori	t0,t0,0xbdf8
bfc012b4:	2409001a 	li	t1,26
bfc012b8:	01288006 	srlv	s0,t0,t1
bfc012bc:	2412000f 	li	s2,15
bfc012c0:	161203eb 	bne	s0,s2,bfc02270 <inst_error>
bfc012c4:	00000000 	nop
bfc012c8:	3c08d4f0 	lui	t0,0xd4f0
bfc012cc:	35083338 	ori	t0,t0,0x3338
bfc012d0:	24090011 	li	t1,17
bfc012d4:	01288006 	srlv	s0,t0,t1
bfc012d8:	24126a78 	li	s2,27256
bfc012dc:	161203e4 	bne	s0,s2,bfc02270 <inst_error>
bfc012e0:	00000000 	nop
bfc012e4:	3c08af91 	lui	t0,0xaf91
bfc012e8:	3508e4e2 	ori	t0,t0,0xe4e2
bfc012ec:	24090010 	li	t1,16
bfc012f0:	01288006 	srlv	s0,t0,t1
bfc012f4:	3412af91 	li	s2,0xaf91
bfc012f8:	161203dd 	bne	s0,s2,bfc02270 <inst_error>
bfc012fc:	00000000 	nop
bfc01300:	3c0831db 	lui	t0,0x31db
bfc01304:	35082480 	ori	t0,t0,0x2480
bfc01308:	24090014 	li	t1,20
bfc0130c:	01288006 	srlv	s0,t0,t1
bfc01310:	2412031d 	li	s2,797
bfc01314:	161203d6 	bne	s0,s2,bfc02270 <inst_error>
bfc01318:	00000000 	nop
bfc0131c:	3c0860d8 	lui	t0,0x60d8
bfc01320:	3508d970 	ori	t0,t0,0xd970
bfc01324:	2409000f 	li	t1,15
bfc01328:	01288006 	srlv	s0,t0,t1
bfc0132c:	3412c1b1 	li	s2,0xc1b1
bfc01330:	161203cf 	bne	s0,s2,bfc02270 <inst_error>
bfc01334:	00000000 	nop
bfc01338:	3c0829c7 	lui	t0,0x29c7
bfc0133c:	35081a40 	ori	t0,t0,0x1a40
bfc01340:	2409000c 	li	t1,12
bfc01344:	01288006 	srlv	s0,t0,t1
bfc01348:	3c120002 	lui	s2,0x2
bfc0134c:	36529c71 	ori	s2,s2,0x9c71
bfc01350:	161203c7 	bne	s0,s2,bfc02270 <inst_error>
bfc01354:	00000000 	nop
bfc01358:	3c082a3a 	lui	t0,0x2a3a
bfc0135c:	35089780 	ori	t0,t0,0x9780
bfc01360:	24090001 	li	t1,1
bfc01364:	01288006 	srlv	s0,t0,t1
bfc01368:	3c12151d 	lui	s2,0x151d
bfc0136c:	36524bc0 	ori	s2,s2,0x4bc0
bfc01370:	161203bf 	bne	s0,s2,bfc02270 <inst_error>
bfc01374:	00000000 	nop
bfc01378:	3c084aad 	lui	t0,0x4aad
bfc0137c:	3508ca7a 	ori	t0,t0,0xca7a
bfc01380:	24090008 	li	t1,8
bfc01384:	01288006 	srlv	s0,t0,t1
bfc01388:	3c12004a 	lui	s2,0x4a
bfc0138c:	3652adca 	ori	s2,s2,0xadca
bfc01390:	161203b7 	bne	s0,s2,bfc02270 <inst_error>
bfc01394:	00000000 	nop
bfc01398:	3c087a22 	lui	t0,0x7a22
bfc0139c:	35082e4c 	ori	t0,t0,0x2e4c
bfc013a0:	2409000d 	li	t1,13
bfc013a4:	01288006 	srlv	s0,t0,t1
bfc013a8:	3c120003 	lui	s2,0x3
bfc013ac:	3652d111 	ori	s2,s2,0xd111
bfc013b0:	161203af 	bne	s0,s2,bfc02270 <inst_error>
bfc013b4:	00000000 	nop
bfc013b8:	3c086a91 	lui	t0,0x6a91
bfc013bc:	35081ac0 	ori	t0,t0,0x1ac0
bfc013c0:	2409000c 	li	t1,12
bfc013c4:	01288006 	srlv	s0,t0,t1
bfc013c8:	3c120006 	lui	s2,0x6
bfc013cc:	3652a911 	ori	s2,s2,0xa911
bfc013d0:	161203a7 	bne	s0,s2,bfc02270 <inst_error>
bfc013d4:	00000000 	nop
bfc013d8:	3c088dd4 	lui	t0,0x8dd4
bfc013dc:	3508eccc 	ori	t0,t0,0xeccc
bfc013e0:	2409000e 	li	t1,14
bfc013e4:	01288006 	srlv	s0,t0,t1
bfc013e8:	3c120002 	lui	s2,0x2
bfc013ec:	36523753 	ori	s2,s2,0x3753
bfc013f0:	1612039f 	bne	s0,s2,bfc02270 <inst_error>
bfc013f4:	00000000 	nop
bfc013f8:	3c0867a3 	lui	t0,0x67a3
bfc013fc:	35081abb 	ori	t0,t0,0x1abb
bfc01400:	24090019 	li	t1,25
bfc01404:	01288006 	srlv	s0,t0,t1
bfc01408:	24120033 	li	s2,51
bfc0140c:	16120398 	bne	s0,s2,bfc02270 <inst_error>
bfc01410:	00000000 	nop
bfc01414:	3c08d966 	lui	t0,0xd966
bfc01418:	350875fa 	ori	t0,t0,0x75fa
bfc0141c:	24090014 	li	t1,20
bfc01420:	01288006 	srlv	s0,t0,t1
bfc01424:	24120d96 	li	s2,3478
bfc01428:	16120391 	bne	s0,s2,bfc02270 <inst_error>
bfc0142c:	00000000 	nop
bfc01430:	3c085111 	lui	t0,0x5111
bfc01434:	35084399 	ori	t0,t0,0x4399
bfc01438:	24090011 	li	t1,17
bfc0143c:	01288006 	srlv	s0,t0,t1
bfc01440:	24122888 	li	s2,10376
bfc01444:	1612038a 	bne	s0,s2,bfc02270 <inst_error>
bfc01448:	00000000 	nop
bfc0144c:	3c08b22b 	lui	t0,0xb22b
bfc01450:	3508a180 	ori	t0,t0,0xa180
bfc01454:	2409001f 	li	t1,31
bfc01458:	01288006 	srlv	s0,t0,t1
bfc0145c:	24120001 	li	s2,1
bfc01460:	16120383 	bne	s0,s2,bfc02270 <inst_error>
bfc01464:	00000000 	nop
bfc01468:	3c08041e 	lui	t0,0x41e
bfc0146c:	35084880 	ori	t0,t0,0x4880
bfc01470:	24090008 	li	t1,8
bfc01474:	01288006 	srlv	s0,t0,t1
bfc01478:	3c120004 	lui	s2,0x4
bfc0147c:	36521e48 	ori	s2,s2,0x1e48
bfc01480:	1612037b 	bne	s0,s2,bfc02270 <inst_error>
bfc01484:	00000000 	nop
bfc01488:	3c08e510 	lui	t0,0xe510
bfc0148c:	350845f5 	ori	t0,t0,0x45f5
bfc01490:	24090003 	li	t1,3
bfc01494:	01288006 	srlv	s0,t0,t1
bfc01498:	3c121ca2 	lui	s2,0x1ca2
bfc0149c:	365208be 	ori	s2,s2,0x8be
bfc014a0:	16120373 	bne	s0,s2,bfc02270 <inst_error>
bfc014a4:	00000000 	nop
bfc014a8:	3c0869e0 	lui	t0,0x69e0
bfc014ac:	3508a190 	ori	t0,t0,0xa190
bfc014b0:	2409000e 	li	t1,14
bfc014b4:	01288006 	srlv	s0,t0,t1
bfc014b8:	3c120001 	lui	s2,0x1
bfc014bc:	3652a782 	ori	s2,s2,0xa782
bfc014c0:	1612036b 	bne	s0,s2,bfc02270 <inst_error>
bfc014c4:	00000000 	nop
bfc014c8:	3c082f79 	lui	t0,0x2f79
bfc014cc:	35083408 	ori	t0,t0,0x3408
bfc014d0:	24090015 	li	t1,21
bfc014d4:	01288006 	srlv	s0,t0,t1
bfc014d8:	2412017b 	li	s2,379
bfc014dc:	16120364 	bne	s0,s2,bfc02270 <inst_error>
bfc014e0:	00000000 	nop
bfc014e4:	3c080396 	lui	t0,0x396
bfc014e8:	35084170 	ori	t0,t0,0x4170
bfc014ec:	2409000f 	li	t1,15
bfc014f0:	01288006 	srlv	s0,t0,t1
bfc014f4:	2412072c 	li	s2,1836
bfc014f8:	1612035d 	bne	s0,s2,bfc02270 <inst_error>
bfc014fc:	00000000 	nop
bfc01500:	3c0859f7 	lui	t0,0x59f7
bfc01504:	3508beb0 	ori	t0,t0,0xbeb0
bfc01508:	24090009 	li	t1,9
bfc0150c:	01288006 	srlv	s0,t0,t1
bfc01510:	3c12002c 	lui	s2,0x2c
bfc01514:	3652fbdf 	ori	s2,s2,0xfbdf
bfc01518:	16120355 	bne	s0,s2,bfc02270 <inst_error>
bfc0151c:	00000000 	nop
bfc01520:	3c08d285 	lui	t0,0xd285
bfc01524:	35083e50 	ori	t0,t0,0x3e50
bfc01528:	2409000a 	li	t1,10
bfc0152c:	01288006 	srlv	s0,t0,t1
bfc01530:	3c120034 	lui	s2,0x34
bfc01534:	3652a14f 	ori	s2,s2,0xa14f
bfc01538:	1612034d 	bne	s0,s2,bfc02270 <inst_error>
bfc0153c:	00000000 	nop
bfc01540:	3c082d74 	lui	t0,0x2d74
bfc01544:	3508a370 	ori	t0,t0,0xa370
bfc01548:	2409000a 	li	t1,10
bfc0154c:	01288006 	srlv	s0,t0,t1
bfc01550:	3c12000b 	lui	s2,0xb
bfc01554:	36525d28 	ori	s2,s2,0x5d28
bfc01558:	16120345 	bne	s0,s2,bfc02270 <inst_error>
bfc0155c:	00000000 	nop
bfc01560:	3c084c47 	lui	t0,0x4c47
bfc01564:	3508414d 	ori	t0,t0,0x414d
bfc01568:	24090006 	li	t1,6
bfc0156c:	01288006 	srlv	s0,t0,t1
bfc01570:	3c120131 	lui	s2,0x131
bfc01574:	36521d05 	ori	s2,s2,0x1d05
bfc01578:	1612033d 	bne	s0,s2,bfc02270 <inst_error>
bfc0157c:	00000000 	nop
bfc01580:	3c08b925 	lui	t0,0xb925
bfc01584:	35087506 	ori	t0,t0,0x7506
bfc01588:	24090007 	li	t1,7
bfc0158c:	01288006 	srlv	s0,t0,t1
bfc01590:	3c120172 	lui	s2,0x172
bfc01594:	36524aea 	ori	s2,s2,0x4aea
bfc01598:	16120335 	bne	s0,s2,bfc02270 <inst_error>
bfc0159c:	00000000 	nop
bfc015a0:	3c08103a 	lui	t0,0x103a
bfc015a4:	350826d0 	ori	t0,t0,0x26d0
bfc015a8:	24090008 	li	t1,8
bfc015ac:	01288006 	srlv	s0,t0,t1
bfc015b0:	3c120010 	lui	s2,0x10
bfc015b4:	36523a26 	ori	s2,s2,0x3a26
bfc015b8:	1612032d 	bne	s0,s2,bfc02270 <inst_error>
bfc015bc:	00000000 	nop
bfc015c0:	3c083f7d 	lui	t0,0x3f7d
bfc015c4:	3508e000 	ori	t0,t0,0xe000
bfc015c8:	24090018 	li	t1,24
bfc015cc:	01288006 	srlv	s0,t0,t1
bfc015d0:	2412003f 	li	s2,63
bfc015d4:	16120326 	bne	s0,s2,bfc02270 <inst_error>
bfc015d8:	00000000 	nop
bfc015dc:	3c087daa 	lui	t0,0x7daa
bfc015e0:	3508001c 	ori	t0,t0,0x1c
bfc015e4:	2409000c 	li	t1,12
bfc015e8:	01288006 	srlv	s0,t0,t1
bfc015ec:	3c120007 	lui	s2,0x7
bfc015f0:	3652daa0 	ori	s2,s2,0xdaa0
bfc015f4:	1612031e 	bne	s0,s2,bfc02270 <inst_error>
bfc015f8:	00000000 	nop
bfc015fc:	3c080a9c 	lui	t0,0xa9c
bfc01600:	35087fe0 	ori	t0,t0,0x7fe0
bfc01604:	2409000b 	li	t1,11
bfc01608:	01288006 	srlv	s0,t0,t1
bfc0160c:	3c120001 	lui	s2,0x1
bfc01610:	3652538f 	ori	s2,s2,0x538f
bfc01614:	16120316 	bne	s0,s2,bfc02270 <inst_error>
bfc01618:	00000000 	nop
bfc0161c:	3c0858b4 	lui	t0,0x58b4
bfc01620:	3508dba8 	ori	t0,t0,0xdba8
bfc01624:	24090013 	li	t1,19
bfc01628:	01288006 	srlv	s0,t0,t1
bfc0162c:	24120b16 	li	s2,2838
bfc01630:	1612030f 	bne	s0,s2,bfc02270 <inst_error>
bfc01634:	00000000 	nop
bfc01638:	3c08046a 	lui	t0,0x46a
bfc0163c:	3508da2c 	ori	t0,t0,0xda2c
bfc01640:	24090019 	li	t1,25
bfc01644:	01288006 	srlv	s0,t0,t1
bfc01648:	24120002 	li	s2,2
bfc0164c:	16120308 	bne	s0,s2,bfc02270 <inst_error>
bfc01650:	00000000 	nop
bfc01654:	3c088545 	lui	t0,0x8545
bfc01658:	3508d310 	ori	t0,t0,0xd310
bfc0165c:	2409000f 	li	t1,15
bfc01660:	01288006 	srlv	s0,t0,t1
bfc01664:	3c120001 	lui	s2,0x1
bfc01668:	36520a8b 	ori	s2,s2,0xa8b
bfc0166c:	16120300 	bne	s0,s2,bfc02270 <inst_error>
bfc01670:	00000000 	nop
bfc01674:	3c083297 	lui	t0,0x3297
bfc01678:	35085a30 	ori	t0,t0,0x5a30
bfc0167c:	24090011 	li	t1,17
bfc01680:	01288006 	srlv	s0,t0,t1
bfc01684:	2412194b 	li	s2,6475
bfc01688:	161202f9 	bne	s0,s2,bfc02270 <inst_error>
bfc0168c:	00000000 	nop
bfc01690:	3c080b73 	lui	t0,0xb73
bfc01694:	3508e91c 	ori	t0,t0,0xe91c
bfc01698:	2409000b 	li	t1,11
bfc0169c:	01288006 	srlv	s0,t0,t1
bfc016a0:	3c120001 	lui	s2,0x1
bfc016a4:	36526e7d 	ori	s2,s2,0x6e7d
bfc016a8:	161202f1 	bne	s0,s2,bfc02270 <inst_error>
bfc016ac:	00000000 	nop
bfc016b0:	3c082e90 	lui	t0,0x2e90
bfc016b4:	35088d07 	ori	t0,t0,0x8d07
bfc016b8:	24090011 	li	t1,17
bfc016bc:	01288006 	srlv	s0,t0,t1
bfc016c0:	24121748 	li	s2,5960
bfc016c4:	161202ea 	bne	s0,s2,bfc02270 <inst_error>
bfc016c8:	00000000 	nop
bfc016cc:	3c08bc6d 	lui	t0,0xbc6d
bfc016d0:	3508ec64 	ori	t0,t0,0xec64
bfc016d4:	2409001d 	li	t1,29
bfc016d8:	01288006 	srlv	s0,t0,t1
bfc016dc:	24120005 	li	s2,5
bfc016e0:	161202e3 	bne	s0,s2,bfc02270 <inst_error>
bfc016e4:	00000000 	nop
bfc016e8:	3c087fb0 	lui	t0,0x7fb0
bfc016ec:	35083886 	ori	t0,t0,0x3886
bfc016f0:	24090009 	li	t1,9
bfc016f4:	01288006 	srlv	s0,t0,t1
bfc016f8:	3c12003f 	lui	s2,0x3f
bfc016fc:	3652d81c 	ori	s2,s2,0xd81c
bfc01700:	161202db 	bne	s0,s2,bfc02270 <inst_error>
bfc01704:	00000000 	nop
bfc01708:	3c08b0e5 	lui	t0,0xb0e5
bfc0170c:	3508f6e4 	ori	t0,t0,0xf6e4
bfc01710:	24090006 	li	t1,6
bfc01714:	01288006 	srlv	s0,t0,t1
bfc01718:	3c1202c3 	lui	s2,0x2c3
bfc0171c:	365297db 	ori	s2,s2,0x97db
bfc01720:	161202d3 	bne	s0,s2,bfc02270 <inst_error>
bfc01724:	00000000 	nop
bfc01728:	3c084c15 	lui	t0,0x4c15
bfc0172c:	3508f2d5 	ori	t0,t0,0xf2d5
bfc01730:	2409001d 	li	t1,29
bfc01734:	01288006 	srlv	s0,t0,t1
bfc01738:	24120002 	li	s2,2
bfc0173c:	161202cc 	bne	s0,s2,bfc02270 <inst_error>
bfc01740:	00000000 	nop
bfc01744:	3c08cfe5 	lui	t0,0xcfe5
bfc01748:	35084c57 	ori	t0,t0,0x4c57
bfc0174c:	24090006 	li	t1,6
bfc01750:	01288006 	srlv	s0,t0,t1
bfc01754:	3c12033f 	lui	s2,0x33f
bfc01758:	36529531 	ori	s2,s2,0x9531
bfc0175c:	161202c4 	bne	s0,s2,bfc02270 <inst_error>
bfc01760:	00000000 	nop
bfc01764:	3c0816f9 	lui	t0,0x16f9
bfc01768:	3508a9d8 	ori	t0,t0,0xa9d8
bfc0176c:	24090000 	li	t1,0
bfc01770:	01288006 	srlv	s0,t0,t1
bfc01774:	3c1216f9 	lui	s2,0x16f9
bfc01778:	3652a9d8 	ori	s2,s2,0xa9d8
bfc0177c:	161202bc 	bne	s0,s2,bfc02270 <inst_error>
bfc01780:	00000000 	nop
bfc01784:	3c08338f 	lui	t0,0x338f
bfc01788:	3508a5cc 	ori	t0,t0,0xa5cc
bfc0178c:	24090000 	li	t1,0
bfc01790:	01288006 	srlv	s0,t0,t1
bfc01794:	3c12338f 	lui	s2,0x338f
bfc01798:	3652a5cc 	ori	s2,s2,0xa5cc
bfc0179c:	161202b4 	bne	s0,s2,bfc02270 <inst_error>
bfc017a0:	00000000 	nop
bfc017a4:	3c0822ea 	lui	t0,0x22ea
bfc017a8:	3508ec90 	ori	t0,t0,0xec90
bfc017ac:	24090000 	li	t1,0
bfc017b0:	01288006 	srlv	s0,t0,t1
bfc017b4:	3c1222ea 	lui	s2,0x22ea
bfc017b8:	3652ec90 	ori	s2,s2,0xec90
bfc017bc:	161202ac 	bne	s0,s2,bfc02270 <inst_error>
bfc017c0:	00000000 	nop
bfc017c4:	3c086dfb 	lui	t0,0x6dfb
bfc017c8:	35088ed4 	ori	t0,t0,0x8ed4
bfc017cc:	24090000 	li	t1,0
bfc017d0:	01288006 	srlv	s0,t0,t1
bfc017d4:	3c126dfb 	lui	s2,0x6dfb
bfc017d8:	36528ed4 	ori	s2,s2,0x8ed4
bfc017dc:	161202a4 	bne	s0,s2,bfc02270 <inst_error>
bfc017e0:	00000000 	nop
bfc017e4:	3c08d6b4 	lui	t0,0xd6b4
bfc017e8:	35080e56 	ori	t0,t0,0xe56
bfc017ec:	24090000 	li	t1,0
bfc017f0:	01288006 	srlv	s0,t0,t1
bfc017f4:	3c12d6b4 	lui	s2,0xd6b4
bfc017f8:	36520e56 	ori	s2,s2,0xe56
bfc017fc:	1612029c 	bne	s0,s2,bfc02270 <inst_error>
bfc01800:	00000000 	nop
bfc01804:	3c0814b5 	lui	t0,0x14b5
bfc01808:	35081bf3 	ori	t0,t0,0x1bf3
bfc0180c:	24090000 	li	t1,0
bfc01810:	01288006 	srlv	s0,t0,t1
bfc01814:	3c1214b5 	lui	s2,0x14b5
bfc01818:	36521bf3 	ori	s2,s2,0x1bf3
bfc0181c:	16120294 	bne	s0,s2,bfc02270 <inst_error>
bfc01820:	00000000 	nop
bfc01824:	3c081768 	lui	t0,0x1768
bfc01828:	35084810 	ori	t0,t0,0x4810
bfc0182c:	24090000 	li	t1,0
bfc01830:	01288006 	srlv	s0,t0,t1
bfc01834:	3c121768 	lui	s2,0x1768
bfc01838:	36524810 	ori	s2,s2,0x4810
bfc0183c:	1612028c 	bne	s0,s2,bfc02270 <inst_error>
bfc01840:	00000000 	nop
bfc01844:	3c080a95 	lui	t0,0xa95
bfc01848:	35085d3f 	ori	t0,t0,0x5d3f
bfc0184c:	24090000 	li	t1,0
bfc01850:	01288006 	srlv	s0,t0,t1
bfc01854:	3c120a95 	lui	s2,0xa95
bfc01858:	36525d3f 	ori	s2,s2,0x5d3f
bfc0185c:	16120284 	bne	s0,s2,bfc02270 <inst_error>
bfc01860:	00000000 	nop
bfc01864:	3c0854b6 	lui	t0,0x54b6
bfc01868:	35082ea0 	ori	t0,t0,0x2ea0
bfc0186c:	24090000 	li	t1,0
bfc01870:	01288006 	srlv	s0,t0,t1
bfc01874:	3c1254b6 	lui	s2,0x54b6
bfc01878:	36522ea0 	ori	s2,s2,0x2ea0
bfc0187c:	1612027c 	bne	s0,s2,bfc02270 <inst_error>
bfc01880:	00000000 	nop
bfc01884:	3c08e0f7 	lui	t0,0xe0f7
bfc01888:	3508e1a0 	ori	t0,t0,0xe1a0
bfc0188c:	24090000 	li	t1,0
bfc01890:	01288006 	srlv	s0,t0,t1
bfc01894:	3c12e0f7 	lui	s2,0xe0f7
bfc01898:	3652e1a0 	ori	s2,s2,0xe1a0
bfc0189c:	16120274 	bne	s0,s2,bfc02270 <inst_error>
bfc018a0:	00000000 	nop
bfc018a4:	3c0882b2 	lui	t0,0x82b2
bfc018a8:	35081d00 	ori	t0,t0,0x1d00
bfc018ac:	24090000 	li	t1,0
bfc018b0:	01288006 	srlv	s0,t0,t1
bfc018b4:	3c1282b2 	lui	s2,0x82b2
bfc018b8:	36521d00 	ori	s2,s2,0x1d00
bfc018bc:	1612026c 	bne	s0,s2,bfc02270 <inst_error>
bfc018c0:	00000000 	nop
bfc018c4:	3c0807a4 	lui	t0,0x7a4
bfc018c8:	35080684 	ori	t0,t0,0x684
bfc018cc:	24090000 	li	t1,0
bfc018d0:	01288006 	srlv	s0,t0,t1
bfc018d4:	3c1207a4 	lui	s2,0x7a4
bfc018d8:	36520684 	ori	s2,s2,0x684
bfc018dc:	16120264 	bne	s0,s2,bfc02270 <inst_error>
bfc018e0:	00000000 	nop
bfc018e4:	3c088c5a 	lui	t0,0x8c5a
bfc018e8:	3508ce60 	ori	t0,t0,0xce60
bfc018ec:	24090000 	li	t1,0
bfc018f0:	01288006 	srlv	s0,t0,t1
bfc018f4:	3c128c5a 	lui	s2,0x8c5a
bfc018f8:	3652ce60 	ori	s2,s2,0xce60
bfc018fc:	1612025c 	bne	s0,s2,bfc02270 <inst_error>
bfc01900:	00000000 	nop
bfc01904:	3c08ecdb 	lui	t0,0xecdb
bfc01908:	35083fa0 	ori	t0,t0,0x3fa0
bfc0190c:	24090000 	li	t1,0
bfc01910:	01288006 	srlv	s0,t0,t1
bfc01914:	3c12ecdb 	lui	s2,0xecdb
bfc01918:	36523fa0 	ori	s2,s2,0x3fa0
bfc0191c:	16120254 	bne	s0,s2,bfc02270 <inst_error>
bfc01920:	00000000 	nop
bfc01924:	3c08a23b 	lui	t0,0xa23b
bfc01928:	3508f234 	ori	t0,t0,0xf234
bfc0192c:	24090000 	li	t1,0
bfc01930:	01288006 	srlv	s0,t0,t1
bfc01934:	3c12a23b 	lui	s2,0xa23b
bfc01938:	3652f234 	ori	s2,s2,0xf234
bfc0193c:	1612024c 	bne	s0,s2,bfc02270 <inst_error>
bfc01940:	00000000 	nop
bfc01944:	3c088e3c 	lui	t0,0x8e3c
bfc01948:	3508f02c 	ori	t0,t0,0xf02c
bfc0194c:	24090000 	li	t1,0
bfc01950:	01288006 	srlv	s0,t0,t1
bfc01954:	3c128e3c 	lui	s2,0x8e3c
bfc01958:	3652f02c 	ori	s2,s2,0xf02c
bfc0195c:	16120244 	bne	s0,s2,bfc02270 <inst_error>
bfc01960:	00000000 	nop
bfc01964:	3c08b891 	lui	t0,0xb891
bfc01968:	3508211c 	ori	t0,t0,0x211c
bfc0196c:	24090000 	li	t1,0
bfc01970:	01288006 	srlv	s0,t0,t1
bfc01974:	3c12b891 	lui	s2,0xb891
bfc01978:	3652211c 	ori	s2,s2,0x211c
bfc0197c:	1612023c 	bne	s0,s2,bfc02270 <inst_error>
bfc01980:	00000000 	nop
bfc01984:	3c08b82b 	lui	t0,0xb82b
bfc01988:	350861ae 	ori	t0,t0,0x61ae
bfc0198c:	24090000 	li	t1,0
bfc01990:	01288006 	srlv	s0,t0,t1
bfc01994:	3c12b82b 	lui	s2,0xb82b
bfc01998:	365261ae 	ori	s2,s2,0x61ae
bfc0199c:	16120234 	bne	s0,s2,bfc02270 <inst_error>
bfc019a0:	00000000 	nop
bfc019a4:	3c08eeda 	lui	t0,0xeeda
bfc019a8:	3508c8b0 	ori	t0,t0,0xc8b0
bfc019ac:	24090000 	li	t1,0
bfc019b0:	01288006 	srlv	s0,t0,t1
bfc019b4:	3c12eeda 	lui	s2,0xeeda
bfc019b8:	3652c8b0 	ori	s2,s2,0xc8b0
bfc019bc:	1612022c 	bne	s0,s2,bfc02270 <inst_error>
bfc019c0:	00000000 	nop
bfc019c4:	3c086e0a 	lui	t0,0x6e0a
bfc019c8:	3508332c 	ori	t0,t0,0x332c
bfc019cc:	24090000 	li	t1,0
bfc019d0:	01288006 	srlv	s0,t0,t1
bfc019d4:	3c126e0a 	lui	s2,0x6e0a
bfc019d8:	3652332c 	ori	s2,s2,0x332c
bfc019dc:	16120224 	bne	s0,s2,bfc02270 <inst_error>
bfc019e0:	00000000 	nop
bfc019e4:	3c086835 	lui	t0,0x6835
bfc019e8:	3508b8a6 	ori	t0,t0,0xb8a6
bfc019ec:	24090000 	li	t1,0
bfc019f0:	01288006 	srlv	s0,t0,t1
bfc019f4:	3c126835 	lui	s2,0x6835
bfc019f8:	3652b8a6 	ori	s2,s2,0xb8a6
bfc019fc:	1612021c 	bne	s0,s2,bfc02270 <inst_error>
bfc01a00:	00000000 	nop
bfc01a04:	3c08f259 	lui	t0,0xf259
bfc01a08:	35080aee 	ori	t0,t0,0xaee
bfc01a0c:	24090000 	li	t1,0
bfc01a10:	01288006 	srlv	s0,t0,t1
bfc01a14:	3c12f259 	lui	s2,0xf259
bfc01a18:	36520aee 	ori	s2,s2,0xaee
bfc01a1c:	16120214 	bne	s0,s2,bfc02270 <inst_error>
bfc01a20:	00000000 	nop
bfc01a24:	3c086efb 	lui	t0,0x6efb
bfc01a28:	3508f7c4 	ori	t0,t0,0xf7c4
bfc01a2c:	24090000 	li	t1,0
bfc01a30:	01288006 	srlv	s0,t0,t1
bfc01a34:	3c126efb 	lui	s2,0x6efb
bfc01a38:	3652f7c4 	ori	s2,s2,0xf7c4
bfc01a3c:	1612020c 	bne	s0,s2,bfc02270 <inst_error>
bfc01a40:	00000000 	nop
bfc01a44:	3c087beb 	lui	t0,0x7beb
bfc01a48:	35082ec8 	ori	t0,t0,0x2ec8
bfc01a4c:	24090000 	li	t1,0
bfc01a50:	01288006 	srlv	s0,t0,t1
bfc01a54:	3c127beb 	lui	s2,0x7beb
bfc01a58:	36522ec8 	ori	s2,s2,0x2ec8
bfc01a5c:	16120204 	bne	s0,s2,bfc02270 <inst_error>
bfc01a60:	00000000 	nop
bfc01a64:	3c080556 	lui	t0,0x556
bfc01a68:	3508beb4 	ori	t0,t0,0xbeb4
bfc01a6c:	24090000 	li	t1,0
bfc01a70:	01288006 	srlv	s0,t0,t1
bfc01a74:	3c120556 	lui	s2,0x556
bfc01a78:	3652beb4 	ori	s2,s2,0xbeb4
bfc01a7c:	161201fc 	bne	s0,s2,bfc02270 <inst_error>
bfc01a80:	00000000 	nop
bfc01a84:	3c082c01 	lui	t0,0x2c01
bfc01a88:	3508992b 	ori	t0,t0,0x992b
bfc01a8c:	24090000 	li	t1,0
bfc01a90:	01288006 	srlv	s0,t0,t1
bfc01a94:	3c122c01 	lui	s2,0x2c01
bfc01a98:	3652992b 	ori	s2,s2,0x992b
bfc01a9c:	161201f4 	bne	s0,s2,bfc02270 <inst_error>
bfc01aa0:	00000000 	nop
bfc01aa4:	3c08d457 	lui	t0,0xd457
bfc01aa8:	35082cb0 	ori	t0,t0,0x2cb0
bfc01aac:	24090000 	li	t1,0
bfc01ab0:	01288006 	srlv	s0,t0,t1
bfc01ab4:	3c12d457 	lui	s2,0xd457
bfc01ab8:	36522cb0 	ori	s2,s2,0x2cb0
bfc01abc:	161201ec 	bne	s0,s2,bfc02270 <inst_error>
bfc01ac0:	00000000 	nop
bfc01ac4:	3c088568 	lui	t0,0x8568
bfc01ac8:	350805f3 	ori	t0,t0,0x5f3
bfc01acc:	24090000 	li	t1,0
bfc01ad0:	01288006 	srlv	s0,t0,t1
bfc01ad4:	3c128568 	lui	s2,0x8568
bfc01ad8:	365205f3 	ori	s2,s2,0x5f3
bfc01adc:	161201e4 	bne	s0,s2,bfc02270 <inst_error>
bfc01ae0:	00000000 	nop
bfc01ae4:	3c086d73 	lui	t0,0x6d73
bfc01ae8:	35088598 	ori	t0,t0,0x8598
bfc01aec:	24090000 	li	t1,0
bfc01af0:	01288006 	srlv	s0,t0,t1
bfc01af4:	3c126d73 	lui	s2,0x6d73
bfc01af8:	36528598 	ori	s2,s2,0x8598
bfc01afc:	161201dc 	bne	s0,s2,bfc02270 <inst_error>
bfc01b00:	00000000 	nop
bfc01b04:	3c0811bd 	lui	t0,0x11bd
bfc01b08:	35084e60 	ori	t0,t0,0x4e60
bfc01b0c:	24090000 	li	t1,0
bfc01b10:	01288006 	srlv	s0,t0,t1
bfc01b14:	3c1211bd 	lui	s2,0x11bd
bfc01b18:	36524e60 	ori	s2,s2,0x4e60
bfc01b1c:	161201d4 	bne	s0,s2,bfc02270 <inst_error>
bfc01b20:	00000000 	nop
bfc01b24:	3c089fa6 	lui	t0,0x9fa6
bfc01b28:	3508c1f1 	ori	t0,t0,0xc1f1
bfc01b2c:	24090000 	li	t1,0
bfc01b30:	01288006 	srlv	s0,t0,t1
bfc01b34:	3c129fa6 	lui	s2,0x9fa6
bfc01b38:	3652c1f1 	ori	s2,s2,0xc1f1
bfc01b3c:	161201cc 	bne	s0,s2,bfc02270 <inst_error>
bfc01b40:	00000000 	nop
bfc01b44:	3c08be3e 	lui	t0,0xbe3e
bfc01b48:	350884c0 	ori	t0,t0,0x84c0
bfc01b4c:	24090000 	li	t1,0
bfc01b50:	01288006 	srlv	s0,t0,t1
bfc01b54:	3c12be3e 	lui	s2,0xbe3e
bfc01b58:	365284c0 	ori	s2,s2,0x84c0
bfc01b5c:	161201c4 	bne	s0,s2,bfc02270 <inst_error>
bfc01b60:	00000000 	nop
bfc01b64:	3c08c3d9 	lui	t0,0xc3d9
bfc01b68:	3508dee8 	ori	t0,t0,0xdee8
bfc01b6c:	24090000 	li	t1,0
bfc01b70:	01288006 	srlv	s0,t0,t1
bfc01b74:	3c12c3d9 	lui	s2,0xc3d9
bfc01b78:	3652dee8 	ori	s2,s2,0xdee8
bfc01b7c:	161201bc 	bne	s0,s2,bfc02270 <inst_error>
bfc01b80:	00000000 	nop
bfc01b84:	3c08bb18 	lui	t0,0xbb18
bfc01b88:	350865e0 	ori	t0,t0,0x65e0
bfc01b8c:	24090000 	li	t1,0
bfc01b90:	01288006 	srlv	s0,t0,t1
bfc01b94:	3c12bb18 	lui	s2,0xbb18
bfc01b98:	365265e0 	ori	s2,s2,0x65e0
bfc01b9c:	161201b4 	bne	s0,s2,bfc02270 <inst_error>
bfc01ba0:	00000000 	nop
bfc01ba4:	3c08c9b2 	lui	t0,0xc9b2
bfc01ba8:	35088d24 	ori	t0,t0,0x8d24
bfc01bac:	24090000 	li	t1,0
bfc01bb0:	01288006 	srlv	s0,t0,t1
bfc01bb4:	3c12c9b2 	lui	s2,0xc9b2
bfc01bb8:	36528d24 	ori	s2,s2,0x8d24
bfc01bbc:	161201ac 	bne	s0,s2,bfc02270 <inst_error>
bfc01bc0:	00000000 	nop
bfc01bc4:	3c089bc8 	lui	t0,0x9bc8
bfc01bc8:	3508699e 	ori	t0,t0,0x699e
bfc01bcc:	24090000 	li	t1,0
bfc01bd0:	01288006 	srlv	s0,t0,t1
bfc01bd4:	3c129bc8 	lui	s2,0x9bc8
bfc01bd8:	3652699e 	ori	s2,s2,0x699e
bfc01bdc:	161201a4 	bne	s0,s2,bfc02270 <inst_error>
bfc01be0:	00000000 	nop
bfc01be4:	3c083612 	lui	t0,0x3612
bfc01be8:	3508ad00 	ori	t0,t0,0xad00
bfc01bec:	24090000 	li	t1,0
bfc01bf0:	01288006 	srlv	s0,t0,t1
bfc01bf4:	3c123612 	lui	s2,0x3612
bfc01bf8:	3652ad00 	ori	s2,s2,0xad00
bfc01bfc:	1612019c 	bne	s0,s2,bfc02270 <inst_error>
bfc01c00:	00000000 	nop
bfc01c04:	3c0803ae 	lui	t0,0x3ae
bfc01c08:	35087cd4 	ori	t0,t0,0x7cd4
bfc01c0c:	24090000 	li	t1,0
bfc01c10:	01288006 	srlv	s0,t0,t1
bfc01c14:	3c1203ae 	lui	s2,0x3ae
bfc01c18:	36527cd4 	ori	s2,s2,0x7cd4
bfc01c1c:	16120194 	bne	s0,s2,bfc02270 <inst_error>
bfc01c20:	00000000 	nop
bfc01c24:	3c083449 	lui	t0,0x3449
bfc01c28:	35084370 	ori	t0,t0,0x4370
bfc01c2c:	24090000 	li	t1,0
bfc01c30:	01288006 	srlv	s0,t0,t1
bfc01c34:	3c123449 	lui	s2,0x3449
bfc01c38:	36524370 	ori	s2,s2,0x4370
bfc01c3c:	1612018c 	bne	s0,s2,bfc02270 <inst_error>
bfc01c40:	00000000 	nop
bfc01c44:	3c08b331 	lui	t0,0xb331
bfc01c48:	35080868 	ori	t0,t0,0x868
bfc01c4c:	24090000 	li	t1,0
bfc01c50:	01288006 	srlv	s0,t0,t1
bfc01c54:	3c12b331 	lui	s2,0xb331
bfc01c58:	36520868 	ori	s2,s2,0x868
bfc01c5c:	16120184 	bne	s0,s2,bfc02270 <inst_error>
bfc01c60:	00000000 	nop
bfc01c64:	3c0868bb 	lui	t0,0x68bb
bfc01c68:	35083ae8 	ori	t0,t0,0x3ae8
bfc01c6c:	24090000 	li	t1,0
bfc01c70:	01288006 	srlv	s0,t0,t1
bfc01c74:	3c1268bb 	lui	s2,0x68bb
bfc01c78:	36523ae8 	ori	s2,s2,0x3ae8
bfc01c7c:	1612017c 	bne	s0,s2,bfc02270 <inst_error>
bfc01c80:	00000000 	nop
bfc01c84:	3c086599 	lui	t0,0x6599
bfc01c88:	35080e38 	ori	t0,t0,0xe38
bfc01c8c:	24090000 	li	t1,0
bfc01c90:	01288006 	srlv	s0,t0,t1
bfc01c94:	3c126599 	lui	s2,0x6599
bfc01c98:	36520e38 	ori	s2,s2,0xe38
bfc01c9c:	16120174 	bne	s0,s2,bfc02270 <inst_error>
bfc01ca0:	00000000 	nop
bfc01ca4:	3c08a2e3 	lui	t0,0xa2e3
bfc01ca8:	35086ffb 	ori	t0,t0,0x6ffb
bfc01cac:	24090000 	li	t1,0
bfc01cb0:	01288006 	srlv	s0,t0,t1
bfc01cb4:	3c12a2e3 	lui	s2,0xa2e3
bfc01cb8:	36526ffb 	ori	s2,s2,0x6ffb
bfc01cbc:	1612016c 	bne	s0,s2,bfc02270 <inst_error>
bfc01cc0:	00000000 	nop
bfc01cc4:	3c0819c5 	lui	t0,0x19c5
bfc01cc8:	3508302d 	ori	t0,t0,0x302d
bfc01ccc:	24090000 	li	t1,0
bfc01cd0:	01288006 	srlv	s0,t0,t1
bfc01cd4:	3c1219c5 	lui	s2,0x19c5
bfc01cd8:	3652302d 	ori	s2,s2,0x302d
bfc01cdc:	16120164 	bne	s0,s2,bfc02270 <inst_error>
bfc01ce0:	00000000 	nop
bfc01ce4:	3c083658 	lui	t0,0x3658
bfc01ce8:	35081a4d 	ori	t0,t0,0x1a4d
bfc01cec:	24090000 	li	t1,0
bfc01cf0:	01288006 	srlv	s0,t0,t1
bfc01cf4:	3c123658 	lui	s2,0x3658
bfc01cf8:	36521a4d 	ori	s2,s2,0x1a4d
bfc01cfc:	1612015c 	bne	s0,s2,bfc02270 <inst_error>
bfc01d00:	00000000 	nop
bfc01d04:	3c08a2d1 	lui	t0,0xa2d1
bfc01d08:	350883b0 	ori	t0,t0,0x83b0
bfc01d0c:	24090000 	li	t1,0
bfc01d10:	01288006 	srlv	s0,t0,t1
bfc01d14:	3c12a2d1 	lui	s2,0xa2d1
bfc01d18:	365283b0 	ori	s2,s2,0x83b0
bfc01d1c:	16120154 	bne	s0,s2,bfc02270 <inst_error>
bfc01d20:	00000000 	nop
bfc01d24:	3c082bcf 	lui	t0,0x2bcf
bfc01d28:	3508e02c 	ori	t0,t0,0xe02c
bfc01d2c:	24090000 	li	t1,0
bfc01d30:	01288006 	srlv	s0,t0,t1
bfc01d34:	3c122bcf 	lui	s2,0x2bcf
bfc01d38:	3652e02c 	ori	s2,s2,0xe02c
bfc01d3c:	1612014c 	bne	s0,s2,bfc02270 <inst_error>
bfc01d40:	00000000 	nop
bfc01d44:	3c0818d4 	lui	t0,0x18d4
bfc01d48:	3508683c 	ori	t0,t0,0x683c
bfc01d4c:	24090000 	li	t1,0
bfc01d50:	01288006 	srlv	s0,t0,t1
bfc01d54:	3c1218d4 	lui	s2,0x18d4
bfc01d58:	3652683c 	ori	s2,s2,0x683c
bfc01d5c:	16120144 	bne	s0,s2,bfc02270 <inst_error>
bfc01d60:	00000000 	nop
bfc01d64:	3c086619 	lui	t0,0x6619
bfc01d68:	35088182 	ori	t0,t0,0x8182
bfc01d6c:	24090000 	li	t1,0
bfc01d70:	01288006 	srlv	s0,t0,t1
bfc01d74:	3c126619 	lui	s2,0x6619
bfc01d78:	36528182 	ori	s2,s2,0x8182
bfc01d7c:	1612013c 	bne	s0,s2,bfc02270 <inst_error>
bfc01d80:	00000000 	nop
bfc01d84:	3c084adf 	lui	t0,0x4adf
bfc01d88:	3508f964 	ori	t0,t0,0xf964
bfc01d8c:	24090000 	li	t1,0
bfc01d90:	01288006 	srlv	s0,t0,t1
bfc01d94:	3c124adf 	lui	s2,0x4adf
bfc01d98:	3652f964 	ori	s2,s2,0xf964
bfc01d9c:	16120134 	bne	s0,s2,bfc02270 <inst_error>
bfc01da0:	00000000 	nop
bfc01da4:	24080000 	li	t0,0
bfc01da8:	2409000a 	li	t1,10
bfc01dac:	01288006 	srlv	s0,t0,t1
bfc01db0:	24120000 	li	s2,0
bfc01db4:	1612012e 	bne	s0,s2,bfc02270 <inst_error>
bfc01db8:	00000000 	nop
bfc01dbc:	24080000 	li	t0,0
bfc01dc0:	2409001d 	li	t1,29
bfc01dc4:	01288006 	srlv	s0,t0,t1
bfc01dc8:	24120000 	li	s2,0
bfc01dcc:	16120128 	bne	s0,s2,bfc02270 <inst_error>
bfc01dd0:	00000000 	nop
bfc01dd4:	24080000 	li	t0,0
bfc01dd8:	2409000d 	li	t1,13
bfc01ddc:	01288006 	srlv	s0,t0,t1
bfc01de0:	24120000 	li	s2,0
bfc01de4:	16120122 	bne	s0,s2,bfc02270 <inst_error>
bfc01de8:	00000000 	nop
bfc01dec:	24080000 	li	t0,0
bfc01df0:	2409000c 	li	t1,12
bfc01df4:	01288006 	srlv	s0,t0,t1
bfc01df8:	24120000 	li	s2,0
bfc01dfc:	1612011c 	bne	s0,s2,bfc02270 <inst_error>
bfc01e00:	00000000 	nop
bfc01e04:	24080000 	li	t0,0
bfc01e08:	24090003 	li	t1,3
bfc01e0c:	01288006 	srlv	s0,t0,t1
bfc01e10:	24120000 	li	s2,0
bfc01e14:	16120116 	bne	s0,s2,bfc02270 <inst_error>
bfc01e18:	00000000 	nop
bfc01e1c:	24080000 	li	t0,0
bfc01e20:	2409001d 	li	t1,29
bfc01e24:	01288006 	srlv	s0,t0,t1
bfc01e28:	24120000 	li	s2,0
bfc01e2c:	16120110 	bne	s0,s2,bfc02270 <inst_error>
bfc01e30:	00000000 	nop
bfc01e34:	24080000 	li	t0,0
bfc01e38:	24090006 	li	t1,6
bfc01e3c:	01288006 	srlv	s0,t0,t1
bfc01e40:	24120000 	li	s2,0
bfc01e44:	1612010a 	bne	s0,s2,bfc02270 <inst_error>
bfc01e48:	00000000 	nop
bfc01e4c:	24080000 	li	t0,0
bfc01e50:	24090014 	li	t1,20
bfc01e54:	01288006 	srlv	s0,t0,t1
bfc01e58:	24120000 	li	s2,0
bfc01e5c:	16120104 	bne	s0,s2,bfc02270 <inst_error>
bfc01e60:	00000000 	nop
bfc01e64:	24080000 	li	t0,0
bfc01e68:	2409001d 	li	t1,29
bfc01e6c:	01288006 	srlv	s0,t0,t1
bfc01e70:	24120000 	li	s2,0
bfc01e74:	161200fe 	bne	s0,s2,bfc02270 <inst_error>
bfc01e78:	00000000 	nop
bfc01e7c:	24080000 	li	t0,0
bfc01e80:	24090019 	li	t1,25
bfc01e84:	01288006 	srlv	s0,t0,t1
bfc01e88:	24120000 	li	s2,0
bfc01e8c:	161200f8 	bne	s0,s2,bfc02270 <inst_error>
bfc01e90:	00000000 	nop
bfc01e94:	24080000 	li	t0,0
bfc01e98:	24090018 	li	t1,24
bfc01e9c:	01288006 	srlv	s0,t0,t1
bfc01ea0:	24120000 	li	s2,0
bfc01ea4:	161200f2 	bne	s0,s2,bfc02270 <inst_error>
bfc01ea8:	00000000 	nop
bfc01eac:	24080000 	li	t0,0
bfc01eb0:	24090006 	li	t1,6
bfc01eb4:	01288006 	srlv	s0,t0,t1
bfc01eb8:	24120000 	li	s2,0
bfc01ebc:	161200ec 	bne	s0,s2,bfc02270 <inst_error>
bfc01ec0:	00000000 	nop
bfc01ec4:	24080000 	li	t0,0
bfc01ec8:	2409000a 	li	t1,10
bfc01ecc:	01288006 	srlv	s0,t0,t1
bfc01ed0:	24120000 	li	s2,0
bfc01ed4:	161200e6 	bne	s0,s2,bfc02270 <inst_error>
bfc01ed8:	00000000 	nop
bfc01edc:	24080000 	li	t0,0
bfc01ee0:	24090001 	li	t1,1
bfc01ee4:	01288006 	srlv	s0,t0,t1
bfc01ee8:	24120000 	li	s2,0
bfc01eec:	161200e0 	bne	s0,s2,bfc02270 <inst_error>
bfc01ef0:	00000000 	nop
bfc01ef4:	24080000 	li	t0,0
bfc01ef8:	2409000e 	li	t1,14
bfc01efc:	01288006 	srlv	s0,t0,t1
bfc01f00:	24120000 	li	s2,0
bfc01f04:	161200da 	bne	s0,s2,bfc02270 <inst_error>
bfc01f08:	00000000 	nop
bfc01f0c:	24080000 	li	t0,0
bfc01f10:	2409001f 	li	t1,31
bfc01f14:	01288006 	srlv	s0,t0,t1
bfc01f18:	24120000 	li	s2,0
bfc01f1c:	161200d4 	bne	s0,s2,bfc02270 <inst_error>
bfc01f20:	00000000 	nop
bfc01f24:	24080000 	li	t0,0
bfc01f28:	24090010 	li	t1,16
bfc01f2c:	01288006 	srlv	s0,t0,t1
bfc01f30:	24120000 	li	s2,0
bfc01f34:	161200ce 	bne	s0,s2,bfc02270 <inst_error>
bfc01f38:	00000000 	nop
bfc01f3c:	24080000 	li	t0,0
bfc01f40:	24090018 	li	t1,24
bfc01f44:	01288006 	srlv	s0,t0,t1
bfc01f48:	24120000 	li	s2,0
bfc01f4c:	161200c8 	bne	s0,s2,bfc02270 <inst_error>
bfc01f50:	00000000 	nop
bfc01f54:	24080000 	li	t0,0
bfc01f58:	24090005 	li	t1,5
bfc01f5c:	01288006 	srlv	s0,t0,t1
bfc01f60:	24120000 	li	s2,0
bfc01f64:	161200c2 	bne	s0,s2,bfc02270 <inst_error>
bfc01f68:	00000000 	nop
bfc01f6c:	24080000 	li	t0,0
bfc01f70:	24090003 	li	t1,3
bfc01f74:	01288006 	srlv	s0,t0,t1
bfc01f78:	24120000 	li	s2,0
bfc01f7c:	161200bc 	bne	s0,s2,bfc02270 <inst_error>
bfc01f80:	00000000 	nop
bfc01f84:	24080000 	li	t0,0
bfc01f88:	24090013 	li	t1,19
bfc01f8c:	01288006 	srlv	s0,t0,t1
bfc01f90:	24120000 	li	s2,0
bfc01f94:	161200b6 	bne	s0,s2,bfc02270 <inst_error>
bfc01f98:	00000000 	nop
bfc01f9c:	24080000 	li	t0,0
bfc01fa0:	24090015 	li	t1,21
bfc01fa4:	01288006 	srlv	s0,t0,t1
bfc01fa8:	24120000 	li	s2,0
bfc01fac:	161200b0 	bne	s0,s2,bfc02270 <inst_error>
bfc01fb0:	00000000 	nop
bfc01fb4:	24080000 	li	t0,0
bfc01fb8:	2409000b 	li	t1,11
bfc01fbc:	01288006 	srlv	s0,t0,t1
bfc01fc0:	24120000 	li	s2,0
bfc01fc4:	161200aa 	bne	s0,s2,bfc02270 <inst_error>
bfc01fc8:	00000000 	nop
bfc01fcc:	24080000 	li	t0,0
bfc01fd0:	24090002 	li	t1,2
bfc01fd4:	01288006 	srlv	s0,t0,t1
bfc01fd8:	24120000 	li	s2,0
bfc01fdc:	161200a4 	bne	s0,s2,bfc02270 <inst_error>
bfc01fe0:	00000000 	nop
bfc01fe4:	24080000 	li	t0,0
bfc01fe8:	24090016 	li	t1,22
bfc01fec:	01288006 	srlv	s0,t0,t1
bfc01ff0:	24120000 	li	s2,0
bfc01ff4:	1612009e 	bne	s0,s2,bfc02270 <inst_error>
bfc01ff8:	00000000 	nop
bfc01ffc:	24080000 	li	t0,0
bfc02000:	24090000 	li	t1,0
bfc02004:	01288006 	srlv	s0,t0,t1
bfc02008:	24120000 	li	s2,0
bfc0200c:	16120098 	bne	s0,s2,bfc02270 <inst_error>
bfc02010:	00000000 	nop
bfc02014:	24080000 	li	t0,0
bfc02018:	24090008 	li	t1,8
bfc0201c:	01288006 	srlv	s0,t0,t1
bfc02020:	24120000 	li	s2,0
bfc02024:	16120092 	bne	s0,s2,bfc02270 <inst_error>
bfc02028:	00000000 	nop
bfc0202c:	24080000 	li	t0,0
bfc02030:	2409000a 	li	t1,10
bfc02034:	01288006 	srlv	s0,t0,t1
bfc02038:	24120000 	li	s2,0
bfc0203c:	1612008c 	bne	s0,s2,bfc02270 <inst_error>
bfc02040:	00000000 	nop
bfc02044:	24080000 	li	t0,0
bfc02048:	24090019 	li	t1,25
bfc0204c:	01288006 	srlv	s0,t0,t1
bfc02050:	24120000 	li	s2,0
bfc02054:	16120086 	bne	s0,s2,bfc02270 <inst_error>
bfc02058:	00000000 	nop
bfc0205c:	24080000 	li	t0,0
bfc02060:	24090007 	li	t1,7
bfc02064:	01288006 	srlv	s0,t0,t1
bfc02068:	24120000 	li	s2,0
bfc0206c:	16120080 	bne	s0,s2,bfc02270 <inst_error>
bfc02070:	00000000 	nop
bfc02074:	24080000 	li	t0,0
bfc02078:	24090015 	li	t1,21
bfc0207c:	01288006 	srlv	s0,t0,t1
bfc02080:	24120000 	li	s2,0
bfc02084:	1612007a 	bne	s0,s2,bfc02270 <inst_error>
bfc02088:	00000000 	nop
bfc0208c:	24080000 	li	t0,0
bfc02090:	24090006 	li	t1,6
bfc02094:	01288006 	srlv	s0,t0,t1
bfc02098:	24120000 	li	s2,0
bfc0209c:	16120074 	bne	s0,s2,bfc02270 <inst_error>
bfc020a0:	00000000 	nop
bfc020a4:	24080000 	li	t0,0
bfc020a8:	24090008 	li	t1,8
bfc020ac:	01288006 	srlv	s0,t0,t1
bfc020b0:	24120000 	li	s2,0
bfc020b4:	1612006e 	bne	s0,s2,bfc02270 <inst_error>
bfc020b8:	00000000 	nop
bfc020bc:	24080000 	li	t0,0
bfc020c0:	2409001d 	li	t1,29
bfc020c4:	01288006 	srlv	s0,t0,t1
bfc020c8:	24120000 	li	s2,0
bfc020cc:	16120068 	bne	s0,s2,bfc02270 <inst_error>
bfc020d0:	00000000 	nop
bfc020d4:	24080000 	li	t0,0
bfc020d8:	2409000a 	li	t1,10
bfc020dc:	01288006 	srlv	s0,t0,t1
bfc020e0:	24120000 	li	s2,0
bfc020e4:	16120062 	bne	s0,s2,bfc02270 <inst_error>
bfc020e8:	00000000 	nop
bfc020ec:	24080000 	li	t0,0
bfc020f0:	24090003 	li	t1,3
bfc020f4:	01288006 	srlv	s0,t0,t1
bfc020f8:	24120000 	li	s2,0
bfc020fc:	1612005c 	bne	s0,s2,bfc02270 <inst_error>
bfc02100:	00000000 	nop
bfc02104:	24080000 	li	t0,0
bfc02108:	24090004 	li	t1,4
bfc0210c:	01288006 	srlv	s0,t0,t1
bfc02110:	24120000 	li	s2,0
bfc02114:	16120056 	bne	s0,s2,bfc02270 <inst_error>
bfc02118:	00000000 	nop
bfc0211c:	24080000 	li	t0,0
bfc02120:	24090018 	li	t1,24
bfc02124:	01288006 	srlv	s0,t0,t1
bfc02128:	24120000 	li	s2,0
bfc0212c:	16120050 	bne	s0,s2,bfc02270 <inst_error>
bfc02130:	00000000 	nop
bfc02134:	24080000 	li	t0,0
bfc02138:	24090017 	li	t1,23
bfc0213c:	01288006 	srlv	s0,t0,t1
bfc02140:	24120000 	li	s2,0
bfc02144:	1612004a 	bne	s0,s2,bfc02270 <inst_error>
bfc02148:	00000000 	nop
bfc0214c:	24080000 	li	t0,0
bfc02150:	2409000f 	li	t1,15
bfc02154:	01288006 	srlv	s0,t0,t1
bfc02158:	24120000 	li	s2,0
bfc0215c:	16120044 	bne	s0,s2,bfc02270 <inst_error>
bfc02160:	00000000 	nop
bfc02164:	24080000 	li	t0,0
bfc02168:	2409001e 	li	t1,30
bfc0216c:	01288006 	srlv	s0,t0,t1
bfc02170:	24120000 	li	s2,0
bfc02174:	1612003e 	bne	s0,s2,bfc02270 <inst_error>
bfc02178:	00000000 	nop
bfc0217c:	24080000 	li	t0,0
bfc02180:	2409000a 	li	t1,10
bfc02184:	01288006 	srlv	s0,t0,t1
bfc02188:	24120000 	li	s2,0
bfc0218c:	16120038 	bne	s0,s2,bfc02270 <inst_error>
bfc02190:	00000000 	nop
bfc02194:	24080000 	li	t0,0
bfc02198:	2409000a 	li	t1,10
bfc0219c:	01288006 	srlv	s0,t0,t1
bfc021a0:	24120000 	li	s2,0
bfc021a4:	16120032 	bne	s0,s2,bfc02270 <inst_error>
bfc021a8:	00000000 	nop
bfc021ac:	24080000 	li	t0,0
bfc021b0:	2409000f 	li	t1,15
bfc021b4:	01288006 	srlv	s0,t0,t1
bfc021b8:	24120000 	li	s2,0
bfc021bc:	1612002c 	bne	s0,s2,bfc02270 <inst_error>
bfc021c0:	00000000 	nop
bfc021c4:	24080000 	li	t0,0
bfc021c8:	2409001c 	li	t1,28
bfc021cc:	01288006 	srlv	s0,t0,t1
bfc021d0:	24120000 	li	s2,0
bfc021d4:	16120026 	bne	s0,s2,bfc02270 <inst_error>
bfc021d8:	00000000 	nop
bfc021dc:	24080000 	li	t0,0
bfc021e0:	2409001d 	li	t1,29
bfc021e4:	01288006 	srlv	s0,t0,t1
bfc021e8:	24120000 	li	s2,0
bfc021ec:	16120020 	bne	s0,s2,bfc02270 <inst_error>
bfc021f0:	00000000 	nop
bfc021f4:	24080000 	li	t0,0
bfc021f8:	24090016 	li	t1,22
bfc021fc:	01288006 	srlv	s0,t0,t1
bfc02200:	24120000 	li	s2,0
bfc02204:	1612001a 	bne	s0,s2,bfc02270 <inst_error>
bfc02208:	00000000 	nop
bfc0220c:	24080000 	li	t0,0
bfc02210:	24090018 	li	t1,24
bfc02214:	01288006 	srlv	s0,t0,t1
bfc02218:	24120000 	li	s2,0
bfc0221c:	16120014 	bne	s0,s2,bfc02270 <inst_error>
bfc02220:	00000000 	nop
bfc02224:	24080000 	li	t0,0
bfc02228:	24090017 	li	t1,23
bfc0222c:	01288006 	srlv	s0,t0,t1
bfc02230:	24120000 	li	s2,0
bfc02234:	1612000e 	bne	s0,s2,bfc02270 <inst_error>
bfc02238:	00000000 	nop
bfc0223c:	24080000 	li	t0,0
bfc02240:	2409000c 	li	t1,12
bfc02244:	01288006 	srlv	s0,t0,t1
bfc02248:	24120000 	li	s2,0
bfc0224c:	16120008 	bne	s0,s2,bfc02270 <inst_error>
bfc02250:	00000000 	nop
bfc02254:	24080000 	li	t0,0
bfc02258:	24090000 	li	t1,0
bfc0225c:	01288006 	srlv	s0,t0,t1
bfc02260:	24120000 	li	s2,0
bfc02264:	16120002 	bne	s0,s2,bfc02270 <inst_error>
bfc02268:	00000000 	nop
bfc0226c:	4a000000 	c2	0x0

bfc02270 <inst_error>:
inst_error():
bfc02270:	0000003f 	0x3f

Disassembly of section .reginfo:

00000000 <.reginfo>:
   0:	00050300 	sll	zero,a1,0xc
	...
