
build/subu:     file format elf32-tradlittlemips
build/subu


Disassembly of section .text:

bfc00000 <main>:
bfc00000:	3c08d6fc 	lui	t0,0xd6fc
bfc00004:	35080584 	ori	t0,t0,0x584
bfc00008:	3c095f97 	lui	t1,0x5f97
bfc0000c:	352965a8 	ori	t1,t1,0x65a8
bfc00010:	01098023 	subu	s0,t0,t1
bfc00014:	3c127764 	lui	s2,0x7764
bfc00018:	36529fdc 	ori	s2,s2,0x9fdc
bfc0001c:	16120a27 	bne	s0,s2,bfc028bc <inst_error>
bfc00020:	00000000 	nop
bfc00024:	3c08bf9c 	lui	t0,0xbf9c
bfc00028:	350895c2 	ori	t0,t0,0x95c2
bfc0002c:	3c093368 	lui	t1,0x3368
bfc00030:	3529890e 	ori	t1,t1,0x890e
bfc00034:	01098023 	subu	s0,t0,t1
bfc00038:	3c128c34 	lui	s2,0x8c34
bfc0003c:	36520cb4 	ori	s2,s2,0xcb4
bfc00040:	16120a1e 	bne	s0,s2,bfc028bc <inst_error>
bfc00044:	00000000 	nop
bfc00048:	3c08da67 	lui	t0,0xda67
bfc0004c:	3508a888 	ori	t0,t0,0xa888
bfc00050:	3c09a727 	lui	t1,0xa727
bfc00054:	3529b830 	ori	t1,t1,0xb830
bfc00058:	01098023 	subu	s0,t0,t1
bfc0005c:	3c12333f 	lui	s2,0x333f
bfc00060:	3652f058 	ori	s2,s2,0xf058
bfc00064:	16120a15 	bne	s0,s2,bfc028bc <inst_error>
bfc00068:	00000000 	nop
bfc0006c:	3c082385 	lui	t0,0x2385
bfc00070:	35088808 	ori	t0,t0,0x8808
bfc00074:	3c09657a 	lui	t1,0x657a
bfc00078:	352998bc 	ori	t1,t1,0x98bc
bfc0007c:	01098023 	subu	s0,t0,t1
bfc00080:	3c12be0a 	lui	s2,0xbe0a
bfc00084:	3652ef4c 	ori	s2,s2,0xef4c
bfc00088:	16120a0c 	bne	s0,s2,bfc028bc <inst_error>
bfc0008c:	00000000 	nop
bfc00090:	3c08040a 	lui	t0,0x40a
bfc00094:	3508e1f0 	ori	t0,t0,0xe1f0
bfc00098:	3c094eff 	lui	t1,0x4eff
bfc0009c:	35290fe8 	ori	t1,t1,0xfe8
bfc000a0:	01098023 	subu	s0,t0,t1
bfc000a4:	3c12b50b 	lui	s2,0xb50b
bfc000a8:	3652d208 	ori	s2,s2,0xd208
bfc000ac:	16120a03 	bne	s0,s2,bfc028bc <inst_error>
bfc000b0:	00000000 	nop
bfc000b4:	3c0845c9 	lui	t0,0x45c9
bfc000b8:	3508e968 	ori	t0,t0,0xe968
bfc000bc:	3c09baec 	lui	t1,0xbaec
bfc000c0:	3529ca18 	ori	t1,t1,0xca18
bfc000c4:	01098023 	subu	s0,t0,t1
bfc000c8:	3c128add 	lui	s2,0x8add
bfc000cc:	36521f50 	ori	s2,s2,0x1f50
bfc000d0:	161209fa 	bne	s0,s2,bfc028bc <inst_error>
bfc000d4:	00000000 	nop
bfc000d8:	3c08541b 	lui	t0,0x541b
bfc000dc:	3508ce6c 	ori	t0,t0,0xce6c
bfc000e0:	3c09e3ee 	lui	t1,0xe3ee
bfc000e4:	3529b018 	ori	t1,t1,0xb018
bfc000e8:	01098023 	subu	s0,t0,t1
bfc000ec:	3c12702d 	lui	s2,0x702d
bfc000f0:	36521e54 	ori	s2,s2,0x1e54
bfc000f4:	161209f1 	bne	s0,s2,bfc028bc <inst_error>
bfc000f8:	00000000 	nop
bfc000fc:	3c080282 	lui	t0,0x282
bfc00100:	35085068 	ori	t0,t0,0x5068
bfc00104:	3c09a1de 	lui	t1,0xa1de
bfc00108:	3529973a 	ori	t1,t1,0x973a
bfc0010c:	01098023 	subu	s0,t0,t1
bfc00110:	3c1260a3 	lui	s2,0x60a3
bfc00114:	3652b92e 	ori	s2,s2,0xb92e
bfc00118:	161209e8 	bne	s0,s2,bfc028bc <inst_error>
bfc0011c:	00000000 	nop
bfc00120:	3c08f8c1 	lui	t0,0xf8c1
bfc00124:	350813c0 	ori	t0,t0,0x13c0
bfc00128:	3c09052c 	lui	t1,0x52c
bfc0012c:	3529e450 	ori	t1,t1,0xe450
bfc00130:	01098023 	subu	s0,t0,t1
bfc00134:	3c12f394 	lui	s2,0xf394
bfc00138:	36522f70 	ori	s2,s2,0x2f70
bfc0013c:	161209df 	bne	s0,s2,bfc028bc <inst_error>
bfc00140:	00000000 	nop
bfc00144:	3c089686 	lui	t0,0x9686
bfc00148:	35088792 	ori	t0,t0,0x8792
bfc0014c:	3c09d109 	lui	t1,0xd109
bfc00150:	3529051c 	ori	t1,t1,0x51c
bfc00154:	01098023 	subu	s0,t0,t1
bfc00158:	3c12c57d 	lui	s2,0xc57d
bfc0015c:	36528276 	ori	s2,s2,0x8276
bfc00160:	161209d6 	bne	s0,s2,bfc028bc <inst_error>
bfc00164:	00000000 	nop
bfc00168:	3c08f53c 	lui	t0,0xf53c
bfc0016c:	35086d68 	ori	t0,t0,0x6d68
bfc00170:	3c09c1c4 	lui	t1,0xc1c4
bfc00174:	35296588 	ori	t1,t1,0x6588
bfc00178:	01098023 	subu	s0,t0,t1
bfc0017c:	3c123378 	lui	s2,0x3378
bfc00180:	365207e0 	ori	s2,s2,0x7e0
bfc00184:	161209cd 	bne	s0,s2,bfc028bc <inst_error>
bfc00188:	00000000 	nop
bfc0018c:	3c0815f9 	lui	t0,0x15f9
bfc00190:	3508b790 	ori	t0,t0,0xb790
bfc00194:	3c09d2e2 	lui	t1,0xd2e2
bfc00198:	35290d27 	ori	t1,t1,0xd27
bfc0019c:	01098023 	subu	s0,t0,t1
bfc001a0:	3c124317 	lui	s2,0x4317
bfc001a4:	3652aa69 	ori	s2,s2,0xaa69
bfc001a8:	161209c4 	bne	s0,s2,bfc028bc <inst_error>
bfc001ac:	00000000 	nop
bfc001b0:	3c08dd8a 	lui	t0,0xdd8a
bfc001b4:	35084223 	ori	t0,t0,0x4223
bfc001b8:	3c09350d 	lui	t1,0x350d
bfc001bc:	352915c0 	ori	t1,t1,0x15c0
bfc001c0:	01098023 	subu	s0,t0,t1
bfc001c4:	3c12a87d 	lui	s2,0xa87d
bfc001c8:	36522c63 	ori	s2,s2,0x2c63
bfc001cc:	161209bb 	bne	s0,s2,bfc028bc <inst_error>
bfc001d0:	00000000 	nop
bfc001d4:	3c088f31 	lui	t0,0x8f31
bfc001d8:	3508c286 	ori	t0,t0,0xc286
bfc001dc:	3c092cea 	lui	t1,0x2cea
bfc001e0:	3529e250 	ori	t1,t1,0xe250
bfc001e4:	01098023 	subu	s0,t0,t1
bfc001e8:	3c126246 	lui	s2,0x6246
bfc001ec:	3652e036 	ori	s2,s2,0xe036
bfc001f0:	161209b2 	bne	s0,s2,bfc028bc <inst_error>
bfc001f4:	00000000 	nop
bfc001f8:	3c0875c8 	lui	t0,0x75c8
bfc001fc:	35083600 	ori	t0,t0,0x3600
bfc00200:	3c0932f9 	lui	t1,0x32f9
bfc00204:	35294254 	ori	t1,t1,0x4254
bfc00208:	01098023 	subu	s0,t0,t1
bfc0020c:	3c1242ce 	lui	s2,0x42ce
bfc00210:	3652f3ac 	ori	s2,s2,0xf3ac
bfc00214:	161209a9 	bne	s0,s2,bfc028bc <inst_error>
bfc00218:	00000000 	nop
bfc0021c:	3c084237 	lui	t0,0x4237
bfc00220:	350823c4 	ori	t0,t0,0x23c4
bfc00224:	3c097aa1 	lui	t1,0x7aa1
bfc00228:	352965d0 	ori	t1,t1,0x65d0
bfc0022c:	01098023 	subu	s0,t0,t1
bfc00230:	3c12c795 	lui	s2,0xc795
bfc00234:	3652bdf4 	ori	s2,s2,0xbdf4
bfc00238:	161209a0 	bne	s0,s2,bfc028bc <inst_error>
bfc0023c:	00000000 	nop
bfc00240:	3c0832e5 	lui	t0,0x32e5
bfc00244:	350871f0 	ori	t0,t0,0x71f0
bfc00248:	3c09baec 	lui	t1,0xbaec
bfc0024c:	3529c1ac 	ori	t1,t1,0xc1ac
bfc00250:	01098023 	subu	s0,t0,t1
bfc00254:	3c1277f8 	lui	s2,0x77f8
bfc00258:	3652b044 	ori	s2,s2,0xb044
bfc0025c:	16120997 	bne	s0,s2,bfc028bc <inst_error>
bfc00260:	00000000 	nop
bfc00264:	3c08c5d0 	lui	t0,0xc5d0
bfc00268:	35086600 	ori	t0,t0,0x6600
bfc0026c:	3c099161 	lui	t1,0x9161
bfc00270:	35291ea8 	ori	t1,t1,0x1ea8
bfc00274:	01098023 	subu	s0,t0,t1
bfc00278:	3c12346f 	lui	s2,0x346f
bfc0027c:	36524758 	ori	s2,s2,0x4758
bfc00280:	1612098e 	bne	s0,s2,bfc028bc <inst_error>
bfc00284:	00000000 	nop
bfc00288:	3c0800c6 	lui	t0,0xc6
bfc0028c:	35080432 	ori	t0,t0,0x432
bfc00290:	3c0998b2 	lui	t1,0x98b2
bfc00294:	35295356 	ori	t1,t1,0x5356
bfc00298:	01098023 	subu	s0,t0,t1
bfc0029c:	3c126813 	lui	s2,0x6813
bfc002a0:	3652b0dc 	ori	s2,s2,0xb0dc
bfc002a4:	16120985 	bne	s0,s2,bfc028bc <inst_error>
bfc002a8:	00000000 	nop
bfc002ac:	3c0818a1 	lui	t0,0x18a1
bfc002b0:	35081fa1 	ori	t0,t0,0x1fa1
bfc002b4:	3c09dde9 	lui	t1,0xdde9
bfc002b8:	352917e4 	ori	t1,t1,0x17e4
bfc002bc:	01098023 	subu	s0,t0,t1
bfc002c0:	3c123ab8 	lui	s2,0x3ab8
bfc002c4:	365207bd 	ori	s2,s2,0x7bd
bfc002c8:	1612097c 	bne	s0,s2,bfc028bc <inst_error>
bfc002cc:	00000000 	nop
bfc002d0:	3c08c500 	lui	t0,0xc500
bfc002d4:	35085fc8 	ori	t0,t0,0x5fc8
bfc002d8:	3c09e132 	lui	t1,0xe132
bfc002dc:	3529c555 	ori	t1,t1,0xc555
bfc002e0:	01098023 	subu	s0,t0,t1
bfc002e4:	3c12e3cd 	lui	s2,0xe3cd
bfc002e8:	36529a73 	ori	s2,s2,0x9a73
bfc002ec:	16120973 	bne	s0,s2,bfc028bc <inst_error>
bfc002f0:	00000000 	nop
bfc002f4:	3c08b371 	lui	t0,0xb371
bfc002f8:	35089000 	ori	t0,t0,0x9000
bfc002fc:	3c093699 	lui	t1,0x3699
bfc00300:	352995a3 	ori	t1,t1,0x95a3
bfc00304:	01098023 	subu	s0,t0,t1
bfc00308:	3c127cd7 	lui	s2,0x7cd7
bfc0030c:	3652fa5d 	ori	s2,s2,0xfa5d
bfc00310:	1612096a 	bne	s0,s2,bfc028bc <inst_error>
bfc00314:	00000000 	nop
bfc00318:	3c08c334 	lui	t0,0xc334
bfc0031c:	3508c06c 	ori	t0,t0,0xc06c
bfc00320:	3c0995e8 	lui	t1,0x95e8
bfc00324:	35294978 	ori	t1,t1,0x4978
bfc00328:	01098023 	subu	s0,t0,t1
bfc0032c:	3c122d4c 	lui	s2,0x2d4c
bfc00330:	365276f4 	ori	s2,s2,0x76f4
bfc00334:	16120961 	bne	s0,s2,bfc028bc <inst_error>
bfc00338:	00000000 	nop
bfc0033c:	3c08ebdf 	lui	t0,0xebdf
bfc00340:	35080650 	ori	t0,t0,0x650
bfc00344:	3c09f625 	lui	t1,0xf625
bfc00348:	35291700 	ori	t1,t1,0x1700
bfc0034c:	01098023 	subu	s0,t0,t1
bfc00350:	3c12f5b9 	lui	s2,0xf5b9
bfc00354:	3652ef50 	ori	s2,s2,0xef50
bfc00358:	16120958 	bne	s0,s2,bfc028bc <inst_error>
bfc0035c:	00000000 	nop
bfc00360:	3c088343 	lui	t0,0x8343
bfc00364:	3508a5d0 	ori	t0,t0,0xa5d0
bfc00368:	3c095a87 	lui	t1,0x5a87
bfc0036c:	3529c844 	ori	t1,t1,0xc844
bfc00370:	01098023 	subu	s0,t0,t1
bfc00374:	3c1228bb 	lui	s2,0x28bb
bfc00378:	3652dd8c 	ori	s2,s2,0xdd8c
bfc0037c:	1612094f 	bne	s0,s2,bfc028bc <inst_error>
bfc00380:	00000000 	nop
bfc00384:	3c086b53 	lui	t0,0x6b53
bfc00388:	3508ec00 	ori	t0,t0,0xec00
bfc0038c:	3c090f8d 	lui	t1,0xf8d
bfc00390:	35293793 	ori	t1,t1,0x3793
bfc00394:	01098023 	subu	s0,t0,t1
bfc00398:	3c125bc6 	lui	s2,0x5bc6
bfc0039c:	3652b46d 	ori	s2,s2,0xb46d
bfc003a0:	16120946 	bne	s0,s2,bfc028bc <inst_error>
bfc003a4:	00000000 	nop
bfc003a8:	3c08afeb 	lui	t0,0xafeb
bfc003ac:	350838c2 	ori	t0,t0,0x38c2
bfc003b0:	3c094ad9 	lui	t1,0x4ad9
bfc003b4:	3529906c 	ori	t1,t1,0x906c
bfc003b8:	01098023 	subu	s0,t0,t1
bfc003bc:	3c126511 	lui	s2,0x6511
bfc003c0:	3652a856 	ori	s2,s2,0xa856
bfc003c4:	1612093d 	bne	s0,s2,bfc028bc <inst_error>
bfc003c8:	00000000 	nop
bfc003cc:	3c08d677 	lui	t0,0xd677
bfc003d0:	35082c6c 	ori	t0,t0,0x2c6c
bfc003d4:	3c09a1cf 	lui	t1,0xa1cf
bfc003d8:	35292440 	ori	t1,t1,0x2440
bfc003dc:	01098023 	subu	s0,t0,t1
bfc003e0:	3c1234a8 	lui	s2,0x34a8
bfc003e4:	3652082c 	ori	s2,s2,0x82c
bfc003e8:	16120934 	bne	s0,s2,bfc028bc <inst_error>
bfc003ec:	00000000 	nop
bfc003f0:	3c08d593 	lui	t0,0xd593
bfc003f4:	3508ae94 	ori	t0,t0,0xae94
bfc003f8:	3c098e0b 	lui	t1,0x8e0b
bfc003fc:	3529c704 	ori	t1,t1,0xc704
bfc00400:	01098023 	subu	s0,t0,t1
bfc00404:	3c124787 	lui	s2,0x4787
bfc00408:	3652e790 	ori	s2,s2,0xe790
bfc0040c:	1612092b 	bne	s0,s2,bfc028bc <inst_error>
bfc00410:	00000000 	nop
bfc00414:	3c087e42 	lui	t0,0x7e42
bfc00418:	35089d08 	ori	t0,t0,0x9d08
bfc0041c:	3c09331d 	lui	t1,0x331d
bfc00420:	3529d000 	ori	t1,t1,0xd000
bfc00424:	01098023 	subu	s0,t0,t1
bfc00428:	3c124b24 	lui	s2,0x4b24
bfc0042c:	3652cd08 	ori	s2,s2,0xcd08
bfc00430:	16120922 	bne	s0,s2,bfc028bc <inst_error>
bfc00434:	00000000 	nop
bfc00438:	3c080f80 	lui	t0,0xf80
bfc0043c:	3508fb92 	ori	t0,t0,0xfb92
bfc00440:	3c09e934 	lui	t1,0xe934
bfc00444:	35294e60 	ori	t1,t1,0x4e60
bfc00448:	01098023 	subu	s0,t0,t1
bfc0044c:	3c12264c 	lui	s2,0x264c
bfc00450:	3652ad32 	ori	s2,s2,0xad32
bfc00454:	16120919 	bne	s0,s2,bfc028bc <inst_error>
bfc00458:	00000000 	nop
bfc0045c:	3c08e875 	lui	t0,0xe875
bfc00460:	3508e234 	ori	t0,t0,0xe234
bfc00464:	3c090d1e 	lui	t1,0xd1e
bfc00468:	3529885c 	ori	t1,t1,0x885c
bfc0046c:	01098023 	subu	s0,t0,t1
bfc00470:	3c12db57 	lui	s2,0xdb57
bfc00474:	365259d8 	ori	s2,s2,0x59d8
bfc00478:	16120910 	bne	s0,s2,bfc028bc <inst_error>
bfc0047c:	00000000 	nop
bfc00480:	3c086f5f 	lui	t0,0x6f5f
bfc00484:	35088dd7 	ori	t0,t0,0x8dd7
bfc00488:	3c096593 	lui	t1,0x6593
bfc0048c:	35291578 	ori	t1,t1,0x1578
bfc00490:	01098023 	subu	s0,t0,t1
bfc00494:	3c1209cc 	lui	s2,0x9cc
bfc00498:	3652785f 	ori	s2,s2,0x785f
bfc0049c:	16120907 	bne	s0,s2,bfc028bc <inst_error>
bfc004a0:	00000000 	nop
bfc004a4:	3c087675 	lui	t0,0x7675
bfc004a8:	3508c428 	ori	t0,t0,0xc428
bfc004ac:	3c0990bd 	lui	t1,0x90bd
bfc004b0:	3529fbb0 	ori	t1,t1,0xfbb0
bfc004b4:	01098023 	subu	s0,t0,t1
bfc004b8:	3c12e5b7 	lui	s2,0xe5b7
bfc004bc:	3652c878 	ori	s2,s2,0xc878
bfc004c0:	161208fe 	bne	s0,s2,bfc028bc <inst_error>
bfc004c4:	00000000 	nop
bfc004c8:	3c08a915 	lui	t0,0xa915
bfc004cc:	3508ba2f 	ori	t0,t0,0xba2f
bfc004d0:	3c090917 	lui	t1,0x917
bfc004d4:	3529c008 	ori	t1,t1,0xc008
bfc004d8:	01098023 	subu	s0,t0,t1
bfc004dc:	3c129ffd 	lui	s2,0x9ffd
bfc004e0:	3652fa27 	ori	s2,s2,0xfa27
bfc004e4:	161208f5 	bne	s0,s2,bfc028bc <inst_error>
bfc004e8:	00000000 	nop
bfc004ec:	3c089194 	lui	t0,0x9194
bfc004f0:	3508ded8 	ori	t0,t0,0xded8
bfc004f4:	3c097cca 	lui	t1,0x7cca
bfc004f8:	3529603c 	ori	t1,t1,0x603c
bfc004fc:	01098023 	subu	s0,t0,t1
bfc00500:	3c1214ca 	lui	s2,0x14ca
bfc00504:	36527e9c 	ori	s2,s2,0x7e9c
bfc00508:	161208ec 	bne	s0,s2,bfc028bc <inst_error>
bfc0050c:	00000000 	nop
bfc00510:	3c081934 	lui	t0,0x1934
bfc00514:	35084280 	ori	t0,t0,0x4280
bfc00518:	3c09921d 	lui	t1,0x921d
bfc0051c:	3529b4d2 	ori	t1,t1,0xb4d2
bfc00520:	01098023 	subu	s0,t0,t1
bfc00524:	3c128716 	lui	s2,0x8716
bfc00528:	36528dae 	ori	s2,s2,0x8dae
bfc0052c:	161208e3 	bne	s0,s2,bfc028bc <inst_error>
bfc00530:	00000000 	nop
bfc00534:	3c08b17c 	lui	t0,0xb17c
bfc00538:	350833ec 	ori	t0,t0,0x33ec
bfc0053c:	3c0998e7 	lui	t1,0x98e7
bfc00540:	3529f1c8 	ori	t1,t1,0xf1c8
bfc00544:	01098023 	subu	s0,t0,t1
bfc00548:	3c121894 	lui	s2,0x1894
bfc0054c:	36524224 	ori	s2,s2,0x4224
bfc00550:	161208da 	bne	s0,s2,bfc028bc <inst_error>
bfc00554:	00000000 	nop
bfc00558:	3c08f05d 	lui	t0,0xf05d
bfc0055c:	3508ec60 	ori	t0,t0,0xec60
bfc00560:	3c09d3d0 	lui	t1,0xd3d0
bfc00564:	35295b00 	ori	t1,t1,0x5b00
bfc00568:	01098023 	subu	s0,t0,t1
bfc0056c:	3c121c8d 	lui	s2,0x1c8d
bfc00570:	36529160 	ori	s2,s2,0x9160
bfc00574:	161208d1 	bne	s0,s2,bfc028bc <inst_error>
bfc00578:	00000000 	nop
bfc0057c:	3c088be2 	lui	t0,0x8be2
bfc00580:	3508ec4e 	ori	t0,t0,0xec4e
bfc00584:	3c092f1e 	lui	t1,0x2f1e
bfc00588:	35298ff6 	ori	t1,t1,0x8ff6
bfc0058c:	01098023 	subu	s0,t0,t1
bfc00590:	3c125cc4 	lui	s2,0x5cc4
bfc00594:	36525c58 	ori	s2,s2,0x5c58
bfc00598:	161208c8 	bne	s0,s2,bfc028bc <inst_error>
bfc0059c:	00000000 	nop
bfc005a0:	3c085e69 	lui	t0,0x5e69
bfc005a4:	3508e280 	ori	t0,t0,0xe280
bfc005a8:	3c096b1c 	lui	t1,0x6b1c
bfc005ac:	3529b358 	ori	t1,t1,0xb358
bfc005b0:	01098023 	subu	s0,t0,t1
bfc005b4:	3c12f34d 	lui	s2,0xf34d
bfc005b8:	36522f28 	ori	s2,s2,0x2f28
bfc005bc:	161208bf 	bne	s0,s2,bfc028bc <inst_error>
bfc005c0:	00000000 	nop
bfc005c4:	3c0823b4 	lui	t0,0x23b4
bfc005c8:	3508e63e 	ori	t0,t0,0xe63e
bfc005cc:	3c0901cb 	lui	t1,0x1cb
bfc005d0:	352927a8 	ori	t1,t1,0x27a8
bfc005d4:	01098023 	subu	s0,t0,t1
bfc005d8:	3c1221e9 	lui	s2,0x21e9
bfc005dc:	3652be96 	ori	s2,s2,0xbe96
bfc005e0:	161208b6 	bne	s0,s2,bfc028bc <inst_error>
bfc005e4:	00000000 	nop
bfc005e8:	3c0873a2 	lui	t0,0x73a2
bfc005ec:	3508f524 	ori	t0,t0,0xf524
bfc005f0:	3c091342 	lui	t1,0x1342
bfc005f4:	35294cfd 	ori	t1,t1,0x4cfd
bfc005f8:	01098023 	subu	s0,t0,t1
bfc005fc:	3c126060 	lui	s2,0x6060
bfc00600:	3652a827 	ori	s2,s2,0xa827
bfc00604:	161208ad 	bne	s0,s2,bfc028bc <inst_error>
bfc00608:	00000000 	nop
bfc0060c:	3c08af2d 	lui	t0,0xaf2d
bfc00610:	3508dbd0 	ori	t0,t0,0xdbd0
bfc00614:	3c09a7c8 	lui	t1,0xa7c8
bfc00618:	3529a588 	ori	t1,t1,0xa588
bfc0061c:	01098023 	subu	s0,t0,t1
bfc00620:	3c120765 	lui	s2,0x765
bfc00624:	36523648 	ori	s2,s2,0x3648
bfc00628:	161208a4 	bne	s0,s2,bfc028bc <inst_error>
bfc0062c:	00000000 	nop
bfc00630:	3c0840bc 	lui	t0,0x40bc
bfc00634:	3508cb24 	ori	t0,t0,0xcb24
bfc00638:	3c09d51e 	lui	t1,0xd51e
bfc0063c:	3529a0e8 	ori	t1,t1,0xa0e8
bfc00640:	01098023 	subu	s0,t0,t1
bfc00644:	3c126b9e 	lui	s2,0x6b9e
bfc00648:	36522a3c 	ori	s2,s2,0x2a3c
bfc0064c:	1612089b 	bne	s0,s2,bfc028bc <inst_error>
bfc00650:	00000000 	nop
bfc00654:	3c08d55f 	lui	t0,0xd55f
bfc00658:	35081d58 	ori	t0,t0,0x1d58
bfc0065c:	3c09ebcb 	lui	t1,0xebcb
bfc00660:	3529f0d8 	ori	t1,t1,0xf0d8
bfc00664:	01098023 	subu	s0,t0,t1
bfc00668:	3c12e993 	lui	s2,0xe993
bfc0066c:	36522c80 	ori	s2,s2,0x2c80
bfc00670:	16120892 	bne	s0,s2,bfc028bc <inst_error>
bfc00674:	00000000 	nop
bfc00678:	3c084000 	lui	t0,0x4000
bfc0067c:	35087d14 	ori	t0,t0,0x7d14
bfc00680:	3c0973b4 	lui	t1,0x73b4
bfc00684:	35290222 	ori	t1,t1,0x222
bfc00688:	01098023 	subu	s0,t0,t1
bfc0068c:	3c12cc4c 	lui	s2,0xcc4c
bfc00690:	36527af2 	ori	s2,s2,0x7af2
bfc00694:	16120889 	bne	s0,s2,bfc028bc <inst_error>
bfc00698:	00000000 	nop
bfc0069c:	3c084c8d 	lui	t0,0x4c8d
bfc006a0:	350832a0 	ori	t0,t0,0x32a0
bfc006a4:	3c09c29f 	lui	t1,0xc29f
bfc006a8:	3529112c 	ori	t1,t1,0x112c
bfc006ac:	01098023 	subu	s0,t0,t1
bfc006b0:	3c1289ee 	lui	s2,0x89ee
bfc006b4:	36522174 	ori	s2,s2,0x2174
bfc006b8:	16120880 	bne	s0,s2,bfc028bc <inst_error>
bfc006bc:	00000000 	nop
bfc006c0:	3c085190 	lui	t0,0x5190
bfc006c4:	3508e68a 	ori	t0,t0,0xe68a
bfc006c8:	3c097c96 	lui	t1,0x7c96
bfc006cc:	3529b13c 	ori	t1,t1,0xb13c
bfc006d0:	01098023 	subu	s0,t0,t1
bfc006d4:	3c12d4fa 	lui	s2,0xd4fa
bfc006d8:	3652354e 	ori	s2,s2,0x354e
bfc006dc:	16120877 	bne	s0,s2,bfc028bc <inst_error>
bfc006e0:	00000000 	nop
bfc006e4:	3c086c65 	lui	t0,0x6c65
bfc006e8:	35089034 	ori	t0,t0,0x9034
bfc006ec:	3c09aee0 	lui	t1,0xaee0
bfc006f0:	3529b7cc 	ori	t1,t1,0xb7cc
bfc006f4:	01098023 	subu	s0,t0,t1
bfc006f8:	3c12bd84 	lui	s2,0xbd84
bfc006fc:	3652d868 	ori	s2,s2,0xd868
bfc00700:	1612086e 	bne	s0,s2,bfc028bc <inst_error>
bfc00704:	00000000 	nop
bfc00708:	3c08be39 	lui	t0,0xbe39
bfc0070c:	350803d0 	ori	t0,t0,0x3d0
bfc00710:	3c090375 	lui	t1,0x375
bfc00714:	3529ed52 	ori	t1,t1,0xed52
bfc00718:	01098023 	subu	s0,t0,t1
bfc0071c:	3c12bac3 	lui	s2,0xbac3
bfc00720:	3652167e 	ori	s2,s2,0x167e
bfc00724:	16120865 	bne	s0,s2,bfc028bc <inst_error>
bfc00728:	00000000 	nop
bfc0072c:	3c08f8ec 	lui	t0,0xf8ec
bfc00730:	3508ec8d 	ori	t0,t0,0xec8d
bfc00734:	3c096eca 	lui	t1,0x6eca
bfc00738:	3529be4b 	ori	t1,t1,0xbe4b
bfc0073c:	01098023 	subu	s0,t0,t1
bfc00740:	3c128a22 	lui	s2,0x8a22
bfc00744:	36522e42 	ori	s2,s2,0x2e42
bfc00748:	1612085c 	bne	s0,s2,bfc028bc <inst_error>
bfc0074c:	00000000 	nop
bfc00750:	3c081836 	lui	t0,0x1836
bfc00754:	3508ae30 	ori	t0,t0,0xae30
bfc00758:	3c0991e3 	lui	t1,0x91e3
bfc0075c:	3529d038 	ori	t1,t1,0xd038
bfc00760:	01098023 	subu	s0,t0,t1
bfc00764:	3c128652 	lui	s2,0x8652
bfc00768:	3652ddf8 	ori	s2,s2,0xddf8
bfc0076c:	16120853 	bne	s0,s2,bfc028bc <inst_error>
bfc00770:	00000000 	nop
bfc00774:	3c08ad52 	lui	t0,0xad52
bfc00778:	3508af54 	ori	t0,t0,0xaf54
bfc0077c:	3c098db8 	lui	t1,0x8db8
bfc00780:	35294360 	ori	t1,t1,0x4360
bfc00784:	01098023 	subu	s0,t0,t1
bfc00788:	3c121f9a 	lui	s2,0x1f9a
bfc0078c:	36526bf4 	ori	s2,s2,0x6bf4
bfc00790:	1612084a 	bne	s0,s2,bfc028bc <inst_error>
bfc00794:	00000000 	nop
bfc00798:	3c084117 	lui	t0,0x4117
bfc0079c:	3508ea50 	ori	t0,t0,0xea50
bfc007a0:	3c09d5b6 	lui	t1,0xd5b6
bfc007a4:	3529bf90 	ori	t1,t1,0xbf90
bfc007a8:	01098023 	subu	s0,t0,t1
bfc007ac:	3c126b61 	lui	s2,0x6b61
bfc007b0:	36522ac0 	ori	s2,s2,0x2ac0
bfc007b4:	16120841 	bne	s0,s2,bfc028bc <inst_error>
bfc007b8:	00000000 	nop
bfc007bc:	3c086b14 	lui	t0,0x6b14
bfc007c0:	35080b9e 	ori	t0,t0,0xb9e
bfc007c4:	3c0909d5 	lui	t1,0x9d5
bfc007c8:	35293740 	ori	t1,t1,0x3740
bfc007cc:	01098023 	subu	s0,t0,t1
bfc007d0:	3c12613e 	lui	s2,0x613e
bfc007d4:	3652d45e 	ori	s2,s2,0xd45e
bfc007d8:	16120838 	bne	s0,s2,bfc028bc <inst_error>
bfc007dc:	00000000 	nop
bfc007e0:	3c0845d3 	lui	t0,0x45d3
bfc007e4:	3508b555 	ori	t0,t0,0xb555
bfc007e8:	3c09ee9f 	lui	t1,0xee9f
bfc007ec:	35291b40 	ori	t1,t1,0x1b40
bfc007f0:	01098023 	subu	s0,t0,t1
bfc007f4:	3c125734 	lui	s2,0x5734
bfc007f8:	36529a15 	ori	s2,s2,0x9a15
bfc007fc:	1612082f 	bne	s0,s2,bfc028bc <inst_error>
bfc00800:	00000000 	nop
bfc00804:	3c0868f8 	lui	t0,0x68f8
bfc00808:	3508ee5b 	ori	t0,t0,0xee5b
bfc0080c:	3c092b20 	lui	t1,0x2b20
bfc00810:	3529c916 	ori	t1,t1,0xc916
bfc00814:	01098023 	subu	s0,t0,t1
bfc00818:	3c123dd8 	lui	s2,0x3dd8
bfc0081c:	36522545 	ori	s2,s2,0x2545
bfc00820:	16120826 	bne	s0,s2,bfc028bc <inst_error>
bfc00824:	00000000 	nop
bfc00828:	3c08aca7 	lui	t0,0xaca7
bfc0082c:	350802e6 	ori	t0,t0,0x2e6
bfc00830:	3c090e8f 	lui	t1,0xe8f
bfc00834:	35290170 	ori	t1,t1,0x170
bfc00838:	01098023 	subu	s0,t0,t1
bfc0083c:	3c129e18 	lui	s2,0x9e18
bfc00840:	36520176 	ori	s2,s2,0x176
bfc00844:	1612081d 	bne	s0,s2,bfc028bc <inst_error>
bfc00848:	00000000 	nop
bfc0084c:	3c085b20 	lui	t0,0x5b20
bfc00850:	3508ef94 	ori	t0,t0,0xef94
bfc00854:	3c0914f6 	lui	t1,0x14f6
bfc00858:	35292c69 	ori	t1,t1,0x2c69
bfc0085c:	01098023 	subu	s0,t0,t1
bfc00860:	3c12462a 	lui	s2,0x462a
bfc00864:	3652c32b 	ori	s2,s2,0xc32b
bfc00868:	16120814 	bne	s0,s2,bfc028bc <inst_error>
bfc0086c:	00000000 	nop
bfc00870:	3c084913 	lui	t0,0x4913
bfc00874:	35089100 	ori	t0,t0,0x9100
bfc00878:	3c093f3c 	lui	t1,0x3f3c
bfc0087c:	3529b630 	ori	t1,t1,0xb630
bfc00880:	01098023 	subu	s0,t0,t1
bfc00884:	3c1209d6 	lui	s2,0x9d6
bfc00888:	3652dad0 	ori	s2,s2,0xdad0
bfc0088c:	1612080b 	bne	s0,s2,bfc028bc <inst_error>
bfc00890:	00000000 	nop
bfc00894:	3c08ee44 	lui	t0,0xee44
bfc00898:	35080f3c 	ori	t0,t0,0xf3c
bfc0089c:	3c09dd85 	lui	t1,0xdd85
bfc008a0:	3529e334 	ori	t1,t1,0xe334
bfc008a4:	01098023 	subu	s0,t0,t1
bfc008a8:	3c1210be 	lui	s2,0x10be
bfc008ac:	36522c08 	ori	s2,s2,0x2c08
bfc008b0:	16120802 	bne	s0,s2,bfc028bc <inst_error>
bfc008b4:	00000000 	nop
bfc008b8:	3c08f44f 	lui	t0,0xf44f
bfc008bc:	35088ae0 	ori	t0,t0,0x8ae0
bfc008c0:	3c099f66 	lui	t1,0x9f66
bfc008c4:	3529ac00 	ori	t1,t1,0xac00
bfc008c8:	01098023 	subu	s0,t0,t1
bfc008cc:	3c1254e8 	lui	s2,0x54e8
bfc008d0:	3652dee0 	ori	s2,s2,0xdee0
bfc008d4:	161207f9 	bne	s0,s2,bfc028bc <inst_error>
bfc008d8:	00000000 	nop
bfc008dc:	3c0858ff 	lui	t0,0x58ff
bfc008e0:	35080bd0 	ori	t0,t0,0xbd0
bfc008e4:	3c09c678 	lui	t1,0xc678
bfc008e8:	35299a58 	ori	t1,t1,0x9a58
bfc008ec:	01098023 	subu	s0,t0,t1
bfc008f0:	3c129286 	lui	s2,0x9286
bfc008f4:	36527178 	ori	s2,s2,0x7178
bfc008f8:	161207f0 	bne	s0,s2,bfc028bc <inst_error>
bfc008fc:	00000000 	nop
bfc00900:	3c083a6a 	lui	t0,0x3a6a
bfc00904:	350859dd 	ori	t0,t0,0x59dd
bfc00908:	3c09a857 	lui	t1,0xa857
bfc0090c:	352959f4 	ori	t1,t1,0x59f4
bfc00910:	01098023 	subu	s0,t0,t1
bfc00914:	3c129212 	lui	s2,0x9212
bfc00918:	3652ffe9 	ori	s2,s2,0xffe9
bfc0091c:	161207e7 	bne	s0,s2,bfc028bc <inst_error>
bfc00920:	00000000 	nop
bfc00924:	3c08720a 	lui	t0,0x720a
bfc00928:	35086644 	ori	t0,t0,0x6644
bfc0092c:	3c09da5b 	lui	t1,0xda5b
bfc00930:	35293a4a 	ori	t1,t1,0x3a4a
bfc00934:	01098023 	subu	s0,t0,t1
bfc00938:	3c1297af 	lui	s2,0x97af
bfc0093c:	36522bfa 	ori	s2,s2,0x2bfa
bfc00940:	161207de 	bne	s0,s2,bfc028bc <inst_error>
bfc00944:	00000000 	nop
bfc00948:	3c084b26 	lui	t0,0x4b26
bfc0094c:	3508bda0 	ori	t0,t0,0xbda0
bfc00950:	3c09e7a2 	lui	t1,0xe7a2
bfc00954:	35293c38 	ori	t1,t1,0x3c38
bfc00958:	01098023 	subu	s0,t0,t1
bfc0095c:	3c126384 	lui	s2,0x6384
bfc00960:	36528168 	ori	s2,s2,0x8168
bfc00964:	161207d5 	bne	s0,s2,bfc028bc <inst_error>
bfc00968:	00000000 	nop
bfc0096c:	3c0854c9 	lui	t0,0x54c9
bfc00970:	35080300 	ori	t0,t0,0x300
bfc00974:	3c0959bc 	lui	t1,0x59bc
bfc00978:	3529dc53 	ori	t1,t1,0xdc53
bfc0097c:	01098023 	subu	s0,t0,t1
bfc00980:	3c12fb0c 	lui	s2,0xfb0c
bfc00984:	365226ad 	ori	s2,s2,0x26ad
bfc00988:	161207cc 	bne	s0,s2,bfc028bc <inst_error>
bfc0098c:	00000000 	nop
bfc00990:	3c085871 	lui	t0,0x5871
bfc00994:	350812f8 	ori	t0,t0,0x12f8
bfc00998:	3c09216a 	lui	t1,0x216a
bfc0099c:	35297f8a 	ori	t1,t1,0x7f8a
bfc009a0:	01098023 	subu	s0,t0,t1
bfc009a4:	3c123706 	lui	s2,0x3706
bfc009a8:	3652936e 	ori	s2,s2,0x936e
bfc009ac:	161207c3 	bne	s0,s2,bfc028bc <inst_error>
bfc009b0:	00000000 	nop
bfc009b4:	3c082ab5 	lui	t0,0x2ab5
bfc009b8:	35084d0e 	ori	t0,t0,0x4d0e
bfc009bc:	3c0990f7 	lui	t1,0x90f7
bfc009c0:	3529c654 	ori	t1,t1,0xc654
bfc009c4:	01098023 	subu	s0,t0,t1
bfc009c8:	3c1299bd 	lui	s2,0x99bd
bfc009cc:	365286ba 	ori	s2,s2,0x86ba
bfc009d0:	161207ba 	bne	s0,s2,bfc028bc <inst_error>
bfc009d4:	00000000 	nop
bfc009d8:	3c0893f6 	lui	t0,0x93f6
bfc009dc:	35084860 	ori	t0,t0,0x4860
bfc009e0:	3c09eeaa 	lui	t1,0xeeaa
bfc009e4:	3529a800 	ori	t1,t1,0xa800
bfc009e8:	01098023 	subu	s0,t0,t1
bfc009ec:	3c12a54b 	lui	s2,0xa54b
bfc009f0:	3652a060 	ori	s2,s2,0xa060
bfc009f4:	161207b1 	bne	s0,s2,bfc028bc <inst_error>
bfc009f8:	00000000 	nop
bfc009fc:	3c08947e 	lui	t0,0x947e
bfc00a00:	35083bc0 	ori	t0,t0,0x3bc0
bfc00a04:	3c09d101 	lui	t1,0xd101
bfc00a08:	3529721c 	ori	t1,t1,0x721c
bfc00a0c:	01098023 	subu	s0,t0,t1
bfc00a10:	3c12c37c 	lui	s2,0xc37c
bfc00a14:	3652c9a4 	ori	s2,s2,0xc9a4
bfc00a18:	161207a8 	bne	s0,s2,bfc028bc <inst_error>
bfc00a1c:	00000000 	nop
bfc00a20:	3c0808b0 	lui	t0,0x8b0
bfc00a24:	35085218 	ori	t0,t0,0x5218
bfc00a28:	3c09f7df 	lui	t1,0xf7df
bfc00a2c:	352914c0 	ori	t1,t1,0x14c0
bfc00a30:	01098023 	subu	s0,t0,t1
bfc00a34:	3c1210d1 	lui	s2,0x10d1
bfc00a38:	36523d58 	ori	s2,s2,0x3d58
bfc00a3c:	1612079f 	bne	s0,s2,bfc028bc <inst_error>
bfc00a40:	00000000 	nop
bfc00a44:	3c088b99 	lui	t0,0x8b99
bfc00a48:	35080582 	ori	t0,t0,0x582
bfc00a4c:	3c09b45e 	lui	t1,0xb45e
bfc00a50:	3529ca88 	ori	t1,t1,0xca88
bfc00a54:	01098023 	subu	s0,t0,t1
bfc00a58:	3c12d73a 	lui	s2,0xd73a
bfc00a5c:	36523afa 	ori	s2,s2,0x3afa
bfc00a60:	16120796 	bne	s0,s2,bfc028bc <inst_error>
bfc00a64:	00000000 	nop
bfc00a68:	3c0854a0 	lui	t0,0x54a0
bfc00a6c:	35089c60 	ori	t0,t0,0x9c60
bfc00a70:	3c09f065 	lui	t1,0xf065
bfc00a74:	3529ff59 	ori	t1,t1,0xff59
bfc00a78:	01098023 	subu	s0,t0,t1
bfc00a7c:	3c12643a 	lui	s2,0x643a
bfc00a80:	36529d07 	ori	s2,s2,0x9d07
bfc00a84:	1612078d 	bne	s0,s2,bfc028bc <inst_error>
bfc00a88:	00000000 	nop
bfc00a8c:	3c0802a4 	lui	t0,0x2a4
bfc00a90:	3508e3d2 	ori	t0,t0,0xe3d2
bfc00a94:	3c095ca7 	lui	t1,0x5ca7
bfc00a98:	35295800 	ori	t1,t1,0x5800
bfc00a9c:	01098023 	subu	s0,t0,t1
bfc00aa0:	3c12a5fd 	lui	s2,0xa5fd
bfc00aa4:	36528bd2 	ori	s2,s2,0x8bd2
bfc00aa8:	16120784 	bne	s0,s2,bfc028bc <inst_error>
bfc00aac:	00000000 	nop
bfc00ab0:	3c087102 	lui	t0,0x7102
bfc00ab4:	3508c503 	ori	t0,t0,0xc503
bfc00ab8:	3c09458e 	lui	t1,0x458e
bfc00abc:	3529eabf 	ori	t1,t1,0xeabf
bfc00ac0:	01098023 	subu	s0,t0,t1
bfc00ac4:	3c122b73 	lui	s2,0x2b73
bfc00ac8:	3652da44 	ori	s2,s2,0xda44
bfc00acc:	1612077b 	bne	s0,s2,bfc028bc <inst_error>
bfc00ad0:	00000000 	nop
bfc00ad4:	3c088493 	lui	t0,0x8493
bfc00ad8:	35080c00 	ori	t0,t0,0xc00
bfc00adc:	3c09f5c0 	lui	t1,0xf5c0
bfc00ae0:	35294224 	ori	t1,t1,0x4224
bfc00ae4:	01098023 	subu	s0,t0,t1
bfc00ae8:	3c128ed2 	lui	s2,0x8ed2
bfc00aec:	3652c9dc 	ori	s2,s2,0xc9dc
bfc00af0:	16120772 	bne	s0,s2,bfc028bc <inst_error>
bfc00af4:	00000000 	nop
bfc00af8:	3c08e1f5 	lui	t0,0xe1f5
bfc00afc:	35085702 	ori	t0,t0,0x5702
bfc00b00:	3c0941fc 	lui	t1,0x41fc
bfc00b04:	35292a68 	ori	t1,t1,0x2a68
bfc00b08:	01098023 	subu	s0,t0,t1
bfc00b0c:	3c129ff9 	lui	s2,0x9ff9
bfc00b10:	36522c9a 	ori	s2,s2,0x2c9a
bfc00b14:	16120769 	bne	s0,s2,bfc028bc <inst_error>
bfc00b18:	00000000 	nop
bfc00b1c:	3c08fe1b 	lui	t0,0xfe1b
bfc00b20:	350855e2 	ori	t0,t0,0x55e2
bfc00b24:	3c0944d4 	lui	t1,0x44d4
bfc00b28:	3529b784 	ori	t1,t1,0xb784
bfc00b2c:	01098023 	subu	s0,t0,t1
bfc00b30:	3c12b946 	lui	s2,0xb946
bfc00b34:	36529e5e 	ori	s2,s2,0x9e5e
bfc00b38:	16120760 	bne	s0,s2,bfc028bc <inst_error>
bfc00b3c:	00000000 	nop
bfc00b40:	3c08a8c6 	lui	t0,0xa8c6
bfc00b44:	350899f8 	ori	t0,t0,0x99f8
bfc00b48:	3c094056 	lui	t1,0x4056
bfc00b4c:	3529c3a8 	ori	t1,t1,0xc3a8
bfc00b50:	01098023 	subu	s0,t0,t1
bfc00b54:	3c12686f 	lui	s2,0x686f
bfc00b58:	3652d650 	ori	s2,s2,0xd650
bfc00b5c:	16120757 	bne	s0,s2,bfc028bc <inst_error>
bfc00b60:	00000000 	nop
bfc00b64:	3c08e6e6 	lui	t0,0xe6e6
bfc00b68:	3508ad02 	ori	t0,t0,0xad02
bfc00b6c:	3c0906c3 	lui	t1,0x6c3
bfc00b70:	3529f8bc 	ori	t1,t1,0xf8bc
bfc00b74:	01098023 	subu	s0,t0,t1
bfc00b78:	3c12e022 	lui	s2,0xe022
bfc00b7c:	3652b446 	ori	s2,s2,0xb446
bfc00b80:	1612074e 	bne	s0,s2,bfc028bc <inst_error>
bfc00b84:	00000000 	nop
bfc00b88:	3c08f305 	lui	t0,0xf305
bfc00b8c:	350870c0 	ori	t0,t0,0x70c0
bfc00b90:	3c092fd8 	lui	t1,0x2fd8
bfc00b94:	35296c00 	ori	t1,t1,0x6c00
bfc00b98:	01098023 	subu	s0,t0,t1
bfc00b9c:	3c12c32d 	lui	s2,0xc32d
bfc00ba0:	365204c0 	ori	s2,s2,0x4c0
bfc00ba4:	16120745 	bne	s0,s2,bfc028bc <inst_error>
bfc00ba8:	00000000 	nop
bfc00bac:	3c086add 	lui	t0,0x6add
bfc00bb0:	3508b000 	ori	t0,t0,0xb000
bfc00bb4:	3c0972dd 	lui	t1,0x72dd
bfc00bb8:	3529f116 	ori	t1,t1,0xf116
bfc00bbc:	01098023 	subu	s0,t0,t1
bfc00bc0:	3c12f7ff 	lui	s2,0xf7ff
bfc00bc4:	3652beea 	ori	s2,s2,0xbeea
bfc00bc8:	1612073c 	bne	s0,s2,bfc028bc <inst_error>
bfc00bcc:	00000000 	nop
bfc00bd0:	3c08005a 	lui	t0,0x5a
bfc00bd4:	35084666 	ori	t0,t0,0x4666
bfc00bd8:	3c0987aa 	lui	t1,0x87aa
bfc00bdc:	352908e6 	ori	t1,t1,0x8e6
bfc00be0:	01098023 	subu	s0,t0,t1
bfc00be4:	3c1278b0 	lui	s2,0x78b0
bfc00be8:	36523d80 	ori	s2,s2,0x3d80
bfc00bec:	16120733 	bne	s0,s2,bfc028bc <inst_error>
bfc00bf0:	00000000 	nop
bfc00bf4:	3c0892c3 	lui	t0,0x92c3
bfc00bf8:	35084fdc 	ori	t0,t0,0x4fdc
bfc00bfc:	3c09eed1 	lui	t1,0xeed1
bfc00c00:	35295158 	ori	t1,t1,0x5158
bfc00c04:	01098023 	subu	s0,t0,t1
bfc00c08:	3c12a3f1 	lui	s2,0xa3f1
bfc00c0c:	3652fe84 	ori	s2,s2,0xfe84
bfc00c10:	1612072a 	bne	s0,s2,bfc028bc <inst_error>
bfc00c14:	00000000 	nop
bfc00c18:	3c08b925 	lui	t0,0xb925
bfc00c1c:	35083436 	ori	t0,t0,0x3436
bfc00c20:	3c09123d 	lui	t1,0x123d
bfc00c24:	35295420 	ori	t1,t1,0x5420
bfc00c28:	01098023 	subu	s0,t0,t1
bfc00c2c:	3c12a6e7 	lui	s2,0xa6e7
bfc00c30:	3652e016 	ori	s2,s2,0xe016
bfc00c34:	16120721 	bne	s0,s2,bfc028bc <inst_error>
bfc00c38:	00000000 	nop
bfc00c3c:	3c08d65e 	lui	t0,0xd65e
bfc00c40:	350856b0 	ori	t0,t0,0x56b0
bfc00c44:	3c09ab98 	lui	t1,0xab98
bfc00c48:	35290008 	ori	t1,t1,0x8
bfc00c4c:	01098023 	subu	s0,t0,t1
bfc00c50:	3c122ac6 	lui	s2,0x2ac6
bfc00c54:	365256a8 	ori	s2,s2,0x56a8
bfc00c58:	16120718 	bne	s0,s2,bfc028bc <inst_error>
bfc00c5c:	00000000 	nop
bfc00c60:	3c08ac7c 	lui	t0,0xac7c
bfc00c64:	3508059e 	ori	t0,t0,0x59e
bfc00c68:	3c0952dc 	lui	t1,0x52dc
bfc00c6c:	35294fa0 	ori	t1,t1,0x4fa0
bfc00c70:	01098023 	subu	s0,t0,t1
bfc00c74:	3c12599f 	lui	s2,0x599f
bfc00c78:	3652b5fe 	ori	s2,s2,0xb5fe
bfc00c7c:	1612070f 	bne	s0,s2,bfc028bc <inst_error>
bfc00c80:	00000000 	nop
bfc00c84:	3c08bc07 	lui	t0,0xbc07
bfc00c88:	3508d9da 	ori	t0,t0,0xd9da
bfc00c8c:	3c09ad7b 	lui	t1,0xad7b
bfc00c90:	3529bcec 	ori	t1,t1,0xbcec
bfc00c94:	01098023 	subu	s0,t0,t1
bfc00c98:	3c120e8c 	lui	s2,0xe8c
bfc00c9c:	36521cee 	ori	s2,s2,0x1cee
bfc00ca0:	16120706 	bne	s0,s2,bfc028bc <inst_error>
bfc00ca4:	00000000 	nop
bfc00ca8:	3c086b4e 	lui	t0,0x6b4e
bfc00cac:	35086d00 	ori	t0,t0,0x6d00
bfc00cb0:	3c09ae14 	lui	t1,0xae14
bfc00cb4:	35296cf7 	ori	t1,t1,0x6cf7
bfc00cb8:	01098023 	subu	s0,t0,t1
bfc00cbc:	3c12bd3a 	lui	s2,0xbd3a
bfc00cc0:	36520009 	ori	s2,s2,0x9
bfc00cc4:	161206fd 	bne	s0,s2,bfc028bc <inst_error>
bfc00cc8:	00000000 	nop
bfc00ccc:	3c086337 	lui	t0,0x6337
bfc00cd0:	35089060 	ori	t0,t0,0x9060
bfc00cd4:	3c0919bd 	lui	t1,0x19bd
bfc00cd8:	3529810e 	ori	t1,t1,0x810e
bfc00cdc:	01098023 	subu	s0,t0,t1
bfc00ce0:	3c12497a 	lui	s2,0x497a
bfc00ce4:	36520f52 	ori	s2,s2,0xf52
bfc00ce8:	161206f4 	bne	s0,s2,bfc028bc <inst_error>
bfc00cec:	00000000 	nop
bfc00cf0:	3c08904e 	lui	t0,0x904e
bfc00cf4:	35080384 	ori	t0,t0,0x384
bfc00cf8:	3c09aa67 	lui	t1,0xaa67
bfc00cfc:	3529e29c 	ori	t1,t1,0xe29c
bfc00d00:	01098023 	subu	s0,t0,t1
bfc00d04:	3c12e5e6 	lui	s2,0xe5e6
bfc00d08:	365220e8 	ori	s2,s2,0x20e8
bfc00d0c:	161206eb 	bne	s0,s2,bfc028bc <inst_error>
bfc00d10:	00000000 	nop
bfc00d14:	3c0879cc 	lui	t0,0x79cc
bfc00d18:	35088db2 	ori	t0,t0,0x8db2
bfc00d1c:	3c099ae3 	lui	t1,0x9ae3
bfc00d20:	352999aa 	ori	t1,t1,0x99aa
bfc00d24:	01098023 	subu	s0,t0,t1
bfc00d28:	3c12dee8 	lui	s2,0xdee8
bfc00d2c:	3652f408 	ori	s2,s2,0xf408
bfc00d30:	161206e2 	bne	s0,s2,bfc028bc <inst_error>
bfc00d34:	00000000 	nop
bfc00d38:	3c08ce51 	lui	t0,0xce51
bfc00d3c:	3508dd0c 	ori	t0,t0,0xdd0c
bfc00d40:	3c091836 	lui	t1,0x1836
bfc00d44:	3529ad40 	ori	t1,t1,0xad40
bfc00d48:	01098023 	subu	s0,t0,t1
bfc00d4c:	3c12b61b 	lui	s2,0xb61b
bfc00d50:	36522fcc 	ori	s2,s2,0x2fcc
bfc00d54:	161206d9 	bne	s0,s2,bfc028bc <inst_error>
bfc00d58:	00000000 	nop
bfc00d5c:	3c08ea3b 	lui	t0,0xea3b
bfc00d60:	3508f860 	ori	t0,t0,0xf860
bfc00d64:	3c090248 	lui	t1,0x248
bfc00d68:	3529a513 	ori	t1,t1,0xa513
bfc00d6c:	01098023 	subu	s0,t0,t1
bfc00d70:	3c12e7f3 	lui	s2,0xe7f3
bfc00d74:	3652534d 	ori	s2,s2,0x534d
bfc00d78:	161206d0 	bne	s0,s2,bfc028bc <inst_error>
bfc00d7c:	00000000 	nop
bfc00d80:	3c0840d4 	lui	t0,0x40d4
bfc00d84:	3508aa2a 	ori	t0,t0,0xaa2a
bfc00d88:	3c09d4da 	lui	t1,0xd4da
bfc00d8c:	3529cd6f 	ori	t1,t1,0xcd6f
bfc00d90:	01098023 	subu	s0,t0,t1
bfc00d94:	3c126bf9 	lui	s2,0x6bf9
bfc00d98:	3652dcbb 	ori	s2,s2,0xdcbb
bfc00d9c:	161206c7 	bne	s0,s2,bfc028bc <inst_error>
bfc00da0:	00000000 	nop
bfc00da4:	3c0853e3 	lui	t0,0x53e3
bfc00da8:	3508d700 	ori	t0,t0,0xd700
bfc00dac:	3c094f33 	lui	t1,0x4f33
bfc00db0:	3529d300 	ori	t1,t1,0xd300
bfc00db4:	01098023 	subu	s0,t0,t1
bfc00db8:	3c1204b0 	lui	s2,0x4b0
bfc00dbc:	36520400 	ori	s2,s2,0x400
bfc00dc0:	161206be 	bne	s0,s2,bfc028bc <inst_error>
bfc00dc4:	00000000 	nop
bfc00dc8:	3c0830b8 	lui	t0,0x30b8
bfc00dcc:	3508cba6 	ori	t0,t0,0xcba6
bfc00dd0:	3c093e29 	lui	t1,0x3e29
bfc00dd4:	3529f09e 	ori	t1,t1,0xf09e
bfc00dd8:	01098023 	subu	s0,t0,t1
bfc00ddc:	3c12f28e 	lui	s2,0xf28e
bfc00de0:	3652db08 	ori	s2,s2,0xdb08
bfc00de4:	161206b5 	bne	s0,s2,bfc028bc <inst_error>
bfc00de8:	00000000 	nop
bfc00dec:	3c08f4af 	lui	t0,0xf4af
bfc00df0:	35082845 	ori	t0,t0,0x2845
bfc00df4:	3c095565 	lui	t1,0x5565
bfc00df8:	35294200 	ori	t1,t1,0x4200
bfc00dfc:	01098023 	subu	s0,t0,t1
bfc00e00:	3c129f49 	lui	s2,0x9f49
bfc00e04:	3652e645 	ori	s2,s2,0xe645
bfc00e08:	161206ac 	bne	s0,s2,bfc028bc <inst_error>
bfc00e0c:	00000000 	nop
bfc00e10:	3c08cb0b 	lui	t0,0xcb0b
bfc00e14:	3508e8f8 	ori	t0,t0,0xe8f8
bfc00e18:	3c093473 	lui	t1,0x3473
bfc00e1c:	352965c8 	ori	t1,t1,0x65c8
bfc00e20:	01098023 	subu	s0,t0,t1
bfc00e24:	3c129698 	lui	s2,0x9698
bfc00e28:	36528330 	ori	s2,s2,0x8330
bfc00e2c:	161206a3 	bne	s0,s2,bfc028bc <inst_error>
bfc00e30:	00000000 	nop
bfc00e34:	3c08692e 	lui	t0,0x692e
bfc00e38:	35081180 	ori	t0,t0,0x1180
bfc00e3c:	3c09c188 	lui	t1,0xc188
bfc00e40:	3529d6a0 	ori	t1,t1,0xd6a0
bfc00e44:	01098023 	subu	s0,t0,t1
bfc00e48:	3c12a7a5 	lui	s2,0xa7a5
bfc00e4c:	36523ae0 	ori	s2,s2,0x3ae0
bfc00e50:	1612069a 	bne	s0,s2,bfc028bc <inst_error>
bfc00e54:	00000000 	nop
bfc00e58:	3c08fe94 	lui	t0,0xfe94
bfc00e5c:	3508aaa8 	ori	t0,t0,0xaaa8
bfc00e60:	3c09ef27 	lui	t1,0xef27
bfc00e64:	3529122e 	ori	t1,t1,0x122e
bfc00e68:	01098023 	subu	s0,t0,t1
bfc00e6c:	3c120f6d 	lui	s2,0xf6d
bfc00e70:	3652987a 	ori	s2,s2,0x987a
bfc00e74:	16120691 	bne	s0,s2,bfc028bc <inst_error>
bfc00e78:	00000000 	nop
bfc00e7c:	3c08a1f3 	lui	t0,0xa1f3
bfc00e80:	35086ec0 	ori	t0,t0,0x6ec0
bfc00e84:	3c096669 	lui	t1,0x6669
bfc00e88:	35293db2 	ori	t1,t1,0x3db2
bfc00e8c:	01098023 	subu	s0,t0,t1
bfc00e90:	3c123b8a 	lui	s2,0x3b8a
bfc00e94:	3652310e 	ori	s2,s2,0x310e
bfc00e98:	16120688 	bne	s0,s2,bfc028bc <inst_error>
bfc00e9c:	00000000 	nop
bfc00ea0:	3c08ae2f 	lui	t0,0xae2f
bfc00ea4:	3508b728 	ori	t0,t0,0xb728
bfc00ea8:	3c094d61 	lui	t1,0x4d61
bfc00eac:	35297672 	ori	t1,t1,0x7672
bfc00eb0:	01098023 	subu	s0,t0,t1
bfc00eb4:	3c1260ce 	lui	s2,0x60ce
bfc00eb8:	365240b6 	ori	s2,s2,0x40b6
bfc00ebc:	1612067f 	bne	s0,s2,bfc028bc <inst_error>
bfc00ec0:	00000000 	nop
bfc00ec4:	3c089ba7 	lui	t0,0x9ba7
bfc00ec8:	3508b6e2 	ori	t0,t0,0xb6e2
bfc00ecc:	3c091ebf 	lui	t1,0x1ebf
bfc00ed0:	35298890 	ori	t1,t1,0x8890
bfc00ed4:	01098023 	subu	s0,t0,t1
bfc00ed8:	3c127ce8 	lui	s2,0x7ce8
bfc00edc:	36522e52 	ori	s2,s2,0x2e52
bfc00ee0:	16120676 	bne	s0,s2,bfc028bc <inst_error>
bfc00ee4:	00000000 	nop
bfc00ee8:	3c0860ef 	lui	t0,0x60ef
bfc00eec:	3508d1c4 	ori	t0,t0,0xd1c4
bfc00ef0:	3c090fe2 	lui	t1,0xfe2
bfc00ef4:	3529f390 	ori	t1,t1,0xf390
bfc00ef8:	01098023 	subu	s0,t0,t1
bfc00efc:	3c12510c 	lui	s2,0x510c
bfc00f00:	3652de34 	ori	s2,s2,0xde34
bfc00f04:	1612066d 	bne	s0,s2,bfc028bc <inst_error>
bfc00f08:	00000000 	nop
bfc00f0c:	3c0831c9 	lui	t0,0x31c9
bfc00f10:	35088f88 	ori	t0,t0,0x8f88
bfc00f14:	3c09bbc3 	lui	t1,0xbbc3
bfc00f18:	3529d688 	ori	t1,t1,0xd688
bfc00f1c:	01098023 	subu	s0,t0,t1
bfc00f20:	3c127605 	lui	s2,0x7605
bfc00f24:	3652b900 	ori	s2,s2,0xb900
bfc00f28:	16120664 	bne	s0,s2,bfc028bc <inst_error>
bfc00f2c:	00000000 	nop
bfc00f30:	3c08d891 	lui	t0,0xd891
bfc00f34:	35087445 	ori	t0,t0,0x7445
bfc00f38:	3c096589 	lui	t1,0x6589
bfc00f3c:	3529f460 	ori	t1,t1,0xf460
bfc00f40:	01098023 	subu	s0,t0,t1
bfc00f44:	3c127307 	lui	s2,0x7307
bfc00f48:	36527fe5 	ori	s2,s2,0x7fe5
bfc00f4c:	1612065b 	bne	s0,s2,bfc028bc <inst_error>
bfc00f50:	00000000 	nop
bfc00f54:	3c0825b4 	lui	t0,0x25b4
bfc00f58:	35085134 	ori	t0,t0,0x5134
bfc00f5c:	3c09ad5b 	lui	t1,0xad5b
bfc00f60:	35293f8c 	ori	t1,t1,0x3f8c
bfc00f64:	01098023 	subu	s0,t0,t1
bfc00f68:	3c127859 	lui	s2,0x7859
bfc00f6c:	365211a8 	ori	s2,s2,0x11a8
bfc00f70:	16120652 	bne	s0,s2,bfc028bc <inst_error>
bfc00f74:	00000000 	nop
bfc00f78:	3c0834b0 	lui	t0,0x34b0
bfc00f7c:	3508d278 	ori	t0,t0,0xd278
bfc00f80:	3c09a417 	lui	t1,0xa417
bfc00f84:	35296f7b 	ori	t1,t1,0x6f7b
bfc00f88:	01098023 	subu	s0,t0,t1
bfc00f8c:	3c129099 	lui	s2,0x9099
bfc00f90:	365262fd 	ori	s2,s2,0x62fd
bfc00f94:	16120649 	bne	s0,s2,bfc028bc <inst_error>
bfc00f98:	00000000 	nop
bfc00f9c:	3c081b1b 	lui	t0,0x1b1b
bfc00fa0:	3508d5d9 	ori	t0,t0,0xd5d9
bfc00fa4:	3c09e9ae 	lui	t1,0xe9ae
bfc00fa8:	3529b1a4 	ori	t1,t1,0xb1a4
bfc00fac:	01098023 	subu	s0,t0,t1
bfc00fb0:	3c12316d 	lui	s2,0x316d
bfc00fb4:	36522435 	ori	s2,s2,0x2435
bfc00fb8:	16120640 	bne	s0,s2,bfc028bc <inst_error>
bfc00fbc:	00000000 	nop
bfc00fc0:	3c08cf4b 	lui	t0,0xcf4b
bfc00fc4:	350810b0 	ori	t0,t0,0x10b0
bfc00fc8:	3c099124 	lui	t1,0x9124
bfc00fcc:	3529ed88 	ori	t1,t1,0xed88
bfc00fd0:	01098023 	subu	s0,t0,t1
bfc00fd4:	3c123e26 	lui	s2,0x3e26
bfc00fd8:	36522328 	ori	s2,s2,0x2328
bfc00fdc:	16120637 	bne	s0,s2,bfc028bc <inst_error>
bfc00fe0:	00000000 	nop
bfc00fe4:	3c08cb8f 	lui	t0,0xcb8f
bfc00fe8:	3508cc08 	ori	t0,t0,0xcc08
bfc00fec:	3c098ad9 	lui	t1,0x8ad9
bfc00ff0:	35299afc 	ori	t1,t1,0x9afc
bfc00ff4:	01098023 	subu	s0,t0,t1
bfc00ff8:	3c1240b6 	lui	s2,0x40b6
bfc00ffc:	3652310c 	ori	s2,s2,0x310c
bfc01000:	1612062e 	bne	s0,s2,bfc028bc <inst_error>
bfc01004:	00000000 	nop
bfc01008:	3c0852fe 	lui	t0,0x52fe
bfc0100c:	3508bbe8 	ori	t0,t0,0xbbe8
bfc01010:	3c09b0dd 	lui	t1,0xb0dd
bfc01014:	3529ef40 	ori	t1,t1,0xef40
bfc01018:	01098023 	subu	s0,t0,t1
bfc0101c:	3c12a220 	lui	s2,0xa220
bfc01020:	3652cca8 	ori	s2,s2,0xcca8
bfc01024:	16120625 	bne	s0,s2,bfc028bc <inst_error>
bfc01028:	00000000 	nop
bfc0102c:	3c087cb2 	lui	t0,0x7cb2
bfc01030:	35081da2 	ori	t0,t0,0x1da2
bfc01034:	3c09a937 	lui	t1,0xa937
bfc01038:	3529c0c0 	ori	t1,t1,0xc0c0
bfc0103c:	01098023 	subu	s0,t0,t1
bfc01040:	3c12d37a 	lui	s2,0xd37a
bfc01044:	36525ce2 	ori	s2,s2,0x5ce2
bfc01048:	1612061c 	bne	s0,s2,bfc028bc <inst_error>
bfc0104c:	00000000 	nop
bfc01050:	3c08c5d6 	lui	t0,0xc5d6
bfc01054:	3508ae80 	ori	t0,t0,0xae80
bfc01058:	3c09e29c 	lui	t1,0xe29c
bfc0105c:	35298ce0 	ori	t1,t1,0x8ce0
bfc01060:	01098023 	subu	s0,t0,t1
bfc01064:	3c12e33a 	lui	s2,0xe33a
bfc01068:	365221a0 	ori	s2,s2,0x21a0
bfc0106c:	16120613 	bne	s0,s2,bfc028bc <inst_error>
bfc01070:	00000000 	nop
bfc01074:	3c08d8cd 	lui	t0,0xd8cd
bfc01078:	350885fa 	ori	t0,t0,0x85fa
bfc0107c:	3c0981cd 	lui	t1,0x81cd
bfc01080:	35293d40 	ori	t1,t1,0x3d40
bfc01084:	01098023 	subu	s0,t0,t1
bfc01088:	3c125700 	lui	s2,0x5700
bfc0108c:	365248ba 	ori	s2,s2,0x48ba
bfc01090:	1612060a 	bne	s0,s2,bfc028bc <inst_error>
bfc01094:	00000000 	nop
bfc01098:	3c08581b 	lui	t0,0x581b
bfc0109c:	35088e64 	ori	t0,t0,0x8e64
bfc010a0:	3c09fddf 	lui	t1,0xfddf
bfc010a4:	3529c888 	ori	t1,t1,0xc888
bfc010a8:	01098023 	subu	s0,t0,t1
bfc010ac:	3c125a3b 	lui	s2,0x5a3b
bfc010b0:	3652c5dc 	ori	s2,s2,0xc5dc
bfc010b4:	16120601 	bne	s0,s2,bfc028bc <inst_error>
bfc010b8:	00000000 	nop
bfc010bc:	3c08679a 	lui	t0,0x679a
bfc010c0:	3508a14d 	ori	t0,t0,0xa14d
bfc010c4:	3c092f25 	lui	t1,0x2f25
bfc010c8:	3529362d 	ori	t1,t1,0x362d
bfc010cc:	01098023 	subu	s0,t0,t1
bfc010d0:	3c123875 	lui	s2,0x3875
bfc010d4:	36526b20 	ori	s2,s2,0x6b20
bfc010d8:	161205f8 	bne	s0,s2,bfc028bc <inst_error>
bfc010dc:	00000000 	nop
bfc010e0:	3c08c1be 	lui	t0,0xc1be
bfc010e4:	35080410 	ori	t0,t0,0x410
bfc010e8:	3c090f37 	lui	t1,0xf37
bfc010ec:	35290c48 	ori	t1,t1,0xc48
bfc010f0:	01098023 	subu	s0,t0,t1
bfc010f4:	3c12b286 	lui	s2,0xb286
bfc010f8:	3652f7c8 	ori	s2,s2,0xf7c8
bfc010fc:	161205ef 	bne	s0,s2,bfc028bc <inst_error>
bfc01100:	00000000 	nop
bfc01104:	3c08df8e 	lui	t0,0xdf8e
bfc01108:	35089f1c 	ori	t0,t0,0x9f1c
bfc0110c:	3c09207f 	lui	t1,0x207f
bfc01110:	352975b4 	ori	t1,t1,0x75b4
bfc01114:	01098023 	subu	s0,t0,t1
bfc01118:	3c12bf0f 	lui	s2,0xbf0f
bfc0111c:	36522968 	ori	s2,s2,0x2968
bfc01120:	161205e6 	bne	s0,s2,bfc028bc <inst_error>
bfc01124:	00000000 	nop
bfc01128:	3c0806f7 	lui	t0,0x6f7
bfc0112c:	3508c99b 	ori	t0,t0,0xc99b
bfc01130:	3c096217 	lui	t1,0x6217
bfc01134:	35296344 	ori	t1,t1,0x6344
bfc01138:	01098023 	subu	s0,t0,t1
bfc0113c:	3c12a4e0 	lui	s2,0xa4e0
bfc01140:	36526657 	ori	s2,s2,0x6657
bfc01144:	161205dd 	bne	s0,s2,bfc028bc <inst_error>
bfc01148:	00000000 	nop
bfc0114c:	3c085530 	lui	t0,0x5530
bfc01150:	3508a5a0 	ori	t0,t0,0xa5a0
bfc01154:	3c090457 	lui	t1,0x457
bfc01158:	35298103 	ori	t1,t1,0x8103
bfc0115c:	01098023 	subu	s0,t0,t1
bfc01160:	3c1250d9 	lui	s2,0x50d9
bfc01164:	3652249d 	ori	s2,s2,0x249d
bfc01168:	161205d4 	bne	s0,s2,bfc028bc <inst_error>
bfc0116c:	00000000 	nop
bfc01170:	3c08d403 	lui	t0,0xd403
bfc01174:	35088ae4 	ori	t0,t0,0x8ae4
bfc01178:	3c097baa 	lui	t1,0x7baa
bfc0117c:	35294c78 	ori	t1,t1,0x4c78
bfc01180:	01098023 	subu	s0,t0,t1
bfc01184:	3c125859 	lui	s2,0x5859
bfc01188:	36523e6c 	ori	s2,s2,0x3e6c
bfc0118c:	161205cb 	bne	s0,s2,bfc028bc <inst_error>
bfc01190:	00000000 	nop
bfc01194:	3c088cd5 	lui	t0,0x8cd5
bfc01198:	3508df00 	ori	t0,t0,0xdf00
bfc0119c:	3c09555f 	lui	t1,0x555f
bfc011a0:	352905db 	ori	t1,t1,0x5db
bfc011a4:	01098023 	subu	s0,t0,t1
bfc011a8:	3c123776 	lui	s2,0x3776
bfc011ac:	3652d925 	ori	s2,s2,0xd925
bfc011b0:	161205c2 	bne	s0,s2,bfc028bc <inst_error>
bfc011b4:	00000000 	nop
bfc011b8:	3c0802d8 	lui	t0,0x2d8
bfc011bc:	35085838 	ori	t0,t0,0x5838
bfc011c0:	3c09f397 	lui	t1,0xf397
bfc011c4:	35295d44 	ori	t1,t1,0x5d44
bfc011c8:	01098023 	subu	s0,t0,t1
bfc011cc:	3c120f40 	lui	s2,0xf40
bfc011d0:	3652faf4 	ori	s2,s2,0xfaf4
bfc011d4:	161205b9 	bne	s0,s2,bfc028bc <inst_error>
bfc011d8:	00000000 	nop
bfc011dc:	3c084947 	lui	t0,0x4947
bfc011e0:	3508f4c0 	ori	t0,t0,0xf4c0
bfc011e4:	3c09116b 	lui	t1,0x116b
bfc011e8:	3529b2bc 	ori	t1,t1,0xb2bc
bfc011ec:	01098023 	subu	s0,t0,t1
bfc011f0:	3c1237dc 	lui	s2,0x37dc
bfc011f4:	36524204 	ori	s2,s2,0x4204
bfc011f8:	161205b0 	bne	s0,s2,bfc028bc <inst_error>
bfc011fc:	00000000 	nop
bfc01200:	3c08c320 	lui	t0,0xc320
bfc01204:	35085480 	ori	t0,t0,0x5480
bfc01208:	3c09f357 	lui	t1,0xf357
bfc0120c:	35295cd8 	ori	t1,t1,0x5cd8
bfc01210:	01098023 	subu	s0,t0,t1
bfc01214:	3c12cfc8 	lui	s2,0xcfc8
bfc01218:	3652f7a8 	ori	s2,s2,0xf7a8
bfc0121c:	161205a7 	bne	s0,s2,bfc028bc <inst_error>
bfc01220:	00000000 	nop
bfc01224:	3c083f89 	lui	t0,0x3f89
bfc01228:	3508ff18 	ori	t0,t0,0xff18
bfc0122c:	3c09f4ff 	lui	t1,0xf4ff
bfc01230:	352996f8 	ori	t1,t1,0x96f8
bfc01234:	01098023 	subu	s0,t0,t1
bfc01238:	3c124a8a 	lui	s2,0x4a8a
bfc0123c:	36526820 	ori	s2,s2,0x6820
bfc01240:	1612059e 	bne	s0,s2,bfc028bc <inst_error>
bfc01244:	00000000 	nop
bfc01248:	3c0891ba 	lui	t0,0x91ba
bfc0124c:	3508ea53 	ori	t0,t0,0xea53
bfc01250:	3c0979f6 	lui	t1,0x79f6
bfc01254:	3529c5c8 	ori	t1,t1,0xc5c8
bfc01258:	01098023 	subu	s0,t0,t1
bfc0125c:	3c1217c4 	lui	s2,0x17c4
bfc01260:	3652248b 	ori	s2,s2,0x248b
bfc01264:	16120595 	bne	s0,s2,bfc028bc <inst_error>
bfc01268:	00000000 	nop
bfc0126c:	3c08b55f 	lui	t0,0xb55f
bfc01270:	3508972a 	ori	t0,t0,0x972a
bfc01274:	3c09a609 	lui	t1,0xa609
bfc01278:	3529a5e0 	ori	t1,t1,0xa5e0
bfc0127c:	01098023 	subu	s0,t0,t1
bfc01280:	3c120f55 	lui	s2,0xf55
bfc01284:	3652f14a 	ori	s2,s2,0xf14a
bfc01288:	1612058c 	bne	s0,s2,bfc028bc <inst_error>
bfc0128c:	00000000 	nop
bfc01290:	3c08c690 	lui	t0,0xc690
bfc01294:	3508f86f 	ori	t0,t0,0xf86f
bfc01298:	3c09820c 	lui	t1,0x820c
bfc0129c:	352954b9 	ori	t1,t1,0x54b9
bfc012a0:	01098023 	subu	s0,t0,t1
bfc012a4:	3c124484 	lui	s2,0x4484
bfc012a8:	3652a3b6 	ori	s2,s2,0xa3b6
bfc012ac:	16120583 	bne	s0,s2,bfc028bc <inst_error>
bfc012b0:	00000000 	nop
bfc012b4:	3c08c1e0 	lui	t0,0xc1e0
bfc012b8:	3508ac00 	ori	t0,t0,0xac00
bfc012bc:	3c09cc9a 	lui	t1,0xcc9a
bfc012c0:	35292edb 	ori	t1,t1,0x2edb
bfc012c4:	01098023 	subu	s0,t0,t1
bfc012c8:	3c12f546 	lui	s2,0xf546
bfc012cc:	36527d25 	ori	s2,s2,0x7d25
bfc012d0:	1612057a 	bne	s0,s2,bfc028bc <inst_error>
bfc012d4:	00000000 	nop
bfc012d8:	3c08f1b1 	lui	t0,0xf1b1
bfc012dc:	3508b086 	ori	t0,t0,0xb086
bfc012e0:	3c091724 	lui	t1,0x1724
bfc012e4:	3529c0ca 	ori	t1,t1,0xc0ca
bfc012e8:	01098023 	subu	s0,t0,t1
bfc012ec:	3c12da8c 	lui	s2,0xda8c
bfc012f0:	3652efbc 	ori	s2,s2,0xefbc
bfc012f4:	16120571 	bne	s0,s2,bfc028bc <inst_error>
bfc012f8:	00000000 	nop
bfc012fc:	3c08bfe4 	lui	t0,0xbfe4
bfc01300:	350867d8 	ori	t0,t0,0x67d8
bfc01304:	3c0990e6 	lui	t1,0x90e6
bfc01308:	35290dcf 	ori	t1,t1,0xdcf
bfc0130c:	01098023 	subu	s0,t0,t1
bfc01310:	3c122efe 	lui	s2,0x2efe
bfc01314:	36525a09 	ori	s2,s2,0x5a09
bfc01318:	16120568 	bne	s0,s2,bfc028bc <inst_error>
bfc0131c:	00000000 	nop
bfc01320:	3c0888af 	lui	t0,0x88af
bfc01324:	3508a220 	ori	t0,t0,0xa220
bfc01328:	3c09884e 	lui	t1,0x884e
bfc0132c:	35293c40 	ori	t1,t1,0x3c40
bfc01330:	01098023 	subu	s0,t0,t1
bfc01334:	3c120061 	lui	s2,0x61
bfc01338:	365265e0 	ori	s2,s2,0x65e0
bfc0133c:	1612055f 	bne	s0,s2,bfc028bc <inst_error>
bfc01340:	00000000 	nop
bfc01344:	3c08ee2b 	lui	t0,0xee2b
bfc01348:	35083d28 	ori	t0,t0,0x3d28
bfc0134c:	3c098b26 	lui	t1,0x8b26
bfc01350:	3529d1e7 	ori	t1,t1,0xd1e7
bfc01354:	01098023 	subu	s0,t0,t1
bfc01358:	3c126304 	lui	s2,0x6304
bfc0135c:	36526b41 	ori	s2,s2,0x6b41
bfc01360:	16120556 	bne	s0,s2,bfc028bc <inst_error>
bfc01364:	00000000 	nop
bfc01368:	3c08b4ad 	lui	t0,0xb4ad
bfc0136c:	350854be 	ori	t0,t0,0x54be
bfc01370:	3c0944a2 	lui	t1,0x44a2
bfc01374:	3529c3c2 	ori	t1,t1,0xc3c2
bfc01378:	01098023 	subu	s0,t0,t1
bfc0137c:	3c12700a 	lui	s2,0x700a
bfc01380:	365290fc 	ori	s2,s2,0x90fc
bfc01384:	1612054d 	bne	s0,s2,bfc028bc <inst_error>
bfc01388:	00000000 	nop
bfc0138c:	3c08c4f4 	lui	t0,0xc4f4
bfc01390:	3508a100 	ori	t0,t0,0xa100
bfc01394:	3c09e32f 	lui	t1,0xe32f
bfc01398:	35292978 	ori	t1,t1,0x2978
bfc0139c:	01098023 	subu	s0,t0,t1
bfc013a0:	3c12e1c5 	lui	s2,0xe1c5
bfc013a4:	36527788 	ori	s2,s2,0x7788
bfc013a8:	16120544 	bne	s0,s2,bfc028bc <inst_error>
bfc013ac:	00000000 	nop
bfc013b0:	3c089c7e 	lui	t0,0x9c7e
bfc013b4:	3508895a 	ori	t0,t0,0x895a
bfc013b8:	3c09327b 	lui	t1,0x327b
bfc013bc:	3529164c 	ori	t1,t1,0x164c
bfc013c0:	01098023 	subu	s0,t0,t1
bfc013c4:	3c126a03 	lui	s2,0x6a03
bfc013c8:	3652730e 	ori	s2,s2,0x730e
bfc013cc:	1612053b 	bne	s0,s2,bfc028bc <inst_error>
bfc013d0:	00000000 	nop
bfc013d4:	3c0888b9 	lui	t0,0x88b9
bfc013d8:	35088036 	ori	t0,t0,0x8036
bfc013dc:	3c09a0c0 	lui	t1,0xa0c0
bfc013e0:	35299c10 	ori	t1,t1,0x9c10
bfc013e4:	01098023 	subu	s0,t0,t1
bfc013e8:	3c12e7f8 	lui	s2,0xe7f8
bfc013ec:	3652e426 	ori	s2,s2,0xe426
bfc013f0:	16120532 	bne	s0,s2,bfc028bc <inst_error>
bfc013f4:	00000000 	nop
bfc013f8:	3c0878b5 	lui	t0,0x78b5
bfc013fc:	35084804 	ori	t0,t0,0x4804
bfc01400:	3c092de3 	lui	t1,0x2de3
bfc01404:	3529d8b4 	ori	t1,t1,0xd8b4
bfc01408:	01098023 	subu	s0,t0,t1
bfc0140c:	3c124ad1 	lui	s2,0x4ad1
bfc01410:	36526f50 	ori	s2,s2,0x6f50
bfc01414:	16120529 	bne	s0,s2,bfc028bc <inst_error>
bfc01418:	00000000 	nop
bfc0141c:	3c08e404 	lui	t0,0xe404
bfc01420:	3508ea90 	ori	t0,t0,0xea90
bfc01424:	3c09493a 	lui	t1,0x493a
bfc01428:	35298a98 	ori	t1,t1,0x8a98
bfc0142c:	01098023 	subu	s0,t0,t1
bfc01430:	3c129aca 	lui	s2,0x9aca
bfc01434:	36525ff8 	ori	s2,s2,0x5ff8
bfc01438:	16120520 	bne	s0,s2,bfc028bc <inst_error>
bfc0143c:	00000000 	nop
bfc01440:	3c084241 	lui	t0,0x4241
bfc01444:	3508cf80 	ori	t0,t0,0xcf80
bfc01448:	3c09b86f 	lui	t1,0xb86f
bfc0144c:	35292a7c 	ori	t1,t1,0x2a7c
bfc01450:	01098023 	subu	s0,t0,t1
bfc01454:	3c1289d2 	lui	s2,0x89d2
bfc01458:	3652a504 	ori	s2,s2,0xa504
bfc0145c:	16120517 	bne	s0,s2,bfc028bc <inst_error>
bfc01460:	00000000 	nop
bfc01464:	3c080af8 	lui	t0,0xaf8
bfc01468:	35082928 	ori	t0,t0,0x2928
bfc0146c:	3c0960de 	lui	t1,0x60de
bfc01470:	35296812 	ori	t1,t1,0x6812
bfc01474:	01098023 	subu	s0,t0,t1
bfc01478:	3c12aa19 	lui	s2,0xaa19
bfc0147c:	3652c116 	ori	s2,s2,0xc116
bfc01480:	1612050e 	bne	s0,s2,bfc028bc <inst_error>
bfc01484:	00000000 	nop
bfc01488:	3c08aab5 	lui	t0,0xaab5
bfc0148c:	35081132 	ori	t0,t0,0x1132
bfc01490:	3c09f37e 	lui	t1,0xf37e
bfc01494:	35299454 	ori	t1,t1,0x9454
bfc01498:	01098023 	subu	s0,t0,t1
bfc0149c:	3c12b736 	lui	s2,0xb736
bfc014a0:	36527cde 	ori	s2,s2,0x7cde
bfc014a4:	16120505 	bne	s0,s2,bfc028bc <inst_error>
bfc014a8:	00000000 	nop
bfc014ac:	3c08c7b8 	lui	t0,0xc7b8
bfc014b0:	350874cc 	ori	t0,t0,0x74cc
bfc014b4:	3c09e63f 	lui	t1,0xe63f
bfc014b8:	3529ca48 	ori	t1,t1,0xca48
bfc014bc:	01098023 	subu	s0,t0,t1
bfc014c0:	3c12e178 	lui	s2,0xe178
bfc014c4:	3652aa84 	ori	s2,s2,0xaa84
bfc014c8:	161204fc 	bne	s0,s2,bfc028bc <inst_error>
bfc014cc:	00000000 	nop
bfc014d0:	3c08f461 	lui	t0,0xf461
bfc014d4:	35089868 	ori	t0,t0,0x9868
bfc014d8:	3c098bcb 	lui	t1,0x8bcb
bfc014dc:	35292368 	ori	t1,t1,0x2368
bfc014e0:	01098023 	subu	s0,t0,t1
bfc014e4:	3c126896 	lui	s2,0x6896
bfc014e8:	36527500 	ori	s2,s2,0x7500
bfc014ec:	161204f3 	bne	s0,s2,bfc028bc <inst_error>
bfc014f0:	00000000 	nop
bfc014f4:	3c082c61 	lui	t0,0x2c61
bfc014f8:	350888e8 	ori	t0,t0,0x88e8
bfc014fc:	3c098e6f 	lui	t1,0x8e6f
bfc01500:	35297f98 	ori	t1,t1,0x7f98
bfc01504:	01098023 	subu	s0,t0,t1
bfc01508:	3c129df2 	lui	s2,0x9df2
bfc0150c:	36520950 	ori	s2,s2,0x950
bfc01510:	161204ea 	bne	s0,s2,bfc028bc <inst_error>
bfc01514:	00000000 	nop
bfc01518:	3c084140 	lui	t0,0x4140
bfc0151c:	3508a430 	ori	t0,t0,0xa430
bfc01520:	3c09ec8c 	lui	t1,0xec8c
bfc01524:	352959ce 	ori	t1,t1,0x59ce
bfc01528:	01098023 	subu	s0,t0,t1
bfc0152c:	3c1254b4 	lui	s2,0x54b4
bfc01530:	36524a62 	ori	s2,s2,0x4a62
bfc01534:	161204e1 	bne	s0,s2,bfc028bc <inst_error>
bfc01538:	00000000 	nop
bfc0153c:	3c083513 	lui	t0,0x3513
bfc01540:	35087460 	ori	t0,t0,0x7460
bfc01544:	3c09438c 	lui	t1,0x438c
bfc01548:	35293e80 	ori	t1,t1,0x3e80
bfc0154c:	01098023 	subu	s0,t0,t1
bfc01550:	3c12f187 	lui	s2,0xf187
bfc01554:	365235e0 	ori	s2,s2,0x35e0
bfc01558:	161204d8 	bne	s0,s2,bfc028bc <inst_error>
bfc0155c:	00000000 	nop
bfc01560:	3c088bc8 	lui	t0,0x8bc8
bfc01564:	35085fd0 	ori	t0,t0,0x5fd0
bfc01568:	3c09951e 	lui	t1,0x951e
bfc0156c:	3529fe00 	ori	t1,t1,0xfe00
bfc01570:	01098023 	subu	s0,t0,t1
bfc01574:	3c12f6a9 	lui	s2,0xf6a9
bfc01578:	365261d0 	ori	s2,s2,0x61d0
bfc0157c:	161204cf 	bne	s0,s2,bfc028bc <inst_error>
bfc01580:	00000000 	nop
bfc01584:	3c08ae31 	lui	t0,0xae31
bfc01588:	3508f1ac 	ori	t0,t0,0xf1ac
bfc0158c:	3c09f475 	lui	t1,0xf475
bfc01590:	35296000 	ori	t1,t1,0x6000
bfc01594:	01098023 	subu	s0,t0,t1
bfc01598:	3c12b9bc 	lui	s2,0xb9bc
bfc0159c:	365291ac 	ori	s2,s2,0x91ac
bfc015a0:	161204c6 	bne	s0,s2,bfc028bc <inst_error>
bfc015a4:	00000000 	nop
bfc015a8:	3c085242 	lui	t0,0x5242
bfc015ac:	350883d0 	ori	t0,t0,0x83d0
bfc015b0:	3c096d99 	lui	t1,0x6d99
bfc015b4:	35295d14 	ori	t1,t1,0x5d14
bfc015b8:	01098023 	subu	s0,t0,t1
bfc015bc:	3c12e4a9 	lui	s2,0xe4a9
bfc015c0:	365226bc 	ori	s2,s2,0x26bc
bfc015c4:	161204bd 	bne	s0,s2,bfc028bc <inst_error>
bfc015c8:	00000000 	nop
bfc015cc:	3c086449 	lui	t0,0x6449
bfc015d0:	350835e0 	ori	t0,t0,0x35e0
bfc015d4:	3c09af2a 	lui	t1,0xaf2a
bfc015d8:	3529427e 	ori	t1,t1,0x427e
bfc015dc:	01098023 	subu	s0,t0,t1
bfc015e0:	3c12b51e 	lui	s2,0xb51e
bfc015e4:	3652f362 	ori	s2,s2,0xf362
bfc015e8:	161204b4 	bne	s0,s2,bfc028bc <inst_error>
bfc015ec:	00000000 	nop
bfc015f0:	3c083892 	lui	t0,0x3892
bfc015f4:	3508da96 	ori	t0,t0,0xda96
bfc015f8:	3c0964e0 	lui	t1,0x64e0
bfc015fc:	3529c4c0 	ori	t1,t1,0xc4c0
bfc01600:	01098023 	subu	s0,t0,t1
bfc01604:	3c12d3b2 	lui	s2,0xd3b2
bfc01608:	365215d6 	ori	s2,s2,0x15d6
bfc0160c:	161204ab 	bne	s0,s2,bfc028bc <inst_error>
bfc01610:	00000000 	nop
bfc01614:	3c087853 	lui	t0,0x7853
bfc01618:	3508ba40 	ori	t0,t0,0xba40
bfc0161c:	3c09f602 	lui	t1,0xf602
bfc01620:	35291480 	ori	t1,t1,0x1480
bfc01624:	01098023 	subu	s0,t0,t1
bfc01628:	3c128251 	lui	s2,0x8251
bfc0162c:	3652a5c0 	ori	s2,s2,0xa5c0
bfc01630:	161204a2 	bne	s0,s2,bfc028bc <inst_error>
bfc01634:	00000000 	nop
bfc01638:	3c08e074 	lui	t0,0xe074
bfc0163c:	35083f35 	ori	t0,t0,0x3f35
bfc01640:	3c0993b8 	lui	t1,0x93b8
bfc01644:	35295350 	ori	t1,t1,0x5350
bfc01648:	01098023 	subu	s0,t0,t1
bfc0164c:	3c124cbb 	lui	s2,0x4cbb
bfc01650:	3652ebe5 	ori	s2,s2,0xebe5
bfc01654:	16120499 	bne	s0,s2,bfc028bc <inst_error>
bfc01658:	00000000 	nop
bfc0165c:	3c08a06a 	lui	t0,0xa06a
bfc01660:	3508f7a0 	ori	t0,t0,0xf7a0
bfc01664:	3c0987a3 	lui	t1,0x87a3
bfc01668:	352927e6 	ori	t1,t1,0x27e6
bfc0166c:	01098023 	subu	s0,t0,t1
bfc01670:	3c1218c7 	lui	s2,0x18c7
bfc01674:	3652cfba 	ori	s2,s2,0xcfba
bfc01678:	16120490 	bne	s0,s2,bfc028bc <inst_error>
bfc0167c:	00000000 	nop
bfc01680:	3c083427 	lui	t0,0x3427
bfc01684:	35085f06 	ori	t0,t0,0x5f06
bfc01688:	3c0905f4 	lui	t1,0x5f4
bfc0168c:	3529e400 	ori	t1,t1,0xe400
bfc01690:	01098023 	subu	s0,t0,t1
bfc01694:	3c122e32 	lui	s2,0x2e32
bfc01698:	36527b06 	ori	s2,s2,0x7b06
bfc0169c:	16120487 	bne	s0,s2,bfc028bc <inst_error>
bfc016a0:	00000000 	nop
bfc016a4:	3c08b0f7 	lui	t0,0xb0f7
bfc016a8:	3508100a 	ori	t0,t0,0x100a
bfc016ac:	3c092ef6 	lui	t1,0x2ef6
bfc016b0:	3529b86c 	ori	t1,t1,0xb86c
bfc016b4:	01098023 	subu	s0,t0,t1
bfc016b8:	3c128200 	lui	s2,0x8200
bfc016bc:	3652579e 	ori	s2,s2,0x579e
bfc016c0:	1612047e 	bne	s0,s2,bfc028bc <inst_error>
bfc016c4:	00000000 	nop
bfc016c8:	3c087b87 	lui	t0,0x7b87
bfc016cc:	35089000 	ori	t0,t0,0x9000
bfc016d0:	3c091820 	lui	t1,0x1820
bfc016d4:	35293584 	ori	t1,t1,0x3584
bfc016d8:	01098023 	subu	s0,t0,t1
bfc016dc:	3c126367 	lui	s2,0x6367
bfc016e0:	36525a7c 	ori	s2,s2,0x5a7c
bfc016e4:	16120475 	bne	s0,s2,bfc028bc <inst_error>
bfc016e8:	00000000 	nop
bfc016ec:	3c086ab0 	lui	t0,0x6ab0
bfc016f0:	35082470 	ori	t0,t0,0x2470
bfc016f4:	3c09891b 	lui	t1,0x891b
bfc016f8:	352926ff 	ori	t1,t1,0x26ff
bfc016fc:	01098023 	subu	s0,t0,t1
bfc01700:	3c12e194 	lui	s2,0xe194
bfc01704:	3652fd71 	ori	s2,s2,0xfd71
bfc01708:	1612046c 	bne	s0,s2,bfc028bc <inst_error>
bfc0170c:	00000000 	nop
bfc01710:	3c082b68 	lui	t0,0x2b68
bfc01714:	35081478 	ori	t0,t0,0x1478
bfc01718:	3c09f4fe 	lui	t1,0xf4fe
bfc0171c:	352993a8 	ori	t1,t1,0x93a8
bfc01720:	01098023 	subu	s0,t0,t1
bfc01724:	3c123669 	lui	s2,0x3669
bfc01728:	365280d0 	ori	s2,s2,0x80d0
bfc0172c:	16120463 	bne	s0,s2,bfc028bc <inst_error>
bfc01730:	00000000 	nop
bfc01734:	3c083bd5 	lui	t0,0x3bd5
bfc01738:	35089120 	ori	t0,t0,0x9120
bfc0173c:	3c0976e9 	lui	t1,0x76e9
bfc01740:	3529cc2c 	ori	t1,t1,0xcc2c
bfc01744:	01098023 	subu	s0,t0,t1
bfc01748:	3c12c4eb 	lui	s2,0xc4eb
bfc0174c:	3652c4f4 	ori	s2,s2,0xc4f4
bfc01750:	1612045a 	bne	s0,s2,bfc028bc <inst_error>
bfc01754:	00000000 	nop
bfc01758:	3c084d0a 	lui	t0,0x4d0a
bfc0175c:	35081d00 	ori	t0,t0,0x1d00
bfc01760:	3c0944fd 	lui	t1,0x44fd
bfc01764:	3529bcc0 	ori	t1,t1,0xbcc0
bfc01768:	01098023 	subu	s0,t0,t1
bfc0176c:	3c12080c 	lui	s2,0x80c
bfc01770:	36526040 	ori	s2,s2,0x6040
bfc01774:	16120451 	bne	s0,s2,bfc028bc <inst_error>
bfc01778:	00000000 	nop
bfc0177c:	3c08fb2c 	lui	t0,0xfb2c
bfc01780:	3508bab0 	ori	t0,t0,0xbab0
bfc01784:	3c0946f6 	lui	t1,0x46f6
bfc01788:	35293e58 	ori	t1,t1,0x3e58
bfc0178c:	01098023 	subu	s0,t0,t1
bfc01790:	3c12b436 	lui	s2,0xb436
bfc01794:	36527c58 	ori	s2,s2,0x7c58
bfc01798:	16120448 	bne	s0,s2,bfc028bc <inst_error>
bfc0179c:	00000000 	nop
bfc017a0:	3c0877ab 	lui	t0,0x77ab
bfc017a4:	3508dbef 	ori	t0,t0,0xdbef
bfc017a8:	3c099db5 	lui	t1,0x9db5
bfc017ac:	3529bb31 	ori	t1,t1,0xbb31
bfc017b0:	01098023 	subu	s0,t0,t1
bfc017b4:	3c12d9f6 	lui	s2,0xd9f6
bfc017b8:	365220be 	ori	s2,s2,0x20be
bfc017bc:	1612043f 	bne	s0,s2,bfc028bc <inst_error>
bfc017c0:	00000000 	nop
bfc017c4:	3c0870c2 	lui	t0,0x70c2
bfc017c8:	3508c980 	ori	t0,t0,0xc980
bfc017cc:	3c09f071 	lui	t1,0xf071
bfc017d0:	3529d8c7 	ori	t1,t1,0xd8c7
bfc017d4:	01098023 	subu	s0,t0,t1
bfc017d8:	3c128050 	lui	s2,0x8050
bfc017dc:	3652f0b9 	ori	s2,s2,0xf0b9
bfc017e0:	16120436 	bne	s0,s2,bfc028bc <inst_error>
bfc017e4:	00000000 	nop
bfc017e8:	3c08b13a 	lui	t0,0xb13a
bfc017ec:	35082182 	ori	t0,t0,0x2182
bfc017f0:	3c099099 	lui	t1,0x9099
bfc017f4:	3529d9f0 	ori	t1,t1,0xd9f0
bfc017f8:	01098023 	subu	s0,t0,t1
bfc017fc:	3c1220a0 	lui	s2,0x20a0
bfc01800:	36524792 	ori	s2,s2,0x4792
bfc01804:	1612042d 	bne	s0,s2,bfc028bc <inst_error>
bfc01808:	00000000 	nop
bfc0180c:	3c08476d 	lui	t0,0x476d
bfc01810:	350821c0 	ori	t0,t0,0x21c0
bfc01814:	3c092dfd 	lui	t1,0x2dfd
bfc01818:	35297322 	ori	t1,t1,0x7322
bfc0181c:	01098023 	subu	s0,t0,t1
bfc01820:	3c12196f 	lui	s2,0x196f
bfc01824:	3652ae9e 	ori	s2,s2,0xae9e
bfc01828:	16120424 	bne	s0,s2,bfc028bc <inst_error>
bfc0182c:	00000000 	nop
bfc01830:	3c081906 	lui	t0,0x1906
bfc01834:	3508e980 	ori	t0,t0,0xe980
bfc01838:	3c09de2b 	lui	t1,0xde2b
bfc0183c:	3529a7c1 	ori	t1,t1,0xa7c1
bfc01840:	01098023 	subu	s0,t0,t1
bfc01844:	3c123adb 	lui	s2,0x3adb
bfc01848:	365241bf 	ori	s2,s2,0x41bf
bfc0184c:	1612041b 	bne	s0,s2,bfc028bc <inst_error>
bfc01850:	00000000 	nop
bfc01854:	3c0878ac 	lui	t0,0x78ac
bfc01858:	350802fa 	ori	t0,t0,0x2fa
bfc0185c:	3c09023b 	lui	t1,0x23b
bfc01860:	3529f9ac 	ori	t1,t1,0xf9ac
bfc01864:	01098023 	subu	s0,t0,t1
bfc01868:	3c127670 	lui	s2,0x7670
bfc0186c:	3652094e 	ori	s2,s2,0x94e
bfc01870:	16120412 	bne	s0,s2,bfc028bc <inst_error>
bfc01874:	00000000 	nop
bfc01878:	3c087c7c 	lui	t0,0x7c7c
bfc0187c:	3508db40 	ori	t0,t0,0xdb40
bfc01880:	3c09c081 	lui	t1,0xc081
bfc01884:	352990dc 	ori	t1,t1,0x90dc
bfc01888:	01098023 	subu	s0,t0,t1
bfc0188c:	3c12bbfb 	lui	s2,0xbbfb
bfc01890:	36524a64 	ori	s2,s2,0x4a64
bfc01894:	16120409 	bne	s0,s2,bfc028bc <inst_error>
bfc01898:	00000000 	nop
bfc0189c:	3c08b5a5 	lui	t0,0xb5a5
bfc018a0:	350843c7 	ori	t0,t0,0x43c7
bfc018a4:	3c096fd3 	lui	t1,0x6fd3
bfc018a8:	35292de2 	ori	t1,t1,0x2de2
bfc018ac:	01098023 	subu	s0,t0,t1
bfc018b0:	3c1245d2 	lui	s2,0x45d2
bfc018b4:	365215e5 	ori	s2,s2,0x15e5
bfc018b8:	16120400 	bne	s0,s2,bfc028bc <inst_error>
bfc018bc:	00000000 	nop
bfc018c0:	3c08aeef 	lui	t0,0xaeef
bfc018c4:	35083248 	ori	t0,t0,0x3248
bfc018c8:	3c09fc4c 	lui	t1,0xfc4c
bfc018cc:	352987f0 	ori	t1,t1,0x87f0
bfc018d0:	01098023 	subu	s0,t0,t1
bfc018d4:	3c12b2a2 	lui	s2,0xb2a2
bfc018d8:	3652aa58 	ori	s2,s2,0xaa58
bfc018dc:	161203f7 	bne	s0,s2,bfc028bc <inst_error>
bfc018e0:	00000000 	nop
bfc018e4:	3c089e6b 	lui	t0,0x9e6b
bfc018e8:	35088bde 	ori	t0,t0,0x8bde
bfc018ec:	3c098b4c 	lui	t1,0x8b4c
bfc018f0:	352953ac 	ori	t1,t1,0x53ac
bfc018f4:	01098023 	subu	s0,t0,t1
bfc018f8:	3c12131f 	lui	s2,0x131f
bfc018fc:	36523832 	ori	s2,s2,0x3832
bfc01900:	161203ee 	bne	s0,s2,bfc028bc <inst_error>
bfc01904:	00000000 	nop
bfc01908:	3c08ec13 	lui	t0,0xec13
bfc0190c:	35080070 	ori	t0,t0,0x70
bfc01910:	3c099211 	lui	t1,0x9211
bfc01914:	35298900 	ori	t1,t1,0x8900
bfc01918:	01098023 	subu	s0,t0,t1
bfc0191c:	3c125a01 	lui	s2,0x5a01
bfc01920:	36527770 	ori	s2,s2,0x7770
bfc01924:	161203e5 	bne	s0,s2,bfc028bc <inst_error>
bfc01928:	00000000 	nop
bfc0192c:	3c085369 	lui	t0,0x5369
bfc01930:	350845b7 	ori	t0,t0,0x45b7
bfc01934:	3c0922bd 	lui	t1,0x22bd
bfc01938:	35290eb0 	ori	t1,t1,0xeb0
bfc0193c:	01098023 	subu	s0,t0,t1
bfc01940:	3c1230ac 	lui	s2,0x30ac
bfc01944:	36523707 	ori	s2,s2,0x3707
bfc01948:	161203dc 	bne	s0,s2,bfc028bc <inst_error>
bfc0194c:	00000000 	nop
bfc01950:	3c086cd6 	lui	t0,0x6cd6
bfc01954:	35087d7c 	ori	t0,t0,0x7d7c
bfc01958:	3c090681 	lui	t1,0x681
bfc0195c:	3529f3f1 	ori	t1,t1,0xf3f1
bfc01960:	01098023 	subu	s0,t0,t1
bfc01964:	3c126654 	lui	s2,0x6654
bfc01968:	3652898b 	ori	s2,s2,0x898b
bfc0196c:	161203d3 	bne	s0,s2,bfc028bc <inst_error>
bfc01970:	00000000 	nop
bfc01974:	3c08aaad 	lui	t0,0xaaad
bfc01978:	35087566 	ori	t0,t0,0x7566
bfc0197c:	3c0966f3 	lui	t1,0x66f3
bfc01980:	3529d400 	ori	t1,t1,0xd400
bfc01984:	01098023 	subu	s0,t0,t1
bfc01988:	3c1243b9 	lui	s2,0x43b9
bfc0198c:	3652a166 	ori	s2,s2,0xa166
bfc01990:	161203ca 	bne	s0,s2,bfc028bc <inst_error>
bfc01994:	00000000 	nop
bfc01998:	3c082a60 	lui	t0,0x2a60
bfc0199c:	3508be07 	ori	t0,t0,0xbe07
bfc019a0:	3c09b8d2 	lui	t1,0xb8d2
bfc019a4:	3529339c 	ori	t1,t1,0x339c
bfc019a8:	01098023 	subu	s0,t0,t1
bfc019ac:	3c12718e 	lui	s2,0x718e
bfc019b0:	36528a6b 	ori	s2,s2,0x8a6b
bfc019b4:	161203c1 	bne	s0,s2,bfc028bc <inst_error>
bfc019b8:	00000000 	nop
bfc019bc:	3c08b867 	lui	t0,0xb867
bfc019c0:	35082c5a 	ori	t0,t0,0x2c5a
bfc019c4:	3c098229 	lui	t1,0x8229
bfc019c8:	35295036 	ori	t1,t1,0x5036
bfc019cc:	01098023 	subu	s0,t0,t1
bfc019d0:	3c12363d 	lui	s2,0x363d
bfc019d4:	3652dc24 	ori	s2,s2,0xdc24
bfc019d8:	161203b8 	bne	s0,s2,bfc028bc <inst_error>
bfc019dc:	00000000 	nop
bfc019e0:	3c08db10 	lui	t0,0xdb10
bfc019e4:	35085dac 	ori	t0,t0,0x5dac
bfc019e8:	3c090fd4 	lui	t1,0xfd4
bfc019ec:	35298120 	ori	t1,t1,0x8120
bfc019f0:	01098023 	subu	s0,t0,t1
bfc019f4:	3c12cb3b 	lui	s2,0xcb3b
bfc019f8:	3652dc8c 	ori	s2,s2,0xdc8c
bfc019fc:	161203af 	bne	s0,s2,bfc028bc <inst_error>
bfc01a00:	00000000 	nop
bfc01a04:	3c082639 	lui	t0,0x2639
bfc01a08:	35088420 	ori	t0,t0,0x8420
bfc01a0c:	3c09ab43 	lui	t1,0xab43
bfc01a10:	35292e4a 	ori	t1,t1,0x2e4a
bfc01a14:	01098023 	subu	s0,t0,t1
bfc01a18:	3c127af6 	lui	s2,0x7af6
bfc01a1c:	365255d6 	ori	s2,s2,0x55d6
bfc01a20:	161203a6 	bne	s0,s2,bfc028bc <inst_error>
bfc01a24:	00000000 	nop
bfc01a28:	3c081ac8 	lui	t0,0x1ac8
bfc01a2c:	35080bd0 	ori	t0,t0,0xbd0
bfc01a30:	3c091678 	lui	t1,0x1678
bfc01a34:	3529bda8 	ori	t1,t1,0xbda8
bfc01a38:	01098023 	subu	s0,t0,t1
bfc01a3c:	3c12044f 	lui	s2,0x44f
bfc01a40:	36524e28 	ori	s2,s2,0x4e28
bfc01a44:	1612039d 	bne	s0,s2,bfc028bc <inst_error>
bfc01a48:	00000000 	nop
bfc01a4c:	3c08f727 	lui	t0,0xf727
bfc01a50:	3508a30e 	ori	t0,t0,0xa30e
bfc01a54:	3c09ab1f 	lui	t1,0xab1f
bfc01a58:	352990f0 	ori	t1,t1,0x90f0
bfc01a5c:	01098023 	subu	s0,t0,t1
bfc01a60:	3c124c08 	lui	s2,0x4c08
bfc01a64:	3652121e 	ori	s2,s2,0x121e
bfc01a68:	16120394 	bne	s0,s2,bfc028bc <inst_error>
bfc01a6c:	00000000 	nop
bfc01a70:	3c080178 	lui	t0,0x178
bfc01a74:	3508bb00 	ori	t0,t0,0xbb00
bfc01a78:	3c096ca8 	lui	t1,0x6ca8
bfc01a7c:	3529f6d0 	ori	t1,t1,0xf6d0
bfc01a80:	01098023 	subu	s0,t0,t1
bfc01a84:	3c1294cf 	lui	s2,0x94cf
bfc01a88:	3652c430 	ori	s2,s2,0xc430
bfc01a8c:	1612038b 	bne	s0,s2,bfc028bc <inst_error>
bfc01a90:	00000000 	nop
bfc01a94:	3c0855d0 	lui	t0,0x55d0
bfc01a98:	3508ca5e 	ori	t0,t0,0xca5e
bfc01a9c:	3c092e56 	lui	t1,0x2e56
bfc01aa0:	3529c9b4 	ori	t1,t1,0xc9b4
bfc01aa4:	01098023 	subu	s0,t0,t1
bfc01aa8:	3c12277a 	lui	s2,0x277a
bfc01aac:	365200aa 	ori	s2,s2,0xaa
bfc01ab0:	16120382 	bne	s0,s2,bfc028bc <inst_error>
bfc01ab4:	00000000 	nop
bfc01ab8:	3c088d99 	lui	t0,0x8d99
bfc01abc:	3508ae61 	ori	t0,t0,0xae61
bfc01ac0:	3c09ce4a 	lui	t1,0xce4a
bfc01ac4:	3529ce70 	ori	t1,t1,0xce70
bfc01ac8:	01098023 	subu	s0,t0,t1
bfc01acc:	3c12bf4e 	lui	s2,0xbf4e
bfc01ad0:	3652dff1 	ori	s2,s2,0xdff1
bfc01ad4:	16120379 	bne	s0,s2,bfc028bc <inst_error>
bfc01ad8:	00000000 	nop
bfc01adc:	3c08e239 	lui	t0,0xe239
bfc01ae0:	35085b00 	ori	t0,t0,0x5b00
bfc01ae4:	3c097673 	lui	t1,0x7673
bfc01ae8:	3529d91e 	ori	t1,t1,0xd91e
bfc01aec:	01098023 	subu	s0,t0,t1
bfc01af0:	3c126bc5 	lui	s2,0x6bc5
bfc01af4:	365281e2 	ori	s2,s2,0x81e2
bfc01af8:	16120370 	bne	s0,s2,bfc028bc <inst_error>
bfc01afc:	00000000 	nop
bfc01b00:	3c080ddc 	lui	t0,0xddc
bfc01b04:	35084158 	ori	t0,t0,0x4158
bfc01b08:	3c094573 	lui	t1,0x4573
bfc01b0c:	352900c1 	ori	t1,t1,0xc1
bfc01b10:	01098023 	subu	s0,t0,t1
bfc01b14:	3c12c869 	lui	s2,0xc869
bfc01b18:	36524097 	ori	s2,s2,0x4097
bfc01b1c:	16120367 	bne	s0,s2,bfc028bc <inst_error>
bfc01b20:	00000000 	nop
bfc01b24:	3c08fa4f 	lui	t0,0xfa4f
bfc01b28:	35089448 	ori	t0,t0,0x9448
bfc01b2c:	3c09dec8 	lui	t1,0xdec8
bfc01b30:	3529ed78 	ori	t1,t1,0xed78
bfc01b34:	01098023 	subu	s0,t0,t1
bfc01b38:	3c121b86 	lui	s2,0x1b86
bfc01b3c:	3652a6d0 	ori	s2,s2,0xa6d0
bfc01b40:	1612035e 	bne	s0,s2,bfc028bc <inst_error>
bfc01b44:	00000000 	nop
bfc01b48:	3c08f265 	lui	t0,0xf265
bfc01b4c:	3508977c 	ori	t0,t0,0x977c
bfc01b50:	3c093058 	lui	t1,0x3058
bfc01b54:	3529ce5e 	ori	t1,t1,0xce5e
bfc01b58:	01098023 	subu	s0,t0,t1
bfc01b5c:	3c12c20c 	lui	s2,0xc20c
bfc01b60:	3652c91e 	ori	s2,s2,0xc91e
bfc01b64:	16120355 	bne	s0,s2,bfc028bc <inst_error>
bfc01b68:	00000000 	nop
bfc01b6c:	3c08bd4e 	lui	t0,0xbd4e
bfc01b70:	35082324 	ori	t0,t0,0x2324
bfc01b74:	3c09921c 	lui	t1,0x921c
bfc01b78:	3529d211 	ori	t1,t1,0xd211
bfc01b7c:	01098023 	subu	s0,t0,t1
bfc01b80:	3c122b31 	lui	s2,0x2b31
bfc01b84:	36525113 	ori	s2,s2,0x5113
bfc01b88:	1612034c 	bne	s0,s2,bfc028bc <inst_error>
bfc01b8c:	00000000 	nop
bfc01b90:	3c08ee98 	lui	t0,0xee98
bfc01b94:	3508daa2 	ori	t0,t0,0xdaa2
bfc01b98:	3c0906fd 	lui	t1,0x6fd
bfc01b9c:	352903d4 	ori	t1,t1,0x3d4
bfc01ba0:	01098023 	subu	s0,t0,t1
bfc01ba4:	3c12e79b 	lui	s2,0xe79b
bfc01ba8:	3652d6ce 	ori	s2,s2,0xd6ce
bfc01bac:	16120343 	bne	s0,s2,bfc028bc <inst_error>
bfc01bb0:	00000000 	nop
bfc01bb4:	3c0837e6 	lui	t0,0x37e6
bfc01bb8:	3508752c 	ori	t0,t0,0x752c
bfc01bbc:	3c096bd7 	lui	t1,0x6bd7
bfc01bc0:	352939d8 	ori	t1,t1,0x39d8
bfc01bc4:	01098023 	subu	s0,t0,t1
bfc01bc8:	3c12cc0f 	lui	s2,0xcc0f
bfc01bcc:	36523b54 	ori	s2,s2,0x3b54
bfc01bd0:	1612033a 	bne	s0,s2,bfc028bc <inst_error>
bfc01bd4:	00000000 	nop
bfc01bd8:	3c08af0d 	lui	t0,0xaf0d
bfc01bdc:	3508e020 	ori	t0,t0,0xe020
bfc01be0:	3c09951f 	lui	t1,0x951f
bfc01be4:	35299e72 	ori	t1,t1,0x9e72
bfc01be8:	01098023 	subu	s0,t0,t1
bfc01bec:	3c1219ee 	lui	s2,0x19ee
bfc01bf0:	365241ae 	ori	s2,s2,0x41ae
bfc01bf4:	16120331 	bne	s0,s2,bfc028bc <inst_error>
bfc01bf8:	00000000 	nop
bfc01bfc:	3c088178 	lui	t0,0x8178
bfc01c00:	3508e270 	ori	t0,t0,0xe270
bfc01c04:	3c09c206 	lui	t1,0xc206
bfc01c08:	352917d6 	ori	t1,t1,0x17d6
bfc01c0c:	01098023 	subu	s0,t0,t1
bfc01c10:	3c12bf72 	lui	s2,0xbf72
bfc01c14:	3652ca9a 	ori	s2,s2,0xca9a
bfc01c18:	16120328 	bne	s0,s2,bfc028bc <inst_error>
bfc01c1c:	00000000 	nop
bfc01c20:	3c0899e8 	lui	t0,0x99e8
bfc01c24:	350836ec 	ori	t0,t0,0x36ec
bfc01c28:	24090000 	li	t1,0
bfc01c2c:	01098023 	subu	s0,t0,t1
bfc01c30:	3c1299e8 	lui	s2,0x99e8
bfc01c34:	365236ec 	ori	s2,s2,0x36ec
bfc01c38:	16120320 	bne	s0,s2,bfc028bc <inst_error>
bfc01c3c:	00000000 	nop
bfc01c40:	3c08f706 	lui	t0,0xf706
bfc01c44:	3508b614 	ori	t0,t0,0xb614
bfc01c48:	24090000 	li	t1,0
bfc01c4c:	01098023 	subu	s0,t0,t1
bfc01c50:	3c12f706 	lui	s2,0xf706
bfc01c54:	3652b614 	ori	s2,s2,0xb614
bfc01c58:	16120318 	bne	s0,s2,bfc028bc <inst_error>
bfc01c5c:	00000000 	nop
bfc01c60:	3c08227c 	lui	t0,0x227c
bfc01c64:	35087b80 	ori	t0,t0,0x7b80
bfc01c68:	24090000 	li	t1,0
bfc01c6c:	01098023 	subu	s0,t0,t1
bfc01c70:	3c12227c 	lui	s2,0x227c
bfc01c74:	36527b80 	ori	s2,s2,0x7b80
bfc01c78:	16120310 	bne	s0,s2,bfc028bc <inst_error>
bfc01c7c:	00000000 	nop
bfc01c80:	3c089fbf 	lui	t0,0x9fbf
bfc01c84:	35084b5f 	ori	t0,t0,0x4b5f
bfc01c88:	24090000 	li	t1,0
bfc01c8c:	01098023 	subu	s0,t0,t1
bfc01c90:	3c129fbf 	lui	s2,0x9fbf
bfc01c94:	36524b5f 	ori	s2,s2,0x4b5f
bfc01c98:	16120308 	bne	s0,s2,bfc028bc <inst_error>
bfc01c9c:	00000000 	nop
bfc01ca0:	3c08258a 	lui	t0,0x258a
bfc01ca4:	350829f8 	ori	t0,t0,0x29f8
bfc01ca8:	24090000 	li	t1,0
bfc01cac:	01098023 	subu	s0,t0,t1
bfc01cb0:	3c12258a 	lui	s2,0x258a
bfc01cb4:	365229f8 	ori	s2,s2,0x29f8
bfc01cb8:	16120300 	bne	s0,s2,bfc028bc <inst_error>
bfc01cbc:	00000000 	nop
bfc01cc0:	3c08db53 	lui	t0,0xdb53
bfc01cc4:	350861c0 	ori	t0,t0,0x61c0
bfc01cc8:	24090000 	li	t1,0
bfc01ccc:	01098023 	subu	s0,t0,t1
bfc01cd0:	3c12db53 	lui	s2,0xdb53
bfc01cd4:	365261c0 	ori	s2,s2,0x61c0
bfc01cd8:	161202f8 	bne	s0,s2,bfc028bc <inst_error>
bfc01cdc:	00000000 	nop
bfc01ce0:	3c088049 	lui	t0,0x8049
bfc01ce4:	35089d50 	ori	t0,t0,0x9d50
bfc01ce8:	24090000 	li	t1,0
bfc01cec:	01098023 	subu	s0,t0,t1
bfc01cf0:	3c128049 	lui	s2,0x8049
bfc01cf4:	36529d50 	ori	s2,s2,0x9d50
bfc01cf8:	161202f0 	bne	s0,s2,bfc028bc <inst_error>
bfc01cfc:	00000000 	nop
bfc01d00:	3c08d2df 	lui	t0,0xd2df
bfc01d04:	3508b800 	ori	t0,t0,0xb800
bfc01d08:	24090000 	li	t1,0
bfc01d0c:	01098023 	subu	s0,t0,t1
bfc01d10:	3c12d2df 	lui	s2,0xd2df
bfc01d14:	3652b800 	ori	s2,s2,0xb800
bfc01d18:	161202e8 	bne	s0,s2,bfc028bc <inst_error>
bfc01d1c:	00000000 	nop
bfc01d20:	3c080618 	lui	t0,0x618
bfc01d24:	35080480 	ori	t0,t0,0x480
bfc01d28:	24090000 	li	t1,0
bfc01d2c:	01098023 	subu	s0,t0,t1
bfc01d30:	3c120618 	lui	s2,0x618
bfc01d34:	36520480 	ori	s2,s2,0x480
bfc01d38:	161202e0 	bne	s0,s2,bfc028bc <inst_error>
bfc01d3c:	00000000 	nop
bfc01d40:	3c08dbae 	lui	t0,0xdbae
bfc01d44:	3508a9be 	ori	t0,t0,0xa9be
bfc01d48:	24090000 	li	t1,0
bfc01d4c:	01098023 	subu	s0,t0,t1
bfc01d50:	3c12dbae 	lui	s2,0xdbae
bfc01d54:	3652a9be 	ori	s2,s2,0xa9be
bfc01d58:	161202d8 	bne	s0,s2,bfc028bc <inst_error>
bfc01d5c:	00000000 	nop
bfc01d60:	3c086337 	lui	t0,0x6337
bfc01d64:	35083704 	ori	t0,t0,0x3704
bfc01d68:	24090000 	li	t1,0
bfc01d6c:	01098023 	subu	s0,t0,t1
bfc01d70:	3c126337 	lui	s2,0x6337
bfc01d74:	36523704 	ori	s2,s2,0x3704
bfc01d78:	161202d0 	bne	s0,s2,bfc028bc <inst_error>
bfc01d7c:	00000000 	nop
bfc01d80:	3c084d07 	lui	t0,0x4d07
bfc01d84:	35088b90 	ori	t0,t0,0x8b90
bfc01d88:	24090000 	li	t1,0
bfc01d8c:	01098023 	subu	s0,t0,t1
bfc01d90:	3c124d07 	lui	s2,0x4d07
bfc01d94:	36528b90 	ori	s2,s2,0x8b90
bfc01d98:	161202c8 	bne	s0,s2,bfc028bc <inst_error>
bfc01d9c:	00000000 	nop
bfc01da0:	3c0843a9 	lui	t0,0x43a9
bfc01da4:	35082170 	ori	t0,t0,0x2170
bfc01da8:	24090000 	li	t1,0
bfc01dac:	01098023 	subu	s0,t0,t1
bfc01db0:	3c1243a9 	lui	s2,0x43a9
bfc01db4:	36522170 	ori	s2,s2,0x2170
bfc01db8:	161202c0 	bne	s0,s2,bfc028bc <inst_error>
bfc01dbc:	00000000 	nop
bfc01dc0:	3c08aabc 	lui	t0,0xaabc
bfc01dc4:	3508e49c 	ori	t0,t0,0xe49c
bfc01dc8:	24090000 	li	t1,0
bfc01dcc:	01098023 	subu	s0,t0,t1
bfc01dd0:	3c12aabc 	lui	s2,0xaabc
bfc01dd4:	3652e49c 	ori	s2,s2,0xe49c
bfc01dd8:	161202b8 	bne	s0,s2,bfc028bc <inst_error>
bfc01ddc:	00000000 	nop
bfc01de0:	3c087282 	lui	t0,0x7282
bfc01de4:	3508c1cc 	ori	t0,t0,0xc1cc
bfc01de8:	24090000 	li	t1,0
bfc01dec:	01098023 	subu	s0,t0,t1
bfc01df0:	3c127282 	lui	s2,0x7282
bfc01df4:	3652c1cc 	ori	s2,s2,0xc1cc
bfc01df8:	161202b0 	bne	s0,s2,bfc028bc <inst_error>
bfc01dfc:	00000000 	nop
bfc01e00:	3c089e7f 	lui	t0,0x9e7f
bfc01e04:	35081b26 	ori	t0,t0,0x1b26
bfc01e08:	24090000 	li	t1,0
bfc01e0c:	01098023 	subu	s0,t0,t1
bfc01e10:	3c129e7f 	lui	s2,0x9e7f
bfc01e14:	36521b26 	ori	s2,s2,0x1b26
bfc01e18:	161202a8 	bne	s0,s2,bfc028bc <inst_error>
bfc01e1c:	00000000 	nop
bfc01e20:	3c08d30c 	lui	t0,0xd30c
bfc01e24:	350875ac 	ori	t0,t0,0x75ac
bfc01e28:	24090000 	li	t1,0
bfc01e2c:	01098023 	subu	s0,t0,t1
bfc01e30:	3c12d30c 	lui	s2,0xd30c
bfc01e34:	365275ac 	ori	s2,s2,0x75ac
bfc01e38:	161202a0 	bne	s0,s2,bfc028bc <inst_error>
bfc01e3c:	00000000 	nop
bfc01e40:	3c08c567 	lui	t0,0xc567
bfc01e44:	350805ac 	ori	t0,t0,0x5ac
bfc01e48:	24090000 	li	t1,0
bfc01e4c:	01098023 	subu	s0,t0,t1
bfc01e50:	3c12c567 	lui	s2,0xc567
bfc01e54:	365205ac 	ori	s2,s2,0x5ac
bfc01e58:	16120298 	bne	s0,s2,bfc028bc <inst_error>
bfc01e5c:	00000000 	nop
bfc01e60:	3c081603 	lui	t0,0x1603
bfc01e64:	3508be38 	ori	t0,t0,0xbe38
bfc01e68:	24090000 	li	t1,0
bfc01e6c:	01098023 	subu	s0,t0,t1
bfc01e70:	3c121603 	lui	s2,0x1603
bfc01e74:	3652be38 	ori	s2,s2,0xbe38
bfc01e78:	16120290 	bne	s0,s2,bfc028bc <inst_error>
bfc01e7c:	00000000 	nop
bfc01e80:	3c085ceb 	lui	t0,0x5ceb
bfc01e84:	3508a56b 	ori	t0,t0,0xa56b
bfc01e88:	24090000 	li	t1,0
bfc01e8c:	01098023 	subu	s0,t0,t1
bfc01e90:	3c125ceb 	lui	s2,0x5ceb
bfc01e94:	3652a56b 	ori	s2,s2,0xa56b
bfc01e98:	16120288 	bne	s0,s2,bfc028bc <inst_error>
bfc01e9c:	00000000 	nop
bfc01ea0:	3c08dc21 	lui	t0,0xdc21
bfc01ea4:	35087454 	ori	t0,t0,0x7454
bfc01ea8:	24090000 	li	t1,0
bfc01eac:	01098023 	subu	s0,t0,t1
bfc01eb0:	3c12dc21 	lui	s2,0xdc21
bfc01eb4:	36527454 	ori	s2,s2,0x7454
bfc01eb8:	16120280 	bne	s0,s2,bfc028bc <inst_error>
bfc01ebc:	00000000 	nop
bfc01ec0:	3c087ce9 	lui	t0,0x7ce9
bfc01ec4:	3508a074 	ori	t0,t0,0xa074
bfc01ec8:	24090000 	li	t1,0
bfc01ecc:	01098023 	subu	s0,t0,t1
bfc01ed0:	3c127ce9 	lui	s2,0x7ce9
bfc01ed4:	3652a074 	ori	s2,s2,0xa074
bfc01ed8:	16120278 	bne	s0,s2,bfc028bc <inst_error>
bfc01edc:	00000000 	nop
bfc01ee0:	3c0842ed 	lui	t0,0x42ed
bfc01ee4:	35089a50 	ori	t0,t0,0x9a50
bfc01ee8:	24090000 	li	t1,0
bfc01eec:	01098023 	subu	s0,t0,t1
bfc01ef0:	3c1242ed 	lui	s2,0x42ed
bfc01ef4:	36529a50 	ori	s2,s2,0x9a50
bfc01ef8:	16120270 	bne	s0,s2,bfc028bc <inst_error>
bfc01efc:	00000000 	nop
bfc01f00:	3c083e5f 	lui	t0,0x3e5f
bfc01f04:	35085070 	ori	t0,t0,0x5070
bfc01f08:	24090000 	li	t1,0
bfc01f0c:	01098023 	subu	s0,t0,t1
bfc01f10:	3c123e5f 	lui	s2,0x3e5f
bfc01f14:	36525070 	ori	s2,s2,0x5070
bfc01f18:	16120268 	bne	s0,s2,bfc028bc <inst_error>
bfc01f1c:	00000000 	nop
bfc01f20:	3c08fd05 	lui	t0,0xfd05
bfc01f24:	35081ed8 	ori	t0,t0,0x1ed8
bfc01f28:	24090000 	li	t1,0
bfc01f2c:	01098023 	subu	s0,t0,t1
bfc01f30:	3c12fd05 	lui	s2,0xfd05
bfc01f34:	36521ed8 	ori	s2,s2,0x1ed8
bfc01f38:	16120260 	bne	s0,s2,bfc028bc <inst_error>
bfc01f3c:	00000000 	nop
bfc01f40:	3c0893a4 	lui	t0,0x93a4
bfc01f44:	35086950 	ori	t0,t0,0x6950
bfc01f48:	24090000 	li	t1,0
bfc01f4c:	01098023 	subu	s0,t0,t1
bfc01f50:	3c1293a4 	lui	s2,0x93a4
bfc01f54:	36526950 	ori	s2,s2,0x6950
bfc01f58:	16120258 	bne	s0,s2,bfc028bc <inst_error>
bfc01f5c:	00000000 	nop
bfc01f60:	3c08bb52 	lui	t0,0xbb52
bfc01f64:	3508cb2a 	ori	t0,t0,0xcb2a
bfc01f68:	24090000 	li	t1,0
bfc01f6c:	01098023 	subu	s0,t0,t1
bfc01f70:	3c12bb52 	lui	s2,0xbb52
bfc01f74:	3652cb2a 	ori	s2,s2,0xcb2a
bfc01f78:	16120250 	bne	s0,s2,bfc028bc <inst_error>
bfc01f7c:	00000000 	nop
bfc01f80:	3c08845d 	lui	t0,0x845d
bfc01f84:	35089f04 	ori	t0,t0,0x9f04
bfc01f88:	24090000 	li	t1,0
bfc01f8c:	01098023 	subu	s0,t0,t1
bfc01f90:	3c12845d 	lui	s2,0x845d
bfc01f94:	36529f04 	ori	s2,s2,0x9f04
bfc01f98:	16120248 	bne	s0,s2,bfc028bc <inst_error>
bfc01f9c:	00000000 	nop
bfc01fa0:	3c08e6f6 	lui	t0,0xe6f6
bfc01fa4:	35088ef4 	ori	t0,t0,0x8ef4
bfc01fa8:	24090000 	li	t1,0
bfc01fac:	01098023 	subu	s0,t0,t1
bfc01fb0:	3c12e6f6 	lui	s2,0xe6f6
bfc01fb4:	36528ef4 	ori	s2,s2,0x8ef4
bfc01fb8:	16120240 	bne	s0,s2,bfc028bc <inst_error>
bfc01fbc:	00000000 	nop
bfc01fc0:	3c08e0ad 	lui	t0,0xe0ad
bfc01fc4:	3508123c 	ori	t0,t0,0x123c
bfc01fc8:	24090000 	li	t1,0
bfc01fcc:	01098023 	subu	s0,t0,t1
bfc01fd0:	3c12e0ad 	lui	s2,0xe0ad
bfc01fd4:	3652123c 	ori	s2,s2,0x123c
bfc01fd8:	16120238 	bne	s0,s2,bfc028bc <inst_error>
bfc01fdc:	00000000 	nop
bfc01fe0:	3c08670c 	lui	t0,0x670c
bfc01fe4:	35080b90 	ori	t0,t0,0xb90
bfc01fe8:	24090000 	li	t1,0
bfc01fec:	01098023 	subu	s0,t0,t1
bfc01ff0:	3c12670c 	lui	s2,0x670c
bfc01ff4:	36520b90 	ori	s2,s2,0xb90
bfc01ff8:	16120230 	bne	s0,s2,bfc028bc <inst_error>
bfc01ffc:	00000000 	nop
bfc02000:	3c0868de 	lui	t0,0x68de
bfc02004:	35082150 	ori	t0,t0,0x2150
bfc02008:	24090000 	li	t1,0
bfc0200c:	01098023 	subu	s0,t0,t1
bfc02010:	3c1268de 	lui	s2,0x68de
bfc02014:	36522150 	ori	s2,s2,0x2150
bfc02018:	16120228 	bne	s0,s2,bfc028bc <inst_error>
bfc0201c:	00000000 	nop
bfc02020:	3c08eda0 	lui	t0,0xeda0
bfc02024:	35080485 	ori	t0,t0,0x485
bfc02028:	24090000 	li	t1,0
bfc0202c:	01098023 	subu	s0,t0,t1
bfc02030:	3c12eda0 	lui	s2,0xeda0
bfc02034:	36520485 	ori	s2,s2,0x485
bfc02038:	16120220 	bne	s0,s2,bfc028bc <inst_error>
bfc0203c:	00000000 	nop
bfc02040:	3c080ed8 	lui	t0,0xed8
bfc02044:	3508b604 	ori	t0,t0,0xb604
bfc02048:	24090000 	li	t1,0
bfc0204c:	01098023 	subu	s0,t0,t1
bfc02050:	3c120ed8 	lui	s2,0xed8
bfc02054:	3652b604 	ori	s2,s2,0xb604
bfc02058:	16120218 	bne	s0,s2,bfc028bc <inst_error>
bfc0205c:	00000000 	nop
bfc02060:	3c088433 	lui	t0,0x8433
bfc02064:	35084a18 	ori	t0,t0,0x4a18
bfc02068:	24090000 	li	t1,0
bfc0206c:	01098023 	subu	s0,t0,t1
bfc02070:	3c128433 	lui	s2,0x8433
bfc02074:	36524a18 	ori	s2,s2,0x4a18
bfc02078:	16120210 	bne	s0,s2,bfc028bc <inst_error>
bfc0207c:	00000000 	nop
bfc02080:	3c084b34 	lui	t0,0x4b34
bfc02084:	35089a7c 	ori	t0,t0,0x9a7c
bfc02088:	24090000 	li	t1,0
bfc0208c:	01098023 	subu	s0,t0,t1
bfc02090:	3c124b34 	lui	s2,0x4b34
bfc02094:	36529a7c 	ori	s2,s2,0x9a7c
bfc02098:	16120208 	bne	s0,s2,bfc028bc <inst_error>
bfc0209c:	00000000 	nop
bfc020a0:	3c087919 	lui	t0,0x7919
bfc020a4:	35080680 	ori	t0,t0,0x680
bfc020a8:	24090000 	li	t1,0
bfc020ac:	01098023 	subu	s0,t0,t1
bfc020b0:	3c127919 	lui	s2,0x7919
bfc020b4:	36520680 	ori	s2,s2,0x680
bfc020b8:	16120200 	bne	s0,s2,bfc028bc <inst_error>
bfc020bc:	00000000 	nop
bfc020c0:	3c08ddf9 	lui	t0,0xddf9
bfc020c4:	3508e7f4 	ori	t0,t0,0xe7f4
bfc020c8:	24090000 	li	t1,0
bfc020cc:	01098023 	subu	s0,t0,t1
bfc020d0:	3c12ddf9 	lui	s2,0xddf9
bfc020d4:	3652e7f4 	ori	s2,s2,0xe7f4
bfc020d8:	161201f8 	bne	s0,s2,bfc028bc <inst_error>
bfc020dc:	00000000 	nop
bfc020e0:	3c08e573 	lui	t0,0xe573
bfc020e4:	3508dcfc 	ori	t0,t0,0xdcfc
bfc020e8:	24090000 	li	t1,0
bfc020ec:	01098023 	subu	s0,t0,t1
bfc020f0:	3c12e573 	lui	s2,0xe573
bfc020f4:	3652dcfc 	ori	s2,s2,0xdcfc
bfc020f8:	161201f0 	bne	s0,s2,bfc028bc <inst_error>
bfc020fc:	00000000 	nop
bfc02100:	3c08d6d1 	lui	t0,0xd6d1
bfc02104:	350849e8 	ori	t0,t0,0x49e8
bfc02108:	24090000 	li	t1,0
bfc0210c:	01098023 	subu	s0,t0,t1
bfc02110:	3c12d6d1 	lui	s2,0xd6d1
bfc02114:	365249e8 	ori	s2,s2,0x49e8
bfc02118:	161201e8 	bne	s0,s2,bfc028bc <inst_error>
bfc0211c:	00000000 	nop
bfc02120:	3c083346 	lui	t0,0x3346
bfc02124:	3508f600 	ori	t0,t0,0xf600
bfc02128:	24090000 	li	t1,0
bfc0212c:	01098023 	subu	s0,t0,t1
bfc02130:	3c123346 	lui	s2,0x3346
bfc02134:	3652f600 	ori	s2,s2,0xf600
bfc02138:	161201e0 	bne	s0,s2,bfc028bc <inst_error>
bfc0213c:	00000000 	nop
bfc02140:	3c088f63 	lui	t0,0x8f63
bfc02144:	3508d87a 	ori	t0,t0,0xd87a
bfc02148:	24090000 	li	t1,0
bfc0214c:	01098023 	subu	s0,t0,t1
bfc02150:	3c128f63 	lui	s2,0x8f63
bfc02154:	3652d87a 	ori	s2,s2,0xd87a
bfc02158:	161201d8 	bne	s0,s2,bfc028bc <inst_error>
bfc0215c:	00000000 	nop
bfc02160:	3c083ef8 	lui	t0,0x3ef8
bfc02164:	3508af4a 	ori	t0,t0,0xaf4a
bfc02168:	24090000 	li	t1,0
bfc0216c:	01098023 	subu	s0,t0,t1
bfc02170:	3c123ef8 	lui	s2,0x3ef8
bfc02174:	3652af4a 	ori	s2,s2,0xaf4a
bfc02178:	161201d0 	bne	s0,s2,bfc028bc <inst_error>
bfc0217c:	00000000 	nop
bfc02180:	3c08ddc9 	lui	t0,0xddc9
bfc02184:	3508fd94 	ori	t0,t0,0xfd94
bfc02188:	24090000 	li	t1,0
bfc0218c:	01098023 	subu	s0,t0,t1
bfc02190:	3c12ddc9 	lui	s2,0xddc9
bfc02194:	3652fd94 	ori	s2,s2,0xfd94
bfc02198:	161201c8 	bne	s0,s2,bfc028bc <inst_error>
bfc0219c:	00000000 	nop
bfc021a0:	3c085f24 	lui	t0,0x5f24
bfc021a4:	3508f000 	ori	t0,t0,0xf000
bfc021a8:	24090000 	li	t1,0
bfc021ac:	01098023 	subu	s0,t0,t1
bfc021b0:	3c125f24 	lui	s2,0x5f24
bfc021b4:	3652f000 	ori	s2,s2,0xf000
bfc021b8:	161201c0 	bne	s0,s2,bfc028bc <inst_error>
bfc021bc:	00000000 	nop
bfc021c0:	3c08f1da 	lui	t0,0xf1da
bfc021c4:	3508a803 	ori	t0,t0,0xa803
bfc021c8:	24090000 	li	t1,0
bfc021cc:	01098023 	subu	s0,t0,t1
bfc021d0:	3c12f1da 	lui	s2,0xf1da
bfc021d4:	3652a803 	ori	s2,s2,0xa803
bfc021d8:	161201b8 	bne	s0,s2,bfc028bc <inst_error>
bfc021dc:	00000000 	nop
bfc021e0:	3c0811f0 	lui	t0,0x11f0
bfc021e4:	3508cdac 	ori	t0,t0,0xcdac
bfc021e8:	24090000 	li	t1,0
bfc021ec:	01098023 	subu	s0,t0,t1
bfc021f0:	3c1211f0 	lui	s2,0x11f0
bfc021f4:	3652cdac 	ori	s2,s2,0xcdac
bfc021f8:	161201b0 	bne	s0,s2,bfc028bc <inst_error>
bfc021fc:	00000000 	nop
bfc02200:	3c083d56 	lui	t0,0x3d56
bfc02204:	3508de10 	ori	t0,t0,0xde10
bfc02208:	24090000 	li	t1,0
bfc0220c:	01098023 	subu	s0,t0,t1
bfc02210:	3c123d56 	lui	s2,0x3d56
bfc02214:	3652de10 	ori	s2,s2,0xde10
bfc02218:	161201a8 	bne	s0,s2,bfc028bc <inst_error>
bfc0221c:	00000000 	nop
bfc02220:	3c08832e 	lui	t0,0x832e
bfc02224:	35087720 	ori	t0,t0,0x7720
bfc02228:	24090000 	li	t1,0
bfc0222c:	01098023 	subu	s0,t0,t1
bfc02230:	3c12832e 	lui	s2,0x832e
bfc02234:	36527720 	ori	s2,s2,0x7720
bfc02238:	161201a0 	bne	s0,s2,bfc028bc <inst_error>
bfc0223c:	00000000 	nop
bfc02240:	3c086f6a 	lui	t0,0x6f6a
bfc02244:	35083b6b 	ori	t0,t0,0x3b6b
bfc02248:	24090000 	li	t1,0
bfc0224c:	01098023 	subu	s0,t0,t1
bfc02250:	3c126f6a 	lui	s2,0x6f6a
bfc02254:	36523b6b 	ori	s2,s2,0x3b6b
bfc02258:	16120198 	bne	s0,s2,bfc028bc <inst_error>
bfc0225c:	00000000 	nop
bfc02260:	24080000 	li	t0,0
bfc02264:	3c093f7b 	lui	t1,0x3f7b
bfc02268:	35299fa8 	ori	t1,t1,0x9fa8
bfc0226c:	01098023 	subu	s0,t0,t1
bfc02270:	3c12c084 	lui	s2,0xc084
bfc02274:	36526058 	ori	s2,s2,0x6058
bfc02278:	16120190 	bne	s0,s2,bfc028bc <inst_error>
bfc0227c:	00000000 	nop
bfc02280:	24080000 	li	t0,0
bfc02284:	3c09f4e8 	lui	t1,0xf4e8
bfc02288:	352957f7 	ori	t1,t1,0x57f7
bfc0228c:	01098023 	subu	s0,t0,t1
bfc02290:	3c120b17 	lui	s2,0xb17
bfc02294:	3652a809 	ori	s2,s2,0xa809
bfc02298:	16120188 	bne	s0,s2,bfc028bc <inst_error>
bfc0229c:	00000000 	nop
bfc022a0:	24080000 	li	t0,0
bfc022a4:	3c091d3e 	lui	t1,0x1d3e
bfc022a8:	3529874c 	ori	t1,t1,0x874c
bfc022ac:	01098023 	subu	s0,t0,t1
bfc022b0:	3c12e2c1 	lui	s2,0xe2c1
bfc022b4:	365278b4 	ori	s2,s2,0x78b4
bfc022b8:	16120180 	bne	s0,s2,bfc028bc <inst_error>
bfc022bc:	00000000 	nop
bfc022c0:	24080000 	li	t0,0
bfc022c4:	3c096060 	lui	t1,0x6060
bfc022c8:	3529a4d0 	ori	t1,t1,0xa4d0
bfc022cc:	01098023 	subu	s0,t0,t1
bfc022d0:	3c129f9f 	lui	s2,0x9f9f
bfc022d4:	36525b30 	ori	s2,s2,0x5b30
bfc022d8:	16120178 	bne	s0,s2,bfc028bc <inst_error>
bfc022dc:	00000000 	nop
bfc022e0:	24080000 	li	t0,0
bfc022e4:	3c09ad02 	lui	t1,0xad02
bfc022e8:	35296220 	ori	t1,t1,0x6220
bfc022ec:	01098023 	subu	s0,t0,t1
bfc022f0:	3c1252fd 	lui	s2,0x52fd
bfc022f4:	36529de0 	ori	s2,s2,0x9de0
bfc022f8:	16120170 	bne	s0,s2,bfc028bc <inst_error>
bfc022fc:	00000000 	nop
bfc02300:	24080000 	li	t0,0
bfc02304:	3c09421f 	lui	t1,0x421f
bfc02308:	352985b0 	ori	t1,t1,0x85b0
bfc0230c:	01098023 	subu	s0,t0,t1
bfc02310:	3c12bde0 	lui	s2,0xbde0
bfc02314:	36527a50 	ori	s2,s2,0x7a50
bfc02318:	16120168 	bne	s0,s2,bfc028bc <inst_error>
bfc0231c:	00000000 	nop
bfc02320:	24080000 	li	t0,0
bfc02324:	3c09718b 	lui	t1,0x718b
bfc02328:	3529b2c8 	ori	t1,t1,0xb2c8
bfc0232c:	01098023 	subu	s0,t0,t1
bfc02330:	3c128e74 	lui	s2,0x8e74
bfc02334:	36524d38 	ori	s2,s2,0x4d38
bfc02338:	16120160 	bne	s0,s2,bfc028bc <inst_error>
bfc0233c:	00000000 	nop
bfc02340:	24080000 	li	t0,0
bfc02344:	3c095b84 	lui	t1,0x5b84
bfc02348:	3529ec9f 	ori	t1,t1,0xec9f
bfc0234c:	01098023 	subu	s0,t0,t1
bfc02350:	3c12a47b 	lui	s2,0xa47b
bfc02354:	36521361 	ori	s2,s2,0x1361
bfc02358:	16120158 	bne	s0,s2,bfc028bc <inst_error>
bfc0235c:	00000000 	nop
bfc02360:	24080000 	li	t0,0
bfc02364:	3c09f8b5 	lui	t1,0xf8b5
bfc02368:	3529462f 	ori	t1,t1,0x462f
bfc0236c:	01098023 	subu	s0,t0,t1
bfc02370:	3c12074a 	lui	s2,0x74a
bfc02374:	3652b9d1 	ori	s2,s2,0xb9d1
bfc02378:	16120150 	bne	s0,s2,bfc028bc <inst_error>
bfc0237c:	00000000 	nop
bfc02380:	24080000 	li	t0,0
bfc02384:	3c098b91 	lui	t1,0x8b91
bfc02388:	3529706c 	ori	t1,t1,0x706c
bfc0238c:	01098023 	subu	s0,t0,t1
bfc02390:	3c12746e 	lui	s2,0x746e
bfc02394:	36528f94 	ori	s2,s2,0x8f94
bfc02398:	16120148 	bne	s0,s2,bfc028bc <inst_error>
bfc0239c:	00000000 	nop
bfc023a0:	24080000 	li	t0,0
bfc023a4:	3c09445c 	lui	t1,0x445c
bfc023a8:	35296544 	ori	t1,t1,0x6544
bfc023ac:	01098023 	subu	s0,t0,t1
bfc023b0:	3c12bba3 	lui	s2,0xbba3
bfc023b4:	36529abc 	ori	s2,s2,0x9abc
bfc023b8:	16120140 	bne	s0,s2,bfc028bc <inst_error>
bfc023bc:	00000000 	nop
bfc023c0:	24080000 	li	t0,0
bfc023c4:	3c091d34 	lui	t1,0x1d34
bfc023c8:	35294e02 	ori	t1,t1,0x4e02
bfc023cc:	01098023 	subu	s0,t0,t1
bfc023d0:	3c12e2cb 	lui	s2,0xe2cb
bfc023d4:	3652b1fe 	ori	s2,s2,0xb1fe
bfc023d8:	16120138 	bne	s0,s2,bfc028bc <inst_error>
bfc023dc:	00000000 	nop
bfc023e0:	24080000 	li	t0,0
bfc023e4:	3c094cc3 	lui	t1,0x4cc3
bfc023e8:	35293600 	ori	t1,t1,0x3600
bfc023ec:	01098023 	subu	s0,t0,t1
bfc023f0:	3c12b33c 	lui	s2,0xb33c
bfc023f4:	3652ca00 	ori	s2,s2,0xca00
bfc023f8:	16120130 	bne	s0,s2,bfc028bc <inst_error>
bfc023fc:	00000000 	nop
bfc02400:	24080000 	li	t0,0
bfc02404:	3c090517 	lui	t1,0x517
bfc02408:	35294cf8 	ori	t1,t1,0x4cf8
bfc0240c:	01098023 	subu	s0,t0,t1
bfc02410:	3c12fae8 	lui	s2,0xfae8
bfc02414:	3652b308 	ori	s2,s2,0xb308
bfc02418:	16120128 	bne	s0,s2,bfc028bc <inst_error>
bfc0241c:	00000000 	nop
bfc02420:	24080000 	li	t0,0
bfc02424:	3c0968c6 	lui	t1,0x68c6
bfc02428:	3529ea90 	ori	t1,t1,0xea90
bfc0242c:	01098023 	subu	s0,t0,t1
bfc02430:	3c129739 	lui	s2,0x9739
bfc02434:	36521570 	ori	s2,s2,0x1570
bfc02438:	16120120 	bne	s0,s2,bfc028bc <inst_error>
bfc0243c:	00000000 	nop
bfc02440:	24080000 	li	t0,0
bfc02444:	3c09ad42 	lui	t1,0xad42
bfc02448:	352937d0 	ori	t1,t1,0x37d0
bfc0244c:	01098023 	subu	s0,t0,t1
bfc02450:	3c1252bd 	lui	s2,0x52bd
bfc02454:	3652c830 	ori	s2,s2,0xc830
bfc02458:	16120118 	bne	s0,s2,bfc028bc <inst_error>
bfc0245c:	00000000 	nop
bfc02460:	24080000 	li	t0,0
bfc02464:	3c095e60 	lui	t1,0x5e60
bfc02468:	3529f5d4 	ori	t1,t1,0xf5d4
bfc0246c:	01098023 	subu	s0,t0,t1
bfc02470:	3c12a19f 	lui	s2,0xa19f
bfc02474:	36520a2c 	ori	s2,s2,0xa2c
bfc02478:	16120110 	bne	s0,s2,bfc028bc <inst_error>
bfc0247c:	00000000 	nop
bfc02480:	24080000 	li	t0,0
bfc02484:	3c0902ab 	lui	t1,0x2ab
bfc02488:	3529610e 	ori	t1,t1,0x610e
bfc0248c:	01098023 	subu	s0,t0,t1
bfc02490:	3c12fd54 	lui	s2,0xfd54
bfc02494:	36529ef2 	ori	s2,s2,0x9ef2
bfc02498:	16120108 	bne	s0,s2,bfc028bc <inst_error>
bfc0249c:	00000000 	nop
bfc024a0:	24080000 	li	t0,0
bfc024a4:	3c0995d9 	lui	t1,0x95d9
bfc024a8:	35292f0a 	ori	t1,t1,0x2f0a
bfc024ac:	01098023 	subu	s0,t0,t1
bfc024b0:	3c126a26 	lui	s2,0x6a26
bfc024b4:	3652d0f6 	ori	s2,s2,0xd0f6
bfc024b8:	16120100 	bne	s0,s2,bfc028bc <inst_error>
bfc024bc:	00000000 	nop
bfc024c0:	24080000 	li	t0,0
bfc024c4:	3c0960d5 	lui	t1,0x60d5
bfc024c8:	35291e10 	ori	t1,t1,0x1e10
bfc024cc:	01098023 	subu	s0,t0,t1
bfc024d0:	3c129f2a 	lui	s2,0x9f2a
bfc024d4:	3652e1f0 	ori	s2,s2,0xe1f0
bfc024d8:	161200f8 	bne	s0,s2,bfc028bc <inst_error>
bfc024dc:	00000000 	nop
bfc024e0:	24080000 	li	t0,0
bfc024e4:	3c09dae9 	lui	t1,0xdae9
bfc024e8:	3529ff00 	ori	t1,t1,0xff00
bfc024ec:	01098023 	subu	s0,t0,t1
bfc024f0:	3c122516 	lui	s2,0x2516
bfc024f4:	36520100 	ori	s2,s2,0x100
bfc024f8:	161200f0 	bne	s0,s2,bfc028bc <inst_error>
bfc024fc:	00000000 	nop
bfc02500:	24080000 	li	t0,0
bfc02504:	3c0987cd 	lui	t1,0x87cd
bfc02508:	352934c0 	ori	t1,t1,0x34c0
bfc0250c:	01098023 	subu	s0,t0,t1
bfc02510:	3c127832 	lui	s2,0x7832
bfc02514:	3652cb40 	ori	s2,s2,0xcb40
bfc02518:	161200e8 	bne	s0,s2,bfc028bc <inst_error>
bfc0251c:	00000000 	nop
bfc02520:	24080000 	li	t0,0
bfc02524:	3c0962df 	lui	t1,0x62df
bfc02528:	3529d480 	ori	t1,t1,0xd480
bfc0252c:	01098023 	subu	s0,t0,t1
bfc02530:	3c129d20 	lui	s2,0x9d20
bfc02534:	36522b80 	ori	s2,s2,0x2b80
bfc02538:	161200e0 	bne	s0,s2,bfc028bc <inst_error>
bfc0253c:	00000000 	nop
bfc02540:	24080000 	li	t0,0
bfc02544:	3c097970 	lui	t1,0x7970
bfc02548:	3529a300 	ori	t1,t1,0xa300
bfc0254c:	01098023 	subu	s0,t0,t1
bfc02550:	3c12868f 	lui	s2,0x868f
bfc02554:	36525d00 	ori	s2,s2,0x5d00
bfc02558:	161200d8 	bne	s0,s2,bfc028bc <inst_error>
bfc0255c:	00000000 	nop
bfc02560:	24080000 	li	t0,0
bfc02564:	3c09c41a 	lui	t1,0xc41a
bfc02568:	3529c2fa 	ori	t1,t1,0xc2fa
bfc0256c:	01098023 	subu	s0,t0,t1
bfc02570:	3c123be5 	lui	s2,0x3be5
bfc02574:	36523d06 	ori	s2,s2,0x3d06
bfc02578:	161200d0 	bne	s0,s2,bfc028bc <inst_error>
bfc0257c:	00000000 	nop
bfc02580:	24080000 	li	t0,0
bfc02584:	3c097594 	lui	t1,0x7594
bfc02588:	35295b52 	ori	t1,t1,0x5b52
bfc0258c:	01098023 	subu	s0,t0,t1
bfc02590:	3c128a6b 	lui	s2,0x8a6b
bfc02594:	3652a4ae 	ori	s2,s2,0xa4ae
bfc02598:	161200c8 	bne	s0,s2,bfc028bc <inst_error>
bfc0259c:	00000000 	nop
bfc025a0:	24080000 	li	t0,0
bfc025a4:	3c09fa22 	lui	t1,0xfa22
bfc025a8:	35294c10 	ori	t1,t1,0x4c10
bfc025ac:	01098023 	subu	s0,t0,t1
bfc025b0:	3c1205dd 	lui	s2,0x5dd
bfc025b4:	3652b3f0 	ori	s2,s2,0xb3f0
bfc025b8:	161200c0 	bne	s0,s2,bfc028bc <inst_error>
bfc025bc:	00000000 	nop
bfc025c0:	24080000 	li	t0,0
bfc025c4:	3c0914b8 	lui	t1,0x14b8
bfc025c8:	3529e1e4 	ori	t1,t1,0xe1e4
bfc025cc:	01098023 	subu	s0,t0,t1
bfc025d0:	3c12eb47 	lui	s2,0xeb47
bfc025d4:	36521e1c 	ori	s2,s2,0x1e1c
bfc025d8:	161200b8 	bne	s0,s2,bfc028bc <inst_error>
bfc025dc:	00000000 	nop
bfc025e0:	24080000 	li	t0,0
bfc025e4:	3c09e6f1 	lui	t1,0xe6f1
bfc025e8:	35292280 	ori	t1,t1,0x2280
bfc025ec:	01098023 	subu	s0,t0,t1
bfc025f0:	3c12190e 	lui	s2,0x190e
bfc025f4:	3652dd80 	ori	s2,s2,0xdd80
bfc025f8:	161200b0 	bne	s0,s2,bfc028bc <inst_error>
bfc025fc:	00000000 	nop
bfc02600:	24080000 	li	t0,0
bfc02604:	3c09b8cc 	lui	t1,0xb8cc
bfc02608:	3529bfa1 	ori	t1,t1,0xbfa1
bfc0260c:	01098023 	subu	s0,t0,t1
bfc02610:	3c124733 	lui	s2,0x4733
bfc02614:	3652405f 	ori	s2,s2,0x405f
bfc02618:	161200a8 	bne	s0,s2,bfc028bc <inst_error>
bfc0261c:	00000000 	nop
bfc02620:	24080000 	li	t0,0
bfc02624:	3c096734 	lui	t1,0x6734
bfc02628:	3529c0a8 	ori	t1,t1,0xc0a8
bfc0262c:	01098023 	subu	s0,t0,t1
bfc02630:	3c1298cb 	lui	s2,0x98cb
bfc02634:	36523f58 	ori	s2,s2,0x3f58
bfc02638:	161200a0 	bne	s0,s2,bfc028bc <inst_error>
bfc0263c:	00000000 	nop
bfc02640:	24080000 	li	t0,0
bfc02644:	3c09cd2c 	lui	t1,0xcd2c
bfc02648:	35297e01 	ori	t1,t1,0x7e01
bfc0264c:	01098023 	subu	s0,t0,t1
bfc02650:	3c1232d3 	lui	s2,0x32d3
bfc02654:	365281ff 	ori	s2,s2,0x81ff
bfc02658:	16120098 	bne	s0,s2,bfc028bc <inst_error>
bfc0265c:	00000000 	nop
bfc02660:	24080000 	li	t0,0
bfc02664:	3c09da89 	lui	t1,0xda89
bfc02668:	35291a33 	ori	t1,t1,0x1a33
bfc0266c:	01098023 	subu	s0,t0,t1
bfc02670:	3c122576 	lui	s2,0x2576
bfc02674:	3652e5cd 	ori	s2,s2,0xe5cd
bfc02678:	16120090 	bne	s0,s2,bfc028bc <inst_error>
bfc0267c:	00000000 	nop
bfc02680:	24080000 	li	t0,0
bfc02684:	3c09e06b 	lui	t1,0xe06b
bfc02688:	3529c618 	ori	t1,t1,0xc618
bfc0268c:	01098023 	subu	s0,t0,t1
bfc02690:	3c121f94 	lui	s2,0x1f94
bfc02694:	365239e8 	ori	s2,s2,0x39e8
bfc02698:	16120088 	bne	s0,s2,bfc028bc <inst_error>
bfc0269c:	00000000 	nop
bfc026a0:	24080000 	li	t0,0
bfc026a4:	3c09aeb2 	lui	t1,0xaeb2
bfc026a8:	35292000 	ori	t1,t1,0x2000
bfc026ac:	01098023 	subu	s0,t0,t1
bfc026b0:	3c12514d 	lui	s2,0x514d
bfc026b4:	3652e000 	ori	s2,s2,0xe000
bfc026b8:	16120080 	bne	s0,s2,bfc028bc <inst_error>
bfc026bc:	00000000 	nop
bfc026c0:	24080000 	li	t0,0
bfc026c4:	3c0902fa 	lui	t1,0x2fa
bfc026c8:	3529d700 	ori	t1,t1,0xd700
bfc026cc:	01098023 	subu	s0,t0,t1
bfc026d0:	3c12fd05 	lui	s2,0xfd05
bfc026d4:	36522900 	ori	s2,s2,0x2900
bfc026d8:	16120078 	bne	s0,s2,bfc028bc <inst_error>
bfc026dc:	00000000 	nop
bfc026e0:	24080000 	li	t0,0
bfc026e4:	3c099755 	lui	t1,0x9755
bfc026e8:	35292b80 	ori	t1,t1,0x2b80
bfc026ec:	01098023 	subu	s0,t0,t1
bfc026f0:	3c1268aa 	lui	s2,0x68aa
bfc026f4:	3652d480 	ori	s2,s2,0xd480
bfc026f8:	16120070 	bne	s0,s2,bfc028bc <inst_error>
bfc026fc:	00000000 	nop
bfc02700:	24080000 	li	t0,0
bfc02704:	3c09490e 	lui	t1,0x490e
bfc02708:	35295b20 	ori	t1,t1,0x5b20
bfc0270c:	01098023 	subu	s0,t0,t1
bfc02710:	3c12b6f1 	lui	s2,0xb6f1
bfc02714:	3652a4e0 	ori	s2,s2,0xa4e0
bfc02718:	16120068 	bne	s0,s2,bfc028bc <inst_error>
bfc0271c:	00000000 	nop
bfc02720:	24080000 	li	t0,0
bfc02724:	3c093710 	lui	t1,0x3710
bfc02728:	35295fe8 	ori	t1,t1,0x5fe8
bfc0272c:	01098023 	subu	s0,t0,t1
bfc02730:	3c12c8ef 	lui	s2,0xc8ef
bfc02734:	3652a018 	ori	s2,s2,0xa018
bfc02738:	16120060 	bne	s0,s2,bfc028bc <inst_error>
bfc0273c:	00000000 	nop
bfc02740:	24080000 	li	t0,0
bfc02744:	3c09ae9d 	lui	t1,0xae9d
bfc02748:	35294fa0 	ori	t1,t1,0x4fa0
bfc0274c:	01098023 	subu	s0,t0,t1
bfc02750:	3c125162 	lui	s2,0x5162
bfc02754:	3652b060 	ori	s2,s2,0xb060
bfc02758:	16120058 	bne	s0,s2,bfc028bc <inst_error>
bfc0275c:	00000000 	nop
bfc02760:	24080000 	li	t0,0
bfc02764:	3c09918f 	lui	t1,0x918f
bfc02768:	3529373c 	ori	t1,t1,0x373c
bfc0276c:	01098023 	subu	s0,t0,t1
bfc02770:	3c126e70 	lui	s2,0x6e70
bfc02774:	3652c8c4 	ori	s2,s2,0xc8c4
bfc02778:	16120050 	bne	s0,s2,bfc028bc <inst_error>
bfc0277c:	00000000 	nop
bfc02780:	24080000 	li	t0,0
bfc02784:	3c090191 	lui	t1,0x191
bfc02788:	3529739e 	ori	t1,t1,0x739e
bfc0278c:	01098023 	subu	s0,t0,t1
bfc02790:	3c12fe6e 	lui	s2,0xfe6e
bfc02794:	36528c62 	ori	s2,s2,0x8c62
bfc02798:	16120048 	bne	s0,s2,bfc028bc <inst_error>
bfc0279c:	00000000 	nop
bfc027a0:	24080000 	li	t0,0
bfc027a4:	3c09a6af 	lui	t1,0xa6af
bfc027a8:	352926a4 	ori	t1,t1,0x26a4
bfc027ac:	01098023 	subu	s0,t0,t1
bfc027b0:	3c125950 	lui	s2,0x5950
bfc027b4:	3652d95c 	ori	s2,s2,0xd95c
bfc027b8:	16120040 	bne	s0,s2,bfc028bc <inst_error>
bfc027bc:	00000000 	nop
bfc027c0:	24080000 	li	t0,0
bfc027c4:	3c09e51c 	lui	t1,0xe51c
bfc027c8:	35290be4 	ori	t1,t1,0xbe4
bfc027cc:	01098023 	subu	s0,t0,t1
bfc027d0:	3c121ae3 	lui	s2,0x1ae3
bfc027d4:	3652f41c 	ori	s2,s2,0xf41c
bfc027d8:	16120038 	bne	s0,s2,bfc028bc <inst_error>
bfc027dc:	00000000 	nop
bfc027e0:	24080000 	li	t0,0
bfc027e4:	3c09219c 	lui	t1,0x219c
bfc027e8:	35297300 	ori	t1,t1,0x7300
bfc027ec:	01098023 	subu	s0,t0,t1
bfc027f0:	3c12de63 	lui	s2,0xde63
bfc027f4:	36528d00 	ori	s2,s2,0x8d00
bfc027f8:	16120030 	bne	s0,s2,bfc028bc <inst_error>
bfc027fc:	00000000 	nop
bfc02800:	24080000 	li	t0,0
bfc02804:	3c0946be 	lui	t1,0x46be
bfc02808:	3529064a 	ori	t1,t1,0x64a
bfc0280c:	01098023 	subu	s0,t0,t1
bfc02810:	3c12b941 	lui	s2,0xb941
bfc02814:	3652f9b6 	ori	s2,s2,0xf9b6
bfc02818:	16120028 	bne	s0,s2,bfc028bc <inst_error>
bfc0281c:	00000000 	nop
bfc02820:	24080000 	li	t0,0
bfc02824:	3c09ae77 	lui	t1,0xae77
bfc02828:	3529d814 	ori	t1,t1,0xd814
bfc0282c:	01098023 	subu	s0,t0,t1
bfc02830:	3c125188 	lui	s2,0x5188
bfc02834:	365227ec 	ori	s2,s2,0x27ec
bfc02838:	16120020 	bne	s0,s2,bfc028bc <inst_error>
bfc0283c:	00000000 	nop
bfc02840:	24080000 	li	t0,0
bfc02844:	3c098e25 	lui	t1,0x8e25
bfc02848:	3529e370 	ori	t1,t1,0xe370
bfc0284c:	01098023 	subu	s0,t0,t1
bfc02850:	3c1271da 	lui	s2,0x71da
bfc02854:	36521c90 	ori	s2,s2,0x1c90
bfc02858:	16120018 	bne	s0,s2,bfc028bc <inst_error>
bfc0285c:	00000000 	nop
bfc02860:	24080000 	li	t0,0
bfc02864:	3c091b42 	lui	t1,0x1b42
bfc02868:	35295f40 	ori	t1,t1,0x5f40
bfc0286c:	01098023 	subu	s0,t0,t1
bfc02870:	3c12e4bd 	lui	s2,0xe4bd
bfc02874:	3652a0c0 	ori	s2,s2,0xa0c0
bfc02878:	16120010 	bne	s0,s2,bfc028bc <inst_error>
bfc0287c:	00000000 	nop
bfc02880:	24080000 	li	t0,0
bfc02884:	3c09b407 	lui	t1,0xb407
bfc02888:	35293a78 	ori	t1,t1,0x3a78
bfc0288c:	01098023 	subu	s0,t0,t1
bfc02890:	3c124bf8 	lui	s2,0x4bf8
bfc02894:	3652c588 	ori	s2,s2,0xc588
bfc02898:	16120008 	bne	s0,s2,bfc028bc <inst_error>
bfc0289c:	00000000 	nop
bfc028a0:	24080000 	li	t0,0
bfc028a4:	24090000 	li	t1,0
bfc028a8:	01098023 	subu	s0,t0,t1
bfc028ac:	24120000 	li	s2,0
bfc028b0:	16120002 	bne	s0,s2,bfc028bc <inst_error>
bfc028b4:	00000000 	nop
bfc028b8:	4a000000 	c2	0x0

bfc028bc <inst_error>:
inst_error():
bfc028bc:	0000003f 	0x3f

Disassembly of section .reginfo:

00000000 <.reginfo>:
   0:	00050300 	sll	zero,a1,0xc
	...
