
build/xor:     file format elf32-tradlittlemips
build/xor


Disassembly of section .text:

bfc00000 <main>:
bfc00000:	3c081773 	lui	t0,0x1773
bfc00004:	3508df80 	ori	t0,t0,0xdf80
bfc00008:	3c09b5af 	lui	t1,0xb5af
bfc0000c:	352951d2 	ori	t1,t1,0x51d2
bfc00010:	01098026 	xor	s0,t0,t1
bfc00014:	3c12a2dc 	lui	s2,0xa2dc
bfc00018:	36528e52 	ori	s2,s2,0x8e52
bfc0001c:	16120a27 	bne	s0,s2,bfc028bc <inst_error>
bfc00020:	00000000 	nop
bfc00024:	3c08e622 	lui	t0,0xe622
bfc00028:	35083550 	ori	t0,t0,0x3550
bfc0002c:	3c09909c 	lui	t1,0x909c
bfc00030:	352998da 	ori	t1,t1,0x98da
bfc00034:	01098026 	xor	s0,t0,t1
bfc00038:	3c1276be 	lui	s2,0x76be
bfc0003c:	3652ad8a 	ori	s2,s2,0xad8a
bfc00040:	16120a1e 	bne	s0,s2,bfc028bc <inst_error>
bfc00044:	00000000 	nop
bfc00048:	3c08f5c8 	lui	t0,0xf5c8
bfc0004c:	3508a598 	ori	t0,t0,0xa598
bfc00050:	3c0925fd 	lui	t1,0x25fd
bfc00054:	35290240 	ori	t1,t1,0x240
bfc00058:	01098026 	xor	s0,t0,t1
bfc0005c:	3c12d035 	lui	s2,0xd035
bfc00060:	3652a7d8 	ori	s2,s2,0xa7d8
bfc00064:	16120a15 	bne	s0,s2,bfc028bc <inst_error>
bfc00068:	00000000 	nop
bfc0006c:	3c0824b5 	lui	t0,0x24b5
bfc00070:	35083f20 	ori	t0,t0,0x3f20
bfc00074:	3c0914d3 	lui	t1,0x14d3
bfc00078:	3529aae8 	ori	t1,t1,0xaae8
bfc0007c:	01098026 	xor	s0,t0,t1
bfc00080:	3c123066 	lui	s2,0x3066
bfc00084:	365295c8 	ori	s2,s2,0x95c8
bfc00088:	16120a0c 	bne	s0,s2,bfc028bc <inst_error>
bfc0008c:	00000000 	nop
bfc00090:	3c085945 	lui	t0,0x5945
bfc00094:	35081f38 	ori	t0,t0,0x1f38
bfc00098:	3c09e8aa 	lui	t1,0xe8aa
bfc0009c:	3529f42b 	ori	t1,t1,0xf42b
bfc000a0:	01098026 	xor	s0,t0,t1
bfc000a4:	3c12b1ef 	lui	s2,0xb1ef
bfc000a8:	3652eb13 	ori	s2,s2,0xeb13
bfc000ac:	16120a03 	bne	s0,s2,bfc028bc <inst_error>
bfc000b0:	00000000 	nop
bfc000b4:	3c08ca5b 	lui	t0,0xca5b
bfc000b8:	350817a0 	ori	t0,t0,0x17a0
bfc000bc:	3c09cec7 	lui	t1,0xcec7
bfc000c0:	35290d58 	ori	t1,t1,0xd58
bfc000c4:	01098026 	xor	s0,t0,t1
bfc000c8:	3c12049c 	lui	s2,0x49c
bfc000cc:	36521af8 	ori	s2,s2,0x1af8
bfc000d0:	161209fa 	bne	s0,s2,bfc028bc <inst_error>
bfc000d4:	00000000 	nop
bfc000d8:	3c088b6a 	lui	t0,0x8b6a
bfc000dc:	35081e78 	ori	t0,t0,0x1e78
bfc000e0:	3c09a89e 	lui	t1,0xa89e
bfc000e4:	35295ed2 	ori	t1,t1,0x5ed2
bfc000e8:	01098026 	xor	s0,t0,t1
bfc000ec:	3c1223f4 	lui	s2,0x23f4
bfc000f0:	365240aa 	ori	s2,s2,0x40aa
bfc000f4:	161209f1 	bne	s0,s2,bfc028bc <inst_error>
bfc000f8:	00000000 	nop
bfc000fc:	3c088a58 	lui	t0,0x8a58
bfc00100:	35080190 	ori	t0,t0,0x190
bfc00104:	3c09ae39 	lui	t1,0xae39
bfc00108:	3529e660 	ori	t1,t1,0xe660
bfc0010c:	01098026 	xor	s0,t0,t1
bfc00110:	3c122461 	lui	s2,0x2461
bfc00114:	3652e7f0 	ori	s2,s2,0xe7f0
bfc00118:	161209e8 	bne	s0,s2,bfc028bc <inst_error>
bfc0011c:	00000000 	nop
bfc00120:	3c08dd34 	lui	t0,0xdd34
bfc00124:	350872f0 	ori	t0,t0,0x72f0
bfc00128:	3c09c148 	lui	t1,0xc148
bfc0012c:	3529dd08 	ori	t1,t1,0xdd08
bfc00130:	01098026 	xor	s0,t0,t1
bfc00134:	3c121c7c 	lui	s2,0x1c7c
bfc00138:	3652aff8 	ori	s2,s2,0xaff8
bfc0013c:	161209df 	bne	s0,s2,bfc028bc <inst_error>
bfc00140:	00000000 	nop
bfc00144:	3c085258 	lui	t0,0x5258
bfc00148:	350857e0 	ori	t0,t0,0x57e0
bfc0014c:	3c0994d6 	lui	t1,0x94d6
bfc00150:	35297860 	ori	t1,t1,0x7860
bfc00154:	01098026 	xor	s0,t0,t1
bfc00158:	3c12c68e 	lui	s2,0xc68e
bfc0015c:	36522f80 	ori	s2,s2,0x2f80
bfc00160:	161209d6 	bne	s0,s2,bfc028bc <inst_error>
bfc00164:	00000000 	nop
bfc00168:	3c08b61c 	lui	t0,0xb61c
bfc0016c:	35082c40 	ori	t0,t0,0x2c40
bfc00170:	3c09c15a 	lui	t1,0xc15a
bfc00174:	35290baa 	ori	t1,t1,0xbaa
bfc00178:	01098026 	xor	s0,t0,t1
bfc0017c:	3c127746 	lui	s2,0x7746
bfc00180:	365227ea 	ori	s2,s2,0x27ea
bfc00184:	161209cd 	bne	s0,s2,bfc028bc <inst_error>
bfc00188:	00000000 	nop
bfc0018c:	3c08034d 	lui	t0,0x34d
bfc00190:	35081ee8 	ori	t0,t0,0x1ee8
bfc00194:	3c092b92 	lui	t1,0x2b92
bfc00198:	35297400 	ori	t1,t1,0x7400
bfc0019c:	01098026 	xor	s0,t0,t1
bfc001a0:	3c1228df 	lui	s2,0x28df
bfc001a4:	36526ae8 	ori	s2,s2,0x6ae8
bfc001a8:	161209c4 	bne	s0,s2,bfc028bc <inst_error>
bfc001ac:	00000000 	nop
bfc001b0:	3c08c8cd 	lui	t0,0xc8cd
bfc001b4:	3508fb14 	ori	t0,t0,0xfb14
bfc001b8:	3c09701d 	lui	t1,0x701d
bfc001bc:	3529d53e 	ori	t1,t1,0xd53e
bfc001c0:	01098026 	xor	s0,t0,t1
bfc001c4:	3c12b8d0 	lui	s2,0xb8d0
bfc001c8:	36522e2a 	ori	s2,s2,0x2e2a
bfc001cc:	161209bb 	bne	s0,s2,bfc028bc <inst_error>
bfc001d0:	00000000 	nop
bfc001d4:	3c084505 	lui	t0,0x4505
bfc001d8:	35086499 	ori	t0,t0,0x6499
bfc001dc:	3c09da43 	lui	t1,0xda43
bfc001e0:	352945b0 	ori	t1,t1,0x45b0
bfc001e4:	01098026 	xor	s0,t0,t1
bfc001e8:	3c129f46 	lui	s2,0x9f46
bfc001ec:	36522129 	ori	s2,s2,0x2129
bfc001f0:	161209b2 	bne	s0,s2,bfc028bc <inst_error>
bfc001f4:	00000000 	nop
bfc001f8:	3c080409 	lui	t0,0x409
bfc001fc:	35082050 	ori	t0,t0,0x2050
bfc00200:	3c09503c 	lui	t1,0x503c
bfc00204:	352959c8 	ori	t1,t1,0x59c8
bfc00208:	01098026 	xor	s0,t0,t1
bfc0020c:	3c125435 	lui	s2,0x5435
bfc00210:	36527998 	ori	s2,s2,0x7998
bfc00214:	161209a9 	bne	s0,s2,bfc028bc <inst_error>
bfc00218:	00000000 	nop
bfc0021c:	3c083d88 	lui	t0,0x3d88
bfc00220:	3508d700 	ori	t0,t0,0xd700
bfc00224:	3c09875d 	lui	t1,0x875d
bfc00228:	3529c450 	ori	t1,t1,0xc450
bfc0022c:	01098026 	xor	s0,t0,t1
bfc00230:	3c12bad5 	lui	s2,0xbad5
bfc00234:	36521350 	ori	s2,s2,0x1350
bfc00238:	161209a0 	bne	s0,s2,bfc028bc <inst_error>
bfc0023c:	00000000 	nop
bfc00240:	3c08bd81 	lui	t0,0xbd81
bfc00244:	3508b180 	ori	t0,t0,0xb180
bfc00248:	3c092460 	lui	t1,0x2460
bfc0024c:	35298b97 	ori	t1,t1,0x8b97
bfc00250:	01098026 	xor	s0,t0,t1
bfc00254:	3c1299e1 	lui	s2,0x99e1
bfc00258:	36523a17 	ori	s2,s2,0x3a17
bfc0025c:	16120997 	bne	s0,s2,bfc028bc <inst_error>
bfc00260:	00000000 	nop
bfc00264:	3c08fa17 	lui	t0,0xfa17
bfc00268:	3508e5c4 	ori	t0,t0,0xe5c4
bfc0026c:	3c09f1a1 	lui	t1,0xf1a1
bfc00270:	3529e280 	ori	t1,t1,0xe280
bfc00274:	01098026 	xor	s0,t0,t1
bfc00278:	3c120bb6 	lui	s2,0xbb6
bfc0027c:	36520744 	ori	s2,s2,0x744
bfc00280:	1612098e 	bne	s0,s2,bfc028bc <inst_error>
bfc00284:	00000000 	nop
bfc00288:	3c081f26 	lui	t0,0x1f26
bfc0028c:	35080170 	ori	t0,t0,0x170
bfc00290:	3c09e8d3 	lui	t1,0xe8d3
bfc00294:	35297370 	ori	t1,t1,0x7370
bfc00298:	01098026 	xor	s0,t0,t1
bfc0029c:	3c12f7f5 	lui	s2,0xf7f5
bfc002a0:	36527200 	ori	s2,s2,0x7200
bfc002a4:	16120985 	bne	s0,s2,bfc028bc <inst_error>
bfc002a8:	00000000 	nop
bfc002ac:	3c08c3b5 	lui	t0,0xc3b5
bfc002b0:	3508db06 	ori	t0,t0,0xdb06
bfc002b4:	3c093283 	lui	t1,0x3283
bfc002b8:	3529d4b8 	ori	t1,t1,0xd4b8
bfc002bc:	01098026 	xor	s0,t0,t1
bfc002c0:	3c12f136 	lui	s2,0xf136
bfc002c4:	36520fbe 	ori	s2,s2,0xfbe
bfc002c8:	1612097c 	bne	s0,s2,bfc028bc <inst_error>
bfc002cc:	00000000 	nop
bfc002d0:	3c084d2e 	lui	t0,0x4d2e
bfc002d4:	35083cf5 	ori	t0,t0,0x3cf5
bfc002d8:	3c0930c8 	lui	t1,0x30c8
bfc002dc:	3529f34c 	ori	t1,t1,0xf34c
bfc002e0:	01098026 	xor	s0,t0,t1
bfc002e4:	3c127de6 	lui	s2,0x7de6
bfc002e8:	3652cfb9 	ori	s2,s2,0xcfb9
bfc002ec:	16120973 	bne	s0,s2,bfc028bc <inst_error>
bfc002f0:	00000000 	nop
bfc002f4:	3c080150 	lui	t0,0x150
bfc002f8:	3508f52c 	ori	t0,t0,0xf52c
bfc002fc:	3c099200 	lui	t1,0x9200
bfc00300:	35296da0 	ori	t1,t1,0x6da0
bfc00304:	01098026 	xor	s0,t0,t1
bfc00308:	3c129350 	lui	s2,0x9350
bfc0030c:	3652988c 	ori	s2,s2,0x988c
bfc00310:	1612096a 	bne	s0,s2,bfc028bc <inst_error>
bfc00314:	00000000 	nop
bfc00318:	3c08a2f8 	lui	t0,0xa2f8
bfc0031c:	3508049c 	ori	t0,t0,0x49c
bfc00320:	3c096450 	lui	t1,0x6450
bfc00324:	3529fe88 	ori	t1,t1,0xfe88
bfc00328:	01098026 	xor	s0,t0,t1
bfc0032c:	3c12c6a8 	lui	s2,0xc6a8
bfc00330:	3652fa14 	ori	s2,s2,0xfa14
bfc00334:	16120961 	bne	s0,s2,bfc028bc <inst_error>
bfc00338:	00000000 	nop
bfc0033c:	3c08ddce 	lui	t0,0xddce
bfc00340:	35083250 	ori	t0,t0,0x3250
bfc00344:	3c09e188 	lui	t1,0xe188
bfc00348:	35295c50 	ori	t1,t1,0x5c50
bfc0034c:	01098026 	xor	s0,t0,t1
bfc00350:	3c123c46 	lui	s2,0x3c46
bfc00354:	36526e00 	ori	s2,s2,0x6e00
bfc00358:	16120958 	bne	s0,s2,bfc028bc <inst_error>
bfc0035c:	00000000 	nop
bfc00360:	3c080aae 	lui	t0,0xaae
bfc00364:	350856ee 	ori	t0,t0,0x56ee
bfc00368:	3c09293c 	lui	t1,0x293c
bfc0036c:	3529ef38 	ori	t1,t1,0xef38
bfc00370:	01098026 	xor	s0,t0,t1
bfc00374:	3c122392 	lui	s2,0x2392
bfc00378:	3652b9d6 	ori	s2,s2,0xb9d6
bfc0037c:	1612094f 	bne	s0,s2,bfc028bc <inst_error>
bfc00380:	00000000 	nop
bfc00384:	3c08d61f 	lui	t0,0xd61f
bfc00388:	3508d4fc 	ori	t0,t0,0xd4fc
bfc0038c:	3c09dedf 	lui	t1,0xdedf
bfc00390:	352989c0 	ori	t1,t1,0x89c0
bfc00394:	01098026 	xor	s0,t0,t1
bfc00398:	3c1208c0 	lui	s2,0x8c0
bfc0039c:	36525d3c 	ori	s2,s2,0x5d3c
bfc003a0:	16120946 	bne	s0,s2,bfc028bc <inst_error>
bfc003a4:	00000000 	nop
bfc003a8:	3c08bc5c 	lui	t0,0xbc5c
bfc003ac:	3508d3d4 	ori	t0,t0,0xd3d4
bfc003b0:	3c099689 	lui	t1,0x9689
bfc003b4:	352937dc 	ori	t1,t1,0x37dc
bfc003b8:	01098026 	xor	s0,t0,t1
bfc003bc:	3c122ad5 	lui	s2,0x2ad5
bfc003c0:	3652e408 	ori	s2,s2,0xe408
bfc003c4:	1612093d 	bne	s0,s2,bfc028bc <inst_error>
bfc003c8:	00000000 	nop
bfc003cc:	3c08209d 	lui	t0,0x209d
bfc003d0:	3508a902 	ori	t0,t0,0xa902
bfc003d4:	3c090d2e 	lui	t1,0xd2e
bfc003d8:	35296670 	ori	t1,t1,0x6670
bfc003dc:	01098026 	xor	s0,t0,t1
bfc003e0:	3c122db3 	lui	s2,0x2db3
bfc003e4:	3652cf72 	ori	s2,s2,0xcf72
bfc003e8:	16120934 	bne	s0,s2,bfc028bc <inst_error>
bfc003ec:	00000000 	nop
bfc003f0:	3c08b035 	lui	t0,0xb035
bfc003f4:	35085d94 	ori	t0,t0,0x5d94
bfc003f8:	3c0980c3 	lui	t1,0x80c3
bfc003fc:	3529074e 	ori	t1,t1,0x74e
bfc00400:	01098026 	xor	s0,t0,t1
bfc00404:	3c1230f6 	lui	s2,0x30f6
bfc00408:	36525ada 	ori	s2,s2,0x5ada
bfc0040c:	1612092b 	bne	s0,s2,bfc028bc <inst_error>
bfc00410:	00000000 	nop
bfc00414:	3c0809d2 	lui	t0,0x9d2
bfc00418:	35080400 	ori	t0,t0,0x400
bfc0041c:	3c09a8d7 	lui	t1,0xa8d7
bfc00420:	35296bd4 	ori	t1,t1,0x6bd4
bfc00424:	01098026 	xor	s0,t0,t1
bfc00428:	3c12a105 	lui	s2,0xa105
bfc0042c:	36526fd4 	ori	s2,s2,0x6fd4
bfc00430:	16120922 	bne	s0,s2,bfc028bc <inst_error>
bfc00434:	00000000 	nop
bfc00438:	3c084396 	lui	t0,0x4396
bfc0043c:	35087908 	ori	t0,t0,0x7908
bfc00440:	3c095426 	lui	t1,0x5426
bfc00444:	35291a60 	ori	t1,t1,0x1a60
bfc00448:	01098026 	xor	s0,t0,t1
bfc0044c:	3c1217b0 	lui	s2,0x17b0
bfc00450:	36526368 	ori	s2,s2,0x6368
bfc00454:	16120919 	bne	s0,s2,bfc028bc <inst_error>
bfc00458:	00000000 	nop
bfc0045c:	3c08e89f 	lui	t0,0xe89f
bfc00460:	35082de0 	ori	t0,t0,0x2de0
bfc00464:	3c09df13 	lui	t1,0xdf13
bfc00468:	3529d0fe 	ori	t1,t1,0xd0fe
bfc0046c:	01098026 	xor	s0,t0,t1
bfc00470:	3c12378c 	lui	s2,0x378c
bfc00474:	3652fd1e 	ori	s2,s2,0xfd1e
bfc00478:	16120910 	bne	s0,s2,bfc028bc <inst_error>
bfc0047c:	00000000 	nop
bfc00480:	3c087708 	lui	t0,0x7708
bfc00484:	35085d85 	ori	t0,t0,0x5d85
bfc00488:	3c09681d 	lui	t1,0x681d
bfc0048c:	3529a2d8 	ori	t1,t1,0xa2d8
bfc00490:	01098026 	xor	s0,t0,t1
bfc00494:	3c121f15 	lui	s2,0x1f15
bfc00498:	3652ff5d 	ori	s2,s2,0xff5d
bfc0049c:	16120907 	bne	s0,s2,bfc028bc <inst_error>
bfc004a0:	00000000 	nop
bfc004a4:	3c089db8 	lui	t0,0x9db8
bfc004a8:	3508e364 	ori	t0,t0,0xe364
bfc004ac:	3c09e63a 	lui	t1,0xe63a
bfc004b0:	35291d6e 	ori	t1,t1,0x1d6e
bfc004b4:	01098026 	xor	s0,t0,t1
bfc004b8:	3c127b82 	lui	s2,0x7b82
bfc004bc:	3652fe0a 	ori	s2,s2,0xfe0a
bfc004c0:	161208fe 	bne	s0,s2,bfc028bc <inst_error>
bfc004c4:	00000000 	nop
bfc004c8:	3c08938c 	lui	t0,0x938c
bfc004cc:	350849b0 	ori	t0,t0,0x49b0
bfc004d0:	3c09145c 	lui	t1,0x145c
bfc004d4:	35297ab4 	ori	t1,t1,0x7ab4
bfc004d8:	01098026 	xor	s0,t0,t1
bfc004dc:	3c1287d0 	lui	s2,0x87d0
bfc004e0:	36523304 	ori	s2,s2,0x3304
bfc004e4:	161208f5 	bne	s0,s2,bfc028bc <inst_error>
bfc004e8:	00000000 	nop
bfc004ec:	3c08cd8d 	lui	t0,0xcd8d
bfc004f0:	3508a778 	ori	t0,t0,0xa778
bfc004f4:	3c09a25e 	lui	t1,0xa25e
bfc004f8:	3529d184 	ori	t1,t1,0xd184
bfc004fc:	01098026 	xor	s0,t0,t1
bfc00500:	3c126fd3 	lui	s2,0x6fd3
bfc00504:	365276fc 	ori	s2,s2,0x76fc
bfc00508:	161208ec 	bne	s0,s2,bfc028bc <inst_error>
bfc0050c:	00000000 	nop
bfc00510:	3c0837f7 	lui	t0,0x37f7
bfc00514:	3508e234 	ori	t0,t0,0xe234
bfc00518:	3c092c8d 	lui	t1,0x2c8d
bfc0051c:	3529d326 	ori	t1,t1,0xd326
bfc00520:	01098026 	xor	s0,t0,t1
bfc00524:	3c121b7a 	lui	s2,0x1b7a
bfc00528:	36523112 	ori	s2,s2,0x3112
bfc0052c:	161208e3 	bne	s0,s2,bfc028bc <inst_error>
bfc00530:	00000000 	nop
bfc00534:	3c089551 	lui	t0,0x9551
bfc00538:	35088bc8 	ori	t0,t0,0x8bc8
bfc0053c:	3c098128 	lui	t1,0x8128
bfc00540:	3529aec2 	ori	t1,t1,0xaec2
bfc00544:	01098026 	xor	s0,t0,t1
bfc00548:	3c121479 	lui	s2,0x1479
bfc0054c:	3652250a 	ori	s2,s2,0x250a
bfc00550:	161208da 	bne	s0,s2,bfc028bc <inst_error>
bfc00554:	00000000 	nop
bfc00558:	3c0848de 	lui	t0,0x48de
bfc0055c:	3508e180 	ori	t0,t0,0xe180
bfc00560:	3c091ab6 	lui	t1,0x1ab6
bfc00564:	35297800 	ori	t1,t1,0x7800
bfc00568:	01098026 	xor	s0,t0,t1
bfc0056c:	3c125268 	lui	s2,0x5268
bfc00570:	36529980 	ori	s2,s2,0x9980
bfc00574:	161208d1 	bne	s0,s2,bfc028bc <inst_error>
bfc00578:	00000000 	nop
bfc0057c:	3c0813a7 	lui	t0,0x13a7
bfc00580:	35089878 	ori	t0,t0,0x9878
bfc00584:	3c09b6e0 	lui	t1,0xb6e0
bfc00588:	352913ed 	ori	t1,t1,0x13ed
bfc0058c:	01098026 	xor	s0,t0,t1
bfc00590:	3c12a547 	lui	s2,0xa547
bfc00594:	36528b95 	ori	s2,s2,0x8b95
bfc00598:	161208c8 	bne	s0,s2,bfc028bc <inst_error>
bfc0059c:	00000000 	nop
bfc005a0:	3c087e73 	lui	t0,0x7e73
bfc005a4:	35086580 	ori	t0,t0,0x6580
bfc005a8:	3c097ed7 	lui	t1,0x7ed7
bfc005ac:	35292b38 	ori	t1,t1,0x2b38
bfc005b0:	01098026 	xor	s0,t0,t1
bfc005b4:	3c1200a4 	lui	s2,0xa4
bfc005b8:	36524eb8 	ori	s2,s2,0x4eb8
bfc005bc:	161208bf 	bne	s0,s2,bfc028bc <inst_error>
bfc005c0:	00000000 	nop
bfc005c4:	3c088294 	lui	t0,0x8294
bfc005c8:	3508b7f0 	ori	t0,t0,0xb7f0
bfc005cc:	3c09fe6e 	lui	t1,0xfe6e
bfc005d0:	352949c0 	ori	t1,t1,0x49c0
bfc005d4:	01098026 	xor	s0,t0,t1
bfc005d8:	3c127cfa 	lui	s2,0x7cfa
bfc005dc:	3652fe30 	ori	s2,s2,0xfe30
bfc005e0:	161208b6 	bne	s0,s2,bfc028bc <inst_error>
bfc005e4:	00000000 	nop
bfc005e8:	3c08e286 	lui	t0,0xe286
bfc005ec:	35089800 	ori	t0,t0,0x9800
bfc005f0:	3c096ebf 	lui	t1,0x6ebf
bfc005f4:	3529edc8 	ori	t1,t1,0xedc8
bfc005f8:	01098026 	xor	s0,t0,t1
bfc005fc:	3c128c39 	lui	s2,0x8c39
bfc00600:	365275c8 	ori	s2,s2,0x75c8
bfc00604:	161208ad 	bne	s0,s2,bfc028bc <inst_error>
bfc00608:	00000000 	nop
bfc0060c:	3c08f023 	lui	t0,0xf023
bfc00610:	35086538 	ori	t0,t0,0x6538
bfc00614:	3c0935be 	lui	t1,0x35be
bfc00618:	35293f64 	ori	t1,t1,0x3f64
bfc0061c:	01098026 	xor	s0,t0,t1
bfc00620:	3c12c59d 	lui	s2,0xc59d
bfc00624:	36525a5c 	ori	s2,s2,0x5a5c
bfc00628:	161208a4 	bne	s0,s2,bfc028bc <inst_error>
bfc0062c:	00000000 	nop
bfc00630:	3c08341c 	lui	t0,0x341c
bfc00634:	3508aff8 	ori	t0,t0,0xaff8
bfc00638:	3c09f8b7 	lui	t1,0xf8b7
bfc0063c:	35298280 	ori	t1,t1,0x8280
bfc00640:	01098026 	xor	s0,t0,t1
bfc00644:	3c12ccab 	lui	s2,0xccab
bfc00648:	36522d78 	ori	s2,s2,0x2d78
bfc0064c:	1612089b 	bne	s0,s2,bfc028bc <inst_error>
bfc00650:	00000000 	nop
bfc00654:	3c084c8e 	lui	t0,0x4c8e
bfc00658:	350875a8 	ori	t0,t0,0x75a8
bfc0065c:	3c09f12b 	lui	t1,0xf12b
bfc00660:	3529c790 	ori	t1,t1,0xc790
bfc00664:	01098026 	xor	s0,t0,t1
bfc00668:	3c12bda5 	lui	s2,0xbda5
bfc0066c:	3652b238 	ori	s2,s2,0xb238
bfc00670:	16120892 	bne	s0,s2,bfc028bc <inst_error>
bfc00674:	00000000 	nop
bfc00678:	3c088033 	lui	t0,0x8033
bfc0067c:	35087e43 	ori	t0,t0,0x7e43
bfc00680:	3c093d6f 	lui	t1,0x3d6f
bfc00684:	3529c838 	ori	t1,t1,0xc838
bfc00688:	01098026 	xor	s0,t0,t1
bfc0068c:	3c12bd5c 	lui	s2,0xbd5c
bfc00690:	3652b67b 	ori	s2,s2,0xb67b
bfc00694:	16120889 	bne	s0,s2,bfc028bc <inst_error>
bfc00698:	00000000 	nop
bfc0069c:	3c08f318 	lui	t0,0xf318
bfc006a0:	3508abd4 	ori	t0,t0,0xabd4
bfc006a4:	3c09891c 	lui	t1,0x891c
bfc006a8:	35292de6 	ori	t1,t1,0x2de6
bfc006ac:	01098026 	xor	s0,t0,t1
bfc006b0:	3c127a04 	lui	s2,0x7a04
bfc006b4:	36528632 	ori	s2,s2,0x8632
bfc006b8:	16120880 	bne	s0,s2,bfc028bc <inst_error>
bfc006bc:	00000000 	nop
bfc006c0:	3c081301 	lui	t0,0x1301
bfc006c4:	350853e0 	ori	t0,t0,0x53e0
bfc006c8:	3c09cb18 	lui	t1,0xcb18
bfc006cc:	3529fd80 	ori	t1,t1,0xfd80
bfc006d0:	01098026 	xor	s0,t0,t1
bfc006d4:	3c12d819 	lui	s2,0xd819
bfc006d8:	3652ae60 	ori	s2,s2,0xae60
bfc006dc:	16120877 	bne	s0,s2,bfc028bc <inst_error>
bfc006e0:	00000000 	nop
bfc006e4:	3c08d8f4 	lui	t0,0xd8f4
bfc006e8:	35082882 	ori	t0,t0,0x2882
bfc006ec:	3c09a316 	lui	t1,0xa316
bfc006f0:	35298c18 	ori	t1,t1,0x8c18
bfc006f4:	01098026 	xor	s0,t0,t1
bfc006f8:	3c127be2 	lui	s2,0x7be2
bfc006fc:	3652a49a 	ori	s2,s2,0xa49a
bfc00700:	1612086e 	bne	s0,s2,bfc028bc <inst_error>
bfc00704:	00000000 	nop
bfc00708:	3c087387 	lui	t0,0x7387
bfc0070c:	35083200 	ori	t0,t0,0x3200
bfc00710:	3c09a449 	lui	t1,0xa449
bfc00714:	352967de 	ori	t1,t1,0x67de
bfc00718:	01098026 	xor	s0,t0,t1
bfc0071c:	3c12d7ce 	lui	s2,0xd7ce
bfc00720:	365255de 	ori	s2,s2,0x55de
bfc00724:	16120865 	bne	s0,s2,bfc028bc <inst_error>
bfc00728:	00000000 	nop
bfc0072c:	3c08dfb1 	lui	t0,0xdfb1
bfc00730:	35081efe 	ori	t0,t0,0x1efe
bfc00734:	3c092c86 	lui	t1,0x2c86
bfc00738:	3529fcd0 	ori	t1,t1,0xfcd0
bfc0073c:	01098026 	xor	s0,t0,t1
bfc00740:	3c12f337 	lui	s2,0xf337
bfc00744:	3652e22e 	ori	s2,s2,0xe22e
bfc00748:	1612085c 	bne	s0,s2,bfc028bc <inst_error>
bfc0074c:	00000000 	nop
bfc00750:	3c086548 	lui	t0,0x6548
bfc00754:	35084ef0 	ori	t0,t0,0x4ef0
bfc00758:	3c09ec9b 	lui	t1,0xec9b
bfc0075c:	3529b729 	ori	t1,t1,0xb729
bfc00760:	01098026 	xor	s0,t0,t1
bfc00764:	3c1289d3 	lui	s2,0x89d3
bfc00768:	3652f9d9 	ori	s2,s2,0xf9d9
bfc0076c:	16120853 	bne	s0,s2,bfc028bc <inst_error>
bfc00770:	00000000 	nop
bfc00774:	3c08bf02 	lui	t0,0xbf02
bfc00778:	35080438 	ori	t0,t0,0x438
bfc0077c:	3c09eed1 	lui	t1,0xeed1
bfc00780:	35292450 	ori	t1,t1,0x2450
bfc00784:	01098026 	xor	s0,t0,t1
bfc00788:	3c1251d3 	lui	s2,0x51d3
bfc0078c:	36522068 	ori	s2,s2,0x2068
bfc00790:	1612084a 	bne	s0,s2,bfc028bc <inst_error>
bfc00794:	00000000 	nop
bfc00798:	3c089017 	lui	t0,0x9017
bfc0079c:	35084d14 	ori	t0,t0,0x4d14
bfc007a0:	3c09f9cb 	lui	t1,0xf9cb
bfc007a4:	35295a82 	ori	t1,t1,0x5a82
bfc007a8:	01098026 	xor	s0,t0,t1
bfc007ac:	3c1269dc 	lui	s2,0x69dc
bfc007b0:	36521796 	ori	s2,s2,0x1796
bfc007b4:	16120841 	bne	s0,s2,bfc028bc <inst_error>
bfc007b8:	00000000 	nop
bfc007bc:	3c08e264 	lui	t0,0xe264
bfc007c0:	3508b65e 	ori	t0,t0,0xb65e
bfc007c4:	3c091002 	lui	t1,0x1002
bfc007c8:	35295feb 	ori	t1,t1,0x5feb
bfc007cc:	01098026 	xor	s0,t0,t1
bfc007d0:	3c12f266 	lui	s2,0xf266
bfc007d4:	3652e9b5 	ori	s2,s2,0xe9b5
bfc007d8:	16120838 	bne	s0,s2,bfc028bc <inst_error>
bfc007dc:	00000000 	nop
bfc007e0:	3c083ded 	lui	t0,0x3ded
bfc007e4:	35080c60 	ori	t0,t0,0xc60
bfc007e8:	3c095805 	lui	t1,0x5805
bfc007ec:	35297200 	ori	t1,t1,0x7200
bfc007f0:	01098026 	xor	s0,t0,t1
bfc007f4:	3c1265e8 	lui	s2,0x65e8
bfc007f8:	36527e60 	ori	s2,s2,0x7e60
bfc007fc:	1612082f 	bne	s0,s2,bfc028bc <inst_error>
bfc00800:	00000000 	nop
bfc00804:	3c08a855 	lui	t0,0xa855
bfc00808:	3508073a 	ori	t0,t0,0x73a
bfc0080c:	3c0987d2 	lui	t1,0x87d2
bfc00810:	35290ebe 	ori	t1,t1,0xebe
bfc00814:	01098026 	xor	s0,t0,t1
bfc00818:	3c122f87 	lui	s2,0x2f87
bfc0081c:	36520984 	ori	s2,s2,0x984
bfc00820:	16120826 	bne	s0,s2,bfc028bc <inst_error>
bfc00824:	00000000 	nop
bfc00828:	3c081f1c 	lui	t0,0x1f1c
bfc0082c:	350821a8 	ori	t0,t0,0x21a8
bfc00830:	3c09c792 	lui	t1,0xc792
bfc00834:	35290290 	ori	t1,t1,0x290
bfc00838:	01098026 	xor	s0,t0,t1
bfc0083c:	3c12d88e 	lui	s2,0xd88e
bfc00840:	36522338 	ori	s2,s2,0x2338
bfc00844:	1612081d 	bne	s0,s2,bfc028bc <inst_error>
bfc00848:	00000000 	nop
bfc0084c:	3c08c9cd 	lui	t0,0xc9cd
bfc00850:	350826e8 	ori	t0,t0,0x26e8
bfc00854:	3c0946c4 	lui	t1,0x46c4
bfc00858:	35293af9 	ori	t1,t1,0x3af9
bfc0085c:	01098026 	xor	s0,t0,t1
bfc00860:	3c128f09 	lui	s2,0x8f09
bfc00864:	36521c11 	ori	s2,s2,0x1c11
bfc00868:	16120814 	bne	s0,s2,bfc028bc <inst_error>
bfc0086c:	00000000 	nop
bfc00870:	3c08e593 	lui	t0,0xe593
bfc00874:	350827b0 	ori	t0,t0,0x27b0
bfc00878:	3c09a393 	lui	t1,0xa393
bfc0087c:	35298e2e 	ori	t1,t1,0x8e2e
bfc00880:	01098026 	xor	s0,t0,t1
bfc00884:	3c124600 	lui	s2,0x4600
bfc00888:	3652a99e 	ori	s2,s2,0xa99e
bfc0088c:	1612080b 	bne	s0,s2,bfc028bc <inst_error>
bfc00890:	00000000 	nop
bfc00894:	3c08f408 	lui	t0,0xf408
bfc00898:	350872b8 	ori	t0,t0,0x72b8
bfc0089c:	3c099568 	lui	t1,0x9568
bfc008a0:	3529b900 	ori	t1,t1,0xb900
bfc008a4:	01098026 	xor	s0,t0,t1
bfc008a8:	3c126160 	lui	s2,0x6160
bfc008ac:	3652cbb8 	ori	s2,s2,0xcbb8
bfc008b0:	16120802 	bne	s0,s2,bfc028bc <inst_error>
bfc008b4:	00000000 	nop
bfc008b8:	3c08d01d 	lui	t0,0xd01d
bfc008bc:	35086af5 	ori	t0,t0,0x6af5
bfc008c0:	3c092629 	lui	t1,0x2629
bfc008c4:	3529e8cf 	ori	t1,t1,0xe8cf
bfc008c8:	01098026 	xor	s0,t0,t1
bfc008cc:	3c12f634 	lui	s2,0xf634
bfc008d0:	3652823a 	ori	s2,s2,0x823a
bfc008d4:	161207f9 	bne	s0,s2,bfc028bc <inst_error>
bfc008d8:	00000000 	nop
bfc008dc:	3c0857ba 	lui	t0,0x57ba
bfc008e0:	3508b6b8 	ori	t0,t0,0xb6b8
bfc008e4:	3c09f2d2 	lui	t1,0xf2d2
bfc008e8:	3529f47a 	ori	t1,t1,0xf47a
bfc008ec:	01098026 	xor	s0,t0,t1
bfc008f0:	3c12a568 	lui	s2,0xa568
bfc008f4:	365242c2 	ori	s2,s2,0x42c2
bfc008f8:	161207f0 	bne	s0,s2,bfc028bc <inst_error>
bfc008fc:	00000000 	nop
bfc00900:	3c08cdaf 	lui	t0,0xcdaf
bfc00904:	350813dc 	ori	t0,t0,0x13dc
bfc00908:	3c09411e 	lui	t1,0x411e
bfc0090c:	3529e0b8 	ori	t1,t1,0xe0b8
bfc00910:	01098026 	xor	s0,t0,t1
bfc00914:	3c128cb1 	lui	s2,0x8cb1
bfc00918:	3652f364 	ori	s2,s2,0xf364
bfc0091c:	161207e7 	bne	s0,s2,bfc028bc <inst_error>
bfc00920:	00000000 	nop
bfc00924:	3c087046 	lui	t0,0x7046
bfc00928:	3508d6ca 	ori	t0,t0,0xd6ca
bfc0092c:	3c09c222 	lui	t1,0xc222
bfc00930:	3529ce00 	ori	t1,t1,0xce00
bfc00934:	01098026 	xor	s0,t0,t1
bfc00938:	3c12b264 	lui	s2,0xb264
bfc0093c:	365218ca 	ori	s2,s2,0x18ca
bfc00940:	161207de 	bne	s0,s2,bfc028bc <inst_error>
bfc00944:	00000000 	nop
bfc00948:	3c088e46 	lui	t0,0x8e46
bfc0094c:	3508ade8 	ori	t0,t0,0xade8
bfc00950:	3c091d91 	lui	t1,0x1d91
bfc00954:	3529c278 	ori	t1,t1,0xc278
bfc00958:	01098026 	xor	s0,t0,t1
bfc0095c:	3c1293d7 	lui	s2,0x93d7
bfc00960:	36526f90 	ori	s2,s2,0x6f90
bfc00964:	161207d5 	bne	s0,s2,bfc028bc <inst_error>
bfc00968:	00000000 	nop
bfc0096c:	3c08c094 	lui	t0,0xc094
bfc00970:	35088478 	ori	t0,t0,0x8478
bfc00974:	3c0948de 	lui	t1,0x48de
bfc00978:	35299c04 	ori	t1,t1,0x9c04
bfc0097c:	01098026 	xor	s0,t0,t1
bfc00980:	3c12884a 	lui	s2,0x884a
bfc00984:	3652187c 	ori	s2,s2,0x187c
bfc00988:	161207cc 	bne	s0,s2,bfc028bc <inst_error>
bfc0098c:	00000000 	nop
bfc00990:	3c081c56 	lui	t0,0x1c56
bfc00994:	350830ed 	ori	t0,t0,0x30ed
bfc00998:	3c09cbde 	lui	t1,0xcbde
bfc0099c:	35290ad1 	ori	t1,t1,0xad1
bfc009a0:	01098026 	xor	s0,t0,t1
bfc009a4:	3c12d788 	lui	s2,0xd788
bfc009a8:	36523a3c 	ori	s2,s2,0x3a3c
bfc009ac:	161207c3 	bne	s0,s2,bfc028bc <inst_error>
bfc009b0:	00000000 	nop
bfc009b4:	3c08a42f 	lui	t0,0xa42f
bfc009b8:	35081877 	ori	t0,t0,0x1877
bfc009bc:	3c09999c 	lui	t1,0x999c
bfc009c0:	3529f000 	ori	t1,t1,0xf000
bfc009c4:	01098026 	xor	s0,t0,t1
bfc009c8:	3c123db3 	lui	s2,0x3db3
bfc009cc:	3652e877 	ori	s2,s2,0xe877
bfc009d0:	161207ba 	bne	s0,s2,bfc028bc <inst_error>
bfc009d4:	00000000 	nop
bfc009d8:	3c083881 	lui	t0,0x3881
bfc009dc:	35085e76 	ori	t0,t0,0x5e76
bfc009e0:	3c092e1f 	lui	t1,0x2e1f
bfc009e4:	35296db0 	ori	t1,t1,0x6db0
bfc009e8:	01098026 	xor	s0,t0,t1
bfc009ec:	3c12169e 	lui	s2,0x169e
bfc009f0:	365233c6 	ori	s2,s2,0x33c6
bfc009f4:	161207b1 	bne	s0,s2,bfc028bc <inst_error>
bfc009f8:	00000000 	nop
bfc009fc:	3c0802ca 	lui	t0,0x2ca
bfc00a00:	3508ce90 	ori	t0,t0,0xce90
bfc00a04:	3c099bf4 	lui	t1,0x9bf4
bfc00a08:	35299850 	ori	t1,t1,0x9850
bfc00a0c:	01098026 	xor	s0,t0,t1
bfc00a10:	3c12993e 	lui	s2,0x993e
bfc00a14:	365256c0 	ori	s2,s2,0x56c0
bfc00a18:	161207a8 	bne	s0,s2,bfc028bc <inst_error>
bfc00a1c:	00000000 	nop
bfc00a20:	3c08ceb0 	lui	t0,0xceb0
bfc00a24:	3508092e 	ori	t0,t0,0x92e
bfc00a28:	3c094b08 	lui	t1,0x4b08
bfc00a2c:	3529b7ec 	ori	t1,t1,0xb7ec
bfc00a30:	01098026 	xor	s0,t0,t1
bfc00a34:	3c1285b8 	lui	s2,0x85b8
bfc00a38:	3652bec2 	ori	s2,s2,0xbec2
bfc00a3c:	1612079f 	bne	s0,s2,bfc028bc <inst_error>
bfc00a40:	00000000 	nop
bfc00a44:	3c08774c 	lui	t0,0x774c
bfc00a48:	35087be0 	ori	t0,t0,0x7be0
bfc00a4c:	3c09d115 	lui	t1,0xd115
bfc00a50:	3529bc00 	ori	t1,t1,0xbc00
bfc00a54:	01098026 	xor	s0,t0,t1
bfc00a58:	3c12a659 	lui	s2,0xa659
bfc00a5c:	3652c7e0 	ori	s2,s2,0xc7e0
bfc00a60:	16120796 	bne	s0,s2,bfc028bc <inst_error>
bfc00a64:	00000000 	nop
bfc00a68:	3c08ae28 	lui	t0,0xae28
bfc00a6c:	3508d030 	ori	t0,t0,0xd030
bfc00a70:	3c09fe34 	lui	t1,0xfe34
bfc00a74:	3529c70b 	ori	t1,t1,0xc70b
bfc00a78:	01098026 	xor	s0,t0,t1
bfc00a7c:	3c12501c 	lui	s2,0x501c
bfc00a80:	3652173b 	ori	s2,s2,0x173b
bfc00a84:	1612078d 	bne	s0,s2,bfc028bc <inst_error>
bfc00a88:	00000000 	nop
bfc00a8c:	3c0848f1 	lui	t0,0x48f1
bfc00a90:	35084980 	ori	t0,t0,0x4980
bfc00a94:	3c09063e 	lui	t1,0x63e
bfc00a98:	3529d6f8 	ori	t1,t1,0xd6f8
bfc00a9c:	01098026 	xor	s0,t0,t1
bfc00aa0:	3c124ecf 	lui	s2,0x4ecf
bfc00aa4:	36529f78 	ori	s2,s2,0x9f78
bfc00aa8:	16120784 	bne	s0,s2,bfc028bc <inst_error>
bfc00aac:	00000000 	nop
bfc00ab0:	3c08ceb2 	lui	t0,0xceb2
bfc00ab4:	350839b8 	ori	t0,t0,0x39b8
bfc00ab8:	3c09ba26 	lui	t1,0xba26
bfc00abc:	35297317 	ori	t1,t1,0x7317
bfc00ac0:	01098026 	xor	s0,t0,t1
bfc00ac4:	3c127494 	lui	s2,0x7494
bfc00ac8:	36524aaf 	ori	s2,s2,0x4aaf
bfc00acc:	1612077b 	bne	s0,s2,bfc028bc <inst_error>
bfc00ad0:	00000000 	nop
bfc00ad4:	3c08ceba 	lui	t0,0xceba
bfc00ad8:	3508f5a8 	ori	t0,t0,0xf5a8
bfc00adc:	3c095256 	lui	t1,0x5256
bfc00ae0:	3529433c 	ori	t1,t1,0x433c
bfc00ae4:	01098026 	xor	s0,t0,t1
bfc00ae8:	3c129cec 	lui	s2,0x9cec
bfc00aec:	3652b694 	ori	s2,s2,0xb694
bfc00af0:	16120772 	bne	s0,s2,bfc028bc <inst_error>
bfc00af4:	00000000 	nop
bfc00af8:	3c08d3d6 	lui	t0,0xd3d6
bfc00afc:	3508c800 	ori	t0,t0,0xc800
bfc00b00:	3c09f369 	lui	t1,0xf369
bfc00b04:	35290660 	ori	t1,t1,0x660
bfc00b08:	01098026 	xor	s0,t0,t1
bfc00b0c:	3c1220bf 	lui	s2,0x20bf
bfc00b10:	3652ce60 	ori	s2,s2,0xce60
bfc00b14:	16120769 	bne	s0,s2,bfc028bc <inst_error>
bfc00b18:	00000000 	nop
bfc00b1c:	3c087072 	lui	t0,0x7072
bfc00b20:	3508fb50 	ori	t0,t0,0xfb50
bfc00b24:	3c09275a 	lui	t1,0x275a
bfc00b28:	352913d4 	ori	t1,t1,0x13d4
bfc00b2c:	01098026 	xor	s0,t0,t1
bfc00b30:	3c125728 	lui	s2,0x5728
bfc00b34:	3652e884 	ori	s2,s2,0xe884
bfc00b38:	16120760 	bne	s0,s2,bfc028bc <inst_error>
bfc00b3c:	00000000 	nop
bfc00b40:	3c080daf 	lui	t0,0xdaf
bfc00b44:	35084e08 	ori	t0,t0,0x4e08
bfc00b48:	3c098dc1 	lui	t1,0x8dc1
bfc00b4c:	35295e80 	ori	t1,t1,0x5e80
bfc00b50:	01098026 	xor	s0,t0,t1
bfc00b54:	3c12806e 	lui	s2,0x806e
bfc00b58:	36521088 	ori	s2,s2,0x1088
bfc00b5c:	16120757 	bne	s0,s2,bfc028bc <inst_error>
bfc00b60:	00000000 	nop
bfc00b64:	3c088ee6 	lui	t0,0x8ee6
bfc00b68:	3508ca1c 	ori	t0,t0,0xca1c
bfc00b6c:	3c095967 	lui	t1,0x5967
bfc00b70:	35291835 	ori	t1,t1,0x1835
bfc00b74:	01098026 	xor	s0,t0,t1
bfc00b78:	3c12d781 	lui	s2,0xd781
bfc00b7c:	3652d229 	ori	s2,s2,0xd229
bfc00b80:	1612074e 	bne	s0,s2,bfc028bc <inst_error>
bfc00b84:	00000000 	nop
bfc00b88:	3c08626e 	lui	t0,0x626e
bfc00b8c:	35083d0c 	ori	t0,t0,0x3d0c
bfc00b90:	3c09c61c 	lui	t1,0xc61c
bfc00b94:	35297256 	ori	t1,t1,0x7256
bfc00b98:	01098026 	xor	s0,t0,t1
bfc00b9c:	3c12a472 	lui	s2,0xa472
bfc00ba0:	36524f5a 	ori	s2,s2,0x4f5a
bfc00ba4:	16120745 	bne	s0,s2,bfc028bc <inst_error>
bfc00ba8:	00000000 	nop
bfc00bac:	3c08a2d9 	lui	t0,0xa2d9
bfc00bb0:	35082590 	ori	t0,t0,0x2590
bfc00bb4:	3c09f6eb 	lui	t1,0xf6eb
bfc00bb8:	3529a59c 	ori	t1,t1,0xa59c
bfc00bbc:	01098026 	xor	s0,t0,t1
bfc00bc0:	3c125432 	lui	s2,0x5432
bfc00bc4:	3652800c 	ori	s2,s2,0x800c
bfc00bc8:	1612073c 	bne	s0,s2,bfc028bc <inst_error>
bfc00bcc:	00000000 	nop
bfc00bd0:	3c088f4b 	lui	t0,0x8f4b
bfc00bd4:	35084392 	ori	t0,t0,0x4392
bfc00bd8:	3c090c46 	lui	t1,0xc46
bfc00bdc:	35293d48 	ori	t1,t1,0x3d48
bfc00be0:	01098026 	xor	s0,t0,t1
bfc00be4:	3c12830d 	lui	s2,0x830d
bfc00be8:	36527eda 	ori	s2,s2,0x7eda
bfc00bec:	16120733 	bne	s0,s2,bfc028bc <inst_error>
bfc00bf0:	00000000 	nop
bfc00bf4:	3c084a45 	lui	t0,0x4a45
bfc00bf8:	3508a924 	ori	t0,t0,0xa924
bfc00bfc:	3c095652 	lui	t1,0x5652
bfc00c00:	3529b610 	ori	t1,t1,0xb610
bfc00c04:	01098026 	xor	s0,t0,t1
bfc00c08:	3c121c17 	lui	s2,0x1c17
bfc00c0c:	36521f34 	ori	s2,s2,0x1f34
bfc00c10:	1612072a 	bne	s0,s2,bfc028bc <inst_error>
bfc00c14:	00000000 	nop
bfc00c18:	3c085016 	lui	t0,0x5016
bfc00c1c:	3508ccc0 	ori	t0,t0,0xccc0
bfc00c20:	3c09627d 	lui	t1,0x627d
bfc00c24:	3529a984 	ori	t1,t1,0xa984
bfc00c28:	01098026 	xor	s0,t0,t1
bfc00c2c:	3c12326b 	lui	s2,0x326b
bfc00c30:	36526544 	ori	s2,s2,0x6544
bfc00c34:	16120721 	bne	s0,s2,bfc028bc <inst_error>
bfc00c38:	00000000 	nop
bfc00c3c:	3c0811e2 	lui	t0,0x11e2
bfc00c40:	35086bf2 	ori	t0,t0,0x6bf2
bfc00c44:	3c096b4f 	lui	t1,0x6b4f
bfc00c48:	35297f0c 	ori	t1,t1,0x7f0c
bfc00c4c:	01098026 	xor	s0,t0,t1
bfc00c50:	3c127aad 	lui	s2,0x7aad
bfc00c54:	365214fe 	ori	s2,s2,0x14fe
bfc00c58:	16120718 	bne	s0,s2,bfc028bc <inst_error>
bfc00c5c:	00000000 	nop
bfc00c60:	3c080aa8 	lui	t0,0xaa8
bfc00c64:	350810f8 	ori	t0,t0,0x10f8
bfc00c68:	3c09255a 	lui	t1,0x255a
bfc00c6c:	3529409a 	ori	t1,t1,0x409a
bfc00c70:	01098026 	xor	s0,t0,t1
bfc00c74:	3c122ff2 	lui	s2,0x2ff2
bfc00c78:	36525062 	ori	s2,s2,0x5062
bfc00c7c:	1612070f 	bne	s0,s2,bfc028bc <inst_error>
bfc00c80:	00000000 	nop
bfc00c84:	3c08e518 	lui	t0,0xe518
bfc00c88:	3508e46a 	ori	t0,t0,0xe46a
bfc00c8c:	3c09e34e 	lui	t1,0xe34e
bfc00c90:	3529e318 	ori	t1,t1,0xe318
bfc00c94:	01098026 	xor	s0,t0,t1
bfc00c98:	3c120656 	lui	s2,0x656
bfc00c9c:	36520772 	ori	s2,s2,0x772
bfc00ca0:	16120706 	bne	s0,s2,bfc028bc <inst_error>
bfc00ca4:	00000000 	nop
bfc00ca8:	3c083acc 	lui	t0,0x3acc
bfc00cac:	35088ac4 	ori	t0,t0,0x8ac4
bfc00cb0:	3c0952e5 	lui	t1,0x52e5
bfc00cb4:	352974a8 	ori	t1,t1,0x74a8
bfc00cb8:	01098026 	xor	s0,t0,t1
bfc00cbc:	3c126829 	lui	s2,0x6829
bfc00cc0:	3652fe6c 	ori	s2,s2,0xfe6c
bfc00cc4:	161206fd 	bne	s0,s2,bfc028bc <inst_error>
bfc00cc8:	00000000 	nop
bfc00ccc:	3c0852e7 	lui	t0,0x52e7
bfc00cd0:	35080cc0 	ori	t0,t0,0xcc0
bfc00cd4:	3c09dd8f 	lui	t1,0xdd8f
bfc00cd8:	35293b08 	ori	t1,t1,0x3b08
bfc00cdc:	01098026 	xor	s0,t0,t1
bfc00ce0:	3c128f68 	lui	s2,0x8f68
bfc00ce4:	365237c8 	ori	s2,s2,0x37c8
bfc00ce8:	161206f4 	bne	s0,s2,bfc028bc <inst_error>
bfc00cec:	00000000 	nop
bfc00cf0:	3c08b70b 	lui	t0,0xb70b
bfc00cf4:	35084c48 	ori	t0,t0,0x4c48
bfc00cf8:	3c094644 	lui	t1,0x4644
bfc00cfc:	352935c0 	ori	t1,t1,0x35c0
bfc00d00:	01098026 	xor	s0,t0,t1
bfc00d04:	3c12f14f 	lui	s2,0xf14f
bfc00d08:	36527988 	ori	s2,s2,0x7988
bfc00d0c:	161206eb 	bne	s0,s2,bfc028bc <inst_error>
bfc00d10:	00000000 	nop
bfc00d14:	3c08fee3 	lui	t0,0xfee3
bfc00d18:	35080fe0 	ori	t0,t0,0xfe0
bfc00d1c:	3c09a97a 	lui	t1,0xa97a
bfc00d20:	35296250 	ori	t1,t1,0x6250
bfc00d24:	01098026 	xor	s0,t0,t1
bfc00d28:	3c125799 	lui	s2,0x5799
bfc00d2c:	36526db0 	ori	s2,s2,0x6db0
bfc00d30:	161206e2 	bne	s0,s2,bfc028bc <inst_error>
bfc00d34:	00000000 	nop
bfc00d38:	3c081fe1 	lui	t0,0x1fe1
bfc00d3c:	35082bd5 	ori	t0,t0,0x2bd5
bfc00d40:	3c09fefb 	lui	t1,0xfefb
bfc00d44:	3529ecc5 	ori	t1,t1,0xecc5
bfc00d48:	01098026 	xor	s0,t0,t1
bfc00d4c:	3c12e11a 	lui	s2,0xe11a
bfc00d50:	3652c710 	ori	s2,s2,0xc710
bfc00d54:	161206d9 	bne	s0,s2,bfc028bc <inst_error>
bfc00d58:	00000000 	nop
bfc00d5c:	3c08d515 	lui	t0,0xd515
bfc00d60:	3508843c 	ori	t0,t0,0x843c
bfc00d64:	3c097f6d 	lui	t1,0x7f6d
bfc00d68:	352924b4 	ori	t1,t1,0x24b4
bfc00d6c:	01098026 	xor	s0,t0,t1
bfc00d70:	3c12aa78 	lui	s2,0xaa78
bfc00d74:	3652a088 	ori	s2,s2,0xa088
bfc00d78:	161206d0 	bne	s0,s2,bfc028bc <inst_error>
bfc00d7c:	00000000 	nop
bfc00d80:	3c08cab0 	lui	t0,0xcab0
bfc00d84:	350815b0 	ori	t0,t0,0x15b0
bfc00d88:	3c0963e0 	lui	t1,0x63e0
bfc00d8c:	35290e40 	ori	t1,t1,0xe40
bfc00d90:	01098026 	xor	s0,t0,t1
bfc00d94:	3c12a950 	lui	s2,0xa950
bfc00d98:	36521bf0 	ori	s2,s2,0x1bf0
bfc00d9c:	161206c7 	bne	s0,s2,bfc028bc <inst_error>
bfc00da0:	00000000 	nop
bfc00da4:	3c085201 	lui	t0,0x5201
bfc00da8:	35088740 	ori	t0,t0,0x8740
bfc00dac:	3c09ef6e 	lui	t1,0xef6e
bfc00db0:	352920cc 	ori	t1,t1,0x20cc
bfc00db4:	01098026 	xor	s0,t0,t1
bfc00db8:	3c12bd6f 	lui	s2,0xbd6f
bfc00dbc:	3652a78c 	ori	s2,s2,0xa78c
bfc00dc0:	161206be 	bne	s0,s2,bfc028bc <inst_error>
bfc00dc4:	00000000 	nop
bfc00dc8:	3c0892f6 	lui	t0,0x92f6
bfc00dcc:	35085d38 	ori	t0,t0,0x5d38
bfc00dd0:	3c09a932 	lui	t1,0xa932
bfc00dd4:	35294a80 	ori	t1,t1,0x4a80
bfc00dd8:	01098026 	xor	s0,t0,t1
bfc00ddc:	3c123bc4 	lui	s2,0x3bc4
bfc00de0:	365217b8 	ori	s2,s2,0x17b8
bfc00de4:	161206b5 	bne	s0,s2,bfc028bc <inst_error>
bfc00de8:	00000000 	nop
bfc00dec:	3c080393 	lui	t0,0x393
bfc00df0:	350821a2 	ori	t0,t0,0x21a2
bfc00df4:	3c09656a 	lui	t1,0x656a
bfc00df8:	35296929 	ori	t1,t1,0x6929
bfc00dfc:	01098026 	xor	s0,t0,t1
bfc00e00:	3c1266f9 	lui	s2,0x66f9
bfc00e04:	3652488b 	ori	s2,s2,0x488b
bfc00e08:	161206ac 	bne	s0,s2,bfc028bc <inst_error>
bfc00e0c:	00000000 	nop
bfc00e10:	3c08979a 	lui	t0,0x979a
bfc00e14:	3508e176 	ori	t0,t0,0xe176
bfc00e18:	3c0908a7 	lui	t1,0x8a7
bfc00e1c:	3529f9a4 	ori	t1,t1,0xf9a4
bfc00e20:	01098026 	xor	s0,t0,t1
bfc00e24:	3c129f3d 	lui	s2,0x9f3d
bfc00e28:	365218d2 	ori	s2,s2,0x18d2
bfc00e2c:	161206a3 	bne	s0,s2,bfc028bc <inst_error>
bfc00e30:	00000000 	nop
bfc00e34:	3c08d8bd 	lui	t0,0xd8bd
bfc00e38:	3508ce58 	ori	t0,t0,0xce58
bfc00e3c:	3c09a818 	lui	t1,0xa818
bfc00e40:	3529a664 	ori	t1,t1,0xa664
bfc00e44:	01098026 	xor	s0,t0,t1
bfc00e48:	3c1270a5 	lui	s2,0x70a5
bfc00e4c:	3652683c 	ori	s2,s2,0x683c
bfc00e50:	1612069a 	bne	s0,s2,bfc028bc <inst_error>
bfc00e54:	00000000 	nop
bfc00e58:	3c08ece5 	lui	t0,0xece5
bfc00e5c:	350833f0 	ori	t0,t0,0x33f0
bfc00e60:	3c099322 	lui	t1,0x9322
bfc00e64:	3529f2a8 	ori	t1,t1,0xf2a8
bfc00e68:	01098026 	xor	s0,t0,t1
bfc00e6c:	3c127fc7 	lui	s2,0x7fc7
bfc00e70:	3652c158 	ori	s2,s2,0xc158
bfc00e74:	16120691 	bne	s0,s2,bfc028bc <inst_error>
bfc00e78:	00000000 	nop
bfc00e7c:	3c089a2a 	lui	t0,0x9a2a
bfc00e80:	35085b8b 	ori	t0,t0,0x5b8b
bfc00e84:	3c09c403 	lui	t1,0xc403
bfc00e88:	35298e8e 	ori	t1,t1,0x8e8e
bfc00e8c:	01098026 	xor	s0,t0,t1
bfc00e90:	3c125e29 	lui	s2,0x5e29
bfc00e94:	3652d505 	ori	s2,s2,0xd505
bfc00e98:	16120688 	bne	s0,s2,bfc028bc <inst_error>
bfc00e9c:	00000000 	nop
bfc00ea0:	3c0844e4 	lui	t0,0x44e4
bfc00ea4:	3508fc98 	ori	t0,t0,0xfc98
bfc00ea8:	3c09946f 	lui	t1,0x946f
bfc00eac:	35296cb2 	ori	t1,t1,0x6cb2
bfc00eb0:	01098026 	xor	s0,t0,t1
bfc00eb4:	3c12d08b 	lui	s2,0xd08b
bfc00eb8:	3652902a 	ori	s2,s2,0x902a
bfc00ebc:	1612067f 	bne	s0,s2,bfc028bc <inst_error>
bfc00ec0:	00000000 	nop
bfc00ec4:	3c083cec 	lui	t0,0x3cec
bfc00ec8:	350852fc 	ori	t0,t0,0x52fc
bfc00ecc:	3c0986d0 	lui	t1,0x86d0
bfc00ed0:	3529799f 	ori	t1,t1,0x799f
bfc00ed4:	01098026 	xor	s0,t0,t1
bfc00ed8:	3c12ba3c 	lui	s2,0xba3c
bfc00edc:	36522b63 	ori	s2,s2,0x2b63
bfc00ee0:	16120676 	bne	s0,s2,bfc028bc <inst_error>
bfc00ee4:	00000000 	nop
bfc00ee8:	3c081ec7 	lui	t0,0x1ec7
bfc00eec:	3508ae70 	ori	t0,t0,0xae70
bfc00ef0:	3c0935c6 	lui	t1,0x35c6
bfc00ef4:	3529e91a 	ori	t1,t1,0xe91a
bfc00ef8:	01098026 	xor	s0,t0,t1
bfc00efc:	3c122b01 	lui	s2,0x2b01
bfc00f00:	3652476a 	ori	s2,s2,0x476a
bfc00f04:	1612066d 	bne	s0,s2,bfc028bc <inst_error>
bfc00f08:	00000000 	nop
bfc00f0c:	3c084da9 	lui	t0,0x4da9
bfc00f10:	35083b5e 	ori	t0,t0,0x3b5e
bfc00f14:	3c09ece3 	lui	t1,0xece3
bfc00f18:	35296e04 	ori	t1,t1,0x6e04
bfc00f1c:	01098026 	xor	s0,t0,t1
bfc00f20:	3c12a14a 	lui	s2,0xa14a
bfc00f24:	3652555a 	ori	s2,s2,0x555a
bfc00f28:	16120664 	bne	s0,s2,bfc028bc <inst_error>
bfc00f2c:	00000000 	nop
bfc00f30:	3c08c272 	lui	t0,0xc272
bfc00f34:	35081c7b 	ori	t0,t0,0x1c7b
bfc00f38:	3c093453 	lui	t1,0x3453
bfc00f3c:	3529b32e 	ori	t1,t1,0xb32e
bfc00f40:	01098026 	xor	s0,t0,t1
bfc00f44:	3c12f621 	lui	s2,0xf621
bfc00f48:	3652af55 	ori	s2,s2,0xaf55
bfc00f4c:	1612065b 	bne	s0,s2,bfc028bc <inst_error>
bfc00f50:	00000000 	nop
bfc00f54:	3c08af7a 	lui	t0,0xaf7a
bfc00f58:	350812d8 	ori	t0,t0,0x12d8
bfc00f5c:	3c094021 	lui	t1,0x4021
bfc00f60:	3529008c 	ori	t1,t1,0x8c
bfc00f64:	01098026 	xor	s0,t0,t1
bfc00f68:	3c12ef5b 	lui	s2,0xef5b
bfc00f6c:	36521254 	ori	s2,s2,0x1254
bfc00f70:	16120652 	bne	s0,s2,bfc028bc <inst_error>
bfc00f74:	00000000 	nop
bfc00f78:	3c081b59 	lui	t0,0x1b59
bfc00f7c:	3508edf0 	ori	t0,t0,0xedf0
bfc00f80:	3c09cafc 	lui	t1,0xcafc
bfc00f84:	35291754 	ori	t1,t1,0x1754
bfc00f88:	01098026 	xor	s0,t0,t1
bfc00f8c:	3c12d1a5 	lui	s2,0xd1a5
bfc00f90:	3652faa4 	ori	s2,s2,0xfaa4
bfc00f94:	16120649 	bne	s0,s2,bfc028bc <inst_error>
bfc00f98:	00000000 	nop
bfc00f9c:	3c08e7bd 	lui	t0,0xe7bd
bfc00fa0:	35087752 	ori	t0,t0,0x7752
bfc00fa4:	3c09ff1d 	lui	t1,0xff1d
bfc00fa8:	352902b8 	ori	t1,t1,0x2b8
bfc00fac:	01098026 	xor	s0,t0,t1
bfc00fb0:	3c1218a0 	lui	s2,0x18a0
bfc00fb4:	365275ea 	ori	s2,s2,0x75ea
bfc00fb8:	16120640 	bne	s0,s2,bfc028bc <inst_error>
bfc00fbc:	00000000 	nop
bfc00fc0:	3c087e12 	lui	t0,0x7e12
bfc00fc4:	3508a3fc 	ori	t0,t0,0xa3fc
bfc00fc8:	3c0975bb 	lui	t1,0x75bb
bfc00fcc:	3529c9e7 	ori	t1,t1,0xc9e7
bfc00fd0:	01098026 	xor	s0,t0,t1
bfc00fd4:	3c120ba9 	lui	s2,0xba9
bfc00fd8:	36526a1b 	ori	s2,s2,0x6a1b
bfc00fdc:	16120637 	bne	s0,s2,bfc028bc <inst_error>
bfc00fe0:	00000000 	nop
bfc00fe4:	3c089675 	lui	t0,0x9675
bfc00fe8:	35086580 	ori	t0,t0,0x6580
bfc00fec:	3c09d4cc 	lui	t1,0xd4cc
bfc00ff0:	3529d960 	ori	t1,t1,0xd960
bfc00ff4:	01098026 	xor	s0,t0,t1
bfc00ff8:	3c1242b9 	lui	s2,0x42b9
bfc00ffc:	3652bce0 	ori	s2,s2,0xbce0
bfc01000:	1612062e 	bne	s0,s2,bfc028bc <inst_error>
bfc01004:	00000000 	nop
bfc01008:	3c08d110 	lui	t0,0xd110
bfc0100c:	350878c0 	ori	t0,t0,0x78c0
bfc01010:	3c09d2f4 	lui	t1,0xd2f4
bfc01014:	35295c20 	ori	t1,t1,0x5c20
bfc01018:	01098026 	xor	s0,t0,t1
bfc0101c:	3c1203e4 	lui	s2,0x3e4
bfc01020:	365224e0 	ori	s2,s2,0x24e0
bfc01024:	16120625 	bne	s0,s2,bfc028bc <inst_error>
bfc01028:	00000000 	nop
bfc0102c:	3c08a337 	lui	t0,0xa337
bfc01030:	3508d9ae 	ori	t0,t0,0xd9ae
bfc01034:	3c09f702 	lui	t1,0xf702
bfc01038:	35293ce0 	ori	t1,t1,0x3ce0
bfc0103c:	01098026 	xor	s0,t0,t1
bfc01040:	3c125435 	lui	s2,0x5435
bfc01044:	3652e54e 	ori	s2,s2,0xe54e
bfc01048:	1612061c 	bne	s0,s2,bfc028bc <inst_error>
bfc0104c:	00000000 	nop
bfc01050:	3c0898bd 	lui	t0,0x98bd
bfc01054:	3508dbc4 	ori	t0,t0,0xdbc4
bfc01058:	3c09d7bb 	lui	t1,0xd7bb
bfc0105c:	35295a80 	ori	t1,t1,0x5a80
bfc01060:	01098026 	xor	s0,t0,t1
bfc01064:	3c124f06 	lui	s2,0x4f06
bfc01068:	36528144 	ori	s2,s2,0x8144
bfc0106c:	16120613 	bne	s0,s2,bfc028bc <inst_error>
bfc01070:	00000000 	nop
bfc01074:	3c087b10 	lui	t0,0x7b10
bfc01078:	3508de60 	ori	t0,t0,0xde60
bfc0107c:	3c096bbe 	lui	t1,0x6bbe
bfc01080:	3529e859 	ori	t1,t1,0xe859
bfc01084:	01098026 	xor	s0,t0,t1
bfc01088:	3c1210ae 	lui	s2,0x10ae
bfc0108c:	36523639 	ori	s2,s2,0x3639
bfc01090:	1612060a 	bne	s0,s2,bfc028bc <inst_error>
bfc01094:	00000000 	nop
bfc01098:	3c08cea7 	lui	t0,0xcea7
bfc0109c:	35084b40 	ori	t0,t0,0x4b40
bfc010a0:	3c09fdf6 	lui	t1,0xfdf6
bfc010a4:	35293eb4 	ori	t1,t1,0x3eb4
bfc010a8:	01098026 	xor	s0,t0,t1
bfc010ac:	3c123351 	lui	s2,0x3351
bfc010b0:	365275f4 	ori	s2,s2,0x75f4
bfc010b4:	16120601 	bne	s0,s2,bfc028bc <inst_error>
bfc010b8:	00000000 	nop
bfc010bc:	3c08ef34 	lui	t0,0xef34
bfc010c0:	350850a3 	ori	t0,t0,0x50a3
bfc010c4:	3c092351 	lui	t1,0x2351
bfc010c8:	3529eb6c 	ori	t1,t1,0xeb6c
bfc010cc:	01098026 	xor	s0,t0,t1
bfc010d0:	3c12cc65 	lui	s2,0xcc65
bfc010d4:	3652bbcf 	ori	s2,s2,0xbbcf
bfc010d8:	161205f8 	bne	s0,s2,bfc028bc <inst_error>
bfc010dc:	00000000 	nop
bfc010e0:	3c083811 	lui	t0,0x3811
bfc010e4:	3508aac0 	ori	t0,t0,0xaac0
bfc010e8:	3c0908f1 	lui	t1,0x8f1
bfc010ec:	352905f0 	ori	t1,t1,0x5f0
bfc010f0:	01098026 	xor	s0,t0,t1
bfc010f4:	3c1230e0 	lui	s2,0x30e0
bfc010f8:	3652af30 	ori	s2,s2,0xaf30
bfc010fc:	161205ef 	bne	s0,s2,bfc028bc <inst_error>
bfc01100:	00000000 	nop
bfc01104:	3c086a91 	lui	t0,0x6a91
bfc01108:	350864a8 	ori	t0,t0,0x64a8
bfc0110c:	3c09a1a1 	lui	t1,0xa1a1
bfc01110:	352951f0 	ori	t1,t1,0x51f0
bfc01114:	01098026 	xor	s0,t0,t1
bfc01118:	3c12cb30 	lui	s2,0xcb30
bfc0111c:	36523558 	ori	s2,s2,0x3558
bfc01120:	161205e6 	bne	s0,s2,bfc028bc <inst_error>
bfc01124:	00000000 	nop
bfc01128:	3c081626 	lui	t0,0x1626
bfc0112c:	3508629c 	ori	t0,t0,0x629c
bfc01130:	3c096016 	lui	t1,0x6016
bfc01134:	35293b2b 	ori	t1,t1,0x3b2b
bfc01138:	01098026 	xor	s0,t0,t1
bfc0113c:	3c127630 	lui	s2,0x7630
bfc01140:	365259b7 	ori	s2,s2,0x59b7
bfc01144:	161205dd 	bne	s0,s2,bfc028bc <inst_error>
bfc01148:	00000000 	nop
bfc0114c:	3c08ff1c 	lui	t0,0xff1c
bfc01150:	35086994 	ori	t0,t0,0x6994
bfc01154:	3c098403 	lui	t1,0x8403
bfc01158:	3529e5f4 	ori	t1,t1,0xe5f4
bfc0115c:	01098026 	xor	s0,t0,t1
bfc01160:	3c127b1f 	lui	s2,0x7b1f
bfc01164:	36528c60 	ori	s2,s2,0x8c60
bfc01168:	161205d4 	bne	s0,s2,bfc028bc <inst_error>
bfc0116c:	00000000 	nop
bfc01170:	3c0867ef 	lui	t0,0x67ef
bfc01174:	3508e980 	ori	t0,t0,0xe980
bfc01178:	3c09cbe2 	lui	t1,0xcbe2
bfc0117c:	3529ddc8 	ori	t1,t1,0xddc8
bfc01180:	01098026 	xor	s0,t0,t1
bfc01184:	3c12ac0d 	lui	s2,0xac0d
bfc01188:	36523448 	ori	s2,s2,0x3448
bfc0118c:	161205cb 	bne	s0,s2,bfc028bc <inst_error>
bfc01190:	00000000 	nop
bfc01194:	3c082d07 	lui	t0,0x2d07
bfc01198:	3508a22c 	ori	t0,t0,0xa22c
bfc0119c:	3c09ec0a 	lui	t1,0xec0a
bfc011a0:	35298100 	ori	t1,t1,0x8100
bfc011a4:	01098026 	xor	s0,t0,t1
bfc011a8:	3c12c10d 	lui	s2,0xc10d
bfc011ac:	3652232c 	ori	s2,s2,0x232c
bfc011b0:	161205c2 	bne	s0,s2,bfc028bc <inst_error>
bfc011b4:	00000000 	nop
bfc011b8:	3c080ea2 	lui	t0,0xea2
bfc011bc:	3508bd16 	ori	t0,t0,0xbd16
bfc011c0:	3c09b78b 	lui	t1,0xb78b
bfc011c4:	3529fb80 	ori	t1,t1,0xfb80
bfc011c8:	01098026 	xor	s0,t0,t1
bfc011cc:	3c12b929 	lui	s2,0xb929
bfc011d0:	36524696 	ori	s2,s2,0x4696
bfc011d4:	161205b9 	bne	s0,s2,bfc028bc <inst_error>
bfc011d8:	00000000 	nop
bfc011dc:	3c082492 	lui	t0,0x2492
bfc011e0:	35084d30 	ori	t0,t0,0x4d30
bfc011e4:	3c09f306 	lui	t1,0xf306
bfc011e8:	3529ff74 	ori	t1,t1,0xff74
bfc011ec:	01098026 	xor	s0,t0,t1
bfc011f0:	3c12d794 	lui	s2,0xd794
bfc011f4:	3652b244 	ori	s2,s2,0xb244
bfc011f8:	161205b0 	bne	s0,s2,bfc028bc <inst_error>
bfc011fc:	00000000 	nop
bfc01200:	3c08aacb 	lui	t0,0xaacb
bfc01204:	3508f870 	ori	t0,t0,0xf870
bfc01208:	3c0917c5 	lui	t1,0x17c5
bfc0120c:	35292bc0 	ori	t1,t1,0x2bc0
bfc01210:	01098026 	xor	s0,t0,t1
bfc01214:	3c12bd0e 	lui	s2,0xbd0e
bfc01218:	3652d3b0 	ori	s2,s2,0xd3b0
bfc0121c:	161205a7 	bne	s0,s2,bfc028bc <inst_error>
bfc01220:	00000000 	nop
bfc01224:	3c0845b8 	lui	t0,0x45b8
bfc01228:	35089ee0 	ori	t0,t0,0x9ee0
bfc0122c:	3c096d1e 	lui	t1,0x6d1e
bfc01230:	3529298c 	ori	t1,t1,0x298c
bfc01234:	01098026 	xor	s0,t0,t1
bfc01238:	3c1228a6 	lui	s2,0x28a6
bfc0123c:	3652b76c 	ori	s2,s2,0xb76c
bfc01240:	1612059e 	bne	s0,s2,bfc028bc <inst_error>
bfc01244:	00000000 	nop
bfc01248:	3c08e976 	lui	t0,0xe976
bfc0124c:	35084bb6 	ori	t0,t0,0x4bb6
bfc01250:	3c099601 	lui	t1,0x9601
bfc01254:	352967b0 	ori	t1,t1,0x67b0
bfc01258:	01098026 	xor	s0,t0,t1
bfc0125c:	3c127f77 	lui	s2,0x7f77
bfc01260:	36522c06 	ori	s2,s2,0x2c06
bfc01264:	16120595 	bne	s0,s2,bfc028bc <inst_error>
bfc01268:	00000000 	nop
bfc0126c:	3c08baba 	lui	t0,0xbaba
bfc01270:	350814a5 	ori	t0,t0,0x14a5
bfc01274:	3c09b8d4 	lui	t1,0xb8d4
bfc01278:	352900e0 	ori	t1,t1,0xe0
bfc0127c:	01098026 	xor	s0,t0,t1
bfc01280:	3c12026e 	lui	s2,0x26e
bfc01284:	36521445 	ori	s2,s2,0x1445
bfc01288:	1612058c 	bne	s0,s2,bfc028bc <inst_error>
bfc0128c:	00000000 	nop
bfc01290:	3c088e0e 	lui	t0,0x8e0e
bfc01294:	35083712 	ori	t0,t0,0x3712
bfc01298:	3c09e4fb 	lui	t1,0xe4fb
bfc0129c:	3529483c 	ori	t1,t1,0x483c
bfc012a0:	01098026 	xor	s0,t0,t1
bfc012a4:	3c126af5 	lui	s2,0x6af5
bfc012a8:	36527f2e 	ori	s2,s2,0x7f2e
bfc012ac:	16120583 	bne	s0,s2,bfc028bc <inst_error>
bfc012b0:	00000000 	nop
bfc012b4:	3c0833d1 	lui	t0,0x33d1
bfc012b8:	35083740 	ori	t0,t0,0x3740
bfc012bc:	3c0973bd 	lui	t1,0x73bd
bfc012c0:	3529816e 	ori	t1,t1,0x816e
bfc012c4:	01098026 	xor	s0,t0,t1
bfc012c8:	3c12406c 	lui	s2,0x406c
bfc012cc:	3652b62e 	ori	s2,s2,0xb62e
bfc012d0:	1612057a 	bne	s0,s2,bfc028bc <inst_error>
bfc012d4:	00000000 	nop
bfc012d8:	3c087e22 	lui	t0,0x7e22
bfc012dc:	3508aef4 	ori	t0,t0,0xaef4
bfc012e0:	3c091801 	lui	t1,0x1801
bfc012e4:	35296a00 	ori	t1,t1,0x6a00
bfc012e8:	01098026 	xor	s0,t0,t1
bfc012ec:	3c126623 	lui	s2,0x6623
bfc012f0:	3652c4f4 	ori	s2,s2,0xc4f4
bfc012f4:	16120571 	bne	s0,s2,bfc028bc <inst_error>
bfc012f8:	00000000 	nop
bfc012fc:	3c08effd 	lui	t0,0xeffd
bfc01300:	3508d900 	ori	t0,t0,0xd900
bfc01304:	3c092e8d 	lui	t1,0x2e8d
bfc01308:	35294aa0 	ori	t1,t1,0x4aa0
bfc0130c:	01098026 	xor	s0,t0,t1
bfc01310:	3c12c170 	lui	s2,0xc170
bfc01314:	365293a0 	ori	s2,s2,0x93a0
bfc01318:	16120568 	bne	s0,s2,bfc028bc <inst_error>
bfc0131c:	00000000 	nop
bfc01320:	3c0808e2 	lui	t0,0x8e2
bfc01324:	35087919 	ori	t0,t0,0x7919
bfc01328:	3c09643d 	lui	t1,0x643d
bfc0132c:	3529b550 	ori	t1,t1,0xb550
bfc01330:	01098026 	xor	s0,t0,t1
bfc01334:	3c126cdf 	lui	s2,0x6cdf
bfc01338:	3652cc49 	ori	s2,s2,0xcc49
bfc0133c:	1612055f 	bne	s0,s2,bfc028bc <inst_error>
bfc01340:	00000000 	nop
bfc01344:	3c086b22 	lui	t0,0x6b22
bfc01348:	35084cc8 	ori	t0,t0,0x4cc8
bfc0134c:	3c0940c6 	lui	t1,0x40c6
bfc01350:	35298c68 	ori	t1,t1,0x8c68
bfc01354:	01098026 	xor	s0,t0,t1
bfc01358:	3c122be4 	lui	s2,0x2be4
bfc0135c:	3652c0a0 	ori	s2,s2,0xc0a0
bfc01360:	16120556 	bne	s0,s2,bfc028bc <inst_error>
bfc01364:	00000000 	nop
bfc01368:	3c08abfe 	lui	t0,0xabfe
bfc0136c:	3508a0ac 	ori	t0,t0,0xa0ac
bfc01370:	3c093400 	lui	t1,0x3400
bfc01374:	3529763e 	ori	t1,t1,0x763e
bfc01378:	01098026 	xor	s0,t0,t1
bfc0137c:	3c129ffe 	lui	s2,0x9ffe
bfc01380:	3652d692 	ori	s2,s2,0xd692
bfc01384:	1612054d 	bne	s0,s2,bfc028bc <inst_error>
bfc01388:	00000000 	nop
bfc0138c:	3c08a441 	lui	t0,0xa441
bfc01390:	3508cf33 	ori	t0,t0,0xcf33
bfc01394:	3c09c4e3 	lui	t1,0xc4e3
bfc01398:	35298fcc 	ori	t1,t1,0x8fcc
bfc0139c:	01098026 	xor	s0,t0,t1
bfc013a0:	3c1260a2 	lui	s2,0x60a2
bfc013a4:	365240ff 	ori	s2,s2,0x40ff
bfc013a8:	16120544 	bne	s0,s2,bfc028bc <inst_error>
bfc013ac:	00000000 	nop
bfc013b0:	3c083613 	lui	t0,0x3613
bfc013b4:	3508d240 	ori	t0,t0,0xd240
bfc013b8:	3c09b5bb 	lui	t1,0xb5bb
bfc013bc:	35292088 	ori	t1,t1,0x2088
bfc013c0:	01098026 	xor	s0,t0,t1
bfc013c4:	3c1283a8 	lui	s2,0x83a8
bfc013c8:	3652f2c8 	ori	s2,s2,0xf2c8
bfc013cc:	1612053b 	bne	s0,s2,bfc028bc <inst_error>
bfc013d0:	00000000 	nop
bfc013d4:	3c08bf23 	lui	t0,0xbf23
bfc013d8:	3508c6d0 	ori	t0,t0,0xc6d0
bfc013dc:	3c093bdb 	lui	t1,0x3bdb
bfc013e0:	35293802 	ori	t1,t1,0x3802
bfc013e4:	01098026 	xor	s0,t0,t1
bfc013e8:	3c1284f8 	lui	s2,0x84f8
bfc013ec:	3652fed2 	ori	s2,s2,0xfed2
bfc013f0:	16120532 	bne	s0,s2,bfc028bc <inst_error>
bfc013f4:	00000000 	nop
bfc013f8:	3c083ead 	lui	t0,0x3ead
bfc013fc:	35086d74 	ori	t0,t0,0x6d74
bfc01400:	3c09904b 	lui	t1,0x904b
bfc01404:	35296f66 	ori	t1,t1,0x6f66
bfc01408:	01098026 	xor	s0,t0,t1
bfc0140c:	3c12aee6 	lui	s2,0xaee6
bfc01410:	36520212 	ori	s2,s2,0x212
bfc01414:	16120529 	bne	s0,s2,bfc028bc <inst_error>
bfc01418:	00000000 	nop
bfc0141c:	3c08f4db 	lui	t0,0xf4db
bfc01420:	3508914c 	ori	t0,t0,0x914c
bfc01424:	3c09edaf 	lui	t1,0xedaf
bfc01428:	3529dd9e 	ori	t1,t1,0xdd9e
bfc0142c:	01098026 	xor	s0,t0,t1
bfc01430:	3c121974 	lui	s2,0x1974
bfc01434:	36524cd2 	ori	s2,s2,0x4cd2
bfc01438:	16120520 	bne	s0,s2,bfc028bc <inst_error>
bfc0143c:	00000000 	nop
bfc01440:	3c089f71 	lui	t0,0x9f71
bfc01444:	35089840 	ori	t0,t0,0x9840
bfc01448:	3c09f713 	lui	t1,0xf713
bfc0144c:	35297588 	ori	t1,t1,0x7588
bfc01450:	01098026 	xor	s0,t0,t1
bfc01454:	3c126862 	lui	s2,0x6862
bfc01458:	3652edc8 	ori	s2,s2,0xedc8
bfc0145c:	16120517 	bne	s0,s2,bfc028bc <inst_error>
bfc01460:	00000000 	nop
bfc01464:	3c0803a0 	lui	t0,0x3a0
bfc01468:	3508d450 	ori	t0,t0,0xd450
bfc0146c:	3c091ec8 	lui	t1,0x1ec8
bfc01470:	35291ee8 	ori	t1,t1,0x1ee8
bfc01474:	01098026 	xor	s0,t0,t1
bfc01478:	3c121d68 	lui	s2,0x1d68
bfc0147c:	3652cab8 	ori	s2,s2,0xcab8
bfc01480:	1612050e 	bne	s0,s2,bfc028bc <inst_error>
bfc01484:	00000000 	nop
bfc01488:	3c0874b1 	lui	t0,0x74b1
bfc0148c:	35085e02 	ori	t0,t0,0x5e02
bfc01490:	3c0955eb 	lui	t1,0x55eb
bfc01494:	35298d05 	ori	t1,t1,0x8d05
bfc01498:	01098026 	xor	s0,t0,t1
bfc0149c:	3c12215a 	lui	s2,0x215a
bfc014a0:	3652d307 	ori	s2,s2,0xd307
bfc014a4:	16120505 	bne	s0,s2,bfc028bc <inst_error>
bfc014a8:	00000000 	nop
bfc014ac:	3c08a96b 	lui	t0,0xa96b
bfc014b0:	35081717 	ori	t0,t0,0x1717
bfc014b4:	3c09db41 	lui	t1,0xdb41
bfc014b8:	35299cb0 	ori	t1,t1,0x9cb0
bfc014bc:	01098026 	xor	s0,t0,t1
bfc014c0:	3c12722a 	lui	s2,0x722a
bfc014c4:	36528ba7 	ori	s2,s2,0x8ba7
bfc014c8:	161204fc 	bne	s0,s2,bfc028bc <inst_error>
bfc014cc:	00000000 	nop
bfc014d0:	3c089fe4 	lui	t0,0x9fe4
bfc014d4:	3508c23e 	ori	t0,t0,0xc23e
bfc014d8:	3c09acf1 	lui	t1,0xacf1
bfc014dc:	35291c91 	ori	t1,t1,0x1c91
bfc014e0:	01098026 	xor	s0,t0,t1
bfc014e4:	3c123315 	lui	s2,0x3315
bfc014e8:	3652deaf 	ori	s2,s2,0xdeaf
bfc014ec:	161204f3 	bne	s0,s2,bfc028bc <inst_error>
bfc014f0:	00000000 	nop
bfc014f4:	3c08037b 	lui	t0,0x37b
bfc014f8:	35083588 	ori	t0,t0,0x3588
bfc014fc:	3c0993c6 	lui	t1,0x93c6
bfc01500:	3529b62e 	ori	t1,t1,0xb62e
bfc01504:	01098026 	xor	s0,t0,t1
bfc01508:	3c1290bd 	lui	s2,0x90bd
bfc0150c:	365283a6 	ori	s2,s2,0x83a6
bfc01510:	161204ea 	bne	s0,s2,bfc028bc <inst_error>
bfc01514:	00000000 	nop
bfc01518:	3c088350 	lui	t0,0x8350
bfc0151c:	3508bd9e 	ori	t0,t0,0xbd9e
bfc01520:	3c095b28 	lui	t1,0x5b28
bfc01524:	3529fc94 	ori	t1,t1,0xfc94
bfc01528:	01098026 	xor	s0,t0,t1
bfc0152c:	3c12d878 	lui	s2,0xd878
bfc01530:	3652410a 	ori	s2,s2,0x410a
bfc01534:	161204e1 	bne	s0,s2,bfc028bc <inst_error>
bfc01538:	00000000 	nop
bfc0153c:	3c08e9af 	lui	t0,0xe9af
bfc01540:	35082fa0 	ori	t0,t0,0x2fa0
bfc01544:	3c09c778 	lui	t1,0xc778
bfc01548:	352971fa 	ori	t1,t1,0x71fa
bfc0154c:	01098026 	xor	s0,t0,t1
bfc01550:	3c122ed7 	lui	s2,0x2ed7
bfc01554:	36525e5a 	ori	s2,s2,0x5e5a
bfc01558:	161204d8 	bne	s0,s2,bfc028bc <inst_error>
bfc0155c:	00000000 	nop
bfc01560:	3c08d49f 	lui	t0,0xd49f
bfc01564:	3508ade8 	ori	t0,t0,0xade8
bfc01568:	3c099615 	lui	t1,0x9615
bfc0156c:	35297a50 	ori	t1,t1,0x7a50
bfc01570:	01098026 	xor	s0,t0,t1
bfc01574:	3c12428a 	lui	s2,0x428a
bfc01578:	3652d7b8 	ori	s2,s2,0xd7b8
bfc0157c:	161204cf 	bne	s0,s2,bfc028bc <inst_error>
bfc01580:	00000000 	nop
bfc01584:	3c08bd84 	lui	t0,0xbd84
bfc01588:	3508e1ef 	ori	t0,t0,0xe1ef
bfc0158c:	3c097409 	lui	t1,0x7409
bfc01590:	352939e0 	ori	t1,t1,0x39e0
bfc01594:	01098026 	xor	s0,t0,t1
bfc01598:	3c12c98d 	lui	s2,0xc98d
bfc0159c:	3652d80f 	ori	s2,s2,0xd80f
bfc015a0:	161204c6 	bne	s0,s2,bfc028bc <inst_error>
bfc015a4:	00000000 	nop
bfc015a8:	3c085018 	lui	t0,0x5018
bfc015ac:	3508b058 	ori	t0,t0,0xb058
bfc015b0:	3c09405b 	lui	t1,0x405b
bfc015b4:	3529e198 	ori	t1,t1,0xe198
bfc015b8:	01098026 	xor	s0,t0,t1
bfc015bc:	3c121043 	lui	s2,0x1043
bfc015c0:	365251c0 	ori	s2,s2,0x51c0
bfc015c4:	161204bd 	bne	s0,s2,bfc028bc <inst_error>
bfc015c8:	00000000 	nop
bfc015cc:	3c08a593 	lui	t0,0xa593
bfc015d0:	35080935 	ori	t0,t0,0x935
bfc015d4:	3c09fe35 	lui	t1,0xfe35
bfc015d8:	35290be8 	ori	t1,t1,0xbe8
bfc015dc:	01098026 	xor	s0,t0,t1
bfc015e0:	3c125ba6 	lui	s2,0x5ba6
bfc015e4:	365202dd 	ori	s2,s2,0x2dd
bfc015e8:	161204b4 	bne	s0,s2,bfc028bc <inst_error>
bfc015ec:	00000000 	nop
bfc015f0:	3c0851af 	lui	t0,0x51af
bfc015f4:	3508b266 	ori	t0,t0,0xb266
bfc015f8:	3c09c976 	lui	t1,0xc976
bfc015fc:	3529bae0 	ori	t1,t1,0xbae0
bfc01600:	01098026 	xor	s0,t0,t1
bfc01604:	3c1298d9 	lui	s2,0x98d9
bfc01608:	36520886 	ori	s2,s2,0x886
bfc0160c:	161204ab 	bne	s0,s2,bfc028bc <inst_error>
bfc01610:	00000000 	nop
bfc01614:	3c0870d0 	lui	t0,0x70d0
bfc01618:	3508dacc 	ori	t0,t0,0xdacc
bfc0161c:	3c099082 	lui	t1,0x9082
bfc01620:	35297cd4 	ori	t1,t1,0x7cd4
bfc01624:	01098026 	xor	s0,t0,t1
bfc01628:	3c12e052 	lui	s2,0xe052
bfc0162c:	3652a618 	ori	s2,s2,0xa618
bfc01630:	161204a2 	bne	s0,s2,bfc028bc <inst_error>
bfc01634:	00000000 	nop
bfc01638:	3c08bdc9 	lui	t0,0xbdc9
bfc0163c:	3508d980 	ori	t0,t0,0xd980
bfc01640:	3c09d67b 	lui	t1,0xd67b
bfc01644:	3529349f 	ori	t1,t1,0x349f
bfc01648:	01098026 	xor	s0,t0,t1
bfc0164c:	3c126bb2 	lui	s2,0x6bb2
bfc01650:	3652ed1f 	ori	s2,s2,0xed1f
bfc01654:	16120499 	bne	s0,s2,bfc028bc <inst_error>
bfc01658:	00000000 	nop
bfc0165c:	3c08db02 	lui	t0,0xdb02
bfc01660:	35080fe0 	ori	t0,t0,0xfe0
bfc01664:	3c09bb7e 	lui	t1,0xbb7e
bfc01668:	35293638 	ori	t1,t1,0x3638
bfc0166c:	01098026 	xor	s0,t0,t1
bfc01670:	3c12607c 	lui	s2,0x607c
bfc01674:	365239d8 	ori	s2,s2,0x39d8
bfc01678:	16120490 	bne	s0,s2,bfc028bc <inst_error>
bfc0167c:	00000000 	nop
bfc01680:	3c0885dc 	lui	t0,0x85dc
bfc01684:	35089c1b 	ori	t0,t0,0x9c1b
bfc01688:	3c09bac6 	lui	t1,0xbac6
bfc0168c:	3529aaf9 	ori	t1,t1,0xaaf9
bfc01690:	01098026 	xor	s0,t0,t1
bfc01694:	3c123f1a 	lui	s2,0x3f1a
bfc01698:	365236e2 	ori	s2,s2,0x36e2
bfc0169c:	16120487 	bne	s0,s2,bfc028bc <inst_error>
bfc016a0:	00000000 	nop
bfc016a4:	3c080d86 	lui	t0,0xd86
bfc016a8:	35083c28 	ori	t0,t0,0x3c28
bfc016ac:	3c0983b6 	lui	t1,0x83b6
bfc016b0:	35291b6b 	ori	t1,t1,0x1b6b
bfc016b4:	01098026 	xor	s0,t0,t1
bfc016b8:	3c128e30 	lui	s2,0x8e30
bfc016bc:	36522743 	ori	s2,s2,0x2743
bfc016c0:	1612047e 	bne	s0,s2,bfc028bc <inst_error>
bfc016c4:	00000000 	nop
bfc016c8:	3c0808a7 	lui	t0,0x8a7
bfc016cc:	35085543 	ori	t0,t0,0x5543
bfc016d0:	3c09ea10 	lui	t1,0xea10
bfc016d4:	35298c48 	ori	t1,t1,0x8c48
bfc016d8:	01098026 	xor	s0,t0,t1
bfc016dc:	3c12e2b7 	lui	s2,0xe2b7
bfc016e0:	3652d90b 	ori	s2,s2,0xd90b
bfc016e4:	16120475 	bne	s0,s2,bfc028bc <inst_error>
bfc016e8:	00000000 	nop
bfc016ec:	3c0861f3 	lui	t0,0x61f3
bfc016f0:	35085dd8 	ori	t0,t0,0x5dd8
bfc016f4:	3c0969d7 	lui	t1,0x69d7
bfc016f8:	35298dd6 	ori	t1,t1,0x8dd6
bfc016fc:	01098026 	xor	s0,t0,t1
bfc01700:	3c120824 	lui	s2,0x824
bfc01704:	3652d00e 	ori	s2,s2,0xd00e
bfc01708:	1612046c 	bne	s0,s2,bfc028bc <inst_error>
bfc0170c:	00000000 	nop
bfc01710:	3c0887a4 	lui	t0,0x87a4
bfc01714:	350896d0 	ori	t0,t0,0x96d0
bfc01718:	3c094b71 	lui	t1,0x4b71
bfc0171c:	35292450 	ori	t1,t1,0x2450
bfc01720:	01098026 	xor	s0,t0,t1
bfc01724:	3c12ccd5 	lui	s2,0xccd5
bfc01728:	3652b280 	ori	s2,s2,0xb280
bfc0172c:	16120463 	bne	s0,s2,bfc028bc <inst_error>
bfc01730:	00000000 	nop
bfc01734:	3c088b04 	lui	t0,0x8b04
bfc01738:	35082888 	ori	t0,t0,0x2888
bfc0173c:	3c0905c4 	lui	t1,0x5c4
bfc01740:	35293200 	ori	t1,t1,0x3200
bfc01744:	01098026 	xor	s0,t0,t1
bfc01748:	3c128ec0 	lui	s2,0x8ec0
bfc0174c:	36521a88 	ori	s2,s2,0x1a88
bfc01750:	1612045a 	bne	s0,s2,bfc028bc <inst_error>
bfc01754:	00000000 	nop
bfc01758:	3c082061 	lui	t0,0x2061
bfc0175c:	35083670 	ori	t0,t0,0x3670
bfc01760:	3c0982c0 	lui	t1,0x82c0
bfc01764:	3529e238 	ori	t1,t1,0xe238
bfc01768:	01098026 	xor	s0,t0,t1
bfc0176c:	3c12a2a1 	lui	s2,0xa2a1
bfc01770:	3652d448 	ori	s2,s2,0xd448
bfc01774:	16120451 	bne	s0,s2,bfc028bc <inst_error>
bfc01778:	00000000 	nop
bfc0177c:	3c083578 	lui	t0,0x3578
bfc01780:	3508c9de 	ori	t0,t0,0xc9de
bfc01784:	3c09d705 	lui	t1,0xd705
bfc01788:	35295780 	ori	t1,t1,0x5780
bfc0178c:	01098026 	xor	s0,t0,t1
bfc01790:	3c12e27d 	lui	s2,0xe27d
bfc01794:	36529e5e 	ori	s2,s2,0x9e5e
bfc01798:	16120448 	bne	s0,s2,bfc028bc <inst_error>
bfc0179c:	00000000 	nop
bfc017a0:	3c0839bc 	lui	t0,0x39bc
bfc017a4:	35082a00 	ori	t0,t0,0x2a00
bfc017a8:	3c091678 	lui	t1,0x1678
bfc017ac:	35297e00 	ori	t1,t1,0x7e00
bfc017b0:	01098026 	xor	s0,t0,t1
bfc017b4:	3c122fc4 	lui	s2,0x2fc4
bfc017b8:	36525400 	ori	s2,s2,0x5400
bfc017bc:	1612043f 	bne	s0,s2,bfc028bc <inst_error>
bfc017c0:	00000000 	nop
bfc017c4:	3c08cc02 	lui	t0,0xcc02
bfc017c8:	35086df0 	ori	t0,t0,0x6df0
bfc017cc:	3c0952cb 	lui	t1,0x52cb
bfc017d0:	3529a760 	ori	t1,t1,0xa760
bfc017d4:	01098026 	xor	s0,t0,t1
bfc017d8:	3c129ec9 	lui	s2,0x9ec9
bfc017dc:	3652ca90 	ori	s2,s2,0xca90
bfc017e0:	16120436 	bne	s0,s2,bfc028bc <inst_error>
bfc017e4:	00000000 	nop
bfc017e8:	3c084863 	lui	t0,0x4863
bfc017ec:	35080bd4 	ori	t0,t0,0xbd4
bfc017f0:	3c09f586 	lui	t1,0xf586
bfc017f4:	352941c8 	ori	t1,t1,0x41c8
bfc017f8:	01098026 	xor	s0,t0,t1
bfc017fc:	3c12bde5 	lui	s2,0xbde5
bfc01800:	36524a1c 	ori	s2,s2,0x4a1c
bfc01804:	1612042d 	bne	s0,s2,bfc028bc <inst_error>
bfc01808:	00000000 	nop
bfc0180c:	3c0829cd 	lui	t0,0x29cd
bfc01810:	3508f640 	ori	t0,t0,0xf640
bfc01814:	3c09ac85 	lui	t1,0xac85
bfc01818:	3529192e 	ori	t1,t1,0x192e
bfc0181c:	01098026 	xor	s0,t0,t1
bfc01820:	3c128548 	lui	s2,0x8548
bfc01824:	3652ef6e 	ori	s2,s2,0xef6e
bfc01828:	16120424 	bne	s0,s2,bfc028bc <inst_error>
bfc0182c:	00000000 	nop
bfc01830:	3c0848ec 	lui	t0,0x48ec
bfc01834:	35088bb0 	ori	t0,t0,0x8bb0
bfc01838:	3c09793b 	lui	t1,0x793b
bfc0183c:	3529f950 	ori	t1,t1,0xf950
bfc01840:	01098026 	xor	s0,t0,t1
bfc01844:	3c1231d7 	lui	s2,0x31d7
bfc01848:	365272e0 	ori	s2,s2,0x72e0
bfc0184c:	1612041b 	bne	s0,s2,bfc028bc <inst_error>
bfc01850:	00000000 	nop
bfc01854:	3c08f456 	lui	t0,0xf456
bfc01858:	350840de 	ori	t0,t0,0x40de
bfc0185c:	3c09ecc3 	lui	t1,0xecc3
bfc01860:	35294331 	ori	t1,t1,0x4331
bfc01864:	01098026 	xor	s0,t0,t1
bfc01868:	3c121895 	lui	s2,0x1895
bfc0186c:	365203ef 	ori	s2,s2,0x3ef
bfc01870:	16120412 	bne	s0,s2,bfc028bc <inst_error>
bfc01874:	00000000 	nop
bfc01878:	3c08fe0d 	lui	t0,0xfe0d
bfc0187c:	3508b400 	ori	t0,t0,0xb400
bfc01880:	3c09edc8 	lui	t1,0xedc8
bfc01884:	3529e6a0 	ori	t1,t1,0xe6a0
bfc01888:	01098026 	xor	s0,t0,t1
bfc0188c:	3c1213c5 	lui	s2,0x13c5
bfc01890:	365252a0 	ori	s2,s2,0x52a0
bfc01894:	16120409 	bne	s0,s2,bfc028bc <inst_error>
bfc01898:	00000000 	nop
bfc0189c:	3c081a05 	lui	t0,0x1a05
bfc018a0:	35089fa8 	ori	t0,t0,0x9fa8
bfc018a4:	3c09fb49 	lui	t1,0xfb49
bfc018a8:	35294040 	ori	t1,t1,0x4040
bfc018ac:	01098026 	xor	s0,t0,t1
bfc018b0:	3c12e14c 	lui	s2,0xe14c
bfc018b4:	3652dfe8 	ori	s2,s2,0xdfe8
bfc018b8:	16120400 	bne	s0,s2,bfc028bc <inst_error>
bfc018bc:	00000000 	nop
bfc018c0:	3c083f4b 	lui	t0,0x3f4b
bfc018c4:	3508d678 	ori	t0,t0,0xd678
bfc018c8:	3c0926fe 	lui	t1,0x26fe
bfc018cc:	35297cd0 	ori	t1,t1,0x7cd0
bfc018d0:	01098026 	xor	s0,t0,t1
bfc018d4:	3c1219b5 	lui	s2,0x19b5
bfc018d8:	3652aaa8 	ori	s2,s2,0xaaa8
bfc018dc:	161203f7 	bne	s0,s2,bfc028bc <inst_error>
bfc018e0:	00000000 	nop
bfc018e4:	3c08720e 	lui	t0,0x720e
bfc018e8:	3508d744 	ori	t0,t0,0xd744
bfc018ec:	3c090d79 	lui	t1,0xd79
bfc018f0:	35298bc8 	ori	t1,t1,0x8bc8
bfc018f4:	01098026 	xor	s0,t0,t1
bfc018f8:	3c127f77 	lui	s2,0x7f77
bfc018fc:	36525c8c 	ori	s2,s2,0x5c8c
bfc01900:	161203ee 	bne	s0,s2,bfc028bc <inst_error>
bfc01904:	00000000 	nop
bfc01908:	3c0880ff 	lui	t0,0x80ff
bfc0190c:	35086b98 	ori	t0,t0,0x6b98
bfc01910:	3c0933c8 	lui	t1,0x33c8
bfc01914:	3529bca0 	ori	t1,t1,0xbca0
bfc01918:	01098026 	xor	s0,t0,t1
bfc0191c:	3c12b337 	lui	s2,0xb337
bfc01920:	3652d738 	ori	s2,s2,0xd738
bfc01924:	161203e5 	bne	s0,s2,bfc028bc <inst_error>
bfc01928:	00000000 	nop
bfc0192c:	3c084357 	lui	t0,0x4357
bfc01930:	35087178 	ori	t0,t0,0x7178
bfc01934:	3c099067 	lui	t1,0x9067
bfc01938:	3529e048 	ori	t1,t1,0xe048
bfc0193c:	01098026 	xor	s0,t0,t1
bfc01940:	3c12d330 	lui	s2,0xd330
bfc01944:	36529130 	ori	s2,s2,0x9130
bfc01948:	161203dc 	bne	s0,s2,bfc028bc <inst_error>
bfc0194c:	00000000 	nop
bfc01950:	3c0816a1 	lui	t0,0x16a1
bfc01954:	35080890 	ori	t0,t0,0x890
bfc01958:	3c097e29 	lui	t1,0x7e29
bfc0195c:	35298410 	ori	t1,t1,0x8410
bfc01960:	01098026 	xor	s0,t0,t1
bfc01964:	3c126888 	lui	s2,0x6888
bfc01968:	36528c80 	ori	s2,s2,0x8c80
bfc0196c:	161203d3 	bne	s0,s2,bfc028bc <inst_error>
bfc01970:	00000000 	nop
bfc01974:	3c08d54a 	lui	t0,0xd54a
bfc01978:	3508fa9c 	ori	t0,t0,0xfa9c
bfc0197c:	3c09f86f 	lui	t1,0xf86f
bfc01980:	352911c6 	ori	t1,t1,0x11c6
bfc01984:	01098026 	xor	s0,t0,t1
bfc01988:	3c122d25 	lui	s2,0x2d25
bfc0198c:	3652eb5a 	ori	s2,s2,0xeb5a
bfc01990:	161203ca 	bne	s0,s2,bfc028bc <inst_error>
bfc01994:	00000000 	nop
bfc01998:	3c08db2c 	lui	t0,0xdb2c
bfc0199c:	3508b600 	ori	t0,t0,0xb600
bfc019a0:	3c094293 	lui	t1,0x4293
bfc019a4:	3529f9ee 	ori	t1,t1,0xf9ee
bfc019a8:	01098026 	xor	s0,t0,t1
bfc019ac:	3c1299bf 	lui	s2,0x99bf
bfc019b0:	36524fee 	ori	s2,s2,0x4fee
bfc019b4:	161203c1 	bne	s0,s2,bfc028bc <inst_error>
bfc019b8:	00000000 	nop
bfc019bc:	3c088ca5 	lui	t0,0x8ca5
bfc019c0:	3508d672 	ori	t0,t0,0xd672
bfc019c4:	3c09dacb 	lui	t1,0xdacb
bfc019c8:	3529d006 	ori	t1,t1,0xd006
bfc019cc:	01098026 	xor	s0,t0,t1
bfc019d0:	3c12566e 	lui	s2,0x566e
bfc019d4:	36520674 	ori	s2,s2,0x674
bfc019d8:	161203b8 	bne	s0,s2,bfc028bc <inst_error>
bfc019dc:	00000000 	nop
bfc019e0:	3c08b7d7 	lui	t0,0xb7d7
bfc019e4:	3508e885 	ori	t0,t0,0xe885
bfc019e8:	3c0953ea 	lui	t1,0x53ea
bfc019ec:	352966e8 	ori	t1,t1,0x66e8
bfc019f0:	01098026 	xor	s0,t0,t1
bfc019f4:	3c12e43d 	lui	s2,0xe43d
bfc019f8:	36528e6d 	ori	s2,s2,0x8e6d
bfc019fc:	161203af 	bne	s0,s2,bfc028bc <inst_error>
bfc01a00:	00000000 	nop
bfc01a04:	3c08977d 	lui	t0,0x977d
bfc01a08:	3508f75c 	ori	t0,t0,0xf75c
bfc01a0c:	3c096ef9 	lui	t1,0x6ef9
bfc01a10:	35298a00 	ori	t1,t1,0x8a00
bfc01a14:	01098026 	xor	s0,t0,t1
bfc01a18:	3c12f984 	lui	s2,0xf984
bfc01a1c:	36527d5c 	ori	s2,s2,0x7d5c
bfc01a20:	161203a6 	bne	s0,s2,bfc028bc <inst_error>
bfc01a24:	00000000 	nop
bfc01a28:	3c087106 	lui	t0,0x7106
bfc01a2c:	350848b8 	ori	t0,t0,0x48b8
bfc01a30:	3c09eac0 	lui	t1,0xeac0
bfc01a34:	3529b5ca 	ori	t1,t1,0xb5ca
bfc01a38:	01098026 	xor	s0,t0,t1
bfc01a3c:	3c129bc6 	lui	s2,0x9bc6
bfc01a40:	3652fd72 	ori	s2,s2,0xfd72
bfc01a44:	1612039d 	bne	s0,s2,bfc028bc <inst_error>
bfc01a48:	00000000 	nop
bfc01a4c:	3c08fe14 	lui	t0,0xfe14
bfc01a50:	350843eb 	ori	t0,t0,0x43eb
bfc01a54:	3c0999a7 	lui	t1,0x99a7
bfc01a58:	3529cb17 	ori	t1,t1,0xcb17
bfc01a5c:	01098026 	xor	s0,t0,t1
bfc01a60:	3c1267b3 	lui	s2,0x67b3
bfc01a64:	365288fc 	ori	s2,s2,0x88fc
bfc01a68:	16120394 	bne	s0,s2,bfc028bc <inst_error>
bfc01a6c:	00000000 	nop
bfc01a70:	3c089ece 	lui	t0,0x9ece
bfc01a74:	3508278d 	ori	t0,t0,0x278d
bfc01a78:	3c09c0de 	lui	t1,0xc0de
bfc01a7c:	3529a702 	ori	t1,t1,0xa702
bfc01a80:	01098026 	xor	s0,t0,t1
bfc01a84:	3c125e10 	lui	s2,0x5e10
bfc01a88:	3652808f 	ori	s2,s2,0x808f
bfc01a8c:	1612038b 	bne	s0,s2,bfc028bc <inst_error>
bfc01a90:	00000000 	nop
bfc01a94:	3c088072 	lui	t0,0x8072
bfc01a98:	3508b77c 	ori	t0,t0,0xb77c
bfc01a9c:	3c09468b 	lui	t1,0x468b
bfc01aa0:	352926f6 	ori	t1,t1,0x26f6
bfc01aa4:	01098026 	xor	s0,t0,t1
bfc01aa8:	3c12c6f9 	lui	s2,0xc6f9
bfc01aac:	3652918a 	ori	s2,s2,0x918a
bfc01ab0:	16120382 	bne	s0,s2,bfc028bc <inst_error>
bfc01ab4:	00000000 	nop
bfc01ab8:	3c08a23c 	lui	t0,0xa23c
bfc01abc:	3508e9f8 	ori	t0,t0,0xe9f8
bfc01ac0:	3c09dfd5 	lui	t1,0xdfd5
bfc01ac4:	35298adc 	ori	t1,t1,0x8adc
bfc01ac8:	01098026 	xor	s0,t0,t1
bfc01acc:	3c127de9 	lui	s2,0x7de9
bfc01ad0:	36526324 	ori	s2,s2,0x6324
bfc01ad4:	16120379 	bne	s0,s2,bfc028bc <inst_error>
bfc01ad8:	00000000 	nop
bfc01adc:	3c0855cd 	lui	t0,0x55cd
bfc01ae0:	3508d2f8 	ori	t0,t0,0xd2f8
bfc01ae4:	3c09a007 	lui	t1,0xa007
bfc01ae8:	352945a2 	ori	t1,t1,0x45a2
bfc01aec:	01098026 	xor	s0,t0,t1
bfc01af0:	3c12f5ca 	lui	s2,0xf5ca
bfc01af4:	3652975a 	ori	s2,s2,0x975a
bfc01af8:	16120370 	bne	s0,s2,bfc028bc <inst_error>
bfc01afc:	00000000 	nop
bfc01b00:	3c08cde9 	lui	t0,0xcde9
bfc01b04:	3508aa28 	ori	t0,t0,0xaa28
bfc01b08:	3c09decf 	lui	t1,0xdecf
bfc01b0c:	3529c40d 	ori	t1,t1,0xc40d
bfc01b10:	01098026 	xor	s0,t0,t1
bfc01b14:	3c121326 	lui	s2,0x1326
bfc01b18:	36526e25 	ori	s2,s2,0x6e25
bfc01b1c:	16120367 	bne	s0,s2,bfc028bc <inst_error>
bfc01b20:	00000000 	nop
bfc01b24:	3c0896f8 	lui	t0,0x96f8
bfc01b28:	35080280 	ori	t0,t0,0x280
bfc01b2c:	3c0931a8 	lui	t1,0x31a8
bfc01b30:	3529b5c8 	ori	t1,t1,0xb5c8
bfc01b34:	01098026 	xor	s0,t0,t1
bfc01b38:	3c12a750 	lui	s2,0xa750
bfc01b3c:	3652b748 	ori	s2,s2,0xb748
bfc01b40:	1612035e 	bne	s0,s2,bfc028bc <inst_error>
bfc01b44:	00000000 	nop
bfc01b48:	3c085185 	lui	t0,0x5185
bfc01b4c:	35081e40 	ori	t0,t0,0x1e40
bfc01b50:	3c099311 	lui	t1,0x9311
bfc01b54:	35298808 	ori	t1,t1,0x8808
bfc01b58:	01098026 	xor	s0,t0,t1
bfc01b5c:	3c12c294 	lui	s2,0xc294
bfc01b60:	36529648 	ori	s2,s2,0x9648
bfc01b64:	16120355 	bne	s0,s2,bfc028bc <inst_error>
bfc01b68:	00000000 	nop
bfc01b6c:	3c08443c 	lui	t0,0x443c
bfc01b70:	35088692 	ori	t0,t0,0x8692
bfc01b74:	3c0926c6 	lui	t1,0x26c6
bfc01b78:	3529df34 	ori	t1,t1,0xdf34
bfc01b7c:	01098026 	xor	s0,t0,t1
bfc01b80:	3c1262fa 	lui	s2,0x62fa
bfc01b84:	365259a6 	ori	s2,s2,0x59a6
bfc01b88:	1612034c 	bne	s0,s2,bfc028bc <inst_error>
bfc01b8c:	00000000 	nop
bfc01b90:	3c0812f0 	lui	t0,0x12f0
bfc01b94:	35087438 	ori	t0,t0,0x7438
bfc01b98:	3c09a573 	lui	t1,0xa573
bfc01b9c:	352929d0 	ori	t1,t1,0x29d0
bfc01ba0:	01098026 	xor	s0,t0,t1
bfc01ba4:	3c12b783 	lui	s2,0xb783
bfc01ba8:	36525de8 	ori	s2,s2,0x5de8
bfc01bac:	16120343 	bne	s0,s2,bfc028bc <inst_error>
bfc01bb0:	00000000 	nop
bfc01bb4:	3c08f4cf 	lui	t0,0xf4cf
bfc01bb8:	3508e0c4 	ori	t0,t0,0xe0c4
bfc01bbc:	3c09e2d3 	lui	t1,0xe2d3
bfc01bc0:	35295c34 	ori	t1,t1,0x5c34
bfc01bc4:	01098026 	xor	s0,t0,t1
bfc01bc8:	3c12161c 	lui	s2,0x161c
bfc01bcc:	3652bcf0 	ori	s2,s2,0xbcf0
bfc01bd0:	1612033a 	bne	s0,s2,bfc028bc <inst_error>
bfc01bd4:	00000000 	nop
bfc01bd8:	3c082f1f 	lui	t0,0x2f1f
bfc01bdc:	35083be4 	ori	t0,t0,0x3be4
bfc01be0:	3c09d1ac 	lui	t1,0xd1ac
bfc01be4:	35293e30 	ori	t1,t1,0x3e30
bfc01be8:	01098026 	xor	s0,t0,t1
bfc01bec:	3c12feb3 	lui	s2,0xfeb3
bfc01bf0:	365205d4 	ori	s2,s2,0x5d4
bfc01bf4:	16120331 	bne	s0,s2,bfc028bc <inst_error>
bfc01bf8:	00000000 	nop
bfc01bfc:	3c081baa 	lui	t0,0x1baa
bfc01c00:	3508dbb0 	ori	t0,t0,0xdbb0
bfc01c04:	3c094ca6 	lui	t1,0x4ca6
bfc01c08:	3529a168 	ori	t1,t1,0xa168
bfc01c0c:	01098026 	xor	s0,t0,t1
bfc01c10:	3c12570c 	lui	s2,0x570c
bfc01c14:	36527ad8 	ori	s2,s2,0x7ad8
bfc01c18:	16120328 	bne	s0,s2,bfc028bc <inst_error>
bfc01c1c:	00000000 	nop
bfc01c20:	3c08fc13 	lui	t0,0xfc13
bfc01c24:	3508a670 	ori	t0,t0,0xa670
bfc01c28:	24090000 	li	t1,0
bfc01c2c:	01098026 	xor	s0,t0,t1
bfc01c30:	3c12fc13 	lui	s2,0xfc13
bfc01c34:	3652a670 	ori	s2,s2,0xa670
bfc01c38:	16120320 	bne	s0,s2,bfc028bc <inst_error>
bfc01c3c:	00000000 	nop
bfc01c40:	3c086970 	lui	t0,0x6970
bfc01c44:	35081f84 	ori	t0,t0,0x1f84
bfc01c48:	24090000 	li	t1,0
bfc01c4c:	01098026 	xor	s0,t0,t1
bfc01c50:	3c126970 	lui	s2,0x6970
bfc01c54:	36521f84 	ori	s2,s2,0x1f84
bfc01c58:	16120318 	bne	s0,s2,bfc028bc <inst_error>
bfc01c5c:	00000000 	nop
bfc01c60:	3c083bdc 	lui	t0,0x3bdc
bfc01c64:	35081a6e 	ori	t0,t0,0x1a6e
bfc01c68:	24090000 	li	t1,0
bfc01c6c:	01098026 	xor	s0,t0,t1
bfc01c70:	3c123bdc 	lui	s2,0x3bdc
bfc01c74:	36521a6e 	ori	s2,s2,0x1a6e
bfc01c78:	16120310 	bne	s0,s2,bfc028bc <inst_error>
bfc01c7c:	00000000 	nop
bfc01c80:	3c084a20 	lui	t0,0x4a20
bfc01c84:	350822a2 	ori	t0,t0,0x22a2
bfc01c88:	24090000 	li	t1,0
bfc01c8c:	01098026 	xor	s0,t0,t1
bfc01c90:	3c124a20 	lui	s2,0x4a20
bfc01c94:	365222a2 	ori	s2,s2,0x22a2
bfc01c98:	16120308 	bne	s0,s2,bfc028bc <inst_error>
bfc01c9c:	00000000 	nop
bfc01ca0:	3c087c1b 	lui	t0,0x7c1b
bfc01ca4:	35081d00 	ori	t0,t0,0x1d00
bfc01ca8:	24090000 	li	t1,0
bfc01cac:	01098026 	xor	s0,t0,t1
bfc01cb0:	3c127c1b 	lui	s2,0x7c1b
bfc01cb4:	36521d00 	ori	s2,s2,0x1d00
bfc01cb8:	16120300 	bne	s0,s2,bfc028bc <inst_error>
bfc01cbc:	00000000 	nop
bfc01cc0:	3c0815c5 	lui	t0,0x15c5
bfc01cc4:	3508cc10 	ori	t0,t0,0xcc10
bfc01cc8:	24090000 	li	t1,0
bfc01ccc:	01098026 	xor	s0,t0,t1
bfc01cd0:	3c1215c5 	lui	s2,0x15c5
bfc01cd4:	3652cc10 	ori	s2,s2,0xcc10
bfc01cd8:	161202f8 	bne	s0,s2,bfc028bc <inst_error>
bfc01cdc:	00000000 	nop
bfc01ce0:	3c087f15 	lui	t0,0x7f15
bfc01ce4:	35087c7a 	ori	t0,t0,0x7c7a
bfc01ce8:	24090000 	li	t1,0
bfc01cec:	01098026 	xor	s0,t0,t1
bfc01cf0:	3c127f15 	lui	s2,0x7f15
bfc01cf4:	36527c7a 	ori	s2,s2,0x7c7a
bfc01cf8:	161202f0 	bne	s0,s2,bfc028bc <inst_error>
bfc01cfc:	00000000 	nop
bfc01d00:	3c080010 	lui	t0,0x10
bfc01d04:	3508e998 	ori	t0,t0,0xe998
bfc01d08:	24090000 	li	t1,0
bfc01d0c:	01098026 	xor	s0,t0,t1
bfc01d10:	3c120010 	lui	s2,0x10
bfc01d14:	3652e998 	ori	s2,s2,0xe998
bfc01d18:	161202e8 	bne	s0,s2,bfc028bc <inst_error>
bfc01d1c:	00000000 	nop
bfc01d20:	3c080d05 	lui	t0,0xd05
bfc01d24:	350888d0 	ori	t0,t0,0x88d0
bfc01d28:	24090000 	li	t1,0
bfc01d2c:	01098026 	xor	s0,t0,t1
bfc01d30:	3c120d05 	lui	s2,0xd05
bfc01d34:	365288d0 	ori	s2,s2,0x88d0
bfc01d38:	161202e0 	bne	s0,s2,bfc028bc <inst_error>
bfc01d3c:	00000000 	nop
bfc01d40:	3c0821b3 	lui	t0,0x21b3
bfc01d44:	3508a3a8 	ori	t0,t0,0xa3a8
bfc01d48:	24090000 	li	t1,0
bfc01d4c:	01098026 	xor	s0,t0,t1
bfc01d50:	3c1221b3 	lui	s2,0x21b3
bfc01d54:	3652a3a8 	ori	s2,s2,0xa3a8
bfc01d58:	161202d8 	bne	s0,s2,bfc028bc <inst_error>
bfc01d5c:	00000000 	nop
bfc01d60:	3c082407 	lui	t0,0x2407
bfc01d64:	350821c8 	ori	t0,t0,0x21c8
bfc01d68:	24090000 	li	t1,0
bfc01d6c:	01098026 	xor	s0,t0,t1
bfc01d70:	3c122407 	lui	s2,0x2407
bfc01d74:	365221c8 	ori	s2,s2,0x21c8
bfc01d78:	161202d0 	bne	s0,s2,bfc028bc <inst_error>
bfc01d7c:	00000000 	nop
bfc01d80:	3c08f678 	lui	t0,0xf678
bfc01d84:	35088a98 	ori	t0,t0,0x8a98
bfc01d88:	24090000 	li	t1,0
bfc01d8c:	01098026 	xor	s0,t0,t1
bfc01d90:	3c12f678 	lui	s2,0xf678
bfc01d94:	36528a98 	ori	s2,s2,0x8a98
bfc01d98:	161202c8 	bne	s0,s2,bfc028bc <inst_error>
bfc01d9c:	00000000 	nop
bfc01da0:	3c088484 	lui	t0,0x8484
bfc01da4:	350812d0 	ori	t0,t0,0x12d0
bfc01da8:	24090000 	li	t1,0
bfc01dac:	01098026 	xor	s0,t0,t1
bfc01db0:	3c128484 	lui	s2,0x8484
bfc01db4:	365212d0 	ori	s2,s2,0x12d0
bfc01db8:	161202c0 	bne	s0,s2,bfc028bc <inst_error>
bfc01dbc:	00000000 	nop
bfc01dc0:	3c08cef7 	lui	t0,0xcef7
bfc01dc4:	3508fec0 	ori	t0,t0,0xfec0
bfc01dc8:	24090000 	li	t1,0
bfc01dcc:	01098026 	xor	s0,t0,t1
bfc01dd0:	3c12cef7 	lui	s2,0xcef7
bfc01dd4:	3652fec0 	ori	s2,s2,0xfec0
bfc01dd8:	161202b8 	bne	s0,s2,bfc028bc <inst_error>
bfc01ddc:	00000000 	nop
bfc01de0:	3c089c43 	lui	t0,0x9c43
bfc01de4:	3508a170 	ori	t0,t0,0xa170
bfc01de8:	24090000 	li	t1,0
bfc01dec:	01098026 	xor	s0,t0,t1
bfc01df0:	3c129c43 	lui	s2,0x9c43
bfc01df4:	3652a170 	ori	s2,s2,0xa170
bfc01df8:	161202b0 	bne	s0,s2,bfc028bc <inst_error>
bfc01dfc:	00000000 	nop
bfc01e00:	3c082dec 	lui	t0,0x2dec
bfc01e04:	3508c712 	ori	t0,t0,0xc712
bfc01e08:	24090000 	li	t1,0
bfc01e0c:	01098026 	xor	s0,t0,t1
bfc01e10:	3c122dec 	lui	s2,0x2dec
bfc01e14:	3652c712 	ori	s2,s2,0xc712
bfc01e18:	161202a8 	bne	s0,s2,bfc028bc <inst_error>
bfc01e1c:	00000000 	nop
bfc01e20:	3c08cb53 	lui	t0,0xcb53
bfc01e24:	35082c80 	ori	t0,t0,0x2c80
bfc01e28:	24090000 	li	t1,0
bfc01e2c:	01098026 	xor	s0,t0,t1
bfc01e30:	3c12cb53 	lui	s2,0xcb53
bfc01e34:	36522c80 	ori	s2,s2,0x2c80
bfc01e38:	161202a0 	bne	s0,s2,bfc028bc <inst_error>
bfc01e3c:	00000000 	nop
bfc01e40:	3c089e80 	lui	t0,0x9e80
bfc01e44:	35087460 	ori	t0,t0,0x7460
bfc01e48:	24090000 	li	t1,0
bfc01e4c:	01098026 	xor	s0,t0,t1
bfc01e50:	3c129e80 	lui	s2,0x9e80
bfc01e54:	36527460 	ori	s2,s2,0x7460
bfc01e58:	16120298 	bne	s0,s2,bfc028bc <inst_error>
bfc01e5c:	00000000 	nop
bfc01e60:	3c080777 	lui	t0,0x777
bfc01e64:	3508059a 	ori	t0,t0,0x59a
bfc01e68:	24090000 	li	t1,0
bfc01e6c:	01098026 	xor	s0,t0,t1
bfc01e70:	3c120777 	lui	s2,0x777
bfc01e74:	3652059a 	ori	s2,s2,0x59a
bfc01e78:	16120290 	bne	s0,s2,bfc028bc <inst_error>
bfc01e7c:	00000000 	nop
bfc01e80:	3c088d3b 	lui	t0,0x8d3b
bfc01e84:	350810c9 	ori	t0,t0,0x10c9
bfc01e88:	24090000 	li	t1,0
bfc01e8c:	01098026 	xor	s0,t0,t1
bfc01e90:	3c128d3b 	lui	s2,0x8d3b
bfc01e94:	365210c9 	ori	s2,s2,0x10c9
bfc01e98:	16120288 	bne	s0,s2,bfc028bc <inst_error>
bfc01e9c:	00000000 	nop
bfc01ea0:	3c08bf49 	lui	t0,0xbf49
bfc01ea4:	3508f600 	ori	t0,t0,0xf600
bfc01ea8:	24090000 	li	t1,0
bfc01eac:	01098026 	xor	s0,t0,t1
bfc01eb0:	3c12bf49 	lui	s2,0xbf49
bfc01eb4:	3652f600 	ori	s2,s2,0xf600
bfc01eb8:	16120280 	bne	s0,s2,bfc028bc <inst_error>
bfc01ebc:	00000000 	nop
bfc01ec0:	3c08b751 	lui	t0,0xb751
bfc01ec4:	35083ec8 	ori	t0,t0,0x3ec8
bfc01ec8:	24090000 	li	t1,0
bfc01ecc:	01098026 	xor	s0,t0,t1
bfc01ed0:	3c12b751 	lui	s2,0xb751
bfc01ed4:	36523ec8 	ori	s2,s2,0x3ec8
bfc01ed8:	16120278 	bne	s0,s2,bfc028bc <inst_error>
bfc01edc:	00000000 	nop
bfc01ee0:	3c0889db 	lui	t0,0x89db
bfc01ee4:	350872c8 	ori	t0,t0,0x72c8
bfc01ee8:	24090000 	li	t1,0
bfc01eec:	01098026 	xor	s0,t0,t1
bfc01ef0:	3c1289db 	lui	s2,0x89db
bfc01ef4:	365272c8 	ori	s2,s2,0x72c8
bfc01ef8:	16120270 	bne	s0,s2,bfc028bc <inst_error>
bfc01efc:	00000000 	nop
bfc01f00:	3c08df0f 	lui	t0,0xdf0f
bfc01f04:	3508cdc8 	ori	t0,t0,0xcdc8
bfc01f08:	24090000 	li	t1,0
bfc01f0c:	01098026 	xor	s0,t0,t1
bfc01f10:	3c12df0f 	lui	s2,0xdf0f
bfc01f14:	3652cdc8 	ori	s2,s2,0xcdc8
bfc01f18:	16120268 	bne	s0,s2,bfc028bc <inst_error>
bfc01f1c:	00000000 	nop
bfc01f20:	3c08305b 	lui	t0,0x305b
bfc01f24:	3508a45c 	ori	t0,t0,0xa45c
bfc01f28:	24090000 	li	t1,0
bfc01f2c:	01098026 	xor	s0,t0,t1
bfc01f30:	3c12305b 	lui	s2,0x305b
bfc01f34:	3652a45c 	ori	s2,s2,0xa45c
bfc01f38:	16120260 	bne	s0,s2,bfc028bc <inst_error>
bfc01f3c:	00000000 	nop
bfc01f40:	3c085458 	lui	t0,0x5458
bfc01f44:	3508de98 	ori	t0,t0,0xde98
bfc01f48:	24090000 	li	t1,0
bfc01f4c:	01098026 	xor	s0,t0,t1
bfc01f50:	3c125458 	lui	s2,0x5458
bfc01f54:	3652de98 	ori	s2,s2,0xde98
bfc01f58:	16120258 	bne	s0,s2,bfc028bc <inst_error>
bfc01f5c:	00000000 	nop
bfc01f60:	3c086bec 	lui	t0,0x6bec
bfc01f64:	3508c62a 	ori	t0,t0,0xc62a
bfc01f68:	24090000 	li	t1,0
bfc01f6c:	01098026 	xor	s0,t0,t1
bfc01f70:	3c126bec 	lui	s2,0x6bec
bfc01f74:	3652c62a 	ori	s2,s2,0xc62a
bfc01f78:	16120250 	bne	s0,s2,bfc028bc <inst_error>
bfc01f7c:	00000000 	nop
bfc01f80:	3c08832b 	lui	t0,0x832b
bfc01f84:	35089c18 	ori	t0,t0,0x9c18
bfc01f88:	24090000 	li	t1,0
bfc01f8c:	01098026 	xor	s0,t0,t1
bfc01f90:	3c12832b 	lui	s2,0x832b
bfc01f94:	36529c18 	ori	s2,s2,0x9c18
bfc01f98:	16120248 	bne	s0,s2,bfc028bc <inst_error>
bfc01f9c:	00000000 	nop
bfc01fa0:	3c08e8ac 	lui	t0,0xe8ac
bfc01fa4:	35088e99 	ori	t0,t0,0x8e99
bfc01fa8:	24090000 	li	t1,0
bfc01fac:	01098026 	xor	s0,t0,t1
bfc01fb0:	3c12e8ac 	lui	s2,0xe8ac
bfc01fb4:	36528e99 	ori	s2,s2,0x8e99
bfc01fb8:	16120240 	bne	s0,s2,bfc028bc <inst_error>
bfc01fbc:	00000000 	nop
bfc01fc0:	3c08e8d3 	lui	t0,0xe8d3
bfc01fc4:	3508d334 	ori	t0,t0,0xd334
bfc01fc8:	24090000 	li	t1,0
bfc01fcc:	01098026 	xor	s0,t0,t1
bfc01fd0:	3c12e8d3 	lui	s2,0xe8d3
bfc01fd4:	3652d334 	ori	s2,s2,0xd334
bfc01fd8:	16120238 	bne	s0,s2,bfc028bc <inst_error>
bfc01fdc:	00000000 	nop
bfc01fe0:	3c08a960 	lui	t0,0xa960
bfc01fe4:	3508fc48 	ori	t0,t0,0xfc48
bfc01fe8:	24090000 	li	t1,0
bfc01fec:	01098026 	xor	s0,t0,t1
bfc01ff0:	3c12a960 	lui	s2,0xa960
bfc01ff4:	3652fc48 	ori	s2,s2,0xfc48
bfc01ff8:	16120230 	bne	s0,s2,bfc028bc <inst_error>
bfc01ffc:	00000000 	nop
bfc02000:	3c08071d 	lui	t0,0x71d
bfc02004:	35084c6a 	ori	t0,t0,0x4c6a
bfc02008:	24090000 	li	t1,0
bfc0200c:	01098026 	xor	s0,t0,t1
bfc02010:	3c12071d 	lui	s2,0x71d
bfc02014:	36524c6a 	ori	s2,s2,0x4c6a
bfc02018:	16120228 	bne	s0,s2,bfc028bc <inst_error>
bfc0201c:	00000000 	nop
bfc02020:	3c0868d0 	lui	t0,0x68d0
bfc02024:	35082448 	ori	t0,t0,0x2448
bfc02028:	24090000 	li	t1,0
bfc0202c:	01098026 	xor	s0,t0,t1
bfc02030:	3c1268d0 	lui	s2,0x68d0
bfc02034:	36522448 	ori	s2,s2,0x2448
bfc02038:	16120220 	bne	s0,s2,bfc028bc <inst_error>
bfc0203c:	00000000 	nop
bfc02040:	3c08ef89 	lui	t0,0xef89
bfc02044:	35086e40 	ori	t0,t0,0x6e40
bfc02048:	24090000 	li	t1,0
bfc0204c:	01098026 	xor	s0,t0,t1
bfc02050:	3c12ef89 	lui	s2,0xef89
bfc02054:	36526e40 	ori	s2,s2,0x6e40
bfc02058:	16120218 	bne	s0,s2,bfc028bc <inst_error>
bfc0205c:	00000000 	nop
bfc02060:	3c08350d 	lui	t0,0x350d
bfc02064:	35083c92 	ori	t0,t0,0x3c92
bfc02068:	24090000 	li	t1,0
bfc0206c:	01098026 	xor	s0,t0,t1
bfc02070:	3c12350d 	lui	s2,0x350d
bfc02074:	36523c92 	ori	s2,s2,0x3c92
bfc02078:	16120210 	bne	s0,s2,bfc028bc <inst_error>
bfc0207c:	00000000 	nop
bfc02080:	3c0861f7 	lui	t0,0x61f7
bfc02084:	35083e10 	ori	t0,t0,0x3e10
bfc02088:	24090000 	li	t1,0
bfc0208c:	01098026 	xor	s0,t0,t1
bfc02090:	3c1261f7 	lui	s2,0x61f7
bfc02094:	36523e10 	ori	s2,s2,0x3e10
bfc02098:	16120208 	bne	s0,s2,bfc028bc <inst_error>
bfc0209c:	00000000 	nop
bfc020a0:	3c085390 	lui	t0,0x5390
bfc020a4:	35081b70 	ori	t0,t0,0x1b70
bfc020a8:	24090000 	li	t1,0
bfc020ac:	01098026 	xor	s0,t0,t1
bfc020b0:	3c125390 	lui	s2,0x5390
bfc020b4:	36521b70 	ori	s2,s2,0x1b70
bfc020b8:	16120200 	bne	s0,s2,bfc028bc <inst_error>
bfc020bc:	00000000 	nop
bfc020c0:	3c083470 	lui	t0,0x3470
bfc020c4:	350873a8 	ori	t0,t0,0x73a8
bfc020c8:	24090000 	li	t1,0
bfc020cc:	01098026 	xor	s0,t0,t1
bfc020d0:	3c123470 	lui	s2,0x3470
bfc020d4:	365273a8 	ori	s2,s2,0x73a8
bfc020d8:	161201f8 	bne	s0,s2,bfc028bc <inst_error>
bfc020dc:	00000000 	nop
bfc020e0:	3c08e3af 	lui	t0,0xe3af
bfc020e4:	35080cf8 	ori	t0,t0,0xcf8
bfc020e8:	24090000 	li	t1,0
bfc020ec:	01098026 	xor	s0,t0,t1
bfc020f0:	3c12e3af 	lui	s2,0xe3af
bfc020f4:	36520cf8 	ori	s2,s2,0xcf8
bfc020f8:	161201f0 	bne	s0,s2,bfc028bc <inst_error>
bfc020fc:	00000000 	nop
bfc02100:	3c08f921 	lui	t0,0xf921
bfc02104:	350882dc 	ori	t0,t0,0x82dc
bfc02108:	24090000 	li	t1,0
bfc0210c:	01098026 	xor	s0,t0,t1
bfc02110:	3c12f921 	lui	s2,0xf921
bfc02114:	365282dc 	ori	s2,s2,0x82dc
bfc02118:	161201e8 	bne	s0,s2,bfc028bc <inst_error>
bfc0211c:	00000000 	nop
bfc02120:	3c081145 	lui	t0,0x1145
bfc02124:	35085e30 	ori	t0,t0,0x5e30
bfc02128:	24090000 	li	t1,0
bfc0212c:	01098026 	xor	s0,t0,t1
bfc02130:	3c121145 	lui	s2,0x1145
bfc02134:	36525e30 	ori	s2,s2,0x5e30
bfc02138:	161201e0 	bne	s0,s2,bfc028bc <inst_error>
bfc0213c:	00000000 	nop
bfc02140:	3c08e6ce 	lui	t0,0xe6ce
bfc02144:	35088fc8 	ori	t0,t0,0x8fc8
bfc02148:	24090000 	li	t1,0
bfc0214c:	01098026 	xor	s0,t0,t1
bfc02150:	3c12e6ce 	lui	s2,0xe6ce
bfc02154:	36528fc8 	ori	s2,s2,0x8fc8
bfc02158:	161201d8 	bne	s0,s2,bfc028bc <inst_error>
bfc0215c:	00000000 	nop
bfc02160:	3c08b3c5 	lui	t0,0xb3c5
bfc02164:	35086041 	ori	t0,t0,0x6041
bfc02168:	24090000 	li	t1,0
bfc0216c:	01098026 	xor	s0,t0,t1
bfc02170:	3c12b3c5 	lui	s2,0xb3c5
bfc02174:	36526041 	ori	s2,s2,0x6041
bfc02178:	161201d0 	bne	s0,s2,bfc028bc <inst_error>
bfc0217c:	00000000 	nop
bfc02180:	3c089795 	lui	t0,0x9795
bfc02184:	3508c88c 	ori	t0,t0,0xc88c
bfc02188:	24090000 	li	t1,0
bfc0218c:	01098026 	xor	s0,t0,t1
bfc02190:	3c129795 	lui	s2,0x9795
bfc02194:	3652c88c 	ori	s2,s2,0xc88c
bfc02198:	161201c8 	bne	s0,s2,bfc028bc <inst_error>
bfc0219c:	00000000 	nop
bfc021a0:	3c0828d3 	lui	t0,0x28d3
bfc021a4:	3508aa6a 	ori	t0,t0,0xaa6a
bfc021a8:	24090000 	li	t1,0
bfc021ac:	01098026 	xor	s0,t0,t1
bfc021b0:	3c1228d3 	lui	s2,0x28d3
bfc021b4:	3652aa6a 	ori	s2,s2,0xaa6a
bfc021b8:	161201c0 	bne	s0,s2,bfc028bc <inst_error>
bfc021bc:	00000000 	nop
bfc021c0:	3c087fa7 	lui	t0,0x7fa7
bfc021c4:	3508123c 	ori	t0,t0,0x123c
bfc021c8:	24090000 	li	t1,0
bfc021cc:	01098026 	xor	s0,t0,t1
bfc021d0:	3c127fa7 	lui	s2,0x7fa7
bfc021d4:	3652123c 	ori	s2,s2,0x123c
bfc021d8:	161201b8 	bne	s0,s2,bfc028bc <inst_error>
bfc021dc:	00000000 	nop
bfc021e0:	3c0828ae 	lui	t0,0x28ae
bfc021e4:	3508ccb8 	ori	t0,t0,0xccb8
bfc021e8:	24090000 	li	t1,0
bfc021ec:	01098026 	xor	s0,t0,t1
bfc021f0:	3c1228ae 	lui	s2,0x28ae
bfc021f4:	3652ccb8 	ori	s2,s2,0xccb8
bfc021f8:	161201b0 	bne	s0,s2,bfc028bc <inst_error>
bfc021fc:	00000000 	nop
bfc02200:	3c084550 	lui	t0,0x4550
bfc02204:	350874a0 	ori	t0,t0,0x74a0
bfc02208:	24090000 	li	t1,0
bfc0220c:	01098026 	xor	s0,t0,t1
bfc02210:	3c124550 	lui	s2,0x4550
bfc02214:	365274a0 	ori	s2,s2,0x74a0
bfc02218:	161201a8 	bne	s0,s2,bfc028bc <inst_error>
bfc0221c:	00000000 	nop
bfc02220:	3c0880e3 	lui	t0,0x80e3
bfc02224:	3508eef6 	ori	t0,t0,0xeef6
bfc02228:	24090000 	li	t1,0
bfc0222c:	01098026 	xor	s0,t0,t1
bfc02230:	3c1280e3 	lui	s2,0x80e3
bfc02234:	3652eef6 	ori	s2,s2,0xeef6
bfc02238:	161201a0 	bne	s0,s2,bfc028bc <inst_error>
bfc0223c:	00000000 	nop
bfc02240:	3c08d359 	lui	t0,0xd359
bfc02244:	350852a0 	ori	t0,t0,0x52a0
bfc02248:	24090000 	li	t1,0
bfc0224c:	01098026 	xor	s0,t0,t1
bfc02250:	3c12d359 	lui	s2,0xd359
bfc02254:	365252a0 	ori	s2,s2,0x52a0
bfc02258:	16120198 	bne	s0,s2,bfc028bc <inst_error>
bfc0225c:	00000000 	nop
bfc02260:	24080000 	li	t0,0
bfc02264:	3c09f3b4 	lui	t1,0xf3b4
bfc02268:	35292473 	ori	t1,t1,0x2473
bfc0226c:	01098026 	xor	s0,t0,t1
bfc02270:	3c12f3b4 	lui	s2,0xf3b4
bfc02274:	36522473 	ori	s2,s2,0x2473
bfc02278:	16120190 	bne	s0,s2,bfc028bc <inst_error>
bfc0227c:	00000000 	nop
bfc02280:	24080000 	li	t0,0
bfc02284:	3c09e779 	lui	t1,0xe779
bfc02288:	35293fc8 	ori	t1,t1,0x3fc8
bfc0228c:	01098026 	xor	s0,t0,t1
bfc02290:	3c12e779 	lui	s2,0xe779
bfc02294:	36523fc8 	ori	s2,s2,0x3fc8
bfc02298:	16120188 	bne	s0,s2,bfc028bc <inst_error>
bfc0229c:	00000000 	nop
bfc022a0:	24080000 	li	t0,0
bfc022a4:	3c09dc88 	lui	t1,0xdc88
bfc022a8:	35290500 	ori	t1,t1,0x500
bfc022ac:	01098026 	xor	s0,t0,t1
bfc022b0:	3c12dc88 	lui	s2,0xdc88
bfc022b4:	36520500 	ori	s2,s2,0x500
bfc022b8:	16120180 	bne	s0,s2,bfc028bc <inst_error>
bfc022bc:	00000000 	nop
bfc022c0:	24080000 	li	t0,0
bfc022c4:	3c09377b 	lui	t1,0x377b
bfc022c8:	35293360 	ori	t1,t1,0x3360
bfc022cc:	01098026 	xor	s0,t0,t1
bfc022d0:	3c12377b 	lui	s2,0x377b
bfc022d4:	36523360 	ori	s2,s2,0x3360
bfc022d8:	16120178 	bne	s0,s2,bfc028bc <inst_error>
bfc022dc:	00000000 	nop
bfc022e0:	24080000 	li	t0,0
bfc022e4:	3c0953a8 	lui	t1,0x53a8
bfc022e8:	35290660 	ori	t1,t1,0x660
bfc022ec:	01098026 	xor	s0,t0,t1
bfc022f0:	3c1253a8 	lui	s2,0x53a8
bfc022f4:	36520660 	ori	s2,s2,0x660
bfc022f8:	16120170 	bne	s0,s2,bfc028bc <inst_error>
bfc022fc:	00000000 	nop
bfc02300:	24080000 	li	t0,0
bfc02304:	3c091b3c 	lui	t1,0x1b3c
bfc02308:	35294898 	ori	t1,t1,0x4898
bfc0230c:	01098026 	xor	s0,t0,t1
bfc02310:	3c121b3c 	lui	s2,0x1b3c
bfc02314:	36524898 	ori	s2,s2,0x4898
bfc02318:	16120168 	bne	s0,s2,bfc028bc <inst_error>
bfc0231c:	00000000 	nop
bfc02320:	24080000 	li	t0,0
bfc02324:	3c09fcf7 	lui	t1,0xfcf7
bfc02328:	3529f6e0 	ori	t1,t1,0xf6e0
bfc0232c:	01098026 	xor	s0,t0,t1
bfc02330:	3c12fcf7 	lui	s2,0xfcf7
bfc02334:	3652f6e0 	ori	s2,s2,0xf6e0
bfc02338:	16120160 	bne	s0,s2,bfc028bc <inst_error>
bfc0233c:	00000000 	nop
bfc02340:	24080000 	li	t0,0
bfc02344:	3c090b7c 	lui	t1,0xb7c
bfc02348:	35296a3d 	ori	t1,t1,0x6a3d
bfc0234c:	01098026 	xor	s0,t0,t1
bfc02350:	3c120b7c 	lui	s2,0xb7c
bfc02354:	36526a3d 	ori	s2,s2,0x6a3d
bfc02358:	16120158 	bne	s0,s2,bfc028bc <inst_error>
bfc0235c:	00000000 	nop
bfc02360:	24080000 	li	t0,0
bfc02364:	3c0928ca 	lui	t1,0x28ca
bfc02368:	35298e70 	ori	t1,t1,0x8e70
bfc0236c:	01098026 	xor	s0,t0,t1
bfc02370:	3c1228ca 	lui	s2,0x28ca
bfc02374:	36528e70 	ori	s2,s2,0x8e70
bfc02378:	16120150 	bne	s0,s2,bfc028bc <inst_error>
bfc0237c:	00000000 	nop
bfc02380:	24080000 	li	t0,0
bfc02384:	3c0932c6 	lui	t1,0x32c6
bfc02388:	35296b65 	ori	t1,t1,0x6b65
bfc0238c:	01098026 	xor	s0,t0,t1
bfc02390:	3c1232c6 	lui	s2,0x32c6
bfc02394:	36526b65 	ori	s2,s2,0x6b65
bfc02398:	16120148 	bne	s0,s2,bfc028bc <inst_error>
bfc0239c:	00000000 	nop
bfc023a0:	24080000 	li	t0,0
bfc023a4:	3c09a5be 	lui	t1,0xa5be
bfc023a8:	3529345e 	ori	t1,t1,0x345e
bfc023ac:	01098026 	xor	s0,t0,t1
bfc023b0:	3c12a5be 	lui	s2,0xa5be
bfc023b4:	3652345e 	ori	s2,s2,0x345e
bfc023b8:	16120140 	bne	s0,s2,bfc028bc <inst_error>
bfc023bc:	00000000 	nop
bfc023c0:	24080000 	li	t0,0
bfc023c4:	3c099a0b 	lui	t1,0x9a0b
bfc023c8:	3529c290 	ori	t1,t1,0xc290
bfc023cc:	01098026 	xor	s0,t0,t1
bfc023d0:	3c129a0b 	lui	s2,0x9a0b
bfc023d4:	3652c290 	ori	s2,s2,0xc290
bfc023d8:	16120138 	bne	s0,s2,bfc028bc <inst_error>
bfc023dc:	00000000 	nop
bfc023e0:	24080000 	li	t0,0
bfc023e4:	3c090c0b 	lui	t1,0xc0b
bfc023e8:	35291a60 	ori	t1,t1,0x1a60
bfc023ec:	01098026 	xor	s0,t0,t1
bfc023f0:	3c120c0b 	lui	s2,0xc0b
bfc023f4:	36521a60 	ori	s2,s2,0x1a60
bfc023f8:	16120130 	bne	s0,s2,bfc028bc <inst_error>
bfc023fc:	00000000 	nop
bfc02400:	24080000 	li	t0,0
bfc02404:	3c090672 	lui	t1,0x672
bfc02408:	3529fe64 	ori	t1,t1,0xfe64
bfc0240c:	01098026 	xor	s0,t0,t1
bfc02410:	3c120672 	lui	s2,0x672
bfc02414:	3652fe64 	ori	s2,s2,0xfe64
bfc02418:	16120128 	bne	s0,s2,bfc028bc <inst_error>
bfc0241c:	00000000 	nop
bfc02420:	24080000 	li	t0,0
bfc02424:	3c097fe9 	lui	t1,0x7fe9
bfc02428:	35291230 	ori	t1,t1,0x1230
bfc0242c:	01098026 	xor	s0,t0,t1
bfc02430:	3c127fe9 	lui	s2,0x7fe9
bfc02434:	36521230 	ori	s2,s2,0x1230
bfc02438:	16120120 	bne	s0,s2,bfc028bc <inst_error>
bfc0243c:	00000000 	nop
bfc02440:	24080000 	li	t0,0
bfc02444:	3c09d53e 	lui	t1,0xd53e
bfc02448:	35290792 	ori	t1,t1,0x792
bfc0244c:	01098026 	xor	s0,t0,t1
bfc02450:	3c12d53e 	lui	s2,0xd53e
bfc02454:	36520792 	ori	s2,s2,0x792
bfc02458:	16120118 	bne	s0,s2,bfc028bc <inst_error>
bfc0245c:	00000000 	nop
bfc02460:	24080000 	li	t0,0
bfc02464:	3c096d58 	lui	t1,0x6d58
bfc02468:	3529a790 	ori	t1,t1,0xa790
bfc0246c:	01098026 	xor	s0,t0,t1
bfc02470:	3c126d58 	lui	s2,0x6d58
bfc02474:	3652a790 	ori	s2,s2,0xa790
bfc02478:	16120110 	bne	s0,s2,bfc028bc <inst_error>
bfc0247c:	00000000 	nop
bfc02480:	24080000 	li	t0,0
bfc02484:	3c092f2a 	lui	t1,0x2f2a
bfc02488:	352954b8 	ori	t1,t1,0x54b8
bfc0248c:	01098026 	xor	s0,t0,t1
bfc02490:	3c122f2a 	lui	s2,0x2f2a
bfc02494:	365254b8 	ori	s2,s2,0x54b8
bfc02498:	16120108 	bne	s0,s2,bfc028bc <inst_error>
bfc0249c:	00000000 	nop
bfc024a0:	24080000 	li	t0,0
bfc024a4:	3c09c743 	lui	t1,0xc743
bfc024a8:	35290860 	ori	t1,t1,0x860
bfc024ac:	01098026 	xor	s0,t0,t1
bfc024b0:	3c12c743 	lui	s2,0xc743
bfc024b4:	36520860 	ori	s2,s2,0x860
bfc024b8:	16120100 	bne	s0,s2,bfc028bc <inst_error>
bfc024bc:	00000000 	nop
bfc024c0:	24080000 	li	t0,0
bfc024c4:	3c092ced 	lui	t1,0x2ced
bfc024c8:	35299e9b 	ori	t1,t1,0x9e9b
bfc024cc:	01098026 	xor	s0,t0,t1
bfc024d0:	3c122ced 	lui	s2,0x2ced
bfc024d4:	36529e9b 	ori	s2,s2,0x9e9b
bfc024d8:	161200f8 	bne	s0,s2,bfc028bc <inst_error>
bfc024dc:	00000000 	nop
bfc024e0:	24080000 	li	t0,0
bfc024e4:	3c09cdeb 	lui	t1,0xcdeb
bfc024e8:	35299c00 	ori	t1,t1,0x9c00
bfc024ec:	01098026 	xor	s0,t0,t1
bfc024f0:	3c12cdeb 	lui	s2,0xcdeb
bfc024f4:	36529c00 	ori	s2,s2,0x9c00
bfc024f8:	161200f0 	bne	s0,s2,bfc028bc <inst_error>
bfc024fc:	00000000 	nop
bfc02500:	24080000 	li	t0,0
bfc02504:	3c095fce 	lui	t1,0x5fce
bfc02508:	352941e4 	ori	t1,t1,0x41e4
bfc0250c:	01098026 	xor	s0,t0,t1
bfc02510:	3c125fce 	lui	s2,0x5fce
bfc02514:	365241e4 	ori	s2,s2,0x41e4
bfc02518:	161200e8 	bne	s0,s2,bfc028bc <inst_error>
bfc0251c:	00000000 	nop
bfc02520:	24080000 	li	t0,0
bfc02524:	3c0900de 	lui	t1,0xde
bfc02528:	3529a100 	ori	t1,t1,0xa100
bfc0252c:	01098026 	xor	s0,t0,t1
bfc02530:	3c1200de 	lui	s2,0xde
bfc02534:	3652a100 	ori	s2,s2,0xa100
bfc02538:	161200e0 	bne	s0,s2,bfc028bc <inst_error>
bfc0253c:	00000000 	nop
bfc02540:	24080000 	li	t0,0
bfc02544:	3c099a43 	lui	t1,0x9a43
bfc02548:	352924f9 	ori	t1,t1,0x24f9
bfc0254c:	01098026 	xor	s0,t0,t1
bfc02550:	3c129a43 	lui	s2,0x9a43
bfc02554:	365224f9 	ori	s2,s2,0x24f9
bfc02558:	161200d8 	bne	s0,s2,bfc028bc <inst_error>
bfc0255c:	00000000 	nop
bfc02560:	24080000 	li	t0,0
bfc02564:	3c09fff9 	lui	t1,0xfff9
bfc02568:	35299640 	ori	t1,t1,0x9640
bfc0256c:	01098026 	xor	s0,t0,t1
bfc02570:	3c12fff9 	lui	s2,0xfff9
bfc02574:	36529640 	ori	s2,s2,0x9640
bfc02578:	161200d0 	bne	s0,s2,bfc028bc <inst_error>
bfc0257c:	00000000 	nop
bfc02580:	24080000 	li	t0,0
bfc02584:	3c091c7e 	lui	t1,0x1c7e
bfc02588:	3529bc30 	ori	t1,t1,0xbc30
bfc0258c:	01098026 	xor	s0,t0,t1
bfc02590:	3c121c7e 	lui	s2,0x1c7e
bfc02594:	3652bc30 	ori	s2,s2,0xbc30
bfc02598:	161200c8 	bne	s0,s2,bfc028bc <inst_error>
bfc0259c:	00000000 	nop
bfc025a0:	24080000 	li	t0,0
bfc025a4:	3c09c3ea 	lui	t1,0xc3ea
bfc025a8:	3529e940 	ori	t1,t1,0xe940
bfc025ac:	01098026 	xor	s0,t0,t1
bfc025b0:	3c12c3ea 	lui	s2,0xc3ea
bfc025b4:	3652e940 	ori	s2,s2,0xe940
bfc025b8:	161200c0 	bne	s0,s2,bfc028bc <inst_error>
bfc025bc:	00000000 	nop
bfc025c0:	24080000 	li	t0,0
bfc025c4:	3c096694 	lui	t1,0x6694
bfc025c8:	3529692c 	ori	t1,t1,0x692c
bfc025cc:	01098026 	xor	s0,t0,t1
bfc025d0:	3c126694 	lui	s2,0x6694
bfc025d4:	3652692c 	ori	s2,s2,0x692c
bfc025d8:	161200b8 	bne	s0,s2,bfc028bc <inst_error>
bfc025dc:	00000000 	nop
bfc025e0:	24080000 	li	t0,0
bfc025e4:	3c09ec23 	lui	t1,0xec23
bfc025e8:	3529355a 	ori	t1,t1,0x355a
bfc025ec:	01098026 	xor	s0,t0,t1
bfc025f0:	3c12ec23 	lui	s2,0xec23
bfc025f4:	3652355a 	ori	s2,s2,0x355a
bfc025f8:	161200b0 	bne	s0,s2,bfc028bc <inst_error>
bfc025fc:	00000000 	nop
bfc02600:	24080000 	li	t0,0
bfc02604:	3c09cfdb 	lui	t1,0xcfdb
bfc02608:	35299258 	ori	t1,t1,0x9258
bfc0260c:	01098026 	xor	s0,t0,t1
bfc02610:	3c12cfdb 	lui	s2,0xcfdb
bfc02614:	36529258 	ori	s2,s2,0x9258
bfc02618:	161200a8 	bne	s0,s2,bfc028bc <inst_error>
bfc0261c:	00000000 	nop
bfc02620:	24080000 	li	t0,0
bfc02624:	3c09f461 	lui	t1,0xf461
bfc02628:	35299868 	ori	t1,t1,0x9868
bfc0262c:	01098026 	xor	s0,t0,t1
bfc02630:	3c12f461 	lui	s2,0xf461
bfc02634:	36529868 	ori	s2,s2,0x9868
bfc02638:	161200a0 	bne	s0,s2,bfc028bc <inst_error>
bfc0263c:	00000000 	nop
bfc02640:	24080000 	li	t0,0
bfc02644:	3c098c3a 	lui	t1,0x8c3a
bfc02648:	35296498 	ori	t1,t1,0x6498
bfc0264c:	01098026 	xor	s0,t0,t1
bfc02650:	3c128c3a 	lui	s2,0x8c3a
bfc02654:	36526498 	ori	s2,s2,0x6498
bfc02658:	16120098 	bne	s0,s2,bfc028bc <inst_error>
bfc0265c:	00000000 	nop
bfc02660:	24080000 	li	t0,0
bfc02664:	3c092180 	lui	t1,0x2180
bfc02668:	35298f90 	ori	t1,t1,0x8f90
bfc0266c:	01098026 	xor	s0,t0,t1
bfc02670:	3c122180 	lui	s2,0x2180
bfc02674:	36528f90 	ori	s2,s2,0x8f90
bfc02678:	16120090 	bne	s0,s2,bfc028bc <inst_error>
bfc0267c:	00000000 	nop
bfc02680:	24080000 	li	t0,0
bfc02684:	3c09cd47 	lui	t1,0xcd47
bfc02688:	35291c30 	ori	t1,t1,0x1c30
bfc0268c:	01098026 	xor	s0,t0,t1
bfc02690:	3c12cd47 	lui	s2,0xcd47
bfc02694:	36521c30 	ori	s2,s2,0x1c30
bfc02698:	16120088 	bne	s0,s2,bfc028bc <inst_error>
bfc0269c:	00000000 	nop
bfc026a0:	24080000 	li	t0,0
bfc026a4:	3c09980c 	lui	t1,0x980c
bfc026a8:	3529b63c 	ori	t1,t1,0xb63c
bfc026ac:	01098026 	xor	s0,t0,t1
bfc026b0:	3c12980c 	lui	s2,0x980c
bfc026b4:	3652b63c 	ori	s2,s2,0xb63c
bfc026b8:	16120080 	bne	s0,s2,bfc028bc <inst_error>
bfc026bc:	00000000 	nop
bfc026c0:	24080000 	li	t0,0
bfc026c4:	3c09f95c 	lui	t1,0xf95c
bfc026c8:	35291c68 	ori	t1,t1,0x1c68
bfc026cc:	01098026 	xor	s0,t0,t1
bfc026d0:	3c12f95c 	lui	s2,0xf95c
bfc026d4:	36521c68 	ori	s2,s2,0x1c68
bfc026d8:	16120078 	bne	s0,s2,bfc028bc <inst_error>
bfc026dc:	00000000 	nop
bfc026e0:	24080000 	li	t0,0
bfc026e4:	3c09b86c 	lui	t1,0xb86c
bfc026e8:	3529acf0 	ori	t1,t1,0xacf0
bfc026ec:	01098026 	xor	s0,t0,t1
bfc026f0:	3c12b86c 	lui	s2,0xb86c
bfc026f4:	3652acf0 	ori	s2,s2,0xacf0
bfc026f8:	16120070 	bne	s0,s2,bfc028bc <inst_error>
bfc026fc:	00000000 	nop
bfc02700:	24080000 	li	t0,0
bfc02704:	3c099f86 	lui	t1,0x9f86
bfc02708:	3529dfbe 	ori	t1,t1,0xdfbe
bfc0270c:	01098026 	xor	s0,t0,t1
bfc02710:	3c129f86 	lui	s2,0x9f86
bfc02714:	3652dfbe 	ori	s2,s2,0xdfbe
bfc02718:	16120068 	bne	s0,s2,bfc028bc <inst_error>
bfc0271c:	00000000 	nop
bfc02720:	24080000 	li	t0,0
bfc02724:	3c09e239 	lui	t1,0xe239
bfc02728:	35293cc6 	ori	t1,t1,0x3cc6
bfc0272c:	01098026 	xor	s0,t0,t1
bfc02730:	3c12e239 	lui	s2,0xe239
bfc02734:	36523cc6 	ori	s2,s2,0x3cc6
bfc02738:	16120060 	bne	s0,s2,bfc028bc <inst_error>
bfc0273c:	00000000 	nop
bfc02740:	24080000 	li	t0,0
bfc02744:	3c0928f3 	lui	t1,0x28f3
bfc02748:	35298f80 	ori	t1,t1,0x8f80
bfc0274c:	01098026 	xor	s0,t0,t1
bfc02750:	3c1228f3 	lui	s2,0x28f3
bfc02754:	36528f80 	ori	s2,s2,0x8f80
bfc02758:	16120058 	bne	s0,s2,bfc028bc <inst_error>
bfc0275c:	00000000 	nop
bfc02760:	24080000 	li	t0,0
bfc02764:	3c09e71a 	lui	t1,0xe71a
bfc02768:	35291600 	ori	t1,t1,0x1600
bfc0276c:	01098026 	xor	s0,t0,t1
bfc02770:	3c12e71a 	lui	s2,0xe71a
bfc02774:	36521600 	ori	s2,s2,0x1600
bfc02778:	16120050 	bne	s0,s2,bfc028bc <inst_error>
bfc0277c:	00000000 	nop
bfc02780:	24080000 	li	t0,0
bfc02784:	3c09b780 	lui	t1,0xb780
bfc02788:	352965c0 	ori	t1,t1,0x65c0
bfc0278c:	01098026 	xor	s0,t0,t1
bfc02790:	3c12b780 	lui	s2,0xb780
bfc02794:	365265c0 	ori	s2,s2,0x65c0
bfc02798:	16120048 	bne	s0,s2,bfc028bc <inst_error>
bfc0279c:	00000000 	nop
bfc027a0:	24080000 	li	t0,0
bfc027a4:	3c09ae57 	lui	t1,0xae57
bfc027a8:	352901fc 	ori	t1,t1,0x1fc
bfc027ac:	01098026 	xor	s0,t0,t1
bfc027b0:	3c12ae57 	lui	s2,0xae57
bfc027b4:	365201fc 	ori	s2,s2,0x1fc
bfc027b8:	16120040 	bne	s0,s2,bfc028bc <inst_error>
bfc027bc:	00000000 	nop
bfc027c0:	24080000 	li	t0,0
bfc027c4:	3c09cc79 	lui	t1,0xcc79
bfc027c8:	3529acfe 	ori	t1,t1,0xacfe
bfc027cc:	01098026 	xor	s0,t0,t1
bfc027d0:	3c12cc79 	lui	s2,0xcc79
bfc027d4:	3652acfe 	ori	s2,s2,0xacfe
bfc027d8:	16120038 	bne	s0,s2,bfc028bc <inst_error>
bfc027dc:	00000000 	nop
bfc027e0:	24080000 	li	t0,0
bfc027e4:	3c096cfc 	lui	t1,0x6cfc
bfc027e8:	3529614a 	ori	t1,t1,0x614a
bfc027ec:	01098026 	xor	s0,t0,t1
bfc027f0:	3c126cfc 	lui	s2,0x6cfc
bfc027f4:	3652614a 	ori	s2,s2,0x614a
bfc027f8:	16120030 	bne	s0,s2,bfc028bc <inst_error>
bfc027fc:	00000000 	nop
bfc02800:	24080000 	li	t0,0
bfc02804:	3c090c2a 	lui	t1,0xc2a
bfc02808:	3529cef6 	ori	t1,t1,0xcef6
bfc0280c:	01098026 	xor	s0,t0,t1
bfc02810:	3c120c2a 	lui	s2,0xc2a
bfc02814:	3652cef6 	ori	s2,s2,0xcef6
bfc02818:	16120028 	bne	s0,s2,bfc028bc <inst_error>
bfc0281c:	00000000 	nop
bfc02820:	24080000 	li	t0,0
bfc02824:	3c09fced 	lui	t1,0xfced
bfc02828:	352935ce 	ori	t1,t1,0x35ce
bfc0282c:	01098026 	xor	s0,t0,t1
bfc02830:	3c12fced 	lui	s2,0xfced
bfc02834:	365235ce 	ori	s2,s2,0x35ce
bfc02838:	16120020 	bne	s0,s2,bfc028bc <inst_error>
bfc0283c:	00000000 	nop
bfc02840:	24080000 	li	t0,0
bfc02844:	3c09a328 	lui	t1,0xa328
bfc02848:	35298960 	ori	t1,t1,0x8960
bfc0284c:	01098026 	xor	s0,t0,t1
bfc02850:	3c12a328 	lui	s2,0xa328
bfc02854:	36528960 	ori	s2,s2,0x8960
bfc02858:	16120018 	bne	s0,s2,bfc028bc <inst_error>
bfc0285c:	00000000 	nop
bfc02860:	24080000 	li	t0,0
bfc02864:	3c09c67e 	lui	t1,0xc67e
bfc02868:	3529946c 	ori	t1,t1,0x946c
bfc0286c:	01098026 	xor	s0,t0,t1
bfc02870:	3c12c67e 	lui	s2,0xc67e
bfc02874:	3652946c 	ori	s2,s2,0x946c
bfc02878:	16120010 	bne	s0,s2,bfc028bc <inst_error>
bfc0287c:	00000000 	nop
bfc02880:	24080000 	li	t0,0
bfc02884:	3c09b6a8 	lui	t1,0xb6a8
bfc02888:	3529c6f0 	ori	t1,t1,0xc6f0
bfc0288c:	01098026 	xor	s0,t0,t1
bfc02890:	3c12b6a8 	lui	s2,0xb6a8
bfc02894:	3652c6f0 	ori	s2,s2,0xc6f0
bfc02898:	16120008 	bne	s0,s2,bfc028bc <inst_error>
bfc0289c:	00000000 	nop
bfc028a0:	24080000 	li	t0,0
bfc028a4:	24090000 	li	t1,0
bfc028a8:	01098026 	xor	s0,t0,t1
bfc028ac:	24120000 	li	s2,0
bfc028b0:	16120002 	bne	s0,s2,bfc028bc <inst_error>
bfc028b4:	00000000 	nop
bfc028b8:	4a000000 	c2	0x0

bfc028bc <inst_error>:
inst_error():
bfc028bc:	0000003f 	0x3f

Disassembly of section .reginfo:

00000000 <.reginfo>:
   0:	00050300 	sll	zero,a1,0xc
	...
