
build/xori:     file format elf32-tradlittlemips
build/xori


Disassembly of section .text:

bfc00000 <main>:
bfc00000:	3c084406 	lui	t0,0x4406
bfc00004:	3508a500 	ori	t0,t0,0xa500
bfc00008:	240914bf 	li	t1,5311
bfc0000c:	391014bf 	xori	s0,t0,0x14bf
bfc00010:	3c124406 	lui	s2,0x4406
bfc00014:	3652b1bf 	ori	s2,s2,0xb1bf
bfc00018:	161208fc 	bne	s0,s2,bfc0240c <inst_error>
bfc0001c:	00000000 	nop
bfc00020:	3c08b5f5 	lui	t0,0xb5f5
bfc00024:	35082460 	ori	t0,t0,0x2460
bfc00028:	3409babe 	li	t1,0xbabe
bfc0002c:	3910babe 	xori	s0,t0,0xbabe
bfc00030:	3c12b5f5 	lui	s2,0xb5f5
bfc00034:	36529ede 	ori	s2,s2,0x9ede
bfc00038:	161208f4 	bne	s0,s2,bfc0240c <inst_error>
bfc0003c:	00000000 	nop
bfc00040:	3c083454 	lui	t0,0x3454
bfc00044:	35087fee 	ori	t0,t0,0x7fee
bfc00048:	34099cfa 	li	t1,0x9cfa
bfc0004c:	39109cfa 	xori	s0,t0,0x9cfa
bfc00050:	3c123454 	lui	s2,0x3454
bfc00054:	3652e314 	ori	s2,s2,0xe314
bfc00058:	161208ec 	bne	s0,s2,bfc0240c <inst_error>
bfc0005c:	00000000 	nop
bfc00060:	3c084d7c 	lui	t0,0x4d7c
bfc00064:	35086e70 	ori	t0,t0,0x6e70
bfc00068:	3409fdf4 	li	t1,0xfdf4
bfc0006c:	3910fdf4 	xori	s0,t0,0xfdf4
bfc00070:	3c124d7c 	lui	s2,0x4d7c
bfc00074:	36529384 	ori	s2,s2,0x9384
bfc00078:	161208e4 	bne	s0,s2,bfc0240c <inst_error>
bfc0007c:	00000000 	nop
bfc00080:	3c080f04 	lui	t0,0xf04
bfc00084:	3508a9e8 	ori	t0,t0,0xa9e8
bfc00088:	3409931e 	li	t1,0x931e
bfc0008c:	3910931e 	xori	s0,t0,0x931e
bfc00090:	3c120f04 	lui	s2,0xf04
bfc00094:	36523af6 	ori	s2,s2,0x3af6
bfc00098:	161208dc 	bne	s0,s2,bfc0240c <inst_error>
bfc0009c:	00000000 	nop
bfc000a0:	3c08ebec 	lui	t0,0xebec
bfc000a4:	35084441 	ori	t0,t0,0x4441
bfc000a8:	3409840b 	li	t1,0x840b
bfc000ac:	3910840b 	xori	s0,t0,0x840b
bfc000b0:	3c12ebec 	lui	s2,0xebec
bfc000b4:	3652c04a 	ori	s2,s2,0xc04a
bfc000b8:	161208d4 	bne	s0,s2,bfc0240c <inst_error>
bfc000bc:	00000000 	nop
bfc000c0:	3c086634 	lui	t0,0x6634
bfc000c4:	3508ae18 	ori	t0,t0,0xae18
bfc000c8:	24093388 	li	t1,13192
bfc000cc:	39103388 	xori	s0,t0,0x3388
bfc000d0:	3c126634 	lui	s2,0x6634
bfc000d4:	36529d90 	ori	s2,s2,0x9d90
bfc000d8:	161208cc 	bne	s0,s2,bfc0240c <inst_error>
bfc000dc:	00000000 	nop
bfc000e0:	3c0891ab 	lui	t0,0x91ab
bfc000e4:	35081a58 	ori	t0,t0,0x1a58
bfc000e8:	3409ba27 	li	t1,0xba27
bfc000ec:	3910ba27 	xori	s0,t0,0xba27
bfc000f0:	3c1291ab 	lui	s2,0x91ab
bfc000f4:	3652a07f 	ori	s2,s2,0xa07f
bfc000f8:	161208c4 	bne	s0,s2,bfc0240c <inst_error>
bfc000fc:	00000000 	nop
bfc00100:	3c08799c 	lui	t0,0x799c
bfc00104:	35082469 	ori	t0,t0,0x2469
bfc00108:	24093287 	li	t1,12935
bfc0010c:	39103287 	xori	s0,t0,0x3287
bfc00110:	3c12799c 	lui	s2,0x799c
bfc00114:	365216ee 	ori	s2,s2,0x16ee
bfc00118:	161208bc 	bne	s0,s2,bfc0240c <inst_error>
bfc0011c:	00000000 	nop
bfc00120:	3c083341 	lui	t0,0x3341
bfc00124:	35082a00 	ori	t0,t0,0x2a00
bfc00128:	240969cd 	li	t1,27085
bfc0012c:	391069cd 	xori	s0,t0,0x69cd
bfc00130:	3c123341 	lui	s2,0x3341
bfc00134:	365243cd 	ori	s2,s2,0x43cd
bfc00138:	161208b4 	bne	s0,s2,bfc0240c <inst_error>
bfc0013c:	00000000 	nop
bfc00140:	3c083e00 	lui	t0,0x3e00
bfc00144:	3508f810 	ori	t0,t0,0xf810
bfc00148:	24097da6 	li	t1,32166
bfc0014c:	39107da6 	xori	s0,t0,0x7da6
bfc00150:	3c123e00 	lui	s2,0x3e00
bfc00154:	365285b6 	ori	s2,s2,0x85b6
bfc00158:	161208ac 	bne	s0,s2,bfc0240c <inst_error>
bfc0015c:	00000000 	nop
bfc00160:	3c087a5a 	lui	t0,0x7a5a
bfc00164:	35087b1e 	ori	t0,t0,0x7b1e
bfc00168:	24095af4 	li	t1,23284
bfc0016c:	39105af4 	xori	s0,t0,0x5af4
bfc00170:	3c127a5a 	lui	s2,0x7a5a
bfc00174:	365221ea 	ori	s2,s2,0x21ea
bfc00178:	161208a4 	bne	s0,s2,bfc0240c <inst_error>
bfc0017c:	00000000 	nop
bfc00180:	3c0854f7 	lui	t0,0x54f7
bfc00184:	35080200 	ori	t0,t0,0x200
bfc00188:	3409d4c2 	li	t1,0xd4c2
bfc0018c:	3910d4c2 	xori	s0,t0,0xd4c2
bfc00190:	3c1254f7 	lui	s2,0x54f7
bfc00194:	3652d6c2 	ori	s2,s2,0xd6c2
bfc00198:	1612089c 	bne	s0,s2,bfc0240c <inst_error>
bfc0019c:	00000000 	nop
bfc001a0:	3c08b076 	lui	t0,0xb076
bfc001a4:	3508900d 	ori	t0,t0,0x900d
bfc001a8:	24090aec 	li	t1,2796
bfc001ac:	39100aec 	xori	s0,t0,0xaec
bfc001b0:	3c12b076 	lui	s2,0xb076
bfc001b4:	36529ae1 	ori	s2,s2,0x9ae1
bfc001b8:	16120894 	bne	s0,s2,bfc0240c <inst_error>
bfc001bc:	00000000 	nop
bfc001c0:	3c08efb3 	lui	t0,0xefb3
bfc001c4:	35084e75 	ori	t0,t0,0x4e75
bfc001c8:	240930d0 	li	t1,12496
bfc001cc:	391030d0 	xori	s0,t0,0x30d0
bfc001d0:	3c12efb3 	lui	s2,0xefb3
bfc001d4:	36527ea5 	ori	s2,s2,0x7ea5
bfc001d8:	1612088c 	bne	s0,s2,bfc0240c <inst_error>
bfc001dc:	00000000 	nop
bfc001e0:	3c088238 	lui	t0,0x8238
bfc001e4:	3508b723 	ori	t0,t0,0xb723
bfc001e8:	24097da3 	li	t1,32163
bfc001ec:	39107da3 	xori	s0,t0,0x7da3
bfc001f0:	3c128238 	lui	s2,0x8238
bfc001f4:	3652ca80 	ori	s2,s2,0xca80
bfc001f8:	16120884 	bne	s0,s2,bfc0240c <inst_error>
bfc001fc:	00000000 	nop
bfc00200:	3c088fd1 	lui	t0,0x8fd1
bfc00204:	3508c50e 	ori	t0,t0,0xc50e
bfc00208:	3409d513 	li	t1,0xd513
bfc0020c:	3910d513 	xori	s0,t0,0xd513
bfc00210:	3c128fd1 	lui	s2,0x8fd1
bfc00214:	3652101d 	ori	s2,s2,0x101d
bfc00218:	1612087c 	bne	s0,s2,bfc0240c <inst_error>
bfc0021c:	00000000 	nop
bfc00220:	3c08527c 	lui	t0,0x527c
bfc00224:	3508fe40 	ori	t0,t0,0xfe40
bfc00228:	24096e4c 	li	t1,28236
bfc0022c:	39106e4c 	xori	s0,t0,0x6e4c
bfc00230:	3c12527c 	lui	s2,0x527c
bfc00234:	3652900c 	ori	s2,s2,0x900c
bfc00238:	16120874 	bne	s0,s2,bfc0240c <inst_error>
bfc0023c:	00000000 	nop
bfc00240:	3c08a791 	lui	t0,0xa791
bfc00244:	35086af8 	ori	t0,t0,0x6af8
bfc00248:	24095e00 	li	t1,24064
bfc0024c:	39105e00 	xori	s0,t0,0x5e00
bfc00250:	3c12a791 	lui	s2,0xa791
bfc00254:	365234f8 	ori	s2,s2,0x34f8
bfc00258:	1612086c 	bne	s0,s2,bfc0240c <inst_error>
bfc0025c:	00000000 	nop
bfc00260:	3c082a7e 	lui	t0,0x2a7e
bfc00264:	3508f402 	ori	t0,t0,0xf402
bfc00268:	24092ec9 	li	t1,11977
bfc0026c:	39102ec9 	xori	s0,t0,0x2ec9
bfc00270:	3c122a7e 	lui	s2,0x2a7e
bfc00274:	3652dacb 	ori	s2,s2,0xdacb
bfc00278:	16120864 	bne	s0,s2,bfc0240c <inst_error>
bfc0027c:	00000000 	nop
bfc00280:	3c08eaa4 	lui	t0,0xeaa4
bfc00284:	3508370c 	ori	t0,t0,0x370c
bfc00288:	3409cf7b 	li	t1,0xcf7b
bfc0028c:	3910cf7b 	xori	s0,t0,0xcf7b
bfc00290:	3c12eaa4 	lui	s2,0xeaa4
bfc00294:	3652f877 	ori	s2,s2,0xf877
bfc00298:	1612085c 	bne	s0,s2,bfc0240c <inst_error>
bfc0029c:	00000000 	nop
bfc002a0:	3c08398d 	lui	t0,0x398d
bfc002a4:	350882c0 	ori	t0,t0,0x82c0
bfc002a8:	24096f20 	li	t1,28448
bfc002ac:	39106f20 	xori	s0,t0,0x6f20
bfc002b0:	3c12398d 	lui	s2,0x398d
bfc002b4:	3652ede0 	ori	s2,s2,0xede0
bfc002b8:	16120854 	bne	s0,s2,bfc0240c <inst_error>
bfc002bc:	00000000 	nop
bfc002c0:	3c08c179 	lui	t0,0xc179
bfc002c4:	350873c0 	ori	t0,t0,0x73c0
bfc002c8:	3409a204 	li	t1,0xa204
bfc002cc:	3910a204 	xori	s0,t0,0xa204
bfc002d0:	3c12c179 	lui	s2,0xc179
bfc002d4:	3652d1c4 	ori	s2,s2,0xd1c4
bfc002d8:	1612084c 	bne	s0,s2,bfc0240c <inst_error>
bfc002dc:	00000000 	nop
bfc002e0:	3c08509b 	lui	t0,0x509b
bfc002e4:	35085930 	ori	t0,t0,0x5930
bfc002e8:	240916fb 	li	t1,5883
bfc002ec:	391016fb 	xori	s0,t0,0x16fb
bfc002f0:	3c12509b 	lui	s2,0x509b
bfc002f4:	36524fcb 	ori	s2,s2,0x4fcb
bfc002f8:	16120844 	bne	s0,s2,bfc0240c <inst_error>
bfc002fc:	00000000 	nop
bfc00300:	3c0802f1 	lui	t0,0x2f1
bfc00304:	3508a8c0 	ori	t0,t0,0xa8c0
bfc00308:	2409614a 	li	t1,24906
bfc0030c:	3910614a 	xori	s0,t0,0x614a
bfc00310:	3c1202f1 	lui	s2,0x2f1
bfc00314:	3652c98a 	ori	s2,s2,0xc98a
bfc00318:	1612083c 	bne	s0,s2,bfc0240c <inst_error>
bfc0031c:	00000000 	nop
bfc00320:	3c089f1f 	lui	t0,0x9f1f
bfc00324:	35081918 	ori	t0,t0,0x1918
bfc00328:	24097180 	li	t1,29056
bfc0032c:	39107180 	xori	s0,t0,0x7180
bfc00330:	3c129f1f 	lui	s2,0x9f1f
bfc00334:	36526898 	ori	s2,s2,0x6898
bfc00338:	16120834 	bne	s0,s2,bfc0240c <inst_error>
bfc0033c:	00000000 	nop
bfc00340:	3c08a999 	lui	t0,0xa999
bfc00344:	35085a23 	ori	t0,t0,0x5a23
bfc00348:	3409b6d0 	li	t1,0xb6d0
bfc0034c:	3910b6d0 	xori	s0,t0,0xb6d0
bfc00350:	3c12a999 	lui	s2,0xa999
bfc00354:	3652ecf3 	ori	s2,s2,0xecf3
bfc00358:	1612082c 	bne	s0,s2,bfc0240c <inst_error>
bfc0035c:	00000000 	nop
bfc00360:	3c08790d 	lui	t0,0x790d
bfc00364:	350838e8 	ori	t0,t0,0x38e8
bfc00368:	34098a4b 	li	t1,0x8a4b
bfc0036c:	39108a4b 	xori	s0,t0,0x8a4b
bfc00370:	3c12790d 	lui	s2,0x790d
bfc00374:	3652b2a3 	ori	s2,s2,0xb2a3
bfc00378:	16120824 	bne	s0,s2,bfc0240c <inst_error>
bfc0037c:	00000000 	nop
bfc00380:	3c08e7b8 	lui	t0,0xe7b8
bfc00384:	350871a0 	ori	t0,t0,0x71a0
bfc00388:	3409bead 	li	t1,0xbead
bfc0038c:	3910bead 	xori	s0,t0,0xbead
bfc00390:	3c12e7b8 	lui	s2,0xe7b8
bfc00394:	3652cf0d 	ori	s2,s2,0xcf0d
bfc00398:	1612081c 	bne	s0,s2,bfc0240c <inst_error>
bfc0039c:	00000000 	nop
bfc003a0:	3c0843c6 	lui	t0,0x43c6
bfc003a4:	35083446 	ori	t0,t0,0x3446
bfc003a8:	24097b20 	li	t1,31520
bfc003ac:	39107b20 	xori	s0,t0,0x7b20
bfc003b0:	3c1243c6 	lui	s2,0x43c6
bfc003b4:	36524f66 	ori	s2,s2,0x4f66
bfc003b8:	16120814 	bne	s0,s2,bfc0240c <inst_error>
bfc003bc:	00000000 	nop
bfc003c0:	3c0867ed 	lui	t0,0x67ed
bfc003c4:	35084840 	ori	t0,t0,0x4840
bfc003c8:	3409fb4b 	li	t1,0xfb4b
bfc003cc:	3910fb4b 	xori	s0,t0,0xfb4b
bfc003d0:	3c1267ed 	lui	s2,0x67ed
bfc003d4:	3652b30b 	ori	s2,s2,0xb30b
bfc003d8:	1612080c 	bne	s0,s2,bfc0240c <inst_error>
bfc003dc:	00000000 	nop
bfc003e0:	3c08d039 	lui	t0,0xd039
bfc003e4:	35089730 	ori	t0,t0,0x9730
bfc003e8:	24090932 	li	t1,2354
bfc003ec:	39100932 	xori	s0,t0,0x932
bfc003f0:	3c12d039 	lui	s2,0xd039
bfc003f4:	36529e02 	ori	s2,s2,0x9e02
bfc003f8:	16120804 	bne	s0,s2,bfc0240c <inst_error>
bfc003fc:	00000000 	nop
bfc00400:	3c08ffce 	lui	t0,0xffce
bfc00404:	35086838 	ori	t0,t0,0x6838
bfc00408:	3409be7c 	li	t1,0xbe7c
bfc0040c:	3910be7c 	xori	s0,t0,0xbe7c
bfc00410:	3c12ffce 	lui	s2,0xffce
bfc00414:	3652d644 	ori	s2,s2,0xd644
bfc00418:	161207fc 	bne	s0,s2,bfc0240c <inst_error>
bfc0041c:	00000000 	nop
bfc00420:	3c082185 	lui	t0,0x2185
bfc00424:	350808a0 	ori	t0,t0,0x8a0
bfc00428:	3409bf06 	li	t1,0xbf06
bfc0042c:	3910bf06 	xori	s0,t0,0xbf06
bfc00430:	3c122185 	lui	s2,0x2185
bfc00434:	3652b7a6 	ori	s2,s2,0xb7a6
bfc00438:	161207f4 	bne	s0,s2,bfc0240c <inst_error>
bfc0043c:	00000000 	nop
bfc00440:	3c08d57c 	lui	t0,0xd57c
bfc00444:	3508a985 	ori	t0,t0,0xa985
bfc00448:	3409a028 	li	t1,0xa028
bfc0044c:	3910a028 	xori	s0,t0,0xa028
bfc00450:	3c12d57c 	lui	s2,0xd57c
bfc00454:	365209ad 	ori	s2,s2,0x9ad
bfc00458:	161207ec 	bne	s0,s2,bfc0240c <inst_error>
bfc0045c:	00000000 	nop
bfc00460:	3c08b4dc 	lui	t0,0xb4dc
bfc00464:	3508272e 	ori	t0,t0,0x272e
bfc00468:	24094cb8 	li	t1,19640
bfc0046c:	39104cb8 	xori	s0,t0,0x4cb8
bfc00470:	3c12b4dc 	lui	s2,0xb4dc
bfc00474:	36526b96 	ori	s2,s2,0x6b96
bfc00478:	161207e4 	bne	s0,s2,bfc0240c <inst_error>
bfc0047c:	00000000 	nop
bfc00480:	3c0836d7 	lui	t0,0x36d7
bfc00484:	3508bfad 	ori	t0,t0,0xbfad
bfc00488:	24093d1b 	li	t1,15643
bfc0048c:	39103d1b 	xori	s0,t0,0x3d1b
bfc00490:	3c1236d7 	lui	s2,0x36d7
bfc00494:	365282b6 	ori	s2,s2,0x82b6
bfc00498:	161207dc 	bne	s0,s2,bfc0240c <inst_error>
bfc0049c:	00000000 	nop
bfc004a0:	3c0850e3 	lui	t0,0x50e3
bfc004a4:	350864b4 	ori	t0,t0,0x64b4
bfc004a8:	24093b80 	li	t1,15232
bfc004ac:	39103b80 	xori	s0,t0,0x3b80
bfc004b0:	3c1250e3 	lui	s2,0x50e3
bfc004b4:	36525f34 	ori	s2,s2,0x5f34
bfc004b8:	161207d4 	bne	s0,s2,bfc0240c <inst_error>
bfc004bc:	00000000 	nop
bfc004c0:	3c08b4dd 	lui	t0,0xb4dd
bfc004c4:	3508f452 	ori	t0,t0,0xf452
bfc004c8:	3409cdb8 	li	t1,0xcdb8
bfc004cc:	3910cdb8 	xori	s0,t0,0xcdb8
bfc004d0:	3c12b4dd 	lui	s2,0xb4dd
bfc004d4:	365239ea 	ori	s2,s2,0x39ea
bfc004d8:	161207cc 	bne	s0,s2,bfc0240c <inst_error>
bfc004dc:	00000000 	nop
bfc004e0:	3c08b8f6 	lui	t0,0xb8f6
bfc004e4:	35081d50 	ori	t0,t0,0x1d50
bfc004e8:	34098d00 	li	t1,0x8d00
bfc004ec:	39108d00 	xori	s0,t0,0x8d00
bfc004f0:	3c12b8f6 	lui	s2,0xb8f6
bfc004f4:	36529050 	ori	s2,s2,0x9050
bfc004f8:	161207c4 	bne	s0,s2,bfc0240c <inst_error>
bfc004fc:	00000000 	nop
bfc00500:	3c085e68 	lui	t0,0x5e68
bfc00504:	35086f00 	ori	t0,t0,0x6f00
bfc00508:	24090809 	li	t1,2057
bfc0050c:	39100809 	xori	s0,t0,0x809
bfc00510:	3c125e68 	lui	s2,0x5e68
bfc00514:	36526709 	ori	s2,s2,0x6709
bfc00518:	161207bc 	bne	s0,s2,bfc0240c <inst_error>
bfc0051c:	00000000 	nop
bfc00520:	3c089d18 	lui	t0,0x9d18
bfc00524:	35085660 	ori	t0,t0,0x5660
bfc00528:	3409ed22 	li	t1,0xed22
bfc0052c:	3910ed22 	xori	s0,t0,0xed22
bfc00530:	3c129d18 	lui	s2,0x9d18
bfc00534:	3652bb42 	ori	s2,s2,0xbb42
bfc00538:	161207b4 	bne	s0,s2,bfc0240c <inst_error>
bfc0053c:	00000000 	nop
bfc00540:	3c0887fe 	lui	t0,0x87fe
bfc00544:	35081678 	ori	t0,t0,0x1678
bfc00548:	24093990 	li	t1,14736
bfc0054c:	39103990 	xori	s0,t0,0x3990
bfc00550:	3c1287fe 	lui	s2,0x87fe
bfc00554:	36522fe8 	ori	s2,s2,0x2fe8
bfc00558:	161207ac 	bne	s0,s2,bfc0240c <inst_error>
bfc0055c:	00000000 	nop
bfc00560:	3c081e5e 	lui	t0,0x1e5e
bfc00564:	3508eff6 	ori	t0,t0,0xeff6
bfc00568:	3409b77f 	li	t1,0xb77f
bfc0056c:	3910b77f 	xori	s0,t0,0xb77f
bfc00570:	3c121e5e 	lui	s2,0x1e5e
bfc00574:	36525889 	ori	s2,s2,0x5889
bfc00578:	161207a4 	bne	s0,s2,bfc0240c <inst_error>
bfc0057c:	00000000 	nop
bfc00580:	3c08ecf1 	lui	t0,0xecf1
bfc00584:	3508b0c0 	ori	t0,t0,0xb0c0
bfc00588:	3409d4b4 	li	t1,0xd4b4
bfc0058c:	3910d4b4 	xori	s0,t0,0xd4b4
bfc00590:	3c12ecf1 	lui	s2,0xecf1
bfc00594:	36526474 	ori	s2,s2,0x6474
bfc00598:	1612079c 	bne	s0,s2,bfc0240c <inst_error>
bfc0059c:	00000000 	nop
bfc005a0:	3c0806f1 	lui	t0,0x6f1
bfc005a4:	3508fc80 	ori	t0,t0,0xfc80
bfc005a8:	3409c78b 	li	t1,0xc78b
bfc005ac:	3910c78b 	xori	s0,t0,0xc78b
bfc005b0:	3c1206f1 	lui	s2,0x6f1
bfc005b4:	36523b0b 	ori	s2,s2,0x3b0b
bfc005b8:	16120794 	bne	s0,s2,bfc0240c <inst_error>
bfc005bc:	00000000 	nop
bfc005c0:	3c084bd3 	lui	t0,0x4bd3
bfc005c4:	35088394 	ori	t0,t0,0x8394
bfc005c8:	3409d70a 	li	t1,0xd70a
bfc005cc:	3910d70a 	xori	s0,t0,0xd70a
bfc005d0:	3c124bd3 	lui	s2,0x4bd3
bfc005d4:	3652549e 	ori	s2,s2,0x549e
bfc005d8:	1612078c 	bne	s0,s2,bfc0240c <inst_error>
bfc005dc:	00000000 	nop
bfc005e0:	3c086ccb 	lui	t0,0x6ccb
bfc005e4:	350850d0 	ori	t0,t0,0x50d0
bfc005e8:	24092246 	li	t1,8774
bfc005ec:	39102246 	xori	s0,t0,0x2246
bfc005f0:	3c126ccb 	lui	s2,0x6ccb
bfc005f4:	36527296 	ori	s2,s2,0x7296
bfc005f8:	16120784 	bne	s0,s2,bfc0240c <inst_error>
bfc005fc:	00000000 	nop
bfc00600:	3c088569 	lui	t0,0x8569
bfc00604:	35089cc0 	ori	t0,t0,0x9cc0
bfc00608:	34099aa0 	li	t1,0x9aa0
bfc0060c:	39109aa0 	xori	s0,t0,0x9aa0
bfc00610:	3c128569 	lui	s2,0x8569
bfc00614:	36520660 	ori	s2,s2,0x660
bfc00618:	1612077c 	bne	s0,s2,bfc0240c <inst_error>
bfc0061c:	00000000 	nop
bfc00620:	3c08f02b 	lui	t0,0xf02b
bfc00624:	3508f6f4 	ori	t0,t0,0xf6f4
bfc00628:	3409a85c 	li	t1,0xa85c
bfc0062c:	3910a85c 	xori	s0,t0,0xa85c
bfc00630:	3c12f02b 	lui	s2,0xf02b
bfc00634:	36525ea8 	ori	s2,s2,0x5ea8
bfc00638:	16120774 	bne	s0,s2,bfc0240c <inst_error>
bfc0063c:	00000000 	nop
bfc00640:	3c08d9cf 	lui	t0,0xd9cf
bfc00644:	35087ecc 	ori	t0,t0,0x7ecc
bfc00648:	3409c5f8 	li	t1,0xc5f8
bfc0064c:	3910c5f8 	xori	s0,t0,0xc5f8
bfc00650:	3c12d9cf 	lui	s2,0xd9cf
bfc00654:	3652bb34 	ori	s2,s2,0xbb34
bfc00658:	1612076c 	bne	s0,s2,bfc0240c <inst_error>
bfc0065c:	00000000 	nop
bfc00660:	3c089fa2 	lui	t0,0x9fa2
bfc00664:	3508ec6c 	ori	t0,t0,0xec6c
bfc00668:	3409b808 	li	t1,0xb808
bfc0066c:	3910b808 	xori	s0,t0,0xb808
bfc00670:	3c129fa2 	lui	s2,0x9fa2
bfc00674:	36525464 	ori	s2,s2,0x5464
bfc00678:	16120764 	bne	s0,s2,bfc0240c <inst_error>
bfc0067c:	00000000 	nop
bfc00680:	3c08f40a 	lui	t0,0xf40a
bfc00684:	35087ab6 	ori	t0,t0,0x7ab6
bfc00688:	3409ace5 	li	t1,0xace5
bfc0068c:	3910ace5 	xori	s0,t0,0xace5
bfc00690:	3c12f40a 	lui	s2,0xf40a
bfc00694:	3652d653 	ori	s2,s2,0xd653
bfc00698:	1612075c 	bne	s0,s2,bfc0240c <inst_error>
bfc0069c:	00000000 	nop
bfc006a0:	3c08221f 	lui	t0,0x221f
bfc006a4:	3508169c 	ori	t0,t0,0x169c
bfc006a8:	24094a05 	li	t1,18949
bfc006ac:	39104a05 	xori	s0,t0,0x4a05
bfc006b0:	3c12221f 	lui	s2,0x221f
bfc006b4:	36525c99 	ori	s2,s2,0x5c99
bfc006b8:	16120754 	bne	s0,s2,bfc0240c <inst_error>
bfc006bc:	00000000 	nop
bfc006c0:	3c088bc9 	lui	t0,0x8bc9
bfc006c4:	35084c7c 	ori	t0,t0,0x4c7c
bfc006c8:	3409deef 	li	t1,0xdeef
bfc006cc:	3910deef 	xori	s0,t0,0xdeef
bfc006d0:	3c128bc9 	lui	s2,0x8bc9
bfc006d4:	36529293 	ori	s2,s2,0x9293
bfc006d8:	1612074c 	bne	s0,s2,bfc0240c <inst_error>
bfc006dc:	00000000 	nop
bfc006e0:	3c089f1b 	lui	t0,0x9f1b
bfc006e4:	3508301a 	ori	t0,t0,0x301a
bfc006e8:	340989ce 	li	t1,0x89ce
bfc006ec:	391089ce 	xori	s0,t0,0x89ce
bfc006f0:	3c129f1b 	lui	s2,0x9f1b
bfc006f4:	3652b9d4 	ori	s2,s2,0xb9d4
bfc006f8:	16120744 	bne	s0,s2,bfc0240c <inst_error>
bfc006fc:	00000000 	nop
bfc00700:	3c08bae4 	lui	t0,0xbae4
bfc00704:	35089c78 	ori	t0,t0,0x9c78
bfc00708:	3409efe7 	li	t1,0xefe7
bfc0070c:	3910efe7 	xori	s0,t0,0xefe7
bfc00710:	3c12bae4 	lui	s2,0xbae4
bfc00714:	3652739f 	ori	s2,s2,0x739f
bfc00718:	1612073c 	bne	s0,s2,bfc0240c <inst_error>
bfc0071c:	00000000 	nop
bfc00720:	3c0820c1 	lui	t0,0x20c1
bfc00724:	3508bee2 	ori	t0,t0,0xbee2
bfc00728:	24091975 	li	t1,6517
bfc0072c:	39101975 	xori	s0,t0,0x1975
bfc00730:	3c1220c1 	lui	s2,0x20c1
bfc00734:	3652a797 	ori	s2,s2,0xa797
bfc00738:	16120734 	bne	s0,s2,bfc0240c <inst_error>
bfc0073c:	00000000 	nop
bfc00740:	3c088719 	lui	t0,0x8719
bfc00744:	3508f46e 	ori	t0,t0,0xf46e
bfc00748:	24097c5e 	li	t1,31838
bfc0074c:	39107c5e 	xori	s0,t0,0x7c5e
bfc00750:	3c128719 	lui	s2,0x8719
bfc00754:	36528830 	ori	s2,s2,0x8830
bfc00758:	1612072c 	bne	s0,s2,bfc0240c <inst_error>
bfc0075c:	00000000 	nop
bfc00760:	3c088ee1 	lui	t0,0x8ee1
bfc00764:	350832b0 	ori	t0,t0,0x32b0
bfc00768:	24093013 	li	t1,12307
bfc0076c:	39103013 	xori	s0,t0,0x3013
bfc00770:	3c128ee1 	lui	s2,0x8ee1
bfc00774:	365202a3 	ori	s2,s2,0x2a3
bfc00778:	16120724 	bne	s0,s2,bfc0240c <inst_error>
bfc0077c:	00000000 	nop
bfc00780:	3c084876 	lui	t0,0x4876
bfc00784:	3508e8e0 	ori	t0,t0,0xe8e0
bfc00788:	34099895 	li	t1,0x9895
bfc0078c:	39109895 	xori	s0,t0,0x9895
bfc00790:	3c124876 	lui	s2,0x4876
bfc00794:	36527075 	ori	s2,s2,0x7075
bfc00798:	1612071c 	bne	s0,s2,bfc0240c <inst_error>
bfc0079c:	00000000 	nop
bfc007a0:	3c08a13c 	lui	t0,0xa13c
bfc007a4:	3508076b 	ori	t0,t0,0x76b
bfc007a8:	3409b428 	li	t1,0xb428
bfc007ac:	3910b428 	xori	s0,t0,0xb428
bfc007b0:	3c12a13c 	lui	s2,0xa13c
bfc007b4:	3652b343 	ori	s2,s2,0xb343
bfc007b8:	16120714 	bne	s0,s2,bfc0240c <inst_error>
bfc007bc:	00000000 	nop
bfc007c0:	3c08eb47 	lui	t0,0xeb47
bfc007c4:	3508bdb0 	ori	t0,t0,0xbdb0
bfc007c8:	24095dac 	li	t1,23980
bfc007cc:	39105dac 	xori	s0,t0,0x5dac
bfc007d0:	3c12eb47 	lui	s2,0xeb47
bfc007d4:	3652e01c 	ori	s2,s2,0xe01c
bfc007d8:	1612070c 	bne	s0,s2,bfc0240c <inst_error>
bfc007dc:	00000000 	nop
bfc007e0:	3c08a4d5 	lui	t0,0xa4d5
bfc007e4:	3508085e 	ori	t0,t0,0x85e
bfc007e8:	24090ad8 	li	t1,2776
bfc007ec:	39100ad8 	xori	s0,t0,0xad8
bfc007f0:	3c12a4d5 	lui	s2,0xa4d5
bfc007f4:	36520286 	ori	s2,s2,0x286
bfc007f8:	16120704 	bne	s0,s2,bfc0240c <inst_error>
bfc007fc:	00000000 	nop
bfc00800:	3c0808c5 	lui	t0,0x8c5
bfc00804:	3508015c 	ori	t0,t0,0x15c
bfc00808:	2409403e 	li	t1,16446
bfc0080c:	3910403e 	xori	s0,t0,0x403e
bfc00810:	3c1208c5 	lui	s2,0x8c5
bfc00814:	36524162 	ori	s2,s2,0x4162
bfc00818:	161206fc 	bne	s0,s2,bfc0240c <inst_error>
bfc0081c:	00000000 	nop
bfc00820:	3c08dc7f 	lui	t0,0xdc7f
bfc00824:	35084352 	ori	t0,t0,0x4352
bfc00828:	3409ab28 	li	t1,0xab28
bfc0082c:	3910ab28 	xori	s0,t0,0xab28
bfc00830:	3c12dc7f 	lui	s2,0xdc7f
bfc00834:	3652e87a 	ori	s2,s2,0xe87a
bfc00838:	161206f4 	bne	s0,s2,bfc0240c <inst_error>
bfc0083c:	00000000 	nop
bfc00840:	3c081b2f 	lui	t0,0x1b2f
bfc00844:	350816d0 	ori	t0,t0,0x16d0
bfc00848:	34098a30 	li	t1,0x8a30
bfc0084c:	39108a30 	xori	s0,t0,0x8a30
bfc00850:	3c121b2f 	lui	s2,0x1b2f
bfc00854:	36529ce0 	ori	s2,s2,0x9ce0
bfc00858:	161206ec 	bne	s0,s2,bfc0240c <inst_error>
bfc0085c:	00000000 	nop
bfc00860:	3c08bb07 	lui	t0,0xbb07
bfc00864:	3508d7ee 	ori	t0,t0,0xd7ee
bfc00868:	3409ac8c 	li	t1,0xac8c
bfc0086c:	3910ac8c 	xori	s0,t0,0xac8c
bfc00870:	3c12bb07 	lui	s2,0xbb07
bfc00874:	36527b62 	ori	s2,s2,0x7b62
bfc00878:	161206e4 	bne	s0,s2,bfc0240c <inst_error>
bfc0087c:	00000000 	nop
bfc00880:	3c0817ab 	lui	t0,0x17ab
bfc00884:	35085626 	ori	t0,t0,0x5626
bfc00888:	24093bbc 	li	t1,15292
bfc0088c:	39103bbc 	xori	s0,t0,0x3bbc
bfc00890:	3c1217ab 	lui	s2,0x17ab
bfc00894:	36526d9a 	ori	s2,s2,0x6d9a
bfc00898:	161206dc 	bne	s0,s2,bfc0240c <inst_error>
bfc0089c:	00000000 	nop
bfc008a0:	3c08e262 	lui	t0,0xe262
bfc008a4:	35080f20 	ori	t0,t0,0xf20
bfc008a8:	240960d2 	li	t1,24786
bfc008ac:	391060d2 	xori	s0,t0,0x60d2
bfc008b0:	3c12e262 	lui	s2,0xe262
bfc008b4:	36526ff2 	ori	s2,s2,0x6ff2
bfc008b8:	161206d4 	bne	s0,s2,bfc0240c <inst_error>
bfc008bc:	00000000 	nop
bfc008c0:	3c08a755 	lui	t0,0xa755
bfc008c4:	3508ccd8 	ori	t0,t0,0xccd8
bfc008c8:	340996a1 	li	t1,0x96a1
bfc008cc:	391096a1 	xori	s0,t0,0x96a1
bfc008d0:	3c12a755 	lui	s2,0xa755
bfc008d4:	36525a79 	ori	s2,s2,0x5a79
bfc008d8:	161206cc 	bne	s0,s2,bfc0240c <inst_error>
bfc008dc:	00000000 	nop
bfc008e0:	3c08d8d4 	lui	t0,0xd8d4
bfc008e4:	35089d01 	ori	t0,t0,0x9d01
bfc008e8:	3409f310 	li	t1,0xf310
bfc008ec:	3910f310 	xori	s0,t0,0xf310
bfc008f0:	3c12d8d4 	lui	s2,0xd8d4
bfc008f4:	36526e11 	ori	s2,s2,0x6e11
bfc008f8:	161206c4 	bne	s0,s2,bfc0240c <inst_error>
bfc008fc:	00000000 	nop
bfc00900:	3c08fea7 	lui	t0,0xfea7
bfc00904:	3508acb8 	ori	t0,t0,0xacb8
bfc00908:	24096c96 	li	t1,27798
bfc0090c:	39106c96 	xori	s0,t0,0x6c96
bfc00910:	3c12fea7 	lui	s2,0xfea7
bfc00914:	3652c02e 	ori	s2,s2,0xc02e
bfc00918:	161206bc 	bne	s0,s2,bfc0240c <inst_error>
bfc0091c:	00000000 	nop
bfc00920:	3c08fe6d 	lui	t0,0xfe6d
bfc00924:	35086cc0 	ori	t0,t0,0x6cc0
bfc00928:	24092a44 	li	t1,10820
bfc0092c:	39102a44 	xori	s0,t0,0x2a44
bfc00930:	3c12fe6d 	lui	s2,0xfe6d
bfc00934:	36524684 	ori	s2,s2,0x4684
bfc00938:	161206b4 	bne	s0,s2,bfc0240c <inst_error>
bfc0093c:	00000000 	nop
bfc00940:	3c080e8d 	lui	t0,0xe8d
bfc00944:	3508bac0 	ori	t0,t0,0xbac0
bfc00948:	240958de 	li	t1,22750
bfc0094c:	391058de 	xori	s0,t0,0x58de
bfc00950:	3c120e8d 	lui	s2,0xe8d
bfc00954:	3652e21e 	ori	s2,s2,0xe21e
bfc00958:	161206ac 	bne	s0,s2,bfc0240c <inst_error>
bfc0095c:	00000000 	nop
bfc00960:	3c08ab40 	lui	t0,0xab40
bfc00964:	35080ea0 	ori	t0,t0,0xea0
bfc00968:	3409c78a 	li	t1,0xc78a
bfc0096c:	3910c78a 	xori	s0,t0,0xc78a
bfc00970:	3c12ab40 	lui	s2,0xab40
bfc00974:	3652c92a 	ori	s2,s2,0xc92a
bfc00978:	161206a4 	bne	s0,s2,bfc0240c <inst_error>
bfc0097c:	00000000 	nop
bfc00980:	3c086173 	lui	t0,0x6173
bfc00984:	35086ae4 	ori	t0,t0,0x6ae4
bfc00988:	240914c2 	li	t1,5314
bfc0098c:	391014c2 	xori	s0,t0,0x14c2
bfc00990:	3c126173 	lui	s2,0x6173
bfc00994:	36527e26 	ori	s2,s2,0x7e26
bfc00998:	1612069c 	bne	s0,s2,bfc0240c <inst_error>
bfc0099c:	00000000 	nop
bfc009a0:	3c082c83 	lui	t0,0x2c83
bfc009a4:	35082410 	ori	t0,t0,0x2410
bfc009a8:	24090d4e 	li	t1,3406
bfc009ac:	39100d4e 	xori	s0,t0,0xd4e
bfc009b0:	3c122c83 	lui	s2,0x2c83
bfc009b4:	3652295e 	ori	s2,s2,0x295e
bfc009b8:	16120694 	bne	s0,s2,bfc0240c <inst_error>
bfc009bc:	00000000 	nop
bfc009c0:	3c081a39 	lui	t0,0x1a39
bfc009c4:	3508efe0 	ori	t0,t0,0xefe0
bfc009c8:	3409e73c 	li	t1,0xe73c
bfc009cc:	3910e73c 	xori	s0,t0,0xe73c
bfc009d0:	3c121a39 	lui	s2,0x1a39
bfc009d4:	365208dc 	ori	s2,s2,0x8dc
bfc009d8:	1612068c 	bne	s0,s2,bfc0240c <inst_error>
bfc009dc:	00000000 	nop
bfc009e0:	3c08c879 	lui	t0,0xc879
bfc009e4:	35083d1b 	ori	t0,t0,0x3d1b
bfc009e8:	24092c98 	li	t1,11416
bfc009ec:	39102c98 	xori	s0,t0,0x2c98
bfc009f0:	3c12c879 	lui	s2,0xc879
bfc009f4:	36521183 	ori	s2,s2,0x1183
bfc009f8:	16120684 	bne	s0,s2,bfc0240c <inst_error>
bfc009fc:	00000000 	nop
bfc00a00:	3c08bfc7 	lui	t0,0xbfc7
bfc00a04:	3508c7ce 	ori	t0,t0,0xc7ce
bfc00a08:	3409921a 	li	t1,0x921a
bfc00a0c:	3910921a 	xori	s0,t0,0x921a
bfc00a10:	3c12bfc7 	lui	s2,0xbfc7
bfc00a14:	365255d4 	ori	s2,s2,0x55d4
bfc00a18:	1612067c 	bne	s0,s2,bfc0240c <inst_error>
bfc00a1c:	00000000 	nop
bfc00a20:	3c087fde 	lui	t0,0x7fde
bfc00a24:	35087f40 	ori	t0,t0,0x7f40
bfc00a28:	3409fce7 	li	t1,0xfce7
bfc00a2c:	3910fce7 	xori	s0,t0,0xfce7
bfc00a30:	3c127fde 	lui	s2,0x7fde
bfc00a34:	365283a7 	ori	s2,s2,0x83a7
bfc00a38:	16120674 	bne	s0,s2,bfc0240c <inst_error>
bfc00a3c:	00000000 	nop
bfc00a40:	3c081b06 	lui	t0,0x1b06
bfc00a44:	35089f4d 	ori	t0,t0,0x9f4d
bfc00a48:	3409fea8 	li	t1,0xfea8
bfc00a4c:	3910fea8 	xori	s0,t0,0xfea8
bfc00a50:	3c121b06 	lui	s2,0x1b06
bfc00a54:	365261e5 	ori	s2,s2,0x61e5
bfc00a58:	1612066c 	bne	s0,s2,bfc0240c <inst_error>
bfc00a5c:	00000000 	nop
bfc00a60:	3c0854b7 	lui	t0,0x54b7
bfc00a64:	35083140 	ori	t0,t0,0x3140
bfc00a68:	24091b8a 	li	t1,7050
bfc00a6c:	39101b8a 	xori	s0,t0,0x1b8a
bfc00a70:	3c1254b7 	lui	s2,0x54b7
bfc00a74:	36522aca 	ori	s2,s2,0x2aca
bfc00a78:	16120664 	bne	s0,s2,bfc0240c <inst_error>
bfc00a7c:	00000000 	nop
bfc00a80:	3c084430 	lui	t0,0x4430
bfc00a84:	3508bfbe 	ori	t0,t0,0xbfbe
bfc00a88:	240967e3 	li	t1,26595
bfc00a8c:	391067e3 	xori	s0,t0,0x67e3
bfc00a90:	3c124430 	lui	s2,0x4430
bfc00a94:	3652d85d 	ori	s2,s2,0xd85d
bfc00a98:	1612065c 	bne	s0,s2,bfc0240c <inst_error>
bfc00a9c:	00000000 	nop
bfc00aa0:	3c089ccd 	lui	t0,0x9ccd
bfc00aa4:	35085ae2 	ori	t0,t0,0x5ae2
bfc00aa8:	240907e0 	li	t1,2016
bfc00aac:	391007e0 	xori	s0,t0,0x7e0
bfc00ab0:	3c129ccd 	lui	s2,0x9ccd
bfc00ab4:	36525d02 	ori	s2,s2,0x5d02
bfc00ab8:	16120654 	bne	s0,s2,bfc0240c <inst_error>
bfc00abc:	00000000 	nop
bfc00ac0:	3c080682 	lui	t0,0x682
bfc00ac4:	3508c23a 	ori	t0,t0,0xc23a
bfc00ac8:	24090bde 	li	t1,3038
bfc00acc:	39100bde 	xori	s0,t0,0xbde
bfc00ad0:	3c120682 	lui	s2,0x682
bfc00ad4:	3652c9e4 	ori	s2,s2,0xc9e4
bfc00ad8:	1612064c 	bne	s0,s2,bfc0240c <inst_error>
bfc00adc:	00000000 	nop
bfc00ae0:	3c084351 	lui	t0,0x4351
bfc00ae4:	350811ec 	ori	t0,t0,0x11ec
bfc00ae8:	2409562d 	li	t1,22061
bfc00aec:	3910562d 	xori	s0,t0,0x562d
bfc00af0:	3c124351 	lui	s2,0x4351
bfc00af4:	365247c1 	ori	s2,s2,0x47c1
bfc00af8:	16120644 	bne	s0,s2,bfc0240c <inst_error>
bfc00afc:	00000000 	nop
bfc00b00:	3c08c694 	lui	t0,0xc694
bfc00b04:	3508f6f0 	ori	t0,t0,0xf6f0
bfc00b08:	3409d69c 	li	t1,0xd69c
bfc00b0c:	3910d69c 	xori	s0,t0,0xd69c
bfc00b10:	3c12c694 	lui	s2,0xc694
bfc00b14:	3652206c 	ori	s2,s2,0x206c
bfc00b18:	1612063c 	bne	s0,s2,bfc0240c <inst_error>
bfc00b1c:	00000000 	nop
bfc00b20:	3c0825fe 	lui	t0,0x25fe
bfc00b24:	35080d60 	ori	t0,t0,0xd60
bfc00b28:	24095a06 	li	t1,23046
bfc00b2c:	39105a06 	xori	s0,t0,0x5a06
bfc00b30:	3c1225fe 	lui	s2,0x25fe
bfc00b34:	36525766 	ori	s2,s2,0x5766
bfc00b38:	16120634 	bne	s0,s2,bfc0240c <inst_error>
bfc00b3c:	00000000 	nop
bfc00b40:	3c08340d 	lui	t0,0x340d
bfc00b44:	3508e130 	ori	t0,t0,0xe130
bfc00b48:	24094025 	li	t1,16421
bfc00b4c:	39104025 	xori	s0,t0,0x4025
bfc00b50:	3c12340d 	lui	s2,0x340d
bfc00b54:	3652a115 	ori	s2,s2,0xa115
bfc00b58:	1612062c 	bne	s0,s2,bfc0240c <inst_error>
bfc00b5c:	00000000 	nop
bfc00b60:	3c0827b0 	lui	t0,0x27b0
bfc00b64:	3508e95c 	ori	t0,t0,0xe95c
bfc00b68:	240952c0 	li	t1,21184
bfc00b6c:	391052c0 	xori	s0,t0,0x52c0
bfc00b70:	3c1227b0 	lui	s2,0x27b0
bfc00b74:	3652bb9c 	ori	s2,s2,0xbb9c
bfc00b78:	16120624 	bne	s0,s2,bfc0240c <inst_error>
bfc00b7c:	00000000 	nop
bfc00b80:	3c081083 	lui	t0,0x1083
bfc00b84:	3508e8f8 	ori	t0,t0,0xe8f8
bfc00b88:	2409429a 	li	t1,17050
bfc00b8c:	3910429a 	xori	s0,t0,0x429a
bfc00b90:	3c121083 	lui	s2,0x1083
bfc00b94:	3652aa62 	ori	s2,s2,0xaa62
bfc00b98:	1612061c 	bne	s0,s2,bfc0240c <inst_error>
bfc00b9c:	00000000 	nop
bfc00ba0:	3c086d9a 	lui	t0,0x6d9a
bfc00ba4:	350863c8 	ori	t0,t0,0x63c8
bfc00ba8:	340985a0 	li	t1,0x85a0
bfc00bac:	391085a0 	xori	s0,t0,0x85a0
bfc00bb0:	3c126d9a 	lui	s2,0x6d9a
bfc00bb4:	3652e668 	ori	s2,s2,0xe668
bfc00bb8:	16120614 	bne	s0,s2,bfc0240c <inst_error>
bfc00bbc:	00000000 	nop
bfc00bc0:	3c08e747 	lui	t0,0xe747
bfc00bc4:	3508d940 	ori	t0,t0,0xd940
bfc00bc8:	2409688e 	li	t1,26766
bfc00bcc:	3910688e 	xori	s0,t0,0x688e
bfc00bd0:	3c12e747 	lui	s2,0xe747
bfc00bd4:	3652b1ce 	ori	s2,s2,0xb1ce
bfc00bd8:	1612060c 	bne	s0,s2,bfc0240c <inst_error>
bfc00bdc:	00000000 	nop
bfc00be0:	3c08820f 	lui	t0,0x820f
bfc00be4:	3508f0a0 	ori	t0,t0,0xf0a0
bfc00be8:	24091514 	li	t1,5396
bfc00bec:	39101514 	xori	s0,t0,0x1514
bfc00bf0:	3c12820f 	lui	s2,0x820f
bfc00bf4:	3652e5b4 	ori	s2,s2,0xe5b4
bfc00bf8:	16120604 	bne	s0,s2,bfc0240c <inst_error>
bfc00bfc:	00000000 	nop
bfc00c00:	3c08bd08 	lui	t0,0xbd08
bfc00c04:	3508a2d0 	ori	t0,t0,0xa2d0
bfc00c08:	3409c6aa 	li	t1,0xc6aa
bfc00c0c:	3910c6aa 	xori	s0,t0,0xc6aa
bfc00c10:	3c12bd08 	lui	s2,0xbd08
bfc00c14:	3652647a 	ori	s2,s2,0x647a
bfc00c18:	161205fc 	bne	s0,s2,bfc0240c <inst_error>
bfc00c1c:	00000000 	nop
bfc00c20:	3c08951b 	lui	t0,0x951b
bfc00c24:	3508bfac 	ori	t0,t0,0xbfac
bfc00c28:	34098f9c 	li	t1,0x8f9c
bfc00c2c:	39108f9c 	xori	s0,t0,0x8f9c
bfc00c30:	3c12951b 	lui	s2,0x951b
bfc00c34:	36523030 	ori	s2,s2,0x3030
bfc00c38:	161205f4 	bne	s0,s2,bfc0240c <inst_error>
bfc00c3c:	00000000 	nop
bfc00c40:	3c08cb4a 	lui	t0,0xcb4a
bfc00c44:	35082fe5 	ori	t0,t0,0x2fe5
bfc00c48:	3409d2bd 	li	t1,0xd2bd
bfc00c4c:	3910d2bd 	xori	s0,t0,0xd2bd
bfc00c50:	3c12cb4a 	lui	s2,0xcb4a
bfc00c54:	3652fd58 	ori	s2,s2,0xfd58
bfc00c58:	161205ec 	bne	s0,s2,bfc0240c <inst_error>
bfc00c5c:	00000000 	nop
bfc00c60:	3c084cac 	lui	t0,0x4cac
bfc00c64:	35085398 	ori	t0,t0,0x5398
bfc00c68:	24095a7a 	li	t1,23162
bfc00c6c:	39105a7a 	xori	s0,t0,0x5a7a
bfc00c70:	3c124cac 	lui	s2,0x4cac
bfc00c74:	365209e2 	ori	s2,s2,0x9e2
bfc00c78:	161205e4 	bne	s0,s2,bfc0240c <inst_error>
bfc00c7c:	00000000 	nop
bfc00c80:	3c0852d7 	lui	t0,0x52d7
bfc00c84:	3508c970 	ori	t0,t0,0xc970
bfc00c88:	340981c2 	li	t1,0x81c2
bfc00c8c:	391081c2 	xori	s0,t0,0x81c2
bfc00c90:	3c1252d7 	lui	s2,0x52d7
bfc00c94:	365248b2 	ori	s2,s2,0x48b2
bfc00c98:	161205dc 	bne	s0,s2,bfc0240c <inst_error>
bfc00c9c:	00000000 	nop
bfc00ca0:	3c0848d5 	lui	t0,0x48d5
bfc00ca4:	3508cb40 	ori	t0,t0,0xcb40
bfc00ca8:	24094800 	li	t1,18432
bfc00cac:	39104800 	xori	s0,t0,0x4800
bfc00cb0:	3c1248d5 	lui	s2,0x48d5
bfc00cb4:	36528340 	ori	s2,s2,0x8340
bfc00cb8:	161205d4 	bne	s0,s2,bfc0240c <inst_error>
bfc00cbc:	00000000 	nop
bfc00cc0:	3c08b627 	lui	t0,0xb627
bfc00cc4:	35087340 	ori	t0,t0,0x7340
bfc00cc8:	34099855 	li	t1,0x9855
bfc00ccc:	39109855 	xori	s0,t0,0x9855
bfc00cd0:	3c12b627 	lui	s2,0xb627
bfc00cd4:	3652eb15 	ori	s2,s2,0xeb15
bfc00cd8:	161205cc 	bne	s0,s2,bfc0240c <inst_error>
bfc00cdc:	00000000 	nop
bfc00ce0:	3c081c5a 	lui	t0,0x1c5a
bfc00ce4:	35085198 	ori	t0,t0,0x5198
bfc00ce8:	240968b3 	li	t1,26803
bfc00cec:	391068b3 	xori	s0,t0,0x68b3
bfc00cf0:	3c121c5a 	lui	s2,0x1c5a
bfc00cf4:	3652392b 	ori	s2,s2,0x392b
bfc00cf8:	161205c4 	bne	s0,s2,bfc0240c <inst_error>
bfc00cfc:	00000000 	nop
bfc00d00:	3c083ec2 	lui	t0,0x3ec2
bfc00d04:	3508c29c 	ori	t0,t0,0xc29c
bfc00d08:	3409cc18 	li	t1,0xcc18
bfc00d0c:	3910cc18 	xori	s0,t0,0xcc18
bfc00d10:	3c123ec2 	lui	s2,0x3ec2
bfc00d14:	36520e84 	ori	s2,s2,0xe84
bfc00d18:	161205bc 	bne	s0,s2,bfc0240c <inst_error>
bfc00d1c:	00000000 	nop
bfc00d20:	3c084f93 	lui	t0,0x4f93
bfc00d24:	3508d6e2 	ori	t0,t0,0xd6e2
bfc00d28:	240932b0 	li	t1,12976
bfc00d2c:	391032b0 	xori	s0,t0,0x32b0
bfc00d30:	3c124f93 	lui	s2,0x4f93
bfc00d34:	3652e452 	ori	s2,s2,0xe452
bfc00d38:	161205b4 	bne	s0,s2,bfc0240c <inst_error>
bfc00d3c:	00000000 	nop
bfc00d40:	3c0835f7 	lui	t0,0x35f7
bfc00d44:	3508338b 	ori	t0,t0,0x338b
bfc00d48:	240906fc 	li	t1,1788
bfc00d4c:	391006fc 	xori	s0,t0,0x6fc
bfc00d50:	3c1235f7 	lui	s2,0x35f7
bfc00d54:	36523577 	ori	s2,s2,0x3577
bfc00d58:	161205ac 	bne	s0,s2,bfc0240c <inst_error>
bfc00d5c:	00000000 	nop
bfc00d60:	3c087d96 	lui	t0,0x7d96
bfc00d64:	3508e6a0 	ori	t0,t0,0xe6a0
bfc00d68:	340989d4 	li	t1,0x89d4
bfc00d6c:	391089d4 	xori	s0,t0,0x89d4
bfc00d70:	3c127d96 	lui	s2,0x7d96
bfc00d74:	36526f74 	ori	s2,s2,0x6f74
bfc00d78:	161205a4 	bne	s0,s2,bfc0240c <inst_error>
bfc00d7c:	00000000 	nop
bfc00d80:	3c08241f 	lui	t0,0x241f
bfc00d84:	35088e98 	ori	t0,t0,0x8e98
bfc00d88:	24090f7a 	li	t1,3962
bfc00d8c:	39100f7a 	xori	s0,t0,0xf7a
bfc00d90:	3c12241f 	lui	s2,0x241f
bfc00d94:	365281e2 	ori	s2,s2,0x81e2
bfc00d98:	1612059c 	bne	s0,s2,bfc0240c <inst_error>
bfc00d9c:	00000000 	nop
bfc00da0:	3c086448 	lui	t0,0x6448
bfc00da4:	3508e8d0 	ori	t0,t0,0xe8d0
bfc00da8:	3409e78b 	li	t1,0xe78b
bfc00dac:	3910e78b 	xori	s0,t0,0xe78b
bfc00db0:	3c126448 	lui	s2,0x6448
bfc00db4:	36520f5b 	ori	s2,s2,0xf5b
bfc00db8:	16120594 	bne	s0,s2,bfc0240c <inst_error>
bfc00dbc:	00000000 	nop
bfc00dc0:	3c088e72 	lui	t0,0x8e72
bfc00dc4:	3508acb4 	ori	t0,t0,0xacb4
bfc00dc8:	240968e8 	li	t1,26856
bfc00dcc:	391068e8 	xori	s0,t0,0x68e8
bfc00dd0:	3c128e72 	lui	s2,0x8e72
bfc00dd4:	3652c45c 	ori	s2,s2,0xc45c
bfc00dd8:	1612058c 	bne	s0,s2,bfc0240c <inst_error>
bfc00ddc:	00000000 	nop
bfc00de0:	3c081675 	lui	t0,0x1675
bfc00de4:	3508bfc8 	ori	t0,t0,0xbfc8
bfc00de8:	3409a6e3 	li	t1,0xa6e3
bfc00dec:	3910a6e3 	xori	s0,t0,0xa6e3
bfc00df0:	3c121675 	lui	s2,0x1675
bfc00df4:	3652192b 	ori	s2,s2,0x192b
bfc00df8:	16120584 	bne	s0,s2,bfc0240c <inst_error>
bfc00dfc:	00000000 	nop
bfc00e00:	3c08b6c0 	lui	t0,0xb6c0
bfc00e04:	3508b746 	ori	t0,t0,0xb746
bfc00e08:	24090aef 	li	t1,2799
bfc00e0c:	39100aef 	xori	s0,t0,0xaef
bfc00e10:	3c12b6c0 	lui	s2,0xb6c0
bfc00e14:	3652bda9 	ori	s2,s2,0xbda9
bfc00e18:	1612057c 	bne	s0,s2,bfc0240c <inst_error>
bfc00e1c:	00000000 	nop
bfc00e20:	3c08d65d 	lui	t0,0xd65d
bfc00e24:	35083a44 	ori	t0,t0,0x3a44
bfc00e28:	24091116 	li	t1,4374
bfc00e2c:	39101116 	xori	s0,t0,0x1116
bfc00e30:	3c12d65d 	lui	s2,0xd65d
bfc00e34:	36522b52 	ori	s2,s2,0x2b52
bfc00e38:	16120574 	bne	s0,s2,bfc0240c <inst_error>
bfc00e3c:	00000000 	nop
bfc00e40:	3c086312 	lui	t0,0x6312
bfc00e44:	3508b7e0 	ori	t0,t0,0xb7e0
bfc00e48:	34099ee0 	li	t1,0x9ee0
bfc00e4c:	39109ee0 	xori	s0,t0,0x9ee0
bfc00e50:	3c126312 	lui	s2,0x6312
bfc00e54:	36522900 	ori	s2,s2,0x2900
bfc00e58:	1612056c 	bne	s0,s2,bfc0240c <inst_error>
bfc00e5c:	00000000 	nop
bfc00e60:	3c084d2d 	lui	t0,0x4d2d
bfc00e64:	35080e7c 	ori	t0,t0,0xe7c
bfc00e68:	3409a9e6 	li	t1,0xa9e6
bfc00e6c:	3910a9e6 	xori	s0,t0,0xa9e6
bfc00e70:	3c124d2d 	lui	s2,0x4d2d
bfc00e74:	3652a79a 	ori	s2,s2,0xa79a
bfc00e78:	16120564 	bne	s0,s2,bfc0240c <inst_error>
bfc00e7c:	00000000 	nop
bfc00e80:	3c0869cc 	lui	t0,0x69cc
bfc00e84:	35088da4 	ori	t0,t0,0x8da4
bfc00e88:	24092045 	li	t1,8261
bfc00e8c:	39102045 	xori	s0,t0,0x2045
bfc00e90:	3c1269cc 	lui	s2,0x69cc
bfc00e94:	3652ade1 	ori	s2,s2,0xade1
bfc00e98:	1612055c 	bne	s0,s2,bfc0240c <inst_error>
bfc00e9c:	00000000 	nop
bfc00ea0:	3c0877c9 	lui	t0,0x77c9
bfc00ea4:	35086582 	ori	t0,t0,0x6582
bfc00ea8:	2409037c 	li	t1,892
bfc00eac:	3910037c 	xori	s0,t0,0x37c
bfc00eb0:	3c1277c9 	lui	s2,0x77c9
bfc00eb4:	365266fe 	ori	s2,s2,0x66fe
bfc00eb8:	16120554 	bne	s0,s2,bfc0240c <inst_error>
bfc00ebc:	00000000 	nop
bfc00ec0:	3c085d88 	lui	t0,0x5d88
bfc00ec4:	3508d5c0 	ori	t0,t0,0xd5c0
bfc00ec8:	3409b5a0 	li	t1,0xb5a0
bfc00ecc:	3910b5a0 	xori	s0,t0,0xb5a0
bfc00ed0:	3c125d88 	lui	s2,0x5d88
bfc00ed4:	36526060 	ori	s2,s2,0x6060
bfc00ed8:	1612054c 	bne	s0,s2,bfc0240c <inst_error>
bfc00edc:	00000000 	nop
bfc00ee0:	3c089519 	lui	t0,0x9519
bfc00ee4:	35081d82 	ori	t0,t0,0x1d82
bfc00ee8:	3409eba8 	li	t1,0xeba8
bfc00eec:	3910eba8 	xori	s0,t0,0xeba8
bfc00ef0:	3c129519 	lui	s2,0x9519
bfc00ef4:	3652f62a 	ori	s2,s2,0xf62a
bfc00ef8:	16120544 	bne	s0,s2,bfc0240c <inst_error>
bfc00efc:	00000000 	nop
bfc00f00:	3c08a8e3 	lui	t0,0xa8e3
bfc00f04:	3508fae0 	ori	t0,t0,0xfae0
bfc00f08:	24091473 	li	t1,5235
bfc00f0c:	39101473 	xori	s0,t0,0x1473
bfc00f10:	3c12a8e3 	lui	s2,0xa8e3
bfc00f14:	3652ee93 	ori	s2,s2,0xee93
bfc00f18:	1612053c 	bne	s0,s2,bfc0240c <inst_error>
bfc00f1c:	00000000 	nop
bfc00f20:	3c084b89 	lui	t0,0x4b89
bfc00f24:	35080a92 	ori	t0,t0,0xa92
bfc00f28:	240937e6 	li	t1,14310
bfc00f2c:	391037e6 	xori	s0,t0,0x37e6
bfc00f30:	3c124b89 	lui	s2,0x4b89
bfc00f34:	36523d74 	ori	s2,s2,0x3d74
bfc00f38:	16120534 	bne	s0,s2,bfc0240c <inst_error>
bfc00f3c:	00000000 	nop
bfc00f40:	3c084f16 	lui	t0,0x4f16
bfc00f44:	3508942d 	ori	t0,t0,0x942d
bfc00f48:	3409caff 	li	t1,0xcaff
bfc00f4c:	3910caff 	xori	s0,t0,0xcaff
bfc00f50:	3c124f16 	lui	s2,0x4f16
bfc00f54:	36525ed2 	ori	s2,s2,0x5ed2
bfc00f58:	1612052c 	bne	s0,s2,bfc0240c <inst_error>
bfc00f5c:	00000000 	nop
bfc00f60:	3c087651 	lui	t0,0x7651
bfc00f64:	3508e248 	ori	t0,t0,0xe248
bfc00f68:	24096a30 	li	t1,27184
bfc00f6c:	39106a30 	xori	s0,t0,0x6a30
bfc00f70:	3c127651 	lui	s2,0x7651
bfc00f74:	36528878 	ori	s2,s2,0x8878
bfc00f78:	16120524 	bne	s0,s2,bfc0240c <inst_error>
bfc00f7c:	00000000 	nop
bfc00f80:	3c08d5aa 	lui	t0,0xd5aa
bfc00f84:	3508e6f8 	ori	t0,t0,0xe6f8
bfc00f88:	24095e5a 	li	t1,24154
bfc00f8c:	39105e5a 	xori	s0,t0,0x5e5a
bfc00f90:	3c12d5aa 	lui	s2,0xd5aa
bfc00f94:	3652b8a2 	ori	s2,s2,0xb8a2
bfc00f98:	1612051c 	bne	s0,s2,bfc0240c <inst_error>
bfc00f9c:	00000000 	nop
bfc00fa0:	3c084c4f 	lui	t0,0x4c4f
bfc00fa4:	3508f410 	ori	t0,t0,0xf410
bfc00fa8:	24090e00 	li	t1,3584
bfc00fac:	39100e00 	xori	s0,t0,0xe00
bfc00fb0:	3c124c4f 	lui	s2,0x4c4f
bfc00fb4:	3652fa10 	ori	s2,s2,0xfa10
bfc00fb8:	16120514 	bne	s0,s2,bfc0240c <inst_error>
bfc00fbc:	00000000 	nop
bfc00fc0:	3c0885a5 	lui	t0,0x85a5
bfc00fc4:	350810c8 	ori	t0,t0,0x10c8
bfc00fc8:	3409bb58 	li	t1,0xbb58
bfc00fcc:	3910bb58 	xori	s0,t0,0xbb58
bfc00fd0:	3c1285a5 	lui	s2,0x85a5
bfc00fd4:	3652ab90 	ori	s2,s2,0xab90
bfc00fd8:	1612050c 	bne	s0,s2,bfc0240c <inst_error>
bfc00fdc:	00000000 	nop
bfc00fe0:	3c08bded 	lui	t0,0xbded
bfc00fe4:	35082e10 	ori	t0,t0,0x2e10
bfc00fe8:	240919f0 	li	t1,6640
bfc00fec:	391019f0 	xori	s0,t0,0x19f0
bfc00ff0:	3c12bded 	lui	s2,0xbded
bfc00ff4:	365237e0 	ori	s2,s2,0x37e0
bfc00ff8:	16120504 	bne	s0,s2,bfc0240c <inst_error>
bfc00ffc:	00000000 	nop
bfc01000:	3c081b77 	lui	t0,0x1b77
bfc01004:	35081d7c 	ori	t0,t0,0x1d7c
bfc01008:	24097f09 	li	t1,32521
bfc0100c:	39107f09 	xori	s0,t0,0x7f09
bfc01010:	3c121b77 	lui	s2,0x1b77
bfc01014:	36526275 	ori	s2,s2,0x6275
bfc01018:	161204fc 	bne	s0,s2,bfc0240c <inst_error>
bfc0101c:	00000000 	nop
bfc01020:	3c086135 	lui	t0,0x6135
bfc01024:	35080040 	ori	t0,t0,0x40
bfc01028:	3409cb6d 	li	t1,0xcb6d
bfc0102c:	3910cb6d 	xori	s0,t0,0xcb6d
bfc01030:	3c126135 	lui	s2,0x6135
bfc01034:	3652cb2d 	ori	s2,s2,0xcb2d
bfc01038:	161204f4 	bne	s0,s2,bfc0240c <inst_error>
bfc0103c:	00000000 	nop
bfc01040:	3c08d8b2 	lui	t0,0xd8b2
bfc01044:	35082e76 	ori	t0,t0,0x2e76
bfc01048:	24091227 	li	t1,4647
bfc0104c:	39101227 	xori	s0,t0,0x1227
bfc01050:	3c12d8b2 	lui	s2,0xd8b2
bfc01054:	36523c51 	ori	s2,s2,0x3c51
bfc01058:	161204ec 	bne	s0,s2,bfc0240c <inst_error>
bfc0105c:	00000000 	nop
bfc01060:	3c081077 	lui	t0,0x1077
bfc01064:	3508f310 	ori	t0,t0,0xf310
bfc01068:	24091bf8 	li	t1,7160
bfc0106c:	39101bf8 	xori	s0,t0,0x1bf8
bfc01070:	3c121077 	lui	s2,0x1077
bfc01074:	3652e8e8 	ori	s2,s2,0xe8e8
bfc01078:	161204e4 	bne	s0,s2,bfc0240c <inst_error>
bfc0107c:	00000000 	nop
bfc01080:	3c084090 	lui	t0,0x4090
bfc01084:	35087e16 	ori	t0,t0,0x7e16
bfc01088:	3409bc7c 	li	t1,0xbc7c
bfc0108c:	3910bc7c 	xori	s0,t0,0xbc7c
bfc01090:	3c124090 	lui	s2,0x4090
bfc01094:	3652c26a 	ori	s2,s2,0xc26a
bfc01098:	161204dc 	bne	s0,s2,bfc0240c <inst_error>
bfc0109c:	00000000 	nop
bfc010a0:	3c080180 	lui	t0,0x180
bfc010a4:	350899e0 	ori	t0,t0,0x99e0
bfc010a8:	3409bfaa 	li	t1,0xbfaa
bfc010ac:	3910bfaa 	xori	s0,t0,0xbfaa
bfc010b0:	3c120180 	lui	s2,0x180
bfc010b4:	3652264a 	ori	s2,s2,0x264a
bfc010b8:	161204d4 	bne	s0,s2,bfc0240c <inst_error>
bfc010bc:	00000000 	nop
bfc010c0:	3c08c929 	lui	t0,0xc929
bfc010c4:	3508a3e2 	ori	t0,t0,0xa3e2
bfc010c8:	3409d14a 	li	t1,0xd14a
bfc010cc:	3910d14a 	xori	s0,t0,0xd14a
bfc010d0:	3c12c929 	lui	s2,0xc929
bfc010d4:	365272a8 	ori	s2,s2,0x72a8
bfc010d8:	161204cc 	bne	s0,s2,bfc0240c <inst_error>
bfc010dc:	00000000 	nop
bfc010e0:	3c08b323 	lui	t0,0xb323
bfc010e4:	35084f60 	ori	t0,t0,0x4f60
bfc010e8:	3409ffa5 	li	t1,0xffa5
bfc010ec:	3910ffa5 	xori	s0,t0,0xffa5
bfc010f0:	3c12b323 	lui	s2,0xb323
bfc010f4:	3652b0c5 	ori	s2,s2,0xb0c5
bfc010f8:	161204c4 	bne	s0,s2,bfc0240c <inst_error>
bfc010fc:	00000000 	nop
bfc01100:	3c084caf 	lui	t0,0x4caf
bfc01104:	35085120 	ori	t0,t0,0x5120
bfc01108:	24091101 	li	t1,4353
bfc0110c:	39101101 	xori	s0,t0,0x1101
bfc01110:	3c124caf 	lui	s2,0x4caf
bfc01114:	36524021 	ori	s2,s2,0x4021
bfc01118:	161204bc 	bne	s0,s2,bfc0240c <inst_error>
bfc0111c:	00000000 	nop
bfc01120:	3c083d9d 	lui	t0,0x3d9d
bfc01124:	35087798 	ori	t0,t0,0x7798
bfc01128:	3409e6a3 	li	t1,0xe6a3
bfc0112c:	3910e6a3 	xori	s0,t0,0xe6a3
bfc01130:	3c123d9d 	lui	s2,0x3d9d
bfc01134:	3652913b 	ori	s2,s2,0x913b
bfc01138:	161204b4 	bne	s0,s2,bfc0240c <inst_error>
bfc0113c:	00000000 	nop
bfc01140:	3c087b3b 	lui	t0,0x7b3b
bfc01144:	3508ec00 	ori	t0,t0,0xec00
bfc01148:	24090780 	li	t1,1920
bfc0114c:	39100780 	xori	s0,t0,0x780
bfc01150:	3c127b3b 	lui	s2,0x7b3b
bfc01154:	3652eb80 	ori	s2,s2,0xeb80
bfc01158:	161204ac 	bne	s0,s2,bfc0240c <inst_error>
bfc0115c:	00000000 	nop
bfc01160:	3c0841b0 	lui	t0,0x41b0
bfc01164:	3508e100 	ori	t0,t0,0xe100
bfc01168:	3409899e 	li	t1,0x899e
bfc0116c:	3910899e 	xori	s0,t0,0x899e
bfc01170:	3c1241b0 	lui	s2,0x41b0
bfc01174:	3652689e 	ori	s2,s2,0x689e
bfc01178:	161204a4 	bne	s0,s2,bfc0240c <inst_error>
bfc0117c:	00000000 	nop
bfc01180:	3c082bff 	lui	t0,0x2bff
bfc01184:	3508f038 	ori	t0,t0,0xf038
bfc01188:	24093976 	li	t1,14710
bfc0118c:	39103976 	xori	s0,t0,0x3976
bfc01190:	3c122bff 	lui	s2,0x2bff
bfc01194:	3652c94e 	ori	s2,s2,0xc94e
bfc01198:	1612049c 	bne	s0,s2,bfc0240c <inst_error>
bfc0119c:	00000000 	nop
bfc011a0:	3c088e2c 	lui	t0,0x8e2c
bfc011a4:	35082c64 	ori	t0,t0,0x2c64
bfc011a8:	24096794 	li	t1,26516
bfc011ac:	39106794 	xori	s0,t0,0x6794
bfc011b0:	3c128e2c 	lui	s2,0x8e2c
bfc011b4:	36524bf0 	ori	s2,s2,0x4bf0
bfc011b8:	16120494 	bne	s0,s2,bfc0240c <inst_error>
bfc011bc:	00000000 	nop
bfc011c0:	3c08b960 	lui	t0,0xb960
bfc011c4:	3508d030 	ori	t0,t0,0xd030
bfc011c8:	3409c430 	li	t1,0xc430
bfc011cc:	3910c430 	xori	s0,t0,0xc430
bfc011d0:	3c12b960 	lui	s2,0xb960
bfc011d4:	36521400 	ori	s2,s2,0x1400
bfc011d8:	1612048c 	bne	s0,s2,bfc0240c <inst_error>
bfc011dc:	00000000 	nop
bfc011e0:	3c089053 	lui	t0,0x9053
bfc011e4:	350840c0 	ori	t0,t0,0x40c0
bfc011e8:	3409dd54 	li	t1,0xdd54
bfc011ec:	3910dd54 	xori	s0,t0,0xdd54
bfc011f0:	3c129053 	lui	s2,0x9053
bfc011f4:	36529d94 	ori	s2,s2,0x9d94
bfc011f8:	16120484 	bne	s0,s2,bfc0240c <inst_error>
bfc011fc:	00000000 	nop
bfc01200:	3c0822c7 	lui	t0,0x22c7
bfc01204:	350866b0 	ori	t0,t0,0x66b0
bfc01208:	24090a34 	li	t1,2612
bfc0120c:	39100a34 	xori	s0,t0,0xa34
bfc01210:	3c1222c7 	lui	s2,0x22c7
bfc01214:	36526c84 	ori	s2,s2,0x6c84
bfc01218:	1612047c 	bne	s0,s2,bfc0240c <inst_error>
bfc0121c:	00000000 	nop
bfc01220:	3c0813d4 	lui	t0,0x13d4
bfc01224:	35085580 	ori	t0,t0,0x5580
bfc01228:	3409df3c 	li	t1,0xdf3c
bfc0122c:	3910df3c 	xori	s0,t0,0xdf3c
bfc01230:	3c1213d4 	lui	s2,0x13d4
bfc01234:	36528abc 	ori	s2,s2,0x8abc
bfc01238:	16120474 	bne	s0,s2,bfc0240c <inst_error>
bfc0123c:	00000000 	nop
bfc01240:	3c08a805 	lui	t0,0xa805
bfc01244:	35081560 	ori	t0,t0,0x1560
bfc01248:	34098259 	li	t1,0x8259
bfc0124c:	39108259 	xori	s0,t0,0x8259
bfc01250:	3c12a805 	lui	s2,0xa805
bfc01254:	36529739 	ori	s2,s2,0x9739
bfc01258:	1612046c 	bne	s0,s2,bfc0240c <inst_error>
bfc0125c:	00000000 	nop
bfc01260:	3c0869ae 	lui	t0,0x69ae
bfc01264:	3508cf80 	ori	t0,t0,0xcf80
bfc01268:	24097da8 	li	t1,32168
bfc0126c:	39107da8 	xori	s0,t0,0x7da8
bfc01270:	3c1269ae 	lui	s2,0x69ae
bfc01274:	3652b228 	ori	s2,s2,0xb228
bfc01278:	16120464 	bne	s0,s2,bfc0240c <inst_error>
bfc0127c:	00000000 	nop
bfc01280:	3c08bd80 	lui	t0,0xbd80
bfc01284:	35083cf2 	ori	t0,t0,0x3cf2
bfc01288:	24094d9c 	li	t1,19868
bfc0128c:	39104d9c 	xori	s0,t0,0x4d9c
bfc01290:	3c12bd80 	lui	s2,0xbd80
bfc01294:	3652716e 	ori	s2,s2,0x716e
bfc01298:	1612045c 	bne	s0,s2,bfc0240c <inst_error>
bfc0129c:	00000000 	nop
bfc012a0:	3c0888a0 	lui	t0,0x88a0
bfc012a4:	35081000 	ori	t0,t0,0x1000
bfc012a8:	240963ea 	li	t1,25578
bfc012ac:	391063ea 	xori	s0,t0,0x63ea
bfc012b0:	3c1288a0 	lui	s2,0x88a0
bfc012b4:	365273ea 	ori	s2,s2,0x73ea
bfc012b8:	16120454 	bne	s0,s2,bfc0240c <inst_error>
bfc012bc:	00000000 	nop
bfc012c0:	3c08980f 	lui	t0,0x980f
bfc012c4:	35082f00 	ori	t0,t0,0x2f00
bfc012c8:	2409359f 	li	t1,13727
bfc012cc:	3910359f 	xori	s0,t0,0x359f
bfc012d0:	3c12980f 	lui	s2,0x980f
bfc012d4:	36521a9f 	ori	s2,s2,0x1a9f
bfc012d8:	1612044c 	bne	s0,s2,bfc0240c <inst_error>
bfc012dc:	00000000 	nop
bfc012e0:	3c0829ba 	lui	t0,0x29ba
bfc012e4:	3508fada 	ori	t0,t0,0xfada
bfc012e8:	34099a22 	li	t1,0x9a22
bfc012ec:	39109a22 	xori	s0,t0,0x9a22
bfc012f0:	3c1229ba 	lui	s2,0x29ba
bfc012f4:	365260f8 	ori	s2,s2,0x60f8
bfc012f8:	16120444 	bne	s0,s2,bfc0240c <inst_error>
bfc012fc:	00000000 	nop
bfc01300:	3c08b9b4 	lui	t0,0xb9b4
bfc01304:	3508e2c4 	ori	t0,t0,0xe2c4
bfc01308:	24097469 	li	t1,29801
bfc0130c:	39107469 	xori	s0,t0,0x7469
bfc01310:	3c12b9b4 	lui	s2,0xb9b4
bfc01314:	365296ad 	ori	s2,s2,0x96ad
bfc01318:	1612043c 	bne	s0,s2,bfc0240c <inst_error>
bfc0131c:	00000000 	nop
bfc01320:	3c085e33 	lui	t0,0x5e33
bfc01324:	35080605 	ori	t0,t0,0x605
bfc01328:	24096b7e 	li	t1,27518
bfc0132c:	39106b7e 	xori	s0,t0,0x6b7e
bfc01330:	3c125e33 	lui	s2,0x5e33
bfc01334:	36526d7b 	ori	s2,s2,0x6d7b
bfc01338:	16120434 	bne	s0,s2,bfc0240c <inst_error>
bfc0133c:	00000000 	nop
bfc01340:	3c083a98 	lui	t0,0x3a98
bfc01344:	35080396 	ori	t0,t0,0x396
bfc01348:	3409ca83 	li	t1,0xca83
bfc0134c:	3910ca83 	xori	s0,t0,0xca83
bfc01350:	3c123a98 	lui	s2,0x3a98
bfc01354:	3652c915 	ori	s2,s2,0xc915
bfc01358:	1612042c 	bne	s0,s2,bfc0240c <inst_error>
bfc0135c:	00000000 	nop
bfc01360:	3c08f6b2 	lui	t0,0xf6b2
bfc01364:	3508c980 	ori	t0,t0,0xc980
bfc01368:	3409e21c 	li	t1,0xe21c
bfc0136c:	3910e21c 	xori	s0,t0,0xe21c
bfc01370:	3c12f6b2 	lui	s2,0xf6b2
bfc01374:	36522b9c 	ori	s2,s2,0x2b9c
bfc01378:	16120424 	bne	s0,s2,bfc0240c <inst_error>
bfc0137c:	00000000 	nop
bfc01380:	3c087121 	lui	t0,0x7121
bfc01384:	3508a34c 	ori	t0,t0,0xa34c
bfc01388:	3409ac85 	li	t1,0xac85
bfc0138c:	3910ac85 	xori	s0,t0,0xac85
bfc01390:	3c127121 	lui	s2,0x7121
bfc01394:	36520fc9 	ori	s2,s2,0xfc9
bfc01398:	1612041c 	bne	s0,s2,bfc0240c <inst_error>
bfc0139c:	00000000 	nop
bfc013a0:	3c08ed08 	lui	t0,0xed08
bfc013a4:	3508d0e0 	ori	t0,t0,0xd0e0
bfc013a8:	24094ccc 	li	t1,19660
bfc013ac:	39104ccc 	xori	s0,t0,0x4ccc
bfc013b0:	3c12ed08 	lui	s2,0xed08
bfc013b4:	36529c2c 	ori	s2,s2,0x9c2c
bfc013b8:	16120414 	bne	s0,s2,bfc0240c <inst_error>
bfc013bc:	00000000 	nop
bfc013c0:	3c0831a5 	lui	t0,0x31a5
bfc013c4:	3508f9bc 	ori	t0,t0,0xf9bc
bfc013c8:	3409de60 	li	t1,0xde60
bfc013cc:	3910de60 	xori	s0,t0,0xde60
bfc013d0:	3c1231a5 	lui	s2,0x31a5
bfc013d4:	365227dc 	ori	s2,s2,0x27dc
bfc013d8:	1612040c 	bne	s0,s2,bfc0240c <inst_error>
bfc013dc:	00000000 	nop
bfc013e0:	3c08a041 	lui	t0,0xa041
bfc013e4:	35080dd0 	ori	t0,t0,0xdd0
bfc013e8:	24096ade 	li	t1,27358
bfc013ec:	39106ade 	xori	s0,t0,0x6ade
bfc013f0:	3c12a041 	lui	s2,0xa041
bfc013f4:	3652670e 	ori	s2,s2,0x670e
bfc013f8:	16120404 	bne	s0,s2,bfc0240c <inst_error>
bfc013fc:	00000000 	nop
bfc01400:	3c08c82a 	lui	t0,0xc82a
bfc01404:	3508429c 	ori	t0,t0,0x429c
bfc01408:	24091d18 	li	t1,7448
bfc0140c:	39101d18 	xori	s0,t0,0x1d18
bfc01410:	3c12c82a 	lui	s2,0xc82a
bfc01414:	36525f84 	ori	s2,s2,0x5f84
bfc01418:	161203fc 	bne	s0,s2,bfc0240c <inst_error>
bfc0141c:	00000000 	nop
bfc01420:	3c08c38c 	lui	t0,0xc38c
bfc01424:	350882be 	ori	t0,t0,0x82be
bfc01428:	3409b7ac 	li	t1,0xb7ac
bfc0142c:	3910b7ac 	xori	s0,t0,0xb7ac
bfc01430:	3c12c38c 	lui	s2,0xc38c
bfc01434:	36523512 	ori	s2,s2,0x3512
bfc01438:	161203f4 	bne	s0,s2,bfc0240c <inst_error>
bfc0143c:	00000000 	nop
bfc01440:	3c083ac9 	lui	t0,0x3ac9
bfc01444:	35080f58 	ori	t0,t0,0xf58
bfc01448:	34099e16 	li	t1,0x9e16
bfc0144c:	39109e16 	xori	s0,t0,0x9e16
bfc01450:	3c123ac9 	lui	s2,0x3ac9
bfc01454:	3652914e 	ori	s2,s2,0x914e
bfc01458:	161203ec 	bne	s0,s2,bfc0240c <inst_error>
bfc0145c:	00000000 	nop
bfc01460:	3c08b49c 	lui	t0,0xb49c
bfc01464:	3508c0b6 	ori	t0,t0,0xc0b6
bfc01468:	24096ed0 	li	t1,28368
bfc0146c:	39106ed0 	xori	s0,t0,0x6ed0
bfc01470:	3c12b49c 	lui	s2,0xb49c
bfc01474:	3652ae66 	ori	s2,s2,0xae66
bfc01478:	161203e4 	bne	s0,s2,bfc0240c <inst_error>
bfc0147c:	00000000 	nop
bfc01480:	3c084e0a 	lui	t0,0x4e0a
bfc01484:	35083b1f 	ori	t0,t0,0x3b1f
bfc01488:	240905e1 	li	t1,1505
bfc0148c:	391005e1 	xori	s0,t0,0x5e1
bfc01490:	3c124e0a 	lui	s2,0x4e0a
bfc01494:	36523efe 	ori	s2,s2,0x3efe
bfc01498:	161203dc 	bne	s0,s2,bfc0240c <inst_error>
bfc0149c:	00000000 	nop
bfc014a0:	3c08e38d 	lui	t0,0xe38d
bfc014a4:	3508bdc0 	ori	t0,t0,0xbdc0
bfc014a8:	3409a5b2 	li	t1,0xa5b2
bfc014ac:	3910a5b2 	xori	s0,t0,0xa5b2
bfc014b0:	3c12e38d 	lui	s2,0xe38d
bfc014b4:	36521872 	ori	s2,s2,0x1872
bfc014b8:	161203d4 	bne	s0,s2,bfc0240c <inst_error>
bfc014bc:	00000000 	nop
bfc014c0:	3c0803b5 	lui	t0,0x3b5
bfc014c4:	3508e51e 	ori	t0,t0,0xe51e
bfc014c8:	3409e694 	li	t1,0xe694
bfc014cc:	3910e694 	xori	s0,t0,0xe694
bfc014d0:	3c1203b5 	lui	s2,0x3b5
bfc014d4:	3652038a 	ori	s2,s2,0x38a
bfc014d8:	161203cc 	bne	s0,s2,bfc0240c <inst_error>
bfc014dc:	00000000 	nop
bfc014e0:	3c08011a 	lui	t0,0x11a
bfc014e4:	35080400 	ori	t0,t0,0x400
bfc014e8:	24092c56 	li	t1,11350
bfc014ec:	39102c56 	xori	s0,t0,0x2c56
bfc014f0:	3c12011a 	lui	s2,0x11a
bfc014f4:	36522856 	ori	s2,s2,0x2856
bfc014f8:	161203c4 	bne	s0,s2,bfc0240c <inst_error>
bfc014fc:	00000000 	nop
bfc01500:	3c08c897 	lui	t0,0xc897
bfc01504:	35088c6c 	ori	t0,t0,0x8c6c
bfc01508:	24097f00 	li	t1,32512
bfc0150c:	39107f00 	xori	s0,t0,0x7f00
bfc01510:	3c12c897 	lui	s2,0xc897
bfc01514:	3652f36c 	ori	s2,s2,0xf36c
bfc01518:	161203bc 	bne	s0,s2,bfc0240c <inst_error>
bfc0151c:	00000000 	nop
bfc01520:	3c08330d 	lui	t0,0x330d
bfc01524:	35083704 	ori	t0,t0,0x3704
bfc01528:	3409b5a3 	li	t1,0xb5a3
bfc0152c:	3910b5a3 	xori	s0,t0,0xb5a3
bfc01530:	3c12330d 	lui	s2,0x330d
bfc01534:	365282a7 	ori	s2,s2,0x82a7
bfc01538:	161203b4 	bne	s0,s2,bfc0240c <inst_error>
bfc0153c:	00000000 	nop
bfc01540:	3c08a1d1 	lui	t0,0xa1d1
bfc01544:	35083000 	ori	t0,t0,0x3000
bfc01548:	2409726e 	li	t1,29294
bfc0154c:	3910726e 	xori	s0,t0,0x726e
bfc01550:	3c12a1d1 	lui	s2,0xa1d1
bfc01554:	3652426e 	ori	s2,s2,0x426e
bfc01558:	161203ac 	bne	s0,s2,bfc0240c <inst_error>
bfc0155c:	00000000 	nop
bfc01560:	3c08d2c3 	lui	t0,0xd2c3
bfc01564:	35083998 	ori	t0,t0,0x3998
bfc01568:	24095cb4 	li	t1,23732
bfc0156c:	39105cb4 	xori	s0,t0,0x5cb4
bfc01570:	3c12d2c3 	lui	s2,0xd2c3
bfc01574:	3652652c 	ori	s2,s2,0x652c
bfc01578:	161203a4 	bne	s0,s2,bfc0240c <inst_error>
bfc0157c:	00000000 	nop
bfc01580:	3c08efc6 	lui	t0,0xefc6
bfc01584:	3508bfc8 	ori	t0,t0,0xbfc8
bfc01588:	3409a79a 	li	t1,0xa79a
bfc0158c:	3910a79a 	xori	s0,t0,0xa79a
bfc01590:	3c12efc6 	lui	s2,0xefc6
bfc01594:	36521852 	ori	s2,s2,0x1852
bfc01598:	1612039c 	bne	s0,s2,bfc0240c <inst_error>
bfc0159c:	00000000 	nop
bfc015a0:	3c08f079 	lui	t0,0xf079
bfc015a4:	35089810 	ori	t0,t0,0x9810
bfc015a8:	240936c1 	li	t1,14017
bfc015ac:	391036c1 	xori	s0,t0,0x36c1
bfc015b0:	3c12f079 	lui	s2,0xf079
bfc015b4:	3652aed1 	ori	s2,s2,0xaed1
bfc015b8:	16120394 	bne	s0,s2,bfc0240c <inst_error>
bfc015bc:	00000000 	nop
bfc015c0:	3c081728 	lui	t0,0x1728
bfc015c4:	35086f40 	ori	t0,t0,0x6f40
bfc015c8:	34098d52 	li	t1,0x8d52
bfc015cc:	39108d52 	xori	s0,t0,0x8d52
bfc015d0:	3c121728 	lui	s2,0x1728
bfc015d4:	3652e212 	ori	s2,s2,0xe212
bfc015d8:	1612038c 	bne	s0,s2,bfc0240c <inst_error>
bfc015dc:	00000000 	nop
bfc015e0:	3c08af9a 	lui	t0,0xaf9a
bfc015e4:	35083039 	ori	t0,t0,0x3039
bfc015e8:	3409e733 	li	t1,0xe733
bfc015ec:	3910e733 	xori	s0,t0,0xe733
bfc015f0:	3c12af9a 	lui	s2,0xaf9a
bfc015f4:	3652d70a 	ori	s2,s2,0xd70a
bfc015f8:	16120384 	bne	s0,s2,bfc0240c <inst_error>
bfc015fc:	00000000 	nop
bfc01600:	3c081123 	lui	t0,0x1123
bfc01604:	3508ed00 	ori	t0,t0,0xed00
bfc01608:	24095c80 	li	t1,23680
bfc0160c:	39105c80 	xori	s0,t0,0x5c80
bfc01610:	3c121123 	lui	s2,0x1123
bfc01614:	3652b180 	ori	s2,s2,0xb180
bfc01618:	1612037c 	bne	s0,s2,bfc0240c <inst_error>
bfc0161c:	00000000 	nop
bfc01620:	3c08b229 	lui	t0,0xb229
bfc01624:	35081b00 	ori	t0,t0,0x1b00
bfc01628:	2409696e 	li	t1,26990
bfc0162c:	3910696e 	xori	s0,t0,0x696e
bfc01630:	3c12b229 	lui	s2,0xb229
bfc01634:	3652726e 	ori	s2,s2,0x726e
bfc01638:	16120374 	bne	s0,s2,bfc0240c <inst_error>
bfc0163c:	00000000 	nop
bfc01640:	3c08ea53 	lui	t0,0xea53
bfc01644:	3508a8fa 	ori	t0,t0,0xa8fa
bfc01648:	240960b2 	li	t1,24754
bfc0164c:	391060b2 	xori	s0,t0,0x60b2
bfc01650:	3c12ea53 	lui	s2,0xea53
bfc01654:	3652c848 	ori	s2,s2,0xc848
bfc01658:	1612036c 	bne	s0,s2,bfc0240c <inst_error>
bfc0165c:	00000000 	nop
bfc01660:	3c0867cb 	lui	t0,0x67cb
bfc01664:	350864f5 	ori	t0,t0,0x64f5
bfc01668:	340995fc 	li	t1,0x95fc
bfc0166c:	391095fc 	xori	s0,t0,0x95fc
bfc01670:	3c1267cb 	lui	s2,0x67cb
bfc01674:	3652f109 	ori	s2,s2,0xf109
bfc01678:	16120364 	bne	s0,s2,bfc0240c <inst_error>
bfc0167c:	00000000 	nop
bfc01680:	3c080037 	lui	t0,0x37
bfc01684:	3508fc20 	ori	t0,t0,0xfc20
bfc01688:	24097e75 	li	t1,32373
bfc0168c:	39107e75 	xori	s0,t0,0x7e75
bfc01690:	3c120037 	lui	s2,0x37
bfc01694:	36528255 	ori	s2,s2,0x8255
bfc01698:	1612035c 	bne	s0,s2,bfc0240c <inst_error>
bfc0169c:	00000000 	nop
bfc016a0:	3c08b7e1 	lui	t0,0xb7e1
bfc016a4:	350897c8 	ori	t0,t0,0x97c8
bfc016a8:	240934d0 	li	t1,13520
bfc016ac:	391034d0 	xori	s0,t0,0x34d0
bfc016b0:	3c12b7e1 	lui	s2,0xb7e1
bfc016b4:	3652a318 	ori	s2,s2,0xa318
bfc016b8:	16120354 	bne	s0,s2,bfc0240c <inst_error>
bfc016bc:	00000000 	nop
bfc016c0:	3c08d994 	lui	t0,0xd994
bfc016c4:	3508d5cd 	ori	t0,t0,0xd5cd
bfc016c8:	3409cfae 	li	t1,0xcfae
bfc016cc:	3910cfae 	xori	s0,t0,0xcfae
bfc016d0:	3c12d994 	lui	s2,0xd994
bfc016d4:	36521a63 	ori	s2,s2,0x1a63
bfc016d8:	1612034c 	bne	s0,s2,bfc0240c <inst_error>
bfc016dc:	00000000 	nop
bfc016e0:	3c082f4e 	lui	t0,0x2f4e
bfc016e4:	3508bfd0 	ori	t0,t0,0xbfd0
bfc016e8:	3409d048 	li	t1,0xd048
bfc016ec:	3910d048 	xori	s0,t0,0xd048
bfc016f0:	3c122f4e 	lui	s2,0x2f4e
bfc016f4:	36526f98 	ori	s2,s2,0x6f98
bfc016f8:	16120344 	bne	s0,s2,bfc0240c <inst_error>
bfc016fc:	00000000 	nop
bfc01700:	3c088788 	lui	t0,0x8788
bfc01704:	3508a528 	ori	t0,t0,0xa528
bfc01708:	24090738 	li	t1,1848
bfc0170c:	39100738 	xori	s0,t0,0x738
bfc01710:	3c128788 	lui	s2,0x8788
bfc01714:	3652a210 	ori	s2,s2,0xa210
bfc01718:	1612033c 	bne	s0,s2,bfc0240c <inst_error>
bfc0171c:	00000000 	nop
bfc01720:	3c083343 	lui	t0,0x3343
bfc01724:	3508c212 	ori	t0,t0,0xc212
bfc01728:	3409bf74 	li	t1,0xbf74
bfc0172c:	3910bf74 	xori	s0,t0,0xbf74
bfc01730:	3c123343 	lui	s2,0x3343
bfc01734:	36527d66 	ori	s2,s2,0x7d66
bfc01738:	16120334 	bne	s0,s2,bfc0240c <inst_error>
bfc0173c:	00000000 	nop
bfc01740:	3c08c238 	lui	t0,0xc238
bfc01744:	3508ba00 	ori	t0,t0,0xba00
bfc01748:	3409a2fb 	li	t1,0xa2fb
bfc0174c:	3910a2fb 	xori	s0,t0,0xa2fb
bfc01750:	3c12c238 	lui	s2,0xc238
bfc01754:	365218fb 	ori	s2,s2,0x18fb
bfc01758:	1612032c 	bne	s0,s2,bfc0240c <inst_error>
bfc0175c:	00000000 	nop
bfc01760:	3c0868db 	lui	t0,0x68db
bfc01764:	35083cc5 	ori	t0,t0,0x3cc5
bfc01768:	3409e6f0 	li	t1,0xe6f0
bfc0176c:	3910e6f0 	xori	s0,t0,0xe6f0
bfc01770:	3c1268db 	lui	s2,0x68db
bfc01774:	3652da35 	ori	s2,s2,0xda35
bfc01778:	16120324 	bne	s0,s2,bfc0240c <inst_error>
bfc0177c:	00000000 	nop
bfc01780:	3c08ccc7 	lui	t0,0xccc7
bfc01784:	3508d200 	ori	t0,t0,0xd200
bfc01788:	3409e283 	li	t1,0xe283
bfc0178c:	3910e283 	xori	s0,t0,0xe283
bfc01790:	3c12ccc7 	lui	s2,0xccc7
bfc01794:	36523083 	ori	s2,s2,0x3083
bfc01798:	1612031c 	bne	s0,s2,bfc0240c <inst_error>
bfc0179c:	00000000 	nop
bfc017a0:	3c082bcf 	lui	t0,0x2bcf
bfc017a4:	3508a162 	ori	t0,t0,0xa162
bfc017a8:	24091667 	li	t1,5735
bfc017ac:	39101667 	xori	s0,t0,0x1667
bfc017b0:	3c122bcf 	lui	s2,0x2bcf
bfc017b4:	3652b705 	ori	s2,s2,0xb705
bfc017b8:	16120314 	bne	s0,s2,bfc0240c <inst_error>
bfc017bc:	00000000 	nop
bfc017c0:	3c082458 	lui	t0,0x2458
bfc017c4:	35082940 	ori	t0,t0,0x2940
bfc017c8:	24094fd4 	li	t1,20436
bfc017cc:	39104fd4 	xori	s0,t0,0x4fd4
bfc017d0:	3c122458 	lui	s2,0x2458
bfc017d4:	36526694 	ori	s2,s2,0x6694
bfc017d8:	1612030c 	bne	s0,s2,bfc0240c <inst_error>
bfc017dc:	00000000 	nop
bfc017e0:	3c08cbc2 	lui	t0,0xcbc2
bfc017e4:	350880c0 	ori	t0,t0,0x80c0
bfc017e8:	3409ff2c 	li	t1,0xff2c
bfc017ec:	3910ff2c 	xori	s0,t0,0xff2c
bfc017f0:	3c12cbc2 	lui	s2,0xcbc2
bfc017f4:	36527fec 	ori	s2,s2,0x7fec
bfc017f8:	16120304 	bne	s0,s2,bfc0240c <inst_error>
bfc017fc:	00000000 	nop
bfc01800:	3c08d2f1 	lui	t0,0xd2f1
bfc01804:	3508abb0 	ori	t0,t0,0xabb0
bfc01808:	24090f35 	li	t1,3893
bfc0180c:	39100f35 	xori	s0,t0,0xf35
bfc01810:	3c12d2f1 	lui	s2,0xd2f1
bfc01814:	3652a485 	ori	s2,s2,0xa485
bfc01818:	161202fc 	bne	s0,s2,bfc0240c <inst_error>
bfc0181c:	00000000 	nop
bfc01820:	3c08e729 	lui	t0,0xe729
bfc01824:	35081c4a 	ori	t0,t0,0x1c4a
bfc01828:	3409b131 	li	t1,0xb131
bfc0182c:	3910b131 	xori	s0,t0,0xb131
bfc01830:	3c12e729 	lui	s2,0xe729
bfc01834:	3652ad7b 	ori	s2,s2,0xad7b
bfc01838:	161202f4 	bne	s0,s2,bfc0240c <inst_error>
bfc0183c:	00000000 	nop
bfc01840:	3c0823c6 	lui	t0,0x23c6
bfc01844:	35087bdd 	ori	t0,t0,0x7bdd
bfc01848:	24096f10 	li	t1,28432
bfc0184c:	39106f10 	xori	s0,t0,0x6f10
bfc01850:	3c1223c6 	lui	s2,0x23c6
bfc01854:	365214cd 	ori	s2,s2,0x14cd
bfc01858:	161202ec 	bne	s0,s2,bfc0240c <inst_error>
bfc0185c:	00000000 	nop
bfc01860:	3c0838c2 	lui	t0,0x38c2
bfc01864:	3508e188 	ori	t0,t0,0xe188
bfc01868:	3409e348 	li	t1,0xe348
bfc0186c:	3910e348 	xori	s0,t0,0xe348
bfc01870:	3c1238c2 	lui	s2,0x38c2
bfc01874:	365202c0 	ori	s2,s2,0x2c0
bfc01878:	161202e4 	bne	s0,s2,bfc0240c <inst_error>
bfc0187c:	00000000 	nop
bfc01880:	3c08d773 	lui	t0,0xd773
bfc01884:	3508f2db 	ori	t0,t0,0xf2db
bfc01888:	3409ff07 	li	t1,0xff07
bfc0188c:	3910ff07 	xori	s0,t0,0xff07
bfc01890:	3c12d773 	lui	s2,0xd773
bfc01894:	36520ddc 	ori	s2,s2,0xddc
bfc01898:	161202dc 	bne	s0,s2,bfc0240c <inst_error>
bfc0189c:	00000000 	nop
bfc018a0:	3c083ca1 	lui	t0,0x3ca1
bfc018a4:	3508541a 	ori	t0,t0,0x541a
bfc018a8:	3409d182 	li	t1,0xd182
bfc018ac:	3910d182 	xori	s0,t0,0xd182
bfc018b0:	3c123ca1 	lui	s2,0x3ca1
bfc018b4:	36528598 	ori	s2,s2,0x8598
bfc018b8:	161202d4 	bne	s0,s2,bfc0240c <inst_error>
bfc018bc:	00000000 	nop
bfc018c0:	3c0811ee 	lui	t0,0x11ee
bfc018c4:	350801e0 	ori	t0,t0,0x1e0
bfc018c8:	3409a0d8 	li	t1,0xa0d8
bfc018cc:	3910a0d8 	xori	s0,t0,0xa0d8
bfc018d0:	3c1211ee 	lui	s2,0x11ee
bfc018d4:	3652a138 	ori	s2,s2,0xa138
bfc018d8:	161202cc 	bne	s0,s2,bfc0240c <inst_error>
bfc018dc:	00000000 	nop
bfc018e0:	3c08be8c 	lui	t0,0xbe8c
bfc018e4:	35086ea0 	ori	t0,t0,0x6ea0
bfc018e8:	24092f40 	li	t1,12096
bfc018ec:	39102f40 	xori	s0,t0,0x2f40
bfc018f0:	3c12be8c 	lui	s2,0xbe8c
bfc018f4:	365241e0 	ori	s2,s2,0x41e0
bfc018f8:	161202c4 	bne	s0,s2,bfc0240c <inst_error>
bfc018fc:	00000000 	nop
bfc01900:	3c08fe2a 	lui	t0,0xfe2a
bfc01904:	35085f18 	ori	t0,t0,0x5f18
bfc01908:	24090000 	li	t1,0
bfc0190c:	39100000 	xori	s0,t0,0x0
bfc01910:	3c12fe2a 	lui	s2,0xfe2a
bfc01914:	36525f18 	ori	s2,s2,0x5f18
bfc01918:	161202bc 	bne	s0,s2,bfc0240c <inst_error>
bfc0191c:	00000000 	nop
bfc01920:	3c085d8f 	lui	t0,0x5d8f
bfc01924:	3508ecc0 	ori	t0,t0,0xecc0
bfc01928:	24090000 	li	t1,0
bfc0192c:	39100000 	xori	s0,t0,0x0
bfc01930:	3c125d8f 	lui	s2,0x5d8f
bfc01934:	3652ecc0 	ori	s2,s2,0xecc0
bfc01938:	161202b4 	bne	s0,s2,bfc0240c <inst_error>
bfc0193c:	00000000 	nop
bfc01940:	3c08629e 	lui	t0,0x629e
bfc01944:	350818f4 	ori	t0,t0,0x18f4
bfc01948:	24090000 	li	t1,0
bfc0194c:	39100000 	xori	s0,t0,0x0
bfc01950:	3c12629e 	lui	s2,0x629e
bfc01954:	365218f4 	ori	s2,s2,0x18f4
bfc01958:	161202ac 	bne	s0,s2,bfc0240c <inst_error>
bfc0195c:	00000000 	nop
bfc01960:	3c08bf9f 	lui	t0,0xbf9f
bfc01964:	35089e88 	ori	t0,t0,0x9e88
bfc01968:	24090000 	li	t1,0
bfc0196c:	39100000 	xori	s0,t0,0x0
bfc01970:	3c12bf9f 	lui	s2,0xbf9f
bfc01974:	36529e88 	ori	s2,s2,0x9e88
bfc01978:	161202a4 	bne	s0,s2,bfc0240c <inst_error>
bfc0197c:	00000000 	nop
bfc01980:	3c0880e1 	lui	t0,0x80e1
bfc01984:	35083969 	ori	t0,t0,0x3969
bfc01988:	24090000 	li	t1,0
bfc0198c:	39100000 	xori	s0,t0,0x0
bfc01990:	3c1280e1 	lui	s2,0x80e1
bfc01994:	36523969 	ori	s2,s2,0x3969
bfc01998:	1612029c 	bne	s0,s2,bfc0240c <inst_error>
bfc0199c:	00000000 	nop
bfc019a0:	3c08188a 	lui	t0,0x188a
bfc019a4:	3508fd20 	ori	t0,t0,0xfd20
bfc019a8:	24090000 	li	t1,0
bfc019ac:	39100000 	xori	s0,t0,0x0
bfc019b0:	3c12188a 	lui	s2,0x188a
bfc019b4:	3652fd20 	ori	s2,s2,0xfd20
bfc019b8:	16120294 	bne	s0,s2,bfc0240c <inst_error>
bfc019bc:	00000000 	nop
bfc019c0:	3c086677 	lui	t0,0x6677
bfc019c4:	35083ad0 	ori	t0,t0,0x3ad0
bfc019c8:	24090000 	li	t1,0
bfc019cc:	39100000 	xori	s0,t0,0x0
bfc019d0:	3c126677 	lui	s2,0x6677
bfc019d4:	36523ad0 	ori	s2,s2,0x3ad0
bfc019d8:	1612028c 	bne	s0,s2,bfc0240c <inst_error>
bfc019dc:	00000000 	nop
bfc019e0:	3c08bd00 	lui	t0,0xbd00
bfc019e4:	35082d78 	ori	t0,t0,0x2d78
bfc019e8:	24090000 	li	t1,0
bfc019ec:	39100000 	xori	s0,t0,0x0
bfc019f0:	3c12bd00 	lui	s2,0xbd00
bfc019f4:	36522d78 	ori	s2,s2,0x2d78
bfc019f8:	16120284 	bne	s0,s2,bfc0240c <inst_error>
bfc019fc:	00000000 	nop
bfc01a00:	3c082309 	lui	t0,0x2309
bfc01a04:	3508efac 	ori	t0,t0,0xefac
bfc01a08:	24090000 	li	t1,0
bfc01a0c:	39100000 	xori	s0,t0,0x0
bfc01a10:	3c122309 	lui	s2,0x2309
bfc01a14:	3652efac 	ori	s2,s2,0xefac
bfc01a18:	1612027c 	bne	s0,s2,bfc0240c <inst_error>
bfc01a1c:	00000000 	nop
bfc01a20:	3c08214b 	lui	t0,0x214b
bfc01a24:	3508b0c0 	ori	t0,t0,0xb0c0
bfc01a28:	24090000 	li	t1,0
bfc01a2c:	39100000 	xori	s0,t0,0x0
bfc01a30:	3c12214b 	lui	s2,0x214b
bfc01a34:	3652b0c0 	ori	s2,s2,0xb0c0
bfc01a38:	16120274 	bne	s0,s2,bfc0240c <inst_error>
bfc01a3c:	00000000 	nop
bfc01a40:	3c0870b6 	lui	t0,0x70b6
bfc01a44:	35086650 	ori	t0,t0,0x6650
bfc01a48:	24090000 	li	t1,0
bfc01a4c:	39100000 	xori	s0,t0,0x0
bfc01a50:	3c1270b6 	lui	s2,0x70b6
bfc01a54:	36526650 	ori	s2,s2,0x6650
bfc01a58:	1612026c 	bne	s0,s2,bfc0240c <inst_error>
bfc01a5c:	00000000 	nop
bfc01a60:	3c08961a 	lui	t0,0x961a
bfc01a64:	3508aab8 	ori	t0,t0,0xaab8
bfc01a68:	24090000 	li	t1,0
bfc01a6c:	39100000 	xori	s0,t0,0x0
bfc01a70:	3c12961a 	lui	s2,0x961a
bfc01a74:	3652aab8 	ori	s2,s2,0xaab8
bfc01a78:	16120264 	bne	s0,s2,bfc0240c <inst_error>
bfc01a7c:	00000000 	nop
bfc01a80:	3c08347d 	lui	t0,0x347d
bfc01a84:	3508d2a2 	ori	t0,t0,0xd2a2
bfc01a88:	24090000 	li	t1,0
bfc01a8c:	39100000 	xori	s0,t0,0x0
bfc01a90:	3c12347d 	lui	s2,0x347d
bfc01a94:	3652d2a2 	ori	s2,s2,0xd2a2
bfc01a98:	1612025c 	bne	s0,s2,bfc0240c <inst_error>
bfc01a9c:	00000000 	nop
bfc01aa0:	3c086fe4 	lui	t0,0x6fe4
bfc01aa4:	35080f00 	ori	t0,t0,0xf00
bfc01aa8:	24090000 	li	t1,0
bfc01aac:	39100000 	xori	s0,t0,0x0
bfc01ab0:	3c126fe4 	lui	s2,0x6fe4
bfc01ab4:	36520f00 	ori	s2,s2,0xf00
bfc01ab8:	16120254 	bne	s0,s2,bfc0240c <inst_error>
bfc01abc:	00000000 	nop
bfc01ac0:	3c0889aa 	lui	t0,0x89aa
bfc01ac4:	3508c5c0 	ori	t0,t0,0xc5c0
bfc01ac8:	24090000 	li	t1,0
bfc01acc:	39100000 	xori	s0,t0,0x0
bfc01ad0:	3c1289aa 	lui	s2,0x89aa
bfc01ad4:	3652c5c0 	ori	s2,s2,0xc5c0
bfc01ad8:	1612024c 	bne	s0,s2,bfc0240c <inst_error>
bfc01adc:	00000000 	nop
bfc01ae0:	3c086ee9 	lui	t0,0x6ee9
bfc01ae4:	3508a990 	ori	t0,t0,0xa990
bfc01ae8:	24090000 	li	t1,0
bfc01aec:	39100000 	xori	s0,t0,0x0
bfc01af0:	3c126ee9 	lui	s2,0x6ee9
bfc01af4:	3652a990 	ori	s2,s2,0xa990
bfc01af8:	16120244 	bne	s0,s2,bfc0240c <inst_error>
bfc01afc:	00000000 	nop
bfc01b00:	3c08636c 	lui	t0,0x636c
bfc01b04:	35082ebc 	ori	t0,t0,0x2ebc
bfc01b08:	24090000 	li	t1,0
bfc01b0c:	39100000 	xori	s0,t0,0x0
bfc01b10:	3c12636c 	lui	s2,0x636c
bfc01b14:	36522ebc 	ori	s2,s2,0x2ebc
bfc01b18:	1612023c 	bne	s0,s2,bfc0240c <inst_error>
bfc01b1c:	00000000 	nop
bfc01b20:	3c08ff5d 	lui	t0,0xff5d
bfc01b24:	3508d5cc 	ori	t0,t0,0xd5cc
bfc01b28:	24090000 	li	t1,0
bfc01b2c:	39100000 	xori	s0,t0,0x0
bfc01b30:	3c12ff5d 	lui	s2,0xff5d
bfc01b34:	3652d5cc 	ori	s2,s2,0xd5cc
bfc01b38:	16120234 	bne	s0,s2,bfc0240c <inst_error>
bfc01b3c:	00000000 	nop
bfc01b40:	3c0834a6 	lui	t0,0x34a6
bfc01b44:	3508426e 	ori	t0,t0,0x426e
bfc01b48:	24090000 	li	t1,0
bfc01b4c:	39100000 	xori	s0,t0,0x0
bfc01b50:	3c1234a6 	lui	s2,0x34a6
bfc01b54:	3652426e 	ori	s2,s2,0x426e
bfc01b58:	1612022c 	bne	s0,s2,bfc0240c <inst_error>
bfc01b5c:	00000000 	nop
bfc01b60:	3c08ccb4 	lui	t0,0xccb4
bfc01b64:	35086c87 	ori	t0,t0,0x6c87
bfc01b68:	24090000 	li	t1,0
bfc01b6c:	39100000 	xori	s0,t0,0x0
bfc01b70:	3c12ccb4 	lui	s2,0xccb4
bfc01b74:	36526c87 	ori	s2,s2,0x6c87
bfc01b78:	16120224 	bne	s0,s2,bfc0240c <inst_error>
bfc01b7c:	00000000 	nop
bfc01b80:	3c080e0e 	lui	t0,0xe0e
bfc01b84:	35084962 	ori	t0,t0,0x4962
bfc01b88:	24090000 	li	t1,0
bfc01b8c:	39100000 	xori	s0,t0,0x0
bfc01b90:	3c120e0e 	lui	s2,0xe0e
bfc01b94:	36524962 	ori	s2,s2,0x4962
bfc01b98:	1612021c 	bne	s0,s2,bfc0240c <inst_error>
bfc01b9c:	00000000 	nop
bfc01ba0:	3c0885ec 	lui	t0,0x85ec
bfc01ba4:	3508db21 	ori	t0,t0,0xdb21
bfc01ba8:	24090000 	li	t1,0
bfc01bac:	39100000 	xori	s0,t0,0x0
bfc01bb0:	3c1285ec 	lui	s2,0x85ec
bfc01bb4:	3652db21 	ori	s2,s2,0xdb21
bfc01bb8:	16120214 	bne	s0,s2,bfc0240c <inst_error>
bfc01bbc:	00000000 	nop
bfc01bc0:	3c08bbe8 	lui	t0,0xbbe8
bfc01bc4:	35084760 	ori	t0,t0,0x4760
bfc01bc8:	24090000 	li	t1,0
bfc01bcc:	39100000 	xori	s0,t0,0x0
bfc01bd0:	3c12bbe8 	lui	s2,0xbbe8
bfc01bd4:	36524760 	ori	s2,s2,0x4760
bfc01bd8:	1612020c 	bne	s0,s2,bfc0240c <inst_error>
bfc01bdc:	00000000 	nop
bfc01be0:	3c081956 	lui	t0,0x1956
bfc01be4:	35088250 	ori	t0,t0,0x8250
bfc01be8:	24090000 	li	t1,0
bfc01bec:	39100000 	xori	s0,t0,0x0
bfc01bf0:	3c121956 	lui	s2,0x1956
bfc01bf4:	36528250 	ori	s2,s2,0x8250
bfc01bf8:	16120204 	bne	s0,s2,bfc0240c <inst_error>
bfc01bfc:	00000000 	nop
bfc01c00:	3c080f69 	lui	t0,0xf69
bfc01c04:	3508f5c4 	ori	t0,t0,0xf5c4
bfc01c08:	24090000 	li	t1,0
bfc01c0c:	39100000 	xori	s0,t0,0x0
bfc01c10:	3c120f69 	lui	s2,0xf69
bfc01c14:	3652f5c4 	ori	s2,s2,0xf5c4
bfc01c18:	161201fc 	bne	s0,s2,bfc0240c <inst_error>
bfc01c1c:	00000000 	nop
bfc01c20:	3c089f14 	lui	t0,0x9f14
bfc01c24:	3508f1e1 	ori	t0,t0,0xf1e1
bfc01c28:	24090000 	li	t1,0
bfc01c2c:	39100000 	xori	s0,t0,0x0
bfc01c30:	3c129f14 	lui	s2,0x9f14
bfc01c34:	3652f1e1 	ori	s2,s2,0xf1e1
bfc01c38:	161201f4 	bne	s0,s2,bfc0240c <inst_error>
bfc01c3c:	00000000 	nop
bfc01c40:	3c084f22 	lui	t0,0x4f22
bfc01c44:	3508541c 	ori	t0,t0,0x541c
bfc01c48:	24090000 	li	t1,0
bfc01c4c:	39100000 	xori	s0,t0,0x0
bfc01c50:	3c124f22 	lui	s2,0x4f22
bfc01c54:	3652541c 	ori	s2,s2,0x541c
bfc01c58:	161201ec 	bne	s0,s2,bfc0240c <inst_error>
bfc01c5c:	00000000 	nop
bfc01c60:	3c087922 	lui	t0,0x7922
bfc01c64:	35086200 	ori	t0,t0,0x6200
bfc01c68:	24090000 	li	t1,0
bfc01c6c:	39100000 	xori	s0,t0,0x0
bfc01c70:	3c127922 	lui	s2,0x7922
bfc01c74:	36526200 	ori	s2,s2,0x6200
bfc01c78:	161201e4 	bne	s0,s2,bfc0240c <inst_error>
bfc01c7c:	00000000 	nop
bfc01c80:	3c084731 	lui	t0,0x4731
bfc01c84:	35087d40 	ori	t0,t0,0x7d40
bfc01c88:	24090000 	li	t1,0
bfc01c8c:	39100000 	xori	s0,t0,0x0
bfc01c90:	3c124731 	lui	s2,0x4731
bfc01c94:	36527d40 	ori	s2,s2,0x7d40
bfc01c98:	161201dc 	bne	s0,s2,bfc0240c <inst_error>
bfc01c9c:	00000000 	nop
bfc01ca0:	3c08f314 	lui	t0,0xf314
bfc01ca4:	3508cdd6 	ori	t0,t0,0xcdd6
bfc01ca8:	24090000 	li	t1,0
bfc01cac:	39100000 	xori	s0,t0,0x0
bfc01cb0:	3c12f314 	lui	s2,0xf314
bfc01cb4:	3652cdd6 	ori	s2,s2,0xcdd6
bfc01cb8:	161201d4 	bne	s0,s2,bfc0240c <inst_error>
bfc01cbc:	00000000 	nop
bfc01cc0:	3c0849d1 	lui	t0,0x49d1
bfc01cc4:	350856e0 	ori	t0,t0,0x56e0
bfc01cc8:	24090000 	li	t1,0
bfc01ccc:	39100000 	xori	s0,t0,0x0
bfc01cd0:	3c1249d1 	lui	s2,0x49d1
bfc01cd4:	365256e0 	ori	s2,s2,0x56e0
bfc01cd8:	161201cc 	bne	s0,s2,bfc0240c <inst_error>
bfc01cdc:	00000000 	nop
bfc01ce0:	3c084740 	lui	t0,0x4740
bfc01ce4:	350820d6 	ori	t0,t0,0x20d6
bfc01ce8:	24090000 	li	t1,0
bfc01cec:	39100000 	xori	s0,t0,0x0
bfc01cf0:	3c124740 	lui	s2,0x4740
bfc01cf4:	365220d6 	ori	s2,s2,0x20d6
bfc01cf8:	161201c4 	bne	s0,s2,bfc0240c <inst_error>
bfc01cfc:	00000000 	nop
bfc01d00:	3c083a80 	lui	t0,0x3a80
bfc01d04:	3508da50 	ori	t0,t0,0xda50
bfc01d08:	24090000 	li	t1,0
bfc01d0c:	39100000 	xori	s0,t0,0x0
bfc01d10:	3c123a80 	lui	s2,0x3a80
bfc01d14:	3652da50 	ori	s2,s2,0xda50
bfc01d18:	161201bc 	bne	s0,s2,bfc0240c <inst_error>
bfc01d1c:	00000000 	nop
bfc01d20:	3c085b24 	lui	t0,0x5b24
bfc01d24:	3508a2d7 	ori	t0,t0,0xa2d7
bfc01d28:	24090000 	li	t1,0
bfc01d2c:	39100000 	xori	s0,t0,0x0
bfc01d30:	3c125b24 	lui	s2,0x5b24
bfc01d34:	3652a2d7 	ori	s2,s2,0xa2d7
bfc01d38:	161201b4 	bne	s0,s2,bfc0240c <inst_error>
bfc01d3c:	00000000 	nop
bfc01d40:	3c08c60e 	lui	t0,0xc60e
bfc01d44:	350808d4 	ori	t0,t0,0x8d4
bfc01d48:	24090000 	li	t1,0
bfc01d4c:	39100000 	xori	s0,t0,0x0
bfc01d50:	3c12c60e 	lui	s2,0xc60e
bfc01d54:	365208d4 	ori	s2,s2,0x8d4
bfc01d58:	161201ac 	bne	s0,s2,bfc0240c <inst_error>
bfc01d5c:	00000000 	nop
bfc01d60:	3c088a93 	lui	t0,0x8a93
bfc01d64:	3508a68c 	ori	t0,t0,0xa68c
bfc01d68:	24090000 	li	t1,0
bfc01d6c:	39100000 	xori	s0,t0,0x0
bfc01d70:	3c128a93 	lui	s2,0x8a93
bfc01d74:	3652a68c 	ori	s2,s2,0xa68c
bfc01d78:	161201a4 	bne	s0,s2,bfc0240c <inst_error>
bfc01d7c:	00000000 	nop
bfc01d80:	3c0898c5 	lui	t0,0x98c5
bfc01d84:	350889ba 	ori	t0,t0,0x89ba
bfc01d88:	24090000 	li	t1,0
bfc01d8c:	39100000 	xori	s0,t0,0x0
bfc01d90:	3c1298c5 	lui	s2,0x98c5
bfc01d94:	365289ba 	ori	s2,s2,0x89ba
bfc01d98:	1612019c 	bne	s0,s2,bfc0240c <inst_error>
bfc01d9c:	00000000 	nop
bfc01da0:	3c0814f4 	lui	t0,0x14f4
bfc01da4:	3508dc08 	ori	t0,t0,0xdc08
bfc01da8:	24090000 	li	t1,0
bfc01dac:	39100000 	xori	s0,t0,0x0
bfc01db0:	3c1214f4 	lui	s2,0x14f4
bfc01db4:	3652dc08 	ori	s2,s2,0xdc08
bfc01db8:	16120194 	bne	s0,s2,bfc0240c <inst_error>
bfc01dbc:	00000000 	nop
bfc01dc0:	3c08dc9a 	lui	t0,0xdc9a
bfc01dc4:	35080398 	ori	t0,t0,0x398
bfc01dc8:	24090000 	li	t1,0
bfc01dcc:	39100000 	xori	s0,t0,0x0
bfc01dd0:	3c12dc9a 	lui	s2,0xdc9a
bfc01dd4:	36520398 	ori	s2,s2,0x398
bfc01dd8:	1612018c 	bne	s0,s2,bfc0240c <inst_error>
bfc01ddc:	00000000 	nop
bfc01de0:	3c085785 	lui	t0,0x5785
bfc01de4:	35080870 	ori	t0,t0,0x870
bfc01de8:	24090000 	li	t1,0
bfc01dec:	39100000 	xori	s0,t0,0x0
bfc01df0:	3c125785 	lui	s2,0x5785
bfc01df4:	36520870 	ori	s2,s2,0x870
bfc01df8:	16120184 	bne	s0,s2,bfc0240c <inst_error>
bfc01dfc:	00000000 	nop
bfc01e00:	3c089411 	lui	t0,0x9411
bfc01e04:	3508ecad 	ori	t0,t0,0xecad
bfc01e08:	24090000 	li	t1,0
bfc01e0c:	39100000 	xori	s0,t0,0x0
bfc01e10:	3c129411 	lui	s2,0x9411
bfc01e14:	3652ecad 	ori	s2,s2,0xecad
bfc01e18:	1612017c 	bne	s0,s2,bfc0240c <inst_error>
bfc01e1c:	00000000 	nop
bfc01e20:	3c08918b 	lui	t0,0x918b
bfc01e24:	3508e1ef 	ori	t0,t0,0xe1ef
bfc01e28:	24090000 	li	t1,0
bfc01e2c:	39100000 	xori	s0,t0,0x0
bfc01e30:	3c12918b 	lui	s2,0x918b
bfc01e34:	3652e1ef 	ori	s2,s2,0xe1ef
bfc01e38:	16120174 	bne	s0,s2,bfc0240c <inst_error>
bfc01e3c:	00000000 	nop
bfc01e40:	3c08b47c 	lui	t0,0xb47c
bfc01e44:	3508ced9 	ori	t0,t0,0xced9
bfc01e48:	24090000 	li	t1,0
bfc01e4c:	39100000 	xori	s0,t0,0x0
bfc01e50:	3c12b47c 	lui	s2,0xb47c
bfc01e54:	3652ced9 	ori	s2,s2,0xced9
bfc01e58:	1612016c 	bne	s0,s2,bfc0240c <inst_error>
bfc01e5c:	00000000 	nop
bfc01e60:	3c084bbe 	lui	t0,0x4bbe
bfc01e64:	3508dad2 	ori	t0,t0,0xdad2
bfc01e68:	24090000 	li	t1,0
bfc01e6c:	39100000 	xori	s0,t0,0x0
bfc01e70:	3c124bbe 	lui	s2,0x4bbe
bfc01e74:	3652dad2 	ori	s2,s2,0xdad2
bfc01e78:	16120164 	bne	s0,s2,bfc0240c <inst_error>
bfc01e7c:	00000000 	nop
bfc01e80:	3c080e54 	lui	t0,0xe54
bfc01e84:	3508c7f0 	ori	t0,t0,0xc7f0
bfc01e88:	24090000 	li	t1,0
bfc01e8c:	39100000 	xori	s0,t0,0x0
bfc01e90:	3c120e54 	lui	s2,0xe54
bfc01e94:	3652c7f0 	ori	s2,s2,0xc7f0
bfc01e98:	1612015c 	bne	s0,s2,bfc0240c <inst_error>
bfc01e9c:	00000000 	nop
bfc01ea0:	3c08ebaf 	lui	t0,0xebaf
bfc01ea4:	350886d8 	ori	t0,t0,0x86d8
bfc01ea8:	24090000 	li	t1,0
bfc01eac:	39100000 	xori	s0,t0,0x0
bfc01eb0:	3c12ebaf 	lui	s2,0xebaf
bfc01eb4:	365286d8 	ori	s2,s2,0x86d8
bfc01eb8:	16120154 	bne	s0,s2,bfc0240c <inst_error>
bfc01ebc:	00000000 	nop
bfc01ec0:	3c08e82f 	lui	t0,0xe82f
bfc01ec4:	3508bf0e 	ori	t0,t0,0xbf0e
bfc01ec8:	24090000 	li	t1,0
bfc01ecc:	39100000 	xori	s0,t0,0x0
bfc01ed0:	3c12e82f 	lui	s2,0xe82f
bfc01ed4:	3652bf0e 	ori	s2,s2,0xbf0e
bfc01ed8:	1612014c 	bne	s0,s2,bfc0240c <inst_error>
bfc01edc:	00000000 	nop
bfc01ee0:	3c081cb3 	lui	t0,0x1cb3
bfc01ee4:	3508f250 	ori	t0,t0,0xf250
bfc01ee8:	24090000 	li	t1,0
bfc01eec:	39100000 	xori	s0,t0,0x0
bfc01ef0:	3c121cb3 	lui	s2,0x1cb3
bfc01ef4:	3652f250 	ori	s2,s2,0xf250
bfc01ef8:	16120144 	bne	s0,s2,bfc0240c <inst_error>
bfc01efc:	00000000 	nop
bfc01f00:	3c0875f9 	lui	t0,0x75f9
bfc01f04:	35089ed0 	ori	t0,t0,0x9ed0
bfc01f08:	24090000 	li	t1,0
bfc01f0c:	39100000 	xori	s0,t0,0x0
bfc01f10:	3c1275f9 	lui	s2,0x75f9
bfc01f14:	36529ed0 	ori	s2,s2,0x9ed0
bfc01f18:	1612013c 	bne	s0,s2,bfc0240c <inst_error>
bfc01f1c:	00000000 	nop
bfc01f20:	3c0895fb 	lui	t0,0x95fb
bfc01f24:	350846f8 	ori	t0,t0,0x46f8
bfc01f28:	24090000 	li	t1,0
bfc01f2c:	39100000 	xori	s0,t0,0x0
bfc01f30:	3c1295fb 	lui	s2,0x95fb
bfc01f34:	365246f8 	ori	s2,s2,0x46f8
bfc01f38:	16120134 	bne	s0,s2,bfc0240c <inst_error>
bfc01f3c:	00000000 	nop
bfc01f40:	24080000 	li	t0,0
bfc01f44:	240929f4 	li	t1,10740
bfc01f48:	391029f4 	xori	s0,t0,0x29f4
bfc01f4c:	241229f4 	li	s2,10740
bfc01f50:	1612012e 	bne	s0,s2,bfc0240c <inst_error>
bfc01f54:	00000000 	nop
bfc01f58:	24080000 	li	t0,0
bfc01f5c:	3409d098 	li	t1,0xd098
bfc01f60:	3910d098 	xori	s0,t0,0xd098
bfc01f64:	3412d098 	li	s2,0xd098
bfc01f68:	16120128 	bne	s0,s2,bfc0240c <inst_error>
bfc01f6c:	00000000 	nop
bfc01f70:	24080000 	li	t0,0
bfc01f74:	24097701 	li	t1,30465
bfc01f78:	39107701 	xori	s0,t0,0x7701
bfc01f7c:	24127701 	li	s2,30465
bfc01f80:	16120122 	bne	s0,s2,bfc0240c <inst_error>
bfc01f84:	00000000 	nop
bfc01f88:	24080000 	li	t0,0
bfc01f8c:	24092f1d 	li	t1,12061
bfc01f90:	39102f1d 	xori	s0,t0,0x2f1d
bfc01f94:	24122f1d 	li	s2,12061
bfc01f98:	1612011c 	bne	s0,s2,bfc0240c <inst_error>
bfc01f9c:	00000000 	nop
bfc01fa0:	24080000 	li	t0,0
bfc01fa4:	2409779e 	li	t1,30622
bfc01fa8:	3910779e 	xori	s0,t0,0x779e
bfc01fac:	2412779e 	li	s2,30622
bfc01fb0:	16120116 	bne	s0,s2,bfc0240c <inst_error>
bfc01fb4:	00000000 	nop
bfc01fb8:	24080000 	li	t0,0
bfc01fbc:	24092ec9 	li	t1,11977
bfc01fc0:	39102ec9 	xori	s0,t0,0x2ec9
bfc01fc4:	24122ec9 	li	s2,11977
bfc01fc8:	16120110 	bne	s0,s2,bfc0240c <inst_error>
bfc01fcc:	00000000 	nop
bfc01fd0:	24080000 	li	t0,0
bfc01fd4:	3409a0a4 	li	t1,0xa0a4
bfc01fd8:	3910a0a4 	xori	s0,t0,0xa0a4
bfc01fdc:	3412a0a4 	li	s2,0xa0a4
bfc01fe0:	1612010a 	bne	s0,s2,bfc0240c <inst_error>
bfc01fe4:	00000000 	nop
bfc01fe8:	24080000 	li	t0,0
bfc01fec:	240966b6 	li	t1,26294
bfc01ff0:	391066b6 	xori	s0,t0,0x66b6
bfc01ff4:	241266b6 	li	s2,26294
bfc01ff8:	16120104 	bne	s0,s2,bfc0240c <inst_error>
bfc01ffc:	00000000 	nop
bfc02000:	24080000 	li	t0,0
bfc02004:	3409d5c4 	li	t1,0xd5c4
bfc02008:	3910d5c4 	xori	s0,t0,0xd5c4
bfc0200c:	3412d5c4 	li	s2,0xd5c4
bfc02010:	161200fe 	bne	s0,s2,bfc0240c <inst_error>
bfc02014:	00000000 	nop
bfc02018:	24080000 	li	t0,0
bfc0201c:	24097f41 	li	t1,32577
bfc02020:	39107f41 	xori	s0,t0,0x7f41
bfc02024:	24127f41 	li	s2,32577
bfc02028:	161200f8 	bne	s0,s2,bfc0240c <inst_error>
bfc0202c:	00000000 	nop
bfc02030:	24080000 	li	t0,0
bfc02034:	3409e5cc 	li	t1,0xe5cc
bfc02038:	3910e5cc 	xori	s0,t0,0xe5cc
bfc0203c:	3412e5cc 	li	s2,0xe5cc
bfc02040:	161200f2 	bne	s0,s2,bfc0240c <inst_error>
bfc02044:	00000000 	nop
bfc02048:	24080000 	li	t0,0
bfc0204c:	3409a94c 	li	t1,0xa94c
bfc02050:	3910a94c 	xori	s0,t0,0xa94c
bfc02054:	3412a94c 	li	s2,0xa94c
bfc02058:	161200ec 	bne	s0,s2,bfc0240c <inst_error>
bfc0205c:	00000000 	nop
bfc02060:	24080000 	li	t0,0
bfc02064:	24097f06 	li	t1,32518
bfc02068:	39107f06 	xori	s0,t0,0x7f06
bfc0206c:	24127f06 	li	s2,32518
bfc02070:	161200e6 	bne	s0,s2,bfc0240c <inst_error>
bfc02074:	00000000 	nop
bfc02078:	24080000 	li	t0,0
bfc0207c:	24097f84 	li	t1,32644
bfc02080:	39107f84 	xori	s0,t0,0x7f84
bfc02084:	24127f84 	li	s2,32644
bfc02088:	161200e0 	bne	s0,s2,bfc0240c <inst_error>
bfc0208c:	00000000 	nop
bfc02090:	24080000 	li	t0,0
bfc02094:	24094a4d 	li	t1,19021
bfc02098:	39104a4d 	xori	s0,t0,0x4a4d
bfc0209c:	24124a4d 	li	s2,19021
bfc020a0:	161200da 	bne	s0,s2,bfc0240c <inst_error>
bfc020a4:	00000000 	nop
bfc020a8:	24080000 	li	t0,0
bfc020ac:	3409def8 	li	t1,0xdef8
bfc020b0:	3910def8 	xori	s0,t0,0xdef8
bfc020b4:	3412def8 	li	s2,0xdef8
bfc020b8:	161200d4 	bne	s0,s2,bfc0240c <inst_error>
bfc020bc:	00000000 	nop
bfc020c0:	24080000 	li	t0,0
bfc020c4:	24093804 	li	t1,14340
bfc020c8:	39103804 	xori	s0,t0,0x3804
bfc020cc:	24123804 	li	s2,14340
bfc020d0:	161200ce 	bne	s0,s2,bfc0240c <inst_error>
bfc020d4:	00000000 	nop
bfc020d8:	24080000 	li	t0,0
bfc020dc:	3409f9d0 	li	t1,0xf9d0
bfc020e0:	3910f9d0 	xori	s0,t0,0xf9d0
bfc020e4:	3412f9d0 	li	s2,0xf9d0
bfc020e8:	161200c8 	bne	s0,s2,bfc0240c <inst_error>
bfc020ec:	00000000 	nop
bfc020f0:	24080000 	li	t0,0
bfc020f4:	3409f394 	li	t1,0xf394
bfc020f8:	3910f394 	xori	s0,t0,0xf394
bfc020fc:	3412f394 	li	s2,0xf394
bfc02100:	161200c2 	bne	s0,s2,bfc0240c <inst_error>
bfc02104:	00000000 	nop
bfc02108:	24080000 	li	t0,0
bfc0210c:	34098383 	li	t1,0x8383
bfc02110:	39108383 	xori	s0,t0,0x8383
bfc02114:	34128383 	li	s2,0x8383
bfc02118:	161200bc 	bne	s0,s2,bfc0240c <inst_error>
bfc0211c:	00000000 	nop
bfc02120:	24080000 	li	t0,0
bfc02124:	3409bec8 	li	t1,0xbec8
bfc02128:	3910bec8 	xori	s0,t0,0xbec8
bfc0212c:	3412bec8 	li	s2,0xbec8
bfc02130:	161200b6 	bne	s0,s2,bfc0240c <inst_error>
bfc02134:	00000000 	nop
bfc02138:	24080000 	li	t0,0
bfc0213c:	3409d9a8 	li	t1,0xd9a8
bfc02140:	3910d9a8 	xori	s0,t0,0xd9a8
bfc02144:	3412d9a8 	li	s2,0xd9a8
bfc02148:	161200b0 	bne	s0,s2,bfc0240c <inst_error>
bfc0214c:	00000000 	nop
bfc02150:	24080000 	li	t0,0
bfc02154:	3409c10a 	li	t1,0xc10a
bfc02158:	3910c10a 	xori	s0,t0,0xc10a
bfc0215c:	3412c10a 	li	s2,0xc10a
bfc02160:	161200aa 	bne	s0,s2,bfc0240c <inst_error>
bfc02164:	00000000 	nop
bfc02168:	24080000 	li	t0,0
bfc0216c:	34099362 	li	t1,0x9362
bfc02170:	39109362 	xori	s0,t0,0x9362
bfc02174:	34129362 	li	s2,0x9362
bfc02178:	161200a4 	bne	s0,s2,bfc0240c <inst_error>
bfc0217c:	00000000 	nop
bfc02180:	24080000 	li	t0,0
bfc02184:	3409c5c6 	li	t1,0xc5c6
bfc02188:	3910c5c6 	xori	s0,t0,0xc5c6
bfc0218c:	3412c5c6 	li	s2,0xc5c6
bfc02190:	1612009e 	bne	s0,s2,bfc0240c <inst_error>
bfc02194:	00000000 	nop
bfc02198:	24080000 	li	t0,0
bfc0219c:	24091764 	li	t1,5988
bfc021a0:	39101764 	xori	s0,t0,0x1764
bfc021a4:	24121764 	li	s2,5988
bfc021a8:	16120098 	bne	s0,s2,bfc0240c <inst_error>
bfc021ac:	00000000 	nop
bfc021b0:	24080000 	li	t0,0
bfc021b4:	3409b690 	li	t1,0xb690
bfc021b8:	3910b690 	xori	s0,t0,0xb690
bfc021bc:	3412b690 	li	s2,0xb690
bfc021c0:	16120092 	bne	s0,s2,bfc0240c <inst_error>
bfc021c4:	00000000 	nop
bfc021c8:	24080000 	li	t0,0
bfc021cc:	24097309 	li	t1,29449
bfc021d0:	39107309 	xori	s0,t0,0x7309
bfc021d4:	24127309 	li	s2,29449
bfc021d8:	1612008c 	bne	s0,s2,bfc0240c <inst_error>
bfc021dc:	00000000 	nop
bfc021e0:	24080000 	li	t0,0
bfc021e4:	24091748 	li	t1,5960
bfc021e8:	39101748 	xori	s0,t0,0x1748
bfc021ec:	24121748 	li	s2,5960
bfc021f0:	16120086 	bne	s0,s2,bfc0240c <inst_error>
bfc021f4:	00000000 	nop
bfc021f8:	24080000 	li	t0,0
bfc021fc:	24095fa0 	li	t1,24480
bfc02200:	39105fa0 	xori	s0,t0,0x5fa0
bfc02204:	24125fa0 	li	s2,24480
bfc02208:	16120080 	bne	s0,s2,bfc0240c <inst_error>
bfc0220c:	00000000 	nop
bfc02210:	24080000 	li	t0,0
bfc02214:	240907ec 	li	t1,2028
bfc02218:	391007ec 	xori	s0,t0,0x7ec
bfc0221c:	241207ec 	li	s2,2028
bfc02220:	1612007a 	bne	s0,s2,bfc0240c <inst_error>
bfc02224:	00000000 	nop
bfc02228:	24080000 	li	t0,0
bfc0222c:	3409feaa 	li	t1,0xfeaa
bfc02230:	3910feaa 	xori	s0,t0,0xfeaa
bfc02234:	3412feaa 	li	s2,0xfeaa
bfc02238:	16120074 	bne	s0,s2,bfc0240c <inst_error>
bfc0223c:	00000000 	nop
bfc02240:	24080000 	li	t0,0
bfc02244:	24091f26 	li	t1,7974
bfc02248:	39101f26 	xori	s0,t0,0x1f26
bfc0224c:	24121f26 	li	s2,7974
bfc02250:	1612006e 	bne	s0,s2,bfc0240c <inst_error>
bfc02254:	00000000 	nop
bfc02258:	24080000 	li	t0,0
bfc0225c:	3409c9ad 	li	t1,0xc9ad
bfc02260:	3910c9ad 	xori	s0,t0,0xc9ad
bfc02264:	3412c9ad 	li	s2,0xc9ad
bfc02268:	16120068 	bne	s0,s2,bfc0240c <inst_error>
bfc0226c:	00000000 	nop
bfc02270:	24080000 	li	t0,0
bfc02274:	34099baf 	li	t1,0x9baf
bfc02278:	39109baf 	xori	s0,t0,0x9baf
bfc0227c:	34129baf 	li	s2,0x9baf
bfc02280:	16120062 	bne	s0,s2,bfc0240c <inst_error>
bfc02284:	00000000 	nop
bfc02288:	24080000 	li	t0,0
bfc0228c:	3409a726 	li	t1,0xa726
bfc02290:	3910a726 	xori	s0,t0,0xa726
bfc02294:	3412a726 	li	s2,0xa726
bfc02298:	1612005c 	bne	s0,s2,bfc0240c <inst_error>
bfc0229c:	00000000 	nop
bfc022a0:	24080000 	li	t0,0
bfc022a4:	3409b432 	li	t1,0xb432
bfc022a8:	3910b432 	xori	s0,t0,0xb432
bfc022ac:	3412b432 	li	s2,0xb432
bfc022b0:	16120056 	bne	s0,s2,bfc0240c <inst_error>
bfc022b4:	00000000 	nop
bfc022b8:	24080000 	li	t0,0
bfc022bc:	2409766e 	li	t1,30318
bfc022c0:	3910766e 	xori	s0,t0,0x766e
bfc022c4:	2412766e 	li	s2,30318
bfc022c8:	16120050 	bne	s0,s2,bfc0240c <inst_error>
bfc022cc:	00000000 	nop
bfc022d0:	24080000 	li	t0,0
bfc022d4:	3409eff0 	li	t1,0xeff0
bfc022d8:	3910eff0 	xori	s0,t0,0xeff0
bfc022dc:	3412eff0 	li	s2,0xeff0
bfc022e0:	1612004a 	bne	s0,s2,bfc0240c <inst_error>
bfc022e4:	00000000 	nop
bfc022e8:	24080000 	li	t0,0
bfc022ec:	240904ce 	li	t1,1230
bfc022f0:	391004ce 	xori	s0,t0,0x4ce
bfc022f4:	241204ce 	li	s2,1230
bfc022f8:	16120044 	bne	s0,s2,bfc0240c <inst_error>
bfc022fc:	00000000 	nop
bfc02300:	24080000 	li	t0,0
bfc02304:	3409be24 	li	t1,0xbe24
bfc02308:	3910be24 	xori	s0,t0,0xbe24
bfc0230c:	3412be24 	li	s2,0xbe24
bfc02310:	1612003e 	bne	s0,s2,bfc0240c <inst_error>
bfc02314:	00000000 	nop
bfc02318:	24080000 	li	t0,0
bfc0231c:	3409e1e1 	li	t1,0xe1e1
bfc02320:	3910e1e1 	xori	s0,t0,0xe1e1
bfc02324:	3412e1e1 	li	s2,0xe1e1
bfc02328:	16120038 	bne	s0,s2,bfc0240c <inst_error>
bfc0232c:	00000000 	nop
bfc02330:	24080000 	li	t0,0
bfc02334:	3409ed90 	li	t1,0xed90
bfc02338:	3910ed90 	xori	s0,t0,0xed90
bfc0233c:	3412ed90 	li	s2,0xed90
bfc02340:	16120032 	bne	s0,s2,bfc0240c <inst_error>
bfc02344:	00000000 	nop
bfc02348:	24080000 	li	t0,0
bfc0234c:	34098a2d 	li	t1,0x8a2d
bfc02350:	39108a2d 	xori	s0,t0,0x8a2d
bfc02354:	34128a2d 	li	s2,0x8a2d
bfc02358:	1612002c 	bne	s0,s2,bfc0240c <inst_error>
bfc0235c:	00000000 	nop
bfc02360:	24080000 	li	t0,0
bfc02364:	2409205c 	li	t1,8284
bfc02368:	3910205c 	xori	s0,t0,0x205c
bfc0236c:	2412205c 	li	s2,8284
bfc02370:	16120026 	bne	s0,s2,bfc0240c <inst_error>
bfc02374:	00000000 	nop
bfc02378:	24080000 	li	t0,0
bfc0237c:	240922a8 	li	t1,8872
bfc02380:	391022a8 	xori	s0,t0,0x22a8
bfc02384:	241222a8 	li	s2,8872
bfc02388:	16120020 	bne	s0,s2,bfc0240c <inst_error>
bfc0238c:	00000000 	nop
bfc02390:	24080000 	li	t0,0
bfc02394:	2409016d 	li	t1,365
bfc02398:	3910016d 	xori	s0,t0,0x16d
bfc0239c:	2412016d 	li	s2,365
bfc023a0:	1612001a 	bne	s0,s2,bfc0240c <inst_error>
bfc023a4:	00000000 	nop
bfc023a8:	24080000 	li	t0,0
bfc023ac:	24091502 	li	t1,5378
bfc023b0:	39101502 	xori	s0,t0,0x1502
bfc023b4:	24121502 	li	s2,5378
bfc023b8:	16120014 	bne	s0,s2,bfc0240c <inst_error>
bfc023bc:	00000000 	nop
bfc023c0:	24080000 	li	t0,0
bfc023c4:	24094ac5 	li	t1,19141
bfc023c8:	39104ac5 	xori	s0,t0,0x4ac5
bfc023cc:	24124ac5 	li	s2,19141
bfc023d0:	1612000e 	bne	s0,s2,bfc0240c <inst_error>
bfc023d4:	00000000 	nop
bfc023d8:	24080000 	li	t0,0
bfc023dc:	3409d918 	li	t1,0xd918
bfc023e0:	3910d918 	xori	s0,t0,0xd918
bfc023e4:	3412d918 	li	s2,0xd918
bfc023e8:	16120008 	bne	s0,s2,bfc0240c <inst_error>
bfc023ec:	00000000 	nop
bfc023f0:	24080000 	li	t0,0
bfc023f4:	24090000 	li	t1,0
bfc023f8:	39100000 	xori	s0,t0,0x0
bfc023fc:	24120000 	li	s2,0
bfc02400:	16120002 	bne	s0,s2,bfc0240c <inst_error>
bfc02404:	00000000 	nop
bfc02408:	4a000000 	c2	0x0

bfc0240c <inst_error>:
inst_error():
bfc0240c:	0000003f 	0x3f

Disassembly of section .reginfo:

00000000 <.reginfo>:
   0:	00050300 	sll	zero,a1,0xc
	...
